

Microchip MPLAB XC8 Assembler V2.46 build 20240104201356 
                                                                                               Thu Jan 29 16:47:02 2026

Microchip MPLAB XC8 C Compiler v2.46 (Free license) build 20240104201356 Og1 
     1                           	processor	16F1718
     2                           	pagewidth 120
     3                           	opt	flic
     4                           	psect	idataBANK0,global,class=CODE,delta=2,noexec
     5                           	psect	stringtext1,global,class=STRCODE,delta=2,noexec
     6                           	psect	stringtext2,global,class=STRCODE,delta=2,noexec
     7                           	psect	stringtext3,global,class=STRCODE,delta=2,noexec
     8                           	psect	stringtext4,global,class=STRCODE,delta=2,noexec
     9                           	psect	stringtext5,global,class=STRCODE,delta=2,noexec
    10                           	psect	stringtext6,global,class=STRCODE,delta=2,noexec
    11                           	psect	stringtext7,global,class=STRCODE,delta=2,noexec
    12                           	psect	stringtext8,global,class=STRCODE,delta=2,noexec
    13                           	psect	stringtext9,global,class=STRCODE,delta=2,noexec
    14                           	psect	stringtext10,global,class=STRCODE,delta=2,noexec
    15                           	psect	stringtext11,global,class=STRCODE,delta=2,noexec
    16                           	psect	stringtext12,global,class=STRCODE,delta=2,noexec
    17                           	psect	stringtext13,global,class=STRCODE,delta=2,noexec
    18                           	psect	stringtext14,global,class=STRCODE,delta=2,noexec
    19                           	psect	cinit,global,class=CODE,merge=1,delta=2
    20                           	psect	dataBANK0,global,class=BANK0,space=1,delta=1,noexec
    21                           	psect	inittext,global,class=CODE,delta=2
    22                           	psect	cstackCOMMON,global,class=COMMON,space=1,delta=1,noexec
    23                           	psect	cstackBANK0,global,class=BANK0,space=1,delta=1,noexec
    24                           	psect	maintext,global,class=CODE,merge=1,split=1,delta=2
    25                           	psect	text1,local,class=CODE,merge=1,delta=2
    26                           	psect	text2,local,class=CODE,merge=1,delta=2
    27                           	psect	text3,local,class=CODE,merge=1,delta=2
    28                           	psect	text4,local,class=CODE,merge=1,delta=2
    29                           	psect	text5,local,class=CODE,merge=1,delta=2
    30                           	psect	text6,local,class=CODE,merge=1,delta=2
    31                           	psect	text7,local,class=CODE,merge=1,delta=2
    32                           	psect	text8,local,class=CODE,merge=1,inline,delta=2
    33                           	psect	text9,local,class=CODE,merge=1,delta=2
    34                           	psect	text10,local,class=CODE,merge=1,delta=2
    35                           	psect	text11,local,class=CODE,merge=1,delta=2
    36                           	psect	text12,local,class=CODE,merge=1,delta=2
    37                           	psect	text13,local,class=CODE,merge=1,delta=2
    38                           	psect	text14,local,class=CODE,merge=1,delta=2
    39                           	psect	text15,local,class=CODE,merge=1,delta=2
    40                           	psect	text16,local,class=CODE,merge=1,inline,delta=2
    41                           	psect	text17,local,class=CODE,merge=1,delta=2
    42                           	psect	text18,local,class=CODE,merge=1,inline,delta=2
    43                           	psect	text19,local,class=CODE,merge=1,delta=2
    44                           	psect	text20,local,class=CODE,merge=1,delta=2
    45                           	psect	text21,local,class=CODE,merge=1,delta=2
    46                           	psect	text22,local,class=CODE,merge=1,inline,delta=2
    47                           	psect	text23,local,class=CODE,merge=1,inline,delta=2
    48                           	psect	text24,local,class=CODE,merge=1,delta=2
    49                           	psect	text25,local,class=CODE,merge=1,delta=2
    50                           	psect	text26,local,class=CODE,merge=1,delta=2
    51                           	psect	text27,local,class=CODE,merge=1,delta=2
    52                           	psect	text28,local,class=CODE,merge=1,delta=2,group=1
    53                           	psect	text29,local,class=CODE,merge=1,delta=2,group=1
    54                           	psect	text30,local,class=CODE,merge=1,delta=2,group=1
    55                           	psect	text31,local,class=CODE,merge=1,delta=2
    56                           	psect	text32,local,class=CODE,merge=1,delta=2
    57                           	psect	text33,local,class=CODE,merge=1,delta=2,group=1
    58                           	psect	config,global,abs,ovrld,class=CONFIG,space=4,delta=2,noexec
    59                           	dabs	1,0x7E,2
    60     0000                     
    61                           ; Generated 07/09/2023 GMT
    62                           ; 
    63                           ; Copyright © 2023, Microchip Technology Inc. and its subsidiaries ("Microchip")
    64                           ; All rights reserved.
    65                           ; 
    66                           ; This software is developed by Microchip Technology Inc. and its subsidiaries ("Microch
      +                          ip").
    67                           ; 
    68                           ; Redistribution and use in source and binary forms, with or without modification, are
    69                           ; permitted provided that the following conditions are met:
    70                           ; 
    71                           ;     1. Redistributions of source code must retain the above copyright notice, this lis
      +                          t of
    72                           ;        conditions and the following disclaimer.
    73                           ; 
    74                           ;     2. Redistributions in binary form must reproduce the above copyright notice, this 
      +                          list
    75                           ;        of conditions and the following disclaimer in the documentation and/or other
    76                           ;        materials provided with the distribution. Publication is not required when
    77                           ;        this file is used in an embedded application.
    78                           ; 
    79                           ;     3. Microchip's name may not be used to endorse or promote products derived from th
      +                          is
    80                           ;        software without specific prior written permission.
    81                           ; 
    82                           ; THIS SOFTWARE IS PROVIDED BY MICROCHIP "AS IS" AND ANY EXPRESS OR IMPLIED WARRANTIES,
    83                           ; INCLUDING, BUT NOT LIMITED TO, THE IMPLIED WARRANTIES OF MERCHANTABILITY AND FITNESS F
      +                          OR
    84                           ; PURPOSE ARE DISCLAIMED.  IN NO EVENT SHALL MICROCHIP BE LIABLE FOR ANY DIRECT, INDIREC
      +                          T,
    85                           ; INCIDENTAL, SPECIAL, EXEMPLARY, OR CONSEQUENTIAL DAMAGES (INCLUDING BUT NOT LIMITED TO
    86                           ; PROCUREMENT OF SUBSTITUTE GOODS OR SERVICES; LOSS OF USE, DATA OR PROFITS; OR BUSINESS
    87                           ; INTERRUPTION) HOWSOEVER CAUSED AND ON ANY THEORY OF LIABILITY, WHETHER IN CONTRACT, ST
      +                          RICT
    88                           ; LIABILITY, OR TORT (INCLUDING NEGLIGENCE OR OTHERWISE) ARISING IN ANY WAY OUT OF THE U
      +                          SE OF
    89                           ; THIS SOFTWARE, EVEN IF ADVISED OF THE POSSIBILITY OF SUCH DAMAGE.
    90                           ; 
    91                           ; 
    92                           ; Code-generator required, PIC16F1718 Definitions
    93                           ; 
    94                           ; SFR Addresses
    95     0000                     	;# 
    96     0001                     	;# 
    97     0002                     	;# 
    98     0003                     	;# 
    99     0004                     	;# 
   100     0005                     	;# 
   101     0006                     	;# 
   102     0007                     	;# 
   103     0008                     	;# 
   104     0009                     	;# 
   105     000A                     	;# 
   106     000B                     	;# 
   107     000C                     	;# 
   108     000D                     	;# 
   109     000E                     	;# 
   110     0010                     	;# 
   111     0011                     	;# 
   112     0012                     	;# 
   113     0013                     	;# 
   114     0015                     	;# 
   115     0016                     	;# 
   116     0016                     	;# 
   117     0017                     	;# 
   118     0018                     	;# 
   119     0019                     	;# 
   120     001A                     	;# 
   121     001B                     	;# 
   122     001C                     	;# 
   123     008C                     	;# 
   124     008D                     	;# 
   125     008E                     	;# 
   126     0090                     	;# 
   127     0091                     	;# 
   128     0092                     	;# 
   129     0093                     	;# 
   130     0095                     	;# 
   131     0096                     	;# 
   132     0097                     	;# 
   133     0098                     	;# 
   134     0099                     	;# 
   135     009A                     	;# 
   136     009B                     	;# 
   137     009B                     	;# 
   138     009C                     	;# 
   139     009D                     	;# 
   140     009E                     	;# 
   141     009F                     	;# 
   142     010C                     	;# 
   143     010D                     	;# 
   144     010E                     	;# 
   145     0111                     	;# 
   146     0112                     	;# 
   147     0113                     	;# 
   148     0114                     	;# 
   149     0115                     	;# 
   150     0116                     	;# 
   151     0117                     	;# 
   152     0118                     	;# 
   153     0119                     	;# 
   154     011A                     	;# 
   155     011B                     	;# 
   156     011B                     	;# 
   157     011C                     	;# 
   158     018C                     	;# 
   159     018D                     	;# 
   160     018E                     	;# 
   161     0191                     	;# 
   162     0191                     	;# 
   163     0192                     	;# 
   164     0193                     	;# 
   165     0193                     	;# 
   166     0194                     	;# 
   167     0195                     	;# 
   168     0196                     	;# 
   169     0197                     	;# 
   170     0199                     	;# 
   171     0199                     	;# 
   172     0199                     	;# 
   173     019A                     	;# 
   174     019A                     	;# 
   175     019A                     	;# 
   176     019B                     	;# 
   177     019B                     	;# 
   178     019B                     	;# 
   179     019B                     	;# 
   180     019B                     	;# 
   181     019C                     	;# 
   182     019C                     	;# 
   183     019C                     	;# 
   184     019D                     	;# 
   185     019D                     	;# 
   186     019D                     	;# 
   187     019E                     	;# 
   188     019E                     	;# 
   189     019E                     	;# 
   190     019F                     	;# 
   191     019F                     	;# 
   192     019F                     	;# 
   193     019F                     	;# 
   194     019F                     	;# 
   195     020C                     	;# 
   196     020D                     	;# 
   197     020E                     	;# 
   198     0210                     	;# 
   199     0211                     	;# 
   200     0211                     	;# 
   201     0212                     	;# 
   202     0212                     	;# 
   203     0213                     	;# 
   204     0213                     	;# 
   205     0214                     	;# 
   206     0214                     	;# 
   207     0215                     	;# 
   208     0215                     	;# 
   209     0215                     	;# 
   210     0215                     	;# 
   211     0216                     	;# 
   212     0216                     	;# 
   213     0217                     	;# 
   214     0217                     	;# 
   215     028C                     	;# 
   216     028D                     	;# 
   217     028E                     	;# 
   218     0291                     	;# 
   219     0291                     	;# 
   220     0292                     	;# 
   221     0293                     	;# 
   222     0293                     	;# 
   223     0298                     	;# 
   224     0298                     	;# 
   225     0299                     	;# 
   226     029A                     	;# 
   227     029A                     	;# 
   228     029E                     	;# 
   229     030C                     	;# 
   230     030D                     	;# 
   231     030E                     	;# 
   232     038C                     	;# 
   233     038D                     	;# 
   234     038E                     	;# 
   235     0390                     	;# 
   236     0391                     	;# 
   237     0392                     	;# 
   238     0393                     	;# 
   239     0394                     	;# 
   240     0395                     	;# 
   241     0396                     	;# 
   242     0397                     	;# 
   243     0398                     	;# 
   244     0399                     	;# 
   245     039D                     	;# 
   246     039E                     	;# 
   247     039F                     	;# 
   248     0415                     	;# 
   249     0416                     	;# 
   250     0417                     	;# 
   251     041C                     	;# 
   252     041D                     	;# 
   253     041E                     	;# 
   254     0498                     	;# 
   255     0498                     	;# 
   256     0499                     	;# 
   257     049A                     	;# 
   258     049B                     	;# 
   259     049B                     	;# 
   260     049C                     	;# 
   261     049D                     	;# 
   262     049E                     	;# 
   263     049F                     	;# 
   264     0511                     	;# 
   265     0515                     	;# 
   266     0617                     	;# 
   267     0618                     	;# 
   268     0619                     	;# 
   269     0619                     	;# 
   270     061A                     	;# 
   271     061B                     	;# 
   272     061C                     	;# 
   273     061C                     	;# 
   274     0691                     	;# 
   275     0692                     	;# 
   276     0693                     	;# 
   277     0694                     	;# 
   278     0695                     	;# 
   279     0696                     	;# 
   280     0697                     	;# 
   281     0698                     	;# 
   282     0699                     	;# 
   283     069A                     	;# 
   284     069B                     	;# 
   285     069C                     	;# 
   286     069D                     	;# 
   287     069E                     	;# 
   288     069F                     	;# 
   289     0E0F                     	;# 
   290     0E10                     	;# 
   291     0E11                     	;# 
   292     0E12                     	;# 
   293     0E13                     	;# 
   294     0E14                     	;# 
   295     0E15                     	;# 
   296     0E17                     	;# 
   297     0E20                     	;# 
   298     0E21                     	;# 
   299     0E22                     	;# 
   300     0E24                     	;# 
   301     0E25                     	;# 
   302     0E28                     	;# 
   303     0E29                     	;# 
   304     0E2A                     	;# 
   305     0E2B                     	;# 
   306     0E90                     	;# 
   307     0E91                     	;# 
   308     0E92                     	;# 
   309     0E93                     	;# 
   310     0E94                     	;# 
   311     0E95                     	;# 
   312     0E96                     	;# 
   313     0E97                     	;# 
   314     0E98                     	;# 
   315     0E99                     	;# 
   316     0E9A                     	;# 
   317     0E9B                     	;# 
   318     0E9C                     	;# 
   319     0E9D                     	;# 
   320     0E9E                     	;# 
   321     0E9F                     	;# 
   322     0EA0                     	;# 
   323     0EA1                     	;# 
   324     0EA2                     	;# 
   325     0EA3                     	;# 
   326     0EA4                     	;# 
   327     0EA5                     	;# 
   328     0EA6                     	;# 
   329     0EA7                     	;# 
   330     0F0F                     	;# 
   331     0F10                     	;# 
   332     0F11                     	;# 
   333     0F12                     	;# 
   334     0F13                     	;# 
   335     0F14                     	;# 
   336     0F15                     	;# 
   337     0F16                     	;# 
   338     0F17                     	;# 
   339     0F18                     	;# 
   340     0F19                     	;# 
   341     0F1A                     	;# 
   342     0F1B                     	;# 
   343     0F1C                     	;# 
   344     0F1D                     	;# 
   345     0F1E                     	;# 
   346     0F1F                     	;# 
   347     0F20                     	;# 
   348     0F21                     	;# 
   349     0F22                     	;# 
   350     0F23                     	;# 
   351     0F24                     	;# 
   352     0F25                     	;# 
   353     0F26                     	;# 
   354     0F27                     	;# 
   355     0F28                     	;# 
   356     0F29                     	;# 
   357     0F2A                     	;# 
   358     0F2B                     	;# 
   359     0F2C                     	;# 
   360     0F2D                     	;# 
   361     0F2E                     	;# 
   362     0F2F                     	;# 
   363     0F30                     	;# 
   364     0F31                     	;# 
   365     0F32                     	;# 
   366     0F33                     	;# 
   367     0F34                     	;# 
   368     0F35                     	;# 
   369     0F36                     	;# 
   370     0F37                     	;# 
   371     0FE4                     	;# 
   372     0FE5                     	;# 
   373     0FE6                     	;# 
   374     0FE7                     	;# 
   375     0FE8                     	;# 
   376     0FE9                     	;# 
   377     0FEA                     	;# 
   378     0FEB                     	;# 
   379     0FED                     	;# 
   380     0FEE                     	;# 
   381     0FEF                     	;# 
   382     0000                     	;# 
   383     0001                     	;# 
   384     0002                     	;# 
   385     0003                     	;# 
   386     0004                     	;# 
   387     0005                     	;# 
   388     0006                     	;# 
   389     0007                     	;# 
   390     0008                     	;# 
   391     0009                     	;# 
   392     000A                     	;# 
   393     000B                     	;# 
   394     000C                     	;# 
   395     000D                     	;# 
   396     000E                     	;# 
   397     0010                     	;# 
   398     0011                     	;# 
   399     0012                     	;# 
   400     0013                     	;# 
   401     0015                     	;# 
   402     0016                     	;# 
   403     0016                     	;# 
   404     0017                     	;# 
   405     0018                     	;# 
   406     0019                     	;# 
   407     001A                     	;# 
   408     001B                     	;# 
   409     001C                     	;# 
   410     008C                     	;# 
   411     008D                     	;# 
   412     008E                     	;# 
   413     0090                     	;# 
   414     0091                     	;# 
   415     0092                     	;# 
   416     0093                     	;# 
   417     0095                     	;# 
   418     0096                     	;# 
   419     0097                     	;# 
   420     0098                     	;# 
   421     0099                     	;# 
   422     009A                     	;# 
   423     009B                     	;# 
   424     009B                     	;# 
   425     009C                     	;# 
   426     009D                     	;# 
   427     009E                     	;# 
   428     009F                     	;# 
   429     010C                     	;# 
   430     010D                     	;# 
   431     010E                     	;# 
   432     0111                     	;# 
   433     0112                     	;# 
   434     0113                     	;# 
   435     0114                     	;# 
   436     0115                     	;# 
   437     0116                     	;# 
   438     0117                     	;# 
   439     0118                     	;# 
   440     0119                     	;# 
   441     011A                     	;# 
   442     011B                     	;# 
   443     011B                     	;# 
   444     011C                     	;# 
   445     018C                     	;# 
   446     018D                     	;# 
   447     018E                     	;# 
   448     0191                     	;# 
   449     0191                     	;# 
   450     0192                     	;# 
   451     0193                     	;# 
   452     0193                     	;# 
   453     0194                     	;# 
   454     0195                     	;# 
   455     0196                     	;# 
   456     0197                     	;# 
   457     0199                     	;# 
   458     0199                     	;# 
   459     0199                     	;# 
   460     019A                     	;# 
   461     019A                     	;# 
   462     019A                     	;# 
   463     019B                     	;# 
   464     019B                     	;# 
   465     019B                     	;# 
   466     019B                     	;# 
   467     019B                     	;# 
   468     019C                     	;# 
   469     019C                     	;# 
   470     019C                     	;# 
   471     019D                     	;# 
   472     019D                     	;# 
   473     019D                     	;# 
   474     019E                     	;# 
   475     019E                     	;# 
   476     019E                     	;# 
   477     019F                     	;# 
   478     019F                     	;# 
   479     019F                     	;# 
   480     019F                     	;# 
   481     019F                     	;# 
   482     020C                     	;# 
   483     020D                     	;# 
   484     020E                     	;# 
   485     0210                     	;# 
   486     0211                     	;# 
   487     0211                     	;# 
   488     0212                     	;# 
   489     0212                     	;# 
   490     0213                     	;# 
   491     0213                     	;# 
   492     0214                     	;# 
   493     0214                     	;# 
   494     0215                     	;# 
   495     0215                     	;# 
   496     0215                     	;# 
   497     0215                     	;# 
   498     0216                     	;# 
   499     0216                     	;# 
   500     0217                     	;# 
   501     0217                     	;# 
   502     028C                     	;# 
   503     028D                     	;# 
   504     028E                     	;# 
   505     0291                     	;# 
   506     0291                     	;# 
   507     0292                     	;# 
   508     0293                     	;# 
   509     0293                     	;# 
   510     0298                     	;# 
   511     0298                     	;# 
   512     0299                     	;# 
   513     029A                     	;# 
   514     029A                     	;# 
   515     029E                     	;# 
   516     030C                     	;# 
   517     030D                     	;# 
   518     030E                     	;# 
   519     038C                     	;# 
   520     038D                     	;# 
   521     038E                     	;# 
   522     0390                     	;# 
   523     0391                     	;# 
   524     0392                     	;# 
   525     0393                     	;# 
   526     0394                     	;# 
   527     0395                     	;# 
   528     0396                     	;# 
   529     0397                     	;# 
   530     0398                     	;# 
   531     0399                     	;# 
   532     039D                     	;# 
   533     039E                     	;# 
   534     039F                     	;# 
   535     0415                     	;# 
   536     0416                     	;# 
   537     0417                     	;# 
   538     041C                     	;# 
   539     041D                     	;# 
   540     041E                     	;# 
   541     0498                     	;# 
   542     0498                     	;# 
   543     0499                     	;# 
   544     049A                     	;# 
   545     049B                     	;# 
   546     049B                     	;# 
   547     049C                     	;# 
   548     049D                     	;# 
   549     049E                     	;# 
   550     049F                     	;# 
   551     0511                     	;# 
   552     0515                     	;# 
   553     0617                     	;# 
   554     0618                     	;# 
   555     0619                     	;# 
   556     0619                     	;# 
   557     061A                     	;# 
   558     061B                     	;# 
   559     061C                     	;# 
   560     061C                     	;# 
   561     0691                     	;# 
   562     0692                     	;# 
   563     0693                     	;# 
   564     0694                     	;# 
   565     0695                     	;# 
   566     0696                     	;# 
   567     0697                     	;# 
   568     0698                     	;# 
   569     0699                     	;# 
   570     069A                     	;# 
   571     069B                     	;# 
   572     069C                     	;# 
   573     069D                     	;# 
   574     069E                     	;# 
   575     069F                     	;# 
   576     0E0F                     	;# 
   577     0E10                     	;# 
   578     0E11                     	;# 
   579     0E12                     	;# 
   580     0E13                     	;# 
   581     0E14                     	;# 
   582     0E15                     	;# 
   583     0E17                     	;# 
   584     0E20                     	;# 
   585     0E21                     	;# 
   586     0E22                     	;# 
   587     0E24                     	;# 
   588     0E25                     	;# 
   589     0E28                     	;# 
   590     0E29                     	;# 
   591     0E2A                     	;# 
   592     0E2B                     	;# 
   593     0E90                     	;# 
   594     0E91                     	;# 
   595     0E92                     	;# 
   596     0E93                     	;# 
   597     0E94                     	;# 
   598     0E95                     	;# 
   599     0E96                     	;# 
   600     0E97                     	;# 
   601     0E98                     	;# 
   602     0E99                     	;# 
   603     0E9A                     	;# 
   604     0E9B                     	;# 
   605     0E9C                     	;# 
   606     0E9D                     	;# 
   607     0E9E                     	;# 
   608     0E9F                     	;# 
   609     0EA0                     	;# 
   610     0EA1                     	;# 
   611     0EA2                     	;# 
   612     0EA3                     	;# 
   613     0EA4                     	;# 
   614     0EA5                     	;# 
   615     0EA6                     	;# 
   616     0EA7                     	;# 
   617     0F0F                     	;# 
   618     0F10                     	;# 
   619     0F11                     	;# 
   620     0F12                     	;# 
   621     0F13                     	;# 
   622     0F14                     	;# 
   623     0F15                     	;# 
   624     0F16                     	;# 
   625     0F17                     	;# 
   626     0F18                     	;# 
   627     0F19                     	;# 
   628     0F1A                     	;# 
   629     0F1B                     	;# 
   630     0F1C                     	;# 
   631     0F1D                     	;# 
   632     0F1E                     	;# 
   633     0F1F                     	;# 
   634     0F20                     	;# 
   635     0F21                     	;# 
   636     0F22                     	;# 
   637     0F23                     	;# 
   638     0F24                     	;# 
   639     0F25                     	;# 
   640     0F26                     	;# 
   641     0F27                     	;# 
   642     0F28                     	;# 
   643     0F29                     	;# 
   644     0F2A                     	;# 
   645     0F2B                     	;# 
   646     0F2C                     	;# 
   647     0F2D                     	;# 
   648     0F2E                     	;# 
   649     0F2F                     	;# 
   650     0F30                     	;# 
   651     0F31                     	;# 
   652     0F32                     	;# 
   653     0F33                     	;# 
   654     0F34                     	;# 
   655     0F35                     	;# 
   656     0F36                     	;# 
   657     0F37                     	;# 
   658     0FE4                     	;# 
   659     0FE5                     	;# 
   660     0FE6                     	;# 
   661     0FE7                     	;# 
   662     0FE8                     	;# 
   663     0FE9                     	;# 
   664     0FEA                     	;# 
   665     0FEB                     	;# 
   666     0FED                     	;# 
   667     0FEE                     	;# 
   668     0FEF                     	;# 
   669     0000                     	;# 
   670     0001                     	;# 
   671     0002                     	;# 
   672     0003                     	;# 
   673     0004                     	;# 
   674     0005                     	;# 
   675     0006                     	;# 
   676     0007                     	;# 
   677     0008                     	;# 
   678     0009                     	;# 
   679     000A                     	;# 
   680     000B                     	;# 
   681     000C                     	;# 
   682     000D                     	;# 
   683     000E                     	;# 
   684     0010                     	;# 
   685     0011                     	;# 
   686     0012                     	;# 
   687     0013                     	;# 
   688     0015                     	;# 
   689     0016                     	;# 
   690     0016                     	;# 
   691     0017                     	;# 
   692     0018                     	;# 
   693     0019                     	;# 
   694     001A                     	;# 
   695     001B                     	;# 
   696     001C                     	;# 
   697     008C                     	;# 
   698     008D                     	;# 
   699     008E                     	;# 
   700     0090                     	;# 
   701     0091                     	;# 
   702     0092                     	;# 
   703     0093                     	;# 
   704     0095                     	;# 
   705     0096                     	;# 
   706     0097                     	;# 
   707     0098                     	;# 
   708     0099                     	;# 
   709     009A                     	;# 
   710     009B                     	;# 
   711     009B                     	;# 
   712     009C                     	;# 
   713     009D                     	;# 
   714     009E                     	;# 
   715     009F                     	;# 
   716     010C                     	;# 
   717     010D                     	;# 
   718     010E                     	;# 
   719     0111                     	;# 
   720     0112                     	;# 
   721     0113                     	;# 
   722     0114                     	;# 
   723     0115                     	;# 
   724     0116                     	;# 
   725     0117                     	;# 
   726     0118                     	;# 
   727     0119                     	;# 
   728     011A                     	;# 
   729     011B                     	;# 
   730     011B                     	;# 
   731     011C                     	;# 
   732     018C                     	;# 
   733     018D                     	;# 
   734     018E                     	;# 
   735     0191                     	;# 
   736     0191                     	;# 
   737     0192                     	;# 
   738     0193                     	;# 
   739     0193                     	;# 
   740     0194                     	;# 
   741     0195                     	;# 
   742     0196                     	;# 
   743     0197                     	;# 
   744     0199                     	;# 
   745     0199                     	;# 
   746     0199                     	;# 
   747     019A                     	;# 
   748     019A                     	;# 
   749     019A                     	;# 
   750     019B                     	;# 
   751     019B                     	;# 
   752     019B                     	;# 
   753     019B                     	;# 
   754     019B                     	;# 
   755     019C                     	;# 
   756     019C                     	;# 
   757     019C                     	;# 
   758     019D                     	;# 
   759     019D                     	;# 
   760     019D                     	;# 
   761     019E                     	;# 
   762     019E                     	;# 
   763     019E                     	;# 
   764     019F                     	;# 
   765     019F                     	;# 
   766     019F                     	;# 
   767     019F                     	;# 
   768     019F                     	;# 
   769     020C                     	;# 
   770     020D                     	;# 
   771     020E                     	;# 
   772     0210                     	;# 
   773     0211                     	;# 
   774     0211                     	;# 
   775     0212                     	;# 
   776     0212                     	;# 
   777     0213                     	;# 
   778     0213                     	;# 
   779     0214                     	;# 
   780     0214                     	;# 
   781     0215                     	;# 
   782     0215                     	;# 
   783     0215                     	;# 
   784     0215                     	;# 
   785     0216                     	;# 
   786     0216                     	;# 
   787     0217                     	;# 
   788     0217                     	;# 
   789     028C                     	;# 
   790     028D                     	;# 
   791     028E                     	;# 
   792     0291                     	;# 
   793     0291                     	;# 
   794     0292                     	;# 
   795     0293                     	;# 
   796     0293                     	;# 
   797     0298                     	;# 
   798     0298                     	;# 
   799     0299                     	;# 
   800     029A                     	;# 
   801     029A                     	;# 
   802     029E                     	;# 
   803     030C                     	;# 
   804     030D                     	;# 
   805     030E                     	;# 
   806     038C                     	;# 
   807     038D                     	;# 
   808     038E                     	;# 
   809     0390                     	;# 
   810     0391                     	;# 
   811     0392                     	;# 
   812     0393                     	;# 
   813     0394                     	;# 
   814     0395                     	;# 
   815     0396                     	;# 
   816     0397                     	;# 
   817     0398                     	;# 
   818     0399                     	;# 
   819     039D                     	;# 
   820     039E                     	;# 
   821     039F                     	;# 
   822     0415                     	;# 
   823     0416                     	;# 
   824     0417                     	;# 
   825     041C                     	;# 
   826     041D                     	;# 
   827     041E                     	;# 
   828     0498                     	;# 
   829     0498                     	;# 
   830     0499                     	;# 
   831     049A                     	;# 
   832     049B                     	;# 
   833     049B                     	;# 
   834     049C                     	;# 
   835     049D                     	;# 
   836     049E                     	;# 
   837     049F                     	;# 
   838     0511                     	;# 
   839     0515                     	;# 
   840     0617                     	;# 
   841     0618                     	;# 
   842     0619                     	;# 
   843     0619                     	;# 
   844     061A                     	;# 
   845     061B                     	;# 
   846     061C                     	;# 
   847     061C                     	;# 
   848     0691                     	;# 
   849     0692                     	;# 
   850     0693                     	;# 
   851     0694                     	;# 
   852     0695                     	;# 
   853     0696                     	;# 
   854     0697                     	;# 
   855     0698                     	;# 
   856     0699                     	;# 
   857     069A                     	;# 
   858     069B                     	;# 
   859     069C                     	;# 
   860     069D                     	;# 
   861     069E                     	;# 
   862     069F                     	;# 
   863     0E0F                     	;# 
   864     0E10                     	;# 
   865     0E11                     	;# 
   866     0E12                     	;# 
   867     0E13                     	;# 
   868     0E14                     	;# 
   869     0E15                     	;# 
   870     0E17                     	;# 
   871     0E20                     	;# 
   872     0E21                     	;# 
   873     0E22                     	;# 
   874     0E24                     	;# 
   875     0E25                     	;# 
   876     0E28                     	;# 
   877     0E29                     	;# 
   878     0E2A                     	;# 
   879     0E2B                     	;# 
   880     0E90                     	;# 
   881     0E91                     	;# 
   882     0E92                     	;# 
   883     0E93                     	;# 
   884     0E94                     	;# 
   885     0E95                     	;# 
   886     0E96                     	;# 
   887     0E97                     	;# 
   888     0E98                     	;# 
   889     0E99                     	;# 
   890     0E9A                     	;# 
   891     0E9B                     	;# 
   892     0E9C                     	;# 
   893     0E9D                     	;# 
   894     0E9E                     	;# 
   895     0E9F                     	;# 
   896     0EA0                     	;# 
   897     0EA1                     	;# 
   898     0EA2                     	;# 
   899     0EA3                     	;# 
   900     0EA4                     	;# 
   901     0EA5                     	;# 
   902     0EA6                     	;# 
   903     0EA7                     	;# 
   904     0F0F                     	;# 
   905     0F10                     	;# 
   906     0F11                     	;# 
   907     0F12                     	;# 
   908     0F13                     	;# 
   909     0F14                     	;# 
   910     0F15                     	;# 
   911     0F16                     	;# 
   912     0F17                     	;# 
   913     0F18                     	;# 
   914     0F19                     	;# 
   915     0F1A                     	;# 
   916     0F1B                     	;# 
   917     0F1C                     	;# 
   918     0F1D                     	;# 
   919     0F1E                     	;# 
   920     0F1F                     	;# 
   921     0F20                     	;# 
   922     0F21                     	;# 
   923     0F22                     	;# 
   924     0F23                     	;# 
   925     0F24                     	;# 
   926     0F25                     	;# 
   927     0F26                     	;# 
   928     0F27                     	;# 
   929     0F28                     	;# 
   930     0F29                     	;# 
   931     0F2A                     	;# 
   932     0F2B                     	;# 
   933     0F2C                     	;# 
   934     0F2D                     	;# 
   935     0F2E                     	;# 
   936     0F2F                     	;# 
   937     0F30                     	;# 
   938     0F31                     	;# 
   939     0F32                     	;# 
   940     0F33                     	;# 
   941     0F34                     	;# 
   942     0F35                     	;# 
   943     0F36                     	;# 
   944     0F37                     	;# 
   945     0FE4                     	;# 
   946     0FE5                     	;# 
   947     0FE6                     	;# 
   948     0FE7                     	;# 
   949     0FE8                     	;# 
   950     0FE9                     	;# 
   951     0FEA                     	;# 
   952     0FEB                     	;# 
   953     0FED                     	;# 
   954     0FEE                     	;# 
   955     0FEF                     	;# 
   956     0000                     	;# 
   957     0001                     	;# 
   958     0002                     	;# 
   959     0003                     	;# 
   960     0004                     	;# 
   961     0005                     	;# 
   962     0006                     	;# 
   963     0007                     	;# 
   964     0008                     	;# 
   965     0009                     	;# 
   966     000A                     	;# 
   967     000B                     	;# 
   968     000C                     	;# 
   969     000D                     	;# 
   970     000E                     	;# 
   971     0010                     	;# 
   972     0011                     	;# 
   973     0012                     	;# 
   974     0013                     	;# 
   975     0015                     	;# 
   976     0016                     	;# 
   977     0016                     	;# 
   978     0017                     	;# 
   979     0018                     	;# 
   980     0019                     	;# 
   981     001A                     	;# 
   982     001B                     	;# 
   983     001C                     	;# 
   984     008C                     	;# 
   985     008D                     	;# 
   986     008E                     	;# 
   987     0090                     	;# 
   988     0091                     	;# 
   989     0092                     	;# 
   990     0093                     	;# 
   991     0095                     	;# 
   992     0096                     	;# 
   993     0097                     	;# 
   994     0098                     	;# 
   995     0099                     	;# 
   996     009A                     	;# 
   997     009B                     	;# 
   998     009B                     	;# 
   999     009C                     	;# 
  1000     009D                     	;# 
  1001     009E                     	;# 
  1002     009F                     	;# 
  1003     010C                     	;# 
  1004     010D                     	;# 
  1005     010E                     	;# 
  1006     0111                     	;# 
  1007     0112                     	;# 
  1008     0113                     	;# 
  1009     0114                     	;# 
  1010     0115                     	;# 
  1011     0116                     	;# 
  1012     0117                     	;# 
  1013     0118                     	;# 
  1014     0119                     	;# 
  1015     011A                     	;# 
  1016     011B                     	;# 
  1017     011B                     	;# 
  1018     011C                     	;# 
  1019     018C                     	;# 
  1020     018D                     	;# 
  1021     018E                     	;# 
  1022     0191                     	;# 
  1023     0191                     	;# 
  1024     0192                     	;# 
  1025     0193                     	;# 
  1026     0193                     	;# 
  1027     0194                     	;# 
  1028     0195                     	;# 
  1029     0196                     	;# 
  1030     0197                     	;# 
  1031     0199                     	;# 
  1032     0199                     	;# 
  1033     0199                     	;# 
  1034     019A                     	;# 
  1035     019A                     	;# 
  1036     019A                     	;# 
  1037     019B                     	;# 
  1038     019B                     	;# 
  1039     019B                     	;# 
  1040     019B                     	;# 
  1041     019B                     	;# 
  1042     019C                     	;# 
  1043     019C                     	;# 
  1044     019C                     	;# 
  1045     019D                     	;# 
  1046     019D                     	;# 
  1047     019D                     	;# 
  1048     019E                     	;# 
  1049     019E                     	;# 
  1050     019E                     	;# 
  1051     019F                     	;# 
  1052     019F                     	;# 
  1053     019F                     	;# 
  1054     019F                     	;# 
  1055     019F                     	;# 
  1056     020C                     	;# 
  1057     020D                     	;# 
  1058     020E                     	;# 
  1059     0210                     	;# 
  1060     0211                     	;# 
  1061     0211                     	;# 
  1062     0212                     	;# 
  1063     0212                     	;# 
  1064     0213                     	;# 
  1065     0213                     	;# 
  1066     0214                     	;# 
  1067     0214                     	;# 
  1068     0215                     	;# 
  1069     0215                     	;# 
  1070     0215                     	;# 
  1071     0215                     	;# 
  1072     0216                     	;# 
  1073     0216                     	;# 
  1074     0217                     	;# 
  1075     0217                     	;# 
  1076     028C                     	;# 
  1077     028D                     	;# 
  1078     028E                     	;# 
  1079     0291                     	;# 
  1080     0291                     	;# 
  1081     0292                     	;# 
  1082     0293                     	;# 
  1083     0293                     	;# 
  1084     0298                     	;# 
  1085     0298                     	;# 
  1086     0299                     	;# 
  1087     029A                     	;# 
  1088     029A                     	;# 
  1089     029E                     	;# 
  1090     030C                     	;# 
  1091     030D                     	;# 
  1092     030E                     	;# 
  1093     038C                     	;# 
  1094     038D                     	;# 
  1095     038E                     	;# 
  1096     0390                     	;# 
  1097     0391                     	;# 
  1098     0392                     	;# 
  1099     0393                     	;# 
  1100     0394                     	;# 
  1101     0395                     	;# 
  1102     0396                     	;# 
  1103     0397                     	;# 
  1104     0398                     	;# 
  1105     0399                     	;# 
  1106     039D                     	;# 
  1107     039E                     	;# 
  1108     039F                     	;# 
  1109     0415                     	;# 
  1110     0416                     	;# 
  1111     0417                     	;# 
  1112     041C                     	;# 
  1113     041D                     	;# 
  1114     041E                     	;# 
  1115     0498                     	;# 
  1116     0498                     	;# 
  1117     0499                     	;# 
  1118     049A                     	;# 
  1119     049B                     	;# 
  1120     049B                     	;# 
  1121     049C                     	;# 
  1122     049D                     	;# 
  1123     049E                     	;# 
  1124     049F                     	;# 
  1125     0511                     	;# 
  1126     0515                     	;# 
  1127     0617                     	;# 
  1128     0618                     	;# 
  1129     0619                     	;# 
  1130     0619                     	;# 
  1131     061A                     	;# 
  1132     061B                     	;# 
  1133     061C                     	;# 
  1134     061C                     	;# 
  1135     0691                     	;# 
  1136     0692                     	;# 
  1137     0693                     	;# 
  1138     0694                     	;# 
  1139     0695                     	;# 
  1140     0696                     	;# 
  1141     0697                     	;# 
  1142     0698                     	;# 
  1143     0699                     	;# 
  1144     069A                     	;# 
  1145     069B                     	;# 
  1146     069C                     	;# 
  1147     069D                     	;# 
  1148     069E                     	;# 
  1149     069F                     	;# 
  1150     0E0F                     	;# 
  1151     0E10                     	;# 
  1152     0E11                     	;# 
  1153     0E12                     	;# 
  1154     0E13                     	;# 
  1155     0E14                     	;# 
  1156     0E15                     	;# 
  1157     0E17                     	;# 
  1158     0E20                     	;# 
  1159     0E21                     	;# 
  1160     0E22                     	;# 
  1161     0E24                     	;# 
  1162     0E25                     	;# 
  1163     0E28                     	;# 
  1164     0E29                     	;# 
  1165     0E2A                     	;# 
  1166     0E2B                     	;# 
  1167     0E90                     	;# 
  1168     0E91                     	;# 
  1169     0E92                     	;# 
  1170     0E93                     	;# 
  1171     0E94                     	;# 
  1172     0E95                     	;# 
  1173     0E96                     	;# 
  1174     0E97                     	;# 
  1175     0E98                     	;# 
  1176     0E99                     	;# 
  1177     0E9A                     	;# 
  1178     0E9B                     	;# 
  1179     0E9C                     	;# 
  1180     0E9D                     	;# 
  1181     0E9E                     	;# 
  1182     0E9F                     	;# 
  1183     0EA0                     	;# 
  1184     0EA1                     	;# 
  1185     0EA2                     	;# 
  1186     0EA3                     	;# 
  1187     0EA4                     	;# 
  1188     0EA5                     	;# 
  1189     0EA6                     	;# 
  1190     0EA7                     	;# 
  1191     0F0F                     	;# 
  1192     0F10                     	;# 
  1193     0F11                     	;# 
  1194     0F12                     	;# 
  1195     0F13                     	;# 
  1196     0F14                     	;# 
  1197     0F15                     	;# 
  1198     0F16                     	;# 
  1199     0F17                     	;# 
  1200     0F18                     	;# 
  1201     0F19                     	;# 
  1202     0F1A                     	;# 
  1203     0F1B                     	;# 
  1204     0F1C                     	;# 
  1205     0F1D                     	;# 
  1206     0F1E                     	;# 
  1207     0F1F                     	;# 
  1208     0F20                     	;# 
  1209     0F21                     	;# 
  1210     0F22                     	;# 
  1211     0F23                     	;# 
  1212     0F24                     	;# 
  1213     0F25                     	;# 
  1214     0F26                     	;# 
  1215     0F27                     	;# 
  1216     0F28                     	;# 
  1217     0F29                     	;# 
  1218     0F2A                     	;# 
  1219     0F2B                     	;# 
  1220     0F2C                     	;# 
  1221     0F2D                     	;# 
  1222     0F2E                     	;# 
  1223     0F2F                     	;# 
  1224     0F30                     	;# 
  1225     0F31                     	;# 
  1226     0F32                     	;# 
  1227     0F33                     	;# 
  1228     0F34                     	;# 
  1229     0F35                     	;# 
  1230     0F36                     	;# 
  1231     0F37                     	;# 
  1232     0FE4                     	;# 
  1233     0FE5                     	;# 
  1234     0FE6                     	;# 
  1235     0FE7                     	;# 
  1236     0FE8                     	;# 
  1237     0FE9                     	;# 
  1238     0FEA                     	;# 
  1239     0FEB                     	;# 
  1240     0FED                     	;# 
  1241     0FEE                     	;# 
  1242     0FEF                     	;# 
  1243                           
  1244                           	psect	idataBANK0
  1245     028B                     __pidataBANK0:
  1246                           
  1247                           ;initializer for main@F6295
  1248     028B  3482               	retlw	low (STR_3| (0+32768))
  1249     028C  3488               	retlw	high (STR_3| (0+32768))
  1250     028D  347E               	retlw	low (STR_4| (0+32768))
  1251     028E  3488               	retlw	high (STR_4| (0+32768))
  1252     028F  3485               	retlw	low (STR_5| (0+32768))
  1253     0290  3488               	retlw	high (STR_5| (0+32768))
  1254     0291  3474               	retlw	low (STR_6| (0+32768))
  1255     0292  3488               	retlw	high (STR_6| (0+32768))
  1256     0293  3479               	retlw	low (STR_7| (0+32768))
  1257     0294  3488               	retlw	high (STR_7| (0+32768))
  1258     0295  346E               	retlw	low (STR_8| (0+32768))
  1259     0296  3488               	retlw	high (STR_8| (0+32768))
  1260                           
  1261                           ;initializer for button_pressed_event@last
  1262     0297  3401               	retlw	1
  1263                           
  1264                           	psect	stringtext1
  1265     083F                     __pstringtext1:
  1266     083F                     uart_hex8@h:
  1267     083F  3430               	retlw	48
  1268     0840  3431               	retlw	49
  1269     0841  3432               	retlw	50
  1270     0842  3433               	retlw	51
  1271     0843  3434               	retlw	52
  1272     0844  3435               	retlw	53
  1273     0845  3436               	retlw	54
  1274     0846  3437               	retlw	55
  1275     0847  3438               	retlw	56
  1276     0848  3439               	retlw	57
  1277     0849  3441               	retlw	65
  1278     084A  3442               	retlw	66
  1279     084B  3443               	retlw	67
  1280     084C  3444               	retlw	68
  1281     084D  3445               	retlw	69
  1282     084E  3446               	retlw	70
  1283     084F  3400               	retlw	0
  1284     0850                     __end_ofuart_hex8@h:
  1285                           
  1286                           	psect	stringtext2
  1287     0888                     __pstringtext2:
  1288     0888                     main@N:
  1289     0888  3406               	retlw	6
  1290     0889                     __end_ofmain@N:
  1291                           
  1292                           	psect	stringtext3
  1293     0800                     __pstringtext3:
  1294     0800                     _adr0:
  1295     0800  3478               	retlw	120
  1296     0801  3478               	retlw	120
  1297     0802  3478               	retlw	120
  1298     0803  3478               	retlw	120
  1299     0804  3478               	retlw	120
  1300     0805                     __end_of_adr0:
  1301     0011                     _PIR1bits	set	17
  1302     000D                     _PORTBbits	set	13
  1303     0095                     _OPTION_REGbits	set	149
  1304     008E                     _TRISCbits	set	142
  1305     008D                     _TRISBbits	set	141
  1306     04CF                     _SPLLEN	set	1231
  1307     04CE                     _IRCF3	set	1230
  1308     04CD                     _IRCF2	set	1229
  1309     04CC                     _IRCF1	set	1228
  1310     04CB                     _IRCF0	set	1227
  1311     04C9                     _SCS1	set	1225
  1312     04C8                     _SCS0	set	1224
  1313     010E                     _LATCbits	set	270
  1314     019A                     _TX1REG	set	410
  1315     0199                     _RC1REG	set	409
  1316     019D                     _RC1STAbits	set	413
  1317     019B                     _SPBRGL	set	411
  1318     018E                     _ANSELCbits	set	398
  1319     018D                     _ANSELBbits	set	397
  1320     0CF5                     _TXEN	set	3317
  1321     0CEC                     _CREN	set	3308
  1322     0CEF                     _SPEN	set	3311
  1323     0CF4                     _SYNC	set	3316
  1324     0CFB                     _BRG16	set	3323
  1325     0CF2                     _BRGH	set	3314
  1326     020D                     _WPUBbits	set	525
  1327     0215                     _SSP1CON1bits	set	533
  1328     0211                     _SSPBUF	set	529
  1329     0214                     _SSP1STATbits	set	532
  1330     0212                     _SSP1ADD	set	530
  1331     0215                     _SSP1CON1	set	533
  1332     0214                     _SSP1STAT	set	532
  1333     0E21                     _SSPDATPPSbits	set	3617
  1334     0E24                     _RXPPSbits	set	3620
  1335     0E0F                     _PPSLOCKbits	set	3599
  1336     0E0F                     _PPSLOCK	set	3599
  1337     0EA5                     _RC5PPSbits	set	3749
  1338     0EA3                     _RC3PPSbits	set	3747
  1339     0E9A                     _RB2PPSbits	set	3738
  1340     0805                     STR_9:
  1341     0805  3450               	retlw	80	;'P'
  1342     0806  3472               	retlw	114	;'r'
  1343     0807  3465               	retlw	101	;'e'
  1344     0808  3473               	retlw	115	;'s'
  1345     0809  3473               	retlw	115	;'s'
  1346     080A  3420               	retlw	32	;' '
  1347     080B  3452               	retlw	82	;'R'
  1348     080C  3442               	retlw	66	;'B'
  1349     080D  3430               	retlw	48	;'0'
  1350     080E  3420               	retlw	32	;' '
  1351     080F  3474               	retlw	116	;'t'
  1352     0810  346F               	retlw	111	;'o'
  1353     0811  3420               	retlw	32	;' '
  1354     0812  3473               	retlw	115	;'s'
  1355     0813  3465               	retlw	101	;'e'
  1356     0814  346E               	retlw	110	;'n'
  1357     0815  3464               	retlw	100	;'d'
  1358     0816  3420               	retlw	32	;' '
  1359     0817  346E               	retlw	110	;'n'
  1360     0818  3465               	retlw	101	;'e'
  1361     0819  3478               	retlw	120	;'x'
  1362     081A  3474               	retlw	116	;'t'
  1363     081B  3420               	retlw	32	;' '
  1364     081C  3463               	retlw	99	;'c'
  1365     081D  346F               	retlw	111	;'o'
  1366     081E  346D               	retlw	109	;'m'
  1367     081F  346D               	retlw	109	;'m'
  1368     0820  3461               	retlw	97	;'a'
  1369     0821  346E               	retlw	110	;'n'
  1370     0822  3464               	retlw	100	;'d'
  1371     0823  3400               	retlw	0
  1372                           
  1373                           	psect	stringtext4
  1374     0824                     __pstringtext4:
  1375     0824                     STR_1:
  1376     0824  346E               	retlw	110	;'n'
  1377     0825  3452               	retlw	82	;'R'
  1378     0826  3446               	retlw	70	;'F'
  1379     0827  3432               	retlw	50	;'2'
  1380     0828  3434               	retlw	52	;'4'
  1381     0829  3420               	retlw	32	;' '
  1382     082A  3454               	retlw	84	;'T'
  1383     082B  3458               	retlw	88	;'X'
  1384     082C  3420               	retlw	32	;' '
  1385     082D  344E               	retlw	78	;'N'
  1386     082E  344F               	retlw	79	;'O'
  1387     082F  342D               	retlw	45	;'-'
  1388     0830  3441               	retlw	65	;'A'
  1389     0831  3443               	retlw	67	;'C'
  1390     0832  344B               	retlw	75	;'K'
  1391     0833  3420               	retlw	32	;' '
  1392     0834  3441               	retlw	65	;'A'
  1393     0835  3453               	retlw	83	;'S'
  1394     0836  3443               	retlw	67	;'C'
  1395     0837  3449               	retlw	73	;'I'
  1396     0838  3449               	retlw	73	;'I'
  1397     0839  3420               	retlw	32	;' '
  1398     083A  3420               	retlw	32	;' '
  1399     083B  3443               	retlw	67	;'C'
  1400     083C  3448               	retlw	72	;'H'
  1401     083D  343D               	retlw	61	;'='
  1402     083E  3400               	retlw	0
  1403                           
  1404                           	psect	stringtext5
  1405     0850                     __pstringtext5:
  1406     0850                     STR_11:
  1407     0850  3454               	retlw	84	;'T'
  1408     0851  3458               	retlw	88	;'X'
  1409     0852  3420               	retlw	32	;' '
  1410     0853  3446               	retlw	70	;'F'
  1411     0854  3441               	retlw	65	;'A'
  1412     0855  3449               	retlw	73	;'I'
  1413     0856  344C               	retlw	76	;'L'
  1414     0857  3420               	retlw	32	;' '
  1415     0858  3420               	retlw	32	;' '
  1416     0859  3420               	retlw	32	;' '
  1417     085A  3422               	retlw	34	;'"'
  1418     085B  3400               	retlw	0
  1419                           
  1420                           	psect	stringtext6
  1421     085C                     __pstringtext6:
  1422     085C                     STR_10:
  1423     085C  3454               	retlw	84	;'T'
  1424     085D  3458               	retlw	88	;'X'
  1425     085E  345F               	retlw	95	;'_'
  1426     085F  3444               	retlw	68	;'D'
  1427     0860  3453               	retlw	83	;'S'
  1428     0861  3420               	retlw	32	;' '
  1429     0862  344F               	retlw	79	;'O'
  1430     0863  344B               	retlw	75	;'K'
  1431     0864  3420               	retlw	32	;' '
  1432     0865  3420               	retlw	32	;' '
  1433     0866  3422               	retlw	34	;'"'
  1434     0867  3400               	retlw	0
  1435                           
  1436                           	psect	stringtext7
  1437     0868                     __pstringtext7:
  1438     0868                     STR_2:
  1439     0868  3420               	retlw	32	;' '
  1440     0869  3420               	retlw	32	;' '
  1441     086A  3450               	retlw	80	;'P'
  1442     086B  344C               	retlw	76	;'L'
  1443     086C  343D               	retlw	61	;'='
  1444     086D  3400               	retlw	0
  1445                           
  1446                           	psect	stringtext8
  1447     086E                     __pstringtext8:
  1448     086E                     STR_8:
  1449     086E  3452               	retlw	82	;'R'
  1450     086F  3449               	retlw	73	;'I'
  1451     0870  3447               	retlw	71	;'G'
  1452     0871  3448               	retlw	72	;'H'
  1453     0872  3454               	retlw	84	;'T'
  1454     0873  3400               	retlw	0
  1455                           
  1456                           	psect	stringtext9
  1457     0874                     __pstringtext9:
  1458     0874                     STR_6:
  1459     0874  3444               	retlw	68	;'D'
  1460     0875  344F               	retlw	79	;'O'
  1461     0876  3457               	retlw	87	;'W'
  1462     0877  344E               	retlw	78	;'N'
  1463     0878  3400               	retlw	0
  1464                           
  1465                           	psect	stringtext10
  1466     0879                     __pstringtext10:
  1467     0879                     STR_7:
  1468     0879  344C               	retlw	76	;'L'
  1469     087A  3445               	retlw	69	;'E'
  1470     087B  3446               	retlw	70	;'F'
  1471     087C  3454               	retlw	84	;'T'
  1472     087D  3400               	retlw	0
  1473                           
  1474                           	psect	stringtext11
  1475     087E                     __pstringtext11:
  1476     087E                     STR_4:
  1477     087E  344F               	retlw	79	;'O'
  1478     087F  3446               	retlw	70	;'F'
  1479     0880  3446               	retlw	70	;'F'
  1480     0881  3400               	retlw	0
  1481                           
  1482                           	psect	stringtext12
  1483     0882                     __pstringtext12:
  1484     0882                     STR_3:
  1485     0882  344F               	retlw	79	;'O'
  1486     0883  344E               	retlw	78	;'N'
  1487     0884  3400               	retlw	0
  1488                           
  1489                           	psect	stringtext13
  1490     0885                     __pstringtext13:
  1491     0885                     STR_5:
  1492     0885  3455               	retlw	85	;'U'
  1493     0886  3450               	retlw	80	;'P'
  1494     0887  3400               	retlw	0
  1495                           
  1496                           	psect	stringtext14
  1497     0000                     __pstringtext14:
  1498     085A                     
  1499                           	psect	cinit
  1500     07F1                     start_initialization:	
  1501                           ; #config settings
  1502                           
  1503     07F1                     __initialization:
  1504                           
  1505                           ; Initialize objects allocated to BANK0
  1506     07F1  308B               	movlw	low __pidataBANK0
  1507     07F2  0084               	movwf	4
  1508     07F3  3082               	movlw	(high __pidataBANK0)| (0+128)
  1509     07F4  0085               	movwf	5
  1510     07F5  3054               	movlw	low __pdataBANK0
  1511     07F6  0086               	movwf	6
  1512     07F7  3000               	movlw	high __pdataBANK0
  1513     07F8  0087               	movwf	7
  1514     07F9  300D               	movlw	13
  1515     07FA  3182  223E  3187   	fcall	init_ram
  1516     07FD                     end_of_initialization:	
  1517                           ;End of C runtime variable initialization code
  1518                           
  1519     07FD                     __end_of__initialization:
  1520     07FD  0020               	movlb	0
  1521     07FE  3187  2F45         	ljmp	_main	;jump to C main() function
  1522                           
  1523                           	psect	dataBANK0
  1524     0054                     __pdataBANK0:
  1525     0054                     main@F6295:
  1526     0054                     	ds	12
  1527     0060                     button_pressed_event@last:
  1528     0060                     	ds	1
  1529                           
  1530                           	psect	inittext
  1531     023E                     init_ram:
  1532     023E  00FE               	movwf	btemp
  1533     023F                     initloop:
  1534     023F  0012               	moviw fsr0++
  1535     0240  001E               	movwi fsr1++
  1536     0241  0BFE               	decfsz	btemp,f
  1537     0242  2A3F               	goto	initloop
  1538     0243  3400               	retlw	0
  1539                           
  1540                           	psect	cstackCOMMON
  1541     0070                     __pcstackCOMMON:
  1542     0070                     ?_EUSART_Write:
  1543     0070                     ??_EUSART_Write:	
  1544                           ; 1 bytes @ 0x0
  1545                           
  1546     0070                     ?_internal_32:	
  1547                           ; 1 bytes @ 0x0
  1548                           
  1549     0070                     ??_internal_32:	
  1550                           ; 1 bytes @ 0x0
  1551                           
  1552     0070                     ?_SPI_Initialize:	
  1553                           ; 1 bytes @ 0x0
  1554                           
  1555     0070                     ??_SPI_Initialize:	
  1556                           ; 1 bytes @ 0x0
  1557                           
  1558     0070                     ?_SPI_Exchange8bit:	
  1559                           ; 1 bytes @ 0x0
  1560                           
  1561     0070                     ??_SPI_Exchange8bit:	
  1562                           ; 1 bytes @ 0x0
  1563                           
  1564     0070                     ?_CE_H:	
  1565                           ; 1 bytes @ 0x0
  1566                           
  1567     0070                     ??_CE_H:	
  1568                           ; 1 bytes @ 0x0
  1569                           
  1570     0070                     ?_CE_L:	
  1571                           ; 1 bytes @ 0x0
  1572                           
  1573     0070                     ??_CE_L:	
  1574                           ; 1 bytes @ 0x0
  1575                           
  1576     0070                     ?_CSN_H:	
  1577                           ; 1 bytes @ 0x0
  1578                           
  1579     0070                     ??_CSN_H:	
  1580                           ; 1 bytes @ 0x0
  1581                           
  1582     0070                     ?_CSN_L:	
  1583                           ; 1 bytes @ 0x0
  1584                           
  1585     0070                     ??_CSN_L:	
  1586                           ; 1 bytes @ 0x0
  1587                           
  1588     0070                     ?_uart_crlf:	
  1589                           ; 1 bytes @ 0x0
  1590                           
  1591     0070                     ?_spi_xfer:	
  1592                           ; 1 bytes @ 0x0
  1593                           
  1594     0070                     ?_nrf_read_reg:	
  1595                           ; 1 bytes @ 0x0
  1596                           
  1597     0070                     ?_nrf_cmd:	
  1598                           ; 1 bytes @ 0x0
  1599                           
  1600     0070                     ?_nrf_clear_irqs:	
  1601                           ; 1 bytes @ 0x0
  1602                           
  1603     0070                     ?_nrf_flush_all:	
  1604                           ; 1 bytes @ 0x0
  1605                           
  1606     0070                     ?_radio_common_setup:	
  1607                           ; 1 bytes @ 0x0
  1608                           
  1609     0070                     ?_radio_init_tx:	
  1610                           ; 1 bytes @ 0x0
  1611                           
  1612     0070                     ?_tx_send_packet:	
  1613                           ; 1 bytes @ 0x0
  1614                           
  1615     0070                     ?_initMain:	
  1616                           ; 1 bytes @ 0x0
  1617                           
  1618     0070                     ??_initMain:	
  1619                           ; 1 bytes @ 0x0
  1620                           
  1621     0070                     ?_button_pressed_event:	
  1622                           ; 1 bytes @ 0x0
  1623                           
  1624     0070                     ??_button_pressed_event:	
  1625                           ; 1 bytes @ 0x0
  1626                           
  1627     0070                     ?_make_cmd5:	
  1628                           ; 1 bytes @ 0x0
  1629                           
  1630     0070                     ?_main:	
  1631                           ; 1 bytes @ 0x0
  1632                           
  1633     0070                     ?___wmul:	
  1634                           ; 1 bytes @ 0x0
  1635                           
  1636     0070                     ?___awdiv:	
  1637                           ; 2 bytes @ 0x0
  1638                           
  1639     0070                     ?___awmod:	
  1640                           ; 2 bytes @ 0x0
  1641                           
  1642     0070                     ?___aldiv:	
  1643                           ; 2 bytes @ 0x0
  1644                           
  1645     0070                     SPI_Exchange8bit@data:	
  1646                           ; 4 bytes @ 0x0
  1647                           
  1648     0070                     EUSART_Write@txData:	
  1649                           ; 1 bytes @ 0x0
  1650                           
  1651     0070                     make_cmd5@s:	
  1652                           ; 1 bytes @ 0x0
  1653                           
  1654     0070                     ___wmul@multiplier:	
  1655                           ; 2 bytes @ 0x0
  1656                           
  1657     0070                     ___awdiv@divisor:	
  1658                           ; 2 bytes @ 0x0
  1659                           
  1660     0070                     ___awmod@divisor:	
  1661                           ; 2 bytes @ 0x0
  1662                           
  1663     0070                     ___aldiv@divisor:	
  1664                           ; 2 bytes @ 0x0
  1665                           
  1666                           
  1667                           ; 4 bytes @ 0x0
  1668     0070                     	ds	1
  1669     0071                     ?_EUSART_Write_Text:
  1670     0071                     ??_uart_crlf:	
  1671                           ; 1 bytes @ 0x1
  1672                           
  1673     0071                     ?_uart_write_n:	
  1674                           ; 1 bytes @ 0x1
  1675                           
  1676     0071                     SPI_Exchange8bit@dummy:	
  1677                           ; 1 bytes @ 0x1
  1678                           
  1679     0071                     uart_write_n@n:	
  1680                           ; 1 bytes @ 0x1
  1681                           
  1682     0071                     button_pressed_event@now:	
  1683                           ; 1 bytes @ 0x1
  1684                           
  1685     0071                     EUSART_Write_Text@text:	
  1686                           ; 1 bytes @ 0x1
  1687                           
  1688                           
  1689                           ; 2 bytes @ 0x1
  1690     0071                     	ds	1
  1691     0072                     ??_uart_write_n:
  1692     0072                     ??_spi_xfer:	
  1693                           ; 1 bytes @ 0x2
  1694                           
  1695     0072                     ??_make_cmd5:	
  1696                           ; 1 bytes @ 0x2
  1697                           
  1698     0072                     spi_xfer@b:	
  1699                           ; 1 bytes @ 0x2
  1700                           
  1701     0072                     ___wmul@multiplicand:	
  1702                           ; 1 bytes @ 0x2
  1703                           
  1704     0072                     ___awdiv@dividend:	
  1705                           ; 2 bytes @ 0x2
  1706                           
  1707     0072                     ___awmod@dividend:	
  1708                           ; 2 bytes @ 0x2
  1709                           
  1710                           
  1711                           ; 2 bytes @ 0x2
  1712     0072                     	ds	1
  1713     0073                     ??_EUSART_Write_Text:
  1714     0073                     ?_nrf_write_reg:	
  1715                           ; 1 bytes @ 0x3
  1716                           
  1717     0073                     ??_nrf_read_reg:	
  1718                           ; 1 bytes @ 0x3
  1719                           
  1720     0073                     ?_nrf_write_buf:	
  1721                           ; 1 bytes @ 0x3
  1722                           
  1723     0073                     ??_nrf_cmd:	
  1724                           ; 1 bytes @ 0x3
  1725                           
  1726     0073                     ?_nrf_write_payload:	
  1727                           ; 1 bytes @ 0x3
  1728                           
  1729     0073                     uart_write_n@buf:	
  1730                           ; 1 bytes @ 0x3
  1731                           
  1732     0073                     nrf_write_reg@val:	
  1733                           ; 1 bytes @ 0x3
  1734                           
  1735     0073                     nrf_read_reg@reg:	
  1736                           ; 1 bytes @ 0x3
  1737                           
  1738     0073                     nrf_cmd@cmd:	
  1739                           ; 1 bytes @ 0x3
  1740                           
  1741     0073                     nrf_write_payload@len:	
  1742                           ; 1 bytes @ 0x3
  1743                           
  1744     0073                     nrf_write_buf@buf:	
  1745                           ; 1 bytes @ 0x3
  1746                           
  1747                           
  1748                           ; 2 bytes @ 0x3
  1749     0073                     	ds	1
  1750     0074                     ??_nrf_write_reg:
  1751     0074                     ??_nrf_flush_all:	
  1752                           ; 1 bytes @ 0x4
  1753                           
  1754     0074                     ??_nrf_write_payload:	
  1755                           ; 1 bytes @ 0x4
  1756                           
  1757     0074                     ??___wmul:	
  1758                           ; 1 bytes @ 0x4
  1759                           
  1760     0074                     ??___awdiv:	
  1761                           ; 1 bytes @ 0x4
  1762                           
  1763     0074                     ??___awmod:	
  1764                           ; 1 bytes @ 0x4
  1765                           
  1766     0074                     uart_write_n@i:	
  1767                           ; 1 bytes @ 0x4
  1768                           
  1769     0074                     nrf_write_reg@reg:	
  1770                           ; 1 bytes @ 0x4
  1771                           
  1772     0074                     nrf_read_reg@v:	
  1773                           ; 1 bytes @ 0x4
  1774                           
  1775     0074                     EUSART_Write_Text@i:	
  1776                           ; 1 bytes @ 0x4
  1777                           
  1778     0074                     ___wmul@product:	
  1779                           ; 2 bytes @ 0x4
  1780                           
  1781     0074                     ___aldiv@dividend:	
  1782                           ; 2 bytes @ 0x4
  1783                           
  1784                           
  1785                           ; 4 bytes @ 0x4
  1786     0074                     	ds	1
  1787     0075                     ??_nrf_clear_irqs:
  1788     0075                     nrf_write_buf@len:	
  1789                           ; 1 bytes @ 0x5
  1790                           
  1791     0075                     nrf_write_payload@buf:	
  1792                           ; 1 bytes @ 0x5
  1793                           
  1794     0075                     make_cmd5@i:	
  1795                           ; 1 bytes @ 0x5
  1796                           
  1797     0075                     ___awdiv@counter:	
  1798                           ; 1 bytes @ 0x5
  1799                           
  1800     0075                     ___awmod@counter:	
  1801                           ; 1 bytes @ 0x5
  1802                           
  1803                           
  1804                           ; 1 bytes @ 0x5
  1805     0075                     	ds	1
  1806     0076                     ?_uart_print:
  1807     0076                     ??_nrf_write_buf:	
  1808                           ; 1 bytes @ 0x6
  1809                           
  1810     0076                     nrf_write_payload@i:	
  1811                           ; 1 bytes @ 0x6
  1812                           
  1813     0076                     make_cmd5@out:	
  1814                           ; 1 bytes @ 0x6
  1815                           
  1816     0076                     ___awdiv@sign:	
  1817                           ; 1 bytes @ 0x6
  1818                           
  1819     0076                     ___awmod@sign:	
  1820                           ; 1 bytes @ 0x6
  1821                           
  1822     0076                     uart_print@s:	
  1823                           ; 1 bytes @ 0x6
  1824                           
  1825                           
  1826                           ; 2 bytes @ 0x6
  1827     0076                     	ds	1
  1828     0077                     ??_tx_send_packet:
  1829     0077                     tx_send_packet@payload5:	
  1830                           ; 1 bytes @ 0x7
  1831                           
  1832     0077                     ___awdiv@quotient:	
  1833                           ; 1 bytes @ 0x7
  1834                           
  1835                           
  1836                           ; 2 bytes @ 0x7
  1837     0077                     	ds	1
  1838     0078                     ??_uart_print:
  1839     0078                     ??___aldiv:	
  1840                           ; 1 bytes @ 0x8
  1841                           
  1842     0078                     nrf_write_buf@reg:	
  1843                           ; 1 bytes @ 0x8
  1844                           
  1845     0078                     tx_send_packet@t:	
  1846                           ; 1 bytes @ 0x8
  1847                           
  1848                           
  1849                           ; 4 bytes @ 0x8
  1850     0078                     	ds	1
  1851     0079                     ?_itoa:
  1852     0079                     nrf_write_buf@i:	
  1853                           ; 1 bytes @ 0x9
  1854                           
  1855     0079                     EUSART_Initialize@x:	
  1856                           ; 1 bytes @ 0x9
  1857                           
  1858     0079                     itoa@d:	
  1859                           ; 2 bytes @ 0x9
  1860                           
  1861                           
  1862                           ; 2 bytes @ 0x9
  1863     0079                     	ds	1
  1864     007A                     ??_radio_common_setup:
  1865                           
  1866                           ; 1 bytes @ 0xA
  1867     007A                     	ds	1
  1868     007B                     ?_EUSART_Write_Integer:
  1869     007B                     ??_radio_init_tx:	
  1870                           ; 1 bytes @ 0xB
  1871                           
  1872     007B                     ??_itoa:	
  1873                           ; 1 bytes @ 0xB
  1874                           
  1875     007B                     EUSART_Write_Integer@value_to_send:	
  1876                           ; 1 bytes @ 0xB
  1877                           
  1878                           
  1879                           ; 2 bytes @ 0xB
  1880     007B                     	ds	1
  1881     007C                     tx_send_packet@st:
  1882                           
  1883                           ; 1 bytes @ 0xC
  1884     007C                     	ds	1
  1885     007D                     ??_EUSART_Write_Integer:
  1886                           
  1887                           ; 1 bytes @ 0xD
  1888     007D                     	ds	1
  1889                           
  1890                           	psect	cstackBANK0
  1891     0020                     __pcstackBANK0:
  1892     0020                     ___aldiv@counter:
  1893     0020                     itoa@num:	
  1894                           ; 1 bytes @ 0x0
  1895                           
  1896                           
  1897                           ; 2 bytes @ 0x0
  1898     0020                     	ds	1
  1899     0021                     ___aldiv@sign:
  1900                           
  1901                           ; 1 bytes @ 0x1
  1902     0021                     	ds	1
  1903     0022                     itoa@temp:
  1904     0022                     ___aldiv@quotient:	
  1905                           ; 2 bytes @ 0x2
  1906                           
  1907                           
  1908                           ; 4 bytes @ 0x2
  1909     0022                     	ds	2
  1910     0024                     itoa@buf:
  1911                           
  1912                           ; 1 bytes @ 0x4
  1913     0024                     	ds	1
  1914     0025                     itoa@div:
  1915                           
  1916                           ; 2 bytes @ 0x5
  1917     0025                     	ds	1
  1918     0026                     ?_EUSART_Initialize:
  1919     0026                     EUSART_Initialize@baudrate:	
  1920                           ; 1 bytes @ 0x6
  1921                           
  1922                           
  1923                           ; 4 bytes @ 0x6
  1924     0026                     	ds	1
  1925     0027                     EUSART_Write_Integer@buffer:
  1926                           
  1927                           ; 20 bytes @ 0x7
  1928     0027                     	ds	3
  1929     002A                     ??_EUSART_Initialize:
  1930                           
  1931                           ; 1 bytes @ 0xA
  1932     002A                     	ds	17
  1933     003B                     EUSART_Write_Integer@ptr:
  1934                           
  1935                           ; 1 bytes @ 0x1B
  1936     003B                     	ds	1
  1937     003C                     EUSART_Write_Integer@temp_ptr:
  1938                           
  1939                           ; 1 bytes @ 0x1C
  1940     003C                     	ds	1
  1941     003D                     ??_main:
  1942                           
  1943                           ; 1 bytes @ 0x1D
  1944     003D                     	ds	2
  1945     003F                     main@cmds:
  1946                           
  1947                           ; 12 bytes @ 0x1F
  1948     003F                     	ds	12
  1949     004B                     main@pkt:
  1950                           
  1951                           ; 5 bytes @ 0x2B
  1952     004B                     	ds	5
  1953     0050                     _main$531:
  1954                           
  1955                           ; 2 bytes @ 0x30
  1956     0050                     	ds	2
  1957     0052                     main@ok:
  1958                           
  1959                           ; 1 bytes @ 0x32
  1960     0052                     	ds	1
  1961     0053                     main@idx:
  1962                           
  1963                           ; 1 bytes @ 0x33
  1964     0053                     	ds	1
  1965                           
  1966                           	psect	maintext
  1967     0745                     __pmaintext:	
  1968 ;;
  1969 ;;Main: autosize = 0, tempsize = 2, incstack = 0, save=0
  1970 ;;
  1971 ;; *************** function _main *****************
  1972 ;; Defined at:
  1973 ;;		line 337 in file "main.c"
  1974 ;; Parameters:    Size  Location     Type
  1975 ;;		None
  1976 ;; Auto vars:     Size  Location     Type
  1977 ;;  ok              1   50[BANK0 ] unsigned char 
  1978 ;;  cmds           12   31[BANK0 ] PTR const unsigned char 
  1979 ;;		 -> STR_8(6), STR_7(5), STR_6(5), STR_5(3), 
  1980 ;;		 -> STR_4(4), STR_3(3), 
  1981 ;;  pkt             5   43[BANK0 ] unsigned char [5]
  1982 ;;  idx             1   51[BANK0 ] unsigned char 
  1983 ;; Return value:  Size  Location     Type
  1984 ;;                  1    wreg      void 
  1985 ;; Registers used:
  1986 ;;		wreg, fsr0l, fsr0h, fsr1l, fsr1h, status,2, status,0, pclath, cstack
  1987 ;; Tracked objects:
  1988 ;;		On entry : B1F/0
  1989 ;;		On exit  : 0/0
  1990 ;;		Unchanged: 0/0
  1991 ;; Data sizes:     COMMON   BANK0   BANK1   BANK2   BANK3   BANK4   BANK5   BANK6   BANK7   BANK8   BANK9  BANK10  BANK1
      +1  BANK12  BANK13  BANK14  BANK15  BANK16  BANK17  BANK18  BANK19  BANK20  BANK21  BANK22  BANK23  BANK24  BANK25
  1992 ;;      Params:         0       0       0       0       0       0       0       0       0       0       0       0       
      +0       0       0       0       0       0       0       0       0       0       0       0       0       0       0
  1993 ;;      Locals:         0      21       0       0       0       0       0       0       0       0       0       0       
      +0       0       0       0       0       0       0       0       0       0       0       0       0       0       0
  1994 ;;      Temps:          0       2       0       0       0       0       0       0       0       0       0       0       
      +0       0       0       0       0       0       0       0       0       0       0       0       0       0       0
  1995 ;;      Totals:         0      23       0       0       0       0       0       0       0       0       0       0       
      +0       0       0       0       0       0       0       0       0       0       0       0       0       0       0
  1996 ;;Total ram usage:       23 bytes
  1997 ;; Hardware stack levels required when called: 6
  1998 ;; This function calls:
  1999 ;;		_EUSART_Initialize
  2000 ;;		_EUSART_Write_Integer
  2001 ;;		_SPI_Initialize
  2002 ;;		_button_pressed_event
  2003 ;;		_initMain
  2004 ;;		_make_cmd5
  2005 ;;		_radio_init_tx
  2006 ;;		_tx_send_packet
  2007 ;;		_uart_crlf
  2008 ;;		_uart_print
  2009 ;;		_uart_write_n
  2010 ;; This function is called by:
  2011 ;;		Startup code after reset
  2012 ;; This function uses a non-reentrant model
  2013 ;;
  2014                           
  2015     0745                     _main:	
  2016                           ;psect for function _main
  2017                           
  2018     0745                     l1952:	
  2019                           ;incstack = 0
  2020                           ; Regs used in _main: [wreg-fsr1h+status,2+status,0+pclath+cstack]
  2021                           
  2022                           
  2023                           ;main.c: 339:     initMain();
  2024     0745  3185  250A  3187   	fcall	_initMain
  2025                           
  2026                           ;main.c: 341:     EUSART_Initialize(19200);
  2027     0748  3000               	movlw	0
  2028     0749  0020               	movlb	0	; select bank0
  2029     074A  00A9               	movwf	EUSART_Initialize@baudrate+3
  2030     074B  3000               	movlw	0
  2031     074C  00A8               	movwf	EUSART_Initialize@baudrate+2
  2032     074D  304B               	movlw	75
  2033     074E  00A7               	movwf	EUSART_Initialize@baudrate+1
  2034     074F  3000               	movlw	0
  2035     0750  00A6               	movwf	EUSART_Initialize@baudrate
  2036     0751  3184  2467  3187   	fcall	_EUSART_Initialize
  2037                           
  2038                           ;main.c: 342:     SPI_Initialize();
  2039     0754  3182  2244  3187   	fcall	_SPI_Initialize
  2040     0757                     l1954:
  2041                           
  2042                           ;main.c: 343:     _delay((unsigned long)((50)*(32000000/4000.0)));
  2043     0757  3003               	movlw	3
  2044     0758  0020               	movlb	0	; select bank0
  2045     0759  00BE               	movwf	??_main+1
  2046     075A  3008               	movlw	8
  2047     075B  00BD               	movwf	??_main
  2048     075C  3077               	movlw	119
  2049     075D                     u1367:
  2050     075D  0B89               	decfsz	9,f
  2051     075E  2F5D               	goto	u1367
  2052     075F  0BBD               	decfsz	??_main,f
  2053     0760  2F5D               	goto	u1367
  2054     0761  0BBE               	decfsz	??_main+1,f
  2055     0762  2F5D               	goto	u1367
  2056     0763                     l1956:
  2057                           
  2058                           ;main.c: 346:     uart_crlf();
  2059     0763  3182  226C  3187   	fcall	_uart_crlf
  2060     0766                     l1958:
  2061                           
  2062                           ;main.c: 347:     uart_print("nRF24 TX NO-ACK ASCII  CH=");
  2063     0766  3024               	movlw	low (STR_1| (0+32768))
  2064     0767  00F6               	movwf	uart_print@s
  2065     0768  3088               	movlw	high (STR_1| (0+32768))
  2066     0769  00F7               	movwf	uart_print@s+1
  2067     076A  3182  2252  3187   	fcall	_uart_print
  2068     076D                     l1960:
  2069                           
  2070                           ;main.c: 348:     EUSART_Write_Integer(83);
  2071     076D  3053               	movlw	83
  2072     076E  00FB               	movwf	EUSART_Write_Integer@value_to_send
  2073     076F  3000               	movlw	0
  2074     0770  00FC               	movwf	EUSART_Write_Integer@value_to_send+1
  2075     0771  3183  2358  3187   	fcall	_EUSART_Write_Integer
  2076     0774                     l1962:
  2077                           
  2078                           ;main.c: 349:     uart_print("  PL=");
  2079     0774  3068               	movlw	low (STR_2| (0+32768))
  2080     0775  00F6               	movwf	uart_print@s
  2081     0776  3088               	movlw	high (STR_2| (0+32768))
  2082     0777  00F7               	movwf	uart_print@s+1
  2083     0778  3182  2252  3187   	fcall	_uart_print
  2084     077B                     l1964:
  2085                           
  2086                           ;main.c: 350:     EUSART_Write_Integer(5);
  2087     077B  3005               	movlw	5
  2088     077C  00FB               	movwf	EUSART_Write_Integer@value_to_send
  2089     077D  3000               	movlw	0
  2090     077E  00FC               	movwf	EUSART_Write_Integer@value_to_send+1
  2091     077F  3183  2358  3187   	fcall	_EUSART_Write_Integer
  2092     0782                     l1966:
  2093                           
  2094                           ;main.c: 351:     uart_crlf();
  2095     0782  3182  226C  3187   	fcall	_uart_crlf
  2096     0785                     l1968:
  2097                           
  2098                           ;main.c: 353:     radio_init_tx();
  2099     0785  3182  22CE  3187   	fcall	_radio_init_tx
  2100     0788                     l1970:
  2101                           
  2102                           ;main.c: 356:     const char *cmds[] = {"ON","OFF","UP","DOWN","LEFT","RIGHT"};
  2103     0788  3054               	movlw	low main@F6295
  2104     0789  0086               	movwf	6
  2105     078A  3000               	movlw	high main@F6295
  2106     078B  0087               	movwf	7
  2107     078C  303F               	movlw	low main@cmds
  2108     078D  0084               	movwf	4
  2109     078E  3000               	movlw	high main@cmds
  2110     078F  0085               	movwf	5
  2111     0790  300C               	movlw	12
  2112     0791  0020               	movlb	0	; select bank0
  2113     0792  00BD               	movwf	??_main
  2114     0793                     u1320:
  2115     0793  0016               	moviw fsr1++
  2116     0794  001A               	movwi fsr0++
  2117     0795  0BBD               	decfsz	??_main,f
  2118     0796  2F93               	goto	u1320
  2119     0797                     l1972:
  2120                           
  2121                           ;main.c: 357:     const uint8_t N = (uint8_t)(sizeof(cmds)/sizeof(cmds[0]));;main.c: 358
      +                          :     uint8_t idx = 0;
  2122     0797  01D3               	clrf	main@idx
  2123     0798                     l1974:
  2124                           
  2125                           ;main.c: 360:     uint8_t pkt[5];;main.c: 362:     uart_print("Press RB0 to send next co
      +                          mmand"); uart_crlf();
  2126     0798  3005               	movlw	low (STR_9| (0+32768))
  2127     0799  00F6               	movwf	uart_print@s
  2128     079A  3088               	movlw	high (STR_9| (0+32768))
  2129     079B  00F7               	movwf	uart_print@s+1
  2130     079C  3182  2252  3187   	fcall	_uart_print
  2131     079F                     l1976:
  2132     079F  3182  226C  3187   	fcall	_uart_crlf
  2133     07A2                     l1978:
  2134                           
  2135                           ;main.c: 365:     {;main.c: 366:         if(button_pressed_event())
  2136     07A2  3183  237C  3187   	fcall	_button_pressed_event
  2137     07A5  3A00               	xorlw	0
  2138     07A6  1903               	skipnz
  2139     07A7  2FA9               	goto	u1331
  2140     07A8  2FAA               	goto	u1330
  2141     07A9                     u1331:
  2142     07A9  2FA2               	goto	l1978
  2143     07AA                     u1330:
  2144     07AA                     l1980:
  2145                           
  2146                           ;main.c: 367:         {;main.c: 368:             make_cmd5(pkt, cmds[idx]);
  2147     07AA  0020               	movlb	0	; select bank0
  2148     07AB  3553               	lslf	main@idx,w
  2149     07AC  3E3F               	addlw	(low (main@cmds| 0))& (0+255)
  2150     07AD  0086               	movwf	6
  2151     07AE  0187               	clrf	7
  2152     07AF  3F40               	moviw [0]fsr1
  2153     07B0  00F0               	movwf	make_cmd5@s
  2154     07B1  3F41               	moviw [1]fsr1
  2155     07B2  00F1               	movwf	make_cmd5@s+1
  2156     07B3  304B               	movlw	(low (main@pkt| 0))& (0+255)
  2157     07B4  3183  23CD  3187   	fcall	_make_cmd5
  2158     07B7                     l1982:
  2159                           
  2160                           ;main.c: 370:             uint8_t ok = tx_send_packet(pkt);
  2161     07B7  304B               	movlw	(low (main@pkt| 0))& (0+255)
  2162     07B8  3185  2560  3187   	fcall	_tx_send_packet
  2163     07BB  0020               	movlb	0	; select bank0
  2164     07BC  00D2               	movwf	main@ok
  2165     07BD                     l1984:
  2166                           
  2167                           ;main.c: 372:             uart_print(ok ? "TX_DS OK  \"" : "TX FAIL   \"");
  2168     07BD  0852               	movf	main@ok,w
  2169     07BE  1D03               	btfss	3,2
  2170     07BF  2FC1               	goto	u1341
  2171     07C0  2FC2               	goto	u1340
  2172     07C1                     u1341:
  2173     07C1  2FC7               	goto	l1988
  2174     07C2                     u1340:
  2175     07C2                     l1986:
  2176     07C2  3050               	movlw	low (STR_11| (0+32768))
  2177     07C3  00D0               	movwf	_main$531
  2178     07C4  3088               	movlw	high (STR_11| (0+32768))
  2179     07C5  00D1               	movwf	_main$531+1
  2180     07C6  2FCB               	goto	l1990
  2181     07C7                     l1988:
  2182     07C7  305C               	movlw	low (STR_10| (0+32768))
  2183     07C8  00D0               	movwf	_main$531
  2184     07C9  3088               	movlw	high (STR_10| (0+32768))
  2185     07CA  00D1               	movwf	_main$531+1
  2186     07CB                     l1990:
  2187     07CB  0851               	movf	_main$531+1,w
  2188     07CC  00F7               	movwf	uart_print@s+1
  2189     07CD  0850               	movf	_main$531,w
  2190     07CE  00F6               	movwf	uart_print@s
  2191     07CF  3182  2252  3187   	fcall	_uart_print
  2192     07D2                     l1992:
  2193                           
  2194                           ;main.c: 373:             uart_write_n((char*)pkt, 5);
  2195     07D2  3005               	movlw	5
  2196     07D3  00F1               	movwf	uart_write_n@n
  2197     07D4  304B               	movlw	(low (main@pkt| 0))& (0+255)
  2198     07D5  3182  22E2  3187   	fcall	_uart_write_n
  2199     07D8                     l1994:
  2200                           
  2201                           ;main.c: 374:             uart_print("\"");
  2202     07D8  305A               	movlw	low ((STR_11+10)| (0+32768))
  2203     07D9  00F6               	movwf	uart_print@s
  2204     07DA  3088               	movlw	high ((STR_11+10)| (0+32768))
  2205     07DB  00F7               	movwf	uart_print@s+1
  2206     07DC  3182  2252  3187   	fcall	_uart_print
  2207     07DF                     l1996:
  2208                           
  2209                           ;main.c: 375:             uart_crlf();
  2210     07DF  3182  226C  3187   	fcall	_uart_crlf
  2211     07E2                     l1998:
  2212                           
  2213                           ;main.c: 377:             idx++;
  2214     07E2  3001               	movlw	1
  2215     07E3  0020               	movlb	0	; select bank0
  2216     07E4  00BD               	movwf	??_main
  2217     07E5  083D               	movf	??_main,w
  2218     07E6  07D3               	addwf	main@idx,f
  2219     07E7                     l2000:
  2220                           
  2221                           ;main.c: 378:             if(idx >= N) idx = 0;
  2222     07E7  3006               	movlw	6
  2223     07E8  0253               	subwf	main@idx,w
  2224     07E9  1C03               	skipc
  2225     07EA  2FEC               	goto	u1351
  2226     07EB  2FED               	goto	u1350
  2227     07EC                     u1351:
  2228     07EC  2FA2               	goto	l1978
  2229     07ED                     u1350:
  2230     07ED                     l2002:
  2231     07ED  01D3               	clrf	main@idx
  2232     07EE  2FA2               	goto	l1978
  2233     07EF  3180  2802         	ljmp	start
  2234     07F1                     __end_of_main:
  2235                           
  2236                           	psect	text1
  2237     02E2                     __ptext1:	
  2238 ;; *************** function _uart_write_n *****************
  2239 ;; Defined at:
  2240 ;;		line 94 in file "main.c"
  2241 ;; Parameters:    Size  Location     Type
  2242 ;;  buf             1    wreg     PTR const unsigned char 
  2243 ;;		 -> main@pkt(5), 
  2244 ;;  n               1    1[COMMON] unsigned char 
  2245 ;; Auto vars:     Size  Location     Type
  2246 ;;  buf             1    3[COMMON] PTR const unsigned char 
  2247 ;;		 -> main@pkt(5), 
  2248 ;;  i               1    4[COMMON] unsigned char 
  2249 ;; Return value:  Size  Location     Type
  2250 ;;                  1    wreg      void 
  2251 ;; Registers used:
  2252 ;;		wreg, fsr1l, fsr1h, status,2, status,0, pclath, cstack
  2253 ;; Tracked objects:
  2254 ;;		On entry : 0/0
  2255 ;;		On exit  : 0/0
  2256 ;;		Unchanged: 0/0
  2257 ;; Data sizes:     COMMON   BANK0   BANK1   BANK2   BANK3   BANK4   BANK5   BANK6   BANK7   BANK8   BANK9  BANK10  BANK1
      +1  BANK12  BANK13  BANK14  BANK15  BANK16  BANK17  BANK18  BANK19  BANK20  BANK21  BANK22  BANK23  BANK24  BANK25
  2258 ;;      Params:         1       0       0       0       0       0       0       0       0       0       0       0       
      +0       0       0       0       0       0       0       0       0       0       0       0       0       0       0
  2259 ;;      Locals:         2       0       0       0       0       0       0       0       0       0       0       0       
      +0       0       0       0       0       0       0       0       0       0       0       0       0       0       0
  2260 ;;      Temps:          1       0       0       0       0       0       0       0       0       0       0       0       
      +0       0       0       0       0       0       0       0       0       0       0       0       0       0       0
  2261 ;;      Totals:         4       0       0       0       0       0       0       0       0       0       0       0       
      +0       0       0       0       0       0       0       0       0       0       0       0       0       0       0
  2262 ;;Total ram usage:        4 bytes
  2263 ;; Hardware stack levels used: 1
  2264 ;; Hardware stack levels required when called: 1
  2265 ;; This function calls:
  2266 ;;		_EUSART_Write
  2267 ;; This function is called by:
  2268 ;;		_main
  2269 ;; This function uses a non-reentrant model
  2270 ;;
  2271                           
  2272     02E2                     _uart_write_n:	
  2273                           ;psect for function _uart_write_n
  2274                           
  2275                           
  2276                           ;incstack = 0
  2277                           ; Regs used in _uart_write_n: [wreg+fsr1l+fsr1h+status,2+status,0+pclath+cstack]
  2278                           ;uart_write_n@buf stored from wreg
  2279     02E2  00F3               	movwf	uart_write_n@buf
  2280     02E3                     l1704:
  2281                           
  2282                           ;main.c: 94: static void uart_write_n(const char *buf, uint8_t n);main.c: 95: {;main.c: 
      +                          96:     for(uint8_t i=0;i<n;i++) EUSART_Write((uint8_t)buf[i]);
  2283     02E3  01F4               	clrf	uart_write_n@i
  2284     02E4  2AF3               	goto	l1710
  2285     02E5                     l1706:
  2286     02E5  0874               	movf	uart_write_n@i,w
  2287     02E6  0773               	addwf	uart_write_n@buf,w
  2288     02E7  00F2               	movwf	??_uart_write_n
  2289     02E8  0872               	movf	??_uart_write_n,w
  2290     02E9  0086               	movwf	6
  2291     02EA  0187               	clrf	7
  2292     02EB  0801               	movf	1,w
  2293     02EC  3182  2275  3182   	fcall	_EUSART_Write
  2294     02EF                     l1708:
  2295     02EF  3001               	movlw	1
  2296     02F0  00F2               	movwf	??_uart_write_n
  2297     02F1  0872               	movf	??_uart_write_n,w
  2298     02F2  07F4               	addwf	uart_write_n@i,f
  2299     02F3                     l1710:
  2300     02F3  0871               	movf	uart_write_n@n,w
  2301     02F4  0274               	subwf	uart_write_n@i,w
  2302     02F5  1C03               	skipc
  2303     02F6  2AF8               	goto	u1121
  2304     02F7  2AF9               	goto	u1120
  2305     02F8                     u1121:
  2306     02F8  2AE5               	goto	l1706
  2307     02F9                     u1120:
  2308     02F9                     l153:
  2309     02F9  0008               	return
  2310     02FA                     __end_of_uart_write_n:
  2311                           
  2312                           	psect	text2
  2313     0252                     __ptext2:	
  2314 ;; *************** function _uart_print *****************
  2315 ;; Defined at:
  2316 ;;		line 92 in file "main.c"
  2317 ;; Parameters:    Size  Location     Type
  2318 ;;  s               2    6[COMMON] PTR const unsigned char 
  2319 ;;		 -> STR_12(2), STR_11(12), STR_10(12), STR_9(31), 
  2320 ;;		 -> STR_2(6), STR_1(27), 
  2321 ;; Auto vars:     Size  Location     Type
  2322 ;;		None
  2323 ;; Return value:  Size  Location     Type
  2324 ;;                  1    wreg      void 
  2325 ;; Registers used:
  2326 ;;		wreg, fsr0l, fsr0h, status,2, status,0, pclath, cstack
  2327 ;; Tracked objects:
  2328 ;;		On entry : 0/0
  2329 ;;		On exit  : 0/0
  2330 ;;		Unchanged: 0/0
  2331 ;; Data sizes:     COMMON   BANK0   BANK1   BANK2   BANK3   BANK4   BANK5   BANK6   BANK7   BANK8   BANK9  BANK10  BANK1
      +1  BANK12  BANK13  BANK14  BANK15  BANK16  BANK17  BANK18  BANK19  BANK20  BANK21  BANK22  BANK23  BANK24  BANK25
  2332 ;;      Params:         2       0       0       0       0       0       0       0       0       0       0       0       
      +0       0       0       0       0       0       0       0       0       0       0       0       0       0       0
  2333 ;;      Locals:         0       0       0       0       0       0       0       0       0       0       0       0       
      +0       0       0       0       0       0       0       0       0       0       0       0       0       0       0
  2334 ;;      Temps:          0       0       0       0       0       0       0       0       0       0       0       0       
      +0       0       0       0       0       0       0       0       0       0       0       0       0       0       0
  2335 ;;      Totals:         2       0       0       0       0       0       0       0       0       0       0       0       
      +0       0       0       0       0       0       0       0       0       0       0       0       0       0       0
  2336 ;;Total ram usage:        2 bytes
  2337 ;; Hardware stack levels used: 1
  2338 ;; Hardware stack levels required when called: 2
  2339 ;; This function calls:
  2340 ;;		_EUSART_Write_Text
  2341 ;; This function is called by:
  2342 ;;		_main
  2343 ;; This function uses a non-reentrant model
  2344 ;;
  2345                           
  2346     0252                     _uart_print:	
  2347                           ;psect for function _uart_print
  2348                           
  2349     0252                     l1702:	
  2350                           ;incstack = 0
  2351                           ; Regs used in _uart_print: [wreg-fsr0h+status,2+status,0+pclath+cstack]
  2352                           
  2353     0252  0877               	movf	uart_print@s+1,w
  2354     0253  00F2               	movwf	EUSART_Write_Text@text+1
  2355     0254  0876               	movf	uart_print@s,w
  2356     0255  00F1               	movwf	EUSART_Write_Text@text
  2357     0256  3182  22FA  3182   	fcall	_EUSART_Write_Text
  2358     0259                     l147:
  2359     0259  0008               	return
  2360     025A                     __end_of_uart_print:
  2361                           
  2362                           	psect	text3
  2363     02FA                     __ptext3:	
  2364 ;; *************** function _EUSART_Write_Text *****************
  2365 ;; Defined at:
  2366 ;;		line 127 in file "EUSART.c"
  2367 ;; Parameters:    Size  Location     Type
  2368 ;;  text            2    1[COMMON] PTR unsigned char 
  2369 ;;		 -> STR_12(2), STR_11(12), STR_10(12), STR_9(31), 
  2370 ;;		 -> STR_2(6), STR_1(27), 
  2371 ;; Auto vars:     Size  Location     Type
  2372 ;;  i               2    4[COMMON] int 
  2373 ;; Return value:  Size  Location     Type
  2374 ;;                  1    wreg      void 
  2375 ;; Registers used:
  2376 ;;		wreg, fsr0l, fsr0h, status,2, status,0, pclath, cstack
  2377 ;; Tracked objects:
  2378 ;;		On entry : 0/0
  2379 ;;		On exit  : 0/0
  2380 ;;		Unchanged: 0/0
  2381 ;; Data sizes:     COMMON   BANK0   BANK1   BANK2   BANK3   BANK4   BANK5   BANK6   BANK7   BANK8   BANK9  BANK10  BANK1
      +1  BANK12  BANK13  BANK14  BANK15  BANK16  BANK17  BANK18  BANK19  BANK20  BANK21  BANK22  BANK23  BANK24  BANK25
  2382 ;;      Params:         2       0       0       0       0       0       0       0       0       0       0       0       
      +0       0       0       0       0       0       0       0       0       0       0       0       0       0       0
  2383 ;;      Locals:         2       0       0       0       0       0       0       0       0       0       0       0       
      +0       0       0       0       0       0       0       0       0       0       0       0       0       0       0
  2384 ;;      Temps:          1       0       0       0       0       0       0       0       0       0       0       0       
      +0       0       0       0       0       0       0       0       0       0       0       0       0       0       0
  2385 ;;      Totals:         5       0       0       0       0       0       0       0       0       0       0       0       
      +0       0       0       0       0       0       0       0       0       0       0       0       0       0       0
  2386 ;;Total ram usage:        5 bytes
  2387 ;; Hardware stack levels used: 1
  2388 ;; Hardware stack levels required when called: 1
  2389 ;; This function calls:
  2390 ;;		_EUSART_Write
  2391 ;; This function is called by:
  2392 ;;		_uart_print
  2393 ;; This function uses a non-reentrant model
  2394 ;;
  2395                           
  2396     02FA                     _EUSART_Write_Text:	
  2397                           ;psect for function _EUSART_Write_Text
  2398                           
  2399     02FA                     l1596:	
  2400                           ;incstack = 0
  2401                           ; Regs used in _EUSART_Write_Text: [wreg-fsr0h+status,2+status,0+pclath+cstack]
  2402                           
  2403                           
  2404                           ;EUSART.c: 127: void EUSART_Write_Text(char *text);EUSART.c: 128: {;EUSART.c: 129:   int
      +                           i;;EUSART.c: 130:   for(i=0;text[i]!='\0';i++)
  2405     02FA  01F4               	clrf	EUSART_Write_Text@i
  2406     02FB  01F5               	clrf	EUSART_Write_Text@i+1
  2407     02FC  2B0B               	goto	l1602
  2408     02FD                     l1598:
  2409                           
  2410                           ;EUSART.c: 131:    EUSART_Write(text[i]);
  2411     02FD  0871               	movf	EUSART_Write_Text@text,w
  2412     02FE  0774               	addwf	EUSART_Write_Text@i,w
  2413     02FF  0084               	movwf	4
  2414     0300  0872               	movf	EUSART_Write_Text@text+1,w
  2415     0301  3D75               	addwfc	EUSART_Write_Text@i+1,w
  2416     0302  0085               	movwf	5
  2417     0303  0800               	movf	0,w	;code access
  2418     0304  3182  2275  3182   	fcall	_EUSART_Write
  2419     0307                     l1600:
  2420     0307  3001               	movlw	1
  2421     0308  07F4               	addwf	EUSART_Write_Text@i,f
  2422     0309  3000               	movlw	0
  2423     030A  3DF5               	addwfc	EUSART_Write_Text@i+1,f
  2424     030B                     l1602:
  2425     030B  0871               	movf	EUSART_Write_Text@text,w
  2426     030C  0774               	addwf	EUSART_Write_Text@i,w
  2427     030D  0084               	movwf	4
  2428     030E  0872               	movf	EUSART_Write_Text@text+1,w
  2429     030F  3D75               	addwfc	EUSART_Write_Text@i+1,w
  2430     0310  0085               	movwf	5
  2431     0311  0012               	moviw fsr0++
  2432     0312  1D03               	btfss	3,2
  2433     0313  2B15               	goto	u971
  2434     0314  2B16               	goto	u970
  2435     0315                     u971:
  2436     0315  2AFD               	goto	l1598
  2437     0316                     u970:
  2438     0316                     l300:
  2439     0316  0008               	return
  2440     0317                     __end_of_EUSART_Write_Text:
  2441                           
  2442                           	psect	text4
  2443     026C                     __ptext4:	
  2444 ;; *************** function _uart_crlf *****************
  2445 ;; Defined at:
  2446 ;;		line 91 in file "main.c"
  2447 ;; Parameters:    Size  Location     Type
  2448 ;;		None
  2449 ;; Auto vars:     Size  Location     Type
  2450 ;;		None
  2451 ;; Return value:  Size  Location     Type
  2452 ;;                  1    wreg      void 
  2453 ;; Registers used:
  2454 ;;		wreg, status,2, status,0, pclath, cstack
  2455 ;; Tracked objects:
  2456 ;;		On entry : 0/0
  2457 ;;		On exit  : 0/0
  2458 ;;		Unchanged: 0/0
  2459 ;; Data sizes:     COMMON   BANK0   BANK1   BANK2   BANK3   BANK4   BANK5   BANK6   BANK7   BANK8   BANK9  BANK10  BANK1
      +1  BANK12  BANK13  BANK14  BANK15  BANK16  BANK17  BANK18  BANK19  BANK20  BANK21  BANK22  BANK23  BANK24  BANK25
  2460 ;;      Params:         0       0       0       0       0       0       0       0       0       0       0       0       
      +0       0       0       0       0       0       0       0       0       0       0       0       0       0       0
  2461 ;;      Locals:         0       0       0       0       0       0       0       0       0       0       0       0       
      +0       0       0       0       0       0       0       0       0       0       0       0       0       0       0
  2462 ;;      Temps:          0       0       0       0       0       0       0       0       0       0       0       0       
      +0       0       0       0       0       0       0       0       0       0       0       0       0       0       0
  2463 ;;      Totals:         0       0       0       0       0       0       0       0       0       0       0       0       
      +0       0       0       0       0       0       0       0       0       0       0       0       0       0       0
  2464 ;;Total ram usage:        0 bytes
  2465 ;; Hardware stack levels used: 1
  2466 ;; Hardware stack levels required when called: 1
  2467 ;; This function calls:
  2468 ;;		_EUSART_Write
  2469 ;; This function is called by:
  2470 ;;		_main
  2471 ;; This function uses a non-reentrant model
  2472 ;;
  2473                           
  2474     026C                     _uart_crlf:	
  2475                           ;psect for function _uart_crlf
  2476                           
  2477     026C                     l1700:	
  2478                           ;incstack = 0
  2479                           ; Regs used in _uart_crlf: [wreg+status,2+status,0+pclath+cstack]
  2480                           
  2481     026C  300D               	movlw	13
  2482     026D  3182  2275  3182   	fcall	_EUSART_Write
  2483     0270  300A               	movlw	10
  2484     0271  3182  2275  3182   	fcall	_EUSART_Write
  2485     0274                     l144:
  2486     0274  0008               	return
  2487     0275                     __end_of_uart_crlf:
  2488                           
  2489                           	psect	text5
  2490     0560                     __ptext5:	
  2491 ;; *************** function _tx_send_packet *****************
  2492 ;; Defined at:
  2493 ;;		line 236 in file "main.c"
  2494 ;; Parameters:    Size  Location     Type
  2495 ;;  payload5        1    wreg     PTR const unsigned char 
  2496 ;;		 -> main@pkt(5), 
  2497 ;; Auto vars:     Size  Location     Type
  2498 ;;  payload5        1    7[COMMON] PTR const unsigned char 
  2499 ;;		 -> main@pkt(5), 
  2500 ;;  st              1   12[COMMON] unsigned char 
  2501 ;;  t               4    8[COMMON] unsigned long 
  2502 ;; Return value:  Size  Location     Type
  2503 ;;                  1    wreg      unsigned char 
  2504 ;; Registers used:
  2505 ;;		wreg, fsr1l, fsr1h, status,2, status,0, pclath, cstack
  2506 ;; Tracked objects:
  2507 ;;		On entry : 0/0
  2508 ;;		On exit  : 0/0
  2509 ;;		Unchanged: 0/0
  2510 ;; Data sizes:     COMMON   BANK0   BANK1   BANK2   BANK3   BANK4   BANK5   BANK6   BANK7   BANK8   BANK9  BANK10  BANK1
      +1  BANK12  BANK13  BANK14  BANK15  BANK16  BANK17  BANK18  BANK19  BANK20  BANK21  BANK22  BANK23  BANK24  BANK25
  2511 ;;      Params:         0       0       0       0       0       0       0       0       0       0       0       0       
      +0       0       0       0       0       0       0       0       0       0       0       0       0       0       0
  2512 ;;      Locals:         6       0       0       0       0       0       0       0       0       0       0       0       
      +0       0       0       0       0       0       0       0       0       0       0       0       0       0       0
  2513 ;;      Temps:          0       0       0       0       0       0       0       0       0       0       0       0       
      +0       0       0       0       0       0       0       0       0       0       0       0       0       0       0
  2514 ;;      Totals:         6       0       0       0       0       0       0       0       0       0       0       0       
      +0       0       0       0       0       0       0       0       0       0       0       0       0       0       0
  2515 ;;Total ram usage:        6 bytes
  2516 ;; Hardware stack levels used: 1
  2517 ;; Hardware stack levels required when called: 4
  2518 ;; This function calls:
  2519 ;;		_CE_H
  2520 ;;		_CE_L
  2521 ;;		_nrf_clear_irqs
  2522 ;;		_nrf_cmd
  2523 ;;		_nrf_read_reg
  2524 ;;		_nrf_write_payload
  2525 ;;		_nrf_write_reg
  2526 ;; This function is called by:
  2527 ;;		_main
  2528 ;; This function uses a non-reentrant model
  2529 ;;
  2530                           
  2531     0560                     _tx_send_packet:	
  2532                           ;psect for function _tx_send_packet
  2533                           
  2534                           
  2535                           ;incstack = 0
  2536                           ; Regs used in _tx_send_packet: [wreg+fsr1l+fsr1h+status,2+status,0+pclath+cstack]
  2537                           ;tx_send_packet@payload5 stored from wreg
  2538     0560  00F7               	movwf	tx_send_packet@payload5
  2539     0561                     l1720:
  2540                           
  2541                           ;main.c: 236: static uint8_t tx_send_packet(const uint8_t *payload5);main.c: 237: {;main
      +                          .c: 238:     nrf_clear_irqs();
  2542     0561  3182  224B  3185   	fcall	_nrf_clear_irqs
  2543                           
  2544                           ;main.c: 239:     nrf_cmd(0xE1);
  2545     0564  30E1               	movlw	225
  2546     0565  3182  227F  3185   	fcall	_nrf_cmd
  2547     0568                     l1722:
  2548                           
  2549                           ;main.c: 241:     nrf_write_payload(payload5, 5);
  2550     0568  3005               	movlw	5
  2551     0569  00F3               	movwf	nrf_write_payload@len
  2552     056A  0877               	movf	tx_send_packet@payload5,w
  2553     056B  3183  2336  3185   	fcall	_nrf_write_payload
  2554     056E                     l1724:
  2555                           
  2556                           ;main.c: 244:     CE_H();
  2557     056E  3182  2235  3185   	fcall	_CE_H
  2558     0571                     l1726:
  2559                           
  2560                           ;main.c: 245:     _delay((unsigned long)((20)*(32000000/4000000.0)));
  2561     0571  3035               	movlw	53
  2562     0572                     u1377:
  2563     0572  0B89               	decfsz	9,f
  2564     0573  2D72               	goto	u1377
  2565     0574  0000               	nop
  2566     0575                     l1728:
  2567                           
  2568                           ;main.c: 246:     CE_L();
  2569     0575  3182  222C  3185   	fcall	_CE_L
  2570     0578                     l1730:
  2571                           
  2572                           ;main.c: 249:     for(uint32_t t=0;t<60000;t++)
  2573     0578  3000               	movlw	0
  2574     0579  00FB               	movwf	tx_send_packet@t+3
  2575     057A  3000               	movlw	0
  2576     057B  00FA               	movwf	tx_send_packet@t+2
  2577     057C  3000               	movlw	0
  2578     057D  00F9               	movwf	tx_send_packet@t+1
  2579     057E  3000               	movlw	0
  2580     057F  00F8               	movwf	tx_send_packet@t
  2581     0580                     l1736:
  2582                           
  2583                           ;main.c: 250:     {;main.c: 251:         uint8_t st = nrf_read_reg(0x07);
  2584     0580  3007               	movlw	7
  2585     0581  3182  22BB  3185   	fcall	_nrf_read_reg
  2586     0584  00FC               	movwf	tx_send_packet@st
  2587     0585                     l1738:
  2588                           
  2589                           ;main.c: 252:         if(st & 0x20)
  2590     0585  1EFC               	btfss	tx_send_packet@st,5
  2591     0586  2D88               	goto	u1131
  2592     0587  2D89               	goto	u1130
  2593     0588                     u1131:
  2594     0588  2D91               	goto	l211
  2595     0589                     u1130:
  2596     0589                     l1740:
  2597                           
  2598                           ;main.c: 253:         {;main.c: 254:             nrf_write_reg(0x07, 0x20);
  2599     0589  3020               	movlw	32
  2600     058A  00F3               	movwf	nrf_write_reg@val
  2601     058B  3007               	movlw	7
  2602     058C  3182  22A9  3185   	fcall	_nrf_write_reg
  2603     058F                     l1742:
  2604                           
  2605                           ;main.c: 255:             return 1;
  2606     058F  3001               	movlw	1
  2607     0590  2DBC               	goto	l212
  2608     0591                     l211:	
  2609                           ;main.c: 256:         }
  2610                           
  2611                           
  2612                           ;main.c: 257:         if(st & 0x10)
  2613     0591  1E7C               	btfss	tx_send_packet@st,4
  2614     0592  2D94               	goto	u1141
  2615     0593  2D95               	goto	u1140
  2616     0594                     u1141:
  2617     0594  2DA1               	goto	l1752
  2618     0595                     u1140:
  2619     0595                     l1746:
  2620                           
  2621                           ;main.c: 258:         {;main.c: 259:             nrf_write_reg(0x07, 0x10);
  2622     0595  3010               	movlw	16
  2623     0596  00F3               	movwf	nrf_write_reg@val
  2624     0597  3007               	movlw	7
  2625     0598  3182  22A9  3185   	fcall	_nrf_write_reg
  2626                           
  2627                           ;main.c: 260:             nrf_cmd(0xE1);
  2628     059B  30E1               	movlw	225
  2629     059C  3182  227F  3185   	fcall	_nrf_cmd
  2630     059F                     l1748:
  2631                           
  2632                           ;main.c: 261:             return 0;
  2633     059F  3000               	movlw	0
  2634     05A0  2DBC               	goto	l212
  2635     05A1                     l1752:
  2636                           
  2637                           ;main.c: 263:     }
  2638     05A1  3001               	movlw	1
  2639     05A2  07F8               	addwf	tx_send_packet@t,f
  2640     05A3  3000               	movlw	0
  2641     05A4  3DF9               	addwfc	tx_send_packet@t+1,f
  2642     05A5  3000               	movlw	0
  2643     05A6  3DFA               	addwfc	tx_send_packet@t+2,f
  2644     05A7  3000               	movlw	0
  2645     05A8  3DFB               	addwfc	tx_send_packet@t+3,f
  2646     05A9                     l1754:
  2647     05A9  087B               	movf	tx_send_packet@t+3,w
  2648     05AA  1D03               	btfss	3,2
  2649     05AB  2DB7               	goto	u1150
  2650     05AC  087A               	movf	tx_send_packet@t+2,w
  2651     05AD  1D03               	btfss	3,2
  2652     05AE  2DB7               	goto	u1150
  2653     05AF  3060               	movlw	96
  2654     05B0  0278               	subwf	tx_send_packet@t,w
  2655     05B1  30EA               	movlw	234
  2656     05B2  3B79               	subwfb	tx_send_packet@t+1,w
  2657     05B3  1C03               	btfss	3,0
  2658     05B4  2DB6               	goto	u1151
  2659     05B5  2DB7               	goto	u1150
  2660     05B6                     u1151:
  2661     05B6  2D80               	goto	l1736
  2662     05B7                     u1150:
  2663     05B7                     l1756:
  2664                           
  2665                           ;main.c: 264:     nrf_cmd(0xE1);
  2666     05B7  30E1               	movlw	225
  2667     05B8  3182  227F  3185   	fcall	_nrf_cmd
  2668     05BB  2D9F               	goto	l1748
  2669     05BC                     l212:
  2670     05BC  0008               	return
  2671     05BD                     __end_of_tx_send_packet:
  2672                           
  2673                           	psect	text6
  2674     0336                     __ptext6:	
  2675 ;; *************** function _nrf_write_payload *****************
  2676 ;; Defined at:
  2677 ;;		line 170 in file "main.c"
  2678 ;; Parameters:    Size  Location     Type
  2679 ;;  buf             1    wreg     PTR const unsigned char 
  2680 ;;		 -> main@pkt(5), 
  2681 ;;  len             1    3[COMMON] unsigned char 
  2682 ;; Auto vars:     Size  Location     Type
  2683 ;;  buf             1    5[COMMON] PTR const unsigned char 
  2684 ;;		 -> main@pkt(5), 
  2685 ;;  i               1    6[COMMON] unsigned char 
  2686 ;; Return value:  Size  Location     Type
  2687 ;;                  1    wreg      void 
  2688 ;; Registers used:
  2689 ;;		wreg, fsr1l, fsr1h, status,2, status,0, pclath, cstack
  2690 ;; Tracked objects:
  2691 ;;		On entry : 0/0
  2692 ;;		On exit  : 0/0
  2693 ;;		Unchanged: 0/0
  2694 ;; Data sizes:     COMMON   BANK0   BANK1   BANK2   BANK3   BANK4   BANK5   BANK6   BANK7   BANK8   BANK9  BANK10  BANK1
      +1  BANK12  BANK13  BANK14  BANK15  BANK16  BANK17  BANK18  BANK19  BANK20  BANK21  BANK22  BANK23  BANK24  BANK25
  2695 ;;      Params:         1       0       0       0       0       0       0       0       0       0       0       0       
      +0       0       0       0       0       0       0       0       0       0       0       0       0       0       0
  2696 ;;      Locals:         2       0       0       0       0       0       0       0       0       0       0       0       
      +0       0       0       0       0       0       0       0       0       0       0       0       0       0       0
  2697 ;;      Temps:          1       0       0       0       0       0       0       0       0       0       0       0       
      +0       0       0       0       0       0       0       0       0       0       0       0       0       0       0
  2698 ;;      Totals:         4       0       0       0       0       0       0       0       0       0       0       0       
      +0       0       0       0       0       0       0       0       0       0       0       0       0       0       0
  2699 ;;Total ram usage:        4 bytes
  2700 ;; Hardware stack levels used: 1
  2701 ;; Hardware stack levels required when called: 2
  2702 ;; This function calls:
  2703 ;;		_CSN_H
  2704 ;;		_CSN_L
  2705 ;;		_spi_xfer
  2706 ;; This function is called by:
  2707 ;;		_tx_send_packet
  2708 ;; This function uses a non-reentrant model
  2709 ;;
  2710                           
  2711     0336                     _nrf_write_payload:	
  2712                           ;psect for function _nrf_write_payload
  2713                           
  2714                           
  2715                           ;incstack = 0
  2716                           ; Regs used in _nrf_write_payload: [wreg+fsr1l+fsr1h+status,2+status,0+pclath+cstack]
  2717                           ;nrf_write_payload@buf stored from wreg
  2718     0336  00F5               	movwf	nrf_write_payload@buf
  2719     0337                     l1616:
  2720                           
  2721                           ;main.c: 170: static void nrf_write_payload(const uint8_t *buf, uint8_t len);main.c: 171
      +                          : {;main.c: 172:     CSN_L();
  2722     0337  3182  2232  3183   	fcall	_CSN_L
  2723     033A                     l1618:
  2724                           
  2725                           ;main.c: 173:     spi_xfer(0xA0);
  2726     033A  30A0               	movlw	160
  2727     033B  3182  2238  3183   	fcall	_spi_xfer
  2728     033E                     l1620:
  2729                           
  2730                           ;main.c: 174:     for(uint8_t i=0;i<len;i++) spi_xfer(buf[i]);
  2731     033E  01F6               	clrf	nrf_write_payload@i
  2732     033F  2B4E               	goto	l1626
  2733     0340                     l1622:
  2734     0340  0876               	movf	nrf_write_payload@i,w
  2735     0341  0775               	addwf	nrf_write_payload@buf,w
  2736     0342  00F4               	movwf	??_nrf_write_payload
  2737     0343  0874               	movf	??_nrf_write_payload,w
  2738     0344  0086               	movwf	6
  2739     0345  0187               	clrf	7
  2740     0346  0801               	movf	1,w
  2741     0347  3182  2238  3183   	fcall	_spi_xfer
  2742     034A                     l1624:
  2743     034A  3001               	movlw	1
  2744     034B  00F4               	movwf	??_nrf_write_payload
  2745     034C  0874               	movf	??_nrf_write_payload,w
  2746     034D  07F6               	addwf	nrf_write_payload@i,f
  2747     034E                     l1626:
  2748     034E  0873               	movf	nrf_write_payload@len,w
  2749     034F  0276               	subwf	nrf_write_payload@i,w
  2750     0350  1C03               	skipc
  2751     0351  2B53               	goto	u981
  2752     0352  2B54               	goto	u980
  2753     0353                     u981:
  2754     0353  2B40               	goto	l1622
  2755     0354                     u980:
  2756     0354                     l1628:
  2757                           
  2758                           ;main.c: 175:     CSN_H();
  2759     0354  3182  222F  3183   	fcall	_CSN_H
  2760     0357                     l197:
  2761     0357  0008               	return
  2762     0358                     __end_of_nrf_write_payload:
  2763                           
  2764                           	psect	text7
  2765     02BB                     __ptext7:	
  2766 ;; *************** function _nrf_read_reg *****************
  2767 ;; Defined at:
  2768 ;;		line 124 in file "main.c"
  2769 ;; Parameters:    Size  Location     Type
  2770 ;;  reg             1    wreg     unsigned char 
  2771 ;; Auto vars:     Size  Location     Type
  2772 ;;  reg             1    3[COMMON] unsigned char 
  2773 ;;  v               1    4[COMMON] unsigned char 
  2774 ;; Return value:  Size  Location     Type
  2775 ;;                  1    wreg      unsigned char 
  2776 ;; Registers used:
  2777 ;;		wreg, status,2, status,0, pclath, cstack
  2778 ;; Tracked objects:
  2779 ;;		On entry : 0/0
  2780 ;;		On exit  : 0/0
  2781 ;;		Unchanged: 0/0
  2782 ;; Data sizes:     COMMON   BANK0   BANK1   BANK2   BANK3   BANK4   BANK5   BANK6   BANK7   BANK8   BANK9  BANK10  BANK1
      +1  BANK12  BANK13  BANK14  BANK15  BANK16  BANK17  BANK18  BANK19  BANK20  BANK21  BANK22  BANK23  BANK24  BANK25
  2783 ;;      Params:         0       0       0       0       0       0       0       0       0       0       0       0       
      +0       0       0       0       0       0       0       0       0       0       0       0       0       0       0
  2784 ;;      Locals:         2       0       0       0       0       0       0       0       0       0       0       0       
      +0       0       0       0       0       0       0       0       0       0       0       0       0       0       0
  2785 ;;      Temps:          0       0       0       0       0       0       0       0       0       0       0       0       
      +0       0       0       0       0       0       0       0       0       0       0       0       0       0       0
  2786 ;;      Totals:         2       0       0       0       0       0       0       0       0       0       0       0       
      +0       0       0       0       0       0       0       0       0       0       0       0       0       0       0
  2787 ;;Total ram usage:        2 bytes
  2788 ;; Hardware stack levels used: 1
  2789 ;; Hardware stack levels required when called: 2
  2790 ;; This function calls:
  2791 ;;		_CSN_H
  2792 ;;		_CSN_L
  2793 ;;		_spi_xfer
  2794 ;; This function is called by:
  2795 ;;		_tx_send_packet
  2796 ;; This function uses a non-reentrant model
  2797 ;;
  2798                           
  2799     02BB                     _nrf_read_reg:	
  2800                           ;psect for function _nrf_read_reg
  2801                           
  2802                           
  2803                           ;incstack = 0
  2804                           ; Regs used in _nrf_read_reg: [wreg+status,2+status,0+pclath+cstack]
  2805                           ;nrf_read_reg@reg stored from wreg
  2806     02BB  00F3               	movwf	nrf_read_reg@reg
  2807     02BC                     l1604:
  2808                           
  2809                           ;main.c: 124: static uint8_t nrf_read_reg(uint8_t reg);main.c: 125: {;main.c: 126:     u
      +                          int8_t v;;main.c: 127:     CSN_L();
  2810     02BC  3182  2232  3182   	fcall	_CSN_L
  2811     02BF                     l1606:
  2812                           
  2813                           ;main.c: 128:     spi_xfer(0x00 | (reg & 0x1F));
  2814     02BF  0873               	movf	nrf_read_reg@reg,w
  2815     02C0  391F               	andlw	31
  2816     02C1  3182  2238  3182   	fcall	_spi_xfer
  2817     02C4                     l1608:
  2818                           
  2819                           ;main.c: 129:     v = spi_xfer(0xFF);
  2820     02C4  30FF               	movlw	255
  2821     02C5  3182  2238  3182   	fcall	_spi_xfer
  2822     02C8  00F4               	movwf	nrf_read_reg@v
  2823     02C9                     l1610:
  2824                           
  2825                           ;main.c: 130:     CSN_H();
  2826     02C9  3182  222F  3182   	fcall	_CSN_H
  2827     02CC                     l1612:
  2828                           
  2829                           ;main.c: 131:     return v;
  2830     02CC  0874               	movf	nrf_read_reg@v,w
  2831     02CD                     l170:
  2832     02CD  0008               	return
  2833     02CE                     __end_of_nrf_read_reg:
  2834                           
  2835                           	psect	text8
  2836     0235                     __ptext8:	
  2837 ;; *************** function _CE_H *****************
  2838 ;; Defined at:
  2839 ;;		line 76 in file "main.c"
  2840 ;; Parameters:    Size  Location     Type
  2841 ;;		None
  2842 ;; Auto vars:     Size  Location     Type
  2843 ;;		None
  2844 ;; Return value:  Size  Location     Type
  2845 ;;                  1    wreg      void 
  2846 ;; Registers used:
  2847 ;;		None
  2848 ;; Tracked objects:
  2849 ;;		On entry : 0/0
  2850 ;;		On exit  : 0/0
  2851 ;;		Unchanged: 0/0
  2852 ;; Data sizes:     COMMON   BANK0   BANK1   BANK2   BANK3   BANK4   BANK5   BANK6   BANK7   BANK8   BANK9  BANK10  BANK1
      +1  BANK12  BANK13  BANK14  BANK15  BANK16  BANK17  BANK18  BANK19  BANK20  BANK21  BANK22  BANK23  BANK24  BANK25
  2853 ;;      Params:         0       0       0       0       0       0       0       0       0       0       0       0       
      +0       0       0       0       0       0       0       0       0       0       0       0       0       0       0
  2854 ;;      Locals:         0       0       0       0       0       0       0       0       0       0       0       0       
      +0       0       0       0       0       0       0       0       0       0       0       0       0       0       0
  2855 ;;      Temps:          0       0       0       0       0       0       0       0       0       0       0       0       
      +0       0       0       0       0       0       0       0       0       0       0       0       0       0       0
  2856 ;;      Totals:         0       0       0       0       0       0       0       0       0       0       0       0       
      +0       0       0       0       0       0       0       0       0       0       0       0       0       0       0
  2857 ;;Total ram usage:        0 bytes
  2858 ;; Hardware stack levels used: 1
  2859 ;; This function calls:
  2860 ;;		Nothing
  2861 ;; This function is called by:
  2862 ;;		_tx_send_packet
  2863 ;;		_radio_init_rx
  2864 ;; This function uses a non-reentrant model
  2865 ;;
  2866                           
  2867     0235                     _CE_H:	
  2868                           ;psect for function _CE_H
  2869                           
  2870     0235                     l1594:	
  2871                           ;incstack = 0
  2872                           ; Regs used in _CE_H: []
  2873                           
  2874     0235  0022               	movlb	2	; select bank2
  2875     0236  140E               	bsf	14,0	;volatile
  2876     0237                     l130:
  2877     0237  0008               	return
  2878     0238                     __end_of_CE_H:
  2879                           
  2880                           	psect	text9
  2881     02CE                     __ptext9:	
  2882 ;; *************** function _radio_init_tx *****************
  2883 ;; Defined at:
  2884 ;;		line 212 in file "main.c"
  2885 ;; Parameters:    Size  Location     Type
  2886 ;;		None
  2887 ;; Auto vars:     Size  Location     Type
  2888 ;;		None
  2889 ;; Return value:  Size  Location     Type
  2890 ;;                  1    wreg      void 
  2891 ;; Registers used:
  2892 ;;		wreg, fsr0l, fsr0h, status,2, status,0, pclath, cstack
  2893 ;; Tracked objects:
  2894 ;;		On entry : 0/0
  2895 ;;		On exit  : 0/0
  2896 ;;		Unchanged: 0/0
  2897 ;; Data sizes:     COMMON   BANK0   BANK1   BANK2   BANK3   BANK4   BANK5   BANK6   BANK7   BANK8   BANK9  BANK10  BANK1
      +1  BANK12  BANK13  BANK14  BANK15  BANK16  BANK17  BANK18  BANK19  BANK20  BANK21  BANK22  BANK23  BANK24  BANK25
  2898 ;;      Params:         0       0       0       0       0       0       0       0       0       0       0       0       
      +0       0       0       0       0       0       0       0       0       0       0       0       0       0       0
  2899 ;;      Locals:         0       0       0       0       0       0       0       0       0       0       0       0       
      +0       0       0       0       0       0       0       0       0       0       0       0       0       0       0
  2900 ;;      Temps:          1       0       0       0       0       0       0       0       0       0       0       0       
      +0       0       0       0       0       0       0       0       0       0       0       0       0       0       0
  2901 ;;      Totals:         1       0       0       0       0       0       0       0       0       0       0       0       
      +0       0       0       0       0       0       0       0       0       0       0       0       0       0       0
  2902 ;;Total ram usage:        1 bytes
  2903 ;; Hardware stack levels used: 1
  2904 ;; Hardware stack levels required when called: 5
  2905 ;; This function calls:
  2906 ;;		_CE_L
  2907 ;;		_nrf_write_reg
  2908 ;;		_radio_common_setup
  2909 ;; This function is called by:
  2910 ;;		_main
  2911 ;; This function uses a non-reentrant model
  2912 ;;
  2913                           
  2914     02CE                     _radio_init_tx:	
  2915                           ;psect for function _radio_init_tx
  2916                           
  2917     02CE                     l1712:	
  2918                           ;incstack = 0
  2919                           ; Regs used in _radio_init_tx: [wreg-fsr0h+status,2+status,0+pclath+cstack]
  2920                           
  2921                           
  2922                           ;main.c: 214:     radio_common_setup();
  2923     02CE  3184  241A  3182   	fcall	_radio_common_setup
  2924     02D1                     l1714:
  2925                           
  2926                           ;main.c: 217:     nrf_write_reg(0x00, (0x02 | 0x08 | 0x04));
  2927     02D1  300E               	movlw	14
  2928     02D2  00F3               	movwf	nrf_write_reg@val
  2929     02D3  3000               	movlw	0
  2930     02D4  3182  22A9  3182   	fcall	_nrf_write_reg
  2931     02D7                     l1716:
  2932                           
  2933                           ;main.c: 218:     _delay((unsigned long)((3)*(32000000/4000.0)));
  2934     02D7  3020               	movlw	32
  2935     02D8  00FB               	movwf	??_radio_init_tx
  2936     02D9  302A               	movlw	42
  2937     02DA                     u1387:
  2938     02DA  0B89               	decfsz	9,f
  2939     02DB  2ADA               	goto	u1387
  2940     02DC  0BFB               	decfsz	??_radio_init_tx,f
  2941     02DD  2ADA               	goto	u1387
  2942     02DE                     l1718:
  2943                           
  2944                           ;main.c: 220:     CE_L();
  2945     02DE  3182  222C  3182   	fcall	_CE_L
  2946     02E1                     l203:
  2947     02E1  0008               	return
  2948     02E2                     __end_of_radio_init_tx:
  2949                           
  2950                           	psect	text10
  2951     041A                     __ptext10:	
  2952 ;; *************** function _radio_common_setup *****************
  2953 ;; Defined at:
  2954 ;;		line 179 in file "main.c"
  2955 ;; Parameters:    Size  Location     Type
  2956 ;;		None
  2957 ;; Auto vars:     Size  Location     Type
  2958 ;;		None
  2959 ;; Return value:  Size  Location     Type
  2960 ;;                  1    wreg      void 
  2961 ;; Registers used:
  2962 ;;		wreg, fsr0l, fsr0h, status,2, status,0, pclath, cstack
  2963 ;; Tracked objects:
  2964 ;;		On entry : 0/0
  2965 ;;		On exit  : 0/0
  2966 ;;		Unchanged: 0/0
  2967 ;; Data sizes:     COMMON   BANK0   BANK1   BANK2   BANK3   BANK4   BANK5   BANK6   BANK7   BANK8   BANK9  BANK10  BANK1
      +1  BANK12  BANK13  BANK14  BANK15  BANK16  BANK17  BANK18  BANK19  BANK20  BANK21  BANK22  BANK23  BANK24  BANK25
  2968 ;;      Params:         0       0       0       0       0       0       0       0       0       0       0       0       
      +0       0       0       0       0       0       0       0       0       0       0       0       0       0       0
  2969 ;;      Locals:         0       0       0       0       0       0       0       0       0       0       0       0       
      +0       0       0       0       0       0       0       0       0       0       0       0       0       0       0
  2970 ;;      Temps:          1       0       0       0       0       0       0       0       0       0       0       0       
      +0       0       0       0       0       0       0       0       0       0       0       0       0       0       0
  2971 ;;      Totals:         1       0       0       0       0       0       0       0       0       0       0       0       
      +0       0       0       0       0       0       0       0       0       0       0       0       0       0       0
  2972 ;;Total ram usage:        1 bytes
  2973 ;; Hardware stack levels used: 1
  2974 ;; Hardware stack levels required when called: 4
  2975 ;; This function calls:
  2976 ;;		_CE_L
  2977 ;;		_nrf_clear_irqs
  2978 ;;		_nrf_flush_all
  2979 ;;		_nrf_write_buf
  2980 ;;		_nrf_write_reg
  2981 ;; This function is called by:
  2982 ;;		_radio_init_tx
  2983 ;;		_radio_init_rx
  2984 ;; This function uses a non-reentrant model
  2985 ;;
  2986                           
  2987     041A                     _radio_common_setup:	
  2988                           ;psect for function _radio_common_setup
  2989                           
  2990     041A                     l1630:	
  2991                           ;incstack = 0
  2992                           ; Regs used in _radio_common_setup: [wreg-fsr0h+status,2+status,0+pclath+cstack]
  2993                           
  2994                           
  2995                           ;main.c: 181:     CE_L();
  2996     041A  3182  222C  3184   	fcall	_CE_L
  2997     041D                     l1632:
  2998                           
  2999                           ;main.c: 182:     _delay((unsigned long)((5)*(32000000/4000.0)));
  3000     041D  3034               	movlw	52
  3001     041E  00FA               	movwf	??_radio_common_setup
  3002     041F  30F2               	movlw	242
  3003     0420                     u1397:
  3004     0420  0B89               	decfsz	9,f
  3005     0421  2C20               	goto	u1397
  3006     0422  0BFA               	decfsz	??_radio_common_setup,f
  3007     0423  2C20               	goto	u1397
  3008                           
  3009                           ;main.c: 184:     nrf_flush_all();
  3010     0424  3182  2263  3184   	fcall	_nrf_flush_all
  3011                           
  3012                           ;main.c: 185:     nrf_clear_irqs();
  3013     0427  3182  224B  3184   	fcall	_nrf_clear_irqs
  3014                           
  3015                           ;main.c: 188:     nrf_write_reg(0x01, 0x00);
  3016     042A  01F3               	clrf	nrf_write_reg@val
  3017     042B  3001               	movlw	1
  3018     042C  3182  22A9  3184   	fcall	_nrf_write_reg
  3019                           
  3020                           ;main.c: 191:     nrf_write_reg(0x02, 0x01);
  3021     042F  01F3               	clrf	nrf_write_reg@val
  3022     0430  0AF3               	incf	nrf_write_reg@val,f
  3023     0431  3002               	movlw	2
  3024     0432  3182  22A9  3184   	fcall	_nrf_write_reg
  3025                           
  3026                           ;main.c: 194:     nrf_write_reg(0x03, 0x03);
  3027     0435  3003               	movlw	3
  3028     0436  00F3               	movwf	nrf_write_reg@val
  3029     0437  3003               	movlw	3
  3030     0438  3182  22A9  3184   	fcall	_nrf_write_reg
  3031                           
  3032                           ;main.c: 197:     nrf_write_reg(0x04, 0x00);
  3033     043B  01F3               	clrf	nrf_write_reg@val
  3034     043C  3004               	movlw	4
  3035     043D  3182  22A9  3184   	fcall	_nrf_write_reg
  3036                           
  3037                           ;main.c: 200:     nrf_write_reg(0x05, 83);
  3038     0440  3053               	movlw	83
  3039     0441  00F3               	movwf	nrf_write_reg@val
  3040     0442  3005               	movlw	5
  3041     0443  3182  22A9  3184   	fcall	_nrf_write_reg
  3042                           
  3043                           ;main.c: 201:     nrf_write_reg(0x06, 0x06);
  3044     0446  3006               	movlw	6
  3045     0447  00F3               	movwf	nrf_write_reg@val
  3046     0448  3006               	movlw	6
  3047     0449  3182  22A9  3184   	fcall	_nrf_write_reg
  3048     044C                     l1634:
  3049                           
  3050                           ;main.c: 204:     nrf_write_buf(0x0A, adr0, 5);
  3051     044C  3000               	movlw	low (_adr0| (0+32768))
  3052     044D  00F3               	movwf	nrf_write_buf@buf
  3053     044E  3088               	movlw	high (_adr0| (0+32768))
  3054     044F  00F4               	movwf	nrf_write_buf@buf+1
  3055     0450  3005               	movlw	5
  3056     0451  00F5               	movwf	nrf_write_buf@len
  3057     0452  300A               	movlw	10
  3058     0453  3183  23A4  3184   	fcall	_nrf_write_buf
  3059     0456                     l1636:
  3060                           
  3061                           ;main.c: 205:     nrf_write_buf(0x10, adr0, 5);
  3062     0456  3000               	movlw	low (_adr0| (0+32768))
  3063     0457  00F3               	movwf	nrf_write_buf@buf
  3064     0458  3088               	movlw	high (_adr0| (0+32768))
  3065     0459  00F4               	movwf	nrf_write_buf@buf+1
  3066     045A  3005               	movlw	5
  3067     045B  00F5               	movwf	nrf_write_buf@len
  3068     045C  3010               	movlw	16
  3069     045D  3183  23A4  3184   	fcall	_nrf_write_buf
  3070                           
  3071                           ;main.c: 208:     nrf_write_reg(0x11, (uint8_t)5);
  3072     0460  3005               	movlw	5
  3073     0461  00F3               	movwf	nrf_write_reg@val
  3074     0462  3011               	movlw	17
  3075     0463  3182  22A9  3184   	fcall	_nrf_write_reg
  3076     0466                     l200:
  3077     0466  0008               	return
  3078     0467                     __end_of_radio_common_setup:
  3079                           
  3080                           	psect	text11
  3081     03A4                     __ptext11:	
  3082 ;; *************** function _nrf_write_buf *****************
  3083 ;; Defined at:
  3084 ;;		line 134 in file "main.c"
  3085 ;; Parameters:    Size  Location     Type
  3086 ;;  reg             1    wreg     unsigned char 
  3087 ;;  buf             2    3[COMMON] PTR const unsigned char 
  3088 ;;		 -> adr0(5), 
  3089 ;;  len             1    5[COMMON] unsigned char 
  3090 ;; Auto vars:     Size  Location     Type
  3091 ;;  reg             1    8[COMMON] unsigned char 
  3092 ;;  i               1    9[COMMON] unsigned char 
  3093 ;; Return value:  Size  Location     Type
  3094 ;;                  1    wreg      void 
  3095 ;; Registers used:
  3096 ;;		wreg, fsr0l, fsr0h, status,2, status,0, pclath, cstack
  3097 ;; Tracked objects:
  3098 ;;		On entry : 0/0
  3099 ;;		On exit  : 0/0
  3100 ;;		Unchanged: 0/0
  3101 ;; Data sizes:     COMMON   BANK0   BANK1   BANK2   BANK3   BANK4   BANK5   BANK6   BANK7   BANK8   BANK9  BANK10  BANK1
      +1  BANK12  BANK13  BANK14  BANK15  BANK16  BANK17  BANK18  BANK19  BANK20  BANK21  BANK22  BANK23  BANK24  BANK25
  3102 ;;      Params:         3       0       0       0       0       0       0       0       0       0       0       0       
      +0       0       0       0       0       0       0       0       0       0       0       0       0       0       0
  3103 ;;      Locals:         2       0       0       0       0       0       0       0       0       0       0       0       
      +0       0       0       0       0       0       0       0       0       0       0       0       0       0       0
  3104 ;;      Temps:          2       0       0       0       0       0       0       0       0       0       0       0       
      +0       0       0       0       0       0       0       0       0       0       0       0       0       0       0
  3105 ;;      Totals:         7       0       0       0       0       0       0       0       0       0       0       0       
      +0       0       0       0       0       0       0       0       0       0       0       0       0       0       0
  3106 ;;Total ram usage:        7 bytes
  3107 ;; Hardware stack levels used: 1
  3108 ;; Hardware stack levels required when called: 2
  3109 ;; This function calls:
  3110 ;;		_CSN_H
  3111 ;;		_CSN_L
  3112 ;;		_spi_xfer
  3113 ;; This function is called by:
  3114 ;;		_radio_common_setup
  3115 ;; This function uses a non-reentrant model
  3116 ;;
  3117                           
  3118     03A4                     _nrf_write_buf:	
  3119                           ;psect for function _nrf_write_buf
  3120                           
  3121                           
  3122                           ;incstack = 0
  3123                           ; Regs used in _nrf_write_buf: [wreg-fsr0h+status,2+status,0+pclath+cstack]
  3124                           ;nrf_write_buf@reg stored from wreg
  3125     03A4  00F8               	movwf	nrf_write_buf@reg
  3126     03A5                     l1478:
  3127                           
  3128                           ;main.c: 134: static void nrf_write_buf(uint8_t reg, const uint8_t *buf, uint8_t len);ma
      +                          in.c: 135: {;main.c: 136:     CSN_L();
  3129     03A5  3182  2232  3183   	fcall	_CSN_L
  3130     03A8                     l1480:
  3131                           
  3132                           ;main.c: 137:     spi_xfer(0x20 | (reg & 0x1F));
  3133     03A8  0878               	movf	nrf_write_buf@reg,w
  3134     03A9  391F               	andlw	31
  3135     03AA  3820               	iorlw	32
  3136     03AB  3182  2238  3183   	fcall	_spi_xfer
  3137     03AE                     l1482:
  3138                           
  3139                           ;main.c: 138:     for(uint8_t i=0;i<len;i++) spi_xfer(buf[i]);
  3140     03AE  01F9               	clrf	nrf_write_buf@i
  3141     03AF  2BC3               	goto	l1488
  3142     03B0                     l1484:
  3143     03B0  0874               	movf	nrf_write_buf@buf+1,w
  3144     03B1  00F7               	movwf	??_nrf_write_buf+1
  3145     03B2  0873               	movf	nrf_write_buf@buf,w
  3146     03B3  00F6               	movwf	??_nrf_write_buf
  3147     03B4  0879               	movf	nrf_write_buf@i,w
  3148     03B5  0776               	addwf	??_nrf_write_buf,w
  3149     03B6  0084               	movwf	4
  3150     03B7  0877               	movf	??_nrf_write_buf+1,w
  3151     03B8  1803               	skipnc
  3152     03B9  0A77               	incf	??_nrf_write_buf+1,w
  3153     03BA  0085               	movwf	5
  3154     03BB  0800               	movf	0,w	;code access
  3155     03BC  3182  2238  3183   	fcall	_spi_xfer
  3156     03BF                     l1486:
  3157     03BF  3001               	movlw	1
  3158     03C0  00F6               	movwf	??_nrf_write_buf
  3159     03C1  0876               	movf	??_nrf_write_buf,w
  3160     03C2  07F9               	addwf	nrf_write_buf@i,f
  3161     03C3                     l1488:
  3162     03C3  0875               	movf	nrf_write_buf@len,w
  3163     03C4  0279               	subwf	nrf_write_buf@i,w
  3164     03C5  1C03               	skipc
  3165     03C6  2BC8               	goto	u731
  3166     03C7  2BC9               	goto	u730
  3167     03C8                     u731:
  3168     03C8  2BB0               	goto	l1484
  3169     03C9                     u730:
  3170     03C9                     l1490:
  3171                           
  3172                           ;main.c: 139:     CSN_H();
  3173     03C9  3182  222F  3183   	fcall	_CSN_H
  3174     03CC                     l176:
  3175     03CC  0008               	return
  3176     03CD                     __end_of_nrf_write_buf:
  3177                           
  3178                           	psect	text12
  3179     0263                     __ptext12:	
  3180 ;; *************** function _nrf_flush_all *****************
  3181 ;; Defined at:
  3182 ;;		line 154 in file "main.c"
  3183 ;; Parameters:    Size  Location     Type
  3184 ;;		None
  3185 ;; Auto vars:     Size  Location     Type
  3186 ;;		None
  3187 ;; Return value:  Size  Location     Type
  3188 ;;                  1    wreg      void 
  3189 ;; Registers used:
  3190 ;;		wreg, status,2, status,0, pclath, cstack
  3191 ;; Tracked objects:
  3192 ;;		On entry : 0/0
  3193 ;;		On exit  : 0/0
  3194 ;;		Unchanged: 0/0
  3195 ;; Data sizes:     COMMON   BANK0   BANK1   BANK2   BANK3   BANK4   BANK5   BANK6   BANK7   BANK8   BANK9  BANK10  BANK1
      +1  BANK12  BANK13  BANK14  BANK15  BANK16  BANK17  BANK18  BANK19  BANK20  BANK21  BANK22  BANK23  BANK24  BANK25
  3196 ;;      Params:         0       0       0       0       0       0       0       0       0       0       0       0       
      +0       0       0       0       0       0       0       0       0       0       0       0       0       0       0
  3197 ;;      Locals:         0       0       0       0       0       0       0       0       0       0       0       0       
      +0       0       0       0       0       0       0       0       0       0       0       0       0       0       0
  3198 ;;      Temps:          0       0       0       0       0       0       0       0       0       0       0       0       
      +0       0       0       0       0       0       0       0       0       0       0       0       0       0       0
  3199 ;;      Totals:         0       0       0       0       0       0       0       0       0       0       0       0       
      +0       0       0       0       0       0       0       0       0       0       0       0       0       0       0
  3200 ;;Total ram usage:        0 bytes
  3201 ;; Hardware stack levels used: 1
  3202 ;; Hardware stack levels required when called: 3
  3203 ;; This function calls:
  3204 ;;		_nrf_cmd
  3205 ;; This function is called by:
  3206 ;;		_radio_common_setup
  3207 ;; This function uses a non-reentrant model
  3208 ;;
  3209                           
  3210     0263                     _nrf_flush_all:	
  3211                           ;psect for function _nrf_flush_all
  3212                           
  3213     0263                     l1494:	
  3214                           ;incstack = 0
  3215                           ; Regs used in _nrf_flush_all: [wreg+status,2+status,0+pclath+cstack]
  3216                           
  3217                           
  3218                           ;main.c: 156:     nrf_cmd(0xE1);
  3219     0263  30E1               	movlw	225
  3220     0264  3182  227F  3182   	fcall	_nrf_cmd
  3221                           
  3222                           ;main.c: 157:     nrf_cmd(0xE2);
  3223     0267  30E2               	movlw	226
  3224     0268  3182  227F  3182   	fcall	_nrf_cmd
  3225     026B                     l185:
  3226     026B  0008               	return
  3227     026C                     __end_of_nrf_flush_all:
  3228                           
  3229                           	psect	text13
  3230     027F                     __ptext13:	
  3231 ;; *************** function _nrf_cmd *****************
  3232 ;; Defined at:
  3233 ;;		line 142 in file "main.c"
  3234 ;; Parameters:    Size  Location     Type
  3235 ;;  cmd             1    wreg     unsigned char 
  3236 ;; Auto vars:     Size  Location     Type
  3237 ;;  cmd             1    3[COMMON] unsigned char 
  3238 ;; Return value:  Size  Location     Type
  3239 ;;                  1    wreg      void 
  3240 ;; Registers used:
  3241 ;;		wreg, status,2, status,0, pclath, cstack
  3242 ;; Tracked objects:
  3243 ;;		On entry : 0/0
  3244 ;;		On exit  : 0/0
  3245 ;;		Unchanged: 0/0
  3246 ;; Data sizes:     COMMON   BANK0   BANK1   BANK2   BANK3   BANK4   BANK5   BANK6   BANK7   BANK8   BANK9  BANK10  BANK1
      +1  BANK12  BANK13  BANK14  BANK15  BANK16  BANK17  BANK18  BANK19  BANK20  BANK21  BANK22  BANK23  BANK24  BANK25
  3247 ;;      Params:         0       0       0       0       0       0       0       0       0       0       0       0       
      +0       0       0       0       0       0       0       0       0       0       0       0       0       0       0
  3248 ;;      Locals:         1       0       0       0       0       0       0       0       0       0       0       0       
      +0       0       0       0       0       0       0       0       0       0       0       0       0       0       0
  3249 ;;      Temps:          0       0       0       0       0       0       0       0       0       0       0       0       
      +0       0       0       0       0       0       0       0       0       0       0       0       0       0       0
  3250 ;;      Totals:         1       0       0       0       0       0       0       0       0       0       0       0       
      +0       0       0       0       0       0       0       0       0       0       0       0       0       0       0
  3251 ;;Total ram usage:        1 bytes
  3252 ;; Hardware stack levels used: 1
  3253 ;; Hardware stack levels required when called: 2
  3254 ;; This function calls:
  3255 ;;		_CSN_H
  3256 ;;		_CSN_L
  3257 ;;		_spi_xfer
  3258 ;; This function is called by:
  3259 ;;		_nrf_flush_all
  3260 ;;		_tx_send_packet
  3261 ;; This function uses a non-reentrant model
  3262 ;;
  3263                           
  3264     027F                     _nrf_cmd:	
  3265                           ;psect for function _nrf_cmd
  3266                           
  3267                           
  3268                           ;incstack = 0
  3269                           ; Regs used in _nrf_cmd: [wreg+status,2+status,0+pclath+cstack]
  3270                           ;nrf_cmd@cmd stored from wreg
  3271     027F  00F3               	movwf	nrf_cmd@cmd
  3272     0280                     l1466:
  3273                           
  3274                           ;main.c: 142: static void nrf_cmd(uint8_t cmd);main.c: 143: {;main.c: 144:     CSN_L();
  3275     0280  3182  2232  3182   	fcall	_CSN_L
  3276     0283                     l1468:
  3277                           
  3278                           ;main.c: 145:     spi_xfer(cmd);
  3279     0283  0873               	movf	nrf_cmd@cmd,w
  3280     0284  3182  2238  3182   	fcall	_spi_xfer
  3281     0287                     l1470:
  3282                           
  3283                           ;main.c: 146:     CSN_H();
  3284     0287  3182  222F  3182   	fcall	_CSN_H
  3285     028A                     l179:
  3286     028A  0008               	return
  3287     028B                     __end_of_nrf_cmd:
  3288                           
  3289                           	psect	text14
  3290     024B                     __ptext14:	
  3291 ;; *************** function _nrf_clear_irqs *****************
  3292 ;; Defined at:
  3293 ;;		line 149 in file "main.c"
  3294 ;; Parameters:    Size  Location     Type
  3295 ;;		None
  3296 ;; Auto vars:     Size  Location     Type
  3297 ;;		None
  3298 ;; Return value:  Size  Location     Type
  3299 ;;                  1    wreg      void 
  3300 ;; Registers used:
  3301 ;;		wreg, status,2, status,0, pclath, cstack
  3302 ;; Tracked objects:
  3303 ;;		On entry : 0/0
  3304 ;;		On exit  : 0/0
  3305 ;;		Unchanged: 0/0
  3306 ;; Data sizes:     COMMON   BANK0   BANK1   BANK2   BANK3   BANK4   BANK5   BANK6   BANK7   BANK8   BANK9  BANK10  BANK1
      +1  BANK12  BANK13  BANK14  BANK15  BANK16  BANK17  BANK18  BANK19  BANK20  BANK21  BANK22  BANK23  BANK24  BANK25
  3307 ;;      Params:         0       0       0       0       0       0       0       0       0       0       0       0       
      +0       0       0       0       0       0       0       0       0       0       0       0       0       0       0
  3308 ;;      Locals:         0       0       0       0       0       0       0       0       0       0       0       0       
      +0       0       0       0       0       0       0       0       0       0       0       0       0       0       0
  3309 ;;      Temps:          0       0       0       0       0       0       0       0       0       0       0       0       
      +0       0       0       0       0       0       0       0       0       0       0       0       0       0       0
  3310 ;;      Totals:         0       0       0       0       0       0       0       0       0       0       0       0       
      +0       0       0       0       0       0       0       0       0       0       0       0       0       0       0
  3311 ;;Total ram usage:        0 bytes
  3312 ;; Hardware stack levels used: 1
  3313 ;; Hardware stack levels required when called: 3
  3314 ;; This function calls:
  3315 ;;		_nrf_write_reg
  3316 ;; This function is called by:
  3317 ;;		_radio_common_setup
  3318 ;;		_tx_send_packet
  3319 ;; This function uses a non-reentrant model
  3320 ;;
  3321                           
  3322     024B                     _nrf_clear_irqs:	
  3323                           ;psect for function _nrf_clear_irqs
  3324                           
  3325     024B                     l1492:	
  3326                           ;incstack = 0
  3327                           ; Regs used in _nrf_clear_irqs: [wreg+status,2+status,0+pclath+cstack]
  3328                           
  3329                           
  3330                           ;main.c: 151:     nrf_write_reg(0x07, 0x40 | 0x20 | 0x10);
  3331     024B  3070               	movlw	112
  3332     024C  00F3               	movwf	nrf_write_reg@val
  3333     024D  3007               	movlw	7
  3334     024E  3182  22A9  3182   	fcall	_nrf_write_reg
  3335     0251                     l182:
  3336     0251  0008               	return
  3337     0252                     __end_of_nrf_clear_irqs:
  3338                           
  3339                           	psect	text15
  3340     02A9                     __ptext15:	
  3341 ;; *************** function _nrf_write_reg *****************
  3342 ;; Defined at:
  3343 ;;		line 116 in file "main.c"
  3344 ;; Parameters:    Size  Location     Type
  3345 ;;  reg             1    wreg     unsigned char 
  3346 ;;  val             1    3[COMMON] unsigned char 
  3347 ;; Auto vars:     Size  Location     Type
  3348 ;;  reg             1    4[COMMON] unsigned char 
  3349 ;; Return value:  Size  Location     Type
  3350 ;;                  1    wreg      void 
  3351 ;; Registers used:
  3352 ;;		wreg, status,2, status,0, pclath, cstack
  3353 ;; Tracked objects:
  3354 ;;		On entry : 0/0
  3355 ;;		On exit  : 0/0
  3356 ;;		Unchanged: 0/0
  3357 ;; Data sizes:     COMMON   BANK0   BANK1   BANK2   BANK3   BANK4   BANK5   BANK6   BANK7   BANK8   BANK9  BANK10  BANK1
      +1  BANK12  BANK13  BANK14  BANK15  BANK16  BANK17  BANK18  BANK19  BANK20  BANK21  BANK22  BANK23  BANK24  BANK25
  3358 ;;      Params:         1       0       0       0       0       0       0       0       0       0       0       0       
      +0       0       0       0       0       0       0       0       0       0       0       0       0       0       0
  3359 ;;      Locals:         1       0       0       0       0       0       0       0       0       0       0       0       
      +0       0       0       0       0       0       0       0       0       0       0       0       0       0       0
  3360 ;;      Temps:          0       0       0       0       0       0       0       0       0       0       0       0       
      +0       0       0       0       0       0       0       0       0       0       0       0       0       0       0
  3361 ;;      Totals:         2       0       0       0       0       0       0       0       0       0       0       0       
      +0       0       0       0       0       0       0       0       0       0       0       0       0       0       0
  3362 ;;Total ram usage:        2 bytes
  3363 ;; Hardware stack levels used: 1
  3364 ;; Hardware stack levels required when called: 2
  3365 ;; This function calls:
  3366 ;;		_CSN_H
  3367 ;;		_CSN_L
  3368 ;;		_spi_xfer
  3369 ;; This function is called by:
  3370 ;;		_nrf_clear_irqs
  3371 ;;		_radio_common_setup
  3372 ;;		_radio_init_tx
  3373 ;;		_tx_send_packet
  3374 ;;		_radio_init_rx
  3375 ;; This function uses a non-reentrant model
  3376 ;;
  3377                           
  3378     02A9                     _nrf_write_reg:	
  3379                           ;psect for function _nrf_write_reg
  3380                           
  3381                           
  3382                           ;incstack = 0
  3383                           ; Regs used in _nrf_write_reg: [wreg+status,2+status,0+pclath+cstack]
  3384                           ;nrf_write_reg@reg stored from wreg
  3385     02A9  00F4               	movwf	nrf_write_reg@reg
  3386     02AA                     l1460:
  3387                           
  3388                           ;main.c: 116: static void nrf_write_reg(uint8_t reg, uint8_t val);main.c: 117: {;main.c:
      +                           118:     CSN_L();
  3389     02AA  3182  2232  3182   	fcall	_CSN_L
  3390     02AD                     l1462:
  3391                           
  3392                           ;main.c: 119:     spi_xfer(0x20 | (reg & 0x1F));
  3393     02AD  0874               	movf	nrf_write_reg@reg,w
  3394     02AE  391F               	andlw	31
  3395     02AF  3820               	iorlw	32
  3396     02B0  3182  2238  3182   	fcall	_spi_xfer
  3397     02B3                     l1464:
  3398                           
  3399                           ;main.c: 120:     spi_xfer(val);
  3400     02B3  0873               	movf	nrf_write_reg@val,w
  3401     02B4  3182  2238  3182   	fcall	_spi_xfer
  3402                           
  3403                           ;main.c: 121:     CSN_H();
  3404     02B7  3182  222F  3182   	fcall	_CSN_H
  3405     02BA                     l167:
  3406     02BA  0008               	return
  3407     02BB                     __end_of_nrf_write_reg:
  3408                           
  3409                           	psect	text16
  3410     0238                     __ptext16:	
  3411 ;; *************** function _spi_xfer *****************
  3412 ;; Defined at:
  3413 ;;		line 107 in file "main.c"
  3414 ;; Parameters:    Size  Location     Type
  3415 ;;  b               1    wreg     unsigned char 
  3416 ;; Auto vars:     Size  Location     Type
  3417 ;;  b               1    2[COMMON] unsigned char 
  3418 ;; Return value:  Size  Location     Type
  3419 ;;                  1    wreg      unsigned char 
  3420 ;; Registers used:
  3421 ;;		wreg, pclath, cstack
  3422 ;; Tracked objects:
  3423 ;;		On entry : 0/0
  3424 ;;		On exit  : 0/0
  3425 ;;		Unchanged: 0/0
  3426 ;; Data sizes:     COMMON   BANK0   BANK1   BANK2   BANK3   BANK4   BANK5   BANK6   BANK7   BANK8   BANK9  BANK10  BANK1
      +1  BANK12  BANK13  BANK14  BANK15  BANK16  BANK17  BANK18  BANK19  BANK20  BANK21  BANK22  BANK23  BANK24  BANK25
  3427 ;;      Params:         0       0       0       0       0       0       0       0       0       0       0       0       
      +0       0       0       0       0       0       0       0       0       0       0       0       0       0       0
  3428 ;;      Locals:         1       0       0       0       0       0       0       0       0       0       0       0       
      +0       0       0       0       0       0       0       0       0       0       0       0       0       0       0
  3429 ;;      Temps:          0       0       0       0       0       0       0       0       0       0       0       0       
      +0       0       0       0       0       0       0       0       0       0       0       0       0       0       0
  3430 ;;      Totals:         1       0       0       0       0       0       0       0       0       0       0       0       
      +0       0       0       0       0       0       0       0       0       0       0       0       0       0       0
  3431 ;;Total ram usage:        1 bytes
  3432 ;; Hardware stack levels used: 1
  3433 ;; Hardware stack levels required when called: 1
  3434 ;; This function calls:
  3435 ;;		_SPI_Exchange8bit
  3436 ;; This function is called by:
  3437 ;;		_nrf_write_reg
  3438 ;;		_nrf_read_reg
  3439 ;;		_nrf_write_buf
  3440 ;;		_nrf_cmd
  3441 ;;		_nrf_write_payload
  3442 ;;		_nrf_read_payload
  3443 ;; This function uses a non-reentrant model
  3444 ;;
  3445                           
  3446     0238                     _spi_xfer:	
  3447                           ;psect for function _spi_xfer
  3448                           
  3449                           
  3450                           ;incstack = 0
  3451                           ; Regs used in _spi_xfer: [wreg+pclath+cstack]
  3452                           ;spi_xfer@b stored from wreg
  3453     0238  00F2               	movwf	spi_xfer@b
  3454     0239                     l1456:
  3455     0239  0872               	movf	spi_xfer@b,w
  3456     023A  3182  2298  3182   	fcall	_SPI_Exchange8bit
  3457     023D                     l161:
  3458     023D  0008               	return
  3459     023E                     __end_of_spi_xfer:
  3460                           
  3461                           	psect	text17
  3462     0298                     __ptext17:	
  3463 ;; *************** function _SPI_Exchange8bit *****************
  3464 ;; Defined at:
  3465 ;;		line 86 in file "SPI.c"
  3466 ;; Parameters:    Size  Location     Type
  3467 ;;  data            1    wreg     unsigned char 
  3468 ;; Auto vars:     Size  Location     Type
  3469 ;;  data            1    0[COMMON] unsigned char 
  3470 ;;  dummy           1    1[COMMON] volatile unsigned char 
  3471 ;; Return value:  Size  Location     Type
  3472 ;;                  1    wreg      unsigned char 
  3473 ;; Registers used:
  3474 ;;		wreg
  3475 ;; Tracked objects:
  3476 ;;		On entry : 0/0
  3477 ;;		On exit  : 0/0
  3478 ;;		Unchanged: 0/0
  3479 ;; Data sizes:     COMMON   BANK0   BANK1   BANK2   BANK3   BANK4   BANK5   BANK6   BANK7   BANK8   BANK9  BANK10  BANK1
      +1  BANK12  BANK13  BANK14  BANK15  BANK16  BANK17  BANK18  BANK19  BANK20  BANK21  BANK22  BANK23  BANK24  BANK25
  3480 ;;      Params:         0       0       0       0       0       0       0       0       0       0       0       0       
      +0       0       0       0       0       0       0       0       0       0       0       0       0       0       0
  3481 ;;      Locals:         2       0       0       0       0       0       0       0       0       0       0       0       
      +0       0       0       0       0       0       0       0       0       0       0       0       0       0       0
  3482 ;;      Temps:          0       0       0       0       0       0       0       0       0       0       0       0       
      +0       0       0       0       0       0       0       0       0       0       0       0       0       0       0
  3483 ;;      Totals:         2       0       0       0       0       0       0       0       0       0       0       0       
      +0       0       0       0       0       0       0       0       0       0       0       0       0       0       0
  3484 ;;Total ram usage:        2 bytes
  3485 ;; Hardware stack levels used: 1
  3486 ;; This function calls:
  3487 ;;		Nothing
  3488 ;; This function is called by:
  3489 ;;		_spi_xfer
  3490 ;;		_SPI_Exchange8bitBuffer
  3491 ;; This function uses a non-reentrant model
  3492 ;;
  3493                           
  3494     0298                     _SPI_Exchange8bit:	
  3495                           ;psect for function _SPI_Exchange8bit
  3496                           
  3497                           
  3498                           ;incstack = 0
  3499                           ; Regs used in _SPI_Exchange8bit: [wreg]
  3500                           ;SPI_Exchange8bit@data stored from wreg
  3501     0298  00F0               	movwf	SPI_Exchange8bit@data
  3502     0299                     l1442:
  3503                           
  3504                           ;SPI.c: 86: uint8_t SPI_Exchange8bit(uint8_t data);SPI.c: 87: {;SPI.c: 88:     volatile 
      +                          uint8_t dummy;;SPI.c: 91:     if (SSP1STATbits.BF)
  3505     0299  0024               	movlb	4	; select bank4
  3506     029A  1C14               	btfss	20,0	;volatile
  3507     029B  2A9D               	goto	u701
  3508     029C  2A9E               	goto	u700
  3509     029D                     u701:
  3510     029D  2AA0               	goto	l1446
  3511     029E                     u700:
  3512     029E                     l1444:
  3513                           
  3514                           ;SPI.c: 92:         dummy = SSPBUF;
  3515     029E  0811               	movf	17,w	;volatile
  3516     029F  00F1               	movwf	SPI_Exchange8bit@dummy	;volatile
  3517     02A0                     l1446:
  3518                           
  3519                           ;SPI.c: 94:     SSP1CON1bits.WCOL = 0;
  3520     02A0  1395               	bcf	21,7	;volatile
  3521                           
  3522                           ;SPI.c: 95:     SSPBUF = data;
  3523     02A1  0870               	movf	SPI_Exchange8bit@data,w
  3524     02A2  0091               	movwf	17	;volatile
  3525     02A3                     l54:	
  3526                           ;SPI.c: 98:         ;
  3527                           
  3528                           
  3529                           ;SPI.c: 97:     while (!SSP1STATbits.BF)
  3530     02A3  1C14               	btfss	20,0	;volatile
  3531     02A4  2AA6               	goto	u711
  3532     02A5  2AA7               	goto	u710
  3533     02A6                     u711:
  3534     02A6  2AA3               	goto	l54
  3535     02A7                     u710:
  3536     02A7                     l1448:
  3537                           
  3538                           ;SPI.c: 100:     return SSPBUF;
  3539     02A7  0811               	movf	17,w	;volatile
  3540     02A8                     l57:
  3541     02A8  0008               	return
  3542     02A9                     __end_of_SPI_Exchange8bit:
  3543                           
  3544                           	psect	text18
  3545     0232                     __ptext18:	
  3546 ;; *************** function _CSN_L *****************
  3547 ;; Defined at:
  3548 ;;		line 79 in file "main.c"
  3549 ;; Parameters:    Size  Location     Type
  3550 ;;		None
  3551 ;; Auto vars:     Size  Location     Type
  3552 ;;		None
  3553 ;; Return value:  Size  Location     Type
  3554 ;;                  1    wreg      void 
  3555 ;; Registers used:
  3556 ;;		None
  3557 ;; Tracked objects:
  3558 ;;		On entry : 0/0
  3559 ;;		On exit  : 0/0
  3560 ;;		Unchanged: 0/0
  3561 ;; Data sizes:     COMMON   BANK0   BANK1   BANK2   BANK3   BANK4   BANK5   BANK6   BANK7   BANK8   BANK9  BANK10  BANK1
      +1  BANK12  BANK13  BANK14  BANK15  BANK16  BANK17  BANK18  BANK19  BANK20  BANK21  BANK22  BANK23  BANK24  BANK25
  3562 ;;      Params:         0       0       0       0       0       0       0       0       0       0       0       0       
      +0       0       0       0       0       0       0       0       0       0       0       0       0       0       0
  3563 ;;      Locals:         0       0       0       0       0       0       0       0       0       0       0       0       
      +0       0       0       0       0       0       0       0       0       0       0       0       0       0       0
  3564 ;;      Temps:          0       0       0       0       0       0       0       0       0       0       0       0       
      +0       0       0       0       0       0       0       0       0       0       0       0       0       0       0
  3565 ;;      Totals:         0       0       0       0       0       0       0       0       0       0       0       0       
      +0       0       0       0       0       0       0       0       0       0       0       0       0       0       0
  3566 ;;Total ram usage:        0 bytes
  3567 ;; Hardware stack levels used: 1
  3568 ;; This function calls:
  3569 ;;		Nothing
  3570 ;; This function is called by:
  3571 ;;		_nrf_write_reg
  3572 ;;		_nrf_read_reg
  3573 ;;		_nrf_write_buf
  3574 ;;		_nrf_cmd
  3575 ;;		_nrf_write_payload
  3576 ;;		_toggleCSN
  3577 ;;		_nrf_read_payload
  3578 ;; This function uses a non-reentrant model
  3579 ;;
  3580                           
  3581     0232                     _CSN_L:	
  3582                           ;psect for function _CSN_L
  3583                           
  3584     0232                     l1454:	
  3585                           ;incstack = 0
  3586                           ; Regs used in _CSN_L: []
  3587                           
  3588     0232  0022               	movlb	2	; select bank2
  3589     0233  108E               	bcf	14,1	;volatile
  3590     0234                     l139:
  3591     0234  0008               	return
  3592     0235                     __end_of_CSN_L:
  3593                           
  3594                           	psect	text19
  3595     03CD                     __ptext19:	
  3596 ;; *************** function _make_cmd5 *****************
  3597 ;; Defined at:
  3598 ;;		line 330 in file "main.c"
  3599 ;; Parameters:    Size  Location     Type
  3600 ;;  out             1    wreg     PTR unsigned char 
  3601 ;;		 -> main@pkt(5), 
  3602 ;;  s               2    0[COMMON] PTR const unsigned char 
  3603 ;;		 -> STR_8(6), STR_7(5), STR_6(5), STR_5(3), 
  3604 ;;		 -> STR_4(4), STR_3(3), 
  3605 ;; Auto vars:     Size  Location     Type
  3606 ;;  out             1    6[COMMON] PTR unsigned char 
  3607 ;;		 -> main@pkt(5), 
  3608 ;;  i               1    5[COMMON] unsigned char 
  3609 ;; Return value:  Size  Location     Type
  3610 ;;                  1    wreg      void 
  3611 ;; Registers used:
  3612 ;;		wreg, fsr0l, fsr0h, fsr1l, fsr1h, status,2, status,0, pclath
  3613 ;; Tracked objects:
  3614 ;;		On entry : 0/0
  3615 ;;		On exit  : 0/0
  3616 ;;		Unchanged: 0/0
  3617 ;; Data sizes:     COMMON   BANK0   BANK1   BANK2   BANK3   BANK4   BANK5   BANK6   BANK7   BANK8   BANK9  BANK10  BANK1
      +1  BANK12  BANK13  BANK14  BANK15  BANK16  BANK17  BANK18  BANK19  BANK20  BANK21  BANK22  BANK23  BANK24  BANK25
  3618 ;;      Params:         2       0       0       0       0       0       0       0       0       0       0       0       
      +0       0       0       0       0       0       0       0       0       0       0       0       0       0       0
  3619 ;;      Locals:         2       0       0       0       0       0       0       0       0       0       0       0       
      +0       0       0       0       0       0       0       0       0       0       0       0       0       0       0
  3620 ;;      Temps:          3       0       0       0       0       0       0       0       0       0       0       0       
      +0       0       0       0       0       0       0       0       0       0       0       0       0       0       0
  3621 ;;      Totals:         7       0       0       0       0       0       0       0       0       0       0       0       
      +0       0       0       0       0       0       0       0       0       0       0       0       0       0       0
  3622 ;;Total ram usage:        7 bytes
  3623 ;; Hardware stack levels used: 1
  3624 ;; This function calls:
  3625 ;;		Nothing
  3626 ;; This function is called by:
  3627 ;;		_main
  3628 ;; This function uses a non-reentrant model
  3629 ;;
  3630                           
  3631     03CD                     _make_cmd5:	
  3632                           ;psect for function _make_cmd5
  3633                           
  3634                           
  3635                           ;incstack = 0
  3636                           ; Regs used in _make_cmd5: [wreg-fsr1h+status,2+status,0+pclath]
  3637                           ;make_cmd5@out stored from wreg
  3638     03CD  00F6               	movwf	make_cmd5@out
  3639     03CE                     l1846:
  3640                           
  3641                           ;main.c: 330: static void make_cmd5(uint8_t out[5], const char *s);main.c: 331: {;main.c
      +                          : 333:     out[0]=' '; out[1]=' '; out[2]=' '; out[3]=' '; out[4]=' ';
  3642     03CE  0876               	movf	make_cmd5@out,w
  3643     03CF  0086               	movwf	6
  3644     03D0  0187               	clrf	7
  3645     03D1  3020               	movlw	32
  3646     03D2  0081               	movwf	1
  3647     03D3  0A76               	incf	make_cmd5@out,w
  3648     03D4  0086               	movwf	6
  3649     03D5  0187               	clrf	7
  3650     03D6  3020               	movlw	32
  3651     03D7  0081               	movwf	1
  3652     03D8                     l1848:
  3653     03D8  0876               	movf	make_cmd5@out,w
  3654     03D9  3E02               	addlw	2
  3655     03DA  0086               	movwf	6
  3656     03DB  0187               	clrf	7
  3657     03DC  3020               	movlw	32
  3658     03DD  0081               	movwf	1
  3659     03DE                     l1850:
  3660     03DE  0876               	movf	make_cmd5@out,w
  3661     03DF  3E03               	addlw	3
  3662     03E0  0086               	movwf	6
  3663     03E1  0187               	clrf	7
  3664     03E2  3020               	movlw	32
  3665     03E3  0081               	movwf	1
  3666     03E4                     l1852:
  3667     03E4  0876               	movf	make_cmd5@out,w
  3668     03E5  3E04               	addlw	4
  3669     03E6  0086               	movwf	6
  3670     03E7  0187               	clrf	7
  3671     03E8  3020               	movlw	32
  3672     03E9  0081               	movwf	1
  3673     03EA                     l1854:
  3674                           
  3675                           ;main.c: 334:     for(uint8_t i=0;i<5 && s[i]; i++) out[i] = (uint8_t)s[i];
  3676     03EA  01F5               	clrf	make_cmd5@i
  3677     03EB  2C03               	goto	l1860
  3678     03EC                     l1856:
  3679     03EC  0875               	movf	make_cmd5@i,w
  3680     03ED  0776               	addwf	make_cmd5@out,w
  3681     03EE  00F2               	movwf	??_make_cmd5
  3682     03EF  0872               	movf	??_make_cmd5,w
  3683     03F0  0086               	movwf	6
  3684     03F1  0187               	clrf	7
  3685     03F2  0871               	movf	make_cmd5@s+1,w
  3686     03F3  00F4               	movwf	??_make_cmd5+2
  3687     03F4  0870               	movf	make_cmd5@s,w
  3688     03F5  00F3               	movwf	??_make_cmd5+1
  3689     03F6  0875               	movf	make_cmd5@i,w
  3690     03F7  0773               	addwf	??_make_cmd5+1,w
  3691     03F8  0084               	movwf	4
  3692     03F9  0874               	movf	??_make_cmd5+2,w
  3693     03FA  1803               	skipnc
  3694     03FB  0A74               	incf	??_make_cmd5+2,w
  3695     03FC  0085               	movwf	5
  3696     03FD  0800               	movf	0,w	;code access
  3697     03FE  0081               	movwf	1
  3698     03FF                     l1858:
  3699     03FF  3001               	movlw	1
  3700     0400  00F2               	movwf	??_make_cmd5
  3701     0401  0872               	movf	??_make_cmd5,w
  3702     0402  07F5               	addwf	make_cmd5@i,f
  3703     0403                     l1860:
  3704     0403  3005               	movlw	5
  3705     0404  0275               	subwf	make_cmd5@i,w
  3706     0405  1803               	skipnc
  3707     0406  2C08               	goto	u1191
  3708     0407  2C09               	goto	u1190
  3709     0408                     u1191:
  3710     0408  2C19               	goto	l232
  3711     0409                     u1190:
  3712     0409                     l1862:
  3713     0409  0871               	movf	make_cmd5@s+1,w
  3714     040A  00F3               	movwf	??_make_cmd5+1
  3715     040B  0870               	movf	make_cmd5@s,w
  3716     040C  00F2               	movwf	??_make_cmd5
  3717     040D  0875               	movf	make_cmd5@i,w
  3718     040E  0772               	addwf	??_make_cmd5,w
  3719     040F  0084               	movwf	4
  3720     0410  0873               	movf	??_make_cmd5+1,w
  3721     0411  1803               	skipnc
  3722     0412  0A73               	incf	??_make_cmd5+1,w
  3723     0413  0085               	movwf	5
  3724     0414  0012               	moviw fsr0++
  3725     0415  1D03               	btfss	3,2
  3726     0416  2C18               	goto	u1201
  3727     0417  2C19               	goto	u1200
  3728     0418                     u1201:
  3729     0418  2BEC               	goto	l1856
  3730     0419                     u1200:
  3731     0419                     l232:
  3732     0419  0008               	return
  3733     041A                     __end_of_make_cmd5:
  3734                           
  3735                           	psect	text20
  3736     050A                     __ptext20:	
  3737 ;; *************** function _initMain *****************
  3738 ;; Defined at:
  3739 ;;		line 269 in file "main.c"
  3740 ;; Parameters:    Size  Location     Type
  3741 ;;		None
  3742 ;; Auto vars:     Size  Location     Type
  3743 ;;		None
  3744 ;; Return value:  Size  Location     Type
  3745 ;;                  1    wreg      void 
  3746 ;; Registers used:
  3747 ;;		wreg, status,2, status,0, pclath, cstack
  3748 ;; Tracked objects:
  3749 ;;		On entry : 0/0
  3750 ;;		On exit  : 0/0
  3751 ;;		Unchanged: 0/0
  3752 ;; Data sizes:     COMMON   BANK0   BANK1   BANK2   BANK3   BANK4   BANK5   BANK6   BANK7   BANK8   BANK9  BANK10  BANK1
      +1  BANK12  BANK13  BANK14  BANK15  BANK16  BANK17  BANK18  BANK19  BANK20  BANK21  BANK22  BANK23  BANK24  BANK25
  3753 ;;      Params:         0       0       0       0       0       0       0       0       0       0       0       0       
      +0       0       0       0       0       0       0       0       0       0       0       0       0       0       0
  3754 ;;      Locals:         0       0       0       0       0       0       0       0       0       0       0       0       
      +0       0       0       0       0       0       0       0       0       0       0       0       0       0       0
  3755 ;;      Temps:          2       0       0       0       0       0       0       0       0       0       0       0       
      +0       0       0       0       0       0       0       0       0       0       0       0       0       0       0
  3756 ;;      Totals:         2       0       0       0       0       0       0       0       0       0       0       0       
      +0       0       0       0       0       0       0       0       0       0       0       0       0       0       0
  3757 ;;Total ram usage:        2 bytes
  3758 ;; Hardware stack levels used: 1
  3759 ;; Hardware stack levels required when called: 1
  3760 ;; This function calls:
  3761 ;;		_CE_L
  3762 ;;		_CSN_H
  3763 ;;		_internal_32
  3764 ;; This function is called by:
  3765 ;;		_main
  3766 ;; This function uses a non-reentrant model
  3767 ;;
  3768                           
  3769     050A                     _initMain:	
  3770                           ;psect for function _initMain
  3771                           
  3772     050A                     l1762:	
  3773                           ;incstack = 0
  3774                           ; Regs used in _initMain: [wreg+status,2+status,0+pclath+cstack]
  3775                           
  3776                           
  3777                           ;main.c: 271:     internal_32();
  3778     050A  3182  225A  3185   	fcall	_internal_32
  3779     050D                     l1764:
  3780                           
  3781                           ;main.c: 272:     _delay((unsigned long)((100)*(32000000/4000.0)));
  3782     050D  3005               	movlw	5
  3783     050E  00F1               	movwf	??_initMain+1
  3784     050F  300F               	movlw	15
  3785     0510  00F0               	movwf	??_initMain
  3786     0511  30F1               	movlw	241
  3787     0512                     u1407:
  3788     0512  0B89               	decfsz	9,f
  3789     0513  2D12               	goto	u1407
  3790     0514  0BF0               	decfsz	??_initMain,f
  3791     0515  2D12               	goto	u1407
  3792     0516  0BF1               	decfsz	??_initMain+1,f
  3793     0517  2D12               	goto	u1407
  3794     0518  0000               	nop
  3795     0519                     l1766:
  3796                           
  3797                           ;main.c: 275:     TRISBbits.TRISB2 = 0; ANSELBbits.ANSB2 = 0;
  3798     0519  0021               	movlb	1	; select bank1
  3799     051A  110D               	bcf	13,2	;volatile
  3800     051B                     l1768:
  3801     051B  0023               	movlb	3	; select bank3
  3802     051C  110D               	bcf	13,2	;volatile
  3803     051D                     l1770:
  3804                           
  3805                           ;main.c: 276:     TRISBbits.TRISB3 = 1; ANSELBbits.ANSB3 = 0;
  3806     051D  0021               	movlb	1	; select bank1
  3807     051E  158D               	bsf	13,3	;volatile
  3808     051F                     l1772:
  3809     051F  0023               	movlb	3	; select bank3
  3810     0520  118D               	bcf	13,3	;volatile
  3811     0521                     l1774:
  3812                           
  3813                           ;main.c: 279:     ANSELCbits.ANSC3 = 0; TRISCbits.TRISC3 = 0;
  3814     0521  118E               	bcf	14,3	;volatile
  3815     0522                     l1776:
  3816     0522  0021               	movlb	1	; select bank1
  3817     0523  118E               	bcf	14,3	;volatile
  3818     0524                     l1778:
  3819                           
  3820                           ;main.c: 280:     ANSELCbits.ANSC4 = 0; TRISCbits.TRISC4 = 1;
  3821     0524  0023               	movlb	3	; select bank3
  3822     0525  120E               	bcf	14,4	;volatile
  3823     0526                     l1780:
  3824     0526  0021               	movlb	1	; select bank1
  3825     0527  160E               	bsf	14,4	;volatile
  3826     0528                     l1782:
  3827                           
  3828                           ;main.c: 281:     ANSELCbits.ANSC5 = 0; TRISCbits.TRISC5 = 0;
  3829     0528  0023               	movlb	3	; select bank3
  3830     0529  128E               	bcf	14,5	;volatile
  3831     052A                     l1784:
  3832     052A  0021               	movlb	1	; select bank1
  3833     052B  128E               	bcf	14,5	;volatile
  3834     052C                     l1786:
  3835                           
  3836                           ;main.c: 284:     TRISCbits.TRISC0 = 0;
  3837     052C  100E               	bcf	14,0	;volatile
  3838     052D                     l1788:
  3839                           
  3840                           ;main.c: 285:     TRISCbits.TRISC1 = 0;
  3841     052D  108E               	bcf	14,1	;volatile
  3842     052E                     l1790:
  3843                           
  3844                           ;main.c: 286:     CE_L(); CSN_H();
  3845     052E  3182  222C  3185   	fcall	_CE_L
  3846     0531                     l1792:
  3847     0531  3182  222F  3185   	fcall	_CSN_H
  3848     0534                     l1794:
  3849                           
  3850                           ;main.c: 289:     TRISBbits.TRISB0 = 1;
  3851     0534  0021               	movlb	1	; select bank1
  3852     0535  140D               	bsf	13,0	;volatile
  3853     0536                     l1796:
  3854                           
  3855                           ;main.c: 290:     ANSELBbits.ANSB0 = 0;
  3856     0536  0023               	movlb	3	; select bank3
  3857     0537  100D               	bcf	13,0	;volatile
  3858     0538                     l1798:
  3859                           
  3860                           ;main.c: 292:     OPTION_REGbits.nWPUEN = 0;
  3861     0538  0021               	movlb	1	; select bank1
  3862     0539  1395               	bcf	21,7	;volatile
  3863     053A                     l1800:
  3864                           
  3865                           ;main.c: 293:     WPUBbits.WPUB0 = 1;
  3866     053A  0024               	movlb	4	; select bank4
  3867     053B  140D               	bsf	13,0	;volatile
  3868     053C                     l1802:
  3869                           
  3870                           ;main.c: 296:     PPSLOCK = 0x55; PPSLOCK = 0xAA; PPSLOCKbits.PPSLOCKED = 0;
  3871     053C  3055               	movlw	85
  3872     053D  003C               	movlb	28	; select bank28
  3873     053E  008F               	movwf	15	;volsfr
  3874     053F                     l1804:
  3875     053F  30AA               	movlw	170
  3876     0540  008F               	movwf	15	;volsfr
  3877     0541                     l1806:
  3878     0541  100F               	bcf	15,0	;volsfr
  3879     0542                     l1808:
  3880                           
  3881                           ;main.c: 298:     RB2PPSbits.RB2PPS = 0x14;
  3882     0542  003D               	movlb	29	; select bank29
  3883     0543  081A               	movf	26,w	;volatile
  3884     0544  39E0               	andlw	-32
  3885     0545  3814               	iorlw	20
  3886     0546  009A               	movwf	26	;volatile
  3887     0547                     l1810:
  3888                           
  3889                           ;main.c: 299:     RXPPSbits.RXPPS = 0x0B;
  3890     0547  003C               	movlb	28	; select bank28
  3891     0548  0824               	movf	36,w	;volatile
  3892     0549  39E0               	andlw	-32
  3893     054A  380B               	iorlw	11
  3894     054B  00A4               	movwf	36	;volatile
  3895     054C                     l1812:
  3896                           
  3897                           ;main.c: 301:     SSPDATPPSbits.SSPDATPPS = 0x14;
  3898     054C  0821               	movf	33,w	;volatile
  3899     054D  39E0               	andlw	-32
  3900     054E  3814               	iorlw	20
  3901     054F  00A1               	movwf	33	;volatile
  3902     0550                     l1814:
  3903                           
  3904                           ;main.c: 302:     RC3PPSbits.RC3PPS = 0x10;
  3905     0550  003D               	movlb	29	; select bank29
  3906     0551  0823               	movf	35,w	;volatile
  3907     0552  39E0               	andlw	-32
  3908     0553  3810               	iorlw	16
  3909     0554  00A3               	movwf	35	;volatile
  3910     0555                     l1816:
  3911                           
  3912                           ;main.c: 303:     RC5PPSbits.RC5PPS = 0x11;
  3913     0555  0825               	movf	37,w	;volatile
  3914     0556  39E0               	andlw	-32
  3915     0557  3811               	iorlw	17
  3916     0558  00A5               	movwf	37	;volatile
  3917     0559                     l1818:
  3918                           
  3919                           ;main.c: 305:     PPSLOCK = 0x55; PPSLOCK = 0xAA; PPSLOCKbits.PPSLOCKED = 1;
  3920     0559  3055               	movlw	85
  3921     055A  003C               	movlb	28	; select bank28
  3922     055B  008F               	movwf	15	;volsfr
  3923     055C                     l1820:
  3924     055C  30AA               	movlw	170
  3925     055D  008F               	movwf	15	;volsfr
  3926     055E                     l1822:
  3927     055E  140F               	bsf	15,0	;volsfr
  3928     055F                     l216:
  3929     055F  0008               	return
  3930     0560                     __end_of_initMain:
  3931                           
  3932                           	psect	text21
  3933     025A                     __ptext21:	
  3934 ;; *************** function _internal_32 *****************
  3935 ;; Defined at:
  3936 ;;		line 36 in file "PIC16F1718_Internal.c"
  3937 ;; Parameters:    Size  Location     Type
  3938 ;;		None
  3939 ;; Auto vars:     Size  Location     Type
  3940 ;;		None
  3941 ;; Return value:  Size  Location     Type
  3942 ;;                  1    wreg      void 
  3943 ;; Registers used:
  3944 ;;		None
  3945 ;; Tracked objects:
  3946 ;;		On entry : 0/0
  3947 ;;		On exit  : 0/0
  3948 ;;		Unchanged: 0/0
  3949 ;; Data sizes:     COMMON   BANK0   BANK1   BANK2   BANK3   BANK4   BANK5   BANK6   BANK7   BANK8   BANK9  BANK10  BANK1
      +1  BANK12  BANK13  BANK14  BANK15  BANK16  BANK17  BANK18  BANK19  BANK20  BANK21  BANK22  BANK23  BANK24  BANK25
  3950 ;;      Params:         0       0       0       0       0       0       0       0       0       0       0       0       
      +0       0       0       0       0       0       0       0       0       0       0       0       0       0       0
  3951 ;;      Locals:         0       0       0       0       0       0       0       0       0       0       0       0       
      +0       0       0       0       0       0       0       0       0       0       0       0       0       0       0
  3952 ;;      Temps:          0       0       0       0       0       0       0       0       0       0       0       0       
      +0       0       0       0       0       0       0       0       0       0       0       0       0       0       0
  3953 ;;      Totals:         0       0       0       0       0       0       0       0       0       0       0       0       
      +0       0       0       0       0       0       0       0       0       0       0       0       0       0       0
  3954 ;;Total ram usage:        0 bytes
  3955 ;; Hardware stack levels used: 1
  3956 ;; This function calls:
  3957 ;;		Nothing
  3958 ;; This function is called by:
  3959 ;;		_initMain
  3960 ;; This function uses a non-reentrant model
  3961 ;;
  3962                           
  3963     025A                     _internal_32:	
  3964                           ;psect for function _internal_32
  3965                           
  3966     025A                     l1592:	
  3967                           ;incstack = 0
  3968                           ; Regs used in _internal_32: []
  3969                           
  3970                           
  3971                           ;PIC16F1718_Internal.c: 38:     SCS0 = 0;
  3972     025A  0021               	movlb	1	; select bank1
  3973     025B  1019               	bcf	25,0	;volatile
  3974                           
  3975                           ;PIC16F1718_Internal.c: 39:     SCS1 = 0;
  3976     025C  1099               	bcf	25,1	;volatile
  3977                           
  3978                           ;PIC16F1718_Internal.c: 42:     IRCF0 = 0;
  3979     025D  1199               	bcf	25,3	;volatile
  3980                           
  3981                           ;PIC16F1718_Internal.c: 43:     IRCF1 = 1;
  3982     025E  1619               	bsf	25,4	;volatile
  3983                           
  3984                           ;PIC16F1718_Internal.c: 44:     IRCF2 = 1;
  3985     025F  1699               	bsf	25,5	;volatile
  3986                           
  3987                           ;PIC16F1718_Internal.c: 45:     IRCF3 = 1;
  3988     0260  1719               	bsf	25,6	;volatile
  3989                           
  3990                           ;PIC16F1718_Internal.c: 48:     SPLLEN = 1;
  3991     0261  1799               	bsf	25,7	;volatile
  3992     0262                     l17:
  3993     0262  0008               	return
  3994     0263                     __end_of_internal_32:
  3995                           
  3996                           	psect	text22
  3997     022F                     __ptext22:	
  3998 ;; *************** function _CSN_H *****************
  3999 ;; Defined at:
  4000 ;;		line 78 in file "main.c"
  4001 ;; Parameters:    Size  Location     Type
  4002 ;;		None
  4003 ;; Auto vars:     Size  Location     Type
  4004 ;;		None
  4005 ;; Return value:  Size  Location     Type
  4006 ;;                  1    wreg      void 
  4007 ;; Registers used:
  4008 ;;		None
  4009 ;; Tracked objects:
  4010 ;;		On entry : 0/0
  4011 ;;		On exit  : 0/0
  4012 ;;		Unchanged: 0/0
  4013 ;; Data sizes:     COMMON   BANK0   BANK1   BANK2   BANK3   BANK4   BANK5   BANK6   BANK7   BANK8   BANK9  BANK10  BANK1
      +1  BANK12  BANK13  BANK14  BANK15  BANK16  BANK17  BANK18  BANK19  BANK20  BANK21  BANK22  BANK23  BANK24  BANK25
  4014 ;;      Params:         0       0       0       0       0       0       0       0       0       0       0       0       
      +0       0       0       0       0       0       0       0       0       0       0       0       0       0       0
  4015 ;;      Locals:         0       0       0       0       0       0       0       0       0       0       0       0       
      +0       0       0       0       0       0       0       0       0       0       0       0       0       0       0
  4016 ;;      Temps:          0       0       0       0       0       0       0       0       0       0       0       0       
      +0       0       0       0       0       0       0       0       0       0       0       0       0       0       0
  4017 ;;      Totals:         0       0       0       0       0       0       0       0       0       0       0       0       
      +0       0       0       0       0       0       0       0       0       0       0       0       0       0       0
  4018 ;;Total ram usage:        0 bytes
  4019 ;; Hardware stack levels used: 1
  4020 ;; This function calls:
  4021 ;;		Nothing
  4022 ;; This function is called by:
  4023 ;;		_nrf_write_reg
  4024 ;;		_nrf_read_reg
  4025 ;;		_nrf_write_buf
  4026 ;;		_nrf_cmd
  4027 ;;		_nrf_write_payload
  4028 ;;		_initMain
  4029 ;;		_toggleCSN
  4030 ;;		_nrf_read_payload
  4031 ;; This function uses a non-reentrant model
  4032 ;;
  4033                           
  4034     022F                     _CSN_H:	
  4035                           ;psect for function _CSN_H
  4036                           
  4037     022F                     l1452:	
  4038                           ;incstack = 0
  4039                           ; Regs used in _CSN_H: []
  4040                           
  4041     022F  0022               	movlb	2	; select bank2
  4042     0230  148E               	bsf	14,1	;volatile
  4043     0231                     l136:
  4044     0231  0008               	return
  4045     0232                     __end_of_CSN_H:
  4046                           
  4047                           	psect	text23
  4048     022C                     __ptext23:	
  4049 ;; *************** function _CE_L *****************
  4050 ;; Defined at:
  4051 ;;		line 77 in file "main.c"
  4052 ;; Parameters:    Size  Location     Type
  4053 ;;		None
  4054 ;; Auto vars:     Size  Location     Type
  4055 ;;		None
  4056 ;; Return value:  Size  Location     Type
  4057 ;;                  1    wreg      void 
  4058 ;; Registers used:
  4059 ;;		None
  4060 ;; Tracked objects:
  4061 ;;		On entry : 0/0
  4062 ;;		On exit  : 0/0
  4063 ;;		Unchanged: 0/0
  4064 ;; Data sizes:     COMMON   BANK0   BANK1   BANK2   BANK3   BANK4   BANK5   BANK6   BANK7   BANK8   BANK9  BANK10  BANK1
      +1  BANK12  BANK13  BANK14  BANK15  BANK16  BANK17  BANK18  BANK19  BANK20  BANK21  BANK22  BANK23  BANK24  BANK25
  4065 ;;      Params:         0       0       0       0       0       0       0       0       0       0       0       0       
      +0       0       0       0       0       0       0       0       0       0       0       0       0       0       0
  4066 ;;      Locals:         0       0       0       0       0       0       0       0       0       0       0       0       
      +0       0       0       0       0       0       0       0       0       0       0       0       0       0       0
  4067 ;;      Temps:          0       0       0       0       0       0       0       0       0       0       0       0       
      +0       0       0       0       0       0       0       0       0       0       0       0       0       0       0
  4068 ;;      Totals:         0       0       0       0       0       0       0       0       0       0       0       0       
      +0       0       0       0       0       0       0       0       0       0       0       0       0       0       0
  4069 ;;Total ram usage:        0 bytes
  4070 ;; Hardware stack levels used: 1
  4071 ;; This function calls:
  4072 ;;		Nothing
  4073 ;; This function is called by:
  4074 ;;		_radio_common_setup
  4075 ;;		_radio_init_tx
  4076 ;;		_tx_send_packet
  4077 ;;		_initMain
  4078 ;; This function uses a non-reentrant model
  4079 ;;
  4080                           
  4081     022C                     _CE_L:	
  4082                           ;psect for function _CE_L
  4083                           
  4084     022C                     l1472:	
  4085                           ;incstack = 0
  4086                           ; Regs used in _CE_L: []
  4087                           
  4088     022C  0022               	movlb	2	; select bank2
  4089     022D  100E               	bcf	14,0	;volatile
  4090     022E                     l133:
  4091     022E  0008               	return
  4092     022F                     __end_of_CE_L:
  4093                           
  4094                           	psect	text24
  4095     037C                     __ptext24:	
  4096 ;; *************** function _button_pressed_event *****************
  4097 ;; Defined at:
  4098 ;;		line 311 in file "main.c"
  4099 ;; Parameters:    Size  Location     Type
  4100 ;;		None
  4101 ;; Auto vars:     Size  Location     Type
  4102 ;;  now             1    1[COMMON] unsigned char 
  4103 ;; Return value:  Size  Location     Type
  4104 ;;                  1    wreg      unsigned char 
  4105 ;; Registers used:
  4106 ;;		wreg, status,2, status,0
  4107 ;; Tracked objects:
  4108 ;;		On entry : 0/0
  4109 ;;		On exit  : 0/0
  4110 ;;		Unchanged: 0/0
  4111 ;; Data sizes:     COMMON   BANK0   BANK1   BANK2   BANK3   BANK4   BANK5   BANK6   BANK7   BANK8   BANK9  BANK10  BANK1
      +1  BANK12  BANK13  BANK14  BANK15  BANK16  BANK17  BANK18  BANK19  BANK20  BANK21  BANK22  BANK23  BANK24  BANK25
  4112 ;;      Params:         0       0       0       0       0       0       0       0       0       0       0       0       
      +0       0       0       0       0       0       0       0       0       0       0       0       0       0       0
  4113 ;;      Locals:         1       0       0       0       0       0       0       0       0       0       0       0       
      +0       0       0       0       0       0       0       0       0       0       0       0       0       0       0
  4114 ;;      Temps:          1       0       0       0       0       0       0       0       0       0       0       0       
      +0       0       0       0       0       0       0       0       0       0       0       0       0       0       0
  4115 ;;      Totals:         2       0       0       0       0       0       0       0       0       0       0       0       
      +0       0       0       0       0       0       0       0       0       0       0       0       0       0       0
  4116 ;;Total ram usage:        2 bytes
  4117 ;; Hardware stack levels used: 1
  4118 ;; This function calls:
  4119 ;;		Nothing
  4120 ;; This function is called by:
  4121 ;;		_main
  4122 ;; This function uses a non-reentrant model
  4123 ;;
  4124                           
  4125     037C                     _button_pressed_event:	
  4126                           ;psect for function _button_pressed_event
  4127                           
  4128     037C                     l1824:	
  4129                           ;incstack = 0
  4130                           ; Regs used in _button_pressed_event: [wreg+status,2+status,0]
  4131                           
  4132                           
  4133                           ;main.c: 313:     static uint8_t last = 1;;main.c: 314:     uint8_t now = PORTBbits.RB0;
  4134     037C  3000               	movlw	0
  4135     037D  0020               	movlb	0	; select bank0
  4136     037E  180D               	btfsc	13,0	;volatile
  4137     037F  3001               	movlw	1
  4138     0380  00F1               	movwf	button_pressed_event@now
  4139     0381                     l1826:
  4140                           
  4141                           ;main.c: 316:     if(now != last)
  4142     0381  0871               	movf	button_pressed_event@now,w
  4143     0382  0660               	xorwf	button_pressed_event@last,w
  4144     0383  1903               	skipnz
  4145     0384  2B86               	goto	u1161
  4146     0385  2B87               	goto	u1160
  4147     0386                     u1161:
  4148     0386  2BA2               	goto	l1842
  4149     0387                     u1160:
  4150     0387                     l1828:
  4151                           
  4152                           ;main.c: 317:     {;main.c: 318:         _delay((unsigned long)((20)*(32000000/4000.0)))
      +                          ;
  4153     0387  30D0               	movlw	208
  4154     0388  00F0               	movwf	??_button_pressed_event
  4155     0389  30CA               	movlw	202
  4156     038A                     u1417:
  4157     038A  0B89               	decfsz	9,f
  4158     038B  2B8A               	goto	u1417
  4159     038C  0BF0               	decfsz	??_button_pressed_event,f
  4160     038D  2B8A               	goto	u1417
  4161     038E                     l1830:
  4162                           
  4163                           ;main.c: 319:         now = PORTBbits.RB0;
  4164     038E  3000               	movlw	0
  4165     038F  0020               	movlb	0	; select bank0
  4166     0390  180D               	btfsc	13,0	;volatile
  4167     0391  3001               	movlw	1
  4168     0392  00F1               	movwf	button_pressed_event@now
  4169     0393                     l1832:
  4170                           
  4171                           ;main.c: 320:         if(now != last)
  4172     0393  0871               	movf	button_pressed_event@now,w
  4173     0394  0660               	xorwf	button_pressed_event@last,w
  4174     0395  1903               	skipnz
  4175     0396  2B98               	goto	u1171
  4176     0397  2B99               	goto	u1170
  4177     0398                     u1171:
  4178     0398  2BA2               	goto	l1842
  4179     0399                     u1170:
  4180     0399                     l1834:
  4181                           
  4182                           ;main.c: 321:         {;main.c: 322:             last = now;
  4183     0399  0871               	movf	button_pressed_event@now,w
  4184     039A  00E0               	movwf	button_pressed_event@last
  4185     039B                     l1836:
  4186                           
  4187                           ;main.c: 323:             if(now == 0) return 1;
  4188     039B  0871               	movf	button_pressed_event@now,w
  4189     039C  1D03               	btfss	3,2
  4190     039D  2B9F               	goto	u1181
  4191     039E  2BA0               	goto	u1180
  4192     039F                     u1181:
  4193     039F  2BA2               	goto	l1842
  4194     03A0                     u1180:
  4195     03A0                     l1838:
  4196     03A0  3001               	movlw	1
  4197     03A1  2BA3               	goto	l224
  4198     03A2                     l1842:
  4199                           
  4200                           ;main.c: 326:     return 0;
  4201     03A2  3000               	movlw	0
  4202     03A3                     l224:
  4203     03A3  0008               	return
  4204     03A4                     __end_of_button_pressed_event:
  4205                           
  4206                           	psect	text25
  4207     0244                     __ptext25:	
  4208 ;; *************** function _SPI_Initialize *****************
  4209 ;; Defined at:
  4210 ;;		line 52 in file "SPI.c"
  4211 ;; Parameters:    Size  Location     Type
  4212 ;;		None
  4213 ;; Auto vars:     Size  Location     Type
  4214 ;;		None
  4215 ;; Return value:  Size  Location     Type
  4216 ;;                  1    wreg      void 
  4217 ;; Registers used:
  4218 ;;		wreg, status,2
  4219 ;; Tracked objects:
  4220 ;;		On entry : 0/0
  4221 ;;		On exit  : 0/0
  4222 ;;		Unchanged: 0/0
  4223 ;; Data sizes:     COMMON   BANK0   BANK1   BANK2   BANK3   BANK4   BANK5   BANK6   BANK7   BANK8   BANK9  BANK10  BANK1
      +1  BANK12  BANK13  BANK14  BANK15  BANK16  BANK17  BANK18  BANK19  BANK20  BANK21  BANK22  BANK23  BANK24  BANK25
  4224 ;;      Params:         0       0       0       0       0       0       0       0       0       0       0       0       
      +0       0       0       0       0       0       0       0       0       0       0       0       0       0       0
  4225 ;;      Locals:         0       0       0       0       0       0       0       0       0       0       0       0       
      +0       0       0       0       0       0       0       0       0       0       0       0       0       0       0
  4226 ;;      Temps:          0       0       0       0       0       0       0       0       0       0       0       0       
      +0       0       0       0       0       0       0       0       0       0       0       0       0       0       0
  4227 ;;      Totals:         0       0       0       0       0       0       0       0       0       0       0       0       
      +0       0       0       0       0       0       0       0       0       0       0       0       0       0       0
  4228 ;;Total ram usage:        0 bytes
  4229 ;; Hardware stack levels used: 1
  4230 ;; This function calls:
  4231 ;;		Nothing
  4232 ;; This function is called by:
  4233 ;;		_main
  4234 ;; This function uses a non-reentrant model
  4235 ;;
  4236                           
  4237     0244                     _SPI_Initialize:	
  4238                           ;psect for function _SPI_Initialize
  4239                           
  4240     0244                     l1696:	
  4241                           ;incstack = 0
  4242                           ; Regs used in _SPI_Initialize: [wreg+status,2]
  4243                           
  4244                           
  4245                           ;SPI.c: 59:     SSP1STAT = 0x40;
  4246     0244  3040               	movlw	64
  4247     0245  0024               	movlb	4	; select bank4
  4248     0246  0094               	movwf	20	;volatile
  4249                           
  4250                           ;SPI.c: 63:     SSP1CON1 = 0x22;
  4251     0247  3022               	movlw	34
  4252     0248  0095               	movwf	21	;volatile
  4253     0249                     l1698:
  4254                           
  4255                           ;SPI.c: 66:     SSP1ADD = 0x00;
  4256     0249  0192               	clrf	18	;volatile
  4257     024A                     l50:
  4258     024A  0008               	return
  4259     024B                     __end_of_SPI_Initialize:
  4260                           
  4261                           	psect	text26
  4262     0358                     __ptext26:	
  4263 ;; *************** function _EUSART_Write_Integer *****************
  4264 ;; Defined at:
  4265 ;;		line 185 in file "EUSART.c"
  4266 ;; Parameters:    Size  Location     Type
  4267 ;;  value_to_sen    2   11[COMMON] int 
  4268 ;; Auto vars:     Size  Location     Type
  4269 ;;  buffer         20    7[BANK0 ] unsigned char [20]
  4270 ;;  temp_ptr        1   28[BANK0 ] PTR unsigned char 
  4271 ;;		 -> EUSART_Write_Integer@buffer(20), 
  4272 ;;  ptr             1   27[BANK0 ] PTR unsigned char 
  4273 ;;		 -> EUSART_Write_Integer@buffer(20), 
  4274 ;; Return value:  Size  Location     Type
  4275 ;;                  1    wreg      void 
  4276 ;; Registers used:
  4277 ;;		wreg, fsr0l, fsr0h, fsr1l, fsr1h, status,2, status,0, pclath, cstack
  4278 ;; Tracked objects:
  4279 ;;		On entry : 0/0
  4280 ;;		On exit  : 0/0
  4281 ;;		Unchanged: 0/0
  4282 ;; Data sizes:     COMMON   BANK0   BANK1   BANK2   BANK3   BANK4   BANK5   BANK6   BANK7   BANK8   BANK9  BANK10  BANK1
      +1  BANK12  BANK13  BANK14  BANK15  BANK16  BANK17  BANK18  BANK19  BANK20  BANK21  BANK22  BANK23  BANK24  BANK25
  4283 ;;      Params:         2       0       0       0       0       0       0       0       0       0       0       0       
      +0       0       0       0       0       0       0       0       0       0       0       0       0       0       0
  4284 ;;      Locals:         0      22       0       0       0       0       0       0       0       0       0       0       
      +0       0       0       0       0       0       0       0       0       0       0       0       0       0       0
  4285 ;;      Temps:          1       0       0       0       0       0       0       0       0       0       0       0       
      +0       0       0       0       0       0       0       0       0       0       0       0       0       0       0
  4286 ;;      Totals:         3      22       0       0       0       0       0       0       0       0       0       0       
      +0       0       0       0       0       0       0       0       0       0       0       0       0       0       0
  4287 ;;Total ram usage:       25 bytes
  4288 ;; Hardware stack levels used: 1
  4289 ;; Hardware stack levels required when called: 2
  4290 ;; This function calls:
  4291 ;;		_EUSART_Write
  4292 ;;		_itoa
  4293 ;; This function is called by:
  4294 ;;		_main
  4295 ;; This function uses a non-reentrant model
  4296 ;;
  4297                           
  4298     0358                     _EUSART_Write_Integer:	
  4299                           ;psect for function _EUSART_Write_Integer
  4300                           
  4301     0358                     l1882:	
  4302                           ;incstack = 0
  4303                           ; Regs used in _EUSART_Write_Integer: [wreg-fsr1h+status,2+status,0+pclath+cstack]
  4304                           
  4305                           
  4306                           ;EUSART.c: 185: void EUSART_Write_Integer(int value_to_send);EUSART.c: 186: {;EUSART.c: 
      +                          187:     char buffer[20];;EUSART.c: 188:     char *ptr = buffer;
  4307     0358  3027               	movlw	(low (EUSART_Write_Integer@buffer| 0))& (0+255)
  4308     0359  0020               	movlb	0	; select bank0
  4309     035A  00BB               	movwf	EUSART_Write_Integer@ptr
  4310     035B                     l1884:
  4311                           
  4312                           ;EUSART.c: 190:     itoa(&ptr, value_to_send);
  4313     035B  087C               	movf	EUSART_Write_Integer@value_to_send+1,w
  4314     035C  00FA               	movwf	itoa@d+1
  4315     035D  087B               	movf	EUSART_Write_Integer@value_to_send,w
  4316     035E  00F9               	movwf	itoa@d
  4317     035F  303B               	movlw	(low (EUSART_Write_Integer@ptr| 0))& (0+255)
  4318     0360  3186  26AC  3183   	fcall	_itoa
  4319     0363                     l1886:
  4320                           
  4321                           ;EUSART.c: 193:     char *temp_ptr = buffer;
  4322     0363  3027               	movlw	(low (EUSART_Write_Integer@buffer| 0))& (0+255)
  4323     0364  0020               	movlb	0	; select bank0
  4324     0365  00BC               	movwf	EUSART_Write_Integer@temp_ptr
  4325                           
  4326                           ;EUSART.c: 194:     while (*temp_ptr != '\0') {
  4327     0366  2B73               	goto	l1892
  4328     0367                     l1888:
  4329                           
  4330                           ;EUSART.c: 195:         EUSART_Write(*temp_ptr++);
  4331     0367  083C               	movf	EUSART_Write_Integer@temp_ptr,w
  4332     0368  0086               	movwf	6
  4333     0369  0187               	clrf	7
  4334     036A  0801               	movf	1,w
  4335     036B  3182  2275  3183   	fcall	_EUSART_Write
  4336     036E                     l1890:
  4337     036E  3001               	movlw	1
  4338     036F  00FD               	movwf	??_EUSART_Write_Integer
  4339     0370  087D               	movf	??_EUSART_Write_Integer,w
  4340     0371  0020               	movlb	0	; select bank0
  4341     0372  07BC               	addwf	EUSART_Write_Integer@temp_ptr,f
  4342     0373                     l1892:
  4343                           
  4344                           ;EUSART.c: 194:     while (*temp_ptr != '\0') {
  4345     0373  083C               	movf	EUSART_Write_Integer@temp_ptr,w
  4346     0374  0086               	movwf	6
  4347     0375  0187               	clrf	7
  4348     0376  0801               	movf	1,w
  4349     0377  1D03               	btfss	3,2
  4350     0378  2B7A               	goto	u1231
  4351     0379  2B7B               	goto	u1230
  4352     037A                     u1231:
  4353     037A  2B67               	goto	l1888
  4354     037B                     u1230:
  4355     037B                     l316:
  4356     037B  0008               	return
  4357     037C                     __end_of_EUSART_Write_Integer:
  4358                           
  4359                           	psect	text27
  4360     06AC                     __ptext27:	
  4361 ;; *************** function _itoa *****************
  4362 ;; Defined at:
  4363 ;;		line 149 in file "EUSART.c"
  4364 ;; Parameters:    Size  Location     Type
  4365 ;;  buf             1    wreg     PTR PTR unsigned char 
  4366 ;;		 -> EUSART_Write_Integer@ptr(1), 
  4367 ;;  d               2    9[COMMON] int 
  4368 ;; Auto vars:     Size  Location     Type
  4369 ;;  buf             1    4[BANK0 ] PTR PTR unsigned char 
  4370 ;;		 -> EUSART_Write_Integer@ptr(1), 
  4371 ;;  num             2    0[BANK0 ] int 
  4372 ;;  div             2    5[BANK0 ] int 
  4373 ;;  temp            2    2[BANK0 ] int 
  4374 ;; Return value:  Size  Location     Type
  4375 ;;                  1    wreg      void 
  4376 ;; Registers used:
  4377 ;;		wreg, fsr0l, fsr0h, fsr1l, fsr1h, status,2, status,0, pclath, cstack
  4378 ;; Tracked objects:
  4379 ;;		On entry : 0/0
  4380 ;;		On exit  : 0/0
  4381 ;;		Unchanged: 0/0
  4382 ;; Data sizes:     COMMON   BANK0   BANK1   BANK2   BANK3   BANK4   BANK5   BANK6   BANK7   BANK8   BANK9  BANK10  BANK1
      +1  BANK12  BANK13  BANK14  BANK15  BANK16  BANK17  BANK18  BANK19  BANK20  BANK21  BANK22  BANK23  BANK24  BANK25
  4383 ;;      Params:         2       0       0       0       0       0       0       0       0       0       0       0       
      +0       0       0       0       0       0       0       0       0       0       0       0       0       0       0
  4384 ;;      Locals:         0       7       0       0       0       0       0       0       0       0       0       0       
      +0       0       0       0       0       0       0       0       0       0       0       0       0       0       0
  4385 ;;      Temps:          0       0       0       0       0       0       0       0       0       0       0       0       
      +0       0       0       0       0       0       0       0       0       0       0       0       0       0       0
  4386 ;;      Totals:         2       7       0       0       0       0       0       0       0       0       0       0       
      +0       0       0       0       0       0       0       0       0       0       0       0       0       0       0
  4387 ;;Total ram usage:        9 bytes
  4388 ;; Hardware stack levels used: 1
  4389 ;; Hardware stack levels required when called: 1
  4390 ;; This function calls:
  4391 ;;		___awdiv
  4392 ;;		___awmod
  4393 ;;		___wmul
  4394 ;; This function is called by:
  4395 ;;		_EUSART_Write_Integer
  4396 ;; This function uses a non-reentrant model
  4397 ;;
  4398                           
  4399     06AC                     _itoa:	
  4400                           ;psect for function _itoa
  4401                           
  4402                           
  4403                           ;incstack = 0
  4404                           ; Regs used in _itoa: [wreg-fsr1h+status,2+status,0+pclath+cstack]
  4405                           ;itoa@buf stored from wreg
  4406     06AC  0020               	movlb	0	; select bank0
  4407     06AD  00A4               	movwf	itoa@buf
  4408     06AE                     l1638:
  4409                           
  4410                           ;EUSART.c: 149: void itoa(char **buf, int d);EUSART.c: 150: {;EUSART.c: 151:     int div
      +                           = 1;
  4411     06AE  3001               	movlw	1
  4412     06AF  00A5               	movwf	itoa@div
  4413     06B0  3000               	movlw	0
  4414     06B1  00A6               	movwf	itoa@div+1
  4415                           
  4416                           ;EUSART.c: 152:     if (d < 0)
  4417     06B2  1FFA               	btfss	itoa@d+1,7
  4418     06B3  2EB5               	goto	u991
  4419     06B4  2EB6               	goto	u990
  4420     06B5                     u991:
  4421     06B5  2EC4               	goto	l1644
  4422     06B6                     u990:
  4423     06B6                     l1640:
  4424                           
  4425                           ;EUSART.c: 153:     {;EUSART.c: 154:         *((*buf)++) = '-';
  4426     06B6  0824               	movf	itoa@buf,w
  4427     06B7  0086               	movwf	6
  4428     06B8  0187               	clrf	7
  4429     06B9  3F40               	moviw [0]fsr1
  4430     06BA  0084               	movwf	4
  4431     06BB  0185               	clrf	5
  4432     06BC  0A81               	incf	1,f
  4433     06BD  302D               	movlw	45
  4434     06BE  0080               	movwf	0
  4435     06BF                     l1642:
  4436                           
  4437                           ;EUSART.c: 155:         d = -d;
  4438     06BF  09F9               	comf	itoa@d,f
  4439     06C0  09FA               	comf	itoa@d+1,f
  4440     06C1  0AF9               	incf	itoa@d,f
  4441     06C2  1903               	skipnz
  4442     06C3  0AFA               	incf	itoa@d+1,f
  4443     06C4                     l1644:
  4444                           
  4445                           ;EUSART.c: 158:     int temp = d;
  4446     06C4  087A               	movf	itoa@d+1,w
  4447     06C5  00A3               	movwf	itoa@temp+1
  4448     06C6  0879               	movf	itoa@d,w
  4449     06C7  00A2               	movwf	itoa@temp
  4450                           
  4451                           ;EUSART.c: 159:     while (temp / 10)
  4452     06C8  2EEA               	goto	l304
  4453     06C9                     l1646:
  4454                           
  4455                           ;EUSART.c: 160:     {;EUSART.c: 161:         temp /= 10;
  4456     06C9  300A               	movlw	10
  4457     06CA  00F0               	movwf	___awdiv@divisor
  4458     06CB  3000               	movlw	0
  4459     06CC  00F1               	movwf	___awdiv@divisor+1
  4460     06CD  0020               	movlb	0	; select bank0
  4461     06CE  0823               	movf	itoa@temp+1,w
  4462     06CF  00F3               	movwf	___awdiv@dividend+1
  4463     06D0  0822               	movf	itoa@temp,w
  4464     06D1  00F2               	movwf	___awdiv@dividend
  4465     06D2  3185  25BD  3186   	fcall	___awdiv
  4466     06D5  0871               	movf	?___awdiv+1,w
  4467     06D6  0020               	movlb	0	; select bank0
  4468     06D7  00A3               	movwf	itoa@temp+1
  4469     06D8  0870               	movf	?___awdiv,w
  4470     06D9  00A2               	movwf	itoa@temp
  4471                           
  4472                           ;EUSART.c: 162:         div *= 10;
  4473     06DA  300A               	movlw	10
  4474     06DB  00F0               	movwf	___wmul@multiplier
  4475     06DC  3000               	movlw	0
  4476     06DD  00F1               	movwf	___wmul@multiplier+1
  4477     06DE  0826               	movf	itoa@div+1,w
  4478     06DF  00F3               	movwf	___wmul@multiplicand+1
  4479     06E0  0825               	movf	itoa@div,w
  4480     06E1  00F2               	movwf	___wmul@multiplicand
  4481     06E2  3183  2317  3186   	fcall	___wmul
  4482     06E5  0871               	movf	?___wmul+1,w
  4483     06E6  0020               	movlb	0	; select bank0
  4484     06E7  00A6               	movwf	itoa@div+1
  4485     06E8  0870               	movf	?___wmul,w
  4486     06E9  00A5               	movwf	itoa@div
  4487     06EA                     l304:	
  4488                           ;EUSART.c: 163:     }
  4489                           
  4490                           
  4491                           ;EUSART.c: 159:     while (temp / 10)
  4492     06EA  300A               	movlw	10
  4493     06EB  00F0               	movwf	___awdiv@divisor
  4494     06EC  3000               	movlw	0
  4495     06ED  00F1               	movwf	___awdiv@divisor+1
  4496     06EE  0823               	movf	itoa@temp+1,w
  4497     06EF  00F3               	movwf	___awdiv@dividend+1
  4498     06F0  0822               	movf	itoa@temp,w
  4499     06F1  00F2               	movwf	___awdiv@dividend
  4500     06F2  3185  25BD  3186   	fcall	___awdiv
  4501     06F5  0870               	movf	?___awdiv,w
  4502     06F6  0471               	iorwf	?___awdiv+1,w
  4503     06F7  1D03               	btfss	3,2
  4504     06F8  2EFA               	goto	u1001
  4505     06F9  2EFB               	goto	u1000
  4506     06FA                     u1001:
  4507     06FA  2EC9               	goto	l1646
  4508     06FB                     u1000:
  4509     06FB  2F36               	goto	l1652
  4510     06FC                     l1648:
  4511                           
  4512                           ;EUSART.c: 166:     {;EUSART.c: 167:         int num = d / div;
  4513     06FC  0826               	movf	itoa@div+1,w
  4514     06FD  00F1               	movwf	___awdiv@divisor+1
  4515     06FE  0825               	movf	itoa@div,w
  4516     06FF  00F0               	movwf	___awdiv@divisor
  4517     0700  087A               	movf	itoa@d+1,w
  4518     0701  00F3               	movwf	___awdiv@dividend+1
  4519     0702  0879               	movf	itoa@d,w
  4520     0703  00F2               	movwf	___awdiv@dividend
  4521     0704  3185  25BD  3186   	fcall	___awdiv
  4522     0707  0871               	movf	?___awdiv+1,w
  4523     0708  0020               	movlb	0	; select bank0
  4524     0709  00A1               	movwf	itoa@num+1
  4525     070A  0870               	movf	?___awdiv,w
  4526     070B  00A0               	movwf	itoa@num
  4527                           
  4528                           ;EUSART.c: 168:         d %= div;
  4529     070C  0826               	movf	itoa@div+1,w
  4530     070D  00F1               	movwf	___awmod@divisor+1
  4531     070E  0825               	movf	itoa@div,w
  4532     070F  00F0               	movwf	___awmod@divisor
  4533     0710  087A               	movf	itoa@d+1,w
  4534     0711  00F3               	movwf	___awmod@dividend+1
  4535     0712  0879               	movf	itoa@d,w
  4536     0713  00F2               	movwf	___awmod@dividend
  4537     0714  3184  24B7  3186   	fcall	___awmod
  4538     0717  0871               	movf	?___awmod+1,w
  4539     0718  00FA               	movwf	itoa@d+1
  4540     0719  0870               	movf	?___awmod,w
  4541     071A  00F9               	movwf	itoa@d
  4542                           
  4543                           ;EUSART.c: 169:         div /= 10;
  4544     071B  300A               	movlw	10
  4545     071C  00F0               	movwf	___awdiv@divisor
  4546     071D  3000               	movlw	0
  4547     071E  00F1               	movwf	___awdiv@divisor+1
  4548     071F  0020               	movlb	0	; select bank0
  4549     0720  0826               	movf	itoa@div+1,w
  4550     0721  00F3               	movwf	___awdiv@dividend+1
  4551     0722  0825               	movf	itoa@div,w
  4552     0723  00F2               	movwf	___awdiv@dividend
  4553     0724  3185  25BD  3186   	fcall	___awdiv
  4554     0727  0871               	movf	?___awdiv+1,w
  4555     0728  0020               	movlb	0	; select bank0
  4556     0729  00A6               	movwf	itoa@div+1
  4557     072A  0870               	movf	?___awdiv,w
  4558     072B  00A5               	movwf	itoa@div
  4559     072C                     l1650:
  4560                           
  4561                           ;EUSART.c: 170:         *((*buf)++) = num + '0';
  4562     072C  0824               	movf	itoa@buf,w
  4563     072D  0086               	movwf	6
  4564     072E  0187               	clrf	7
  4565     072F  3F40               	moviw [0]fsr1
  4566     0730  0084               	movwf	4
  4567     0731  0185               	clrf	5
  4568     0732  0A81               	incf	1,f
  4569     0733  0820               	movf	itoa@num,w
  4570     0734  3E30               	addlw	48
  4571     0735  0080               	movwf	0
  4572     0736                     l1652:
  4573                           
  4574                           ;EUSART.c: 165:     while (div != 0)
  4575     0736  0020               	movlb	0	; select bank0
  4576     0737  0825               	movf	itoa@div,w
  4577     0738  0426               	iorwf	itoa@div+1,w
  4578     0739  1D03               	btfss	3,2
  4579     073A  2F3C               	goto	u1011
  4580     073B  2F3D               	goto	u1010
  4581     073C                     u1011:
  4582     073C  2EFC               	goto	l1648
  4583     073D                     u1010:
  4584     073D                     l1654:
  4585                           
  4586                           ;EUSART.c: 172:     *(*buf) = '\0';
  4587     073D  0824               	movf	itoa@buf,w
  4588     073E  0086               	movwf	6
  4589     073F  0187               	clrf	7
  4590     0740  0801               	movf	1,w
  4591     0741  0086               	movwf	6
  4592     0742  0187               	clrf	7
  4593     0743  0181               	clrf	1
  4594     0744                     l310:
  4595     0744  0008               	return
  4596     0745                     __end_of_itoa:
  4597                           
  4598                           	psect	text28
  4599     0317                     __ptext28:	
  4600 ;; *************** function ___wmul *****************
  4601 ;; Defined at:
  4602 ;;		line 15 in file "C:\Program Files\Microchip\xc8\v2.46\pic\sources\c99\common\Umul16.c"
  4603 ;; Parameters:    Size  Location     Type
  4604 ;;  multiplier      2    0[COMMON] unsigned int 
  4605 ;;  multiplicand    2    2[COMMON] unsigned int 
  4606 ;; Auto vars:     Size  Location     Type
  4607 ;;  product         2    4[COMMON] unsigned int 
  4608 ;; Return value:  Size  Location     Type
  4609 ;;                  2    0[COMMON] unsigned int 
  4610 ;; Registers used:
  4611 ;;		wreg, status,2, status,0
  4612 ;; Tracked objects:
  4613 ;;		On entry : 0/0
  4614 ;;		On exit  : 0/0
  4615 ;;		Unchanged: 0/0
  4616 ;; Data sizes:     COMMON   BANK0   BANK1   BANK2   BANK3   BANK4   BANK5   BANK6   BANK7   BANK8   BANK9  BANK10  BANK1
      +1  BANK12  BANK13  BANK14  BANK15  BANK16  BANK17  BANK18  BANK19  BANK20  BANK21  BANK22  BANK23  BANK24  BANK25
  4617 ;;      Params:         4       0       0       0       0       0       0       0       0       0       0       0       
      +0       0       0       0       0       0       0       0       0       0       0       0       0       0       0
  4618 ;;      Locals:         2       0       0       0       0       0       0       0       0       0       0       0       
      +0       0       0       0       0       0       0       0       0       0       0       0       0       0       0
  4619 ;;      Temps:          0       0       0       0       0       0       0       0       0       0       0       0       
      +0       0       0       0       0       0       0       0       0       0       0       0       0       0       0
  4620 ;;      Totals:         6       0       0       0       0       0       0       0       0       0       0       0       
      +0       0       0       0       0       0       0       0       0       0       0       0       0       0       0
  4621 ;;Total ram usage:        6 bytes
  4622 ;; Hardware stack levels used: 1
  4623 ;; This function calls:
  4624 ;;		Nothing
  4625 ;; This function is called by:
  4626 ;;		_itoa
  4627 ;; This function uses a non-reentrant model
  4628 ;;
  4629                           
  4630     0317                     ___wmul:	
  4631                           ;psect for function ___wmul
  4632                           
  4633     0317                     l1496:	
  4634                           ;incstack = 0
  4635                           ; Regs used in ___wmul: [wreg+status,2+status,0]
  4636                           
  4637     0317  01F4               	clrf	___wmul@product
  4638     0318  01F5               	clrf	___wmul@product+1
  4639     0319                     l1498:
  4640     0319  1C70               	btfss	___wmul@multiplier,0
  4641     031A  2B1C               	goto	u741
  4642     031B  2B1D               	goto	u740
  4643     031C                     u741:
  4644     031C  2B21               	goto	l384
  4645     031D                     u740:
  4646     031D                     l1500:
  4647     031D  0872               	movf	___wmul@multiplicand,w
  4648     031E  07F4               	addwf	___wmul@product,f
  4649     031F  0873               	movf	___wmul@multiplicand+1,w
  4650     0320  3DF5               	addwfc	___wmul@product+1,f
  4651     0321                     l384:
  4652     0321  3001               	movlw	1
  4653     0322                     u755:
  4654     0322  35F2               	lslf	___wmul@multiplicand,f
  4655     0323  0DF3               	rlf	___wmul@multiplicand+1,f
  4656     0324  0B89               	decfsz	9,f
  4657     0325  2B22               	goto	u755
  4658     0326                     l1502:
  4659     0326  3001               	movlw	1
  4660     0327                     u765:
  4661     0327  36F1               	lsrf	___wmul@multiplier+1,f
  4662     0328  0CF0               	rrf	___wmul@multiplier,f
  4663     0329  0B89               	decfsz	9,f
  4664     032A  2B27               	goto	u765
  4665     032B                     l1504:
  4666     032B  0870               	movf	___wmul@multiplier,w
  4667     032C  0471               	iorwf	___wmul@multiplier+1,w
  4668     032D  1D03               	btfss	3,2
  4669     032E  2B30               	goto	u771
  4670     032F  2B31               	goto	u770
  4671     0330                     u771:
  4672     0330  2B19               	goto	l1498
  4673     0331                     u770:
  4674     0331                     l1506:
  4675     0331  0875               	movf	___wmul@product+1,w
  4676     0332  00F1               	movwf	?___wmul+1
  4677     0333  0874               	movf	___wmul@product,w
  4678     0334  00F0               	movwf	?___wmul
  4679     0335                     l386:
  4680     0335  0008               	return
  4681     0336                     __end_of___wmul:
  4682                           
  4683                           	psect	text29
  4684     04B7                     __ptext29:	
  4685 ;; *************** function ___awmod *****************
  4686 ;; Defined at:
  4687 ;;		line 5 in file "C:\Program Files\Microchip\xc8\v2.46\pic\sources\c99\common\awmod.c"
  4688 ;; Parameters:    Size  Location     Type
  4689 ;;  divisor         2    0[COMMON] int 
  4690 ;;  dividend        2    2[COMMON] int 
  4691 ;; Auto vars:     Size  Location     Type
  4692 ;;  sign            1    6[COMMON] unsigned char 
  4693 ;;  counter         1    5[COMMON] unsigned char 
  4694 ;; Return value:  Size  Location     Type
  4695 ;;                  2    0[COMMON] int 
  4696 ;; Registers used:
  4697 ;;		wreg, status,2, status,0
  4698 ;; Tracked objects:
  4699 ;;		On entry : 0/0
  4700 ;;		On exit  : 0/0
  4701 ;;		Unchanged: 0/0
  4702 ;; Data sizes:     COMMON   BANK0   BANK1   BANK2   BANK3   BANK4   BANK5   BANK6   BANK7   BANK8   BANK9  BANK10  BANK1
      +1  BANK12  BANK13  BANK14  BANK15  BANK16  BANK17  BANK18  BANK19  BANK20  BANK21  BANK22  BANK23  BANK24  BANK25
  4703 ;;      Params:         4       0       0       0       0       0       0       0       0       0       0       0       
      +0       0       0       0       0       0       0       0       0       0       0       0       0       0       0
  4704 ;;      Locals:         2       0       0       0       0       0       0       0       0       0       0       0       
      +0       0       0       0       0       0       0       0       0       0       0       0       0       0       0
  4705 ;;      Temps:          1       0       0       0       0       0       0       0       0       0       0       0       
      +0       0       0       0       0       0       0       0       0       0       0       0       0       0       0
  4706 ;;      Totals:         7       0       0       0       0       0       0       0       0       0       0       0       
      +0       0       0       0       0       0       0       0       0       0       0       0       0       0       0
  4707 ;;Total ram usage:        7 bytes
  4708 ;; Hardware stack levels used: 1
  4709 ;; This function calls:
  4710 ;;		Nothing
  4711 ;; This function is called by:
  4712 ;;		_itoa
  4713 ;; This function uses a non-reentrant model
  4714 ;;
  4715                           
  4716     04B7                     ___awmod:	
  4717                           ;psect for function ___awmod
  4718                           
  4719     04B7                     l1554:	
  4720                           ;incstack = 0
  4721                           ; Regs used in ___awmod: [wreg+status,2+status,0]
  4722                           
  4723     04B7  01F6               	clrf	___awmod@sign
  4724     04B8                     l1556:
  4725     04B8  1FF3               	btfss	___awmod@dividend+1,7
  4726     04B9  2CBB               	goto	u881
  4727     04BA  2CBC               	goto	u880
  4728     04BB                     u881:
  4729     04BB  2CC3               	goto	l1562
  4730     04BC                     u880:
  4731     04BC                     l1558:
  4732     04BC  09F2               	comf	___awmod@dividend,f
  4733     04BD  09F3               	comf	___awmod@dividend+1,f
  4734     04BE  0AF2               	incf	___awmod@dividend,f
  4735     04BF  1903               	skipnz
  4736     04C0  0AF3               	incf	___awmod@dividend+1,f
  4737     04C1                     l1560:
  4738     04C1  01F6               	clrf	___awmod@sign
  4739     04C2  0AF6               	incf	___awmod@sign,f
  4740     04C3                     l1562:
  4741     04C3  1FF1               	btfss	___awmod@divisor+1,7
  4742     04C4  2CC6               	goto	u891
  4743     04C5  2CC7               	goto	u890
  4744     04C6                     u891:
  4745     04C6  2CCC               	goto	l1566
  4746     04C7                     u890:
  4747     04C7                     l1564:
  4748     04C7  09F0               	comf	___awmod@divisor,f
  4749     04C8  09F1               	comf	___awmod@divisor+1,f
  4750     04C9  0AF0               	incf	___awmod@divisor,f
  4751     04CA  1903               	skipnz
  4752     04CB  0AF1               	incf	___awmod@divisor+1,f
  4753     04CC                     l1566:
  4754     04CC  0870               	movf	___awmod@divisor,w
  4755     04CD  0471               	iorwf	___awmod@divisor+1,w
  4756     04CE  1903               	btfsc	3,2
  4757     04CF  2CD1               	goto	u901
  4758     04D0  2CD2               	goto	u900
  4759     04D1                     u901:
  4760     04D1  2CFB               	goto	l1584
  4761     04D2                     u900:
  4762     04D2                     l1568:
  4763     04D2  01F5               	clrf	___awmod@counter
  4764     04D3  0AF5               	incf	___awmod@counter,f
  4765     04D4  2CDE               	goto	l1574
  4766     04D5                     l1570:
  4767     04D5  3001               	movlw	1
  4768     04D6                     u915:
  4769     04D6  35F0               	lslf	___awmod@divisor,f
  4770     04D7  0DF1               	rlf	___awmod@divisor+1,f
  4771     04D8  0B89               	decfsz	9,f
  4772     04D9  2CD6               	goto	u915
  4773     04DA                     l1572:
  4774     04DA  3001               	movlw	1
  4775     04DB  00F4               	movwf	??___awmod
  4776     04DC  0874               	movf	??___awmod,w
  4777     04DD  07F5               	addwf	___awmod@counter,f
  4778     04DE                     l1574:
  4779     04DE  1FF1               	btfss	___awmod@divisor+1,7
  4780     04DF  2CE1               	goto	u921
  4781     04E0  2CE2               	goto	u920
  4782     04E1                     u921:
  4783     04E1  2CD5               	goto	l1570
  4784     04E2                     u920:
  4785     04E2                     l1576:
  4786     04E2  0871               	movf	___awmod@divisor+1,w
  4787     04E3  0273               	subwf	___awmod@dividend+1,w
  4788     04E4  1D03               	skipz
  4789     04E5  2CE8               	goto	u935
  4790     04E6  0870               	movf	___awmod@divisor,w
  4791     04E7  0272               	subwf	___awmod@dividend,w
  4792     04E8                     u935:
  4793     04E8  1C03               	skipc
  4794     04E9  2CEB               	goto	u931
  4795     04EA  2CEC               	goto	u930
  4796     04EB                     u931:
  4797     04EB  2CF0               	goto	l1580
  4798     04EC                     u930:
  4799     04EC                     l1578:
  4800     04EC  0870               	movf	___awmod@divisor,w
  4801     04ED  02F2               	subwf	___awmod@dividend,f
  4802     04EE  0871               	movf	___awmod@divisor+1,w
  4803     04EF  3BF3               	subwfb	___awmod@dividend+1,f
  4804     04F0                     l1580:
  4805     04F0  3001               	movlw	1
  4806     04F1                     u945:
  4807     04F1  36F1               	lsrf	___awmod@divisor+1,f
  4808     04F2  0CF0               	rrf	___awmod@divisor,f
  4809     04F3  0B89               	decfsz	9,f
  4810     04F4  2CF1               	goto	u945
  4811     04F5                     l1582:
  4812     04F5  3001               	movlw	1
  4813     04F6  02F5               	subwf	___awmod@counter,f
  4814     04F7  1D03               	btfss	3,2
  4815     04F8  2CFA               	goto	u951
  4816     04F9  2CFB               	goto	u950
  4817     04FA                     u951:
  4818     04FA  2CE2               	goto	l1576
  4819     04FB                     u950:
  4820     04FB                     l1584:
  4821     04FB  0876               	movf	___awmod@sign,w
  4822     04FC  1903               	btfsc	3,2
  4823     04FD  2CFF               	goto	u961
  4824     04FE  2D00               	goto	u960
  4825     04FF                     u961:
  4826     04FF  2D05               	goto	l1588
  4827     0500                     u960:
  4828     0500                     l1586:
  4829     0500  09F2               	comf	___awmod@dividend,f
  4830     0501  09F3               	comf	___awmod@dividend+1,f
  4831     0502  0AF2               	incf	___awmod@dividend,f
  4832     0503  1903               	skipnz
  4833     0504  0AF3               	incf	___awmod@dividend+1,f
  4834     0505                     l1588:
  4835     0505  0873               	movf	___awmod@dividend+1,w
  4836     0506  00F1               	movwf	?___awmod+1
  4837     0507  0872               	movf	___awmod@dividend,w
  4838     0508  00F0               	movwf	?___awmod
  4839     0509                     l550:
  4840     0509  0008               	return
  4841     050A                     __end_of___awmod:
  4842                           
  4843                           	psect	text30
  4844     05BD                     __ptext30:	
  4845 ;; *************** function ___awdiv *****************
  4846 ;; Defined at:
  4847 ;;		line 5 in file "C:\Program Files\Microchip\xc8\v2.46\pic\sources\c99\common\awdiv.c"
  4848 ;; Parameters:    Size  Location     Type
  4849 ;;  divisor         2    0[COMMON] int 
  4850 ;;  dividend        2    2[COMMON] int 
  4851 ;; Auto vars:     Size  Location     Type
  4852 ;;  quotient        2    7[COMMON] int 
  4853 ;;  sign            1    6[COMMON] unsigned char 
  4854 ;;  counter         1    5[COMMON] unsigned char 
  4855 ;; Return value:  Size  Location     Type
  4856 ;;                  2    0[COMMON] int 
  4857 ;; Registers used:
  4858 ;;		wreg, status,2, status,0
  4859 ;; Tracked objects:
  4860 ;;		On entry : 0/0
  4861 ;;		On exit  : 0/0
  4862 ;;		Unchanged: 0/0
  4863 ;; Data sizes:     COMMON   BANK0   BANK1   BANK2   BANK3   BANK4   BANK5   BANK6   BANK7   BANK8   BANK9  BANK10  BANK1
      +1  BANK12  BANK13  BANK14  BANK15  BANK16  BANK17  BANK18  BANK19  BANK20  BANK21  BANK22  BANK23  BANK24  BANK25
  4864 ;;      Params:         4       0       0       0       0       0       0       0       0       0       0       0       
      +0       0       0       0       0       0       0       0       0       0       0       0       0       0       0
  4865 ;;      Locals:         4       0       0       0       0       0       0       0       0       0       0       0       
      +0       0       0       0       0       0       0       0       0       0       0       0       0       0       0
  4866 ;;      Temps:          1       0       0       0       0       0       0       0       0       0       0       0       
      +0       0       0       0       0       0       0       0       0       0       0       0       0       0       0
  4867 ;;      Totals:         9       0       0       0       0       0       0       0       0       0       0       0       
      +0       0       0       0       0       0       0       0       0       0       0       0       0       0       0
  4868 ;;Total ram usage:        9 bytes
  4869 ;; Hardware stack levels used: 1
  4870 ;; This function calls:
  4871 ;;		Nothing
  4872 ;; This function is called by:
  4873 ;;		_itoa
  4874 ;; This function uses a non-reentrant model
  4875 ;;
  4876                           
  4877     05BD                     ___awdiv:	
  4878                           ;psect for function ___awdiv
  4879                           
  4880     05BD                     l1510:	
  4881                           ;incstack = 0
  4882                           ; Regs used in ___awdiv: [wreg+status,2+status,0]
  4883                           
  4884     05BD  01F6               	clrf	___awdiv@sign
  4885     05BE                     l1512:
  4886     05BE  1FF1               	btfss	___awdiv@divisor+1,7
  4887     05BF  2DC1               	goto	u781
  4888     05C0  2DC2               	goto	u780
  4889     05C1                     u781:
  4890     05C1  2DC9               	goto	l1518
  4891     05C2                     u780:
  4892     05C2                     l1514:
  4893     05C2  09F0               	comf	___awdiv@divisor,f
  4894     05C3  09F1               	comf	___awdiv@divisor+1,f
  4895     05C4  0AF0               	incf	___awdiv@divisor,f
  4896     05C5  1903               	skipnz
  4897     05C6  0AF1               	incf	___awdiv@divisor+1,f
  4898     05C7                     l1516:
  4899     05C7  01F6               	clrf	___awdiv@sign
  4900     05C8  0AF6               	incf	___awdiv@sign,f
  4901     05C9                     l1518:
  4902     05C9  1FF3               	btfss	___awdiv@dividend+1,7
  4903     05CA  2DCC               	goto	u791
  4904     05CB  2DCD               	goto	u790
  4905     05CC                     u791:
  4906     05CC  2DD6               	goto	l1524
  4907     05CD                     u790:
  4908     05CD                     l1520:
  4909     05CD  09F2               	comf	___awdiv@dividend,f
  4910     05CE  09F3               	comf	___awdiv@dividend+1,f
  4911     05CF  0AF2               	incf	___awdiv@dividend,f
  4912     05D0  1903               	skipnz
  4913     05D1  0AF3               	incf	___awdiv@dividend+1,f
  4914     05D2                     l1522:
  4915     05D2  3001               	movlw	1
  4916     05D3  00F4               	movwf	??___awdiv
  4917     05D4  0874               	movf	??___awdiv,w
  4918     05D5  06F6               	xorwf	___awdiv@sign,f
  4919     05D6                     l1524:
  4920     05D6  01F7               	clrf	___awdiv@quotient
  4921     05D7  01F8               	clrf	___awdiv@quotient+1
  4922     05D8                     l1526:
  4923     05D8  0870               	movf	___awdiv@divisor,w
  4924     05D9  0471               	iorwf	___awdiv@divisor+1,w
  4925     05DA  1903               	btfsc	3,2
  4926     05DB  2DDD               	goto	u801
  4927     05DC  2DDE               	goto	u800
  4928     05DD                     u801:
  4929     05DD  2E0D               	goto	l1546
  4930     05DE                     u800:
  4931     05DE                     l1528:
  4932     05DE  01F5               	clrf	___awdiv@counter
  4933     05DF  0AF5               	incf	___awdiv@counter,f
  4934     05E0  2DEA               	goto	l1534
  4935     05E1                     l1530:
  4936     05E1  3001               	movlw	1
  4937     05E2                     u815:
  4938     05E2  35F0               	lslf	___awdiv@divisor,f
  4939     05E3  0DF1               	rlf	___awdiv@divisor+1,f
  4940     05E4  0B89               	decfsz	9,f
  4941     05E5  2DE2               	goto	u815
  4942     05E6                     l1532:
  4943     05E6  3001               	movlw	1
  4944     05E7  00F4               	movwf	??___awdiv
  4945     05E8  0874               	movf	??___awdiv,w
  4946     05E9  07F5               	addwf	___awdiv@counter,f
  4947     05EA                     l1534:
  4948     05EA  1FF1               	btfss	___awdiv@divisor+1,7
  4949     05EB  2DED               	goto	u821
  4950     05EC  2DEE               	goto	u820
  4951     05ED                     u821:
  4952     05ED  2DE1               	goto	l1530
  4953     05EE                     u820:
  4954     05EE                     l1536:
  4955     05EE  3001               	movlw	1
  4956     05EF                     u835:
  4957     05EF  35F7               	lslf	___awdiv@quotient,f
  4958     05F0  0DF8               	rlf	___awdiv@quotient+1,f
  4959     05F1  0B89               	decfsz	9,f
  4960     05F2  2DEF               	goto	u835
  4961     05F3  0871               	movf	___awdiv@divisor+1,w
  4962     05F4  0273               	subwf	___awdiv@dividend+1,w
  4963     05F5  1D03               	skipz
  4964     05F6  2DF9               	goto	u845
  4965     05F7  0870               	movf	___awdiv@divisor,w
  4966     05F8  0272               	subwf	___awdiv@dividend,w
  4967     05F9                     u845:
  4968     05F9  1C03               	skipc
  4969     05FA  2DFC               	goto	u841
  4970     05FB  2DFD               	goto	u840
  4971     05FC                     u841:
  4972     05FC  2E02               	goto	l1542
  4973     05FD                     u840:
  4974     05FD                     l1538:
  4975     05FD  0870               	movf	___awdiv@divisor,w
  4976     05FE  02F2               	subwf	___awdiv@dividend,f
  4977     05FF  0871               	movf	___awdiv@divisor+1,w
  4978     0600  3BF3               	subwfb	___awdiv@dividend+1,f
  4979     0601                     l1540:
  4980     0601  1477               	bsf	___awdiv@quotient,0
  4981     0602                     l1542:
  4982     0602  3001               	movlw	1
  4983     0603                     u855:
  4984     0603  36F1               	lsrf	___awdiv@divisor+1,f
  4985     0604  0CF0               	rrf	___awdiv@divisor,f
  4986     0605  0B89               	decfsz	9,f
  4987     0606  2E03               	goto	u855
  4988     0607                     l1544:
  4989     0607  3001               	movlw	1
  4990     0608  02F5               	subwf	___awdiv@counter,f
  4991     0609  1D03               	btfss	3,2
  4992     060A  2E0C               	goto	u861
  4993     060B  2E0D               	goto	u860
  4994     060C                     u861:
  4995     060C  2DEE               	goto	l1536
  4996     060D                     u860:
  4997     060D                     l1546:
  4998     060D  0876               	movf	___awdiv@sign,w
  4999     060E  1903               	btfsc	3,2
  5000     060F  2E11               	goto	u871
  5001     0610  2E12               	goto	u870
  5002     0611                     u871:
  5003     0611  2E17               	goto	l1550
  5004     0612                     u870:
  5005     0612                     l1548:
  5006     0612  09F7               	comf	___awdiv@quotient,f
  5007     0613  09F8               	comf	___awdiv@quotient+1,f
  5008     0614  0AF7               	incf	___awdiv@quotient,f
  5009     0615  1903               	skipnz
  5010     0616  0AF8               	incf	___awdiv@quotient+1,f
  5011     0617                     l1550:
  5012     0617  0878               	movf	___awdiv@quotient+1,w
  5013     0618  00F1               	movwf	?___awdiv+1
  5014     0619  0877               	movf	___awdiv@quotient,w
  5015     061A  00F0               	movwf	?___awdiv
  5016     061B                     l537:
  5017     061B  0008               	return
  5018     061C                     __end_of___awdiv:
  5019                           
  5020                           	psect	text31
  5021     0275                     __ptext31:	
  5022 ;; *************** function _EUSART_Write *****************
  5023 ;; Defined at:
  5024 ;;		line 108 in file "EUSART.c"
  5025 ;; Parameters:    Size  Location     Type
  5026 ;;  txData          1    wreg     unsigned char 
  5027 ;; Auto vars:     Size  Location     Type
  5028 ;;  txData          1    0[COMMON] unsigned char 
  5029 ;; Return value:  Size  Location     Type
  5030 ;;                  1    wreg      void 
  5031 ;; Registers used:
  5032 ;;		wreg
  5033 ;; Tracked objects:
  5034 ;;		On entry : 0/0
  5035 ;;		On exit  : 0/0
  5036 ;;		Unchanged: 0/0
  5037 ;; Data sizes:     COMMON   BANK0   BANK1   BANK2   BANK3   BANK4   BANK5   BANK6   BANK7   BANK8   BANK9  BANK10  BANK1
      +1  BANK12  BANK13  BANK14  BANK15  BANK16  BANK17  BANK18  BANK19  BANK20  BANK21  BANK22  BANK23  BANK24  BANK25
  5038 ;;      Params:         0       0       0       0       0       0       0       0       0       0       0       0       
      +0       0       0       0       0       0       0       0       0       0       0       0       0       0       0
  5039 ;;      Locals:         1       0       0       0       0       0       0       0       0       0       0       0       
      +0       0       0       0       0       0       0       0       0       0       0       0       0       0       0
  5040 ;;      Temps:          0       0       0       0       0       0       0       0       0       0       0       0       
      +0       0       0       0       0       0       0       0       0       0       0       0       0       0       0
  5041 ;;      Totals:         1       0       0       0       0       0       0       0       0       0       0       0       
      +0       0       0       0       0       0       0       0       0       0       0       0       0       0       0
  5042 ;;Total ram usage:        1 bytes
  5043 ;; Hardware stack levels used: 1
  5044 ;; This function calls:
  5045 ;;		Nothing
  5046 ;; This function is called by:
  5047 ;;		_uart_crlf
  5048 ;;		_uart_write_n
  5049 ;;		_EUSART_Write_Text
  5050 ;;		_EUSART_Write_Integer
  5051 ;;		_uart_hex8
  5052 ;; This function uses a non-reentrant model
  5053 ;;
  5054                           
  5055     0275                     _EUSART_Write:	
  5056                           ;psect for function _EUSART_Write
  5057                           
  5058                           
  5059                           ;incstack = 0
  5060                           ; Regs used in _EUSART_Write: [wreg]
  5061                           ;EUSART_Write@txData stored from wreg
  5062     0275  00F0               	movwf	EUSART_Write@txData
  5063     0276                     l1474:
  5064     0276                     l291:	
  5065                           ;EUSART.c: 111:     {;EUSART.c: 112:     }
  5066                           
  5067                           
  5068                           ;EUSART.c: 110:     while(0 == PIR1bits.TXIF)
  5069     0276  0020               	movlb	0	; select bank0
  5070     0277  1E11               	btfss	17,4	;volatile
  5071     0278  2A7A               	goto	u721
  5072     0279  2A7B               	goto	u720
  5073     027A                     u721:
  5074     027A  2A76               	goto	l291
  5075     027B                     u720:
  5076     027B                     l1476:
  5077                           
  5078                           ;EUSART.c: 114:     TX1REG = txData;
  5079     027B  0870               	movf	EUSART_Write@txData,w
  5080     027C  0023               	movlb	3	; select bank3
  5081     027D  009A               	movwf	26	;volatile
  5082     027E                     l294:
  5083     027E  0008               	return
  5084     027F                     __end_of_EUSART_Write:
  5085                           
  5086                           	psect	text32
  5087     0467                     __ptext32:	
  5088 ;; *************** function _EUSART_Initialize *****************
  5089 ;; Defined at:
  5090 ;;		line 36 in file "EUSART.c"
  5091 ;; Parameters:    Size  Location     Type
  5092 ;;  baudrate        4    6[BANK0 ] const long 
  5093 ;; Auto vars:     Size  Location     Type
  5094 ;;  x               2    9[COMMON] unsigned int 
  5095 ;; Return value:  Size  Location     Type
  5096 ;;                  1    wreg      unsigned char 
  5097 ;; Registers used:
  5098 ;;		wreg, status,2, status,0, pclath, cstack
  5099 ;; Tracked objects:
  5100 ;;		On entry : 0/0
  5101 ;;		On exit  : 0/0
  5102 ;;		Unchanged: 0/0
  5103 ;; Data sizes:     COMMON   BANK0   BANK1   BANK2   BANK3   BANK4   BANK5   BANK6   BANK7   BANK8   BANK9  BANK10  BANK1
      +1  BANK12  BANK13  BANK14  BANK15  BANK16  BANK17  BANK18  BANK19  BANK20  BANK21  BANK22  BANK23  BANK24  BANK25
  5104 ;;      Params:         0       4       0       0       0       0       0       0       0       0       0       0       
      +0       0       0       0       0       0       0       0       0       0       0       0       0       0       0
  5105 ;;      Locals:         2       0       0       0       0       0       0       0       0       0       0       0       
      +0       0       0       0       0       0       0       0       0       0       0       0       0       0       0
  5106 ;;      Temps:          0      12       0       0       0       0       0       0       0       0       0       0       
      +0       0       0       0       0       0       0       0       0       0       0       0       0       0       0
  5107 ;;      Totals:         2      16       0       0       0       0       0       0       0       0       0       0       
      +0       0       0       0       0       0       0       0       0       0       0       0       0       0       0
  5108 ;;Total ram usage:       18 bytes
  5109 ;; Hardware stack levels used: 1
  5110 ;; Hardware stack levels required when called: 1
  5111 ;; This function calls:
  5112 ;;		___aldiv
  5113 ;; This function is called by:
  5114 ;;		_main
  5115 ;; This function uses a non-reentrant model
  5116 ;;
  5117                           
  5118     0467                     _EUSART_Initialize:	
  5119                           ;psect for function _EUSART_Initialize
  5120                           
  5121     0467                     l1864:	
  5122                           ;incstack = 0
  5123                           ; Regs used in _EUSART_Initialize: [wreg+status,2+status,0+pclath+cstack]
  5124                           
  5125                           
  5126                           ;EUSART.c: 36: char EUSART_Initialize(const long int baudrate);EUSART.c: 37: {;EUSART.c:
      +                           38:     unsigned int x;;EUSART.c: 39:  x = (32000000 - baudrate*64)/(baudrate*64);
  5127     0467  0020               	movlb	0	; select bank0
  5128     0468  0826               	movf	EUSART_Initialize@baudrate,w
  5129     0469  00AA               	movwf	??_EUSART_Initialize
  5130     046A  0827               	movf	EUSART_Initialize@baudrate+1,w
  5131     046B  00AB               	movwf	??_EUSART_Initialize+1
  5132     046C  0828               	movf	EUSART_Initialize@baudrate+2,w
  5133     046D  00AC               	movwf	??_EUSART_Initialize+2
  5134     046E  0829               	movf	EUSART_Initialize@baudrate+3,w
  5135     046F  00AD               	movwf	??_EUSART_Initialize+3
  5136     0470  3006               	movlw	6
  5137     0471                     u1215:
  5138     0471  35AA               	lslf	??_EUSART_Initialize,f
  5139     0472  0DAB               	rlf	??_EUSART_Initialize+1,f
  5140     0473  0DAC               	rlf	??_EUSART_Initialize+2,f
  5141     0474  0DAD               	rlf	??_EUSART_Initialize+3,f
  5142     0475                     u1210:
  5143     0475  0B89               	decfsz	9,f
  5144     0476  2C71               	goto	u1215
  5145     0477  082D               	movf	??_EUSART_Initialize+3,w
  5146     0478  00F3               	movwf	___aldiv@divisor+3
  5147     0479  082C               	movf	??_EUSART_Initialize+2,w
  5148     047A  00F2               	movwf	___aldiv@divisor+2
  5149     047B  082B               	movf	??_EUSART_Initialize+1,w
  5150     047C  00F1               	movwf	___aldiv@divisor+1
  5151     047D  082A               	movf	??_EUSART_Initialize,w
  5152     047E  00F0               	movwf	___aldiv@divisor
  5153     047F  0826               	movf	EUSART_Initialize@baudrate,w
  5154     0480  00AE               	movwf	??_EUSART_Initialize+4
  5155     0481  0827               	movf	EUSART_Initialize@baudrate+1,w
  5156     0482  00AF               	movwf	??_EUSART_Initialize+5
  5157     0483  0828               	movf	EUSART_Initialize@baudrate+2,w
  5158     0484  00B0               	movwf	??_EUSART_Initialize+6
  5159     0485  0829               	movf	EUSART_Initialize@baudrate+3,w
  5160     0486  00B1               	movwf	??_EUSART_Initialize+7
  5161     0487  3006               	movlw	6
  5162     0488                     u1225:
  5163     0488  35AE               	lslf	??_EUSART_Initialize+4,f
  5164     0489  0DAF               	rlf	??_EUSART_Initialize+5,f
  5165     048A  0DB0               	rlf	??_EUSART_Initialize+6,f
  5166     048B  0DB1               	rlf	??_EUSART_Initialize+7,f
  5167     048C                     u1220:
  5168     048C  0B89               	decfsz	9,f
  5169     048D  2C88               	goto	u1225
  5170     048E  3000               	movlw	0
  5171     048F  00B2               	movwf	??_EUSART_Initialize+8
  5172     0490  3048               	movlw	72
  5173     0491  00B3               	movwf	??_EUSART_Initialize+9
  5174     0492  30E8               	movlw	232
  5175     0493  00B4               	movwf	??_EUSART_Initialize+10
  5176     0494  3001               	movlw	1
  5177     0495  00B5               	movwf	??_EUSART_Initialize+11
  5178     0496  082E               	movf	??_EUSART_Initialize+4,w
  5179     0497  02B2               	subwf	??_EUSART_Initialize+8,f
  5180     0498  082F               	movf	??_EUSART_Initialize+5,w
  5181     0499  3BB3               	subwfb	??_EUSART_Initialize+9,f
  5182     049A  0830               	movf	??_EUSART_Initialize+6,w
  5183     049B  3BB4               	subwfb	??_EUSART_Initialize+10,f
  5184     049C  0831               	movf	??_EUSART_Initialize+7,w
  5185     049D  3BB5               	subwfb	??_EUSART_Initialize+11,f
  5186     049E  0835               	movf	??_EUSART_Initialize+11,w
  5187     049F  00F7               	movwf	___aldiv@dividend+3
  5188     04A0  0834               	movf	??_EUSART_Initialize+10,w
  5189     04A1  00F6               	movwf	___aldiv@dividend+2
  5190     04A2  0833               	movf	??_EUSART_Initialize+9,w
  5191     04A3  00F5               	movwf	___aldiv@dividend+1
  5192     04A4  0832               	movf	??_EUSART_Initialize+8,w
  5193     04A5  00F4               	movwf	___aldiv@dividend
  5194     04A6  3186  261C  3184   	fcall	___aldiv
  5195     04A9  0871               	movf	?___aldiv+1,w
  5196     04AA  00FA               	movwf	EUSART_Initialize@x+1
  5197     04AB  0870               	movf	?___aldiv,w
  5198     04AC  00F9               	movwf	EUSART_Initialize@x
  5199     04AD                     l1866:
  5200                           
  5201                           ;EUSART.c: 41:  SPBRGL = x;
  5202     04AD  0879               	movf	EUSART_Initialize@x,w
  5203     04AE  0023               	movlb	3	; select bank3
  5204     04AF  009B               	movwf	27	;volatile
  5205     04B0                     l1868:
  5206                           
  5207                           ;EUSART.c: 42:     BRGH = 0;
  5208     04B0  111E               	bcf	30,2	;volatile
  5209     04B1                     l1870:
  5210                           
  5211                           ;EUSART.c: 43:     BRG16 = 0;
  5212     04B1  119F               	bcf	31,3	;volatile
  5213     04B2                     l1872:
  5214                           
  5215                           ;EUSART.c: 44:     SYNC = 0;
  5216     04B2  121E               	bcf	30,4	;volatile
  5217     04B3                     l1874:
  5218                           
  5219                           ;EUSART.c: 45:     SPEN = 1;
  5220     04B3  179D               	bsf	29,7	;volatile
  5221     04B4                     l1876:
  5222                           
  5223                           ;EUSART.c: 46:     CREN = 1;
  5224     04B4  161D               	bsf	29,4	;volatile
  5225     04B5                     l1878:
  5226                           
  5227                           ;EUSART.c: 47:     TXEN = 1;
  5228     04B5  169E               	bsf	30,5	;volatile
  5229     04B6                     l275:
  5230     04B6  0008               	return
  5231     04B7                     __end_of_EUSART_Initialize:
  5232                           
  5233                           	psect	text33
  5234     061C                     __ptext33:	
  5235 ;; *************** function ___aldiv *****************
  5236 ;; Defined at:
  5237 ;;		line 5 in file "C:\Program Files\Microchip\xc8\v2.46\pic\sources\c99\common\aldiv.c"
  5238 ;; Parameters:    Size  Location     Type
  5239 ;;  divisor         4    0[COMMON] long 
  5240 ;;  dividend        4    4[COMMON] long 
  5241 ;; Auto vars:     Size  Location     Type
  5242 ;;  quotient        4    2[BANK0 ] long 
  5243 ;;  sign            1    1[BANK0 ] unsigned char 
  5244 ;;  counter         1    0[BANK0 ] unsigned char 
  5245 ;; Return value:  Size  Location     Type
  5246 ;;                  4    0[COMMON] long 
  5247 ;; Registers used:
  5248 ;;		wreg, status,2, status,0
  5249 ;; Tracked objects:
  5250 ;;		On entry : 0/0
  5251 ;;		On exit  : 0/0
  5252 ;;		Unchanged: 0/0
  5253 ;; Data sizes:     COMMON   BANK0   BANK1   BANK2   BANK3   BANK4   BANK5   BANK6   BANK7   BANK8   BANK9  BANK10  BANK1
      +1  BANK12  BANK13  BANK14  BANK15  BANK16  BANK17  BANK18  BANK19  BANK20  BANK21  BANK22  BANK23  BANK24  BANK25
  5254 ;;      Params:         8       0       0       0       0       0       0       0       0       0       0       0       
      +0       0       0       0       0       0       0       0       0       0       0       0       0       0       0
  5255 ;;      Locals:         0       6       0       0       0       0       0       0       0       0       0       0       
      +0       0       0       0       0       0       0       0       0       0       0       0       0       0       0
  5256 ;;      Temps:          1       0       0       0       0       0       0       0       0       0       0       0       
      +0       0       0       0       0       0       0       0       0       0       0       0       0       0       0
  5257 ;;      Totals:         9       6       0       0       0       0       0       0       0       0       0       0       
      +0       0       0       0       0       0       0       0       0       0       0       0       0       0       0
  5258 ;;Total ram usage:       15 bytes
  5259 ;; Hardware stack levels used: 1
  5260 ;; This function calls:
  5261 ;;		Nothing
  5262 ;; This function is called by:
  5263 ;;		_EUSART_Initialize
  5264 ;; This function uses a non-reentrant model
  5265 ;;
  5266                           
  5267     061C                     ___aldiv:	
  5268                           ;psect for function ___aldiv
  5269                           
  5270     061C                     l1656:	
  5271                           ;incstack = 0
  5272                           ; Regs used in ___aldiv: [wreg+status,2+status,0]
  5273                           
  5274     061C  0020               	movlb	0	; select bank0
  5275     061D  01A1               	clrf	___aldiv@sign
  5276     061E                     l1658:
  5277     061E  1FF3               	btfss	___aldiv@divisor+3,7
  5278     061F  2E21               	goto	u1021
  5279     0620  2E22               	goto	u1020
  5280     0621                     u1021:
  5281     0621  2E2F               	goto	l449
  5282     0622                     u1020:
  5283     0622                     l1660:
  5284     0622  09F0               	comf	___aldiv@divisor,f
  5285     0623  09F1               	comf	___aldiv@divisor+1,f
  5286     0624  09F2               	comf	___aldiv@divisor+2,f
  5287     0625  09F3               	comf	___aldiv@divisor+3,f
  5288     0626  0AF0               	incf	___aldiv@divisor,f
  5289     0627  1903               	skipnz
  5290     0628  0AF1               	incf	___aldiv@divisor+1,f
  5291     0629  1903               	skipnz
  5292     062A  0AF2               	incf	___aldiv@divisor+2,f
  5293     062B  1903               	skipnz
  5294     062C  0AF3               	incf	___aldiv@divisor+3,f
  5295     062D  01A1               	clrf	___aldiv@sign
  5296     062E  0AA1               	incf	___aldiv@sign,f
  5297     062F                     l449:
  5298     062F  1FF7               	btfss	___aldiv@dividend+3,7
  5299     0630  2E32               	goto	u1031
  5300     0631  2E33               	goto	u1030
  5301     0632                     u1031:
  5302     0632  2E42               	goto	l1666
  5303     0633                     u1030:
  5304     0633                     l1662:
  5305     0633  09F4               	comf	___aldiv@dividend,f
  5306     0634  09F5               	comf	___aldiv@dividend+1,f
  5307     0635  09F6               	comf	___aldiv@dividend+2,f
  5308     0636  09F7               	comf	___aldiv@dividend+3,f
  5309     0637  0AF4               	incf	___aldiv@dividend,f
  5310     0638  1903               	skipnz
  5311     0639  0AF5               	incf	___aldiv@dividend+1,f
  5312     063A  1903               	skipnz
  5313     063B  0AF6               	incf	___aldiv@dividend+2,f
  5314     063C  1903               	skipnz
  5315     063D  0AF7               	incf	___aldiv@dividend+3,f
  5316     063E                     l1664:
  5317     063E  3001               	movlw	1
  5318     063F  00F8               	movwf	??___aldiv
  5319     0640  0878               	movf	??___aldiv,w
  5320     0641  06A1               	xorwf	___aldiv@sign,f
  5321     0642                     l1666:
  5322     0642  3000               	movlw	0
  5323     0643  00A5               	movwf	___aldiv@quotient+3
  5324     0644  3000               	movlw	0
  5325     0645  00A4               	movwf	___aldiv@quotient+2
  5326     0646  3000               	movlw	0
  5327     0647  00A3               	movwf	___aldiv@quotient+1
  5328     0648  3000               	movlw	0
  5329     0649  00A2               	movwf	___aldiv@quotient
  5330     064A                     l1668:
  5331     064A  0873               	movf	___aldiv@divisor+3,w
  5332     064B  0472               	iorwf	___aldiv@divisor+2,w
  5333     064C  0471               	iorwf	___aldiv@divisor+1,w
  5334     064D  0470               	iorwf	___aldiv@divisor,w
  5335     064E  1903               	skipnz
  5336     064F  2E51               	goto	u1041
  5337     0650  2E52               	goto	u1040
  5338     0651                     u1041:
  5339     0651  2E93               	goto	l1688
  5340     0652                     u1040:
  5341     0652                     l1670:
  5342     0652  01A0               	clrf	___aldiv@counter
  5343     0653  0AA0               	incf	___aldiv@counter,f
  5344     0654  2E60               	goto	l1674
  5345     0655                     l1672:
  5346     0655  3001               	movlw	1
  5347     0656                     u1055:
  5348     0656  35F0               	lslf	___aldiv@divisor,f
  5349     0657  0DF1               	rlf	___aldiv@divisor+1,f
  5350     0658  0DF2               	rlf	___aldiv@divisor+2,f
  5351     0659  0DF3               	rlf	___aldiv@divisor+3,f
  5352     065A  0B89               	decfsz	9,f
  5353     065B  2E56               	goto	u1055
  5354     065C  3001               	movlw	1
  5355     065D  00F8               	movwf	??___aldiv
  5356     065E  0878               	movf	??___aldiv,w
  5357     065F  07A0               	addwf	___aldiv@counter,f
  5358     0660                     l1674:
  5359     0660  1FF3               	btfss	___aldiv@divisor+3,7
  5360     0661  2E63               	goto	u1061
  5361     0662  2E64               	goto	u1060
  5362     0663                     u1061:
  5363     0663  2E55               	goto	l1672
  5364     0664                     u1060:
  5365     0664                     l1676:
  5366     0664  3001               	movlw	1
  5367     0665                     u1075:
  5368     0665  35A2               	lslf	___aldiv@quotient,f
  5369     0666  0DA3               	rlf	___aldiv@quotient+1,f
  5370     0667  0DA4               	rlf	___aldiv@quotient+2,f
  5371     0668  0DA5               	rlf	___aldiv@quotient+3,f
  5372     0669  0B89               	decfsz	9,f
  5373     066A  2E65               	goto	u1075
  5374     066B                     l1678:
  5375     066B  0873               	movf	___aldiv@divisor+3,w
  5376     066C  0277               	subwf	___aldiv@dividend+3,w
  5377     066D  1D03               	skipz
  5378     066E  2E79               	goto	u1085
  5379     066F  0872               	movf	___aldiv@divisor+2,w
  5380     0670  0276               	subwf	___aldiv@dividend+2,w
  5381     0671  1D03               	skipz
  5382     0672  2E79               	goto	u1085
  5383     0673  0871               	movf	___aldiv@divisor+1,w
  5384     0674  0275               	subwf	___aldiv@dividend+1,w
  5385     0675  1D03               	skipz
  5386     0676  2E79               	goto	u1085
  5387     0677  0870               	movf	___aldiv@divisor,w
  5388     0678  0274               	subwf	___aldiv@dividend,w
  5389     0679                     u1085:
  5390     0679  1C03               	skipc
  5391     067A  2E7C               	goto	u1081
  5392     067B  2E7D               	goto	u1080
  5393     067C                     u1081:
  5394     067C  2E86               	goto	l1684
  5395     067D                     u1080:
  5396     067D                     l1680:
  5397     067D  0870               	movf	___aldiv@divisor,w
  5398     067E  02F4               	subwf	___aldiv@dividend,f
  5399     067F  0871               	movf	___aldiv@divisor+1,w
  5400     0680  3BF5               	subwfb	___aldiv@dividend+1,f
  5401     0681  0872               	movf	___aldiv@divisor+2,w
  5402     0682  3BF6               	subwfb	___aldiv@dividend+2,f
  5403     0683  0873               	movf	___aldiv@divisor+3,w
  5404     0684  3BF7               	subwfb	___aldiv@dividend+3,f
  5405     0685                     l1682:
  5406     0685  1422               	bsf	___aldiv@quotient,0
  5407     0686                     l1684:
  5408     0686  3001               	movlw	1
  5409     0687                     u1095:
  5410     0687  36F3               	lsrf	___aldiv@divisor+3,f
  5411     0688  0CF2               	rrf	___aldiv@divisor+2,f
  5412     0689  0CF1               	rrf	___aldiv@divisor+1,f
  5413     068A  0CF0               	rrf	___aldiv@divisor,f
  5414     068B  0B89               	decfsz	9,f
  5415     068C  2E87               	goto	u1095
  5416     068D                     l1686:
  5417     068D  3001               	movlw	1
  5418     068E  02A0               	subwf	___aldiv@counter,f
  5419     068F  1D03               	btfss	3,2
  5420     0690  2E92               	goto	u1101
  5421     0691  2E93               	goto	u1100
  5422     0692                     u1101:
  5423     0692  2E64               	goto	l1676
  5424     0693                     u1100:
  5425     0693                     l1688:
  5426     0693  0821               	movf	___aldiv@sign,w
  5427     0694  1903               	btfsc	3,2
  5428     0695  2E97               	goto	u1111
  5429     0696  2E98               	goto	u1110
  5430     0697                     u1111:
  5431     0697  2EA3               	goto	l1692
  5432     0698                     u1110:
  5433     0698                     l1690:
  5434     0698  09A2               	comf	___aldiv@quotient,f
  5435     0699  09A3               	comf	___aldiv@quotient+1,f
  5436     069A  09A4               	comf	___aldiv@quotient+2,f
  5437     069B  09A5               	comf	___aldiv@quotient+3,f
  5438     069C  0AA2               	incf	___aldiv@quotient,f
  5439     069D  1903               	skipnz
  5440     069E  0AA3               	incf	___aldiv@quotient+1,f
  5441     069F  1903               	skipnz
  5442     06A0  0AA4               	incf	___aldiv@quotient+2,f
  5443     06A1  1903               	skipnz
  5444     06A2  0AA5               	incf	___aldiv@quotient+3,f
  5445     06A3                     l1692:
  5446     06A3  0825               	movf	___aldiv@quotient+3,w
  5447     06A4  00F3               	movwf	?___aldiv+3
  5448     06A5  0824               	movf	___aldiv@quotient+2,w
  5449     06A6  00F2               	movwf	?___aldiv+2
  5450     06A7  0823               	movf	___aldiv@quotient+1,w
  5451     06A8  00F1               	movwf	?___aldiv+1
  5452     06A9  0822               	movf	___aldiv@quotient,w
  5453     06AA  00F0               	movwf	?___aldiv
  5454     06AB                     l459:
  5455     06AB  0008               	return
  5456     06AC                     __end_of___aldiv:
  5457     007E                     btemp	set	126	;btemp
  5458     007E                     wtemp0	set	126
  5459                           
  5460                           	psect	config
  5461                           
  5462                           ;Config register CONFIG1 @ 0x8007
  5463                           ;	Oscillator Selection Bits
  5464                           ;	FOSC = INTOSC, INTOSC oscillator: I/O function on CLKIN pin
  5465                           ;	Watchdog Timer Enable
  5466                           ;	WDTE = OFF, WDT disabled
  5467                           ;	Power-up Timer Enable
  5468                           ;	PWRTE = OFF, PWRT disabled
  5469                           ;	MCLR Pin Function Select
  5470                           ;	MCLRE = OFF, MCLR/VPP pin function is digital input if LVP bit is also 0.
  5471                           ;	Flash Program Memory Code Protection
  5472                           ;	CP = OFF, Program memory code protection is disabled
  5473                           ;	Brown-out Reset Enable
  5474                           ;	BOREN = OFF, Brown-out Reset disabled
  5475                           ;	Clock Out Enable
  5476                           ;	CLKOUTEN = OFF, CLKOUT function is disabled. I/O or oscillator function on the CLKOUT 
      +                          pin
  5477                           ;	Internal/External Switchover Mode
  5478                           ;	IESO = ON, Internal/External Switchover Mode is enabled
  5479                           ;	Fail-Safe Clock Monitor Enable
  5480                           ;	FCMEN = OFF, Fail-Safe Clock Monitor is disabled
  5481     8007                     	org	32775
  5482     8007  19A4               	dw	6564
  5483                           
  5484                           ;Config register CONFIG2 @ 0x8008
  5485                           ;	Flash Memory Self-Write Protection
  5486                           ;	WRT = OFF, Write protection off
  5487                           ;	Peripheral Pin Select one-way control
  5488                           ;	PPS1WAY = ON, The PPSLOCK bit cannot be cleared once it is set by software
  5489                           ;	Zero-cross detect disable
  5490                           ;	ZCDDIS = ON, ZCD disabled. ZCD can be enabled by setting the ZCDSEN bit of ZCDCON
  5491                           ;	Phase Lock Loop enable
  5492                           ;	PLLEN = OFF, 4x PLL is disabled
  5493                           ;	Stack Overflow/Underflow Reset Enable
  5494                           ;	STVREN = ON, Stack Overflow or Underflow will cause a Reset
  5495                           ;	Brown-out Reset Voltage Selection
  5496                           ;	BORV = LO, Brown-out Reset Voltage (Vbor), low trip point selected.
  5497                           ;	Low-Power Brown Out Reset
  5498                           ;	LPBOR = OFF, Low-Power BOR is disabled
  5499                           ;	In-Circuit Debugger Mode
  5500                           ;	DEBUG = 0x1, unprogrammed default
  5501                           ;	Low-Voltage Programming Enable
  5502                           ;	LVP = OFF, High-voltage on MCLR/VPP must be used for programming
  5503     8008                     	org	32776
  5504     8008  1EFF               	dw	7935

Data Sizes:
    Strings     114
    Constant    23
    Data        13
    BSS         0
    Persistent  32
    Stack       0

Auto Spaces:
    Space          Size  Autos    Used
    COMMON           14     14      14
    BANK0            80     52      65
    BANK1            80      0       0
    BANK2            80      0       0
    BANK3            80      0       0
    BANK4            80      0       0
    BANK5            80      0       0
    BANK6            80      0       0
    BANK7            80      0       0
    BANK8            80      0       0
    BANK9            80      0       0
    BANK10           80      0       0
    BANK11           80      0       0
    BANK12           80      0       0
    BANK13           80      0       0
    BANK14           80      0       0
    BANK15           80      0       0
    BANK16           80      0       0
    BANK17           80      0       0
    BANK18           80      0       0
    BANK19           80      0       0
    BANK20           80      0       0
    BANK21           80      0       0
    BANK22           80      0       0
    BANK23           80      0       0
    BANK24           80      0       0
    BANK25           32      0       0

Pointer List with Targets:

    EUSART_Write_Integer@ptr	PTR unsigned char  size(1) Largest target is 20
		 -> EUSART_Write_Integer@buffer(BANK0[20]), 

    EUSART_Write_Integer@temp_ptr	PTR unsigned char  size(1) Largest target is 20
		 -> EUSART_Write_Integer@buffer(BANK0[20]), 

    EUSART_Write_Text@text	PTR unsigned char  size(2) Largest target is 31
		 -> STR_1(CODE[27]), STR_10(CODE[12]), STR_11(CODE[12]), STR_12(CODE[2]), 
		 -> STR_2(CODE[6]), STR_9(CODE[31]), 

    itoa@buf	PTR PTR unsigned char  size(1) Largest target is 1
		 -> EUSART_Write_Integer@ptr(BANK0[1]), 

    main$531	PTR const unsigned char  size(2) Largest target is 12
		 -> STR_10(CODE[12]), STR_11(CODE[12]), 

    main@cmds	PTR const unsigned char [6] size(2) Largest target is 6
		 -> STR_3(CODE[3]), STR_4(CODE[4]), STR_5(CODE[3]), STR_6(CODE[5]), 
		 -> STR_7(CODE[5]), STR_8(CODE[6]), 

    main@F6295	PTR const unsigned char [6] size(2) Largest target is 6
		 -> STR_3(CODE[3]), STR_4(CODE[4]), STR_5(CODE[3]), STR_6(CODE[5]), 
		 -> STR_7(CODE[5]), STR_8(CODE[6]), 

    make_cmd5@out	PTR unsigned char  size(1) Largest target is 5
		 -> main@pkt(BANK0[5]), 

    make_cmd5@s	PTR const unsigned char  size(2) Largest target is 6
		 -> STR_3(CODE[3]), STR_4(CODE[4]), STR_5(CODE[3]), STR_6(CODE[5]), 
		 -> STR_7(CODE[5]), STR_8(CODE[6]), 

    nrf_write_buf@buf	PTR const unsigned char  size(2) Largest target is 5
		 -> adr0(CODE[5]), 

    nrf_write_payload@buf	PTR const unsigned char  size(1) Largest target is 5
		 -> main@pkt(BANK0[5]), 

    tx_send_packet@payload5	PTR const unsigned char  size(1) Largest target is 5
		 -> main@pkt(BANK0[5]), 

    uart_print@s	PTR const unsigned char  size(2) Largest target is 31
		 -> STR_1(CODE[27]), STR_10(CODE[12]), STR_11(CODE[12]), STR_12(CODE[2]), 
		 -> STR_2(CODE[6]), STR_9(CODE[31]), 

    uart_write_n@buf	PTR const unsigned char  size(1) Largest target is 5
		 -> main@pkt(BANK0[5]), 


Critical Paths under _main in COMMON

    _main->_EUSART_Write_Integer
    _uart_write_n->_EUSART_Write
    _uart_print->_EUSART_Write_Text
    _EUSART_Write_Text->_EUSART_Write
    _uart_crlf->_EUSART_Write
    _tx_send_packet->_nrf_write_payload
    _nrf_write_payload->_spi_xfer
    _nrf_read_reg->_spi_xfer
    _radio_init_tx->_radio_common_setup
    _radio_common_setup->_nrf_write_buf
    _nrf_write_buf->_spi_xfer
    _nrf_flush_all->_nrf_cmd
    _nrf_cmd->_spi_xfer
    _nrf_clear_irqs->_nrf_write_reg
    _nrf_write_reg->_spi_xfer
    _spi_xfer->_SPI_Exchange8bit
    _EUSART_Write_Integer->_itoa
    _itoa->___awdiv
    _EUSART_Initialize->___aldiv

Critical Paths under _main in BANK0

    _main->_EUSART_Write_Integer
    _EUSART_Write_Integer->_itoa
    _EUSART_Initialize->___aldiv

Critical Paths under _main in BANK1

    None.

Critical Paths under _main in BANK2

    None.

Critical Paths under _main in BANK3

    None.

Critical Paths under _main in BANK4

    None.

Critical Paths under _main in BANK5

    None.

Critical Paths under _main in BANK6

    None.

Critical Paths under _main in BANK7

    None.

Critical Paths under _main in BANK8

    None.

Critical Paths under _main in BANK9

    None.

Critical Paths under _main in BANK10

    None.

Critical Paths under _main in BANK11

    None.

Critical Paths under _main in BANK12

    None.

Critical Paths under _main in BANK13

    None.

Critical Paths under _main in BANK14

    None.

Critical Paths under _main in BANK15

    None.

Critical Paths under _main in BANK16

    None.

Critical Paths under _main in BANK17

    None.

Critical Paths under _main in BANK18

    None.

Critical Paths under _main in BANK19

    None.

Critical Paths under _main in BANK20

    None.

Critical Paths under _main in BANK21

    None.

Critical Paths under _main in BANK22

    None.

Critical Paths under _main in BANK23

    None.

Critical Paths under _main in BANK24

    None.

Critical Paths under _main in BANK25

    None.

Call Graph Tables:

 ---------------------------------------------------------------------------------
 (Depth) Function   	        Calls       Base Space   Used Autos Params    Refs
 ---------------------------------------------------------------------------------
 (0) _main                                                23    23      0   10677
                                             29 BANK0     23    23      0
                  _EUSART_Initialize
               _EUSART_Write_Integer
                     _SPI_Initialize
               _button_pressed_event
                           _initMain
                          _make_cmd5
                      _radio_init_tx
                     _tx_send_packet
                          _uart_crlf
                         _uart_print
                       _uart_write_n
 ---------------------------------------------------------------------------------
 (1) _uart_write_n                                         4     3      1     221
                                              1 COMMON     4     3      1
                       _EUSART_Write
 ---------------------------------------------------------------------------------
 (1) _uart_print                                           2     0      2     590
                                              6 COMMON     2     0      2
                  _EUSART_Write_Text
 ---------------------------------------------------------------------------------
 (2) _EUSART_Write_Text                                    5     3      2     188
                                              1 COMMON     5     3      2
                       _EUSART_Write
 ---------------------------------------------------------------------------------
 (1) _uart_crlf                                            0     0      0      22
                       _EUSART_Write
 ---------------------------------------------------------------------------------
 (1) _tx_send_packet                                       6     6      0    2549
                                              7 COMMON     6     6      0
                               _CE_H
                               _CE_L
                     _nrf_clear_irqs
                            _nrf_cmd
                       _nrf_read_reg
                  _nrf_write_payload
                      _nrf_write_reg
 ---------------------------------------------------------------------------------
 (2) _nrf_write_payload                                    4     3      1     244
                                              3 COMMON     4     3      1
                              _CSN_H
                              _CSN_L
                           _spi_xfer
 ---------------------------------------------------------------------------------
 (2) _nrf_read_reg                                         2     2      0      90
                                              3 COMMON     2     2      0
                              _CSN_H
                              _CSN_L
                           _spi_xfer
 ---------------------------------------------------------------------------------
 (2) _CE_H                                                 0     0      0       0
 ---------------------------------------------------------------------------------
 (1) _radio_init_tx                                        1     1      0    3531
                                             11 COMMON     1     1      0
                               _CE_L
                      _nrf_write_reg
                 _radio_common_setup
 ---------------------------------------------------------------------------------
 (2) _radio_common_setup                                   1     1      0    2530
                                             10 COMMON     1     1      0
                               _CE_L
                     _nrf_clear_irqs
                      _nrf_flush_all
                      _nrf_write_buf
                      _nrf_write_reg
 ---------------------------------------------------------------------------------
 (3) _nrf_write_buf                                        7     4      3     461
                                              3 COMMON     7     4      3
                              _CSN_H
                              _CSN_L
                           _spi_xfer
 ---------------------------------------------------------------------------------
 (3) _nrf_flush_all                                        0     0      0      67
                            _nrf_cmd
 ---------------------------------------------------------------------------------
 (2) _nrf_cmd                                              1     1      0      67
                                              3 COMMON     1     1      0
                              _CSN_H
                              _CSN_L
                           _spi_xfer
 ---------------------------------------------------------------------------------
 (2) _nrf_clear_irqs                                       0     0      0    1001
                      _nrf_write_reg
 ---------------------------------------------------------------------------------
 (2) _nrf_write_reg                                        2     1      1    1001
                                              3 COMMON     2     1      1
                              _CSN_H
                              _CSN_L
                           _spi_xfer
 ---------------------------------------------------------------------------------
 (3) _spi_xfer                                             1     1      0      45
                                              2 COMMON     1     1      0
                   _SPI_Exchange8bit
 ---------------------------------------------------------------------------------
 (4) _SPI_Exchange8bit                                     2     2      0      23
                                              0 COMMON     2     2      0
 ---------------------------------------------------------------------------------
 (3) _CSN_L                                                0     0      0       0
 ---------------------------------------------------------------------------------
 (1) _make_cmd5                                            7     5      2     375
                                              0 COMMON     7     5      2
 ---------------------------------------------------------------------------------
 (1) _initMain                                             2     2      0       0
                                              0 COMMON     2     2      0
                               _CE_L
                              _CSN_H
                        _internal_32
 ---------------------------------------------------------------------------------
 (2) _internal_32                                          0     0      0       0
 ---------------------------------------------------------------------------------
 (3) _CSN_H                                                0     0      0       0
 ---------------------------------------------------------------------------------
 (2) _CE_L                                                 0     0      0       0
 ---------------------------------------------------------------------------------
 (1) _button_pressed_event                                 2     2      0      90
                                              0 COMMON     2     2      0
 ---------------------------------------------------------------------------------
 (1) _SPI_Initialize                                       0     0      0       0
 ---------------------------------------------------------------------------------
 (1) _EUSART_Write_Integer                                25    23      2    2491
                                             11 COMMON     3     1      2
                                              7 BANK0     22    22      0
                       _EUSART_Write
                               _itoa
 ---------------------------------------------------------------------------------
 (2) _itoa                                                 9     7      2    2169
                                              9 COMMON     2     0      2
                                              0 BANK0      7     7      0
                            ___awdiv
                            ___awmod
                             ___wmul
 ---------------------------------------------------------------------------------
 (3) ___wmul                                               6     2      4     344
                                              0 COMMON     6     2      4
 ---------------------------------------------------------------------------------
 (3) ___awmod                                              7     3      4     448
                                              0 COMMON     7     3      4
 ---------------------------------------------------------------------------------
 (3) ___awdiv                                              9     5      4     908
                                              0 COMMON     9     5      4
 ---------------------------------------------------------------------------------
 (2) _EUSART_Write                                         1     1      0      22
                                              0 COMMON     1     1      0
 ---------------------------------------------------------------------------------
 (1) _EUSART_Initialize                                   18    14      4     595
                                              9 COMMON     2     2      0
                                              6 BANK0     16    12      4
                            ___aldiv
 ---------------------------------------------------------------------------------
 (2) ___aldiv                                             15     7      8     452
                                              0 COMMON     9     1      8
                                              0 BANK0      6     6      0
 ---------------------------------------------------------------------------------
 Estimated maximum stack depth 4
 ---------------------------------------------------------------------------------

 Call Graph Graphs:

 _main (ROOT)
   _EUSART_Initialize
     ___aldiv
   _EUSART_Write_Integer
     _EUSART_Write
     _itoa
       ___awdiv
       ___awmod
       ___wmul
   _SPI_Initialize
   _button_pressed_event
   _initMain
     _CE_L
     _CSN_H
     _internal_32
   _make_cmd5
   _radio_init_tx
     _CE_L
     _nrf_write_reg
       _CSN_H
       _CSN_L
       _spi_xfer
         _SPI_Exchange8bit
     _radio_common_setup
       _CE_L
       _nrf_clear_irqs
         _nrf_write_reg
       _nrf_flush_all
         _nrf_cmd
           _CSN_H
           _CSN_L
           _spi_xfer
       _nrf_write_buf
         _CSN_H
         _CSN_L
         _spi_xfer
       _nrf_write_reg
   _tx_send_packet
     _CE_H
     _CE_L
     _nrf_clear_irqs
     _nrf_cmd
     _nrf_read_reg
       _CSN_H
       _CSN_L
       _spi_xfer
     _nrf_write_payload
       _CSN_H
       _CSN_L
       _spi_xfer
     _nrf_write_reg
   _uart_crlf
     _EUSART_Write
   _uart_print
     _EUSART_Write_Text
       _EUSART_Write
   _uart_write_n
     _EUSART_Write

 Address spaces:
Name               Size   Autos  Total    Cost      Usage
BIGRAM             7F0      0       0       0        0.0%
NULL                 0      0       0       0        0.0%
CODE                 0      0       0       0        0.0%
BITCOMMON            E      0       0       1        0.0%
BITSFR0              0      0       0       1        0.0%
SFR0                 0      0       0       1        0.0%
COMMON               E      E       E       2      100.0%
BITSFR1              0      0       0       2        0.0%
SFR1                 0      0       0       2        0.0%
BITSFR2              0      0       0       3        0.0%
SFR2                 0      0       0       3        0.0%
STACK                0      0       0       3        0.0%
BITBANK0            50      0       0       4        0.0%
BITSFR3              0      0       0       4        0.0%
SFR3                 0      0       0       4        0.0%
BANK0               50     34      41       5       81.2%
BITSFR4              0      0       0       5        0.0%
SFR4                 0      0       0       5        0.0%
BITBANK1            50      0       0       6        0.0%
BITSFR5              0      0       0       6        0.0%
SFR5                 0      0       0       6        0.0%
BANK1               50      0       0       7        0.0%
BITSFR6              0      0       0       7        0.0%
SFR6                 0      0       0       7        0.0%
BITBANK2            50      0       0       8        0.0%
BITSFR7              0      0       0       8        0.0%
SFR7                 0      0       0       8        0.0%
BANK2               50      0       0       9        0.0%
BITSFR8              0      0       0       9        0.0%
SFR8                 0      0       0       9        0.0%
BITBANK3            50      0       0      10        0.0%
BITSFR9              0      0       0      10        0.0%
SFR9                 0      0       0      10        0.0%
BANK3               50      0       0      11        0.0%
BITSFR10             0      0       0      11        0.0%
SFR10                0      0       0      11        0.0%
BITBANK4            50      0       0      12        0.0%
BITSFR11             0      0       0      12        0.0%
SFR11                0      0       0      12        0.0%
BANK4               50      0       0      13        0.0%
BITSFR12             0      0       0      13        0.0%
SFR12                0      0       0      13        0.0%
BITSFR13             0      0       0      14        0.0%
SFR13                0      0       0      14        0.0%
ABS                  0      0      4F      14        0.0%
BITBANK5            50      0       0      15        0.0%
BITSFR14             0      0       0      15        0.0%
SFR14                0      0       0      15        0.0%
BANK5               50      0       0      16        0.0%
BITSFR15             0      0       0      16        0.0%
SFR15                0      0       0      16        0.0%
BITBANK6            50      0       0      17        0.0%
BITSFR16             0      0       0      17        0.0%
SFR16                0      0       0      17        0.0%
BANK6               50      0       0      18        0.0%
BITSFR17             0      0       0      18        0.0%
SFR17                0      0       0      18        0.0%
BITBANK7            50      0       0      19        0.0%
BITSFR18             0      0       0      19        0.0%
SFR18                0      0       0      19        0.0%
BANK7               50      0       0      20        0.0%
BITSFR19             0      0       0      20        0.0%
SFR19                0      0       0      20        0.0%
BITBANK8            50      0       0      21        0.0%
BITSFR20             0      0       0      21        0.0%
SFR20                0      0       0      21        0.0%
BANK8               50      0       0      22        0.0%
BITSFR21             0      0       0      22        0.0%
SFR21                0      0       0      22        0.0%
BITBANK9            50      0       0      23        0.0%
BITSFR22             0      0       0      23        0.0%
SFR22                0      0       0      23        0.0%
BANK9               50      0       0      24        0.0%
BITSFR23             0      0       0      24        0.0%
SFR23                0      0       0      24        0.0%
BITBANK10           50      0       0      25        0.0%
BITSFR24             0      0       0      25        0.0%
SFR24                0      0       0      25        0.0%
BANK10              50      0       0      26        0.0%
BITSFR25             0      0       0      26        0.0%
SFR25                0      0       0      26        0.0%
BITBANK11           50      0       0      27        0.0%
BITSFR26             0      0       0      27        0.0%
SFR26                0      0       0      27        0.0%
BITSFR27             0      0       0      28        0.0%
SFR27                0      0       0      28        0.0%
DATA                 0      0      4F      28        0.0%
BANK11              50      0       0      29        0.0%
BITSFR28             0      0       0      29        0.0%
SFR28                0      0       0      29        0.0%
BITBANK12           50      0       0      30        0.0%
BITSFR29             0      0       0      30        0.0%
SFR29                0      0       0      30        0.0%
BANK12              50      0       0      31        0.0%
BITSFR30             0      0       0      31        0.0%
SFR30                0      0       0      31        0.0%
BITBANK13           50      0       0      32        0.0%
BITSFR31             0      0       0      32        0.0%
SFR31                0      0       0      32        0.0%
BANK13              50      0       0      33        0.0%
BITBANK14           50      0       0      34        0.0%
BANK14              50      0       0      35        0.0%
BITBANK15           50      0       0      36        0.0%
BANK15              50      0       0      37        0.0%
BITBANK16           50      0       0      38        0.0%
BANK16              50      0       0      39        0.0%
BITBANK17           50      0       0      40        0.0%
BANK17              50      0       0      41        0.0%
BITBANK18           50      0       0      42        0.0%
BANK18              50      0       0      43        0.0%
BITBANK19           50      0       0      44        0.0%
BANK19              50      0       0      45        0.0%
BITBANK20           50      0       0      46        0.0%
BANK20              50      0       0      47        0.0%
BITBANK21           50      0       0      48        0.0%
BANK21              50      0       0      49        0.0%
BITBANK22           50      0       0      50        0.0%
BANK22              50      0       0      51        0.0%
BITBANK23           50      0       0      52        0.0%
BANK23              50      0       0      53        0.0%
BITBANK24           50      0       0      54        0.0%
BANK24              50      0       0      55        0.0%
BITBANK25           20      0       0      56        0.0%
BANK25              20      0       0      57        0.0%


Microchip Technology PIC Macro Assembler V2.46 build 20240104201356 
Symbol Table                                                                                   Thu Jan 29 16:47:02 2026

                   _SPI_Initialize 0244                      uart_write_n@i 0074  
                    uart_write_n@n 0071                                 l17 0262  
                               l50 024A                                 l54 02A3  
                               l57 02A8                       ___awdiv@sign 0076  
              ___wmul@multiplicand 0072                                l200 0466  
                              l130 0237                                l203 02E1  
                              l211 0591                                l212 05BC  
                              l300 0316                                l133 022E  
                              l310 0744                                l304 06EA  
                              l224 03A3                                l136 0231  
                              l216 055F                                l232 0419  
                              l144 0274                                l161 023D  
                              l153 02F9                                l170 02CD  
                              l139 0234                                l147 0259  
                              l316 037B                                l182 0251  
                              l167 02BA                                l176 03CC  
                              l185 026B                                l275 04B6  
                              l291 0276                                l179 028A  
                              l197 0357                                l294 027E  
                              l550 0509                                l384 0321  
                              l449 062F                                l537 061B  
                              l386 0335                                l459 06AB  
                              u700 029E                                u701 029D  
                              u710 02A7                                u711 02A6  
                              u720 027B                                u800 05DE  
                              u721 027A                                u801 05DD  
                              u730 03C9                                u731 03C8  
                              u820 05EE                                u900 04D2  
                              u740 031D                                u821 05ED  
                              u901 04D1                                u741 031C  
                              u815 05E2                                u840 05FD  
                              u920 04E2                                u841 05FC  
                              u921 04E1                                u930 04EC  
                              u770 0331                                u835 05EF  
                              u931 04EB                                u915 04D6  
                              u771 0330                                u755 0322  
                              u860 060D                                u780 05C2  
                              u861 060C                                u845 05F9  
                              u781 05C1                                u765 0327  
                              u870 0612                                u790 05CD  
                              u950 04FB                                u871 0611  
                              u855 0603                                u791 05CC  
                              u951 04FA                                u935 04E8  
                              u960 0500                                u880 04BC  
                              u961 04FF                                u945 04F1  
                              u881 04BB                                u890 04C7  
                              u970 0316                                u891 04C6  
                              u971 0315                                u980 0354  
                              u981 0353                                u990 06B6  
                              u991 06B5                       ___awmod@sign 0076  
                              wreg 0009                    uart_write_n@buf 0073  
                             l2000 07E7                               l2002 07ED  
                             l1500 031D                               l1510 05BD  
                             l1502 0326                               l1520 05CD  
                             l1512 05BE                               l1504 032B  
                             l1600 0307                               l1530 05E1  
                             l1522 05D2                               l1514 05C2  
                             l1506 0331                               l1442 0299  
                             l1610 02C9                               l1602 030B  
                             l1540 0601                               l1532 05E6  
                             l1524 05D6                               l1516 05C7  
                             l1452 022F                               l1444 029E  
                             l1460 02AA                               l1612 02CC  
                             l1604 02BC                               l1620 033E  
                             l1700 026C                               l1550 0617  
                             l1542 0602                               l1534 05EA  
                             l1526 05D8                               l1518 05C9  
                             l1454 0232                               l1446 02A0  
                             l1462 02AD                               l1470 0287  
                             l1630 041A                               l1606 02BF  
                             l1622 0340                               l1702 0252  
                             l1710 02F3                               l1544 0607  
                             l1536 05EE                               l1528 05DE  
                             l1560 04C1                               l1640 06B6  
                             l1472 022C                               l1800 053A  
                             l1448 02A7                               l1456 0239  
                             l1464 02B3                               l1480 03A8  
                             l1632 041D                               l1712 02CE  
                             l1608 02C4                               l1624 034A  
                             l1616 0337                               l1720 0561  
                             l1704 02E3                               l1474 0276  
                             l1538 05FD                               l1546 060D  
                             l1570 04D5                               l1562 04C3  
                             l1554 04B7                               l1650 072C  
                             l1642 06BF                               l1810 0547  
                             l1802 053C                               l1466 0280  
                             l1490 03C9                               l1482 03AE  
                             l1634 044C                               l1714 02D1  
                             l1626 034E                               l1618 033A  
                             l1730 0578                               l1722 0568  
                             l1706 02E5                               l1660 0622  
                             l1476 027B                               l1548 0612  
                             l1580 04F0                               l1572 04DA  
                             l1564 04C7                               l1556 04B8  
                             l1652 0736                               l1644 06C4  
                             l1820 055C                               l1812 054C  
                             l1804 053F                               l1492 024B  
                             l1468 0283                               l1484 03B0  
                             l1636 0456                               l1716 02D7  
                             l1628 0354                               l1740 0589  
                             l1724 056E                               l1708 02EF  
                             l1670 0652                               l1662 0633  
                             l1582 04F5                               l1574 04DE  
                             l1566 04CC                               l1558 04BC  
                             l1654 073D                               l1646 06C9  
                             l1638 06AE                               l1830 038E  
                             l1822 055E                               l1814 0550  
                             l1806 0541                               l1494 0263  
                             l1486 03BF                               l1478 03A5  
                             l1718 02DE                               l1742 058F  
                             l1726 0571                               l1680 067D  
                             l1672 0655                               l1664 063E  
                             l1656 061C                               l1576 04E2  
                             l1568 04D2                               l1584 04FB  
                             l1496 0317                               l1648 06FC  
                             l1832 0393                               l1824 037C  
                             l1592 025A                               l1816 0555  
                             l1808 0542                               l1488 03C3  
                             l1752 05A1                               l1736 0580  
                             l1728 0575                               l1690 0698  
                             l1682 0685                               l1674 0660  
                             l1666 0642                               l1658 061E  
                             l1586 0500                               l1578 04EC  
                             l1498 0319                               l1834 0399  
                             l1842 03A2                               l1826 0381  
                             l1818 0559                               l1770 051D  
                             l1762 050A                               l1850 03DE  
                             l1594 0235                               l1754 05A9  
                             l1746 0595                               l1738 0585  
                             l1692 06A3                               l1684 0686  
                             l1676 0664                               l1668 064A  
                             l1588 0505                               l1836 039B  
                             l1828 0387                               l1780 0526  
                             l1772 051F                               l1764 050D  
                             l1860 0403                               l1852 03E4  
                             l1756 05B7                               l1748 059F  
                             l1596 02FA                               l1686 068D  
                             l1678 066B                               l1870 04B1  
                             l1838 03A0                               l1790 052E  
                             l1782 0528                               l1774 0521  
                             l1766 0519                               l1862 0409  
                             l1854 03EA                               l1846 03CE  
                             l1598 02FD                               l1688 0693  
                             l1872 04B2                               l1864 0467  
                             l1696 0244                               l1792 0531  
                             l1784 052A                               l1776 0522  
                             l1768 051B                               l1856 03EC  
                             l1848 03D8                               l1960 076D  
                             l1952 0745                               l1874 04B3  
                             l1866 04AD                               l1890 036E  
                             l1882 0358                               l1698 0249  
                             l1794 0534                               l1786 052C  
                             l1778 0524                               l1858 03FF  
                             l1970 0788                               l1962 0774  
                             l1954 0757                               l1876 04B4  
                             l1868 04B0                               l1892 0373  
                             l1884 035B                               l1796 0536  
                             l1788 052D                               l1980 07AA  
                             l1972 0797                               l1964 077B  
                             l1956 0763                               l1878 04B5  
                             l1886 0363                               l1798 0538  
                             l1990 07CB                               l1982 07B7  
                             l1974 0798                               l1966 0782  
                             l1958 0766                               l1888 0367  
                             l1992 07D2                               l1984 07BD  
                             l1976 079F                               l1968 0785  
       EUSART_Write_Integer@buffer 0027                               l1994 07D8  
                             l1986 07C2                               l1978 07A2  
                             l1996 07DF                               l1988 07C7  
                             l1998 07E2                               STR_1 0824  
                             STR_2 0868                               STR_3 0882  
                             STR_4 087E                               STR_5 0885  
                             STR_6 0874                               STR_7 0879  
                             STR_8 086E                               STR_9 0805  
                             _BRGH 0CF2                               _CE_H 0235  
                             _CE_L 022C                               u1000 06FB  
                             _CREN 0CEC                               u1001 06FA  
                             u1010 073D                               u1011 073C  
                             u1100 0693                               u1020 0622  
                             u1101 0692                               u1021 0621  
                             u1110 0698                               u1030 0633  
                             u1111 0697                               u1031 0632  
                             u1040 0652                               u1200 0419  
                             u1120 02F9                               u1041 0651  
                             u1201 0418                               u1121 02F8  
                             u1210 0475                               u1130 0589  
                             u1131 0588                               u1060 0664  
                             u1220 048C                               u1140 0595  
                             u1061 0663                               u1141 0594  
                             u1230 037B                               u1150 05B7  
                             u1055 0656                               u1215 0471  
                             u1231 037A                               u1151 05B6  
                             u1080 067D                               u1160 0387  
                             u1320 0793                               u1081 067C  
                             u1225 0488                               u1161 0386  
                             u1170 0399                               u1330 07AA  
                             u1075 0665                               u1171 0398  
                             u1331 07A9                               u1180 03A0  
                             u1340 07C2                               u1085 0679  
                             u1181 039F                               u1341 07C1  
                             u1190 0409                               u1350 07ED  
                             u1095 0687                               u1407 0512  
                             u1191 0408                               u1351 07EC  
                             u1417 038A                               u1367 075D  
                             u1377 0572                               u1387 02DA  
                             u1397 0420                               _SCS0 04C8  
                             _SCS1 04C9                               _SPEN 0CEF  
                             _TXEN 0CF5                               _SYNC 0CF4  
                             _adr0 0800                               _main 0745  
                             _itoa 06AC                               fsr0h 0005  
                             fsr1h 0007                               indf0 0000  
                             fsr0l 0004                               indf1 0001  
                             fsr1l 0006                               btemp 007E  
                             start 0002             __end_of_SPI_Initialize 024B  
                            ?_CE_H 0070                              ?_CE_L 0070  
                    ?_EUSART_Write 0070                    __end_of___aldiv 06AC  
                            ?_main 0070                              ?_itoa 0079  
                  __end_of___awdiv 061C                              STR_10 085C  
                            STR_11 0850                              STR_12 085A  
                            _BRG16 0CFB                    __end_of___awmod 050A  
                  ___awdiv@divisor 0070                              _IRCF0 04CB  
                            _IRCF1 04CC                              _IRCF2 04CD  
                            _IRCF3 04CE                              _CSN_H 022F  
                            _CSN_L 0232                    ___awdiv@counter 0075  
                            main@N 0888                    __end_of_nrf_cmd 028B  
                            itoa@d 0079             ??_button_pressed_event 0070  
                            status 0003                              wtemp0 007E  
                     ?_internal_32 0070                       __end_of_CE_H 0238  
                     __end_of_CE_L 022F                    ?_SPI_Initialize 0070  
            __end_of_nrf_flush_all 026C                     _nrf_clear_irqs 024B  
                  __initialization 07F1                       __end_of_adr0 0805  
                     __end_of_main 07F1                       __end_of_itoa 0745  
                   ??_EUSART_Write 0070                             ??_CE_H 0070  
                           ??_CE_L 0070                       make_cmd5@out 0076  
             nrf_write_payload@buf 0075                             ??_main 003D  
             nrf_write_payload@len 0073                             ??_itoa 007B  
                           ?_CSN_H 0070                             ?_CSN_L 0070  
         __end_of_SPI_Exchange8bit 02A9                   ___awdiv@dividend 0072  
               __end_ofuart_hex8@h 0850                             _RC1REG 0199  
                           _SPBRGL 019B                             _TX1REG 019A  
                           _SPLLEN 04CF                             _SSPBUF 0211  
           __end_of_nrf_clear_irqs 0252              __end_of_nrf_write_buf 03CD  
            __end_of_nrf_write_reg 02BB                          ??___aldiv 0078  
                           ___wmul 0317                          ??___awdiv 0074  
                        ??___awmod 0074                   __end_of_initMain 0560  
                 ___awdiv@quotient 0077                    ___awmod@divisor 0070  
                  ___awmod@counter 0075                             main@ok 0052  
                        ??_nrf_cmd 0073                     nrf_write_buf@i 0079  
                 __end_of_spi_xfer 023E            __end_of__initialization 07FD  
                  ?_nrf_clear_irqs 0070                      __end_of_CSN_H 0232  
                    __end_of_CSN_L 0235                     __pcstackCOMMON 0070  
                     __pidataBANK0 028B                      __end_ofmain@N 0889  
                          ??_CSN_H 0070                            ??_CSN_L 0070  
                   _OPTION_REGbits 0095            button_pressed_event@now 0071  
             __end_of_EUSART_Write 027F                         __pmaintext 0745  
                    ?_nrf_read_reg 0070                            ?___wmul 0070  
                    _radio_init_tx 02CE                            _SSP1ADD 0212  
                          _PPSLOCK 0E0F                   ??_SPI_Initialize 0070  
                        ?_initMain 0070                     ??_nrf_read_reg 0073  
                          ___aldiv 061C                            ___awdiv 05BD  
                        ?_spi_xfer 0070                            ___awmod 04B7  
                __end_of_make_cmd5 041A                     ?_radio_init_tx 0070  
                          __ptext1 02E2                            __ptext2 0252  
                          __ptext3 02FA                            __ptext4 026C  
                          __ptext5 0560                            __ptext6 0336  
                          __ptext7 02BB                            __ptext8 0235  
                          __ptext9 02CE                   ___awmod@dividend 0072  
                 ___aldiv@dividend 0074                            _nrf_cmd 027F  
                ?_SPI_Exchange8bit 0070                            main@idx 0053  
                          main@pkt 004B               end_of_initialization 07FD  
               ??_SPI_Exchange8bit 0070               SPI_Exchange8bit@data 0070  
                       ??_initMain 0070                            itoa@div 0025  
                          itoa@buf 0024                            init_ram 023E  
                          itoa@num 0020                            initloop 023F  
                _EUSART_Initialize 0467                  __end_of_uart_crlf 0275  
                    ?_uart_write_n 0071                 ?_EUSART_Initialize 0026  
           tx_send_packet@payload5 0077                   ___aldiv@quotient 0022  
                   _tx_send_packet 0560                         ??_spi_xfer 0072  
               EUSART_Initialize@x 0079                         _uart_print 0252  
              ??_EUSART_Initialize 002A                          _PORTBbits 000D  
                    nrf_read_reg@v 0074                        uart_print@s 0076  
                        _TRISBbits 008D                          _TRISCbits 008E  
                 ??_nrf_clear_irqs 0075                          _RXPPSbits 0E24  
        __end_of_EUSART_Initialize 04B7       __end_of_EUSART_Write_Integer 037C  
                   ??_uart_write_n 0072             __end_of_tx_send_packet 05BD  
                  ??_radio_init_tx 007B                         make_cmd5@i 0075  
                       make_cmd5@s 0070                     __end_of___wmul 0336  
                     _EUSART_Write 0275                start_initialization 07F1  
EUSART_Write_Integer@value_to_send 007B               __end_of_nrf_read_reg 02CE  
                _EUSART_Write_Text 02FA                 ?_EUSART_Write_Text 0071  
                  ?_tx_send_packet 0070                      _nrf_flush_all 0263  
                         ??___wmul 0074                        __pdataBANK0 0054  
              ??_EUSART_Write_Text 0073                        ?_uart_print 0076  
         button_pressed_event@last 0060         __end_of_radio_common_setup 0467  
                        ___latbits 0003                      __pcstackBANK0 0020  
        __end_of_EUSART_Write_Text 0317                      ??_internal_32 0070  
                   ?_nrf_flush_all 0070                         nrf_cmd@cmd 0073  
                         ?___aldiv 0070                           ?___awdiv 0070  
                    _nrf_write_buf 03A4                           ?___awmod 0070  
                    _nrf_write_reg 02A9          EUSART_Initialize@baudrate 0026  
                        _make_cmd5 03CD                           ?_nrf_cmd 0070  
             _EUSART_Write_Integer 0358               __end_of_uart_write_n 02FA  
                  ___aldiv@divisor 0070                    ___aldiv@counter 0020  
                   ___wmul@product 0074                           _LATCbits 010E  
                         _PIR1bits 0011            EUSART_Write_Integer@ptr 003B  
                   ?_nrf_write_buf 0073                         uart_hex8@h 083F  
                   ?_nrf_write_reg 0073                          main@F6295 0054  
                        _uart_crlf 026C                           _SSP1CON1 0215  
              __end_of_internal_32 0263                           _SSP1STAT 0214  
     __end_of_button_pressed_event 03A4                  ___wmul@multiplier 0070  
                       ?_make_cmd5 0070                           _WPUBbits 020D  
            ?_EUSART_Write_Integer 007B                  _nrf_write_payload 0336  
               nrf_write_payload@i 0076       EUSART_Write_Integer@temp_ptr 003C  
                  ??_nrf_flush_all 0074                 ?_nrf_write_payload 0073  
                     _nrf_read_reg 02BB                         ?_uart_crlf 0070  
              ??_nrf_write_payload 0074                         _ANSELBbits 018D  
                       _ANSELCbits 018E                           _main$531 0050  
                         __ptext10 041A                           __ptext11 03A4  
                         __ptext20 050A                           __ptext12 0263  
                         __ptext21 025A                           __ptext13 027F  
                         __ptext30 05BD                           __ptext22 022F  
                         __ptext14 024B                           __ptext31 0275  
                         __ptext23 022C                           __ptext15 02A9  
                         __ptext32 0467                           __ptext24 037C  
                         __ptext16 0238                           __ptext33 061C  
                         __ptext25 0244                           __ptext17 0298  
                         __ptext26 0358                           __ptext18 0232  
                         __ptext27 06AC                           __ptext19 03CD  
                         __ptext28 0317                           __ptext29 04B7  
                     _SSP1CON1bits 0215          __end_of_nrf_write_payload 0358  
                 ??_tx_send_packet 0077                           _initMain 050A  
                    _SSPDATPPSbits 0E21                        _internal_32 025A  
                  ??_nrf_write_buf 0076                    ??_nrf_write_reg 0074  
                       _RB2PPSbits 0E9A                         _RC1STAbits 019D  
                       _RC3PPSbits 0EA3                           _spi_xfer 0238  
                       _RC5PPSbits 0EA5              __end_of_radio_init_tx 02E2  
                         main@cmds 003F                       _SSP1STATbits 0214  
                     ??_uart_print 0078                          spi_xfer@b 0072  
                      ??_make_cmd5 0072             ??_EUSART_Write_Integer 007D  
            SPI_Exchange8bit@dummy 0071                     __pstringtext10 0879  
                   __pstringtext11 087E                     __pstringtext12 0882  
                   __pstringtext13 0885                     __pstringtext14 0000  
                         itoa@temp 0022                 _radio_common_setup 041A  
             _button_pressed_event 037C                 __end_of_uart_print 025A  
                      _PPSLOCKbits 0E0F                   tx_send_packet@st 007C  
                 nrf_write_buf@buf 0073                   nrf_write_buf@len 0075  
                 nrf_write_buf@reg 0078                ?_radio_common_setup 0070  
                 _SPI_Exchange8bit 0298                       _uart_write_n 02E2  
                      ??_uart_crlf 0071                   nrf_write_reg@reg 0074  
                 nrf_write_reg@val 0073                    nrf_read_reg@reg 0073  
                    __pstringtext1 083F                      __pstringtext2 0888  
                    __pstringtext3 0800                      __pstringtext4 0824  
                    __pstringtext5 0850                      __pstringtext6 085C  
                    __pstringtext7 0868                      __pstringtext8 086E  
                    __pstringtext9 0874                    tx_send_packet@t 0078  
            EUSART_Write_Text@text 0071               ??_radio_common_setup 007A  
                     ___aldiv@sign 0021                 EUSART_Write@txData 0070  
            ?_button_pressed_event 0070                 EUSART_Write_Text@i 0074  
