

Microchip MPLAB XC8 Assembler V2.45 build 20230818022343 
                                                                                               Tue Feb 27 22:56:45 2024

Microchip MPLAB XC8 C Compiler v2.45 (Free license) build 20230818022343 Og1 
     1                           	processor	16F1719
     2                           	pagewidth 120
     3                           	opt	flic
     4                           	psect	stringtext1,global,class=STRCODE,delta=2,noexec
     5                           	psect	stringtext2,global,class=STRCODE,delta=2,noexec
     6                           	psect	stringtext3,global,class=STRCODE,delta=2,noexec
     7                           	psect	cinit,global,class=CODE,merge=1,delta=2
     8                           	psect	bssBANK0,global,class=BANK0,space=1,delta=1,noexec
     9                           	psect	bssBANK1,global,class=BANK1,space=1,delta=1,noexec
    10                           	psect	cstackBANK1,global,class=BANK1,space=1,delta=1,noexec
    11                           	psect	cstackCOMMON,global,class=COMMON,space=1,delta=1,noexec
    12                           	psect	cstackBANK0,global,class=BANK0,space=1,delta=1,noexec
    13                           	psect	maintext,global,class=CODE,merge=1,split=1,delta=2
    14                           	psect	text1,local,class=CODE,merge=1,delta=2
    15                           	psect	text2,local,class=CODE,merge=1,delta=2
    16                           	psect	text3,local,class=CODE,merge=1,delta=2
    17                           	psect	text4,local,class=CODE,merge=1,delta=2
    18                           	psect	text5,local,class=CODE,merge=1,delta=2
    19                           	psect	text6,local,class=CODE,merge=1,delta=2
    20                           	psect	text7,local,class=CODE,merge=1,delta=2
    21                           	psect	text8,local,class=CODE,merge=1,delta=2,group=1
    22                           	psect	text9,local,class=CODE,merge=1,delta=2,group=1
    23                           	psect	text10,local,class=CODE,merge=1,delta=2,group=1
    24                           	psect	text11,local,class=CODE,merge=1,delta=2,group=1
    25                           	psect	text12,local,class=CODE,merge=1,delta=2,group=1
    26                           	psect	text13,local,class=CODE,merge=1,delta=2,group=1
    27                           	psect	text14,local,class=CODE,merge=1,delta=2,group=1
    28                           	psect	text15,local,class=CODE,merge=1,delta=2
    29                           	psect	text16,local,class=CODE,merge=1,delta=2,group=1
    30                           	psect	intentry,global,class=CODE,delta=2
    31                           	psect	config,global,abs,ovrld,class=CONFIG,space=4,delta=2,noexec
    32                           	dabs	1,0x7E,2
    33     0000                     
    34                           ; Generated 06/07/2023 GMT
    35                           ; 
    36                           ; Copyright © 2023, Microchip Technology Inc. and its subsidiaries ("Microchip")
    37                           ; All rights reserved.
    38                           ; 
    39                           ; This software is developed by Microchip Technology Inc. and its subsidiaries ("Microch
      +                          ip").
    40                           ; 
    41                           ; Redistribution and use in source and binary forms, with or without modification, are
    42                           ; permitted provided that the following conditions are met:
    43                           ; 
    44                           ;     1. Redistributions of source code must retain the above copyright notice, this lis
      +                          t of
    45                           ;        conditions and the following disclaimer.
    46                           ; 
    47                           ;     2. Redistributions in binary form must reproduce the above copyright notice, this 
      +                          list
    48                           ;        of conditions and the following disclaimer in the documentation and/or other
    49                           ;        materials provided with the distribution. Publication is not required when
    50                           ;        this file is used in an embedded application.
    51                           ; 
    52                           ;     3. Microchip's name may not be used to endorse or promote products derived from th
      +                          is
    53                           ;        software without specific prior written permission.
    54                           ; 
    55                           ; THIS SOFTWARE IS PROVIDED BY MICROCHIP "AS IS" AND ANY EXPRESS OR IMPLIED WARRANTIES,
    56                           ; INCLUDING, BUT NOT LIMITED TO, THE IMPLIED WARRANTIES OF MERCHANTABILITY AND FITNESS F
      +                          OR
    57                           ; PURPOSE ARE DISCLAIMED.  IN NO EVENT SHALL MICROCHIP BE LIABLE FOR ANY DIRECT, INDIREC
      +                          T,
    58                           ; INCIDENTAL, SPECIAL, EXEMPLARY, OR CONSEQUENTIAL DAMAGES (INCLUDING BUT NOT LIMITED TO
    59                           ; PROCUREMENT OF SUBSTITUTE GOODS OR SERVICES; LOSS OF USE, DATA OR PROFITS; OR BUSINESS
    60                           ; INTERRUPTION) HOWSOEVER CAUSED AND ON ANY THEORY OF LIABILITY, WHETHER IN CONTRACT, ST
      +                          RICT
    61                           ; LIABILITY, OR TORT (INCLUDING NEGLIGENCE OR OTHERWISE) ARISING IN ANY WAY OUT OF THE U
      +                          SE OF
    62                           ; THIS SOFTWARE, EVEN IF ADVISED OF THE POSSIBILITY OF SUCH DAMAGE.
    63                           ; 
    64                           ; 
    65                           ; Code-generator required, PIC16F1719 Definitions
    66                           ; 
    67                           ; SFR Addresses
    68     0000                     	;# 
    69     0001                     	;# 
    70     0002                     	;# 
    71     0003                     	;# 
    72     0004                     	;# 
    73     0005                     	;# 
    74     0006                     	;# 
    75     0007                     	;# 
    76     0008                     	;# 
    77     0009                     	;# 
    78     000A                     	;# 
    79     000B                     	;# 
    80     000C                     	;# 
    81     000D                     	;# 
    82     000E                     	;# 
    83     000F                     	;# 
    84     0010                     	;# 
    85     0011                     	;# 
    86     0012                     	;# 
    87     0013                     	;# 
    88     0015                     	;# 
    89     0016                     	;# 
    90     0016                     	;# 
    91     0017                     	;# 
    92     0018                     	;# 
    93     0019                     	;# 
    94     001A                     	;# 
    95     001B                     	;# 
    96     001C                     	;# 
    97     008C                     	;# 
    98     008D                     	;# 
    99     008E                     	;# 
   100     008F                     	;# 
   101     0090                     	;# 
   102     0091                     	;# 
   103     0092                     	;# 
   104     0093                     	;# 
   105     0095                     	;# 
   106     0096                     	;# 
   107     0097                     	;# 
   108     0098                     	;# 
   109     0099                     	;# 
   110     009A                     	;# 
   111     009B                     	;# 
   112     009B                     	;# 
   113     009C                     	;# 
   114     009D                     	;# 
   115     009E                     	;# 
   116     009F                     	;# 
   117     010C                     	;# 
   118     010D                     	;# 
   119     010E                     	;# 
   120     010F                     	;# 
   121     0110                     	;# 
   122     0111                     	;# 
   123     0112                     	;# 
   124     0113                     	;# 
   125     0114                     	;# 
   126     0115                     	;# 
   127     0116                     	;# 
   128     0117                     	;# 
   129     0118                     	;# 
   130     0119                     	;# 
   131     011A                     	;# 
   132     011B                     	;# 
   133     011B                     	;# 
   134     011C                     	;# 
   135     018C                     	;# 
   136     018D                     	;# 
   137     018E                     	;# 
   138     018F                     	;# 
   139     0190                     	;# 
   140     0191                     	;# 
   141     0191                     	;# 
   142     0192                     	;# 
   143     0193                     	;# 
   144     0193                     	;# 
   145     0194                     	;# 
   146     0195                     	;# 
   147     0196                     	;# 
   148     0197                     	;# 
   149     0199                     	;# 
   150     0199                     	;# 
   151     0199                     	;# 
   152     019A                     	;# 
   153     019A                     	;# 
   154     019A                     	;# 
   155     019B                     	;# 
   156     019B                     	;# 
   157     019B                     	;# 
   158     019B                     	;# 
   159     019B                     	;# 
   160     019C                     	;# 
   161     019C                     	;# 
   162     019C                     	;# 
   163     019D                     	;# 
   164     019D                     	;# 
   165     019D                     	;# 
   166     019E                     	;# 
   167     019E                     	;# 
   168     019E                     	;# 
   169     019F                     	;# 
   170     019F                     	;# 
   171     019F                     	;# 
   172     019F                     	;# 
   173     019F                     	;# 
   174     020C                     	;# 
   175     020D                     	;# 
   176     020E                     	;# 
   177     020F                     	;# 
   178     0210                     	;# 
   179     0211                     	;# 
   180     0211                     	;# 
   181     0212                     	;# 
   182     0212                     	;# 
   183     0213                     	;# 
   184     0213                     	;# 
   185     0214                     	;# 
   186     0214                     	;# 
   187     0215                     	;# 
   188     0215                     	;# 
   189     0215                     	;# 
   190     0215                     	;# 
   191     0216                     	;# 
   192     0216                     	;# 
   193     0217                     	;# 
   194     0217                     	;# 
   195     028C                     	;# 
   196     028D                     	;# 
   197     028E                     	;# 
   198     028F                     	;# 
   199     0290                     	;# 
   200     0291                     	;# 
   201     0291                     	;# 
   202     0292                     	;# 
   203     0293                     	;# 
   204     0293                     	;# 
   205     0298                     	;# 
   206     0298                     	;# 
   207     0299                     	;# 
   208     029A                     	;# 
   209     029A                     	;# 
   210     029E                     	;# 
   211     030C                     	;# 
   212     030D                     	;# 
   213     030E                     	;# 
   214     030F                     	;# 
   215     0310                     	;# 
   216     038C                     	;# 
   217     038D                     	;# 
   218     038E                     	;# 
   219     038F                     	;# 
   220     0390                     	;# 
   221     0391                     	;# 
   222     0392                     	;# 
   223     0393                     	;# 
   224     0394                     	;# 
   225     0395                     	;# 
   226     0396                     	;# 
   227     0397                     	;# 
   228     0398                     	;# 
   229     0399                     	;# 
   230     039D                     	;# 
   231     039E                     	;# 
   232     039F                     	;# 
   233     0415                     	;# 
   234     0416                     	;# 
   235     0417                     	;# 
   236     041C                     	;# 
   237     041D                     	;# 
   238     041E                     	;# 
   239     0498                     	;# 
   240     0498                     	;# 
   241     0499                     	;# 
   242     049A                     	;# 
   243     049B                     	;# 
   244     049B                     	;# 
   245     049C                     	;# 
   246     049D                     	;# 
   247     049E                     	;# 
   248     049F                     	;# 
   249     0511                     	;# 
   250     0515                     	;# 
   251     0617                     	;# 
   252     0618                     	;# 
   253     0619                     	;# 
   254     0619                     	;# 
   255     061A                     	;# 
   256     061B                     	;# 
   257     061C                     	;# 
   258     061C                     	;# 
   259     0691                     	;# 
   260     0692                     	;# 
   261     0693                     	;# 
   262     0694                     	;# 
   263     0695                     	;# 
   264     0696                     	;# 
   265     0697                     	;# 
   266     0698                     	;# 
   267     0699                     	;# 
   268     069A                     	;# 
   269     069B                     	;# 
   270     069C                     	;# 
   271     069D                     	;# 
   272     069E                     	;# 
   273     069F                     	;# 
   274     0E0F                     	;# 
   275     0E10                     	;# 
   276     0E11                     	;# 
   277     0E12                     	;# 
   278     0E13                     	;# 
   279     0E14                     	;# 
   280     0E15                     	;# 
   281     0E17                     	;# 
   282     0E20                     	;# 
   283     0E21                     	;# 
   284     0E22                     	;# 
   285     0E24                     	;# 
   286     0E25                     	;# 
   287     0E28                     	;# 
   288     0E29                     	;# 
   289     0E2A                     	;# 
   290     0E2B                     	;# 
   291     0E90                     	;# 
   292     0E91                     	;# 
   293     0E92                     	;# 
   294     0E93                     	;# 
   295     0E94                     	;# 
   296     0E95                     	;# 
   297     0E96                     	;# 
   298     0E97                     	;# 
   299     0E98                     	;# 
   300     0E99                     	;# 
   301     0E9A                     	;# 
   302     0E9B                     	;# 
   303     0E9C                     	;# 
   304     0E9D                     	;# 
   305     0E9E                     	;# 
   306     0E9F                     	;# 
   307     0EA0                     	;# 
   308     0EA1                     	;# 
   309     0EA2                     	;# 
   310     0EA3                     	;# 
   311     0EA4                     	;# 
   312     0EA5                     	;# 
   313     0EA6                     	;# 
   314     0EA7                     	;# 
   315     0EA8                     	;# 
   316     0EA9                     	;# 
   317     0EAA                     	;# 
   318     0EAB                     	;# 
   319     0EAC                     	;# 
   320     0EAD                     	;# 
   321     0EAE                     	;# 
   322     0EAF                     	;# 
   323     0EB0                     	;# 
   324     0EB1                     	;# 
   325     0EB2                     	;# 
   326     0F0F                     	;# 
   327     0F10                     	;# 
   328     0F11                     	;# 
   329     0F12                     	;# 
   330     0F13                     	;# 
   331     0F14                     	;# 
   332     0F15                     	;# 
   333     0F16                     	;# 
   334     0F17                     	;# 
   335     0F18                     	;# 
   336     0F19                     	;# 
   337     0F1A                     	;# 
   338     0F1B                     	;# 
   339     0F1C                     	;# 
   340     0F1D                     	;# 
   341     0F1E                     	;# 
   342     0F1F                     	;# 
   343     0F20                     	;# 
   344     0F21                     	;# 
   345     0F22                     	;# 
   346     0F23                     	;# 
   347     0F24                     	;# 
   348     0F25                     	;# 
   349     0F26                     	;# 
   350     0F27                     	;# 
   351     0F28                     	;# 
   352     0F29                     	;# 
   353     0F2A                     	;# 
   354     0F2B                     	;# 
   355     0F2C                     	;# 
   356     0F2D                     	;# 
   357     0F2E                     	;# 
   358     0F2F                     	;# 
   359     0F30                     	;# 
   360     0F31                     	;# 
   361     0F32                     	;# 
   362     0F33                     	;# 
   363     0F34                     	;# 
   364     0F35                     	;# 
   365     0F36                     	;# 
   366     0F37                     	;# 
   367     0FE4                     	;# 
   368     0FE5                     	;# 
   369     0FE6                     	;# 
   370     0FE7                     	;# 
   371     0FE8                     	;# 
   372     0FE9                     	;# 
   373     0FEA                     	;# 
   374     0FEB                     	;# 
   375     0FED                     	;# 
   376     0FEE                     	;# 
   377     0FEF                     	;# 
   378     0000                     	;# 
   379     0001                     	;# 
   380     0002                     	;# 
   381     0003                     	;# 
   382     0004                     	;# 
   383     0005                     	;# 
   384     0006                     	;# 
   385     0007                     	;# 
   386     0008                     	;# 
   387     0009                     	;# 
   388     000A                     	;# 
   389     000B                     	;# 
   390     000C                     	;# 
   391     000D                     	;# 
   392     000E                     	;# 
   393     000F                     	;# 
   394     0010                     	;# 
   395     0011                     	;# 
   396     0012                     	;# 
   397     0013                     	;# 
   398     0015                     	;# 
   399     0016                     	;# 
   400     0016                     	;# 
   401     0017                     	;# 
   402     0018                     	;# 
   403     0019                     	;# 
   404     001A                     	;# 
   405     001B                     	;# 
   406     001C                     	;# 
   407     008C                     	;# 
   408     008D                     	;# 
   409     008E                     	;# 
   410     008F                     	;# 
   411     0090                     	;# 
   412     0091                     	;# 
   413     0092                     	;# 
   414     0093                     	;# 
   415     0095                     	;# 
   416     0096                     	;# 
   417     0097                     	;# 
   418     0098                     	;# 
   419     0099                     	;# 
   420     009A                     	;# 
   421     009B                     	;# 
   422     009B                     	;# 
   423     009C                     	;# 
   424     009D                     	;# 
   425     009E                     	;# 
   426     009F                     	;# 
   427     010C                     	;# 
   428     010D                     	;# 
   429     010E                     	;# 
   430     010F                     	;# 
   431     0110                     	;# 
   432     0111                     	;# 
   433     0112                     	;# 
   434     0113                     	;# 
   435     0114                     	;# 
   436     0115                     	;# 
   437     0116                     	;# 
   438     0117                     	;# 
   439     0118                     	;# 
   440     0119                     	;# 
   441     011A                     	;# 
   442     011B                     	;# 
   443     011B                     	;# 
   444     011C                     	;# 
   445     018C                     	;# 
   446     018D                     	;# 
   447     018E                     	;# 
   448     018F                     	;# 
   449     0190                     	;# 
   450     0191                     	;# 
   451     0191                     	;# 
   452     0192                     	;# 
   453     0193                     	;# 
   454     0193                     	;# 
   455     0194                     	;# 
   456     0195                     	;# 
   457     0196                     	;# 
   458     0197                     	;# 
   459     0199                     	;# 
   460     0199                     	;# 
   461     0199                     	;# 
   462     019A                     	;# 
   463     019A                     	;# 
   464     019A                     	;# 
   465     019B                     	;# 
   466     019B                     	;# 
   467     019B                     	;# 
   468     019B                     	;# 
   469     019B                     	;# 
   470     019C                     	;# 
   471     019C                     	;# 
   472     019C                     	;# 
   473     019D                     	;# 
   474     019D                     	;# 
   475     019D                     	;# 
   476     019E                     	;# 
   477     019E                     	;# 
   478     019E                     	;# 
   479     019F                     	;# 
   480     019F                     	;# 
   481     019F                     	;# 
   482     019F                     	;# 
   483     019F                     	;# 
   484     020C                     	;# 
   485     020D                     	;# 
   486     020E                     	;# 
   487     020F                     	;# 
   488     0210                     	;# 
   489     0211                     	;# 
   490     0211                     	;# 
   491     0212                     	;# 
   492     0212                     	;# 
   493     0213                     	;# 
   494     0213                     	;# 
   495     0214                     	;# 
   496     0214                     	;# 
   497     0215                     	;# 
   498     0215                     	;# 
   499     0215                     	;# 
   500     0215                     	;# 
   501     0216                     	;# 
   502     0216                     	;# 
   503     0217                     	;# 
   504     0217                     	;# 
   505     028C                     	;# 
   506     028D                     	;# 
   507     028E                     	;# 
   508     028F                     	;# 
   509     0290                     	;# 
   510     0291                     	;# 
   511     0291                     	;# 
   512     0292                     	;# 
   513     0293                     	;# 
   514     0293                     	;# 
   515     0298                     	;# 
   516     0298                     	;# 
   517     0299                     	;# 
   518     029A                     	;# 
   519     029A                     	;# 
   520     029E                     	;# 
   521     030C                     	;# 
   522     030D                     	;# 
   523     030E                     	;# 
   524     030F                     	;# 
   525     0310                     	;# 
   526     038C                     	;# 
   527     038D                     	;# 
   528     038E                     	;# 
   529     038F                     	;# 
   530     0390                     	;# 
   531     0391                     	;# 
   532     0392                     	;# 
   533     0393                     	;# 
   534     0394                     	;# 
   535     0395                     	;# 
   536     0396                     	;# 
   537     0397                     	;# 
   538     0398                     	;# 
   539     0399                     	;# 
   540     039D                     	;# 
   541     039E                     	;# 
   542     039F                     	;# 
   543     0415                     	;# 
   544     0416                     	;# 
   545     0417                     	;# 
   546     041C                     	;# 
   547     041D                     	;# 
   548     041E                     	;# 
   549     0498                     	;# 
   550     0498                     	;# 
   551     0499                     	;# 
   552     049A                     	;# 
   553     049B                     	;# 
   554     049B                     	;# 
   555     049C                     	;# 
   556     049D                     	;# 
   557     049E                     	;# 
   558     049F                     	;# 
   559     0511                     	;# 
   560     0515                     	;# 
   561     0617                     	;# 
   562     0618                     	;# 
   563     0619                     	;# 
   564     0619                     	;# 
   565     061A                     	;# 
   566     061B                     	;# 
   567     061C                     	;# 
   568     061C                     	;# 
   569     0691                     	;# 
   570     0692                     	;# 
   571     0693                     	;# 
   572     0694                     	;# 
   573     0695                     	;# 
   574     0696                     	;# 
   575     0697                     	;# 
   576     0698                     	;# 
   577     0699                     	;# 
   578     069A                     	;# 
   579     069B                     	;# 
   580     069C                     	;# 
   581     069D                     	;# 
   582     069E                     	;# 
   583     069F                     	;# 
   584     0E0F                     	;# 
   585     0E10                     	;# 
   586     0E11                     	;# 
   587     0E12                     	;# 
   588     0E13                     	;# 
   589     0E14                     	;# 
   590     0E15                     	;# 
   591     0E17                     	;# 
   592     0E20                     	;# 
   593     0E21                     	;# 
   594     0E22                     	;# 
   595     0E24                     	;# 
   596     0E25                     	;# 
   597     0E28                     	;# 
   598     0E29                     	;# 
   599     0E2A                     	;# 
   600     0E2B                     	;# 
   601     0E90                     	;# 
   602     0E91                     	;# 
   603     0E92                     	;# 
   604     0E93                     	;# 
   605     0E94                     	;# 
   606     0E95                     	;# 
   607     0E96                     	;# 
   608     0E97                     	;# 
   609     0E98                     	;# 
   610     0E99                     	;# 
   611     0E9A                     	;# 
   612     0E9B                     	;# 
   613     0E9C                     	;# 
   614     0E9D                     	;# 
   615     0E9E                     	;# 
   616     0E9F                     	;# 
   617     0EA0                     	;# 
   618     0EA1                     	;# 
   619     0EA2                     	;# 
   620     0EA3                     	;# 
   621     0EA4                     	;# 
   622     0EA5                     	;# 
   623     0EA6                     	;# 
   624     0EA7                     	;# 
   625     0EA8                     	;# 
   626     0EA9                     	;# 
   627     0EAA                     	;# 
   628     0EAB                     	;# 
   629     0EAC                     	;# 
   630     0EAD                     	;# 
   631     0EAE                     	;# 
   632     0EAF                     	;# 
   633     0EB0                     	;# 
   634     0EB1                     	;# 
   635     0EB2                     	;# 
   636     0F0F                     	;# 
   637     0F10                     	;# 
   638     0F11                     	;# 
   639     0F12                     	;# 
   640     0F13                     	;# 
   641     0F14                     	;# 
   642     0F15                     	;# 
   643     0F16                     	;# 
   644     0F17                     	;# 
   645     0F18                     	;# 
   646     0F19                     	;# 
   647     0F1A                     	;# 
   648     0F1B                     	;# 
   649     0F1C                     	;# 
   650     0F1D                     	;# 
   651     0F1E                     	;# 
   652     0F1F                     	;# 
   653     0F20                     	;# 
   654     0F21                     	;# 
   655     0F22                     	;# 
   656     0F23                     	;# 
   657     0F24                     	;# 
   658     0F25                     	;# 
   659     0F26                     	;# 
   660     0F27                     	;# 
   661     0F28                     	;# 
   662     0F29                     	;# 
   663     0F2A                     	;# 
   664     0F2B                     	;# 
   665     0F2C                     	;# 
   666     0F2D                     	;# 
   667     0F2E                     	;# 
   668     0F2F                     	;# 
   669     0F30                     	;# 
   670     0F31                     	;# 
   671     0F32                     	;# 
   672     0F33                     	;# 
   673     0F34                     	;# 
   674     0F35                     	;# 
   675     0F36                     	;# 
   676     0F37                     	;# 
   677     0FE4                     	;# 
   678     0FE5                     	;# 
   679     0FE6                     	;# 
   680     0FE7                     	;# 
   681     0FE8                     	;# 
   682     0FE9                     	;# 
   683     0FEA                     	;# 
   684     0FEB                     	;# 
   685     0FED                     	;# 
   686     0FEE                     	;# 
   687     0FEF                     	;# 
   688     0000                     	;# 
   689     0001                     	;# 
   690     0002                     	;# 
   691     0003                     	;# 
   692     0004                     	;# 
   693     0005                     	;# 
   694     0006                     	;# 
   695     0007                     	;# 
   696     0008                     	;# 
   697     0009                     	;# 
   698     000A                     	;# 
   699     000B                     	;# 
   700     000C                     	;# 
   701     000D                     	;# 
   702     000E                     	;# 
   703     000F                     	;# 
   704     0010                     	;# 
   705     0011                     	;# 
   706     0012                     	;# 
   707     0013                     	;# 
   708     0015                     	;# 
   709     0016                     	;# 
   710     0016                     	;# 
   711     0017                     	;# 
   712     0018                     	;# 
   713     0019                     	;# 
   714     001A                     	;# 
   715     001B                     	;# 
   716     001C                     	;# 
   717     008C                     	;# 
   718     008D                     	;# 
   719     008E                     	;# 
   720     008F                     	;# 
   721     0090                     	;# 
   722     0091                     	;# 
   723     0092                     	;# 
   724     0093                     	;# 
   725     0095                     	;# 
   726     0096                     	;# 
   727     0097                     	;# 
   728     0098                     	;# 
   729     0099                     	;# 
   730     009A                     	;# 
   731     009B                     	;# 
   732     009B                     	;# 
   733     009C                     	;# 
   734     009D                     	;# 
   735     009E                     	;# 
   736     009F                     	;# 
   737     010C                     	;# 
   738     010D                     	;# 
   739     010E                     	;# 
   740     010F                     	;# 
   741     0110                     	;# 
   742     0111                     	;# 
   743     0112                     	;# 
   744     0113                     	;# 
   745     0114                     	;# 
   746     0115                     	;# 
   747     0116                     	;# 
   748     0117                     	;# 
   749     0118                     	;# 
   750     0119                     	;# 
   751     011A                     	;# 
   752     011B                     	;# 
   753     011B                     	;# 
   754     011C                     	;# 
   755     018C                     	;# 
   756     018D                     	;# 
   757     018E                     	;# 
   758     018F                     	;# 
   759     0190                     	;# 
   760     0191                     	;# 
   761     0191                     	;# 
   762     0192                     	;# 
   763     0193                     	;# 
   764     0193                     	;# 
   765     0194                     	;# 
   766     0195                     	;# 
   767     0196                     	;# 
   768     0197                     	;# 
   769     0199                     	;# 
   770     0199                     	;# 
   771     0199                     	;# 
   772     019A                     	;# 
   773     019A                     	;# 
   774     019A                     	;# 
   775     019B                     	;# 
   776     019B                     	;# 
   777     019B                     	;# 
   778     019B                     	;# 
   779     019B                     	;# 
   780     019C                     	;# 
   781     019C                     	;# 
   782     019C                     	;# 
   783     019D                     	;# 
   784     019D                     	;# 
   785     019D                     	;# 
   786     019E                     	;# 
   787     019E                     	;# 
   788     019E                     	;# 
   789     019F                     	;# 
   790     019F                     	;# 
   791     019F                     	;# 
   792     019F                     	;# 
   793     019F                     	;# 
   794     020C                     	;# 
   795     020D                     	;# 
   796     020E                     	;# 
   797     020F                     	;# 
   798     0210                     	;# 
   799     0211                     	;# 
   800     0211                     	;# 
   801     0212                     	;# 
   802     0212                     	;# 
   803     0213                     	;# 
   804     0213                     	;# 
   805     0214                     	;# 
   806     0214                     	;# 
   807     0215                     	;# 
   808     0215                     	;# 
   809     0215                     	;# 
   810     0215                     	;# 
   811     0216                     	;# 
   812     0216                     	;# 
   813     0217                     	;# 
   814     0217                     	;# 
   815     028C                     	;# 
   816     028D                     	;# 
   817     028E                     	;# 
   818     028F                     	;# 
   819     0290                     	;# 
   820     0291                     	;# 
   821     0291                     	;# 
   822     0292                     	;# 
   823     0293                     	;# 
   824     0293                     	;# 
   825     0298                     	;# 
   826     0298                     	;# 
   827     0299                     	;# 
   828     029A                     	;# 
   829     029A                     	;# 
   830     029E                     	;# 
   831     030C                     	;# 
   832     030D                     	;# 
   833     030E                     	;# 
   834     030F                     	;# 
   835     0310                     	;# 
   836     038C                     	;# 
   837     038D                     	;# 
   838     038E                     	;# 
   839     038F                     	;# 
   840     0390                     	;# 
   841     0391                     	;# 
   842     0392                     	;# 
   843     0393                     	;# 
   844     0394                     	;# 
   845     0395                     	;# 
   846     0396                     	;# 
   847     0397                     	;# 
   848     0398                     	;# 
   849     0399                     	;# 
   850     039D                     	;# 
   851     039E                     	;# 
   852     039F                     	;# 
   853     0415                     	;# 
   854     0416                     	;# 
   855     0417                     	;# 
   856     041C                     	;# 
   857     041D                     	;# 
   858     041E                     	;# 
   859     0498                     	;# 
   860     0498                     	;# 
   861     0499                     	;# 
   862     049A                     	;# 
   863     049B                     	;# 
   864     049B                     	;# 
   865     049C                     	;# 
   866     049D                     	;# 
   867     049E                     	;# 
   868     049F                     	;# 
   869     0511                     	;# 
   870     0515                     	;# 
   871     0617                     	;# 
   872     0618                     	;# 
   873     0619                     	;# 
   874     0619                     	;# 
   875     061A                     	;# 
   876     061B                     	;# 
   877     061C                     	;# 
   878     061C                     	;# 
   879     0691                     	;# 
   880     0692                     	;# 
   881     0693                     	;# 
   882     0694                     	;# 
   883     0695                     	;# 
   884     0696                     	;# 
   885     0697                     	;# 
   886     0698                     	;# 
   887     0699                     	;# 
   888     069A                     	;# 
   889     069B                     	;# 
   890     069C                     	;# 
   891     069D                     	;# 
   892     069E                     	;# 
   893     069F                     	;# 
   894     0E0F                     	;# 
   895     0E10                     	;# 
   896     0E11                     	;# 
   897     0E12                     	;# 
   898     0E13                     	;# 
   899     0E14                     	;# 
   900     0E15                     	;# 
   901     0E17                     	;# 
   902     0E20                     	;# 
   903     0E21                     	;# 
   904     0E22                     	;# 
   905     0E24                     	;# 
   906     0E25                     	;# 
   907     0E28                     	;# 
   908     0E29                     	;# 
   909     0E2A                     	;# 
   910     0E2B                     	;# 
   911     0E90                     	;# 
   912     0E91                     	;# 
   913     0E92                     	;# 
   914     0E93                     	;# 
   915     0E94                     	;# 
   916     0E95                     	;# 
   917     0E96                     	;# 
   918     0E97                     	;# 
   919     0E98                     	;# 
   920     0E99                     	;# 
   921     0E9A                     	;# 
   922     0E9B                     	;# 
   923     0E9C                     	;# 
   924     0E9D                     	;# 
   925     0E9E                     	;# 
   926     0E9F                     	;# 
   927     0EA0                     	;# 
   928     0EA1                     	;# 
   929     0EA2                     	;# 
   930     0EA3                     	;# 
   931     0EA4                     	;# 
   932     0EA5                     	;# 
   933     0EA6                     	;# 
   934     0EA7                     	;# 
   935     0EA8                     	;# 
   936     0EA9                     	;# 
   937     0EAA                     	;# 
   938     0EAB                     	;# 
   939     0EAC                     	;# 
   940     0EAD                     	;# 
   941     0EAE                     	;# 
   942     0EAF                     	;# 
   943     0EB0                     	;# 
   944     0EB1                     	;# 
   945     0EB2                     	;# 
   946     0F0F                     	;# 
   947     0F10                     	;# 
   948     0F11                     	;# 
   949     0F12                     	;# 
   950     0F13                     	;# 
   951     0F14                     	;# 
   952     0F15                     	;# 
   953     0F16                     	;# 
   954     0F17                     	;# 
   955     0F18                     	;# 
   956     0F19                     	;# 
   957     0F1A                     	;# 
   958     0F1B                     	;# 
   959     0F1C                     	;# 
   960     0F1D                     	;# 
   961     0F1E                     	;# 
   962     0F1F                     	;# 
   963     0F20                     	;# 
   964     0F21                     	;# 
   965     0F22                     	;# 
   966     0F23                     	;# 
   967     0F24                     	;# 
   968     0F25                     	;# 
   969     0F26                     	;# 
   970     0F27                     	;# 
   971     0F28                     	;# 
   972     0F29                     	;# 
   973     0F2A                     	;# 
   974     0F2B                     	;# 
   975     0F2C                     	;# 
   976     0F2D                     	;# 
   977     0F2E                     	;# 
   978     0F2F                     	;# 
   979     0F30                     	;# 
   980     0F31                     	;# 
   981     0F32                     	;# 
   982     0F33                     	;# 
   983     0F34                     	;# 
   984     0F35                     	;# 
   985     0F36                     	;# 
   986     0F37                     	;# 
   987     0FE4                     	;# 
   988     0FE5                     	;# 
   989     0FE6                     	;# 
   990     0FE7                     	;# 
   991     0FE8                     	;# 
   992     0FE9                     	;# 
   993     0FEA                     	;# 
   994     0FEB                     	;# 
   995     0FED                     	;# 
   996     0FEE                     	;# 
   997     0FEF                     	;# 
   998                           
   999                           	psect	stringtext1
  1000     1000                     __pstringtext1:
  1001     1000                     main@Kd:
  1002     1000  3400               	retlw	0
  1003     1001  3400               	retlw	0
  1004     1002  3480               	retlw	128
  1005     1003  343F               	retlw	63
  1006     1004                     __end_ofmain@Kd:
  1007                           
  1008                           	psect	stringtext2
  1009     1004                     __pstringtext2:
  1010     1004                     main@Ki:
  1011     1004  3400               	retlw	0
  1012     1005  3400               	retlw	0
  1013     1006  3400               	retlw	0
  1014     1007  343F               	retlw	63
  1015     1008                     __end_ofmain@Ki:
  1016                           
  1017                           	psect	stringtext3
  1018     1008                     __pstringtext3:
  1019     1008                     main@Kp:
  1020     1008  3400               	retlw	0
  1021     1009  3400               	retlw	0
  1022     100A  3400               	retlw	0
  1023     100B  3440               	retlw	64
  1024     100C                     __end_ofmain@Kp:
  1025     0011                     _PIR1bits	set	17
  1026     000B                     _INTCONbits	set	11
  1027     008C                     _TRISAbits	set	140
  1028     008D                     _TRISBbits	set	141
  1029     008F                     _TRISDbits	set	143
  1030     04CF                     _SPLLEN	set	1231
  1031     04CE                     _IRCF3	set	1230
  1032     04CD                     _IRCF2	set	1229
  1033     04CC                     _IRCF1	set	1228
  1034     04CB                     _IRCF0	set	1227
  1035     04C9                     _SCS1	set	1225
  1036     04C8                     _SCS0	set	1224
  1037     010F                     _LATDbits	set	271
  1038     019A                     _TX1REG	set	410
  1039     0199                     _RC1REG	set	409
  1040     019D                     _RC1STAbits	set	413
  1041     019B                     _SPBRGL	set	411
  1042     018C                     _ANSELAbits	set	396
  1043     018D                     _ANSELBbits	set	397
  1044     018D                     _ANSELB	set	397
  1045     0CF5                     _TXEN	set	3317
  1046     0CEC                     _CREN	set	3308
  1047     0CEF                     _SPEN	set	3311
  1048     0CF4                     _SYNC	set	3316
  1049     0CFB                     _BRG16	set	3323
  1050     0CF2                     _BRGH	set	3314
  1051     0298                     _CCPR2L	set	664
  1052     0291                     _CCPR1L	set	657
  1053     029A                     _CCP2CONbits	set	666
  1054     0293                     _CCP1CONbits	set	659
  1055     029E                     _CCPTMRSbits	set	670
  1056     0393                     _IOCAFbits	set	915
  1057     0392                     _IOCANbits	set	914
  1058     041D                     _PR6	set	1053
  1059     041E                     _T6CONbits	set	1054
  1060     0E24                     _RXPPSbits	set	3620
  1061     0E0F                     _PPSLOCKbits	set	3599
  1062     0E0F                     _PPSLOCK	set	3599
  1063     0E9A                     _RB2PPSbits	set	3738
  1064     0E99                     _RB1PPSbits	set	3737
  1065     0E98                     _RB0PPSbits	set	3736
  1066                           
  1067                           	psect	cinit
  1068     0024                     start_initialization:	
  1069                           ; #config settings
  1070                           
  1071     0024                     __initialization:
  1072                           
  1073                           ; Clear objects allocated to BANK0
  1074     0024  0020               	movlb	0	; select bank0
  1075     0025  01ED               	clrf	__pbssBANK0& (0+127)
  1076     0026  01EE               	clrf	(__pbssBANK0+1)& (0+127)
  1077                           
  1078                           ; Clear objects allocated to BANK1
  1079     0027  0021               	movlb	1	; select bank1
  1080     0028  01C4               	clrf	__pbssBANK1& (0+127)
  1081     0029  01C5               	clrf	(__pbssBANK1+1)& (0+127)
  1082     002A                     end_of_initialization:	
  1083                           ;End of C runtime variable initialization code
  1084                           
  1085     002A                     __end_of__initialization:
  1086     002A  107E               	bcf	int$flags,0	;clear compiler interrupt flag (level 1)
  1087     002B  0020               	movlb	0
  1088     002C  3184  2C71         	ljmp	_main	;jump to C main() function
  1089                           
  1090                           	psect	bssBANK0
  1091     006D                     __pbssBANK0:
  1092     006D                     _counterB:
  1093     006D                     	ds	2
  1094                           
  1095                           	psect	bssBANK1
  1096     00C4                     __pbssBANK1:
  1097     00C4                     _counterA:
  1098     00C4                     	ds	2
  1099                           
  1100                           	psect	cstackBANK1
  1101     00A0                     __pcstackBANK1:
  1102     00A0                     main@setpoint:
  1103                           
  1104                           ; 4 bytes @ 0x0
  1105     00A0                     	ds	4
  1106     00A4                     _main$1116:
  1107                           
  1108                           ; 4 bytes @ 0x4
  1109     00A4                     	ds	4
  1110     00A8                     main@measured_value:
  1111                           
  1112                           ; 4 bytes @ 0x8
  1113     00A8                     	ds	4
  1114     00AC                     main@derivative:
  1115                           
  1116                           ; 4 bytes @ 0xC
  1117     00AC                     	ds	4
  1118     00B0                     main@previous_error:
  1119                           
  1120                           ; 4 bytes @ 0x10
  1121     00B0                     	ds	4
  1122     00B4                     main@output:
  1123                           
  1124                           ; 4 bytes @ 0x14
  1125     00B4                     	ds	4
  1126     00B8                     main@dt:
  1127                           
  1128                           ; 4 bytes @ 0x18
  1129     00B8                     	ds	4
  1130     00BC                     main@integral:
  1131                           
  1132                           ; 4 bytes @ 0x1C
  1133     00BC                     	ds	4
  1134     00C0                     main@error:
  1135                           
  1136                           ; 4 bytes @ 0x20
  1137     00C0                     	ds	4
  1138                           
  1139                           	psect	cstackCOMMON
  1140     0070                     __pcstackCOMMON:
  1141     0070                     ?_internal_32:
  1142     0070                     ??_internal_32:	
  1143                           ; 1 bytes @ 0x0
  1144                           
  1145     0070                     ?_initMain:	
  1146                           ; 1 bytes @ 0x0
  1147                           
  1148     0070                     ??_initMain:	
  1149                           ; 1 bytes @ 0x0
  1150                           
  1151     0070                     ?_leftEnable:	
  1152                           ; 1 bytes @ 0x0
  1153                           
  1154     0070                     ??_leftEnable:	
  1155                           ; 1 bytes @ 0x0
  1156                           
  1157     0070                     ?_rightEnable:	
  1158                           ; 1 bytes @ 0x0
  1159                           
  1160     0070                     ??_rightEnable:	
  1161                           ; 1 bytes @ 0x0
  1162                           
  1163     0070                     ?_rightPWMDuty:	
  1164                           ; 1 bytes @ 0x0
  1165                           
  1166     0070                     ?_leftPWMDuty:	
  1167                           ; 1 bytes @ 0x0
  1168                           
  1169     0070                     ?_main:	
  1170                           ; 1 bytes @ 0x0
  1171                           
  1172     0070                     ?_isr:	
  1173                           ; 1 bytes @ 0x0
  1174                           
  1175     0070                     ??_isr:	
  1176                           ; 1 bytes @ 0x0
  1177                           
  1178     0070                     ?__Umul8_16:	
  1179                           ; 1 bytes @ 0x0
  1180                           
  1181     0070                     ?___aldiv:	
  1182                           ; 2 bytes @ 0x0
  1183                           
  1184     0070                     ?___fltol:	
  1185                           ; 4 bytes @ 0x0
  1186                           
  1187     0070                     ?___xxtofl:	
  1188                           ; 4 bytes @ 0x0
  1189                           
  1190     0070                     __Umul8_16@multiplicand:	
  1191                           ; 4 bytes @ 0x0
  1192                           
  1193     0070                     rightPWMDuty@duty:	
  1194                           ; 1 bytes @ 0x0
  1195                           
  1196     0070                     leftPWMDuty@duty:	
  1197                           ; 2 bytes @ 0x0
  1198                           
  1199     0070                     ___aldiv@divisor:	
  1200                           ; 2 bytes @ 0x0
  1201                           
  1202     0070                     ___fltol@f1:	
  1203                           ; 4 bytes @ 0x0
  1204                           
  1205     0070                     ___xxtofl@val:	
  1206                           ; 4 bytes @ 0x0
  1207                           
  1208                           
  1209                           ; 4 bytes @ 0x0
  1210     0070                     	ds	2
  1211     0072                     ??__Umul8_16:
  1212     0072                     ??_rightPWMDuty:	
  1213                           ; 1 bytes @ 0x2
  1214                           
  1215     0072                     ??_leftPWMDuty:	
  1216                           ; 1 bytes @ 0x2
  1217                           
  1218                           
  1219                           ; 1 bytes @ 0x2
  1220     0072                     	ds	2
  1221     0074                     ??___fltol:
  1222     0074                     ??___xxtofl:	
  1223                           ; 1 bytes @ 0x4
  1224                           
  1225     0074                     __Umul8_16@product:	
  1226                           ; 1 bytes @ 0x4
  1227                           
  1228     0074                     ___aldiv@dividend:	
  1229                           ; 2 bytes @ 0x4
  1230                           
  1231                           
  1232                           ; 4 bytes @ 0x4
  1233     0074                     	ds	2
  1234     0076                     __Umul8_16@word_mpld:
  1235                           
  1236                           ; 2 bytes @ 0x6
  1237     0076                     	ds	2
  1238     0078                     ??___aldiv:
  1239     0078                     ___fltol@sign1:	
  1240                           ; 1 bytes @ 0x8
  1241                           
  1242     0078                     __Umul8_16@multiplier:	
  1243                           ; 1 bytes @ 0x8
  1244                           
  1245     0078                     ___xxtofl@sign:	
  1246                           ; 1 bytes @ 0x8
  1247                           
  1248                           
  1249                           ; 1 bytes @ 0x8
  1250     0078                     	ds	1
  1251     0079                     ??___flmul:
  1252     0079                     ___fltol@exp1:	
  1253                           ; 1 bytes @ 0x9
  1254                           
  1255     0079                     ___xxtofl@exp:	
  1256                           ; 1 bytes @ 0x9
  1257                           
  1258     0079                     EUSART_Initialize@x:	
  1259                           ; 1 bytes @ 0x9
  1260                           
  1261                           
  1262                           ; 2 bytes @ 0x9
  1263     0079                     	ds	1
  1264     007A                     ?_motorTurnRight:
  1265     007A                     motorTurnRight@motorSpeed:	
  1266                           ; 1 bytes @ 0xA
  1267                           
  1268     007A                     ___xxtofl@arg:	
  1269                           ; 2 bytes @ 0xA
  1270                           
  1271                           
  1272                           ; 4 bytes @ 0xA
  1273     007A                     	ds	2
  1274     007C                     ??_motorTurnRight:
  1275                           
  1276                           ; 1 bytes @ 0xC
  1277     007C                     	ds	2
  1278     007E                     ??___flsub:
  1279                           
  1280                           	psect	cstackBANK0
  1281     0020                     __pcstackBANK0:	
  1282                           ; 1 bytes @ 0xE
  1283                           
  1284     0020                     ?___flmul:
  1285     0020                     ___aldiv@counter:	
  1286                           ; 4 bytes @ 0x0
  1287                           
  1288     0020                     ___flmul@b:	
  1289                           ; 1 bytes @ 0x0
  1290                           
  1291                           
  1292                           ; 4 bytes @ 0x0
  1293     0020                     	ds	1
  1294     0021                     ___aldiv@sign:
  1295                           
  1296                           ; 1 bytes @ 0x1
  1297     0021                     	ds	1
  1298     0022                     ___aldiv@quotient:
  1299                           
  1300                           ; 4 bytes @ 0x2
  1301     0022                     	ds	2
  1302     0024                     ___flmul@a:
  1303                           
  1304                           ; 4 bytes @ 0x4
  1305     0024                     	ds	2
  1306     0026                     ?_EUSART_Initialize:
  1307     0026                     EUSART_Initialize@baudrate:	
  1308                           ; 1 bytes @ 0x6
  1309                           
  1310                           
  1311                           ; 4 bytes @ 0x6
  1312     0026                     	ds	2
  1313     0028                     ___flmul@sign:
  1314                           
  1315                           ; 1 bytes @ 0x8
  1316     0028                     	ds	1
  1317     0029                     ___flmul@grs:
  1318                           
  1319                           ; 4 bytes @ 0x9
  1320     0029                     	ds	1
  1321     002A                     ??_EUSART_Initialize:
  1322                           
  1323                           ; 1 bytes @ 0xA
  1324     002A                     	ds	3
  1325     002D                     ___flmul@aexp:
  1326                           
  1327                           ; 1 bytes @ 0xD
  1328     002D                     	ds	1
  1329     002E                     ___flmul@bexp:
  1330                           
  1331                           ; 1 bytes @ 0xE
  1332     002E                     	ds	1
  1333     002F                     ___flmul@prod:
  1334                           
  1335                           ; 4 bytes @ 0xF
  1336     002F                     	ds	4
  1337     0033                     ___flmul@temp:
  1338                           
  1339                           ; 2 bytes @ 0x13
  1340     0033                     	ds	2
  1341     0035                     ?___fladd:
  1342     0035                     ___fladd@b:	
  1343                           ; 4 bytes @ 0x15
  1344                           
  1345                           
  1346                           ; 4 bytes @ 0x15
  1347     0035                     	ds	4
  1348     0039                     ___fladd@a:
  1349                           
  1350                           ; 4 bytes @ 0x19
  1351     0039                     	ds	4
  1352     003D                     ??___fladd:
  1353                           
  1354                           ; 1 bytes @ 0x1D
  1355     003D                     	ds	8
  1356     0045                     ___fladd@signs:
  1357                           
  1358                           ; 1 bytes @ 0x25
  1359     0045                     	ds	1
  1360     0046                     ___fladd@aexp:
  1361                           
  1362                           ; 1 bytes @ 0x26
  1363     0046                     	ds	1
  1364     0047                     ___fladd@bexp:
  1365                           
  1366                           ; 1 bytes @ 0x27
  1367     0047                     	ds	1
  1368     0048                     ___fladd@grs:
  1369                           
  1370                           ; 1 bytes @ 0x28
  1371     0048                     	ds	1
  1372     0049                     ?___flsub:
  1373     0049                     ___flsub@a:	
  1374                           ; 4 bytes @ 0x29
  1375                           
  1376                           
  1377                           ; 4 bytes @ 0x29
  1378     0049                     	ds	4
  1379     004D                     ___flsub@b:
  1380                           
  1381                           ; 4 bytes @ 0x2D
  1382     004D                     	ds	4
  1383     0051                     ?___fldiv:
  1384     0051                     ___fldiv@a:	
  1385                           ; 4 bytes @ 0x31
  1386                           
  1387                           
  1388                           ; 4 bytes @ 0x31
  1389     0051                     	ds	4
  1390     0055                     ___fldiv@b:
  1391                           
  1392                           ; 4 bytes @ 0x35
  1393     0055                     	ds	4
  1394     0059                     ??___fldiv:
  1395                           
  1396                           ; 1 bytes @ 0x39
  1397     0059                     	ds	5
  1398     005E                     ___fldiv@rem:
  1399                           
  1400                           ; 4 bytes @ 0x3E
  1401     005E                     	ds	4
  1402     0062                     ___fldiv@sign:
  1403                           
  1404                           ; 1 bytes @ 0x42
  1405     0062                     	ds	1
  1406     0063                     ___fldiv@new_exp:
  1407                           
  1408                           ; 2 bytes @ 0x43
  1409     0063                     	ds	2
  1410     0065                     ___fldiv@grs:
  1411                           
  1412                           ; 4 bytes @ 0x45
  1413     0065                     	ds	4
  1414     0069                     ___fldiv@bexp:
  1415                           
  1416                           ; 1 bytes @ 0x49
  1417     0069                     	ds	1
  1418     006A                     ___fldiv@aexp:
  1419                           
  1420                           ; 1 bytes @ 0x4A
  1421     006A                     	ds	1
  1422     006B                     ??_main:
  1423                           
  1424                           ; 1 bytes @ 0x4B
  1425     006B                     	ds	2
  1426                           
  1427                           	psect	maintext
  1428     0471                     __pmaintext:	
  1429 ;;
  1430 ;;Main: autosize = 0, tempsize = 2, incstack = 0, save=0
  1431 ;;
  1432 ;; *************** function _main *****************
  1433 ;; Defined at:
  1434 ;;		line 280 in file "main.c"
  1435 ;; Parameters:    Size  Location     Type
  1436 ;;		None
  1437 ;; Auto vars:     Size  Location     Type
  1438 ;;  error           4   32[BANK1 ] float 
  1439 ;;  integral        4   28[BANK1 ] float 
  1440 ;;  dt              4   24[BANK1 ] float 
  1441 ;;  output          4   20[BANK1 ] float 
  1442 ;;  previous_err    4   16[BANK1 ] float 
  1443 ;;  derivative      4   12[BANK1 ] float 
  1444 ;;  measured_val    4    8[BANK1 ] float 
  1445 ;;  setpoint        4    0[BANK1 ] float 
  1446 ;; Return value:  Size  Location     Type
  1447 ;;                  1    wreg      void 
  1448 ;; Registers used:
  1449 ;;		wreg, status,2, status,0, pclath, cstack
  1450 ;; Tracked objects:
  1451 ;;		On entry : B1F/0
  1452 ;;		On exit  : 0/0
  1453 ;;		Unchanged: 0/0
  1454 ;; Data sizes:     COMMON   BANK0   BANK1   BANK2   BANK3   BANK4   BANK5   BANK6   BANK7   BANK8   BANK9  BANK10  BANK1
      +1  BANK12  BANK13  BANK14  BANK15  BANK16  BANK17  BANK18  BANK19  BANK20  BANK21  BANK22  BANK23  BANK24  BANK25
  1455 ;;      Params:         0       0       0       0       0       0       0       0       0       0       0       0       
      +0       0       0       0       0       0       0       0       0       0       0       0       0       0       0
  1456 ;;      Locals:         0       0      36       0       0       0       0       0       0       0       0       0       
      +0       0       0       0       0       0       0       0       0       0       0       0       0       0       0
  1457 ;;      Temps:          0       2       0       0       0       0       0       0       0       0       0       0       
      +0       0       0       0       0       0       0       0       0       0       0       0       0       0       0
  1458 ;;      Totals:         0       2      36       0       0       0       0       0       0       0       0       0       
      +0       0       0       0       0       0       0       0       0       0       0       0       0       0       0
  1459 ;;Total ram usage:       38 bytes
  1460 ;; Hardware stack levels required when called: 3
  1461 ;; This function calls:
  1462 ;;		_EUSART_Initialize
  1463 ;;		___fladd
  1464 ;;		___fldiv
  1465 ;;		___flmul
  1466 ;;		___flsub
  1467 ;;		___fltol
  1468 ;;		___xxtofl
  1469 ;;		_initMain
  1470 ;;		_motorTurnRight
  1471 ;; This function is called by:
  1472 ;;		Startup code after reset
  1473 ;; This function uses a non-reentrant model
  1474 ;;
  1475                           
  1476     0471                     _main:	
  1477                           ;psect for function _main
  1478                           
  1479     0471                     l2325:	
  1480                           ;incstack = 0
  1481                           ; Regs used in _main: [wreg+status,2+status,0+pclath+cstack]
  1482                           
  1483                           
  1484                           ;main.c: 281:     initMain();
  1485     0471  3187  2798  3184   	fcall	_initMain
  1486                           
  1487                           ;main.c: 284:     EUSART_Initialize(19200);
  1488     0474  3000               	movlw	0
  1489     0475  0020               	movlb	0	; select bank0
  1490     0476  00A9               	movwf	EUSART_Initialize@baudrate+3
  1491     0477  3000               	movlw	0
  1492     0478  00A8               	movwf	EUSART_Initialize@baudrate+2
  1493     0479  304B               	movlw	75
  1494     047A  00A7               	movwf	EUSART_Initialize@baudrate+1
  1495     047B  3000               	movlw	0
  1496     047C  00A6               	movwf	EUSART_Initialize@baudrate
  1497     047D  318D  2596  3184   	fcall	_EUSART_Initialize
  1498     0480                     l2327:
  1499                           
  1500                           ;main.c: 287:     const float Kp = 2.0;;main.c: 288:     const float Ki = 0.5;;main.c: 2
      +                          89:     const float Kd = 1.0;;main.c: 292:     float setpoint = 100.0;
  1501     0480  3042               	movlw	66
  1502     0481  0021               	movlb	1	; select bank1
  1503     0482  00A3               	movwf	(main@setpoint+3)^(0+128)
  1504     0483  30C8               	movlw	200
  1505     0484  00A2               	movwf	(main@setpoint+2)^(0+128)
  1506     0485  3000               	movlw	0
  1507     0486  00A1               	movwf	(main@setpoint+1)^(0+128)
  1508     0487  3000               	movlw	0
  1509     0488  00A0               	movwf	main@setpoint^(0+128)
  1510     0489                     l2329:
  1511     0489                     l2331:
  1512     0489                     l2333:
  1513                           
  1514                           ;main.c: 295:     float integral = 0.0;
  1515     0489  3000               	movlw	0
  1516     048A  00BF               	movwf	(main@integral+3)^(0+128)
  1517     048B  3000               	movlw	0
  1518     048C  00BE               	movwf	(main@integral+2)^(0+128)
  1519     048D  3000               	movlw	0
  1520     048E  00BD               	movwf	(main@integral+1)^(0+128)
  1521     048F  3000               	movlw	0
  1522     0490  00BC               	movwf	main@integral^(0+128)
  1523     0491                     l2335:
  1524     0491                     l2337:
  1525                           
  1526                           ;main.c: 297:     float previous_error = 0.0;
  1527     0491  3000               	movlw	0
  1528     0492  00B3               	movwf	(main@previous_error+3)^(0+128)
  1529     0493  3000               	movlw	0
  1530     0494  00B2               	movwf	(main@previous_error+2)^(0+128)
  1531     0495  3000               	movlw	0
  1532     0496  00B1               	movwf	(main@previous_error+1)^(0+128)
  1533     0497  3000               	movlw	0
  1534     0498  00B0               	movwf	main@previous_error^(0+128)
  1535     0499                     l2339:
  1536     0499                     l2341:
  1537                           
  1538                           ;main.c: 301:     float dt = 0.01;
  1539     0499  303C               	movlw	60
  1540     049A  00BB               	movwf	(main@dt+3)^(0+128)
  1541     049B  3023               	movlw	35
  1542     049C  00BA               	movwf	(main@dt+2)^(0+128)
  1543     049D  30D7               	movlw	215
  1544     049E  00B9               	movwf	(main@dt+1)^(0+128)
  1545     049F  300A               	movlw	10
  1546     04A0  00B8               	movwf	main@dt^(0+128)
  1547     04A1                     l2343:
  1548                           
  1549                           ;main.c: 303:     _delay((unsigned long)((5000)*(32000000/4000.0)));
  1550     04A1  30CB               	movlw	203
  1551     04A2  0020               	movlb	0	; select bank0
  1552     04A3  00EC               	movwf	??_main+1
  1553     04A4  30EC               	movlw	236
  1554     04A5  00EB               	movwf	??_main
  1555     04A6  3084               	movlw	132
  1556     04A7                     u2907:
  1557     04A7  0B89               	decfsz	9,f
  1558     04A8  2CA7               	goto	u2907
  1559     04A9  0BEB               	decfsz	??_main,f
  1560     04AA  2CA7               	goto	u2907
  1561     04AB  0BEC               	decfsz	??_main+1,f
  1562     04AC  2CA7               	goto	u2907
  1563     04AD  0000               	nop
  1564     04AE                     l2345:
  1565                           
  1566                           ;main.c: 307:     {;main.c: 310:         measured_value = counterA;
  1567     04AE  0021               	movlb	1	; select bank1
  1568     04AF  0844               	movf	_counterA^(0+128),w	;volatile
  1569     04B0  00F0               	movwf	___xxtofl@val
  1570     04B1  0845               	movf	(_counterA+1)^(0+128),w	;volatile
  1571     04B2  00F1               	movwf	___xxtofl@val+1
  1572     04B3  0D89               	rlf	9,f
  1573     04B4  3B89               	subwfb	9,f
  1574     04B5  0989               	comf	9,f
  1575     04B6  00F2               	movwf	___xxtofl@val+2
  1576     04B7  00F3               	movwf	___xxtofl@val+3
  1577     04B8  3001               	movlw	1
  1578     04B9  3186  265E  3184   	fcall	___xxtofl
  1579     04BC  0873               	movf	?___xxtofl+3,w
  1580     04BD  0021               	movlb	1	; select bank1
  1581     04BE  00AB               	movwf	(main@measured_value+3)^(0+128)
  1582     04BF  0872               	movf	?___xxtofl+2,w
  1583     04C0  00AA               	movwf	(main@measured_value+2)^(0+128)
  1584     04C1  0871               	movf	?___xxtofl+1,w
  1585     04C2  00A9               	movwf	(main@measured_value+1)^(0+128)
  1586     04C3  0870               	movf	?___xxtofl,w
  1587     04C4  00A8               	movwf	main@measured_value^(0+128)
  1588     04C5                     l2347:
  1589                           
  1590                           ;main.c: 313:         error = setpoint - measured_value;
  1591     04C5  082B               	movf	(main@measured_value+3)^(0+128),w
  1592     04C6  0020               	movlb	0	; select bank0
  1593     04C7  00CC               	movwf	___flsub@a+3
  1594     04C8  0021               	movlb	1	; select bank1
  1595     04C9  082A               	movf	(main@measured_value+2)^(0+128),w
  1596     04CA  0020               	movlb	0	; select bank0
  1597     04CB  00CB               	movwf	___flsub@a+2
  1598     04CC  0021               	movlb	1	; select bank1
  1599     04CD  0829               	movf	(main@measured_value+1)^(0+128),w
  1600     04CE  0020               	movlb	0	; select bank0
  1601     04CF  00CA               	movwf	___flsub@a+1
  1602     04D0  0021               	movlb	1	; select bank1
  1603     04D1  0828               	movf	main@measured_value^(0+128),w
  1604     04D2  0020               	movlb	0	; select bank0
  1605     04D3  00C9               	movwf	___flsub@a
  1606     04D4  0021               	movlb	1	; select bank1
  1607     04D5  0823               	movf	(main@setpoint+3)^(0+128),w
  1608     04D6  0020               	movlb	0	; select bank0
  1609     04D7  00D0               	movwf	___flsub@b+3
  1610     04D8  0021               	movlb	1	; select bank1
  1611     04D9  0822               	movf	(main@setpoint+2)^(0+128),w
  1612     04DA  0020               	movlb	0	; select bank0
  1613     04DB  00CF               	movwf	___flsub@b+2
  1614     04DC  0021               	movlb	1	; select bank1
  1615     04DD  0821               	movf	(main@setpoint+1)^(0+128),w
  1616     04DE  0020               	movlb	0	; select bank0
  1617     04DF  00CE               	movwf	___flsub@b+1
  1618     04E0  0021               	movlb	1	; select bank1
  1619     04E1  0820               	movf	main@setpoint^(0+128),w
  1620     04E2  0020               	movlb	0	; select bank0
  1621     04E3  00CD               	movwf	___flsub@b
  1622     04E4  318D  2553  3184   	fcall	___flsub
  1623     04E7  0020               	movlb	0	; select bank0
  1624     04E8  084C               	movf	?___flsub+3,w
  1625     04E9  0021               	movlb	1	; select bank1
  1626     04EA  00C3               	movwf	(main@error+3)^(0+128)
  1627     04EB  0020               	movlb	0	; select bank0
  1628     04EC  084B               	movf	?___flsub+2,w
  1629     04ED  0021               	movlb	1	; select bank1
  1630     04EE  00C2               	movwf	(main@error+2)^(0+128)
  1631     04EF  0020               	movlb	0	; select bank0
  1632     04F0  084A               	movf	?___flsub+1,w
  1633     04F1  0021               	movlb	1	; select bank1
  1634     04F2  00C1               	movwf	(main@error+1)^(0+128)
  1635     04F3  0020               	movlb	0	; select bank0
  1636     04F4  0849               	movf	?___flsub,w
  1637     04F5  0021               	movlb	1	; select bank1
  1638     04F6  00C0               	movwf	main@error^(0+128)
  1639     04F7                     l2349:
  1640                           
  1641                           ;main.c: 316:         integral += error * dt;
  1642     04F7  0843               	movf	(main@error+3)^(0+128),w
  1643     04F8  0020               	movlb	0	; select bank0
  1644     04F9  00A7               	movwf	___flmul@a+3
  1645     04FA  0021               	movlb	1	; select bank1
  1646     04FB  0842               	movf	(main@error+2)^(0+128),w
  1647     04FC  0020               	movlb	0	; select bank0
  1648     04FD  00A6               	movwf	___flmul@a+2
  1649     04FE  0021               	movlb	1	; select bank1
  1650     04FF  0841               	movf	(main@error+1)^(0+128),w
  1651     0500  0020               	movlb	0	; select bank0
  1652     0501  00A5               	movwf	___flmul@a+1
  1653     0502  0021               	movlb	1	; select bank1
  1654     0503  0840               	movf	main@error^(0+128),w
  1655     0504  0020               	movlb	0	; select bank0
  1656     0505  00A4               	movwf	___flmul@a
  1657     0506  0021               	movlb	1	; select bank1
  1658     0507  083B               	movf	(main@dt+3)^(0+128),w
  1659     0508  0020               	movlb	0	; select bank0
  1660     0509  00A3               	movwf	___flmul@b+3
  1661     050A  0021               	movlb	1	; select bank1
  1662     050B  083A               	movf	(main@dt+2)^(0+128),w
  1663     050C  0020               	movlb	0	; select bank0
  1664     050D  00A2               	movwf	___flmul@b+2
  1665     050E  0021               	movlb	1	; select bank1
  1666     050F  0839               	movf	(main@dt+1)^(0+128),w
  1667     0510  0020               	movlb	0	; select bank0
  1668     0511  00A1               	movwf	___flmul@b+1
  1669     0512  0021               	movlb	1	; select bank1
  1670     0513  0838               	movf	main@dt^(0+128),w
  1671     0514  0020               	movlb	0	; select bank0
  1672     0515  00A0               	movwf	___flmul@b
  1673     0516  3180  202E  3184   	fcall	___flmul
  1674     0519  0020               	movlb	0	; select bank0
  1675     051A  0823               	movf	?___flmul+3,w
  1676     051B  00B8               	movwf	___fladd@b+3
  1677     051C  0822               	movf	?___flmul+2,w
  1678     051D  00B7               	movwf	___fladd@b+2
  1679     051E  0821               	movf	?___flmul+1,w
  1680     051F  00B6               	movwf	___fladd@b+1
  1681     0520  0820               	movf	?___flmul,w
  1682     0521  00B5               	movwf	___fladd@b
  1683     0522  0021               	movlb	1	; select bank1
  1684     0523  083F               	movf	(main@integral+3)^(0+128),w
  1685     0524  0020               	movlb	0	; select bank0
  1686     0525  00BC               	movwf	___fladd@a+3
  1687     0526  0021               	movlb	1	; select bank1
  1688     0527  083E               	movf	(main@integral+2)^(0+128),w
  1689     0528  0020               	movlb	0	; select bank0
  1690     0529  00BB               	movwf	___fladd@a+2
  1691     052A  0021               	movlb	1	; select bank1
  1692     052B  083D               	movf	(main@integral+1)^(0+128),w
  1693     052C  0020               	movlb	0	; select bank0
  1694     052D  00BA               	movwf	___fladd@a+1
  1695     052E  0021               	movlb	1	; select bank1
  1696     052F  083C               	movf	main@integral^(0+128),w
  1697     0530  0020               	movlb	0	; select bank0
  1698     0531  00B9               	movwf	___fladd@a
  1699     0532  3182  2269  3184   	fcall	___fladd
  1700     0535  0020               	movlb	0	; select bank0
  1701     0536  0838               	movf	?___fladd+3,w
  1702     0537  0021               	movlb	1	; select bank1
  1703     0538  00BF               	movwf	(main@integral+3)^(0+128)
  1704     0539  0020               	movlb	0	; select bank0
  1705     053A  0837               	movf	?___fladd+2,w
  1706     053B  0021               	movlb	1	; select bank1
  1707     053C  00BE               	movwf	(main@integral+2)^(0+128)
  1708     053D  0020               	movlb	0	; select bank0
  1709     053E  0836               	movf	?___fladd+1,w
  1710     053F  0021               	movlb	1	; select bank1
  1711     0540  00BD               	movwf	(main@integral+1)^(0+128)
  1712     0541  0020               	movlb	0	; select bank0
  1713     0542  0835               	movf	?___fladd,w
  1714     0543  0021               	movlb	1	; select bank1
  1715     0544  00BC               	movwf	main@integral^(0+128)
  1716     0545                     l2351:
  1717                           
  1718                           ;main.c: 319:         derivative = (error - previous_error) / dt;
  1719     0545  083B               	movf	(main@dt+3)^(0+128),w
  1720     0546  0020               	movlb	0	; select bank0
  1721     0547  00D4               	movwf	___fldiv@a+3
  1722     0548  0021               	movlb	1	; select bank1
  1723     0549  083A               	movf	(main@dt+2)^(0+128),w
  1724     054A  0020               	movlb	0	; select bank0
  1725     054B  00D3               	movwf	___fldiv@a+2
  1726     054C  0021               	movlb	1	; select bank1
  1727     054D  0839               	movf	(main@dt+1)^(0+128),w
  1728     054E  0020               	movlb	0	; select bank0
  1729     054F  00D2               	movwf	___fldiv@a+1
  1730     0550  0021               	movlb	1	; select bank1
  1731     0551  0838               	movf	main@dt^(0+128),w
  1732     0552  0020               	movlb	0	; select bank0
  1733     0553  00D1               	movwf	___fldiv@a
  1734     0554  0021               	movlb	1	; select bank1
  1735     0555  0833               	movf	(main@previous_error+3)^(0+128),w
  1736     0556  0020               	movlb	0	; select bank0
  1737     0557  00CC               	movwf	___flsub@a+3
  1738     0558  0021               	movlb	1	; select bank1
  1739     0559  0832               	movf	(main@previous_error+2)^(0+128),w
  1740     055A  0020               	movlb	0	; select bank0
  1741     055B  00CB               	movwf	___flsub@a+2
  1742     055C  0021               	movlb	1	; select bank1
  1743     055D  0831               	movf	(main@previous_error+1)^(0+128),w
  1744     055E  0020               	movlb	0	; select bank0
  1745     055F  00CA               	movwf	___flsub@a+1
  1746     0560  0021               	movlb	1	; select bank1
  1747     0561  0830               	movf	main@previous_error^(0+128),w
  1748     0562  0020               	movlb	0	; select bank0
  1749     0563  00C9               	movwf	___flsub@a
  1750     0564  0021               	movlb	1	; select bank1
  1751     0565  0843               	movf	(main@error+3)^(0+128),w
  1752     0566  0020               	movlb	0	; select bank0
  1753     0567  00D0               	movwf	___flsub@b+3
  1754     0568  0021               	movlb	1	; select bank1
  1755     0569  0842               	movf	(main@error+2)^(0+128),w
  1756     056A  0020               	movlb	0	; select bank0
  1757     056B  00CF               	movwf	___flsub@b+2
  1758     056C  0021               	movlb	1	; select bank1
  1759     056D  0841               	movf	(main@error+1)^(0+128),w
  1760     056E  0020               	movlb	0	; select bank0
  1761     056F  00CE               	movwf	___flsub@b+1
  1762     0570  0021               	movlb	1	; select bank1
  1763     0571  0840               	movf	main@error^(0+128),w
  1764     0572  0020               	movlb	0	; select bank0
  1765     0573  00CD               	movwf	___flsub@b
  1766     0574  318D  2553  3184   	fcall	___flsub
  1767     0577  0020               	movlb	0	; select bank0
  1768     0578  084C               	movf	?___flsub+3,w
  1769     0579  00D8               	movwf	___fldiv@b+3
  1770     057A  084B               	movf	?___flsub+2,w
  1771     057B  00D7               	movwf	___fldiv@b+2
  1772     057C  084A               	movf	?___flsub+1,w
  1773     057D  00D6               	movwf	___fldiv@b+1
  1774     057E  0849               	movf	?___flsub,w
  1775     057F  00D5               	movwf	___fldiv@b
  1776     0580  318E  2656  3184   	fcall	___fldiv
  1777     0583  0020               	movlb	0	; select bank0
  1778     0584  0854               	movf	?___fldiv+3,w
  1779     0585  0021               	movlb	1	; select bank1
  1780     0586  00AF               	movwf	(main@derivative+3)^(0+128)
  1781     0587  0020               	movlb	0	; select bank0
  1782     0588  0853               	movf	?___fldiv+2,w
  1783     0589  0021               	movlb	1	; select bank1
  1784     058A  00AE               	movwf	(main@derivative+2)^(0+128)
  1785     058B  0020               	movlb	0	; select bank0
  1786     058C  0852               	movf	?___fldiv+1,w
  1787     058D  0021               	movlb	1	; select bank1
  1788     058E  00AD               	movwf	(main@derivative+1)^(0+128)
  1789     058F  0020               	movlb	0	; select bank0
  1790     0590  0851               	movf	?___fldiv,w
  1791     0591  0021               	movlb	1	; select bank1
  1792     0592  00AC               	movwf	main@derivative^(0+128)
  1793     0593                     l2353:
  1794                           
  1795                           ;main.c: 322:         output = Kp * error + Ki * integral + Kd * derivative;
  1796     0593  303F               	movlw	63
  1797     0594  0020               	movlb	0	; select bank0
  1798     0595  00A3               	movwf	___flmul@b+3
  1799     0596  3000               	movlw	0
  1800     0597  00A2               	movwf	___flmul@b+2
  1801     0598  3000               	movlw	0
  1802     0599  00A1               	movwf	___flmul@b+1
  1803     059A  3000               	movlw	0
  1804     059B  00A0               	movwf	___flmul@b
  1805     059C  0021               	movlb	1	; select bank1
  1806     059D  083F               	movf	(main@integral+3)^(0+128),w
  1807     059E  0020               	movlb	0	; select bank0
  1808     059F  00A7               	movwf	___flmul@a+3
  1809     05A0  0021               	movlb	1	; select bank1
  1810     05A1  083E               	movf	(main@integral+2)^(0+128),w
  1811     05A2  0020               	movlb	0	; select bank0
  1812     05A3  00A6               	movwf	___flmul@a+2
  1813     05A4  0021               	movlb	1	; select bank1
  1814     05A5  083D               	movf	(main@integral+1)^(0+128),w
  1815     05A6  0020               	movlb	0	; select bank0
  1816     05A7  00A5               	movwf	___flmul@a+1
  1817     05A8  0021               	movlb	1	; select bank1
  1818     05A9  083C               	movf	main@integral^(0+128),w
  1819     05AA  0020               	movlb	0	; select bank0
  1820     05AB  00A4               	movwf	___flmul@a
  1821     05AC  3180  202E  3184   	fcall	___flmul
  1822     05AF  0020               	movlb	0	; select bank0
  1823     05B0  0823               	movf	?___flmul+3,w
  1824     05B1  00B8               	movwf	___fladd@b+3
  1825     05B2  0822               	movf	?___flmul+2,w
  1826     05B3  00B7               	movwf	___fladd@b+2
  1827     05B4  0821               	movf	?___flmul+1,w
  1828     05B5  00B6               	movwf	___fladd@b+1
  1829     05B6  0820               	movf	?___flmul,w
  1830     05B7  00B5               	movwf	___fladd@b
  1831     05B8  3040               	movlw	64
  1832     05B9  00A3               	movwf	___flmul@b+3
  1833     05BA  3000               	movlw	0
  1834     05BB  00A2               	movwf	___flmul@b+2
  1835     05BC  3000               	movlw	0
  1836     05BD  00A1               	movwf	___flmul@b+1
  1837     05BE  3000               	movlw	0
  1838     05BF  00A0               	movwf	___flmul@b
  1839     05C0  0021               	movlb	1	; select bank1
  1840     05C1  0843               	movf	(main@error+3)^(0+128),w
  1841     05C2  0020               	movlb	0	; select bank0
  1842     05C3  00A7               	movwf	___flmul@a+3
  1843     05C4  0021               	movlb	1	; select bank1
  1844     05C5  0842               	movf	(main@error+2)^(0+128),w
  1845     05C6  0020               	movlb	0	; select bank0
  1846     05C7  00A6               	movwf	___flmul@a+2
  1847     05C8  0021               	movlb	1	; select bank1
  1848     05C9  0841               	movf	(main@error+1)^(0+128),w
  1849     05CA  0020               	movlb	0	; select bank0
  1850     05CB  00A5               	movwf	___flmul@a+1
  1851     05CC  0021               	movlb	1	; select bank1
  1852     05CD  0840               	movf	main@error^(0+128),w
  1853     05CE  0020               	movlb	0	; select bank0
  1854     05CF  00A4               	movwf	___flmul@a
  1855     05D0  3180  202E  3184   	fcall	___flmul
  1856     05D3  0020               	movlb	0	; select bank0
  1857     05D4  0823               	movf	?___flmul+3,w
  1858     05D5  00BC               	movwf	___fladd@a+3
  1859     05D6  0822               	movf	?___flmul+2,w
  1860     05D7  00BB               	movwf	___fladd@a+2
  1861     05D8  0821               	movf	?___flmul+1,w
  1862     05D9  00BA               	movwf	___fladd@a+1
  1863     05DA  0820               	movf	?___flmul,w
  1864     05DB  00B9               	movwf	___fladd@a
  1865     05DC  3182  2269  3184   	fcall	___fladd
  1866     05DF  0020               	movlb	0	; select bank0
  1867     05E0  0838               	movf	?___fladd+3,w
  1868     05E1  0021               	movlb	1	; select bank1
  1869     05E2  00A7               	movwf	(_main$1116+3)^(0+128)
  1870     05E3  0020               	movlb	0	; select bank0
  1871     05E4  0837               	movf	?___fladd+2,w
  1872     05E5  0021               	movlb	1	; select bank1
  1873     05E6  00A6               	movwf	(_main$1116+2)^(0+128)
  1874     05E7  0020               	movlb	0	; select bank0
  1875     05E8  0836               	movf	?___fladd+1,w
  1876     05E9  0021               	movlb	1	; select bank1
  1877     05EA  00A5               	movwf	(_main$1116+1)^(0+128)
  1878     05EB  0020               	movlb	0	; select bank0
  1879     05EC  0835               	movf	?___fladd,w
  1880     05ED  0021               	movlb	1	; select bank1
  1881     05EE  00A4               	movwf	_main$1116^(0+128)
  1882     05EF                     l2355:
  1883                           
  1884                           ;main.c: 322:         output = Kp * error + Ki * integral + Kd * derivative;
  1885     05EF  303F               	movlw	63
  1886     05F0  0020               	movlb	0	; select bank0
  1887     05F1  00A3               	movwf	___flmul@b+3
  1888     05F2  3080               	movlw	128
  1889     05F3  00A2               	movwf	___flmul@b+2
  1890     05F4  3000               	movlw	0
  1891     05F5  00A1               	movwf	___flmul@b+1
  1892     05F6  3000               	movlw	0
  1893     05F7  00A0               	movwf	___flmul@b
  1894     05F8  0021               	movlb	1	; select bank1
  1895     05F9  082F               	movf	(main@derivative+3)^(0+128),w
  1896     05FA  0020               	movlb	0	; select bank0
  1897     05FB  00A7               	movwf	___flmul@a+3
  1898     05FC  0021               	movlb	1	; select bank1
  1899     05FD  082E               	movf	(main@derivative+2)^(0+128),w
  1900     05FE  0020               	movlb	0	; select bank0
  1901     05FF  00A6               	movwf	___flmul@a+2
  1902     0600  0021               	movlb	1	; select bank1
  1903     0601  082D               	movf	(main@derivative+1)^(0+128),w
  1904     0602  0020               	movlb	0	; select bank0
  1905     0603  00A5               	movwf	___flmul@a+1
  1906     0604  0021               	movlb	1	; select bank1
  1907     0605  082C               	movf	main@derivative^(0+128),w
  1908     0606  0020               	movlb	0	; select bank0
  1909     0607  00A4               	movwf	___flmul@a
  1910     0608  3180  202E  3184   	fcall	___flmul
  1911     060B  0020               	movlb	0	; select bank0
  1912     060C  0823               	movf	?___flmul+3,w
  1913     060D  00B8               	movwf	___fladd@b+3
  1914     060E  0822               	movf	?___flmul+2,w
  1915     060F  00B7               	movwf	___fladd@b+2
  1916     0610  0821               	movf	?___flmul+1,w
  1917     0611  00B6               	movwf	___fladd@b+1
  1918     0612  0820               	movf	?___flmul,w
  1919     0613  00B5               	movwf	___fladd@b
  1920     0614  0021               	movlb	1	; select bank1
  1921     0615  0827               	movf	(_main$1116+3)^(0+128),w
  1922     0616  0020               	movlb	0	; select bank0
  1923     0617  00BC               	movwf	___fladd@a+3
  1924     0618  0021               	movlb	1	; select bank1
  1925     0619  0826               	movf	(_main$1116+2)^(0+128),w
  1926     061A  0020               	movlb	0	; select bank0
  1927     061B  00BB               	movwf	___fladd@a+2
  1928     061C  0021               	movlb	1	; select bank1
  1929     061D  0825               	movf	(_main$1116+1)^(0+128),w
  1930     061E  0020               	movlb	0	; select bank0
  1931     061F  00BA               	movwf	___fladd@a+1
  1932     0620  0021               	movlb	1	; select bank1
  1933     0621  0824               	movf	_main$1116^(0+128),w
  1934     0622  0020               	movlb	0	; select bank0
  1935     0623  00B9               	movwf	___fladd@a
  1936     0624  3182  2269  3184   	fcall	___fladd
  1937     0627  0020               	movlb	0	; select bank0
  1938     0628  0838               	movf	?___fladd+3,w
  1939     0629  0021               	movlb	1	; select bank1
  1940     062A  00B7               	movwf	(main@output+3)^(0+128)
  1941     062B  0020               	movlb	0	; select bank0
  1942     062C  0837               	movf	?___fladd+2,w
  1943     062D  0021               	movlb	1	; select bank1
  1944     062E  00B6               	movwf	(main@output+2)^(0+128)
  1945     062F  0020               	movlb	0	; select bank0
  1946     0630  0836               	movf	?___fladd+1,w
  1947     0631  0021               	movlb	1	; select bank1
  1948     0632  00B5               	movwf	(main@output+1)^(0+128)
  1949     0633  0020               	movlb	0	; select bank0
  1950     0634  0835               	movf	?___fladd,w
  1951     0635  0021               	movlb	1	; select bank1
  1952     0636  00B4               	movwf	main@output^(0+128)
  1953     0637                     l2357:
  1954                           
  1955                           ;main.c: 325:         motorTurnRight(output);
  1956     0637  0837               	movf	(main@output+3)^(0+128),w
  1957     0638  00F3               	movwf	___fltol@f1+3
  1958     0639  0836               	movf	(main@output+2)^(0+128),w
  1959     063A  00F2               	movwf	___fltol@f1+2
  1960     063B  0835               	movf	(main@output+1)^(0+128),w
  1961     063C  00F1               	movwf	___fltol@f1+1
  1962     063D  0834               	movf	main@output^(0+128),w
  1963     063E  00F0               	movwf	___fltol@f1
  1964     063F  318D  25E6  3184   	fcall	___fltol
  1965     0642  0871               	movf	?___fltol+1,w
  1966     0643  00FB               	movwf	motorTurnRight@motorSpeed+1
  1967     0644  0870               	movf	?___fltol,w
  1968     0645  00FA               	movwf	motorTurnRight@motorSpeed
  1969     0646  318D  253F  3184   	fcall	_motorTurnRight
  1970                           
  1971                           ;main.c: 328:         previous_error = error;
  1972     0649  0021               	movlb	1	; select bank1
  1973     064A  0843               	movf	(main@error+3)^(0+128),w
  1974     064B  00B3               	movwf	(main@previous_error+3)^(0+128)
  1975     064C  0842               	movf	(main@error+2)^(0+128),w
  1976     064D  00B2               	movwf	(main@previous_error+2)^(0+128)
  1977     064E  0841               	movf	(main@error+1)^(0+128),w
  1978     064F  00B1               	movwf	(main@previous_error+1)^(0+128)
  1979     0650  0840               	movf	main@error^(0+128),w
  1980     0651  00B0               	movwf	main@previous_error^(0+128)
  1981                           
  1982                           ;main.c: 331:         _delay((unsigned long)((10)*(32000000/4000.0)));
  1983     0652  3068               	movlw	104
  1984     0653  0020               	movlb	0	; select bank0
  1985     0654  00EB               	movwf	??_main
  1986     0655  30E4               	movlw	228
  1987     0656                     u2917:
  1988     0656  0B89               	decfsz	9,f
  1989     0657  2E56               	goto	u2917
  1990     0658  0BEB               	decfsz	??_main,f
  1991     0659  2E56               	goto	u2917
  1992     065A  0000               	nop
  1993     065B  2CAE               	goto	l2345
  1994     065C  3180  2822         	ljmp	start
  1995     065E                     __end_of_main:
  1996                           
  1997                           	psect	text1
  1998     0D3F                     __ptext1:	
  1999 ;; *************** function _motorTurnRight *****************
  2000 ;; Defined at:
  2001 ;;		line 238 in file "main.c"
  2002 ;; Parameters:    Size  Location     Type
  2003 ;;  motorSpeed      2   10[COMMON] unsigned short 
  2004 ;; Auto vars:     Size  Location     Type
  2005 ;;		None
  2006 ;; Return value:  Size  Location     Type
  2007 ;;                  1    wreg      void 
  2008 ;; Registers used:
  2009 ;;		wreg, status,2, status,0, pclath, cstack
  2010 ;; Tracked objects:
  2011 ;;		On entry : 0/0
  2012 ;;		On exit  : 0/0
  2013 ;;		Unchanged: 0/0
  2014 ;; Data sizes:     COMMON   BANK0   BANK1   BANK2   BANK3   BANK4   BANK5   BANK6   BANK7   BANK8   BANK9  BANK10  BANK1
      +1  BANK12  BANK13  BANK14  BANK15  BANK16  BANK17  BANK18  BANK19  BANK20  BANK21  BANK22  BANK23  BANK24  BANK25
  2015 ;;      Params:         2       0       0       0       0       0       0       0       0       0       0       0       
      +0       0       0       0       0       0       0       0       0       0       0       0       0       0       0
  2016 ;;      Locals:         0       0       0       0       0       0       0       0       0       0       0       0       
      +0       0       0       0       0       0       0       0       0       0       0       0       0       0       0
  2017 ;;      Temps:          0       0       0       0       0       0       0       0       0       0       0       0       
      +0       0       0       0       0       0       0       0       0       0       0       0       0       0       0
  2018 ;;      Totals:         2       0       0       0       0       0       0       0       0       0       0       0       
      +0       0       0       0       0       0       0       0       0       0       0       0       0       0       0
  2019 ;;Total ram usage:        2 bytes
  2020 ;; Hardware stack levels used: 1
  2021 ;; Hardware stack levels required when called: 2
  2022 ;; This function calls:
  2023 ;;		_leftEnable
  2024 ;;		_leftPWMDuty
  2025 ;;		_rightEnable
  2026 ;;		_rightPWMDuty
  2027 ;; This function is called by:
  2028 ;;		_main
  2029 ;; This function uses a non-reentrant model
  2030 ;;
  2031                           
  2032     0D3F                     _motorTurnRight:	
  2033                           ;psect for function _motorTurnRight
  2034                           
  2035     0D3F                     l1923:	
  2036                           ;incstack = 0
  2037                           ; Regs used in _motorTurnRight: [wreg+status,2+status,0+pclath+cstack]
  2038                           
  2039                           
  2040                           ;main.c: 238: void motorTurnRight(uint16_t motorSpeed);main.c: 239: {;main.c: 241:    le
      +                          ftEnable();
  2041     0D3F  318D  252F  318D   	fcall	_leftEnable
  2042                           
  2043                           ;main.c: 242:    rightEnable();
  2044     0D42  3187  27FD  318D   	fcall	_rightEnable
  2045     0D45                     l1925:
  2046                           
  2047                           ;main.c: 245:    leftPWMDuty(motorSpeed);
  2048     0D45  087B               	movf	motorTurnRight@motorSpeed+1,w
  2049     0D46  00F1               	movwf	leftPWMDuty@duty+1
  2050     0D47  087A               	movf	motorTurnRight@motorSpeed,w
  2051     0D48  00F0               	movwf	leftPWMDuty@duty
  2052     0D49  318D  2532  318D   	fcall	_leftPWMDuty
  2053     0D4C                     l1927:
  2054                           
  2055                           ;main.c: 248:    rightPWMDuty(0);
  2056     0D4C  3000               	movlw	0
  2057     0D4D  00F0               	movwf	rightPWMDuty@duty
  2058     0D4E  00F1               	movwf	rightPWMDuty@duty+1
  2059     0D4F  3187  27F9  318D   	fcall	_rightPWMDuty
  2060     0D52                     l83:
  2061     0D52  0008               	return
  2062     0D53                     __end_of_motorTurnRight:
  2063                           
  2064                           	psect	text2
  2065     07F9                     __ptext2:	
  2066 ;; *************** function _rightPWMDuty *****************
  2067 ;; Defined at:
  2068 ;;		line 199 in file "main.c"
  2069 ;; Parameters:    Size  Location     Type
  2070 ;;  duty            2    0[COMMON] unsigned short 
  2071 ;; Auto vars:     Size  Location     Type
  2072 ;;		None
  2073 ;; Return value:  Size  Location     Type
  2074 ;;                  1    wreg      void 
  2075 ;; Registers used:
  2076 ;;		wreg
  2077 ;; Tracked objects:
  2078 ;;		On entry : 0/0
  2079 ;;		On exit  : 0/0
  2080 ;;		Unchanged: 0/0
  2081 ;; Data sizes:     COMMON   BANK0   BANK1   BANK2   BANK3   BANK4   BANK5   BANK6   BANK7   BANK8   BANK9  BANK10  BANK1
      +1  BANK12  BANK13  BANK14  BANK15  BANK16  BANK17  BANK18  BANK19  BANK20  BANK21  BANK22  BANK23  BANK24  BANK25
  2082 ;;      Params:         2       0       0       0       0       0       0       0       0       0       0       0       
      +0       0       0       0       0       0       0       0       0       0       0       0       0       0       0
  2083 ;;      Locals:         0       0       0       0       0       0       0       0       0       0       0       0       
      +0       0       0       0       0       0       0       0       0       0       0       0       0       0       0
  2084 ;;      Temps:          0       0       0       0       0       0       0       0       0       0       0       0       
      +0       0       0       0       0       0       0       0       0       0       0       0       0       0       0
  2085 ;;      Totals:         2       0       0       0       0       0       0       0       0       0       0       0       
      +0       0       0       0       0       0       0       0       0       0       0       0       0       0       0
  2086 ;;Total ram usage:        2 bytes
  2087 ;; Hardware stack levels used: 1
  2088 ;; Hardware stack levels required when called: 1
  2089 ;; This function calls:
  2090 ;;		Nothing
  2091 ;; This function is called by:
  2092 ;;		_motorTurnRight
  2093 ;;		_motorTurnLeft
  2094 ;;		_motorStop
  2095 ;; This function uses a non-reentrant model
  2096 ;;
  2097                           
  2098     07F9                     _rightPWMDuty:	
  2099                           ;psect for function _rightPWMDuty
  2100                           
  2101     07F9                     l1597:	
  2102                           ;incstack = 0
  2103                           ; Regs used in _rightPWMDuty: [wreg]
  2104                           
  2105                           
  2106                           ;main.c: 199: void rightPWMDuty(uint16_t duty);main.c: 200: {;main.c: 201:     CCPR1L = 
      +                          duty;
  2107     07F9  0870               	movf	rightPWMDuty@duty,w
  2108     07FA  0025               	movlb	5	; select bank5
  2109     07FB  0091               	movwf	17	;volatile
  2110     07FC                     l74:
  2111     07FC  0008               	return
  2112     07FD                     __end_of_rightPWMDuty:
  2113                           
  2114                           	psect	text3
  2115     07FD                     __ptext3:	
  2116 ;; *************** function _rightEnable *****************
  2117 ;; Defined at:
  2118 ;;		line 187 in file "main.c"
  2119 ;; Parameters:    Size  Location     Type
  2120 ;;		None
  2121 ;; Auto vars:     Size  Location     Type
  2122 ;;		None
  2123 ;; Return value:  Size  Location     Type
  2124 ;;                  1    wreg      void 
  2125 ;; Registers used:
  2126 ;;		None
  2127 ;; Tracked objects:
  2128 ;;		On entry : 0/0
  2129 ;;		On exit  : 0/0
  2130 ;;		Unchanged: 0/0
  2131 ;; Data sizes:     COMMON   BANK0   BANK1   BANK2   BANK3   BANK4   BANK5   BANK6   BANK7   BANK8   BANK9  BANK10  BANK1
      +1  BANK12  BANK13  BANK14  BANK15  BANK16  BANK17  BANK18  BANK19  BANK20  BANK21  BANK22  BANK23  BANK24  BANK25
  2132 ;;      Params:         0       0       0       0       0       0       0       0       0       0       0       0       
      +0       0       0       0       0       0       0       0       0       0       0       0       0       0       0
  2133 ;;      Locals:         0       0       0       0       0       0       0       0       0       0       0       0       
      +0       0       0       0       0       0       0       0       0       0       0       0       0       0       0
  2134 ;;      Temps:          0       0       0       0       0       0       0       0       0       0       0       0       
      +0       0       0       0       0       0       0       0       0       0       0       0       0       0       0
  2135 ;;      Totals:         0       0       0       0       0       0       0       0       0       0       0       0       
      +0       0       0       0       0       0       0       0       0       0       0       0       0       0       0
  2136 ;;Total ram usage:        0 bytes
  2137 ;; Hardware stack levels used: 1
  2138 ;; Hardware stack levels required when called: 1
  2139 ;; This function calls:
  2140 ;;		Nothing
  2141 ;; This function is called by:
  2142 ;;		_motorTurnRight
  2143 ;;		_motorTurnLeft
  2144 ;; This function uses a non-reentrant model
  2145 ;;
  2146                           
  2147     07FD                     _rightEnable:	
  2148                           ;psect for function _rightEnable
  2149                           
  2150     07FD                     l1595:	
  2151                           ;incstack = 0
  2152                           ; Regs used in _rightEnable: []
  2153                           
  2154                           
  2155                           ;main.c: 189:     LATDbits.LATD1 = 1;
  2156     07FD  0022               	movlb	2	; select bank2
  2157     07FE  148F               	bsf	15,1	;volatile
  2158     07FF                     l68:
  2159     07FF  0008               	return
  2160     0800                     __end_of_rightEnable:
  2161                           
  2162                           	psect	text4
  2163     0D32                     __ptext4:	
  2164 ;; *************** function _leftPWMDuty *****************
  2165 ;; Defined at:
  2166 ;;		line 205 in file "main.c"
  2167 ;; Parameters:    Size  Location     Type
  2168 ;;  duty            2    0[COMMON] unsigned short 
  2169 ;; Auto vars:     Size  Location     Type
  2170 ;;		None
  2171 ;; Return value:  Size  Location     Type
  2172 ;;                  1    wreg      void 
  2173 ;; Registers used:
  2174 ;;		wreg
  2175 ;; Tracked objects:
  2176 ;;		On entry : 0/0
  2177 ;;		On exit  : 0/0
  2178 ;;		Unchanged: 0/0
  2179 ;; Data sizes:     COMMON   BANK0   BANK1   BANK2   BANK3   BANK4   BANK5   BANK6   BANK7   BANK8   BANK9  BANK10  BANK1
      +1  BANK12  BANK13  BANK14  BANK15  BANK16  BANK17  BANK18  BANK19  BANK20  BANK21  BANK22  BANK23  BANK24  BANK25
  2180 ;;      Params:         2       0       0       0       0       0       0       0       0       0       0       0       
      +0       0       0       0       0       0       0       0       0       0       0       0       0       0       0
  2181 ;;      Locals:         0       0       0       0       0       0       0       0       0       0       0       0       
      +0       0       0       0       0       0       0       0       0       0       0       0       0       0       0
  2182 ;;      Temps:          0       0       0       0       0       0       0       0       0       0       0       0       
      +0       0       0       0       0       0       0       0       0       0       0       0       0       0       0
  2183 ;;      Totals:         2       0       0       0       0       0       0       0       0       0       0       0       
      +0       0       0       0       0       0       0       0       0       0       0       0       0       0       0
  2184 ;;Total ram usage:        2 bytes
  2185 ;; Hardware stack levels used: 1
  2186 ;; Hardware stack levels required when called: 1
  2187 ;; This function calls:
  2188 ;;		Nothing
  2189 ;; This function is called by:
  2190 ;;		_motorTurnRight
  2191 ;;		_motorTurnLeft
  2192 ;;		_motorStop
  2193 ;; This function uses a non-reentrant model
  2194 ;;
  2195                           
  2196     0D32                     _leftPWMDuty:	
  2197                           ;psect for function _leftPWMDuty
  2198                           
  2199     0D32                     l1599:	
  2200                           ;incstack = 0
  2201                           ; Regs used in _leftPWMDuty: [wreg]
  2202                           
  2203                           
  2204                           ;main.c: 205: void leftPWMDuty(uint16_t duty);main.c: 206: {;main.c: 207:     CCPR2L = d
      +                          uty;
  2205     0D32  0870               	movf	leftPWMDuty@duty,w
  2206     0D33  0025               	movlb	5	; select bank5
  2207     0D34  0098               	movwf	24	;volatile
  2208     0D35                     l77:
  2209     0D35  0008               	return
  2210     0D36                     __end_of_leftPWMDuty:
  2211                           
  2212                           	psect	text5
  2213     0D2F                     __ptext5:	
  2214 ;; *************** function _leftEnable *****************
  2215 ;; Defined at:
  2216 ;;		line 175 in file "main.c"
  2217 ;; Parameters:    Size  Location     Type
  2218 ;;		None
  2219 ;; Auto vars:     Size  Location     Type
  2220 ;;		None
  2221 ;; Return value:  Size  Location     Type
  2222 ;;                  1    wreg      void 
  2223 ;; Registers used:
  2224 ;;		None
  2225 ;; Tracked objects:
  2226 ;;		On entry : 0/0
  2227 ;;		On exit  : 0/0
  2228 ;;		Unchanged: 0/0
  2229 ;; Data sizes:     COMMON   BANK0   BANK1   BANK2   BANK3   BANK4   BANK5   BANK6   BANK7   BANK8   BANK9  BANK10  BANK1
      +1  BANK12  BANK13  BANK14  BANK15  BANK16  BANK17  BANK18  BANK19  BANK20  BANK21  BANK22  BANK23  BANK24  BANK25
  2230 ;;      Params:         0       0       0       0       0       0       0       0       0       0       0       0       
      +0       0       0       0       0       0       0       0       0       0       0       0       0       0       0
  2231 ;;      Locals:         0       0       0       0       0       0       0       0       0       0       0       0       
      +0       0       0       0       0       0       0       0       0       0       0       0       0       0       0
  2232 ;;      Temps:          0       0       0       0       0       0       0       0       0       0       0       0       
      +0       0       0       0       0       0       0       0       0       0       0       0       0       0       0
  2233 ;;      Totals:         0       0       0       0       0       0       0       0       0       0       0       0       
      +0       0       0       0       0       0       0       0       0       0       0       0       0       0       0
  2234 ;;Total ram usage:        0 bytes
  2235 ;; Hardware stack levels used: 1
  2236 ;; Hardware stack levels required when called: 1
  2237 ;; This function calls:
  2238 ;;		Nothing
  2239 ;; This function is called by:
  2240 ;;		_motorTurnRight
  2241 ;;		_motorTurnLeft
  2242 ;; This function uses a non-reentrant model
  2243 ;;
  2244                           
  2245     0D2F                     _leftEnable:	
  2246                           ;psect for function _leftEnable
  2247                           
  2248     0D2F                     l1593:	
  2249                           ;incstack = 0
  2250                           ; Regs used in _leftEnable: []
  2251                           
  2252                           
  2253                           ;main.c: 177:    LATDbits.LATD0 = 1;
  2254     0D2F  0022               	movlb	2	; select bank2
  2255     0D30  140F               	bsf	15,0	;volatile
  2256     0D31                     l62:
  2257     0D31  0008               	return
  2258     0D32                     __end_of_leftEnable:
  2259                           
  2260                           	psect	text6
  2261     0798                     __ptext6:	
  2262 ;; *************** function _initMain *****************
  2263 ;; Defined at:
  2264 ;;		line 56 in file "main.c"
  2265 ;; Parameters:    Size  Location     Type
  2266 ;;		None
  2267 ;; Auto vars:     Size  Location     Type
  2268 ;;		None
  2269 ;; Return value:  Size  Location     Type
  2270 ;;                  1    wreg      void 
  2271 ;; Registers used:
  2272 ;;		wreg, status,2, status,0, pclath, cstack
  2273 ;; Tracked objects:
  2274 ;;		On entry : 0/0
  2275 ;;		On exit  : 0/0
  2276 ;;		Unchanged: 0/0
  2277 ;; Data sizes:     COMMON   BANK0   BANK1   BANK2   BANK3   BANK4   BANK5   BANK6   BANK7   BANK8   BANK9  BANK10  BANK1
      +1  BANK12  BANK13  BANK14  BANK15  BANK16  BANK17  BANK18  BANK19  BANK20  BANK21  BANK22  BANK23  BANK24  BANK25
  2278 ;;      Params:         0       0       0       0       0       0       0       0       0       0       0       0       
      +0       0       0       0       0       0       0       0       0       0       0       0       0       0       0
  2279 ;;      Locals:         0       0       0       0       0       0       0       0       0       0       0       0       
      +0       0       0       0       0       0       0       0       0       0       0       0       0       0       0
  2280 ;;      Temps:          2       0       0       0       0       0       0       0       0       0       0       0       
      +0       0       0       0       0       0       0       0       0       0       0       0       0       0       0
  2281 ;;      Totals:         2       0       0       0       0       0       0       0       0       0       0       0       
      +0       0       0       0       0       0       0       0       0       0       0       0       0       0       0
  2282 ;;Total ram usage:        2 bytes
  2283 ;; Hardware stack levels used: 1
  2284 ;; Hardware stack levels required when called: 2
  2285 ;; This function calls:
  2286 ;;		_internal_32
  2287 ;; This function is called by:
  2288 ;;		_main
  2289 ;; This function uses a non-reentrant model
  2290 ;;
  2291                           
  2292     0798                     _initMain:	
  2293                           ;psect for function _initMain
  2294                           
  2295     0798                     l1849:	
  2296                           ;incstack = 0
  2297                           ; Regs used in _initMain: [wreg+status,2+status,0+pclath+cstack]
  2298                           
  2299                           
  2300                           ;main.c: 58:     internal_32();
  2301     0798  318D  2536  3187   	fcall	_internal_32
  2302     079B                     l1851:
  2303                           
  2304                           ;main.c: 59:     _delay((unsigned long)((100)*(32000000/4000.0)));
  2305     079B  3005               	movlw	5
  2306     079C  00F1               	movwf	??_initMain+1
  2307     079D  300F               	movlw	15
  2308     079E  00F0               	movwf	??_initMain
  2309     079F  30F1               	movlw	241
  2310     07A0                     u2927:
  2311     07A0  0B89               	decfsz	9,f
  2312     07A1  2FA0               	goto	u2927
  2313     07A2  0BF0               	decfsz	??_initMain,f
  2314     07A3  2FA0               	goto	u2927
  2315     07A4  0BF1               	decfsz	??_initMain+1,f
  2316     07A5  2FA0               	goto	u2927
  2317     07A6  0000               	nop
  2318     07A7                     l1853:
  2319                           
  2320                           ;main.c: 64:     TRISDbits.TRISD1 = 0;
  2321     07A7  0021               	movlb	1	; select bank1
  2322     07A8  108F               	bcf	15,1	;volatile
  2323     07A9                     l1855:
  2324                           
  2325                           ;main.c: 67:     TRISBbits.TRISB0 = 0;
  2326     07A9  100D               	bcf	13,0	;volatile
  2327     07AA                     l1857:
  2328                           
  2329                           ;main.c: 70:     TRISBbits.TRISB1 = 0;
  2330     07AA  108D               	bcf	13,1	;volatile
  2331     07AB                     l1859:
  2332                           
  2333                           ;main.c: 73:     ANSELB = 0;
  2334     07AB  0023               	movlb	3	; select bank3
  2335     07AC  018D               	clrf	13	;volatile
  2336     07AD                     l1861:
  2337                           
  2338                           ;main.c: 76:     TRISDbits.TRISD0 = 0;
  2339     07AD  0021               	movlb	1	; select bank1
  2340     07AE  100F               	bcf	15,0	;volatile
  2341     07AF                     l1863:
  2342                           
  2343                           ;main.c: 77:     TRISDbits.TRISD1 = 0;
  2344     07AF  108F               	bcf	15,1	;volatile
  2345     07B0                     l1865:
  2346                           
  2347                           ;main.c: 84:     CCPTMRSbits.C1TSEL = 0b10;
  2348     07B0  0025               	movlb	5	; select bank5
  2349     07B1  081E               	movf	30,w	;volatile
  2350     07B2  39FC               	andlw	-4
  2351     07B3  3802               	iorlw	2
  2352     07B4  009E               	movwf	30	;volatile
  2353     07B5                     l1867:
  2354                           
  2355                           ;main.c: 85:     CCPTMRSbits.C2TSEL = 0b10;
  2356     07B5  081E               	movf	30,w	;volatile
  2357     07B6  39F3               	andlw	-13
  2358     07B7  3808               	iorlw	8
  2359     07B8  009E               	movwf	30	;volatile
  2360     07B9                     l1869:
  2361                           
  2362                           ;main.c: 99:     T6CONbits.T6CKPS = 0b00;
  2363     07B9  30FC               	movlw	-4
  2364     07BA  0028               	movlb	8	; select bank8
  2365     07BB  059E               	andwf	30,f	;volatile
  2366     07BC                     l1871:
  2367                           
  2368                           ;main.c: 102:     T6CONbits.TMR6ON = 1;
  2369     07BC  151E               	bsf	30,2	;volatile
  2370     07BD                     l1873:
  2371                           
  2372                           ;main.c: 105:     PR6 = 255;
  2373     07BD  30FF               	movlw	255
  2374     07BE  009D               	movwf	29	;volatile
  2375     07BF                     l1875:
  2376                           
  2377                           ;main.c: 114:     CCP1CONbits.DC1B = 00;
  2378     07BF  30CF               	movlw	-49
  2379     07C0  0025               	movlb	5	; select bank5
  2380     07C1  0593               	andwf	19,f	;volatile
  2381     07C2                     l1877:
  2382                           
  2383                           ;main.c: 117:     CCP1CONbits.CCP1M = 0b1100;
  2384     07C2  0813               	movf	19,w	;volatile
  2385     07C3  39F0               	andlw	-16
  2386     07C4  380C               	iorlw	12
  2387     07C5  0093               	movwf	19	;volatile
  2388     07C6                     l1879:
  2389                           
  2390                           ;main.c: 122:     CCP2CONbits.DC2B = 00;
  2391     07C6  30CF               	movlw	-49
  2392     07C7  059A               	andwf	26,f	;volatile
  2393     07C8                     l1881:
  2394                           
  2395                           ;main.c: 125:     CCP2CONbits.CCP2M = 0b1100;
  2396     07C8  081A               	movf	26,w	;volatile
  2397     07C9  39F0               	andlw	-16
  2398     07CA  380C               	iorlw	12
  2399     07CB  009A               	movwf	26	;volatile
  2400     07CC                     l1883:
  2401                           
  2402                           ;main.c: 127:     TRISBbits.TRISB2 = 0;
  2403     07CC  0021               	movlb	1	; select bank1
  2404     07CD  110D               	bcf	13,2	;volatile
  2405     07CE                     l1885:
  2406                           
  2407                           ;main.c: 128:     ANSELBbits.ANSB2 = 0;
  2408     07CE  0023               	movlb	3	; select bank3
  2409     07CF  110D               	bcf	13,2	;volatile
  2410     07D0                     l1887:
  2411                           
  2412                           ;main.c: 134:     TRISAbits.TRISA0 = 1;
  2413     07D0  0021               	movlb	1	; select bank1
  2414     07D1  140C               	bsf	12,0	;volatile
  2415     07D2                     l1889:
  2416                           
  2417                           ;main.c: 135:     TRISAbits.TRISA1 = 1;
  2418     07D2  148C               	bsf	12,1	;volatile
  2419     07D3                     l1891:
  2420                           
  2421                           ;main.c: 137:     ANSELAbits.ANSA0 = 0;
  2422     07D3  0023               	movlb	3	; select bank3
  2423     07D4  100C               	bcf	12,0	;volatile
  2424     07D5                     l1893:
  2425                           
  2426                           ;main.c: 138:     ANSELAbits.ANSA1 = 0;
  2427     07D5  108C               	bcf	12,1	;volatile
  2428     07D6                     l1895:
  2429                           
  2430                           ;main.c: 141:     IOCANbits.IOCAN0 = 1;
  2431     07D6  0027               	movlb	7	; select bank7
  2432     07D7  1412               	bsf	18,0	;volatile
  2433     07D8                     l1897:
  2434                           
  2435                           ;main.c: 142:     IOCANbits.IOCAN1 = 1;
  2436     07D8  1492               	bsf	18,1	;volatile
  2437     07D9                     l1899:
  2438                           
  2439                           ;main.c: 145:     INTCONbits.IOCIE = 1;
  2440     07D9  158B               	bsf	11,3	;volatile
  2441     07DA                     l1901:
  2442                           
  2443                           ;main.c: 148:     (INTCONbits.GIE = 1);
  2444     07DA  178B               	bsf	11,7	;volatile
  2445     07DB                     l1903:
  2446                           
  2447                           ;main.c: 155:     PPSLOCK = 0x55;
  2448     07DB  3055               	movlw	85
  2449     07DC  003C               	movlb	28	; select bank28
  2450     07DD  008F               	movwf	15	;volsfr
  2451     07DE                     l1905:
  2452                           
  2453                           ;main.c: 156:     PPSLOCK = 0xAA;
  2454     07DE  30AA               	movlw	170
  2455     07DF  008F               	movwf	15	;volsfr
  2456     07E0                     l1907:
  2457                           
  2458                           ;main.c: 157:     PPSLOCKbits.PPSLOCKED = 0x00;
  2459     07E0  100F               	bcf	15,0	;volsfr
  2460     07E1                     l1909:
  2461                           
  2462                           ;main.c: 160:     RB0PPSbits.RB0PPS = 0b01100;
  2463     07E1  003D               	movlb	29	; select bank29
  2464     07E2  0818               	movf	24,w	;volatile
  2465     07E3  39E0               	andlw	-32
  2466     07E4  380C               	iorlw	12
  2467     07E5  0098               	movwf	24	;volatile
  2468     07E6                     l1911:
  2469                           
  2470                           ;main.c: 163:     RB1PPSbits.RB1PPS = 0b01101;
  2471     07E6  0819               	movf	25,w	;volatile
  2472     07E7  39E0               	andlw	-32
  2473     07E8  380D               	iorlw	13
  2474     07E9  0099               	movwf	25	;volatile
  2475     07EA                     l1913:
  2476                           
  2477                           ;main.c: 166:     RB2PPSbits.RB2PPS = 0x14;
  2478     07EA  081A               	movf	26,w	;volatile
  2479     07EB  39E0               	andlw	-32
  2480     07EC  3814               	iorlw	20
  2481     07ED  009A               	movwf	26	;volatile
  2482     07EE                     l1915:
  2483                           
  2484                           ;main.c: 167:     RXPPSbits.RXPPS = 0x0B;
  2485     07EE  003C               	movlb	28	; select bank28
  2486     07EF  0824               	movf	36,w	;volatile
  2487     07F0  39E0               	andlw	-32
  2488     07F1  380B               	iorlw	11
  2489     07F2  00A4               	movwf	36	;volatile
  2490     07F3                     l1917:
  2491                           
  2492                           ;main.c: 169:     PPSLOCK = 0x55;
  2493     07F3  3055               	movlw	85
  2494     07F4  008F               	movwf	15	;volsfr
  2495     07F5                     l1919:
  2496                           
  2497                           ;main.c: 170:     PPSLOCK = 0xAA;
  2498     07F5  30AA               	movlw	170
  2499     07F6  008F               	movwf	15	;volsfr
  2500     07F7                     l1921:
  2501                           
  2502                           ;main.c: 171:     PPSLOCKbits.PPSLOCKED = 0x01;
  2503     07F7  140F               	bsf	15,0	;volsfr
  2504     07F8                     l59:
  2505     07F8  0008               	return
  2506     07F9                     __end_of_initMain:
  2507                           
  2508                           	psect	text7
  2509     0D36                     __ptext7:	
  2510 ;; *************** function _internal_32 *****************
  2511 ;; Defined at:
  2512 ;;		line 32 in file "PIC16F1719_Internal.c"
  2513 ;; Parameters:    Size  Location     Type
  2514 ;;		None
  2515 ;; Auto vars:     Size  Location     Type
  2516 ;;		None
  2517 ;; Return value:  Size  Location     Type
  2518 ;;                  1    wreg      void 
  2519 ;; Registers used:
  2520 ;;		None
  2521 ;; Tracked objects:
  2522 ;;		On entry : 0/0
  2523 ;;		On exit  : 0/0
  2524 ;;		Unchanged: 0/0
  2525 ;; Data sizes:     COMMON   BANK0   BANK1   BANK2   BANK3   BANK4   BANK5   BANK6   BANK7   BANK8   BANK9  BANK10  BANK1
      +1  BANK12  BANK13  BANK14  BANK15  BANK16  BANK17  BANK18  BANK19  BANK20  BANK21  BANK22  BANK23  BANK24  BANK25
  2526 ;;      Params:         0       0       0       0       0       0       0       0       0       0       0       0       
      +0       0       0       0       0       0       0       0       0       0       0       0       0       0       0
  2527 ;;      Locals:         0       0       0       0       0       0       0       0       0       0       0       0       
      +0       0       0       0       0       0       0       0       0       0       0       0       0       0       0
  2528 ;;      Temps:          0       0       0       0       0       0       0       0       0       0       0       0       
      +0       0       0       0       0       0       0       0       0       0       0       0       0       0       0
  2529 ;;      Totals:         0       0       0       0       0       0       0       0       0       0       0       0       
      +0       0       0       0       0       0       0       0       0       0       0       0       0       0       0
  2530 ;;Total ram usage:        0 bytes
  2531 ;; Hardware stack levels used: 1
  2532 ;; Hardware stack levels required when called: 1
  2533 ;; This function calls:
  2534 ;;		Nothing
  2535 ;; This function is called by:
  2536 ;;		_initMain
  2537 ;; This function uses a non-reentrant model
  2538 ;;
  2539                           
  2540     0D36                     _internal_32:	
  2541                           ;psect for function _internal_32
  2542                           
  2543     0D36                     l1591:	
  2544                           ;incstack = 0
  2545                           ; Regs used in _internal_32: []
  2546                           
  2547                           
  2548                           ;PIC16F1719_Internal.c: 34:     SCS0 = 0;
  2549     0D36  0021               	movlb	1	; select bank1
  2550     0D37  1019               	bcf	25,0	;volatile
  2551                           
  2552                           ;PIC16F1719_Internal.c: 35:     SCS1 = 0;
  2553     0D38  1099               	bcf	25,1	;volatile
  2554                           
  2555                           ;PIC16F1719_Internal.c: 38:     IRCF0 = 0;
  2556     0D39  1199               	bcf	25,3	;volatile
  2557                           
  2558                           ;PIC16F1719_Internal.c: 39:     IRCF1 = 1;
  2559     0D3A  1619               	bsf	25,4	;volatile
  2560                           
  2561                           ;PIC16F1719_Internal.c: 40:     IRCF2 = 1;
  2562     0D3B  1699               	bsf	25,5	;volatile
  2563                           
  2564                           ;PIC16F1719_Internal.c: 41:     IRCF3 = 1;
  2565     0D3C  1719               	bsf	25,6	;volatile
  2566                           
  2567                           ;PIC16F1719_Internal.c: 44:     SPLLEN = 1;
  2568     0D3D  1799               	bsf	25,7	;volatile
  2569     0D3E                     l191:
  2570     0D3E  0008               	return
  2571     0D3F                     __end_of_internal_32:
  2572                           
  2573                           	psect	text8
  2574     065E                     __ptext8:	
  2575 ;; *************** function ___xxtofl *****************
  2576 ;; Defined at:
  2577 ;;		line 10 in file "C:\Program Files\Microchip\xc8\v2.45\pic\sources\c99\common\xxtofl.c"
  2578 ;; Parameters:    Size  Location     Type
  2579 ;;  sign            1    wreg     unsigned char 
  2580 ;;  val             4    0[COMMON] long 
  2581 ;; Auto vars:     Size  Location     Type
  2582 ;;  sign            1    8[COMMON] unsigned char 
  2583 ;;  arg             4   10[COMMON] unsigned long 
  2584 ;;  exp             1    9[COMMON] unsigned char 
  2585 ;; Return value:  Size  Location     Type
  2586 ;;                  4    0[COMMON] unsigned char 
  2587 ;; Registers used:
  2588 ;;		wreg, status,2, status,0
  2589 ;; Tracked objects:
  2590 ;;		On entry : 0/0
  2591 ;;		On exit  : 0/0
  2592 ;;		Unchanged: 0/0
  2593 ;; Data sizes:     COMMON   BANK0   BANK1   BANK2   BANK3   BANK4   BANK5   BANK6   BANK7   BANK8   BANK9  BANK10  BANK1
      +1  BANK12  BANK13  BANK14  BANK15  BANK16  BANK17  BANK18  BANK19  BANK20  BANK21  BANK22  BANK23  BANK24  BANK25
  2594 ;;      Params:         4       0       0       0       0       0       0       0       0       0       0       0       
      +0       0       0       0       0       0       0       0       0       0       0       0       0       0       0
  2595 ;;      Locals:         6       0       0       0       0       0       0       0       0       0       0       0       
      +0       0       0       0       0       0       0       0       0       0       0       0       0       0       0
  2596 ;;      Temps:          4       0       0       0       0       0       0       0       0       0       0       0       
      +0       0       0       0       0       0       0       0       0       0       0       0       0       0       0
  2597 ;;      Totals:        14       0       0       0       0       0       0       0       0       0       0       0       
      +0       0       0       0       0       0       0       0       0       0       0       0       0       0       0
  2598 ;;Total ram usage:       14 bytes
  2599 ;; Hardware stack levels used: 1
  2600 ;; Hardware stack levels required when called: 1
  2601 ;; This function calls:
  2602 ;;		Nothing
  2603 ;; This function is called by:
  2604 ;;		_main
  2605 ;; This function uses a non-reentrant model
  2606 ;;
  2607                           
  2608     065E                     ___xxtofl:	
  2609                           ;psect for function ___xxtofl
  2610                           
  2611                           
  2612                           ;incstack = 0
  2613                           ; Regs used in ___xxtofl: [wreg+status,2+status,0]
  2614                           ;___xxtofl@sign stored from wreg
  2615     065E  00F8               	movwf	___xxtofl@sign
  2616     065F                     l2269:
  2617     065F  0878               	movf	___xxtofl@sign,w
  2618     0660  1903               	btfsc	3,2
  2619     0661  2E63               	goto	u2731
  2620     0662  2E64               	goto	u2730
  2621     0663                     u2731:
  2622     0663  2E78               	goto	l2275
  2623     0664                     u2730:
  2624     0664                     l2271:
  2625     0664  1FF3               	btfss	___xxtofl@val+3,7
  2626     0665  2E67               	goto	u2741
  2627     0666  2E68               	goto	u2740
  2628     0667                     u2741:
  2629     0667  2E78               	goto	l2275
  2630     0668                     u2740:
  2631     0668                     l2273:
  2632     0668  0970               	comf	___xxtofl@val,w
  2633     0669  00FA               	movwf	___xxtofl@arg
  2634     066A  0971               	comf	___xxtofl@val+1,w
  2635     066B  00FB               	movwf	___xxtofl@arg+1
  2636     066C  0972               	comf	___xxtofl@val+2,w
  2637     066D  00FC               	movwf	___xxtofl@arg+2
  2638     066E  0973               	comf	___xxtofl@val+3,w
  2639     066F  00FD               	movwf	___xxtofl@arg+3
  2640     0670  0AFA               	incf	___xxtofl@arg,f
  2641     0671  1903               	skipnz
  2642     0672  0AFB               	incf	___xxtofl@arg+1,f
  2643     0673  1903               	skipnz
  2644     0674  0AFC               	incf	___xxtofl@arg+2,f
  2645     0675  1903               	skipnz
  2646     0676  0AFD               	incf	___xxtofl@arg+3,f
  2647     0677  2E80               	goto	l718
  2648     0678                     l2275:
  2649     0678  0873               	movf	___xxtofl@val+3,w
  2650     0679  00FD               	movwf	___xxtofl@arg+3
  2651     067A  0872               	movf	___xxtofl@val+2,w
  2652     067B  00FC               	movwf	___xxtofl@arg+2
  2653     067C  0871               	movf	___xxtofl@val+1,w
  2654     067D  00FB               	movwf	___xxtofl@arg+1
  2655     067E  0870               	movf	___xxtofl@val,w
  2656     067F  00FA               	movwf	___xxtofl@arg
  2657     0680                     l718:
  2658     0680  0873               	movf	___xxtofl@val+3,w
  2659     0681  0472               	iorwf	___xxtofl@val+2,w
  2660     0682  0471               	iorwf	___xxtofl@val+1,w
  2661     0683  0470               	iorwf	___xxtofl@val,w
  2662     0684  1D03               	skipz
  2663     0685  2E87               	goto	u2751
  2664     0686  2E88               	goto	u2750
  2665     0687                     u2751:
  2666     0687  2E91               	goto	l2281
  2667     0688                     u2750:
  2668     0688                     l2277:
  2669     0688  3000               	movlw	0
  2670     0689  00F3               	movwf	?___xxtofl+3
  2671     068A  3000               	movlw	0
  2672     068B  00F2               	movwf	?___xxtofl+2
  2673     068C  3000               	movlw	0
  2674     068D  00F1               	movwf	?___xxtofl+1
  2675     068E  3000               	movlw	0
  2676     068F  00F0               	movwf	?___xxtofl
  2677     0690  2F07               	goto	l720
  2678     0691                     l2281:
  2679     0691  3096               	movlw	150
  2680     0692  00F9               	movwf	___xxtofl@exp
  2681     0693  2E9F               	goto	l2285
  2682     0694                     l2283:
  2683     0694  3001               	movlw	1
  2684     0695  00F4               	movwf	??___xxtofl
  2685     0696  0874               	movf	??___xxtofl,w
  2686     0697  07F9               	addwf	___xxtofl@exp,f
  2687     0698  3001               	movlw	1
  2688     0699                     u2765:
  2689     0699  36FD               	lsrf	___xxtofl@arg+3,f
  2690     069A  0CFC               	rrf	___xxtofl@arg+2,f
  2691     069B  0CFB               	rrf	___xxtofl@arg+1,f
  2692     069C  0CFA               	rrf	___xxtofl@arg,f
  2693     069D  0B89               	decfsz	9,f
  2694     069E  2E99               	goto	u2765
  2695     069F                     l2285:
  2696     069F  30FE               	movlw	254
  2697     06A0  057D               	andwf	___xxtofl@arg+3,w
  2698     06A1  1D03               	btfss	3,2
  2699     06A2  2EA4               	goto	u2771
  2700     06A3  2EA5               	goto	u2770
  2701     06A4                     u2771:
  2702     06A4  2E94               	goto	l2283
  2703     06A5                     u2770:
  2704     06A5  2EB9               	goto	l724
  2705     06A6                     l2287:
  2706     06A6  3001               	movlw	1
  2707     06A7  00F4               	movwf	??___xxtofl
  2708     06A8  0874               	movf	??___xxtofl,w
  2709     06A9  07F9               	addwf	___xxtofl@exp,f
  2710     06AA                     l2289:
  2711     06AA  3001               	movlw	1
  2712     06AB  07FA               	addwf	___xxtofl@arg,f
  2713     06AC  3000               	movlw	0
  2714     06AD  3DFB               	addwfc	___xxtofl@arg+1,f
  2715     06AE  3000               	movlw	0
  2716     06AF  3DFC               	addwfc	___xxtofl@arg+2,f
  2717     06B0  3000               	movlw	0
  2718     06B1  3DFD               	addwfc	___xxtofl@arg+3,f
  2719     06B2                     l2291:
  2720     06B2  3001               	movlw	1
  2721     06B3                     u2785:
  2722     06B3  36FD               	lsrf	___xxtofl@arg+3,f
  2723     06B4  0CFC               	rrf	___xxtofl@arg+2,f
  2724     06B5  0CFB               	rrf	___xxtofl@arg+1,f
  2725     06B6  0CFA               	rrf	___xxtofl@arg,f
  2726     06B7  0B89               	decfsz	9,f
  2727     06B8  2EB3               	goto	u2785
  2728     06B9                     l724:
  2729     06B9  30FF               	movlw	255
  2730     06BA  057D               	andwf	___xxtofl@arg+3,w
  2731     06BB  1D03               	btfss	3,2
  2732     06BC  2EBE               	goto	u2791
  2733     06BD  2EBF               	goto	u2790
  2734     06BE                     u2791:
  2735     06BE  2EA6               	goto	l2287
  2736     06BF                     u2790:
  2737     06BF  2EC9               	goto	l2295
  2738     06C0                     l2293:
  2739     06C0  3001               	movlw	1
  2740     06C1  02F9               	subwf	___xxtofl@exp,f
  2741     06C2  3001               	movlw	1
  2742     06C3                     u2805:
  2743     06C3  35FA               	lslf	___xxtofl@arg,f
  2744     06C4  0DFB               	rlf	___xxtofl@arg+1,f
  2745     06C5  0DFC               	rlf	___xxtofl@arg+2,f
  2746     06C6  0DFD               	rlf	___xxtofl@arg+3,f
  2747     06C7  0B89               	decfsz	9,f
  2748     06C8  2EC3               	goto	u2805
  2749     06C9                     l2295:
  2750     06C9  1BFC               	btfsc	___xxtofl@arg+2,7
  2751     06CA  2ECC               	goto	u2811
  2752     06CB  2ECD               	goto	u2810
  2753     06CC                     u2811:
  2754     06CC  2ED3               	goto	l731
  2755     06CD                     u2810:
  2756     06CD                     l2297:
  2757     06CD  3002               	movlw	2
  2758     06CE  0279               	subwf	___xxtofl@exp,w
  2759     06CF  1803               	skipnc
  2760     06D0  2ED2               	goto	u2821
  2761     06D1  2ED3               	goto	u2820
  2762     06D2                     u2821:
  2763     06D2  2EC0               	goto	l2293
  2764     06D3                     u2820:
  2765     06D3                     l731:
  2766     06D3  1879               	btfsc	___xxtofl@exp,0
  2767     06D4  2ED6               	goto	u2831
  2768     06D5  2ED7               	goto	u2830
  2769     06D6                     u2831:
  2770     06D6  2EDF               	goto	l732
  2771     06D7                     u2830:
  2772     06D7                     l2299:
  2773     06D7  30FF               	movlw	255
  2774     06D8  05FA               	andwf	___xxtofl@arg,f
  2775     06D9  30FF               	movlw	255
  2776     06DA  05FB               	andwf	___xxtofl@arg+1,f
  2777     06DB  307F               	movlw	127
  2778     06DC  05FC               	andwf	___xxtofl@arg+2,f
  2779     06DD  30FF               	movlw	255
  2780     06DE  05FD               	andwf	___xxtofl@arg+3,f
  2781     06DF                     l732:
  2782     06DF  1003               	clrc
  2783     06E0  0CF9               	rrf	___xxtofl@exp,f
  2784     06E1                     l2301:
  2785     06E1  0879               	movf	___xxtofl@exp,w
  2786     06E2  00F4               	movwf	??___xxtofl
  2787     06E3  01F5               	clrf	??___xxtofl+1
  2788     06E4  01F6               	clrf	??___xxtofl+2
  2789     06E5  01F7               	clrf	??___xxtofl+3
  2790     06E6  3018               	movlw	24
  2791     06E7                     u2845:
  2792     06E7  35F4               	lslf	??___xxtofl,f
  2793     06E8  0DF5               	rlf	??___xxtofl+1,f
  2794     06E9  0DF6               	rlf	??___xxtofl+2,f
  2795     06EA  0DF7               	rlf	??___xxtofl+3,f
  2796     06EB                     u2840:
  2797     06EB  0B89               	decfsz	9,f
  2798     06EC  2EE7               	goto	u2845
  2799     06ED  0874               	movf	??___xxtofl,w
  2800     06EE  04FA               	iorwf	___xxtofl@arg,f
  2801     06EF  0875               	movf	??___xxtofl+1,w
  2802     06F0  04FB               	iorwf	___xxtofl@arg+1,f
  2803     06F1  0876               	movf	??___xxtofl+2,w
  2804     06F2  04FC               	iorwf	___xxtofl@arg+2,f
  2805     06F3  0877               	movf	??___xxtofl+3,w
  2806     06F4  04FD               	iorwf	___xxtofl@arg+3,f
  2807     06F5                     l2303:
  2808     06F5  0878               	movf	___xxtofl@sign,w
  2809     06F6  1903               	btfsc	3,2
  2810     06F7  2EF9               	goto	u2851
  2811     06F8  2EFA               	goto	u2850
  2812     06F9                     u2851:
  2813     06F9  2EFF               	goto	l2309
  2814     06FA                     u2850:
  2815     06FA                     l2305:
  2816     06FA  1FF3               	btfss	___xxtofl@val+3,7
  2817     06FB  2EFD               	goto	u2861
  2818     06FC  2EFE               	goto	u2860
  2819     06FD                     u2861:
  2820     06FD  2EFF               	goto	l2309
  2821     06FE                     u2860:
  2822     06FE                     l2307:
  2823     06FE  17FD               	bsf	___xxtofl@arg+3,7
  2824     06FF                     l2309:
  2825     06FF  087D               	movf	___xxtofl@arg+3,w
  2826     0700  00F3               	movwf	?___xxtofl+3
  2827     0701  087C               	movf	___xxtofl@arg+2,w
  2828     0702  00F2               	movwf	?___xxtofl+2
  2829     0703  087B               	movf	___xxtofl@arg+1,w
  2830     0704  00F1               	movwf	?___xxtofl+1
  2831     0705  087A               	movf	___xxtofl@arg,w
  2832     0706  00F0               	movwf	?___xxtofl
  2833     0707                     l720:
  2834     0707  0008               	return
  2835     0708                     __end_of___xxtofl:
  2836                           
  2837                           	psect	text9
  2838     0DE6                     __ptext9:	
  2839 ;; *************** function ___fltol *****************
  2840 ;; Defined at:
  2841 ;;		line 43 in file "C:\Program Files\Microchip\xc8\v2.45\pic\sources\c99\common\fltol.c"
  2842 ;; Parameters:    Size  Location     Type
  2843 ;;  f1              4    0[COMMON] unsigned char 
  2844 ;; Auto vars:     Size  Location     Type
  2845 ;;  exp1            1    9[COMMON] unsigned char 
  2846 ;;  sign1           1    8[COMMON] unsigned char 
  2847 ;; Return value:  Size  Location     Type
  2848 ;;                  4    0[COMMON] long 
  2849 ;; Registers used:
  2850 ;;		wreg, status,2, status,0
  2851 ;; Tracked objects:
  2852 ;;		On entry : 0/0
  2853 ;;		On exit  : 0/0
  2854 ;;		Unchanged: 0/0
  2855 ;; Data sizes:     COMMON   BANK0   BANK1   BANK2   BANK3   BANK4   BANK5   BANK6   BANK7   BANK8   BANK9  BANK10  BANK1
      +1  BANK12  BANK13  BANK14  BANK15  BANK16  BANK17  BANK18  BANK19  BANK20  BANK21  BANK22  BANK23  BANK24  BANK25
  2856 ;;      Params:         4       0       0       0       0       0       0       0       0       0       0       0       
      +0       0       0       0       0       0       0       0       0       0       0       0       0       0       0
  2857 ;;      Locals:         2       0       0       0       0       0       0       0       0       0       0       0       
      +0       0       0       0       0       0       0       0       0       0       0       0       0       0       0
  2858 ;;      Temps:          4       0       0       0       0       0       0       0       0       0       0       0       
      +0       0       0       0       0       0       0       0       0       0       0       0       0       0       0
  2859 ;;      Totals:        10       0       0       0       0       0       0       0       0       0       0       0       
      +0       0       0       0       0       0       0       0       0       0       0       0       0       0       0
  2860 ;;Total ram usage:       10 bytes
  2861 ;; Hardware stack levels used: 1
  2862 ;; Hardware stack levels required when called: 1
  2863 ;; This function calls:
  2864 ;;		Nothing
  2865 ;; This function is called by:
  2866 ;;		_main
  2867 ;; This function uses a non-reentrant model
  2868 ;;
  2869                           
  2870     0DE6                     ___fltol:	
  2871                           ;psect for function ___fltol
  2872                           
  2873     0DE6                     l1947:	
  2874                           ;incstack = 0
  2875                           ; Regs used in ___fltol: [wreg+status,2+status,0]
  2876                           
  2877     0DE6  1003               	clrc
  2878     0DE7  0D72               	rlf	___fltol@f1+2,w
  2879     0DE8  0D73               	rlf	___fltol@f1+3,w
  2880     0DE9  00F9               	movwf	___fltol@exp1
  2881     0DEA  0879               	movf	___fltol@exp1,w
  2882     0DEB  1D03               	btfss	3,2
  2883     0DEC  2DEE               	goto	u2081
  2884     0DED  2DEF               	goto	u2080
  2885     0DEE                     u2081:
  2886     0DEE  2DF8               	goto	l1953
  2887     0DEF                     u2080:
  2888     0DEF                     l1949:
  2889     0DEF  3000               	movlw	0
  2890     0DF0  00F3               	movwf	?___fltol+3
  2891     0DF1  3000               	movlw	0
  2892     0DF2  00F2               	movwf	?___fltol+2
  2893     0DF3  3000               	movlw	0
  2894     0DF4  00F1               	movwf	?___fltol+1
  2895     0DF5  3000               	movlw	0
  2896     0DF6  00F0               	movwf	?___fltol
  2897     0DF7  2E55               	goto	l471
  2898     0DF8                     l1953:
  2899     0DF8  0870               	movf	___fltol@f1,w
  2900     0DF9  00F4               	movwf	??___fltol
  2901     0DFA  0871               	movf	___fltol@f1+1,w
  2902     0DFB  00F5               	movwf	??___fltol+1
  2903     0DFC  0872               	movf	___fltol@f1+2,w
  2904     0DFD  00F6               	movwf	??___fltol+2
  2905     0DFE  0873               	movf	___fltol@f1+3,w
  2906     0DFF  00F7               	movwf	??___fltol+3
  2907     0E00  301F               	movlw	31
  2908     0E01                     u2095:
  2909     0E01  36F7               	lsrf	??___fltol+3,f
  2910     0E02  0CF6               	rrf	??___fltol+2,f
  2911     0E03  0CF5               	rrf	??___fltol+1,f
  2912     0E04  0CF4               	rrf	??___fltol,f
  2913     0E05                     u2090:
  2914     0E05  0B89               	decfsz	9,f
  2915     0E06  2E01               	goto	u2095
  2916     0E07  0874               	movf	??___fltol,w
  2917     0E08  00F8               	movwf	___fltol@sign1
  2918     0E09                     l1955:
  2919     0E09  17F2               	bsf	___fltol@f1+2,7
  2920     0E0A                     l1957:
  2921     0E0A  30FF               	movlw	255
  2922     0E0B  05F0               	andwf	___fltol@f1,f
  2923     0E0C  30FF               	movlw	255
  2924     0E0D  05F1               	andwf	___fltol@f1+1,f
  2925     0E0E  30FF               	movlw	255
  2926     0E0F  05F2               	andwf	___fltol@f1+2,f
  2927     0E10  3000               	movlw	0
  2928     0E11  05F3               	andwf	___fltol@f1+3,f
  2929     0E12                     l1959:
  2930     0E12  3096               	movlw	150
  2931     0E13  02F9               	subwf	___fltol@exp1,f
  2932     0E14                     l1961:
  2933     0E14  1FF9               	btfss	___fltol@exp1,7
  2934     0E15  2E17               	goto	u2101
  2935     0E16  2E18               	goto	u2100
  2936     0E17                     u2101:
  2937     0E17  2E30               	goto	l1971
  2938     0E18                     u2100:
  2939     0E18                     l1963:
  2940     0E18  0879               	movf	___fltol@exp1,w
  2941     0E19  3A80               	xorlw	128
  2942     0E1A  3E97               	addlw	151
  2943     0E1B  1803               	skipnc
  2944     0E1C  2E1E               	goto	u2111
  2945     0E1D  2E1F               	goto	u2110
  2946     0E1E                     u2111:
  2947     0E1E  2E20               	goto	l1969
  2948     0E1F                     u2110:
  2949     0E1F  2DEF               	goto	l1949
  2950     0E20                     l1969:
  2951     0E20  3001               	movlw	1
  2952     0E21                     u2125:
  2953     0E21  36F3               	lsrf	___fltol@f1+3,f
  2954     0E22  0CF2               	rrf	___fltol@f1+2,f
  2955     0E23  0CF1               	rrf	___fltol@f1+1,f
  2956     0E24  0CF0               	rrf	___fltol@f1,f
  2957     0E25  0B89               	decfsz	9,f
  2958     0E26  2E21               	goto	u2125
  2959     0E27  3001               	movlw	1
  2960     0E28  00F4               	movwf	??___fltol
  2961     0E29  0874               	movf	??___fltol,w
  2962     0E2A  07F9               	addwf	___fltol@exp1,f
  2963     0E2B  1D03               	btfss	3,2
  2964     0E2C  2E2E               	goto	u2131
  2965     0E2D  2E2F               	goto	u2130
  2966     0E2E                     u2131:
  2967     0E2E  2E20               	goto	l1969
  2968     0E2F                     u2130:
  2969     0E2F  2E45               	goto	l1979
  2970     0E30                     l1971:
  2971     0E30  3020               	movlw	32
  2972     0E31  0279               	subwf	___fltol@exp1,w
  2973     0E32  1C03               	skipc
  2974     0E33  2E35               	goto	u2141
  2975     0E34  2E36               	goto	u2140
  2976     0E35                     u2141:
  2977     0E35  2E40               	goto	l478
  2978     0E36                     u2140:
  2979     0E36  2DEF               	goto	l1949
  2980     0E37                     l1977:
  2981     0E37  3001               	movlw	1
  2982     0E38                     u2155:
  2983     0E38  35F0               	lslf	___fltol@f1,f
  2984     0E39  0DF1               	rlf	___fltol@f1+1,f
  2985     0E3A  0DF2               	rlf	___fltol@f1+2,f
  2986     0E3B  0DF3               	rlf	___fltol@f1+3,f
  2987     0E3C  0B89               	decfsz	9,f
  2988     0E3D  2E38               	goto	u2155
  2989     0E3E  3001               	movlw	1
  2990     0E3F  02F9               	subwf	___fltol@exp1,f
  2991     0E40                     l478:
  2992     0E40  0879               	movf	___fltol@exp1,w
  2993     0E41  1D03               	btfss	3,2
  2994     0E42  2E44               	goto	u2161
  2995     0E43  2E45               	goto	u2160
  2996     0E44                     u2161:
  2997     0E44  2E37               	goto	l1977
  2998     0E45                     u2160:
  2999     0E45                     l1979:
  3000     0E45  0878               	movf	___fltol@sign1,w
  3001     0E46  1903               	btfsc	3,2
  3002     0E47  2E49               	goto	u2171
  3003     0E48  2E4A               	goto	u2170
  3004     0E49                     u2171:
  3005     0E49  2E55               	goto	l481
  3006     0E4A                     u2170:
  3007     0E4A                     l1981:
  3008     0E4A  09F0               	comf	___fltol@f1,f
  3009     0E4B  09F1               	comf	___fltol@f1+1,f
  3010     0E4C  09F2               	comf	___fltol@f1+2,f
  3011     0E4D  09F3               	comf	___fltol@f1+3,f
  3012     0E4E  0AF0               	incf	___fltol@f1,f
  3013     0E4F  1903               	skipnz
  3014     0E50  0AF1               	incf	___fltol@f1+1,f
  3015     0E51  1903               	skipnz
  3016     0E52  0AF2               	incf	___fltol@f1+2,f
  3017     0E53  1903               	skipnz
  3018     0E54  0AF3               	incf	___fltol@f1+3,f
  3019     0E55                     l481:
  3020     0E55                     l471:
  3021     0E55  0008               	return
  3022     0E56                     __end_of___fltol:
  3023                           
  3024                           	psect	text10
  3025     0D53                     __ptext10:	
  3026 ;; *************** function ___flsub *****************
  3027 ;; Defined at:
  3028 ;;		line 242 in file "C:\Program Files\Microchip\xc8\v2.45\pic\sources\c99\common\sprcadd.c"
  3029 ;; Parameters:    Size  Location     Type
  3030 ;;  a               4   41[BANK0 ] long 
  3031 ;;  b               4   45[BANK0 ] long 
  3032 ;; Auto vars:     Size  Location     Type
  3033 ;;		None
  3034 ;; Return value:  Size  Location     Type
  3035 ;;                  4   41[BANK0 ] long 
  3036 ;; Registers used:
  3037 ;;		wreg, status,2, status,0, pclath, cstack
  3038 ;; Tracked objects:
  3039 ;;		On entry : 0/0
  3040 ;;		On exit  : 0/0
  3041 ;;		Unchanged: 0/0
  3042 ;; Data sizes:     COMMON   BANK0   BANK1   BANK2   BANK3   BANK4   BANK5   BANK6   BANK7   BANK8   BANK9  BANK10  BANK1
      +1  BANK12  BANK13  BANK14  BANK15  BANK16  BANK17  BANK18  BANK19  BANK20  BANK21  BANK22  BANK23  BANK24  BANK25
  3043 ;;      Params:         0       8       0       0       0       0       0       0       0       0       0       0       
      +0       0       0       0       0       0       0       0       0       0       0       0       0       0       0
  3044 ;;      Locals:         0       0       0       0       0       0       0       0       0       0       0       0       
      +0       0       0       0       0       0       0       0       0       0       0       0       0       0       0
  3045 ;;      Temps:          0       0       0       0       0       0       0       0       0       0       0       0       
      +0       0       0       0       0       0       0       0       0       0       0       0       0       0       0
  3046 ;;      Totals:         0       8       0       0       0       0       0       0       0       0       0       0       
      +0       0       0       0       0       0       0       0       0       0       0       0       0       0       0
  3047 ;;Total ram usage:        8 bytes
  3048 ;; Hardware stack levels used: 1
  3049 ;; Hardware stack levels required when called: 2
  3050 ;; This function calls:
  3051 ;;		___fladd
  3052 ;; This function is called by:
  3053 ;;		_main
  3054 ;; This function uses a non-reentrant model
  3055 ;;
  3056                           
  3057     0D53                     ___flsub:	
  3058                           ;psect for function ___flsub
  3059                           
  3060     0D53                     l1983:	
  3061                           ;incstack = 0
  3062                           ; Regs used in ___flsub: [wreg+status,2+status,0+pclath+cstack]
  3063                           
  3064     0D53  3080               	movlw	128
  3065     0D54  0020               	movlb	0	; select bank0
  3066     0D55  06CC               	xorwf	___flsub@a+3,f
  3067     0D56                     l1985:
  3068     0D56  0850               	movf	___flsub@b+3,w
  3069     0D57  00B8               	movwf	___fladd@b+3
  3070     0D58  084F               	movf	___flsub@b+2,w
  3071     0D59  00B7               	movwf	___fladd@b+2
  3072     0D5A  084E               	movf	___flsub@b+1,w
  3073     0D5B  00B6               	movwf	___fladd@b+1
  3074     0D5C  084D               	movf	___flsub@b,w
  3075     0D5D  00B5               	movwf	___fladd@b
  3076     0D5E  084C               	movf	___flsub@a+3,w
  3077     0D5F  00BC               	movwf	___fladd@a+3
  3078     0D60  084B               	movf	___flsub@a+2,w
  3079     0D61  00BB               	movwf	___fladd@a+2
  3080     0D62  084A               	movf	___flsub@a+1,w
  3081     0D63  00BA               	movwf	___fladd@a+1
  3082     0D64  0849               	movf	___flsub@a,w
  3083     0D65  00B9               	movwf	___fladd@a
  3084     0D66  3182  2269  318D   	fcall	___fladd
  3085     0D69  0020               	movlb	0	; select bank0
  3086     0D6A  0838               	movf	?___fladd+3,w
  3087     0D6B  00CC               	movwf	?___flsub+3
  3088     0D6C  0837               	movf	?___fladd+2,w
  3089     0D6D  00CB               	movwf	?___flsub+2
  3090     0D6E  0836               	movf	?___fladd+1,w
  3091     0D6F  00CA               	movwf	?___flsub+1
  3092     0D70  0835               	movf	?___fladd,w
  3093     0D71  00C9               	movwf	?___flsub
  3094     0D72                     l624:
  3095     0D72  0008               	return
  3096     0D73                     __end_of___flsub:
  3097                           
  3098                           	psect	text11
  3099     0269                     __ptext11:	
  3100 ;; *************** function ___fladd *****************
  3101 ;; Defined at:
  3102 ;;		line 10 in file "C:\Program Files\Microchip\xc8\v2.45\pic\sources\c99\common\sprcadd.c"
  3103 ;; Parameters:    Size  Location     Type
  3104 ;;  b               4   21[BANK0 ] long 
  3105 ;;  a               4   25[BANK0 ] long 
  3106 ;; Auto vars:     Size  Location     Type
  3107 ;;  grs             1   40[BANK0 ] unsigned char 
  3108 ;;  bexp            1   39[BANK0 ] unsigned char 
  3109 ;;  aexp            1   38[BANK0 ] unsigned char 
  3110 ;;  signs           1   37[BANK0 ] unsigned char 
  3111 ;; Return value:  Size  Location     Type
  3112 ;;                  4   21[BANK0 ] unsigned char 
  3113 ;; Registers used:
  3114 ;;		wreg, status,2, status,0
  3115 ;; Tracked objects:
  3116 ;;		On entry : 0/0
  3117 ;;		On exit  : 0/0
  3118 ;;		Unchanged: 0/0
  3119 ;; Data sizes:     COMMON   BANK0   BANK1   BANK2   BANK3   BANK4   BANK5   BANK6   BANK7   BANK8   BANK9  BANK10  BANK1
      +1  BANK12  BANK13  BANK14  BANK15  BANK16  BANK17  BANK18  BANK19  BANK20  BANK21  BANK22  BANK23  BANK24  BANK25
  3120 ;;      Params:         0       8       0       0       0       0       0       0       0       0       0       0       
      +0       0       0       0       0       0       0       0       0       0       0       0       0       0       0
  3121 ;;      Locals:         0       4       0       0       0       0       0       0       0       0       0       0       
      +0       0       0       0       0       0       0       0       0       0       0       0       0       0       0
  3122 ;;      Temps:          0       8       0       0       0       0       0       0       0       0       0       0       
      +0       0       0       0       0       0       0       0       0       0       0       0       0       0       0
  3123 ;;      Totals:         0      20       0       0       0       0       0       0       0       0       0       0       
      +0       0       0       0       0       0       0       0       0       0       0       0       0       0       0
  3124 ;;Total ram usage:       20 bytes
  3125 ;; Hardware stack levels used: 1
  3126 ;; Hardware stack levels required when called: 1
  3127 ;; This function calls:
  3128 ;;		Nothing
  3129 ;; This function is called by:
  3130 ;;		_main
  3131 ;;		___flsub
  3132 ;; This function uses a non-reentrant model
  3133 ;;
  3134                           
  3135     0269                     ___fladd:	
  3136                           ;psect for function ___fladd
  3137                           
  3138     0269                     l1641:	
  3139                           ;incstack = 0
  3140                           ; Regs used in ___fladd: [wreg+status,2+status,0]
  3141                           
  3142     0269  0020               	movlb	0	; select bank0
  3143     026A  0838               	movf	___fladd@b+3,w
  3144     026B  3980               	andlw	128
  3145     026C  00C5               	movwf	___fladd@signs
  3146     026D                     l1643:
  3147     026D  3538               	lslf	___fladd@b+3,w
  3148     026E  00C7               	movwf	___fladd@bexp
  3149     026F                     l1645:
  3150     026F  1FB7               	btfss	___fladd@b+2,7
  3151     0270  2A72               	goto	u1601
  3152     0271  2A73               	goto	u1600
  3153     0272                     u1601:
  3154     0272  2A74               	goto	l1649
  3155     0273                     u1600:
  3156     0273                     l1647:
  3157     0273  1447               	bsf	___fladd@bexp,0
  3158     0274                     l1649:
  3159     0274  0847               	movf	___fladd@bexp,w
  3160     0275  1903               	btfsc	3,2
  3161     0276  2A78               	goto	u1611
  3162     0277  2A79               	goto	u1610
  3163     0278                     u1611:
  3164     0278  2A89               	goto	l1659
  3165     0279                     u1610:
  3166     0279                     l1651:
  3167     0279  0A47               	incf	___fladd@bexp,w
  3168     027A  1D03               	btfss	3,2
  3169     027B  2A7D               	goto	u1621
  3170     027C  2A7E               	goto	u1620
  3171     027D                     u1621:
  3172     027D  2A86               	goto	l1655
  3173     027E                     u1620:
  3174     027E                     l1653:
  3175     027E  3000               	movlw	0
  3176     027F  00B8               	movwf	___fladd@b+3
  3177     0280  3000               	movlw	0
  3178     0281  00B7               	movwf	___fladd@b+2
  3179     0282  3000               	movlw	0
  3180     0283  00B6               	movwf	___fladd@b+1
  3181     0284  3000               	movlw	0
  3182     0285  00B5               	movwf	___fladd@b
  3183     0286                     l1655:
  3184     0286  17B7               	bsf	___fladd@b+2,7
  3185     0287                     l1657:
  3186     0287  01B8               	clrf	___fladd@b+3
  3187     0288  2A91               	goto	l1661
  3188     0289                     l1659:
  3189     0289  3000               	movlw	0
  3190     028A  00B8               	movwf	___fladd@b+3
  3191     028B  3000               	movlw	0
  3192     028C  00B7               	movwf	___fladd@b+2
  3193     028D  3000               	movlw	0
  3194     028E  00B6               	movwf	___fladd@b+1
  3195     028F  3000               	movlw	0
  3196     0290  00B5               	movwf	___fladd@b
  3197     0291                     l1661:
  3198     0291  083C               	movf	___fladd@a+3,w
  3199     0292  3980               	andlw	128
  3200     0293  00C6               	movwf	___fladd@aexp
  3201     0294                     l1663:
  3202     0294  0846               	movf	___fladd@aexp,w
  3203     0295  0645               	xorwf	___fladd@signs,w
  3204     0296  1903               	skipnz
  3205     0297  2A99               	goto	u1631
  3206     0298  2A9A               	goto	u1630
  3207     0299                     u1631:
  3208     0299  2A9B               	goto	l1667
  3209     029A                     u1630:
  3210     029A                     l1665:
  3211     029A  1745               	bsf	___fladd@signs,6
  3212     029B                     l1667:
  3213     029B  353C               	lslf	___fladd@a+3,w
  3214     029C  00C6               	movwf	___fladd@aexp
  3215     029D                     l1669:
  3216     029D  1FBB               	btfss	___fladd@a+2,7
  3217     029E  2AA0               	goto	u1641
  3218     029F  2AA1               	goto	u1640
  3219     02A0                     u1641:
  3220     02A0  2AA2               	goto	l1673
  3221     02A1                     u1640:
  3222     02A1                     l1671:
  3223     02A1  1446               	bsf	___fladd@aexp,0
  3224     02A2                     l1673:
  3225     02A2  0846               	movf	___fladd@aexp,w
  3226     02A3  1903               	btfsc	3,2
  3227     02A4  2AA6               	goto	u1651
  3228     02A5  2AA7               	goto	u1650
  3229     02A6                     u1651:
  3230     02A6  2AB7               	goto	l1683
  3231     02A7                     u1650:
  3232     02A7                     l1675:
  3233     02A7  0A46               	incf	___fladd@aexp,w
  3234     02A8  1D03               	btfss	3,2
  3235     02A9  2AAB               	goto	u1661
  3236     02AA  2AAC               	goto	u1660
  3237     02AB                     u1661:
  3238     02AB  2AB4               	goto	l1679
  3239     02AC                     u1660:
  3240     02AC                     l1677:
  3241     02AC  3000               	movlw	0
  3242     02AD  00BC               	movwf	___fladd@a+3
  3243     02AE  3000               	movlw	0
  3244     02AF  00BB               	movwf	___fladd@a+2
  3245     02B0  3000               	movlw	0
  3246     02B1  00BA               	movwf	___fladd@a+1
  3247     02B2  3000               	movlw	0
  3248     02B3  00B9               	movwf	___fladd@a
  3249     02B4                     l1679:
  3250     02B4  17BB               	bsf	___fladd@a+2,7
  3251     02B5                     l1681:
  3252     02B5  01BC               	clrf	___fladd@a+3
  3253     02B6  2ABF               	goto	l578
  3254     02B7                     l1683:
  3255     02B7  3000               	movlw	0
  3256     02B8  00BC               	movwf	___fladd@a+3
  3257     02B9  3000               	movlw	0
  3258     02BA  00BB               	movwf	___fladd@a+2
  3259     02BB  3000               	movlw	0
  3260     02BC  00BA               	movwf	___fladd@a+1
  3261     02BD  3000               	movlw	0
  3262     02BE  00B9               	movwf	___fladd@a
  3263     02BF                     l578:
  3264     02BF  0847               	movf	___fladd@bexp,w
  3265     02C0  0246               	subwf	___fladd@aexp,w
  3266     02C1  1803               	skipnc
  3267     02C2  2AC4               	goto	u1671
  3268     02C3  2AC5               	goto	u1670
  3269     02C4                     u1671:
  3270     02C4  2AEB               	goto	l1719
  3271     02C5                     u1670:
  3272     02C5                     l1685:
  3273     02C5  1F45               	btfss	___fladd@signs,6
  3274     02C6  2AC8               	goto	u1681
  3275     02C7  2AC9               	goto	u1680
  3276     02C8                     u1681:
  3277     02C8  2ACD               	goto	l1689
  3278     02C9                     u1680:
  3279     02C9                     l1687:
  3280     02C9  3080               	movlw	128
  3281     02CA  00BD               	movwf	??___fladd
  3282     02CB  083D               	movf	??___fladd,w
  3283     02CC  06C5               	xorwf	___fladd@signs,f
  3284     02CD                     l1689:
  3285     02CD  0847               	movf	___fladd@bexp,w
  3286     02CE  00C8               	movwf	___fladd@grs
  3287     02CF                     l1691:
  3288     02CF  0846               	movf	___fladd@aexp,w
  3289     02D0  00C7               	movwf	___fladd@bexp
  3290     02D1                     l1693:
  3291     02D1  0848               	movf	___fladd@grs,w
  3292     02D2  00C6               	movwf	___fladd@aexp
  3293     02D3                     l1695:
  3294     02D3  0835               	movf	___fladd@b,w
  3295     02D4  00C8               	movwf	___fladd@grs
  3296     02D5                     l1697:
  3297     02D5  0839               	movf	___fladd@a,w
  3298     02D6  00B5               	movwf	___fladd@b
  3299     02D7                     l1699:
  3300     02D7  0848               	movf	___fladd@grs,w
  3301     02D8  00B9               	movwf	___fladd@a
  3302     02D9                     l1701:
  3303     02D9  0836               	movf	___fladd@b+1,w
  3304     02DA  00C8               	movwf	___fladd@grs
  3305     02DB                     l1703:
  3306     02DB  083A               	movf	___fladd@a+1,w
  3307     02DC  00B6               	movwf	___fladd@b+1
  3308     02DD                     l1705:
  3309     02DD  0848               	movf	___fladd@grs,w
  3310     02DE  00BA               	movwf	___fladd@a+1
  3311     02DF                     l1707:
  3312     02DF  0837               	movf	___fladd@b+2,w
  3313     02E0  00C8               	movwf	___fladd@grs
  3314     02E1                     l1709:
  3315     02E1  083B               	movf	___fladd@a+2,w
  3316     02E2  00B7               	movwf	___fladd@b+2
  3317     02E3                     l1711:
  3318     02E3  0848               	movf	___fladd@grs,w
  3319     02E4  00BB               	movwf	___fladd@a+2
  3320     02E5                     l1713:
  3321     02E5  0838               	movf	___fladd@b+3,w
  3322     02E6  00C8               	movwf	___fladd@grs
  3323     02E7                     l1715:
  3324     02E7  083C               	movf	___fladd@a+3,w
  3325     02E8  00B8               	movwf	___fladd@b+3
  3326     02E9                     l1717:
  3327     02E9  0848               	movf	___fladd@grs,w
  3328     02EA  00BC               	movwf	___fladd@a+3
  3329     02EB                     l1719:
  3330     02EB  01C8               	clrf	___fladd@grs
  3331     02EC                     l1721:
  3332     02EC  0846               	movf	___fladd@aexp,w
  3333     02ED  00BD               	movwf	??___fladd
  3334     02EE  01BE               	clrf	??___fladd+1
  3335     02EF  083E               	movf	??___fladd+1,w
  3336     02F0  00C0               	movwf	??___fladd+3
  3337     02F1  0847               	movf	___fladd@bexp,w
  3338     02F2  023D               	subwf	??___fladd,w
  3339     02F3  00BF               	movwf	??___fladd+2
  3340     02F4  1C03               	skipc
  3341     02F5  03C0               	decf	??___fladd+3,f
  3342     02F6  0840               	movf	??___fladd+3,w
  3343     02F7  3A80               	xorlw	128
  3344     02F8  00C1               	movwf	??___fladd+4
  3345     02F9  3080               	movlw	128
  3346     02FA  0241               	subwf	??___fladd+4,w
  3347     02FB  1D03               	skipz
  3348     02FC  2AFF               	goto	u1695
  3349     02FD  301A               	movlw	26
  3350     02FE  023F               	subwf	??___fladd+2,w
  3351     02FF                     u1695:
  3352     02FF  1C03               	skipc
  3353     0300  2B02               	goto	u1691
  3354     0301  2B03               	goto	u1690
  3355     0302                     u1691:
  3356     0302  2B35               	goto	l1737
  3357     0303                     u1690:
  3358     0303                     l1723:
  3359     0303  0020               	movlb	0	; select bank0
  3360     0304  0838               	movf	___fladd@b+3,w
  3361     0305  0437               	iorwf	___fladd@b+2,w
  3362     0306  0436               	iorwf	___fladd@b+1,w
  3363     0307  0435               	iorwf	___fladd@b,w
  3364     0308  1D03               	skipz
  3365     0309  2B0B               	goto	u1701
  3366     030A  2B0D               	goto	u1700
  3367     030B                     u1701:
  3368     030B  3001               	movlw	1
  3369     030C  2B0E               	goto	u1710
  3370     030D                     u1700:
  3371     030D  3000               	movlw	0
  3372     030E                     u1710:
  3373     030E  00C8               	movwf	___fladd@grs
  3374     030F  3000               	movlw	0
  3375     0310  00B8               	movwf	___fladd@b+3
  3376     0311  3000               	movlw	0
  3377     0312  00B7               	movwf	___fladd@b+2
  3378     0313  3000               	movlw	0
  3379     0314  00B6               	movwf	___fladd@b+1
  3380     0315  3000               	movlw	0
  3381     0316  00B5               	movwf	___fladd@b
  3382     0317  0846               	movf	___fladd@aexp,w
  3383     0318  00C7               	movwf	___fladd@bexp
  3384     0319  2B3C               	goto	l582
  3385     031A                     l584:
  3386     031A  1C48               	btfss	___fladd@grs,0
  3387     031B  2B1D               	goto	u1721
  3388     031C  2B1E               	goto	u1720
  3389     031D                     u1721:
  3390     031D  2B22               	goto	l1727
  3391     031E                     u1720:
  3392     031E                     l1725:
  3393     031E  3648               	lsrf	___fladd@grs,w
  3394     031F  3801               	iorlw	1
  3395     0320  00C8               	movwf	___fladd@grs
  3396     0321  2B24               	goto	l1729
  3397     0322                     l1727:
  3398     0322  1003               	clrc
  3399     0323  0CC8               	rrf	___fladd@grs,f
  3400     0324                     l1729:
  3401     0324  1C35               	btfss	___fladd@b,0
  3402     0325  2B27               	goto	u1731
  3403     0326  2B28               	goto	u1730
  3404     0327                     u1731:
  3405     0327  2B29               	goto	l1733
  3406     0328                     u1730:
  3407     0328                     l1731:
  3408     0328  17C8               	bsf	___fladd@grs,7
  3409     0329                     l1733:
  3410     0329  3001               	movlw	1
  3411     032A  00BD               	movwf	??___fladd
  3412     032B                     u1745:
  3413     032B  37B8               	asrf	___fladd@b+3,f
  3414     032C  0CB7               	rrf	___fladd@b+2,f
  3415     032D  0CB6               	rrf	___fladd@b+1,f
  3416     032E  0CB5               	rrf	___fladd@b,f
  3417     032F  0BBD               	decfsz	??___fladd& (0+127),f
  3418     0330  2B2B               	goto	u1745
  3419     0331                     l1735:
  3420     0331  3001               	movlw	1
  3421     0332  00BD               	movwf	??___fladd
  3422     0333  083D               	movf	??___fladd,w
  3423     0334  07C7               	addwf	___fladd@bexp,f
  3424     0335                     l1737:
  3425     0335  0020               	movlb	0	; select bank0
  3426     0336  0846               	movf	___fladd@aexp,w
  3427     0337  0247               	subwf	___fladd@bexp,w
  3428     0338  1C03               	skipc
  3429     0339  2B3B               	goto	u1751
  3430     033A  2B3C               	goto	u1750
  3431     033B                     u1751:
  3432     033B  2B1A               	goto	l584
  3433     033C                     u1750:
  3434     033C                     l582:
  3435     033C  1B45               	btfsc	___fladd@signs,6
  3436     033D  2B3F               	goto	u1761
  3437     033E  2B40               	goto	u1760
  3438     033F                     u1761:
  3439     033F  2B76               	goto	l1763
  3440     0340                     u1760:
  3441     0340                     l1739:
  3442     0340  0847               	movf	___fladd@bexp,w
  3443     0341  1D03               	btfss	3,2
  3444     0342  2B44               	goto	u1771
  3445     0343  2B45               	goto	u1770
  3446     0344                     u1771:
  3447     0344  2B4E               	goto	l1745
  3448     0345                     u1770:
  3449     0345                     l1741:
  3450     0345  3000               	movlw	0
  3451     0346  00B8               	movwf	?___fladd+3
  3452     0347  3000               	movlw	0
  3453     0348  00B7               	movwf	?___fladd+2
  3454     0349  3000               	movlw	0
  3455     034A  00B6               	movwf	?___fladd+1
  3456     034B  3000               	movlw	0
  3457     034C  00B5               	movwf	?___fladd
  3458     034D  2C70               	goto	l591
  3459     034E                     l1745:
  3460     034E  0839               	movf	___fladd@a,w
  3461     034F  07B5               	addwf	___fladd@b,f
  3462     0350  083A               	movf	___fladd@a+1,w
  3463     0351  3DB6               	addwfc	___fladd@b+1,f
  3464     0352  083B               	movf	___fladd@a+2,w
  3465     0353  3DB7               	addwfc	___fladd@b+2,f
  3466     0354  083C               	movf	___fladd@a+3,w
  3467     0355  3DB8               	addwfc	___fladd@b+3,f
  3468     0356                     l1747:
  3469     0356  1C38               	btfss	___fladd@b+3,0
  3470     0357  2B59               	goto	u1781
  3471     0358  2B5A               	goto	u1780
  3472     0359                     u1781:
  3473     0359  2C02               	goto	l1797
  3474     035A                     u1780:
  3475     035A                     l1749:
  3476     035A  1C48               	btfss	___fladd@grs,0
  3477     035B  2B5D               	goto	u1791
  3478     035C  2B5E               	goto	u1790
  3479     035D                     u1791:
  3480     035D  2B62               	goto	l1753
  3481     035E                     u1790:
  3482     035E                     l1751:
  3483     035E  3648               	lsrf	___fladd@grs,w
  3484     035F  3801               	iorlw	1
  3485     0360  00C8               	movwf	___fladd@grs
  3486     0361  2B64               	goto	l1755
  3487     0362                     l1753:
  3488     0362  1003               	clrc
  3489     0363  0CC8               	rrf	___fladd@grs,f
  3490     0364                     l1755:
  3491     0364  1C35               	btfss	___fladd@b,0
  3492     0365  2B67               	goto	u1801
  3493     0366  2B68               	goto	u1800
  3494     0367                     u1801:
  3495     0367  2B69               	goto	l1759
  3496     0368                     u1800:
  3497     0368                     l1757:
  3498     0368  17C8               	bsf	___fladd@grs,7
  3499     0369                     l1759:
  3500     0369  3001               	movlw	1
  3501     036A  00BD               	movwf	??___fladd
  3502     036B                     u1815:
  3503     036B  37B8               	asrf	___fladd@b+3,f
  3504     036C  0CB7               	rrf	___fladd@b+2,f
  3505     036D  0CB6               	rrf	___fladd@b+1,f
  3506     036E  0CB5               	rrf	___fladd@b,f
  3507     036F  0BBD               	decfsz	??___fladd& (0+127),f
  3508     0370  2B6B               	goto	u1815
  3509     0371                     l1761:
  3510     0371  3001               	movlw	1
  3511     0372  00BD               	movwf	??___fladd
  3512     0373  083D               	movf	??___fladd,w
  3513     0374  07C7               	addwf	___fladd@bexp,f
  3514     0375  2C02               	goto	l1797
  3515     0376                     l1763:
  3516     0376  0838               	movf	___fladd@b+3,w
  3517     0377  3A80               	xorlw	128
  3518     0378  00BD               	movwf	??___fladd
  3519     0379  083C               	movf	___fladd@a+3,w
  3520     037A  3A80               	xorlw	128
  3521     037B  023D               	subwf	??___fladd,w
  3522     037C  1D03               	skipz
  3523     037D  2B88               	goto	u1823
  3524     037E  083B               	movf	___fladd@a+2,w
  3525     037F  0237               	subwf	___fladd@b+2,w
  3526     0380  1D03               	skipz
  3527     0381  2B88               	goto	u1823
  3528     0382  083A               	movf	___fladd@a+1,w
  3529     0383  0236               	subwf	___fladd@b+1,w
  3530     0384  1D03               	skipz
  3531     0385  2B88               	goto	u1823
  3532     0386  0839               	movf	___fladd@a,w
  3533     0387  0235               	subwf	___fladd@b,w
  3534     0388                     u1823:
  3535     0388  1803               	skipnc
  3536     0389  2B8B               	goto	u1821
  3537     038A  2B8C               	goto	u1820
  3538     038B                     u1821:
  3539     038B  2BC4               	goto	l1773
  3540     038C                     u1820:
  3541     038C                     l1765:
  3542     038C  30FF               	movlw	255
  3543     038D  00BD               	movwf	??___fladd
  3544     038E  30FF               	movlw	255
  3545     038F  00BE               	movwf	??___fladd+1
  3546     0390  30FF               	movlw	255
  3547     0391  00BF               	movwf	??___fladd+2
  3548     0392  30FF               	movlw	255
  3549     0393  00C0               	movwf	??___fladd+3
  3550     0394  0835               	movf	___fladd@b,w
  3551     0395  0239               	subwf	___fladd@a,w
  3552     0396  00C1               	movwf	??___fladd+4
  3553     0397  0836               	movf	___fladd@b+1,w
  3554     0398  3B3A               	subwfb	___fladd@a+1,w
  3555     0399  00C2               	movwf	??___fladd+5
  3556     039A  0837               	movf	___fladd@b+2,w
  3557     039B  3B3B               	subwfb	___fladd@a+2,w
  3558     039C  00C3               	movwf	??___fladd+6
  3559     039D  0838               	movf	___fladd@b+3,w
  3560     039E  3B3C               	subwfb	___fladd@a+3,w
  3561     039F  00C4               	movwf	??___fladd+7
  3562     03A0  0841               	movf	??___fladd+4,w
  3563     03A1  07BD               	addwf	??___fladd,f
  3564     03A2  0842               	movf	??___fladd+5,w
  3565     03A3  3DBE               	addwfc	??___fladd+1,f
  3566     03A4  0843               	movf	??___fladd+6,w
  3567     03A5  3DBF               	addwfc	??___fladd+2,f
  3568     03A6  0844               	movf	??___fladd+7,w
  3569     03A7  3DC0               	addwfc	??___fladd+3,f
  3570     03A8  0840               	movf	??___fladd+3,w
  3571     03A9  00B8               	movwf	___fladd@b+3
  3572     03AA  083F               	movf	??___fladd+2,w
  3573     03AB  00B7               	movwf	___fladd@b+2
  3574     03AC  083E               	movf	??___fladd+1,w
  3575     03AD  00B6               	movwf	___fladd@b+1
  3576     03AE  083D               	movf	??___fladd,w
  3577     03AF  00B5               	movwf	___fladd@b
  3578     03B0                     l1767:
  3579     03B0  3080               	movlw	128
  3580     03B1  00BD               	movwf	??___fladd
  3581     03B2  083D               	movf	??___fladd,w
  3582     03B3  06C5               	xorwf	___fladd@signs,f
  3583     03B4  09C8               	comf	___fladd@grs,f
  3584     03B5  0AC8               	incf	___fladd@grs,f
  3585     03B6                     l1769:
  3586     03B6  0848               	movf	___fladd@grs,w
  3587     03B7  1D03               	btfss	3,2
  3588     03B8  2BBA               	goto	u1831
  3589     03B9  2BBB               	goto	u1830
  3590     03BA                     u1831:
  3591     03BA  2BCC               	goto	l599
  3592     03BB                     u1830:
  3593     03BB                     l1771:
  3594     03BB  3001               	movlw	1
  3595     03BC  07B5               	addwf	___fladd@b,f
  3596     03BD  3000               	movlw	0
  3597     03BE  3DB6               	addwfc	___fladd@b+1,f
  3598     03BF  3000               	movlw	0
  3599     03C0  3DB7               	addwfc	___fladd@b+2,f
  3600     03C1  3000               	movlw	0
  3601     03C2  3DB8               	addwfc	___fladd@b+3,f
  3602     03C3  2BCC               	goto	l599
  3603     03C4                     l1773:
  3604     03C4  0839               	movf	___fladd@a,w
  3605     03C5  02B5               	subwf	___fladd@b,f
  3606     03C6  083A               	movf	___fladd@a+1,w
  3607     03C7  3BB6               	subwfb	___fladd@b+1,f
  3608     03C8  083B               	movf	___fladd@a+2,w
  3609     03C9  3BB7               	subwfb	___fladd@b+2,f
  3610     03CA  083C               	movf	___fladd@a+3,w
  3611     03CB  3BB8               	subwfb	___fladd@b+3,f
  3612     03CC                     l599:
  3613     03CC  0838               	movf	___fladd@b+3,w
  3614     03CD  0437               	iorwf	___fladd@b+2,w
  3615     03CE  0436               	iorwf	___fladd@b+1,w
  3616     03CF  0435               	iorwf	___fladd@b,w
  3617     03D0  1D03               	skipz
  3618     03D1  2BD3               	goto	u1841
  3619     03D2  2BD4               	goto	u1840
  3620     03D3                     u1841:
  3621     03D3  2BFE               	goto	l1795
  3622     03D4                     u1840:
  3623     03D4                     l1775:
  3624     03D4  0848               	movf	___fladd@grs,w
  3625     03D5  1D03               	btfss	3,2
  3626     03D6  2BD8               	goto	u1851
  3627     03D7  2BD9               	goto	u1850
  3628     03D8                     u1851:
  3629     03D8  2BFE               	goto	l1795
  3630     03D9                     u1850:
  3631     03D9                     l1777:
  3632     03D9  3000               	movlw	0
  3633     03DA  00B8               	movwf	?___fladd+3
  3634     03DB  3000               	movlw	0
  3635     03DC  00B7               	movwf	?___fladd+2
  3636     03DD  3000               	movlw	0
  3637     03DE  00B6               	movwf	?___fladd+1
  3638     03DF  3000               	movlw	0
  3639     03E0  00B5               	movwf	?___fladd
  3640     03E1  2C70               	goto	l591
  3641     03E2                     l1781:
  3642     03E2  3001               	movlw	1
  3643     03E3                     u1865:
  3644     03E3  35B5               	lslf	___fladd@b,f
  3645     03E4  0DB6               	rlf	___fladd@b+1,f
  3646     03E5  0DB7               	rlf	___fladd@b+2,f
  3647     03E6  0DB8               	rlf	___fladd@b+3,f
  3648     03E7  0B89               	decfsz	9,f
  3649     03E8  2BE3               	goto	u1865
  3650     03E9                     l1783:
  3651     03E9  1FC8               	btfss	___fladd@grs,7
  3652     03EA  2BEC               	goto	u1871
  3653     03EB  2BED               	goto	u1870
  3654     03EC                     u1871:
  3655     03EC  2BEE               	goto	l603
  3656     03ED                     u1870:
  3657     03ED                     l1785:
  3658     03ED  1435               	bsf	___fladd@b,0
  3659     03EE                     l603:
  3660     03EE  1C48               	btfss	___fladd@grs,0
  3661     03EF  2BF1               	goto	u1881
  3662     03F0  2BF2               	goto	u1880
  3663     03F1                     u1881:
  3664     03F1  2BF5               	goto	l1789
  3665     03F2                     u1880:
  3666     03F2                     l1787:
  3667     03F2  1403               	setc
  3668     03F3  0DC8               	rlf	___fladd@grs,f
  3669     03F4  2BF7               	goto	l1791
  3670     03F5                     l1789:
  3671     03F5  1003               	clrc
  3672     03F6  0DC8               	rlf	___fladd@grs,f
  3673     03F7                     l1791:
  3674     03F7  0847               	movf	___fladd@bexp,w
  3675     03F8  1903               	btfsc	3,2
  3676     03F9  2BFB               	goto	u1891
  3677     03FA  2BFC               	goto	u1890
  3678     03FB                     u1891:
  3679     03FB  2BFE               	goto	l1795
  3680     03FC                     u1890:
  3681     03FC                     l1793:
  3682     03FC  3001               	movlw	1
  3683     03FD  02C7               	subwf	___fladd@bexp,f
  3684     03FE                     l1795:
  3685     03FE  1FB7               	btfss	___fladd@b+2,7
  3686     03FF  2C01               	goto	u1901
  3687     0400  2C02               	goto	u1900
  3688     0401                     u1901:
  3689     0401  2BE2               	goto	l1781
  3690     0402                     u1900:
  3691     0402                     l1797:
  3692     0402  01C6               	clrf	___fladd@aexp
  3693     0403                     l1799:
  3694     0403  1FC8               	btfss	___fladd@grs,7
  3695     0404  2C06               	goto	u1911
  3696     0405  2C07               	goto	u1910
  3697     0406                     u1911:
  3698     0406  2C15               	goto	l1807
  3699     0407                     u1910:
  3700     0407                     l1801:
  3701     0407  0848               	movf	___fladd@grs,w
  3702     0408  397F               	andlw	127
  3703     0409  1903               	btfsc	3,2
  3704     040A  2C0C               	goto	u1921
  3705     040B  2C0D               	goto	u1920
  3706     040C                     u1921:
  3707     040C  2C10               	goto	l609
  3708     040D                     u1920:
  3709     040D                     l1803:
  3710     040D  01C6               	clrf	___fladd@aexp
  3711     040E  0AC6               	incf	___fladd@aexp,f
  3712     040F  2C15               	goto	l1807
  3713     0410                     l609:
  3714     0410  1C35               	btfss	___fladd@b,0
  3715     0411  2C13               	goto	u1931
  3716     0412  2C14               	goto	u1930
  3717     0413                     u1931:
  3718     0413  2C15               	goto	l1807
  3719     0414                     u1930:
  3720     0414  2C0D               	goto	l1803
  3721     0415                     l1807:
  3722     0415  0846               	movf	___fladd@aexp,w
  3723     0416  1903               	btfsc	3,2
  3724     0417  2C19               	goto	u1941
  3725     0418  2C1A               	goto	u1940
  3726     0419                     u1941:
  3727     0419  2C47               	goto	l612
  3728     041A                     u1940:
  3729     041A                     l1809:
  3730     041A  3001               	movlw	1
  3731     041B  07B5               	addwf	___fladd@b,f
  3732     041C  3000               	movlw	0
  3733     041D  3DB6               	addwfc	___fladd@b+1,f
  3734     041E  3000               	movlw	0
  3735     041F  3DB7               	addwfc	___fladd@b+2,f
  3736     0420  3000               	movlw	0
  3737     0421  3DB8               	addwfc	___fladd@b+3,f
  3738     0422                     l1811:
  3739     0422  1C38               	btfss	___fladd@b+3,0
  3740     0423  2C25               	goto	u1951
  3741     0424  2C26               	goto	u1950
  3742     0425                     u1951:
  3743     0425  2C47               	goto	l612
  3744     0426                     u1950:
  3745     0426                     l1813:
  3746     0426  0835               	movf	___fladd@b,w
  3747     0427  00BD               	movwf	??___fladd
  3748     0428  0836               	movf	___fladd@b+1,w
  3749     0429  00BE               	movwf	??___fladd+1
  3750     042A  0837               	movf	___fladd@b+2,w
  3751     042B  00BF               	movwf	??___fladd+2
  3752     042C  0838               	movf	___fladd@b+3,w
  3753     042D  00C0               	movwf	??___fladd+3
  3754     042E  3001               	movlw	1
  3755     042F  00C1               	movwf	??___fladd+4
  3756     0430                     u1965:
  3757     0430  37C0               	asrf	??___fladd+3,f
  3758     0431  0CBF               	rrf	??___fladd+2,f
  3759     0432  0CBE               	rrf	??___fladd+1,f
  3760     0433  0CBD               	rrf	??___fladd,f
  3761     0434                     u1960:
  3762     0434  0BC1               	decfsz	??___fladd+4,f
  3763     0435  2C30               	goto	u1965
  3764     0436  0840               	movf	??___fladd+3,w
  3765     0437  00B8               	movwf	___fladd@b+3
  3766     0438  083F               	movf	??___fladd+2,w
  3767     0439  00B7               	movwf	___fladd@b+2
  3768     043A  083E               	movf	??___fladd+1,w
  3769     043B  00B6               	movwf	___fladd@b+1
  3770     043C  083D               	movf	??___fladd,w
  3771     043D  00B5               	movwf	___fladd@b
  3772     043E  0A47               	incf	___fladd@bexp,w
  3773     043F  1903               	btfsc	3,2
  3774     0440  2C42               	goto	u1971
  3775     0441  2C43               	goto	u1970
  3776     0442                     u1971:
  3777     0442  2C47               	goto	l612
  3778     0443                     u1970:
  3779     0443                     l1815:
  3780     0443  3001               	movlw	1
  3781     0444  00BD               	movwf	??___fladd
  3782     0445  083D               	movf	??___fladd,w
  3783     0446  07C7               	addwf	___fladd@bexp,f
  3784     0447                     l612:
  3785     0447  0A47               	incf	___fladd@bexp,w
  3786     0448  1903               	btfsc	3,2
  3787     0449  2C4B               	goto	u1981
  3788     044A  2C4C               	goto	u1980
  3789     044B                     u1981:
  3790     044B  2C51               	goto	l1819
  3791     044C                     u1980:
  3792     044C                     l1817:
  3793     044C  0847               	movf	___fladd@bexp,w
  3794     044D  1D03               	btfss	3,2
  3795     044E  2C50               	goto	u1991
  3796     044F  2C51               	goto	u1990
  3797     0450                     u1991:
  3798     0450  2C5F               	goto	l1825
  3799     0451                     u1990:
  3800     0451                     l1819:
  3801     0451  3000               	movlw	0
  3802     0452  00B8               	movwf	___fladd@b+3
  3803     0453  3000               	movlw	0
  3804     0454  00B7               	movwf	___fladd@b+2
  3805     0455  3000               	movlw	0
  3806     0456  00B6               	movwf	___fladd@b+1
  3807     0457  3000               	movlw	0
  3808     0458  00B5               	movwf	___fladd@b
  3809     0459                     l1821:
  3810     0459  0847               	movf	___fladd@bexp,w
  3811     045A  1D03               	btfss	3,2
  3812     045B  2C5D               	goto	u2001
  3813     045C  2C5E               	goto	u2000
  3814     045D                     u2001:
  3815     045D  2C5F               	goto	l1825
  3816     045E                     u2000:
  3817     045E                     l1823:
  3818     045E  01C5               	clrf	___fladd@signs
  3819     045F                     l1825:
  3820     045F  1C47               	btfss	___fladd@bexp,0
  3821     0460  2C62               	goto	u2011
  3822     0461  2C63               	goto	u2010
  3823     0462                     u2011:
  3824     0462  2C65               	goto	l1829
  3825     0463                     u2010:
  3826     0463                     l1827:
  3827     0463  17B7               	bsf	___fladd@b+2,7
  3828     0464  2C69               	goto	l620
  3829     0465                     l1829:
  3830     0465  307F               	movlw	127
  3831     0466  00BD               	movwf	??___fladd
  3832     0467  083D               	movf	??___fladd,w
  3833     0468  05B7               	andwf	___fladd@b+2,f
  3834     0469                     l620:
  3835     0469  3647               	lsrf	___fladd@bexp,w
  3836     046A  00B8               	movwf	___fladd@b+3
  3837     046B                     l1831:
  3838     046B  1FC5               	btfss	___fladd@signs,7
  3839     046C  2C6E               	goto	u2021
  3840     046D  2C6F               	goto	u2020
  3841     046E                     u2021:
  3842     046E  2C70               	goto	l621
  3843     046F                     u2020:
  3844     046F                     l1833:
  3845     046F  17B8               	bsf	___fladd@b+3,7
  3846     0470                     l621:
  3847     0470                     l591:
  3848     0470  0008               	return
  3849     0471                     __end_of___fladd:
  3850                           
  3851                           	psect	text12
  3852     002E                     __ptext12:	
  3853 ;; *************** function ___flmul *****************
  3854 ;; Defined at:
  3855 ;;		line 8 in file "C:\Program Files\Microchip\xc8\v2.45\pic\sources\c99\common\sprcmul.c"
  3856 ;; Parameters:    Size  Location     Type
  3857 ;;  b               4    0[BANK0 ] unsigned char 
  3858 ;;  a               4    4[BANK0 ] unsigned char 
  3859 ;; Auto vars:     Size  Location     Type
  3860 ;;  prod            4   15[BANK0 ] struct .
  3861 ;;  grs             4    9[BANK0 ] unsigned long 
  3862 ;;  temp            2   19[BANK0 ] struct .
  3863 ;;  bexp            1   14[BANK0 ] unsigned char 
  3864 ;;  aexp            1   13[BANK0 ] unsigned char 
  3865 ;;  sign            1    8[BANK0 ] unsigned char 
  3866 ;; Return value:  Size  Location     Type
  3867 ;;                  4    0[BANK0 ] unsigned char 
  3868 ;; Registers used:
  3869 ;;		wreg, status,2, status,0, pclath, cstack
  3870 ;; Tracked objects:
  3871 ;;		On entry : 0/0
  3872 ;;		On exit  : 0/0
  3873 ;;		Unchanged: 0/0
  3874 ;; Data sizes:     COMMON   BANK0   BANK1   BANK2   BANK3   BANK4   BANK5   BANK6   BANK7   BANK8   BANK9  BANK10  BANK1
      +1  BANK12  BANK13  BANK14  BANK15  BANK16  BANK17  BANK18  BANK19  BANK20  BANK21  BANK22  BANK23  BANK24  BANK25
  3875 ;;      Params:         0       8       0       0       0       0       0       0       0       0       0       0       
      +0       0       0       0       0       0       0       0       0       0       0       0       0       0       0
  3876 ;;      Locals:         0      13       0       0       0       0       0       0       0       0       0       0       
      +0       0       0       0       0       0       0       0       0       0       0       0       0       0       0
  3877 ;;      Temps:          5       0       0       0       0       0       0       0       0       0       0       0       
      +0       0       0       0       0       0       0       0       0       0       0       0       0       0       0
  3878 ;;      Totals:         5      21       0       0       0       0       0       0       0       0       0       0       
      +0       0       0       0       0       0       0       0       0       0       0       0       0       0       0
  3879 ;;Total ram usage:       26 bytes
  3880 ;; Hardware stack levels used: 1
  3881 ;; Hardware stack levels required when called: 2
  3882 ;; This function calls:
  3883 ;;		__Umul8_16
  3884 ;; This function is called by:
  3885 ;;		_main
  3886 ;; This function uses a non-reentrant model
  3887 ;;
  3888                           
  3889     002E                     ___flmul:	
  3890                           ;psect for function ___flmul
  3891                           
  3892     002E                     l2129:	
  3893                           ;incstack = 0
  3894                           ; Regs used in ___flmul: [wreg+status,2+status,0+pclath+cstack]
  3895                           
  3896     002E  0020               	movlb	0	; select bank0
  3897     002F  0823               	movf	___flmul@b+3,w
  3898     0030  3980               	andlw	128
  3899     0031  00A8               	movwf	___flmul@sign
  3900     0032                     l2131:
  3901     0032  3523               	lslf	___flmul@b+3,w
  3902     0033  00AE               	movwf	___flmul@bexp
  3903     0034                     l2133:
  3904     0034  1FA2               	btfss	___flmul@b+2,7
  3905     0035  2837               	goto	u2471
  3906     0036  2838               	goto	u2470
  3907     0037                     u2471:
  3908     0037  2839               	goto	l2137
  3909     0038                     u2470:
  3910     0038                     l2135:
  3911     0038  142E               	bsf	___flmul@bexp,0
  3912     0039                     l2137:
  3913     0039  082E               	movf	___flmul@bexp,w
  3914     003A  1903               	btfsc	3,2
  3915     003B  283D               	goto	u2481
  3916     003C  283E               	goto	u2480
  3917     003D                     u2481:
  3918     003D  284D               	goto	l2145
  3919     003E                     u2480:
  3920     003E                     l2139:
  3921     003E  0A2E               	incf	___flmul@bexp,w
  3922     003F  1D03               	btfss	3,2
  3923     0040  2842               	goto	u2491
  3924     0041  2843               	goto	u2490
  3925     0042                     u2491:
  3926     0042  284B               	goto	l2143
  3927     0043                     u2490:
  3928     0043                     l2141:
  3929     0043  3000               	movlw	0
  3930     0044  00A3               	movwf	___flmul@b+3
  3931     0045  3000               	movlw	0
  3932     0046  00A2               	movwf	___flmul@b+2
  3933     0047  3000               	movlw	0
  3934     0048  00A1               	movwf	___flmul@b+1
  3935     0049  3000               	movlw	0
  3936     004A  00A0               	movwf	___flmul@b
  3937     004B                     l2143:
  3938     004B  17A2               	bsf	___flmul@b+2,7
  3939     004C  2855               	goto	l2147
  3940     004D                     l2145:
  3941     004D  3000               	movlw	0
  3942     004E  00A3               	movwf	___flmul@b+3
  3943     004F  3000               	movlw	0
  3944     0050  00A2               	movwf	___flmul@b+2
  3945     0051  3000               	movlw	0
  3946     0052  00A1               	movwf	___flmul@b+1
  3947     0053  3000               	movlw	0
  3948     0054  00A0               	movwf	___flmul@b
  3949     0055                     l2147:
  3950     0055  0827               	movf	___flmul@a+3,w
  3951     0056  3980               	andlw	128
  3952     0057  00F9               	movwf	??___flmul
  3953     0058  0879               	movf	??___flmul,w
  3954     0059  06A8               	xorwf	___flmul@sign,f
  3955     005A                     l2149:
  3956     005A  3527               	lslf	___flmul@a+3,w
  3957     005B  00AD               	movwf	___flmul@aexp
  3958     005C                     l2151:
  3959     005C  1FA6               	btfss	___flmul@a+2,7
  3960     005D  285F               	goto	u2501
  3961     005E  2860               	goto	u2500
  3962     005F                     u2501:
  3963     005F  2861               	goto	l2155
  3964     0060                     u2500:
  3965     0060                     l2153:
  3966     0060  142D               	bsf	___flmul@aexp,0
  3967     0061                     l2155:
  3968     0061  082D               	movf	___flmul@aexp,w
  3969     0062  1903               	btfsc	3,2
  3970     0063  2865               	goto	u2511
  3971     0064  2866               	goto	u2510
  3972     0065                     u2511:
  3973     0065  2875               	goto	l2163
  3974     0066                     u2510:
  3975     0066                     l2157:
  3976     0066  0A2D               	incf	___flmul@aexp,w
  3977     0067  1D03               	btfss	3,2
  3978     0068  286A               	goto	u2521
  3979     0069  286B               	goto	u2520
  3980     006A                     u2521:
  3981     006A  2873               	goto	l2161
  3982     006B                     u2520:
  3983     006B                     l2159:
  3984     006B  3000               	movlw	0
  3985     006C  00A7               	movwf	___flmul@a+3
  3986     006D  3000               	movlw	0
  3987     006E  00A6               	movwf	___flmul@a+2
  3988     006F  3000               	movlw	0
  3989     0070  00A5               	movwf	___flmul@a+1
  3990     0071  3000               	movlw	0
  3991     0072  00A4               	movwf	___flmul@a
  3992     0073                     l2161:
  3993     0073  17A6               	bsf	___flmul@a+2,7
  3994     0074  287D               	goto	l2165
  3995     0075                     l2163:
  3996     0075  3000               	movlw	0
  3997     0076  00A7               	movwf	___flmul@a+3
  3998     0077  3000               	movlw	0
  3999     0078  00A6               	movwf	___flmul@a+2
  4000     0079  3000               	movlw	0
  4001     007A  00A5               	movwf	___flmul@a+1
  4002     007B  3000               	movlw	0
  4003     007C  00A4               	movwf	___flmul@a
  4004     007D                     l2165:
  4005     007D  082D               	movf	___flmul@aexp,w
  4006     007E  1903               	btfsc	3,2
  4007     007F  2881               	goto	u2531
  4008     0080  2882               	goto	u2530
  4009     0081                     u2531:
  4010     0081  2887               	goto	l2169
  4011     0082                     u2530:
  4012     0082                     l2167:
  4013     0082  082E               	movf	___flmul@bexp,w
  4014     0083  1D03               	btfss	3,2
  4015     0084  2886               	goto	u2541
  4016     0085  2887               	goto	u2540
  4017     0086                     u2541:
  4018     0086  2890               	goto	l2173
  4019     0087                     u2540:
  4020     0087                     l2169:
  4021     0087  3000               	movlw	0
  4022     0088  00A3               	movwf	?___flmul+3
  4023     0089  3000               	movlw	0
  4024     008A  00A2               	movwf	?___flmul+2
  4025     008B  3000               	movlw	0
  4026     008C  00A1               	movwf	?___flmul+1
  4027     008D  3000               	movlw	0
  4028     008E  00A0               	movwf	?___flmul
  4029     008F  2A68               	goto	l674
  4030     0090                     l2173:
  4031     0090  0820               	movf	___flmul@b,w
  4032     0091  00F0               	movwf	__Umul8_16@multiplicand
  4033     0092  0826               	movf	___flmul@a+2,w
  4034     0093  318D  2573  3180   	fcall	__Umul8_16
  4035     0096  0871               	movf	?__Umul8_16+1,w
  4036     0097  0020               	movlb	0	; select bank0
  4037     0098  00B4               	movwf	___flmul@temp+1
  4038     0099  0870               	movf	?__Umul8_16,w
  4039     009A  00B3               	movwf	___flmul@temp
  4040     009B                     l2175:
  4041     009B  0833               	movf	___flmul@temp,w
  4042     009C  00F9               	movwf	??___flmul
  4043     009D  01FA               	clrf	??___flmul+1
  4044     009E  01FB               	clrf	??___flmul+2
  4045     009F  01FC               	clrf	??___flmul+3
  4046     00A0  087C               	movf	??___flmul+3,w
  4047     00A1  00AC               	movwf	___flmul@grs+3
  4048     00A2  087B               	movf	??___flmul+2,w
  4049     00A3  00AB               	movwf	___flmul@grs+2
  4050     00A4  087A               	movf	??___flmul+1,w
  4051     00A5  00AA               	movwf	___flmul@grs+1
  4052     00A6  0879               	movf	??___flmul,w
  4053     00A7  00A9               	movwf	___flmul@grs
  4054     00A8                     l2177:
  4055     00A8  0834               	movf	___flmul@temp+1,w
  4056     00A9  00F9               	movwf	??___flmul
  4057     00AA  01FA               	clrf	??___flmul+1
  4058     00AB  01FB               	clrf	??___flmul+2
  4059     00AC  01FC               	clrf	??___flmul+3
  4060     00AD  087C               	movf	??___flmul+3,w
  4061     00AE  00B2               	movwf	___flmul@prod+3
  4062     00AF  087B               	movf	??___flmul+2,w
  4063     00B0  00B1               	movwf	___flmul@prod+2
  4064     00B1  087A               	movf	??___flmul+1,w
  4065     00B2  00B0               	movwf	___flmul@prod+1
  4066     00B3  0879               	movf	??___flmul,w
  4067     00B4  00AF               	movwf	___flmul@prod
  4068     00B5  0821               	movf	___flmul@b+1,w
  4069     00B6  00F0               	movwf	__Umul8_16@multiplicand
  4070     00B7  0825               	movf	___flmul@a+1,w
  4071     00B8  318D  2573  3180   	fcall	__Umul8_16
  4072     00BB  0871               	movf	?__Umul8_16+1,w
  4073     00BC  0020               	movlb	0	; select bank0
  4074     00BD  00B4               	movwf	___flmul@temp+1
  4075     00BE  0870               	movf	?__Umul8_16,w
  4076     00BF  00B3               	movwf	___flmul@temp
  4077     00C0                     l2179:
  4078     00C0  0833               	movf	___flmul@temp,w
  4079     00C1  00F9               	movwf	??___flmul
  4080     00C2  01FA               	clrf	??___flmul+1
  4081     00C3  01FB               	clrf	??___flmul+2
  4082     00C4  01FC               	clrf	??___flmul+3
  4083     00C5  0879               	movf	??___flmul,w
  4084     00C6  07A9               	addwf	___flmul@grs,f
  4085     00C7  087A               	movf	??___flmul+1,w
  4086     00C8  3DAA               	addwfc	___flmul@grs+1,f
  4087     00C9  087B               	movf	??___flmul+2,w
  4088     00CA  3DAB               	addwfc	___flmul@grs+2,f
  4089     00CB  087C               	movf	??___flmul+3,w
  4090     00CC  3DAC               	addwfc	___flmul@grs+3,f
  4091     00CD                     l2181:
  4092     00CD  0834               	movf	___flmul@temp+1,w
  4093     00CE  00F9               	movwf	??___flmul
  4094     00CF  01FA               	clrf	??___flmul+1
  4095     00D0  01FB               	clrf	??___flmul+2
  4096     00D1  01FC               	clrf	??___flmul+3
  4097     00D2  0879               	movf	??___flmul,w
  4098     00D3  07AF               	addwf	___flmul@prod,f
  4099     00D4  087A               	movf	??___flmul+1,w
  4100     00D5  3DB0               	addwfc	___flmul@prod+1,f
  4101     00D6  087B               	movf	??___flmul+2,w
  4102     00D7  3DB1               	addwfc	___flmul@prod+2,f
  4103     00D8  087C               	movf	??___flmul+3,w
  4104     00D9  3DB2               	addwfc	___flmul@prod+3,f
  4105     00DA  0822               	movf	___flmul@b+2,w
  4106     00DB  00F0               	movwf	__Umul8_16@multiplicand
  4107     00DC  0824               	movf	___flmul@a,w
  4108     00DD  318D  2573  3180   	fcall	__Umul8_16
  4109     00E0  0871               	movf	?__Umul8_16+1,w
  4110     00E1  0020               	movlb	0	; select bank0
  4111     00E2  00B4               	movwf	___flmul@temp+1
  4112     00E3  0870               	movf	?__Umul8_16,w
  4113     00E4  00B3               	movwf	___flmul@temp
  4114     00E5                     l2183:
  4115     00E5  0833               	movf	___flmul@temp,w
  4116     00E6  00F9               	movwf	??___flmul
  4117     00E7  01FA               	clrf	??___flmul+1
  4118     00E8  01FB               	clrf	??___flmul+2
  4119     00E9  01FC               	clrf	??___flmul+3
  4120     00EA  0879               	movf	??___flmul,w
  4121     00EB  07A9               	addwf	___flmul@grs,f
  4122     00EC  087A               	movf	??___flmul+1,w
  4123     00ED  3DAA               	addwfc	___flmul@grs+1,f
  4124     00EE  087B               	movf	??___flmul+2,w
  4125     00EF  3DAB               	addwfc	___flmul@grs+2,f
  4126     00F0  087C               	movf	??___flmul+3,w
  4127     00F1  3DAC               	addwfc	___flmul@grs+3,f
  4128     00F2                     l2185:
  4129     00F2  0834               	movf	___flmul@temp+1,w
  4130     00F3  00F9               	movwf	??___flmul
  4131     00F4  01FA               	clrf	??___flmul+1
  4132     00F5  01FB               	clrf	??___flmul+2
  4133     00F6  01FC               	clrf	??___flmul+3
  4134     00F7  0879               	movf	??___flmul,w
  4135     00F8  07AF               	addwf	___flmul@prod,f
  4136     00F9  087A               	movf	??___flmul+1,w
  4137     00FA  3DB0               	addwfc	___flmul@prod+1,f
  4138     00FB  087B               	movf	??___flmul+2,w
  4139     00FC  3DB1               	addwfc	___flmul@prod+2,f
  4140     00FD  087C               	movf	??___flmul+3,w
  4141     00FE  3DB2               	addwfc	___flmul@prod+3,f
  4142     00FF                     l2187:
  4143     00FF  3008               	movlw	8
  4144     0100                     u2555:
  4145     0100  35A9               	lslf	___flmul@grs,f
  4146     0101  0DAA               	rlf	___flmul@grs+1,f
  4147     0102  0DAB               	rlf	___flmul@grs+2,f
  4148     0103  0DAC               	rlf	___flmul@grs+3,f
  4149     0104  0B89               	decfsz	9,f
  4150     0105  2900               	goto	u2555
  4151     0106                     l2189:
  4152     0106  0821               	movf	___flmul@b+1,w
  4153     0107  00F0               	movwf	__Umul8_16@multiplicand
  4154     0108  0824               	movf	___flmul@a,w
  4155     0109  318D  2573  3180   	fcall	__Umul8_16
  4156     010C  0871               	movf	?__Umul8_16+1,w
  4157     010D  0020               	movlb	0	; select bank0
  4158     010E  00B4               	movwf	___flmul@temp+1
  4159     010F  0870               	movf	?__Umul8_16,w
  4160     0110  00B3               	movwf	___flmul@temp
  4161     0111                     l2191:
  4162     0111  0833               	movf	___flmul@temp,w
  4163     0112  07A9               	addwf	___flmul@grs,f
  4164     0113  0834               	movf	___flmul@temp+1,w
  4165     0114  3DAA               	addwfc	___flmul@grs+1,f
  4166     0115  3000               	movlw	0
  4167     0116  3DAB               	addwfc	___flmul@grs+2,f
  4168     0117  3DAC               	addwfc	___flmul@grs+3,f
  4169     0118                     l2193:
  4170     0118  0820               	movf	___flmul@b,w
  4171     0119  00F0               	movwf	__Umul8_16@multiplicand
  4172     011A  0825               	movf	___flmul@a+1,w
  4173     011B  318D  2573  3180   	fcall	__Umul8_16
  4174     011E  0871               	movf	?__Umul8_16+1,w
  4175     011F  0020               	movlb	0	; select bank0
  4176     0120  00B4               	movwf	___flmul@temp+1
  4177     0121  0870               	movf	?__Umul8_16,w
  4178     0122  00B3               	movwf	___flmul@temp
  4179     0123                     l2195:
  4180     0123  0833               	movf	___flmul@temp,w
  4181     0124  07A9               	addwf	___flmul@grs,f
  4182     0125  0834               	movf	___flmul@temp+1,w
  4183     0126  3DAA               	addwfc	___flmul@grs+1,f
  4184     0127  3000               	movlw	0
  4185     0128  3DAB               	addwfc	___flmul@grs+2,f
  4186     0129  3DAC               	addwfc	___flmul@grs+3,f
  4187     012A                     l2197:
  4188     012A  3008               	movlw	8
  4189     012B                     u2565:
  4190     012B  35A9               	lslf	___flmul@grs,f
  4191     012C  0DAA               	rlf	___flmul@grs+1,f
  4192     012D  0DAB               	rlf	___flmul@grs+2,f
  4193     012E  0DAC               	rlf	___flmul@grs+3,f
  4194     012F  0B89               	decfsz	9,f
  4195     0130  292B               	goto	u2565
  4196     0131  0820               	movf	___flmul@b,w
  4197     0132  00F0               	movwf	__Umul8_16@multiplicand
  4198     0133  0824               	movf	___flmul@a,w
  4199     0134  318D  2573  3180   	fcall	__Umul8_16
  4200     0137  0871               	movf	?__Umul8_16+1,w
  4201     0138  0020               	movlb	0	; select bank0
  4202     0139  00B4               	movwf	___flmul@temp+1
  4203     013A  0870               	movf	?__Umul8_16,w
  4204     013B  00B3               	movwf	___flmul@temp
  4205     013C                     l2199:
  4206     013C  0833               	movf	___flmul@temp,w
  4207     013D  07A9               	addwf	___flmul@grs,f
  4208     013E  0834               	movf	___flmul@temp+1,w
  4209     013F  3DAA               	addwfc	___flmul@grs+1,f
  4210     0140  3000               	movlw	0
  4211     0141  3DAB               	addwfc	___flmul@grs+2,f
  4212     0142  3DAC               	addwfc	___flmul@grs+3,f
  4213     0143                     l2201:
  4214     0143  0821               	movf	___flmul@b+1,w
  4215     0144  00F0               	movwf	__Umul8_16@multiplicand
  4216     0145  0826               	movf	___flmul@a+2,w
  4217     0146  318D  2573  3180   	fcall	__Umul8_16
  4218     0149  0871               	movf	?__Umul8_16+1,w
  4219     014A  0020               	movlb	0	; select bank0
  4220     014B  00B4               	movwf	___flmul@temp+1
  4221     014C  0870               	movf	?__Umul8_16,w
  4222     014D  00B3               	movwf	___flmul@temp
  4223     014E  0833               	movf	___flmul@temp,w
  4224     014F  07AF               	addwf	___flmul@prod,f
  4225     0150  0834               	movf	___flmul@temp+1,w
  4226     0151  3DB0               	addwfc	___flmul@prod+1,f
  4227     0152  3000               	movlw	0
  4228     0153  3DB1               	addwfc	___flmul@prod+2,f
  4229     0154  3DB2               	addwfc	___flmul@prod+3,f
  4230     0155                     l2203:
  4231     0155  0822               	movf	___flmul@b+2,w
  4232     0156  00F0               	movwf	__Umul8_16@multiplicand
  4233     0157  0825               	movf	___flmul@a+1,w
  4234     0158  318D  2573  3180   	fcall	__Umul8_16
  4235     015B  0871               	movf	?__Umul8_16+1,w
  4236     015C  0020               	movlb	0	; select bank0
  4237     015D  00B4               	movwf	___flmul@temp+1
  4238     015E  0870               	movf	?__Umul8_16,w
  4239     015F  00B3               	movwf	___flmul@temp
  4240     0160                     l2205:
  4241     0160  0833               	movf	___flmul@temp,w
  4242     0161  07AF               	addwf	___flmul@prod,f
  4243     0162  0834               	movf	___flmul@temp+1,w
  4244     0163  3DB0               	addwfc	___flmul@prod+1,f
  4245     0164  3000               	movlw	0
  4246     0165  3DB1               	addwfc	___flmul@prod+2,f
  4247     0166  3DB2               	addwfc	___flmul@prod+3,f
  4248     0167  0822               	movf	___flmul@b+2,w
  4249     0168  00F0               	movwf	__Umul8_16@multiplicand
  4250     0169  0826               	movf	___flmul@a+2,w
  4251     016A  318D  2573  3180   	fcall	__Umul8_16
  4252     016D  0871               	movf	?__Umul8_16+1,w
  4253     016E  0020               	movlb	0	; select bank0
  4254     016F  00B4               	movwf	___flmul@temp+1
  4255     0170  0870               	movf	?__Umul8_16,w
  4256     0171  00B3               	movwf	___flmul@temp
  4257     0172                     l2207:
  4258     0172  0833               	movf	___flmul@temp,w
  4259     0173  00F9               	movwf	??___flmul
  4260     0174  0834               	movf	___flmul@temp+1,w
  4261     0175  00FA               	movwf	??___flmul+1
  4262     0176  01FB               	clrf	??___flmul+2
  4263     0177  01FC               	clrf	??___flmul+3
  4264     0178  3008               	movlw	8
  4265     0179                     u2575:
  4266     0179  35F9               	lslf	??___flmul,f
  4267     017A  0DFA               	rlf	??___flmul+1,f
  4268     017B  0DFB               	rlf	??___flmul+2,f
  4269     017C  0DFC               	rlf	??___flmul+3,f
  4270     017D                     u2570:
  4271     017D  0B89               	decfsz	9,f
  4272     017E  2979               	goto	u2575
  4273     017F  0879               	movf	??___flmul,w
  4274     0180  07AF               	addwf	___flmul@prod,f
  4275     0181  087A               	movf	??___flmul+1,w
  4276     0182  3DB0               	addwfc	___flmul@prod+1,f
  4277     0183  087B               	movf	??___flmul+2,w
  4278     0184  3DB1               	addwfc	___flmul@prod+2,f
  4279     0185  087C               	movf	??___flmul+3,w
  4280     0186  3DB2               	addwfc	___flmul@prod+3,f
  4281     0187                     l2209:
  4282     0187  0829               	movf	___flmul@grs,w
  4283     0188  00F9               	movwf	??___flmul
  4284     0189  082A               	movf	___flmul@grs+1,w
  4285     018A  00FA               	movwf	??___flmul+1
  4286     018B  082B               	movf	___flmul@grs+2,w
  4287     018C  00FB               	movwf	??___flmul+2
  4288     018D  082C               	movf	___flmul@grs+3,w
  4289     018E  00FC               	movwf	??___flmul+3
  4290     018F  3018               	movlw	24
  4291     0190                     u2585:
  4292     0190  36FC               	lsrf	??___flmul+3,f
  4293     0191  0CFB               	rrf	??___flmul+2,f
  4294     0192  0CFA               	rrf	??___flmul+1,f
  4295     0193  0CF9               	rrf	??___flmul,f
  4296     0194                     u2580:
  4297     0194  0B89               	decfsz	9,f
  4298     0195  2990               	goto	u2585
  4299     0196  0879               	movf	??___flmul,w
  4300     0197  07AF               	addwf	___flmul@prod,f
  4301     0198  087A               	movf	??___flmul+1,w
  4302     0199  3DB0               	addwfc	___flmul@prod+1,f
  4303     019A  087B               	movf	??___flmul+2,w
  4304     019B  3DB1               	addwfc	___flmul@prod+2,f
  4305     019C  087C               	movf	??___flmul+3,w
  4306     019D  3DB2               	addwfc	___flmul@prod+3,f
  4307     019E                     l2211:
  4308     019E  3008               	movlw	8
  4309     019F                     u2595:
  4310     019F  35A9               	lslf	___flmul@grs,f
  4311     01A0  0DAA               	rlf	___flmul@grs+1,f
  4312     01A1  0DAB               	rlf	___flmul@grs+2,f
  4313     01A2  0DAC               	rlf	___flmul@grs+3,f
  4314     01A3  0B89               	decfsz	9,f
  4315     01A4  299F               	goto	u2595
  4316     01A5                     l2213:
  4317     01A5  082E               	movf	___flmul@bexp,w
  4318     01A6  072D               	addwf	___flmul@aexp,w
  4319     01A7  00F9               	movwf	??___flmul
  4320     01A8  01FA               	clrf	??___flmul+1
  4321     01A9  0DFA               	rlf	??___flmul+1,f
  4322     01AA  0879               	movf	??___flmul,w
  4323     01AB  3E82               	addlw	130
  4324     01AC  00B3               	movwf	___flmul@temp
  4325     01AD  30FF               	movlw	255
  4326     01AE  3D7A               	addwfc	??___flmul+1,w
  4327     01AF  00B4               	movwf	___flmul@temp+1
  4328     01B0  29C8               	goto	l2225
  4329     01B1                     l2215:
  4330     01B1  3001               	movlw	1
  4331     01B2                     u2605:
  4332     01B2  35AF               	lslf	___flmul@prod,f
  4333     01B3  0DB0               	rlf	___flmul@prod+1,f
  4334     01B4  0DB1               	rlf	___flmul@prod+2,f
  4335     01B5  0DB2               	rlf	___flmul@prod+3,f
  4336     01B6  0B89               	decfsz	9,f
  4337     01B7  29B2               	goto	u2605
  4338     01B8                     l2217:
  4339     01B8  1FAC               	btfss	___flmul@grs+3,7
  4340     01B9  29BB               	goto	u2611
  4341     01BA  29BC               	goto	u2610
  4342     01BB                     u2611:
  4343     01BB  29BD               	goto	l2221
  4344     01BC                     u2610:
  4345     01BC                     l2219:
  4346     01BC  142F               	bsf	___flmul@prod,0
  4347     01BD                     l2221:
  4348     01BD  3001               	movlw	1
  4349     01BE                     u2625:
  4350     01BE  35A9               	lslf	___flmul@grs,f
  4351     01BF  0DAA               	rlf	___flmul@grs+1,f
  4352     01C0  0DAB               	rlf	___flmul@grs+2,f
  4353     01C1  0DAC               	rlf	___flmul@grs+3,f
  4354     01C2  0B89               	decfsz	9,f
  4355     01C3  29BE               	goto	u2625
  4356     01C4                     l2223:
  4357     01C4  30FF               	movlw	255
  4358     01C5  07B3               	addwf	___flmul@temp,f
  4359     01C6  30FF               	movlw	255
  4360     01C7  3DB4               	addwfc	___flmul@temp+1,f
  4361     01C8                     l2225:
  4362     01C8  1FB1               	btfss	___flmul@prod+2,7
  4363     01C9  29CB               	goto	u2631
  4364     01CA  29CC               	goto	u2630
  4365     01CB                     u2631:
  4366     01CB  29B1               	goto	l2215
  4367     01CC                     u2630:
  4368     01CC                     l2227:
  4369     01CC  01AD               	clrf	___flmul@aexp
  4370     01CD                     l2229:
  4371     01CD  1FAC               	btfss	___flmul@grs+3,7
  4372     01CE  29D0               	goto	u2641
  4373     01CF  29D1               	goto	u2640
  4374     01D0                     u2641:
  4375     01D0  29ED               	goto	l2237
  4376     01D1                     u2640:
  4377     01D1                     l2231:
  4378     01D1  30FF               	movlw	255
  4379     01D2  0529               	andwf	___flmul@grs,w
  4380     01D3  00F9               	movwf	??___flmul
  4381     01D4  30FF               	movlw	255
  4382     01D5  052A               	andwf	___flmul@grs+1,w
  4383     01D6  00FA               	movwf	??___flmul+1
  4384     01D7  30FF               	movlw	255
  4385     01D8  052B               	andwf	___flmul@grs+2,w
  4386     01D9  00FB               	movwf	??___flmul+2
  4387     01DA  307F               	movlw	127
  4388     01DB  052C               	andwf	___flmul@grs+3,w
  4389     01DC  00FC               	movwf	??___flmul+3
  4390     01DD  087C               	movf	??___flmul+3,w
  4391     01DE  047B               	iorwf	??___flmul+2,w
  4392     01DF  047A               	iorwf	??___flmul+1,w
  4393     01E0  0479               	iorwf	??___flmul,w
  4394     01E1  1903               	skipnz
  4395     01E2  29E4               	goto	u2651
  4396     01E3  29E5               	goto	u2650
  4397     01E4                     u2651:
  4398     01E4  29E8               	goto	l680
  4399     01E5                     u2650:
  4400     01E5                     l2233:
  4401     01E5  01AD               	clrf	___flmul@aexp
  4402     01E6  0AAD               	incf	___flmul@aexp,f
  4403     01E7  29ED               	goto	l2237
  4404     01E8                     l680:
  4405     01E8  1C2F               	btfss	___flmul@prod,0
  4406     01E9  29EB               	goto	u2661
  4407     01EA  29EC               	goto	u2660
  4408     01EB                     u2661:
  4409     01EB  29ED               	goto	l2237
  4410     01EC                     u2660:
  4411     01EC  29E5               	goto	l2233
  4412     01ED                     l2237:
  4413     01ED  082D               	movf	___flmul@aexp,w
  4414     01EE  1903               	btfsc	3,2
  4415     01EF  29F1               	goto	u2671
  4416     01F0  29F2               	goto	u2670
  4417     01F1                     u2671:
  4418     01F1  2A1A               	goto	l2247
  4419     01F2                     u2670:
  4420     01F2                     l2239:
  4421     01F2  3001               	movlw	1
  4422     01F3  07AF               	addwf	___flmul@prod,f
  4423     01F4  3000               	movlw	0
  4424     01F5  3DB0               	addwfc	___flmul@prod+1,f
  4425     01F6  3000               	movlw	0
  4426     01F7  3DB1               	addwfc	___flmul@prod+2,f
  4427     01F8  3000               	movlw	0
  4428     01F9  3DB2               	addwfc	___flmul@prod+3,f
  4429     01FA                     l2241:
  4430     01FA  1C32               	btfss	___flmul@prod+3,0
  4431     01FB  29FD               	goto	u2681
  4432     01FC  29FE               	goto	u2680
  4433     01FD                     u2681:
  4434     01FD  2A1A               	goto	l2247
  4435     01FE                     u2680:
  4436     01FE                     l2243:
  4437     01FE  082F               	movf	___flmul@prod,w
  4438     01FF  00F9               	movwf	??___flmul
  4439     0200  0830               	movf	___flmul@prod+1,w
  4440     0201  00FA               	movwf	??___flmul+1
  4441     0202  0831               	movf	___flmul@prod+2,w
  4442     0203  00FB               	movwf	??___flmul+2
  4443     0204  0832               	movf	___flmul@prod+3,w
  4444     0205  00FC               	movwf	??___flmul+3
  4445     0206  3001               	movlw	1
  4446     0207  00FD               	movwf	??___flmul+4
  4447     0208                     u2695:
  4448     0208  37FC               	asrf	??___flmul+3,f
  4449     0209  0CFB               	rrf	??___flmul+2,f
  4450     020A  0CFA               	rrf	??___flmul+1,f
  4451     020B  0CF9               	rrf	??___flmul,f
  4452     020C                     u2690:
  4453     020C  0BFD               	decfsz	??___flmul+4,f
  4454     020D  2A08               	goto	u2695
  4455     020E  087C               	movf	??___flmul+3,w
  4456     020F  00B2               	movwf	___flmul@prod+3
  4457     0210  087B               	movf	??___flmul+2,w
  4458     0211  00B1               	movwf	___flmul@prod+2
  4459     0212  087A               	movf	??___flmul+1,w
  4460     0213  00B0               	movwf	___flmul@prod+1
  4461     0214  0879               	movf	??___flmul,w
  4462     0215  00AF               	movwf	___flmul@prod
  4463     0216                     l2245:
  4464     0216  3001               	movlw	1
  4465     0217  07B3               	addwf	___flmul@temp,f
  4466     0218  3000               	movlw	0
  4467     0219  3DB4               	addwfc	___flmul@temp+1,f
  4468     021A                     l2247:
  4469     021A  0834               	movf	___flmul@temp+1,w
  4470     021B  3A80               	xorlw	128
  4471     021C  00F9               	movwf	??___flmul
  4472     021D  3080               	movlw	128
  4473     021E  0279               	subwf	??___flmul,w
  4474     021F  1D03               	skipz
  4475     0220  2A23               	goto	u2705
  4476     0221  30FF               	movlw	255
  4477     0222  0233               	subwf	___flmul@temp,w
  4478     0223                     u2705:
  4479     0223  1C03               	skipc
  4480     0224  2A26               	goto	u2701
  4481     0225  2A27               	goto	u2700
  4482     0226                     u2701:
  4483     0226  2A31               	goto	l2251
  4484     0227                     u2700:
  4485     0227                     l2249:
  4486     0227  307F               	movlw	127
  4487     0228  0020               	movlb	0	; select bank0
  4488     0229  00B2               	movwf	___flmul@prod+3
  4489     022A  3080               	movlw	128
  4490     022B  00B1               	movwf	___flmul@prod+2
  4491     022C  3000               	movlw	0
  4492     022D  00B0               	movwf	___flmul@prod+1
  4493     022E  3000               	movlw	0
  4494     022F  00AF               	movwf	___flmul@prod
  4495     0230  2A5C               	goto	l686
  4496     0231                     l2251:
  4497     0231  0020               	movlb	0	; select bank0
  4498     0232  0834               	movf	___flmul@temp+1,w
  4499     0233  3A80               	xorlw	128
  4500     0234  00F9               	movwf	??___flmul
  4501     0235  3080               	movlw	128
  4502     0236  0279               	subwf	??___flmul,w
  4503     0237  1D03               	skipz
  4504     0238  2A3B               	goto	u2715
  4505     0239  3001               	movlw	1
  4506     023A  0233               	subwf	___flmul@temp,w
  4507     023B                     u2715:
  4508     023B  1803               	skipnc
  4509     023C  2A3E               	goto	u2711
  4510     023D  2A3F               	goto	u2710
  4511     023E                     u2711:
  4512     023E  2A4A               	goto	l2257
  4513     023F                     u2710:
  4514     023F                     l2253:
  4515     023F  3000               	movlw	0
  4516     0240  0020               	movlb	0	; select bank0
  4517     0241  00B2               	movwf	___flmul@prod+3
  4518     0242  3000               	movlw	0
  4519     0243  00B1               	movwf	___flmul@prod+2
  4520     0244  3000               	movlw	0
  4521     0245  00B0               	movwf	___flmul@prod+1
  4522     0246  3000               	movlw	0
  4523     0247  00AF               	movwf	___flmul@prod
  4524     0248                     l2255:
  4525     0248  01A8               	clrf	___flmul@sign
  4526     0249  2A5C               	goto	l686
  4527     024A                     l2257:
  4528     024A  0020               	movlb	0	; select bank0
  4529     024B  0833               	movf	___flmul@temp,w
  4530     024C  00AE               	movwf	___flmul@bexp
  4531     024D  30FF               	movlw	255
  4532     024E  05AF               	andwf	___flmul@prod,f
  4533     024F  30FF               	movlw	255
  4534     0250  05B0               	andwf	___flmul@prod+1,f
  4535     0251  307F               	movlw	127
  4536     0252  05B1               	andwf	___flmul@prod+2,f
  4537     0253  3000               	movlw	0
  4538     0254  05B2               	andwf	___flmul@prod+3,f
  4539     0255                     l2259:
  4540     0255  1C2E               	btfss	___flmul@bexp,0
  4541     0256  2A58               	goto	u2721
  4542     0257  2A59               	goto	u2720
  4543     0258                     u2721:
  4544     0258  2A5A               	goto	l2263
  4545     0259                     u2720:
  4546     0259                     l2261:
  4547     0259  17B1               	bsf	___flmul@prod+2,7
  4548     025A                     l2263:
  4549     025A  362E               	lsrf	___flmul@bexp,w
  4550     025B  00B2               	movwf	___flmul@prod+3
  4551     025C                     l686:
  4552     025C  0828               	movf	___flmul@sign,w
  4553     025D  00F9               	movwf	??___flmul
  4554     025E  0879               	movf	??___flmul,w
  4555     025F  04B2               	iorwf	___flmul@prod+3,f
  4556     0260                     l2265:
  4557     0260  0832               	movf	___flmul@prod+3,w
  4558     0261  00A3               	movwf	?___flmul+3
  4559     0262  0831               	movf	___flmul@prod+2,w
  4560     0263  00A2               	movwf	?___flmul+2
  4561     0264  0830               	movf	___flmul@prod+1,w
  4562     0265  00A1               	movwf	?___flmul+1
  4563     0266  082F               	movf	___flmul@prod,w
  4564     0267  00A0               	movwf	?___flmul
  4565     0268                     l674:
  4566     0268  0008               	return
  4567     0269                     __end_of___flmul:
  4568                           
  4569                           	psect	text13
  4570     0D73                     __ptext13:	
  4571 ;; *************** function __Umul8_16 *****************
  4572 ;; Defined at:
  4573 ;;		line 4 in file "C:\Program Files\Microchip\xc8\v2.45\pic\sources\c99\common\Umul8_16.c"
  4574 ;; Parameters:    Size  Location     Type
  4575 ;;  multiplier      1    wreg     unsigned char 
  4576 ;;  multiplicand    1    0[COMMON] unsigned char 
  4577 ;; Auto vars:     Size  Location     Type
  4578 ;;  multiplier      1    8[COMMON] unsigned char 
  4579 ;;  word_mpld       2    6[COMMON] unsigned short 
  4580 ;;  product         2    4[COMMON] unsigned short 
  4581 ;; Return value:  Size  Location     Type
  4582 ;;                  2    0[COMMON] unsigned int 
  4583 ;; Registers used:
  4584 ;;		wreg, status,2, status,0
  4585 ;; Tracked objects:
  4586 ;;		On entry : 0/0
  4587 ;;		On exit  : 0/0
  4588 ;;		Unchanged: 0/0
  4589 ;; Data sizes:     COMMON   BANK0   BANK1   BANK2   BANK3   BANK4   BANK5   BANK6   BANK7   BANK8   BANK9  BANK10  BANK1
      +1  BANK12  BANK13  BANK14  BANK15  BANK16  BANK17  BANK18  BANK19  BANK20  BANK21  BANK22  BANK23  BANK24  BANK25
  4590 ;;      Params:         2       0       0       0       0       0       0       0       0       0       0       0       
      +0       0       0       0       0       0       0       0       0       0       0       0       0       0       0
  4591 ;;      Locals:         5       0       0       0       0       0       0       0       0       0       0       0       
      +0       0       0       0       0       0       0       0       0       0       0       0       0       0       0
  4592 ;;      Temps:          2       0       0       0       0       0       0       0       0       0       0       0       
      +0       0       0       0       0       0       0       0       0       0       0       0       0       0       0
  4593 ;;      Totals:         9       0       0       0       0       0       0       0       0       0       0       0       
      +0       0       0       0       0       0       0       0       0       0       0       0       0       0       0
  4594 ;;Total ram usage:        9 bytes
  4595 ;; Hardware stack levels used: 1
  4596 ;; Hardware stack levels required when called: 1
  4597 ;; This function calls:
  4598 ;;		Nothing
  4599 ;; This function is called by:
  4600 ;;		___flmul
  4601 ;; This function uses a non-reentrant model
  4602 ;;
  4603                           
  4604     0D73                     __Umul8_16:	
  4605                           ;psect for function __Umul8_16
  4606                           
  4607                           
  4608                           ;incstack = 0
  4609                           ; Regs used in __Umul8_16: [wreg+status,2+status,0]
  4610                           ;__Umul8_16@multiplier stored from wreg
  4611     0D73  00F8               	movwf	__Umul8_16@multiplier
  4612     0D74                     l1835:
  4613     0D74  01F4               	clrf	__Umul8_16@product
  4614     0D75  01F5               	clrf	__Umul8_16@product+1
  4615     0D76                     l1837:
  4616     0D76  0870               	movf	__Umul8_16@multiplicand,w
  4617     0D77  00F2               	movwf	??__Umul8_16
  4618     0D78  01F3               	clrf	??__Umul8_16+1
  4619     0D79  0872               	movf	??__Umul8_16,w
  4620     0D7A  00F6               	movwf	__Umul8_16@word_mpld
  4621     0D7B  0873               	movf	??__Umul8_16+1,w
  4622     0D7C  00F7               	movwf	__Umul8_16@word_mpld+1
  4623     0D7D                     l1839:
  4624     0D7D  1C78               	btfss	__Umul8_16@multiplier,0
  4625     0D7E  2D80               	goto	u2031
  4626     0D7F  2D81               	goto	u2030
  4627     0D80                     u2031:
  4628     0D80  2D85               	goto	l693
  4629     0D81                     u2030:
  4630     0D81                     l1841:
  4631     0D81  0876               	movf	__Umul8_16@word_mpld,w
  4632     0D82  07F4               	addwf	__Umul8_16@product,f
  4633     0D83  0877               	movf	__Umul8_16@word_mpld+1,w
  4634     0D84  3DF5               	addwfc	__Umul8_16@product+1,f
  4635     0D85                     l693:
  4636     0D85  3001               	movlw	1
  4637     0D86                     u2045:
  4638     0D86  35F6               	lslf	__Umul8_16@word_mpld,f
  4639     0D87  0DF7               	rlf	__Umul8_16@word_mpld+1,f
  4640     0D88  0B89               	decfsz	9,f
  4641     0D89  2D86               	goto	u2045
  4642     0D8A  1003               	clrc
  4643     0D8B  0CF8               	rrf	__Umul8_16@multiplier,f
  4644     0D8C                     l1843:
  4645     0D8C  0878               	movf	__Umul8_16@multiplier,w
  4646     0D8D  1D03               	btfss	3,2
  4647     0D8E  2D90               	goto	u2051
  4648     0D8F  2D91               	goto	u2050
  4649     0D90                     u2051:
  4650     0D90  2D7D               	goto	l1839
  4651     0D91                     u2050:
  4652     0D91                     l1845:
  4653     0D91  0875               	movf	__Umul8_16@product+1,w
  4654     0D92  00F1               	movwf	?__Umul8_16+1
  4655     0D93  0874               	movf	__Umul8_16@product,w
  4656     0D94  00F0               	movwf	?__Umul8_16
  4657     0D95                     l695:
  4658     0D95  0008               	return
  4659     0D96                     __end_of__Umul8_16:
  4660                           
  4661                           	psect	text14
  4662     0E56                     __ptext14:	
  4663 ;; *************** function ___fldiv *****************
  4664 ;; Defined at:
  4665 ;;		line 8 in file "C:\Program Files\Microchip\xc8\v2.45\pic\sources\c99\common\sprcdiv.c"
  4666 ;; Parameters:    Size  Location     Type
  4667 ;;  a               4   49[BANK0 ] unsigned int 
  4668 ;;  b               4   53[BANK0 ] unsigned int 
  4669 ;; Auto vars:     Size  Location     Type
  4670 ;;  grs             4   69[BANK0 ] unsigned long 
  4671 ;;  rem             4   62[BANK0 ] unsigned long 
  4672 ;;  new_exp         2   67[BANK0 ] short 
  4673 ;;  aexp            1   74[BANK0 ] unsigned char 
  4674 ;;  bexp            1   73[BANK0 ] unsigned char 
  4675 ;;  sign            1   66[BANK0 ] unsigned char 
  4676 ;; Return value:  Size  Location     Type
  4677 ;;                  4   49[BANK0 ] unsigned char 
  4678 ;; Registers used:
  4679 ;;		wreg, status,2, status,0
  4680 ;; Tracked objects:
  4681 ;;		On entry : 0/0
  4682 ;;		On exit  : 0/0
  4683 ;;		Unchanged: 0/0
  4684 ;; Data sizes:     COMMON   BANK0   BANK1   BANK2   BANK3   BANK4   BANK5   BANK6   BANK7   BANK8   BANK9  BANK10  BANK1
      +1  BANK12  BANK13  BANK14  BANK15  BANK16  BANK17  BANK18  BANK19  BANK20  BANK21  BANK22  BANK23  BANK24  BANK25
  4685 ;;      Params:         0       8       0       0       0       0       0       0       0       0       0       0       
      +0       0       0       0       0       0       0       0       0       0       0       0       0       0       0
  4686 ;;      Locals:         0      13       0       0       0       0       0       0       0       0       0       0       
      +0       0       0       0       0       0       0       0       0       0       0       0       0       0       0
  4687 ;;      Temps:          0       5       0       0       0       0       0       0       0       0       0       0       
      +0       0       0       0       0       0       0       0       0       0       0       0       0       0       0
  4688 ;;      Totals:         0      26       0       0       0       0       0       0       0       0       0       0       
      +0       0       0       0       0       0       0       0       0       0       0       0       0       0       0
  4689 ;;Total ram usage:       26 bytes
  4690 ;; Hardware stack levels used: 1
  4691 ;; Hardware stack levels required when called: 1
  4692 ;; This function calls:
  4693 ;;		Nothing
  4694 ;; This function is called by:
  4695 ;;		_main
  4696 ;; This function uses a non-reentrant model
  4697 ;;
  4698                           
  4699     0E56                     ___fldiv:	
  4700                           ;psect for function ___fldiv
  4701                           
  4702     0E56                     l1989:	
  4703                           ;incstack = 0
  4704                           ; Regs used in ___fldiv: [wreg+status,2+status,0]
  4705                           
  4706     0E56  0020               	movlb	0	; select bank0
  4707     0E57  0858               	movf	___fldiv@b+3,w
  4708     0E58  3980               	andlw	128
  4709     0E59  00E2               	movwf	___fldiv@sign
  4710     0E5A                     l1991:
  4711     0E5A  3558               	lslf	___fldiv@b+3,w
  4712     0E5B  00E9               	movwf	___fldiv@bexp
  4713     0E5C                     l1993:
  4714     0E5C  1FD7               	btfss	___fldiv@b+2,7
  4715     0E5D  2E5F               	goto	u2181
  4716     0E5E  2E60               	goto	u2180
  4717     0E5F                     u2181:
  4718     0E5F  2E61               	goto	l1997
  4719     0E60                     u2180:
  4720     0E60                     l1995:
  4721     0E60  1469               	bsf	___fldiv@bexp,0
  4722     0E61                     l1997:
  4723     0E61  0869               	movf	___fldiv@bexp,w
  4724     0E62  1903               	btfsc	3,2
  4725     0E63  2E65               	goto	u2191
  4726     0E64  2E66               	goto	u2190
  4727     0E65                     u2191:
  4728     0E65  2E76               	goto	l2007
  4729     0E66                     u2190:
  4730     0E66                     l1999:
  4731     0E66  0A69               	incf	___fldiv@bexp,w
  4732     0E67  1D03               	btfss	3,2
  4733     0E68  2E6A               	goto	u2201
  4734     0E69  2E6B               	goto	u2200
  4735     0E6A                     u2201:
  4736     0E6A  2E73               	goto	l2003
  4737     0E6B                     u2200:
  4738     0E6B                     l2001:
  4739     0E6B  3000               	movlw	0
  4740     0E6C  00D8               	movwf	___fldiv@b+3
  4741     0E6D  3000               	movlw	0
  4742     0E6E  00D7               	movwf	___fldiv@b+2
  4743     0E6F  3000               	movlw	0
  4744     0E70  00D6               	movwf	___fldiv@b+1
  4745     0E71  3000               	movlw	0
  4746     0E72  00D5               	movwf	___fldiv@b
  4747     0E73                     l2003:
  4748     0E73  17D7               	bsf	___fldiv@b+2,7
  4749     0E74                     l2005:
  4750     0E74  01D8               	clrf	___fldiv@b+3
  4751     0E75  2E7E               	goto	l2009
  4752     0E76                     l2007:
  4753     0E76  3000               	movlw	0
  4754     0E77  00D8               	movwf	___fldiv@b+3
  4755     0E78  3000               	movlw	0
  4756     0E79  00D7               	movwf	___fldiv@b+2
  4757     0E7A  3000               	movlw	0
  4758     0E7B  00D6               	movwf	___fldiv@b+1
  4759     0E7C  3000               	movlw	0
  4760     0E7D  00D5               	movwf	___fldiv@b
  4761     0E7E                     l2009:
  4762     0E7E  0854               	movf	___fldiv@a+3,w
  4763     0E7F  3980               	andlw	128
  4764     0E80  00D9               	movwf	??___fldiv
  4765     0E81  0859               	movf	??___fldiv,w
  4766     0E82  06E2               	xorwf	___fldiv@sign,f
  4767     0E83                     l2011:
  4768     0E83  3554               	lslf	___fldiv@a+3,w
  4769     0E84  00EA               	movwf	___fldiv@aexp
  4770     0E85                     l2013:
  4771     0E85  1FD3               	btfss	___fldiv@a+2,7
  4772     0E86  2E88               	goto	u2211
  4773     0E87  2E89               	goto	u2210
  4774     0E88                     u2211:
  4775     0E88  2E8A               	goto	l2017
  4776     0E89                     u2210:
  4777     0E89                     l2015:
  4778     0E89  146A               	bsf	___fldiv@aexp,0
  4779     0E8A                     l2017:
  4780     0E8A  086A               	movf	___fldiv@aexp,w
  4781     0E8B  1903               	btfsc	3,2
  4782     0E8C  2E8E               	goto	u2221
  4783     0E8D  2E8F               	goto	u2220
  4784     0E8E                     u2221:
  4785     0E8E  2E9F               	goto	l2027
  4786     0E8F                     u2220:
  4787     0E8F                     l2019:
  4788     0E8F  0A6A               	incf	___fldiv@aexp,w
  4789     0E90  1D03               	btfss	3,2
  4790     0E91  2E93               	goto	u2231
  4791     0E92  2E94               	goto	u2230
  4792     0E93                     u2231:
  4793     0E93  2E9C               	goto	l2023
  4794     0E94                     u2230:
  4795     0E94                     l2021:
  4796     0E94  3000               	movlw	0
  4797     0E95  00D4               	movwf	___fldiv@a+3
  4798     0E96  3000               	movlw	0
  4799     0E97  00D3               	movwf	___fldiv@a+2
  4800     0E98  3000               	movlw	0
  4801     0E99  00D2               	movwf	___fldiv@a+1
  4802     0E9A  3000               	movlw	0
  4803     0E9B  00D1               	movwf	___fldiv@a
  4804     0E9C                     l2023:
  4805     0E9C  17D3               	bsf	___fldiv@a+2,7
  4806     0E9D                     l2025:
  4807     0E9D  01D4               	clrf	___fldiv@a+3
  4808     0E9E  2EA7               	goto	l634
  4809     0E9F                     l2027:
  4810     0E9F  3000               	movlw	0
  4811     0EA0  00D4               	movwf	___fldiv@a+3
  4812     0EA1  3000               	movlw	0
  4813     0EA2  00D3               	movwf	___fldiv@a+2
  4814     0EA3  3000               	movlw	0
  4815     0EA4  00D2               	movwf	___fldiv@a+1
  4816     0EA5  3000               	movlw	0
  4817     0EA6  00D1               	movwf	___fldiv@a
  4818     0EA7                     l634:
  4819     0EA7  0854               	movf	___fldiv@a+3,w
  4820     0EA8  0453               	iorwf	___fldiv@a+2,w
  4821     0EA9  0452               	iorwf	___fldiv@a+1,w
  4822     0EAA  0451               	iorwf	___fldiv@a,w
  4823     0EAB  1D03               	skipz
  4824     0EAC  2EAE               	goto	u2241
  4825     0EAD  2EAF               	goto	u2240
  4826     0EAE                     u2241:
  4827     0EAE  2EC8               	goto	l2037
  4828     0EAF                     u2240:
  4829     0EAF                     l2029:
  4830     0EAF  3000               	movlw	0
  4831     0EB0  00D8               	movwf	___fldiv@b+3
  4832     0EB1  3000               	movlw	0
  4833     0EB2  00D7               	movwf	___fldiv@b+2
  4834     0EB3  3000               	movlw	0
  4835     0EB4  00D6               	movwf	___fldiv@b+1
  4836     0EB5  3000               	movlw	0
  4837     0EB6  00D5               	movwf	___fldiv@b
  4838     0EB7  3080               	movlw	128
  4839     0EB8  04D7               	iorwf	___fldiv@b+2,f
  4840     0EB9  307F               	movlw	127
  4841     0EBA  04D8               	iorwf	___fldiv@b+3,f
  4842     0EBB                     l2031:
  4843     0EBB  0862               	movf	___fldiv@sign,w
  4844     0EBC  00D9               	movwf	??___fldiv
  4845     0EBD  0859               	movf	??___fldiv,w
  4846     0EBE  04D8               	iorwf	___fldiv@b+3,f
  4847     0EBF                     l2033:
  4848     0EBF  0858               	movf	___fldiv@b+3,w
  4849     0EC0  00D4               	movwf	?___fldiv+3
  4850     0EC1  0857               	movf	___fldiv@b+2,w
  4851     0EC2  00D3               	movwf	?___fldiv+2
  4852     0EC3  0856               	movf	___fldiv@b+1,w
  4853     0EC4  00D2               	movwf	?___fldiv+1
  4854     0EC5  0855               	movf	___fldiv@b,w
  4855     0EC6  00D1               	movwf	?___fldiv
  4856     0EC7  2FFF               	goto	l636
  4857     0EC8                     l2037:
  4858     0EC8  0869               	movf	___fldiv@bexp,w
  4859     0EC9  1D03               	btfss	3,2
  4860     0ECA  2ECC               	goto	u2251
  4861     0ECB  2ECD               	goto	u2250
  4862     0ECC                     u2251:
  4863     0ECC  2ED6               	goto	l2043
  4864     0ECD                     u2250:
  4865     0ECD                     l2039:
  4866     0ECD  3000               	movlw	0
  4867     0ECE  00D4               	movwf	?___fldiv+3
  4868     0ECF  3000               	movlw	0
  4869     0ED0  00D3               	movwf	?___fldiv+2
  4870     0ED1  3000               	movlw	0
  4871     0ED2  00D2               	movwf	?___fldiv+1
  4872     0ED3  3000               	movlw	0
  4873     0ED4  00D1               	movwf	?___fldiv
  4874     0ED5  2FFF               	goto	l636
  4875     0ED6                     l2043:
  4876     0ED6  0869               	movf	___fldiv@bexp,w
  4877     0ED7  00D9               	movwf	??___fldiv
  4878     0ED8  01DA               	clrf	??___fldiv+1
  4879     0ED9  085A               	movf	??___fldiv+1,w
  4880     0EDA  00DC               	movwf	??___fldiv+3
  4881     0EDB  086A               	movf	___fldiv@aexp,w
  4882     0EDC  0259               	subwf	??___fldiv,w
  4883     0EDD  00DB               	movwf	??___fldiv+2
  4884     0EDE  1C03               	skipc
  4885     0EDF  03DC               	decf	??___fldiv+3,f
  4886     0EE0  085B               	movf	??___fldiv+2,w
  4887     0EE1  3E7F               	addlw	127
  4888     0EE2  00E3               	movwf	___fldiv@new_exp
  4889     0EE3  3000               	movlw	0
  4890     0EE4  3D5C               	addwfc	??___fldiv+3,w
  4891     0EE5  00E4               	movwf	___fldiv@new_exp+1
  4892     0EE6                     l2045:
  4893     0EE6  0858               	movf	___fldiv@b+3,w
  4894     0EE7  00E1               	movwf	___fldiv@rem+3
  4895     0EE8  0857               	movf	___fldiv@b+2,w
  4896     0EE9  00E0               	movwf	___fldiv@rem+2
  4897     0EEA  0856               	movf	___fldiv@b+1,w
  4898     0EEB  00DF               	movwf	___fldiv@rem+1
  4899     0EEC  0855               	movf	___fldiv@b,w
  4900     0EED  00DE               	movwf	___fldiv@rem
  4901     0EEE                     l2047:
  4902     0EEE  3000               	movlw	0
  4903     0EEF  00D8               	movwf	___fldiv@b+3
  4904     0EF0  3000               	movlw	0
  4905     0EF1  00D7               	movwf	___fldiv@b+2
  4906     0EF2  3000               	movlw	0
  4907     0EF3  00D6               	movwf	___fldiv@b+1
  4908     0EF4  3000               	movlw	0
  4909     0EF5  00D5               	movwf	___fldiv@b
  4910     0EF6                     l2049:
  4911     0EF6  3000               	movlw	0
  4912     0EF7  00E8               	movwf	___fldiv@grs+3
  4913     0EF8  3000               	movlw	0
  4914     0EF9  00E7               	movwf	___fldiv@grs+2
  4915     0EFA  3000               	movlw	0
  4916     0EFB  00E6               	movwf	___fldiv@grs+1
  4917     0EFC  3000               	movlw	0
  4918     0EFD  00E5               	movwf	___fldiv@grs
  4919     0EFE                     l2051:
  4920     0EFE  01EA               	clrf	___fldiv@aexp
  4921     0EFF  2F3E               	goto	l2071
  4922     0F00                     l2053:
  4923     0F00  086A               	movf	___fldiv@aexp,w
  4924     0F01  1903               	btfsc	3,2
  4925     0F02  2F04               	goto	u2261
  4926     0F03  2F05               	goto	u2260
  4927     0F04                     u2261:
  4928     0F04  2F1F               	goto	l2063
  4929     0F05                     u2260:
  4930     0F05                     l2055:
  4931     0F05  3001               	movlw	1
  4932     0F06                     u2275:
  4933     0F06  35DE               	lslf	___fldiv@rem,f
  4934     0F07  0DDF               	rlf	___fldiv@rem+1,f
  4935     0F08  0DE0               	rlf	___fldiv@rem+2,f
  4936     0F09  0DE1               	rlf	___fldiv@rem+3,f
  4937     0F0A  0B89               	decfsz	9,f
  4938     0F0B  2F06               	goto	u2275
  4939     0F0C  3001               	movlw	1
  4940     0F0D                     u2285:
  4941     0F0D  35D5               	lslf	___fldiv@b,f
  4942     0F0E  0DD6               	rlf	___fldiv@b+1,f
  4943     0F0F  0DD7               	rlf	___fldiv@b+2,f
  4944     0F10  0DD8               	rlf	___fldiv@b+3,f
  4945     0F11  0B89               	decfsz	9,f
  4946     0F12  2F0D               	goto	u2285
  4947     0F13                     l2057:
  4948     0F13  1FE8               	btfss	___fldiv@grs+3,7
  4949     0F14  2F16               	goto	u2291
  4950     0F15  2F17               	goto	u2290
  4951     0F16                     u2291:
  4952     0F16  2F18               	goto	l2061
  4953     0F17                     u2290:
  4954     0F17                     l2059:
  4955     0F17  1455               	bsf	___fldiv@b,0
  4956     0F18                     l2061:
  4957     0F18  3001               	movlw	1
  4958     0F19                     u2305:
  4959     0F19  35E5               	lslf	___fldiv@grs,f
  4960     0F1A  0DE6               	rlf	___fldiv@grs+1,f
  4961     0F1B  0DE7               	rlf	___fldiv@grs+2,f
  4962     0F1C  0DE8               	rlf	___fldiv@grs+3,f
  4963     0F1D  0B89               	decfsz	9,f
  4964     0F1E  2F19               	goto	u2305
  4965     0F1F                     l2063:
  4966     0F1F  0854               	movf	___fldiv@a+3,w
  4967     0F20  0261               	subwf	___fldiv@rem+3,w
  4968     0F21  1D03               	skipz
  4969     0F22  2F2D               	goto	u2315
  4970     0F23  0853               	movf	___fldiv@a+2,w
  4971     0F24  0260               	subwf	___fldiv@rem+2,w
  4972     0F25  1D03               	skipz
  4973     0F26  2F2D               	goto	u2315
  4974     0F27  0852               	movf	___fldiv@a+1,w
  4975     0F28  025F               	subwf	___fldiv@rem+1,w
  4976     0F29  1D03               	skipz
  4977     0F2A  2F2D               	goto	u2315
  4978     0F2B  0851               	movf	___fldiv@a,w
  4979     0F2C  025E               	subwf	___fldiv@rem,w
  4980     0F2D                     u2315:
  4981     0F2D  1C03               	skipc
  4982     0F2E  2F30               	goto	u2311
  4983     0F2F  2F31               	goto	u2310
  4984     0F30                     u2311:
  4985     0F30  2F3A               	goto	l2069
  4986     0F31                     u2310:
  4987     0F31                     l2065:
  4988     0F31  1768               	bsf	___fldiv@grs+3,6
  4989     0F32                     l2067:
  4990     0F32  0851               	movf	___fldiv@a,w
  4991     0F33  02DE               	subwf	___fldiv@rem,f
  4992     0F34  0852               	movf	___fldiv@a+1,w
  4993     0F35  3BDF               	subwfb	___fldiv@rem+1,f
  4994     0F36  0853               	movf	___fldiv@a+2,w
  4995     0F37  3BE0               	subwfb	___fldiv@rem+2,f
  4996     0F38  0854               	movf	___fldiv@a+3,w
  4997     0F39  3BE1               	subwfb	___fldiv@rem+3,f
  4998     0F3A                     l2069:
  4999     0F3A  3001               	movlw	1
  5000     0F3B  00D9               	movwf	??___fldiv
  5001     0F3C  0859               	movf	??___fldiv,w
  5002     0F3D  07EA               	addwf	___fldiv@aexp,f
  5003     0F3E                     l2071:
  5004     0F3E  301A               	movlw	26
  5005     0F3F  026A               	subwf	___fldiv@aexp,w
  5006     0F40  1C03               	skipc
  5007     0F41  2F43               	goto	u2321
  5008     0F42  2F44               	goto	u2320
  5009     0F43                     u2321:
  5010     0F43  2F00               	goto	l2053
  5011     0F44                     u2320:
  5012     0F44                     l2073:
  5013     0F44  0861               	movf	___fldiv@rem+3,w
  5014     0F45  0460               	iorwf	___fldiv@rem+2,w
  5015     0F46  045F               	iorwf	___fldiv@rem+1,w
  5016     0F47  045E               	iorwf	___fldiv@rem,w
  5017     0F48  1903               	skipnz
  5018     0F49  2F4B               	goto	u2331
  5019     0F4A  2F4C               	goto	u2330
  5020     0F4B                     u2331:
  5021     0F4B  2F65               	goto	l2087
  5022     0F4C                     u2330:
  5023     0F4C                     l2075:
  5024     0F4C  1465               	bsf	___fldiv@grs,0
  5025     0F4D  2F65               	goto	l2087
  5026     0F4E                     l2077:
  5027     0F4E  3001               	movlw	1
  5028     0F4F                     u2345:
  5029     0F4F  35D5               	lslf	___fldiv@b,f
  5030     0F50  0DD6               	rlf	___fldiv@b+1,f
  5031     0F51  0DD7               	rlf	___fldiv@b+2,f
  5032     0F52  0DD8               	rlf	___fldiv@b+3,f
  5033     0F53  0B89               	decfsz	9,f
  5034     0F54  2F4F               	goto	u2345
  5035     0F55                     l2079:
  5036     0F55  1FE8               	btfss	___fldiv@grs+3,7
  5037     0F56  2F58               	goto	u2351
  5038     0F57  2F59               	goto	u2350
  5039     0F58                     u2351:
  5040     0F58  2F5A               	goto	l2083
  5041     0F59                     u2350:
  5042     0F59                     l2081:
  5043     0F59  1455               	bsf	___fldiv@b,0
  5044     0F5A                     l2083:
  5045     0F5A  3001               	movlw	1
  5046     0F5B                     u2365:
  5047     0F5B  35E5               	lslf	___fldiv@grs,f
  5048     0F5C  0DE6               	rlf	___fldiv@grs+1,f
  5049     0F5D  0DE7               	rlf	___fldiv@grs+2,f
  5050     0F5E  0DE8               	rlf	___fldiv@grs+3,f
  5051     0F5F  0B89               	decfsz	9,f
  5052     0F60  2F5B               	goto	u2365
  5053     0F61                     l2085:
  5054     0F61  30FF               	movlw	255
  5055     0F62  07E3               	addwf	___fldiv@new_exp,f
  5056     0F63  30FF               	movlw	255
  5057     0F64  3DE4               	addwfc	___fldiv@new_exp+1,f
  5058     0F65                     l2087:
  5059     0F65  1FD7               	btfss	___fldiv@b+2,7
  5060     0F66  2F68               	goto	u2371
  5061     0F67  2F69               	goto	u2370
  5062     0F68                     u2371:
  5063     0F68  2F4E               	goto	l2077
  5064     0F69                     u2370:
  5065     0F69                     l2089:
  5066     0F69  01EA               	clrf	___fldiv@aexp
  5067     0F6A                     l2091:
  5068     0F6A  1FE8               	btfss	___fldiv@grs+3,7
  5069     0F6B  2F6D               	goto	u2381
  5070     0F6C  2F6E               	goto	u2380
  5071     0F6D                     u2381:
  5072     0F6D  2F8A               	goto	l2099
  5073     0F6E                     u2380:
  5074     0F6E                     l2093:
  5075     0F6E  30FF               	movlw	255
  5076     0F6F  0565               	andwf	___fldiv@grs,w
  5077     0F70  00D9               	movwf	??___fldiv
  5078     0F71  30FF               	movlw	255
  5079     0F72  0566               	andwf	___fldiv@grs+1,w
  5080     0F73  00DA               	movwf	??___fldiv+1
  5081     0F74  30FF               	movlw	255
  5082     0F75  0567               	andwf	___fldiv@grs+2,w
  5083     0F76  00DB               	movwf	??___fldiv+2
  5084     0F77  307F               	movlw	127
  5085     0F78  0568               	andwf	___fldiv@grs+3,w
  5086     0F79  00DC               	movwf	??___fldiv+3
  5087     0F7A  085C               	movf	??___fldiv+3,w
  5088     0F7B  045B               	iorwf	??___fldiv+2,w
  5089     0F7C  045A               	iorwf	??___fldiv+1,w
  5090     0F7D  0459               	iorwf	??___fldiv,w
  5091     0F7E  1903               	skipnz
  5092     0F7F  2F81               	goto	u2391
  5093     0F80  2F82               	goto	u2390
  5094     0F81                     u2391:
  5095     0F81  2F85               	goto	l650
  5096     0F82                     u2390:
  5097     0F82                     l2095:
  5098     0F82  01EA               	clrf	___fldiv@aexp
  5099     0F83  0AEA               	incf	___fldiv@aexp,f
  5100     0F84  2F8A               	goto	l2099
  5101     0F85                     l650:
  5102     0F85  1C55               	btfss	___fldiv@b,0
  5103     0F86  2F88               	goto	u2401
  5104     0F87  2F89               	goto	u2400
  5105     0F88                     u2401:
  5106     0F88  2F8A               	goto	l2099
  5107     0F89                     u2400:
  5108     0F89  2F82               	goto	l2095
  5109     0F8A                     l2099:
  5110     0F8A  086A               	movf	___fldiv@aexp,w
  5111     0F8B  1903               	btfsc	3,2
  5112     0F8C  2F8E               	goto	u2411
  5113     0F8D  2F8F               	goto	u2410
  5114     0F8E                     u2411:
  5115     0F8E  2FB7               	goto	l2109
  5116     0F8F                     u2410:
  5117     0F8F                     l2101:
  5118     0F8F  3001               	movlw	1
  5119     0F90  07D5               	addwf	___fldiv@b,f
  5120     0F91  3000               	movlw	0
  5121     0F92  3DD6               	addwfc	___fldiv@b+1,f
  5122     0F93  3000               	movlw	0
  5123     0F94  3DD7               	addwfc	___fldiv@b+2,f
  5124     0F95  3000               	movlw	0
  5125     0F96  3DD8               	addwfc	___fldiv@b+3,f
  5126     0F97                     l2103:
  5127     0F97  1C58               	btfss	___fldiv@b+3,0
  5128     0F98  2F9A               	goto	u2421
  5129     0F99  2F9B               	goto	u2420
  5130     0F9A                     u2421:
  5131     0F9A  2FB7               	goto	l2109
  5132     0F9B                     u2420:
  5133     0F9B                     l2105:
  5134     0F9B  0855               	movf	___fldiv@b,w
  5135     0F9C  00D9               	movwf	??___fldiv
  5136     0F9D  0856               	movf	___fldiv@b+1,w
  5137     0F9E  00DA               	movwf	??___fldiv+1
  5138     0F9F  0857               	movf	___fldiv@b+2,w
  5139     0FA0  00DB               	movwf	??___fldiv+2
  5140     0FA1  0858               	movf	___fldiv@b+3,w
  5141     0FA2  00DC               	movwf	??___fldiv+3
  5142     0FA3  3001               	movlw	1
  5143     0FA4  00DD               	movwf	??___fldiv+4
  5144     0FA5                     u2435:
  5145     0FA5  37DC               	asrf	??___fldiv+3,f
  5146     0FA6  0CDB               	rrf	??___fldiv+2,f
  5147     0FA7  0CDA               	rrf	??___fldiv+1,f
  5148     0FA8  0CD9               	rrf	??___fldiv,f
  5149     0FA9                     u2430:
  5150     0FA9  0BDD               	decfsz	??___fldiv+4,f
  5151     0FAA  2FA5               	goto	u2435
  5152     0FAB  085C               	movf	??___fldiv+3,w
  5153     0FAC  00D8               	movwf	___fldiv@b+3
  5154     0FAD  085B               	movf	??___fldiv+2,w
  5155     0FAE  00D7               	movwf	___fldiv@b+2
  5156     0FAF  085A               	movf	??___fldiv+1,w
  5157     0FB0  00D6               	movwf	___fldiv@b+1
  5158     0FB1  0859               	movf	??___fldiv,w
  5159     0FB2  00D5               	movwf	___fldiv@b
  5160     0FB3                     l2107:
  5161     0FB3  3001               	movlw	1
  5162     0FB4  07E3               	addwf	___fldiv@new_exp,f
  5163     0FB5  3000               	movlw	0
  5164     0FB6  3DE4               	addwfc	___fldiv@new_exp+1,f
  5165     0FB7                     l2109:
  5166     0FB7  0864               	movf	___fldiv@new_exp+1,w
  5167     0FB8  3A80               	xorlw	128
  5168     0FB9  00D9               	movwf	??___fldiv
  5169     0FBA  3080               	movlw	128
  5170     0FBB  0259               	subwf	??___fldiv,w
  5171     0FBC  1D03               	skipz
  5172     0FBD  2FC0               	goto	u2445
  5173     0FBE  30FF               	movlw	255
  5174     0FBF  0263               	subwf	___fldiv@new_exp,w
  5175     0FC0                     u2445:
  5176     0FC0  1C03               	skipc
  5177     0FC1  2FC3               	goto	u2441
  5178     0FC2  2FC4               	goto	u2440
  5179     0FC3                     u2441:
  5180     0FC3  2FD1               	goto	l655
  5181     0FC4                     u2440:
  5182     0FC4                     l2111:
  5183     0FC4  30FF               	movlw	255
  5184     0FC5  0020               	movlb	0	; select bank0
  5185     0FC6  00E3               	movwf	___fldiv@new_exp
  5186     0FC7  3000               	movlw	0
  5187     0FC8  00E4               	movwf	___fldiv@new_exp+1
  5188     0FC9  3000               	movlw	0
  5189     0FCA  00D8               	movwf	___fldiv@b+3
  5190     0FCB  3000               	movlw	0
  5191     0FCC  00D7               	movwf	___fldiv@b+2
  5192     0FCD  3000               	movlw	0
  5193     0FCE  00D6               	movwf	___fldiv@b+1
  5194     0FCF  3000               	movlw	0
  5195     0FD0  00D5               	movwf	___fldiv@b
  5196     0FD1                     l655:
  5197     0FD1  0020               	movlb	0	; select bank0
  5198     0FD2  0864               	movf	___fldiv@new_exp+1,w
  5199     0FD3  3A80               	xorlw	128
  5200     0FD4  00D9               	movwf	??___fldiv
  5201     0FD5  3080               	movlw	128
  5202     0FD6  0259               	subwf	??___fldiv,w
  5203     0FD7  1D03               	skipz
  5204     0FD8  2FDB               	goto	u2455
  5205     0FD9  3001               	movlw	1
  5206     0FDA  0263               	subwf	___fldiv@new_exp,w
  5207     0FDB                     u2455:
  5208     0FDB  1803               	skipnc
  5209     0FDC  2FDE               	goto	u2451
  5210     0FDD  2FDF               	goto	u2450
  5211     0FDE                     u2451:
  5212     0FDE  2FEB               	goto	l656
  5213     0FDF                     u2450:
  5214     0FDF                     l2113:
  5215     0FDF  0020               	movlb	0	; select bank0
  5216     0FE0  01E3               	clrf	___fldiv@new_exp
  5217     0FE1  01E4               	clrf	___fldiv@new_exp+1
  5218     0FE2                     l2115:
  5219     0FE2  3000               	movlw	0
  5220     0FE3  00D8               	movwf	___fldiv@b+3
  5221     0FE4  3000               	movlw	0
  5222     0FE5  00D7               	movwf	___fldiv@b+2
  5223     0FE6  3000               	movlw	0
  5224     0FE7  00D6               	movwf	___fldiv@b+1
  5225     0FE8  3000               	movlw	0
  5226     0FE9  00D5               	movwf	___fldiv@b
  5227     0FEA                     l2117:
  5228     0FEA  01E2               	clrf	___fldiv@sign
  5229     0FEB                     l656:
  5230     0FEB  0020               	movlb	0	; select bank0
  5231     0FEC  0863               	movf	___fldiv@new_exp,w
  5232     0FED  00E9               	movwf	___fldiv@bexp
  5233     0FEE                     l2119:
  5234     0FEE  1C69               	btfss	___fldiv@bexp,0
  5235     0FEF  2FF1               	goto	u2461
  5236     0FF0  2FF2               	goto	u2460
  5237     0FF1                     u2461:
  5238     0FF1  2FF4               	goto	l2123
  5239     0FF2                     u2460:
  5240     0FF2                     l2121:
  5241     0FF2  17D7               	bsf	___fldiv@b+2,7
  5242     0FF3  2FF8               	goto	l658
  5243     0FF4                     l2123:
  5244     0FF4  307F               	movlw	127
  5245     0FF5  00D9               	movwf	??___fldiv
  5246     0FF6  0859               	movf	??___fldiv,w
  5247     0FF7  05D7               	andwf	___fldiv@b+2,f
  5248     0FF8                     l658:
  5249     0FF8  3669               	lsrf	___fldiv@bexp,w
  5250     0FF9  00D8               	movwf	___fldiv@b+3
  5251     0FFA  0862               	movf	___fldiv@sign,w
  5252     0FFB  00D9               	movwf	??___fldiv
  5253     0FFC  0859               	movf	??___fldiv,w
  5254     0FFD  04D8               	iorwf	___fldiv@b+3,f
  5255     0FFE  2EBF               	goto	l2033
  5256     0FFF                     l636:
  5257     0FFF  0008               	return
  5258     1000                     __end_of___fldiv:
  5259                           
  5260                           	psect	text15
  5261     0D96                     __ptext15:	
  5262 ;; *************** function _EUSART_Initialize *****************
  5263 ;; Defined at:
  5264 ;;		line 36 in file "EUSART.c"
  5265 ;; Parameters:    Size  Location     Type
  5266 ;;  baudrate        4    6[BANK0 ] const long 
  5267 ;; Auto vars:     Size  Location     Type
  5268 ;;  x               2    9[COMMON] unsigned int 
  5269 ;; Return value:  Size  Location     Type
  5270 ;;                  1    wreg      unsigned char 
  5271 ;; Registers used:
  5272 ;;		wreg, status,2, status,0, pclath, cstack
  5273 ;; Tracked objects:
  5274 ;;		On entry : 0/0
  5275 ;;		On exit  : 0/0
  5276 ;;		Unchanged: 0/0
  5277 ;; Data sizes:     COMMON   BANK0   BANK1   BANK2   BANK3   BANK4   BANK5   BANK6   BANK7   BANK8   BANK9  BANK10  BANK1
      +1  BANK12  BANK13  BANK14  BANK15  BANK16  BANK17  BANK18  BANK19  BANK20  BANK21  BANK22  BANK23  BANK24  BANK25
  5278 ;;      Params:         0       4       0       0       0       0       0       0       0       0       0       0       
      +0       0       0       0       0       0       0       0       0       0       0       0       0       0       0
  5279 ;;      Locals:         2       0       0       0       0       0       0       0       0       0       0       0       
      +0       0       0       0       0       0       0       0       0       0       0       0       0       0       0
  5280 ;;      Temps:          0      12       0       0       0       0       0       0       0       0       0       0       
      +0       0       0       0       0       0       0       0       0       0       0       0       0       0       0
  5281 ;;      Totals:         2      16       0       0       0       0       0       0       0       0       0       0       
      +0       0       0       0       0       0       0       0       0       0       0       0       0       0       0
  5282 ;;Total ram usage:       18 bytes
  5283 ;; Hardware stack levels used: 1
  5284 ;; Hardware stack levels required when called: 2
  5285 ;; This function calls:
  5286 ;;		___aldiv
  5287 ;; This function is called by:
  5288 ;;		_main
  5289 ;; This function uses a non-reentrant model
  5290 ;;
  5291                           
  5292     0D96                     _EUSART_Initialize:	
  5293                           ;psect for function _EUSART_Initialize
  5294                           
  5295     0D96                     l1929:	
  5296                           ;incstack = 0
  5297                           ; Regs used in _EUSART_Initialize: [wreg+status,2+status,0+pclath+cstack]
  5298                           
  5299                           
  5300                           ;EUSART.c: 36: char EUSART_Initialize(const long int baudrate);EUSART.c: 37: {;EUSART.c:
      +                           38:     unsigned int x;;EUSART.c: 39:  x = (32000000 - baudrate*64)/(baudrate*64);
  5301     0D96  0020               	movlb	0	; select bank0
  5302     0D97  0826               	movf	EUSART_Initialize@baudrate,w
  5303     0D98  00AA               	movwf	??_EUSART_Initialize
  5304     0D99  0827               	movf	EUSART_Initialize@baudrate+1,w
  5305     0D9A  00AB               	movwf	??_EUSART_Initialize+1
  5306     0D9B  0828               	movf	EUSART_Initialize@baudrate+2,w
  5307     0D9C  00AC               	movwf	??_EUSART_Initialize+2
  5308     0D9D  0829               	movf	EUSART_Initialize@baudrate+3,w
  5309     0D9E  00AD               	movwf	??_EUSART_Initialize+3
  5310     0D9F  3006               	movlw	6
  5311     0DA0                     u2065:
  5312     0DA0  35AA               	lslf	??_EUSART_Initialize,f
  5313     0DA1  0DAB               	rlf	??_EUSART_Initialize+1,f
  5314     0DA2  0DAC               	rlf	??_EUSART_Initialize+2,f
  5315     0DA3  0DAD               	rlf	??_EUSART_Initialize+3,f
  5316     0DA4                     u2060:
  5317     0DA4  0B89               	decfsz	9,f
  5318     0DA5  2DA0               	goto	u2065
  5319     0DA6  082D               	movf	??_EUSART_Initialize+3,w
  5320     0DA7  00F3               	movwf	___aldiv@divisor+3
  5321     0DA8  082C               	movf	??_EUSART_Initialize+2,w
  5322     0DA9  00F2               	movwf	___aldiv@divisor+2
  5323     0DAA  082B               	movf	??_EUSART_Initialize+1,w
  5324     0DAB  00F1               	movwf	___aldiv@divisor+1
  5325     0DAC  082A               	movf	??_EUSART_Initialize,w
  5326     0DAD  00F0               	movwf	___aldiv@divisor
  5327     0DAE  0826               	movf	EUSART_Initialize@baudrate,w
  5328     0DAF  00AE               	movwf	??_EUSART_Initialize+4
  5329     0DB0  0827               	movf	EUSART_Initialize@baudrate+1,w
  5330     0DB1  00AF               	movwf	??_EUSART_Initialize+5
  5331     0DB2  0828               	movf	EUSART_Initialize@baudrate+2,w
  5332     0DB3  00B0               	movwf	??_EUSART_Initialize+6
  5333     0DB4  0829               	movf	EUSART_Initialize@baudrate+3,w
  5334     0DB5  00B1               	movwf	??_EUSART_Initialize+7
  5335     0DB6  3006               	movlw	6
  5336     0DB7                     u2075:
  5337     0DB7  35AE               	lslf	??_EUSART_Initialize+4,f
  5338     0DB8  0DAF               	rlf	??_EUSART_Initialize+5,f
  5339     0DB9  0DB0               	rlf	??_EUSART_Initialize+6,f
  5340     0DBA  0DB1               	rlf	??_EUSART_Initialize+7,f
  5341     0DBB                     u2070:
  5342     0DBB  0B89               	decfsz	9,f
  5343     0DBC  2DB7               	goto	u2075
  5344     0DBD  3000               	movlw	0
  5345     0DBE  00B2               	movwf	??_EUSART_Initialize+8
  5346     0DBF  3048               	movlw	72
  5347     0DC0  00B3               	movwf	??_EUSART_Initialize+9
  5348     0DC1  30E8               	movlw	232
  5349     0DC2  00B4               	movwf	??_EUSART_Initialize+10
  5350     0DC3  3001               	movlw	1
  5351     0DC4  00B5               	movwf	??_EUSART_Initialize+11
  5352     0DC5  082E               	movf	??_EUSART_Initialize+4,w
  5353     0DC6  02B2               	subwf	??_EUSART_Initialize+8,f
  5354     0DC7  082F               	movf	??_EUSART_Initialize+5,w
  5355     0DC8  3BB3               	subwfb	??_EUSART_Initialize+9,f
  5356     0DC9  0830               	movf	??_EUSART_Initialize+6,w
  5357     0DCA  3BB4               	subwfb	??_EUSART_Initialize+10,f
  5358     0DCB  0831               	movf	??_EUSART_Initialize+7,w
  5359     0DCC  3BB5               	subwfb	??_EUSART_Initialize+11,f
  5360     0DCD  0835               	movf	??_EUSART_Initialize+11,w
  5361     0DCE  00F7               	movwf	___aldiv@dividend+3
  5362     0DCF  0834               	movf	??_EUSART_Initialize+10,w
  5363     0DD0  00F6               	movwf	___aldiv@dividend+2
  5364     0DD1  0833               	movf	??_EUSART_Initialize+9,w
  5365     0DD2  00F5               	movwf	___aldiv@dividend+1
  5366     0DD3  0832               	movf	??_EUSART_Initialize+8,w
  5367     0DD4  00F4               	movwf	___aldiv@dividend
  5368     0DD5  3187  2708  318D   	fcall	___aldiv
  5369     0DD8  0871               	movf	?___aldiv+1,w
  5370     0DD9  00FA               	movwf	EUSART_Initialize@x+1
  5371     0DDA  0870               	movf	?___aldiv,w
  5372     0DDB  00F9               	movwf	EUSART_Initialize@x
  5373     0DDC                     l1931:
  5374                           
  5375                           ;EUSART.c: 41:  SPBRGL = x;
  5376     0DDC  0879               	movf	EUSART_Initialize@x,w
  5377     0DDD  0023               	movlb	3	; select bank3
  5378     0DDE  009B               	movwf	27	;volatile
  5379     0DDF                     l1933:
  5380                           
  5381                           ;EUSART.c: 42:     BRGH = 0;
  5382     0DDF  111E               	bcf	30,2	;volatile
  5383     0DE0                     l1935:
  5384                           
  5385                           ;EUSART.c: 43:     BRG16 = 0;
  5386     0DE0  119F               	bcf	31,3	;volatile
  5387     0DE1                     l1937:
  5388                           
  5389                           ;EUSART.c: 44:     SYNC = 0;
  5390     0DE1  121E               	bcf	30,4	;volatile
  5391     0DE2                     l1939:
  5392                           
  5393                           ;EUSART.c: 45:     SPEN = 1;
  5394     0DE2  179D               	bsf	29,7	;volatile
  5395     0DE3                     l1941:
  5396                           
  5397                           ;EUSART.c: 46:     CREN = 1;
  5398     0DE3  161D               	bsf	29,4	;volatile
  5399     0DE4                     l1943:
  5400                           
  5401                           ;EUSART.c: 47:     TXEN = 1;
  5402     0DE4  169E               	bsf	30,5	;volatile
  5403     0DE5                     l133:
  5404     0DE5  0008               	return
  5405     0DE6                     __end_of_EUSART_Initialize:
  5406                           
  5407                           	psect	text16
  5408     0708                     __ptext16:	
  5409 ;; *************** function ___aldiv *****************
  5410 ;; Defined at:
  5411 ;;		line 5 in file "C:\Program Files\Microchip\xc8\v2.45\pic\sources\c99\common\aldiv.c"
  5412 ;; Parameters:    Size  Location     Type
  5413 ;;  divisor         4    0[COMMON] long 
  5414 ;;  dividend        4    4[COMMON] long 
  5415 ;; Auto vars:     Size  Location     Type
  5416 ;;  quotient        4    2[BANK0 ] long 
  5417 ;;  sign            1    1[BANK0 ] unsigned char 
  5418 ;;  counter         1    0[BANK0 ] unsigned char 
  5419 ;; Return value:  Size  Location     Type
  5420 ;;                  4    0[COMMON] long 
  5421 ;; Registers used:
  5422 ;;		wreg, status,2, status,0
  5423 ;; Tracked objects:
  5424 ;;		On entry : 0/0
  5425 ;;		On exit  : 0/0
  5426 ;;		Unchanged: 0/0
  5427 ;; Data sizes:     COMMON   BANK0   BANK1   BANK2   BANK3   BANK4   BANK5   BANK6   BANK7   BANK8   BANK9  BANK10  BANK1
      +1  BANK12  BANK13  BANK14  BANK15  BANK16  BANK17  BANK18  BANK19  BANK20  BANK21  BANK22  BANK23  BANK24  BANK25
  5428 ;;      Params:         8       0       0       0       0       0       0       0       0       0       0       0       
      +0       0       0       0       0       0       0       0       0       0       0       0       0       0       0
  5429 ;;      Locals:         0       6       0       0       0       0       0       0       0       0       0       0       
      +0       0       0       0       0       0       0       0       0       0       0       0       0       0       0
  5430 ;;      Temps:          1       0       0       0       0       0       0       0       0       0       0       0       
      +0       0       0       0       0       0       0       0       0       0       0       0       0       0       0
  5431 ;;      Totals:         9       6       0       0       0       0       0       0       0       0       0       0       
      +0       0       0       0       0       0       0       0       0       0       0       0       0       0       0
  5432 ;;Total ram usage:       15 bytes
  5433 ;; Hardware stack levels used: 1
  5434 ;; Hardware stack levels required when called: 1
  5435 ;; This function calls:
  5436 ;;		Nothing
  5437 ;; This function is called by:
  5438 ;;		_EUSART_Initialize
  5439 ;; This function uses a non-reentrant model
  5440 ;;
  5441                           
  5442     0708                     ___aldiv:	
  5443                           ;psect for function ___aldiv
  5444                           
  5445     0708                     l1601:	
  5446                           ;incstack = 0
  5447                           ; Regs used in ___aldiv: [wreg+status,2+status,0]
  5448                           
  5449     0708  0020               	movlb	0	; select bank0
  5450     0709  01A1               	clrf	___aldiv@sign
  5451     070A                     l1603:
  5452     070A  1FF3               	btfss	___aldiv@divisor+3,7
  5453     070B  2F0D               	goto	u1501
  5454     070C  2F0E               	goto	u1500
  5455     070D                     u1501:
  5456     070D  2F1B               	goto	l342
  5457     070E                     u1500:
  5458     070E                     l1605:
  5459     070E  09F0               	comf	___aldiv@divisor,f
  5460     070F  09F1               	comf	___aldiv@divisor+1,f
  5461     0710  09F2               	comf	___aldiv@divisor+2,f
  5462     0711  09F3               	comf	___aldiv@divisor+3,f
  5463     0712  0AF0               	incf	___aldiv@divisor,f
  5464     0713  1903               	skipnz
  5465     0714  0AF1               	incf	___aldiv@divisor+1,f
  5466     0715  1903               	skipnz
  5467     0716  0AF2               	incf	___aldiv@divisor+2,f
  5468     0717  1903               	skipnz
  5469     0718  0AF3               	incf	___aldiv@divisor+3,f
  5470     0719  01A1               	clrf	___aldiv@sign
  5471     071A  0AA1               	incf	___aldiv@sign,f
  5472     071B                     l342:
  5473     071B  1FF7               	btfss	___aldiv@dividend+3,7
  5474     071C  2F1E               	goto	u1511
  5475     071D  2F1F               	goto	u1510
  5476     071E                     u1511:
  5477     071E  2F2E               	goto	l1611
  5478     071F                     u1510:
  5479     071F                     l1607:
  5480     071F  09F4               	comf	___aldiv@dividend,f
  5481     0720  09F5               	comf	___aldiv@dividend+1,f
  5482     0721  09F6               	comf	___aldiv@dividend+2,f
  5483     0722  09F7               	comf	___aldiv@dividend+3,f
  5484     0723  0AF4               	incf	___aldiv@dividend,f
  5485     0724  1903               	skipnz
  5486     0725  0AF5               	incf	___aldiv@dividend+1,f
  5487     0726  1903               	skipnz
  5488     0727  0AF6               	incf	___aldiv@dividend+2,f
  5489     0728  1903               	skipnz
  5490     0729  0AF7               	incf	___aldiv@dividend+3,f
  5491     072A                     l1609:
  5492     072A  3001               	movlw	1
  5493     072B  00F8               	movwf	??___aldiv
  5494     072C  0878               	movf	??___aldiv,w
  5495     072D  06A1               	xorwf	___aldiv@sign,f
  5496     072E                     l1611:
  5497     072E  3000               	movlw	0
  5498     072F  00A5               	movwf	___aldiv@quotient+3
  5499     0730  3000               	movlw	0
  5500     0731  00A4               	movwf	___aldiv@quotient+2
  5501     0732  3000               	movlw	0
  5502     0733  00A3               	movwf	___aldiv@quotient+1
  5503     0734  3000               	movlw	0
  5504     0735  00A2               	movwf	___aldiv@quotient
  5505     0736                     l1613:
  5506     0736  0873               	movf	___aldiv@divisor+3,w
  5507     0737  0472               	iorwf	___aldiv@divisor+2,w
  5508     0738  0471               	iorwf	___aldiv@divisor+1,w
  5509     0739  0470               	iorwf	___aldiv@divisor,w
  5510     073A  1903               	skipnz
  5511     073B  2F3D               	goto	u1521
  5512     073C  2F3E               	goto	u1520
  5513     073D                     u1521:
  5514     073D  2F7F               	goto	l1633
  5515     073E                     u1520:
  5516     073E                     l1615:
  5517     073E  01A0               	clrf	___aldiv@counter
  5518     073F  0AA0               	incf	___aldiv@counter,f
  5519     0740  2F4C               	goto	l1619
  5520     0741                     l1617:
  5521     0741  3001               	movlw	1
  5522     0742                     u1535:
  5523     0742  35F0               	lslf	___aldiv@divisor,f
  5524     0743  0DF1               	rlf	___aldiv@divisor+1,f
  5525     0744  0DF2               	rlf	___aldiv@divisor+2,f
  5526     0745  0DF3               	rlf	___aldiv@divisor+3,f
  5527     0746  0B89               	decfsz	9,f
  5528     0747  2F42               	goto	u1535
  5529     0748  3001               	movlw	1
  5530     0749  00F8               	movwf	??___aldiv
  5531     074A  0878               	movf	??___aldiv,w
  5532     074B  07A0               	addwf	___aldiv@counter,f
  5533     074C                     l1619:
  5534     074C  1FF3               	btfss	___aldiv@divisor+3,7
  5535     074D  2F4F               	goto	u1541
  5536     074E  2F50               	goto	u1540
  5537     074F                     u1541:
  5538     074F  2F41               	goto	l1617
  5539     0750                     u1540:
  5540     0750                     l1621:
  5541     0750  3001               	movlw	1
  5542     0751                     u1555:
  5543     0751  35A2               	lslf	___aldiv@quotient,f
  5544     0752  0DA3               	rlf	___aldiv@quotient+1,f
  5545     0753  0DA4               	rlf	___aldiv@quotient+2,f
  5546     0754  0DA5               	rlf	___aldiv@quotient+3,f
  5547     0755  0B89               	decfsz	9,f
  5548     0756  2F51               	goto	u1555
  5549     0757                     l1623:
  5550     0757  0873               	movf	___aldiv@divisor+3,w
  5551     0758  0277               	subwf	___aldiv@dividend+3,w
  5552     0759  1D03               	skipz
  5553     075A  2F65               	goto	u1565
  5554     075B  0872               	movf	___aldiv@divisor+2,w
  5555     075C  0276               	subwf	___aldiv@dividend+2,w
  5556     075D  1D03               	skipz
  5557     075E  2F65               	goto	u1565
  5558     075F  0871               	movf	___aldiv@divisor+1,w
  5559     0760  0275               	subwf	___aldiv@dividend+1,w
  5560     0761  1D03               	skipz
  5561     0762  2F65               	goto	u1565
  5562     0763  0870               	movf	___aldiv@divisor,w
  5563     0764  0274               	subwf	___aldiv@dividend,w
  5564     0765                     u1565:
  5565     0765  1C03               	skipc
  5566     0766  2F68               	goto	u1561
  5567     0767  2F69               	goto	u1560
  5568     0768                     u1561:
  5569     0768  2F72               	goto	l1629
  5570     0769                     u1560:
  5571     0769                     l1625:
  5572     0769  0870               	movf	___aldiv@divisor,w
  5573     076A  02F4               	subwf	___aldiv@dividend,f
  5574     076B  0871               	movf	___aldiv@divisor+1,w
  5575     076C  3BF5               	subwfb	___aldiv@dividend+1,f
  5576     076D  0872               	movf	___aldiv@divisor+2,w
  5577     076E  3BF6               	subwfb	___aldiv@dividend+2,f
  5578     076F  0873               	movf	___aldiv@divisor+3,w
  5579     0770  3BF7               	subwfb	___aldiv@dividend+3,f
  5580     0771                     l1627:
  5581     0771  1422               	bsf	___aldiv@quotient,0
  5582     0772                     l1629:
  5583     0772  3001               	movlw	1
  5584     0773                     u1575:
  5585     0773  36F3               	lsrf	___aldiv@divisor+3,f
  5586     0774  0CF2               	rrf	___aldiv@divisor+2,f
  5587     0775  0CF1               	rrf	___aldiv@divisor+1,f
  5588     0776  0CF0               	rrf	___aldiv@divisor,f
  5589     0777  0B89               	decfsz	9,f
  5590     0778  2F73               	goto	u1575
  5591     0779                     l1631:
  5592     0779  3001               	movlw	1
  5593     077A  02A0               	subwf	___aldiv@counter,f
  5594     077B  1D03               	btfss	3,2
  5595     077C  2F7E               	goto	u1581
  5596     077D  2F7F               	goto	u1580
  5597     077E                     u1581:
  5598     077E  2F50               	goto	l1621
  5599     077F                     u1580:
  5600     077F                     l1633:
  5601     077F  0821               	movf	___aldiv@sign,w
  5602     0780  1903               	btfsc	3,2
  5603     0781  2F83               	goto	u1591
  5604     0782  2F84               	goto	u1590
  5605     0783                     u1591:
  5606     0783  2F8F               	goto	l1637
  5607     0784                     u1590:
  5608     0784                     l1635:
  5609     0784  09A2               	comf	___aldiv@quotient,f
  5610     0785  09A3               	comf	___aldiv@quotient+1,f
  5611     0786  09A4               	comf	___aldiv@quotient+2,f
  5612     0787  09A5               	comf	___aldiv@quotient+3,f
  5613     0788  0AA2               	incf	___aldiv@quotient,f
  5614     0789  1903               	skipnz
  5615     078A  0AA3               	incf	___aldiv@quotient+1,f
  5616     078B  1903               	skipnz
  5617     078C  0AA4               	incf	___aldiv@quotient+2,f
  5618     078D  1903               	skipnz
  5619     078E  0AA5               	incf	___aldiv@quotient+3,f
  5620     078F                     l1637:
  5621     078F  0825               	movf	___aldiv@quotient+3,w
  5622     0790  00F3               	movwf	?___aldiv+3
  5623     0791  0824               	movf	___aldiv@quotient+2,w
  5624     0792  00F2               	movwf	?___aldiv+2
  5625     0793  0823               	movf	___aldiv@quotient+1,w
  5626     0794  00F1               	movwf	?___aldiv+1
  5627     0795  0822               	movf	___aldiv@quotient,w
  5628     0796  00F0               	movwf	?___aldiv
  5629     0797                     l352:
  5630     0797  0008               	return
  5631     0798                     __end_of___aldiv:
  5632                           
  5633                           	psect	intentry
  5634     0004                     __pintentry:	
  5635 ;; *************** function _isr *****************
  5636 ;; Defined at:
  5637 ;;		line 343 in file "main.c"
  5638 ;; Parameters:    Size  Location     Type
  5639 ;;		None
  5640 ;; Auto vars:     Size  Location     Type
  5641 ;;		None
  5642 ;; Return value:  Size  Location     Type
  5643 ;;                  1    wreg      void 
  5644 ;; Registers used:
  5645 ;;		wreg
  5646 ;; Tracked objects:
  5647 ;;		On entry : 0/0
  5648 ;;		On exit  : 0/0
  5649 ;;		Unchanged: 0/0
  5650 ;; Data sizes:     COMMON   BANK0   BANK1   BANK2   BANK3   BANK4   BANK5   BANK6   BANK7   BANK8   BANK9  BANK10  BANK1
      +1  BANK12  BANK13  BANK14  BANK15  BANK16  BANK17  BANK18  BANK19  BANK20  BANK21  BANK22  BANK23  BANK24  BANK25
  5651 ;;      Params:         0       0       0       0       0       0       0       0       0       0       0       0       
      +0       0       0       0       0       0       0       0       0       0       0       0       0       0       0
  5652 ;;      Locals:         0       0       0       0       0       0       0       0       0       0       0       0       
      +0       0       0       0       0       0       0       0       0       0       0       0       0       0       0
  5653 ;;      Temps:          0       0       0       0       0       0       0       0       0       0       0       0       
      +0       0       0       0       0       0       0       0       0       0       0       0       0       0       0
  5654 ;;      Totals:         0       0       0       0       0       0       0       0       0       0       0       0       
      +0       0       0       0       0       0       0       0       0       0       0       0       0       0       0
  5655 ;;Total ram usage:        0 bytes
  5656 ;; Hardware stack levels used: 1
  5657 ;; This function calls:
  5658 ;;		Nothing
  5659 ;; This function is called by:
  5660 ;;		Interrupt level 1
  5661 ;; This function uses a non-reentrant model
  5662 ;;
  5663                           
  5664     0004                     _isr:
  5665                           
  5666                           ;incstack = 0
  5667     0004  147E               	bsf	int$flags,0	;set compiler interrupt flag (level 1)
  5668                           
  5669                           ; Regs used in _isr: [wreg]
  5670     0005  3180               	pagesel	$
  5671     0006                     i1l2359:
  5672                           
  5673                           ;main.c: 345:     if (INTCONbits.IOCIF)
  5674     0006  1C0B               	btfss	11,0	;volatile
  5675     0007  2809               	goto	u287_21
  5676     0008  280A               	goto	u287_20
  5677     0009                     u287_21:
  5678     0009  2820               	goto	i1l108
  5679     000A                     u287_20:
  5680     000A                     i1l2361:
  5681                           
  5682                           ;main.c: 346:     {;main.c: 347:         if (IOCAFbits.IOCAF0)
  5683     000A  0027               	movlb	7	; select bank7
  5684     000B  1C13               	btfss	19,0	;volatile
  5685     000C  280E               	goto	u288_21
  5686     000D  280F               	goto	u288_20
  5687     000E                     u288_21:
  5688     000E  2815               	goto	i1l2367
  5689     000F                     u288_20:
  5690     000F                     i1l2363:
  5691                           
  5692                           ;main.c: 348:         {;main.c: 349:             IOCAFbits.IOCAF0 = 0;
  5693     000F  1013               	bcf	19,0	;volatile
  5694     0010                     i1l2365:
  5695                           
  5696                           ;main.c: 350:             counterA++;
  5697     0010  3001               	movlw	1
  5698     0011  0021               	movlb	1	; select bank1
  5699     0012  07C4               	addwf	_counterA^(0+128),f	;volatile
  5700     0013  3000               	movlw	0
  5701     0014  3DC5               	addwfc	(_counterA+1)^(0+128),f	;volatile
  5702     0015                     i1l2367:
  5703                           
  5704                           ;main.c: 353:         if (IOCAFbits.IOCAF1)
  5705     0015  0027               	movlb	7	; select bank7
  5706     0016  1C93               	btfss	19,1	;volatile
  5707     0017  2819               	goto	u289_21
  5708     0018  281A               	goto	u289_20
  5709     0019                     u289_21:
  5710     0019  2820               	goto	i1l108
  5711     001A                     u289_20:
  5712     001A                     i1l2369:
  5713                           
  5714                           ;main.c: 354:         {;main.c: 355:             IOCAFbits.IOCAF1 = 0;
  5715     001A  1093               	bcf	19,1	;volatile
  5716     001B                     i1l2371:
  5717                           
  5718                           ;main.c: 356:             counterB++;
  5719     001B  3001               	movlw	1
  5720     001C  0020               	movlb	0	; select bank0
  5721     001D  07ED               	addwf	_counterB,f	;volatile
  5722     001E  3000               	movlw	0
  5723     001F  3DEE               	addwfc	_counterB+1,f	;volatile
  5724     0020                     i1l108:
  5725     0020  107E               	bcf	int$flags,0	;clear compiler interrupt flag (level 1)
  5726     0021  0009               	retfie
  5727     0022                     __end_of_isr:
  5728     007E                     btemp	set	126	;btemp
  5729     007E                     int$flags	set	126
  5730     007E                     wtemp0	set	126
  5731                           
  5732                           	psect	config
  5733                           
  5734                           ;Config register CONFIG1 @ 0x8007
  5735                           ;	Oscillator Selection Bits
  5736                           ;	FOSC = INTOSC, INTOSC oscillator: I/O function on CLKIN pin
  5737                           ;	Watchdog Timer Enable
  5738                           ;	WDTE = OFF, WDT disabled
  5739                           ;	Power-up Timer Enable
  5740                           ;	PWRTE = OFF, PWRT disabled
  5741                           ;	MCLR Pin Function Select
  5742                           ;	MCLRE = OFF, MCLR/VPP pin function is digital input if LVP bit is also 0.
  5743                           ;	Flash Program Memory Code Protection
  5744                           ;	CP = OFF, Program memory code protection is disabled
  5745                           ;	Brown-out Reset Enable
  5746                           ;	BOREN = OFF, Brown-out Reset disabled
  5747                           ;	Clock Out Enable
  5748                           ;	CLKOUTEN = OFF, CLKOUT function is disabled. I/O or oscillator function on the CLKOUT 
      +                          pin
  5749                           ;	Internal/External Switchover Mode
  5750                           ;	IESO = ON, Internal/External Switchover Mode is enabled
  5751                           ;	Fail-Safe Clock Monitor Enable
  5752                           ;	FCMEN = OFF, Fail-Safe Clock Monitor is disabled
  5753     8007                     	org	32775
  5754     8007  19A4               	dw	6564
  5755                           
  5756                           ;Config register CONFIG2 @ 0x8008
  5757                           ;	Flash Memory Self-Write Protection
  5758                           ;	WRT = OFF, Write protection off
  5759                           ;	Peripheral Pin Select one-way control
  5760                           ;	PPS1WAY = ON, The PPSLOCK bit cannot be cleared once it is set by software
  5761                           ;	Zero-cross detect disable
  5762                           ;	ZCDDIS = ON, ZCD disabled. ZCD can be enabled by setting the ZCDSEN bit of ZCDCON
  5763                           ;	Phase Lock Loop enable
  5764                           ;	PLLEN = OFF, 4x PLL is disabled
  5765                           ;	Stack Overflow/Underflow Reset Enable
  5766                           ;	STVREN = ON, Stack Overflow or Underflow will cause a Reset
  5767                           ;	Brown-out Reset Voltage Selection
  5768                           ;	BORV = LO, Brown-out Reset Voltage (Vbor), low trip point selected.
  5769                           ;	Low-Power Brown Out Reset
  5770                           ;	LPBOR = OFF, Low-Power BOR is disabled
  5771                           ;	In-Circuit Debugger Mode
  5772                           ;	DEBUG = 0x1, unprogrammed default
  5773                           ;	Low-Voltage Programming Enable
  5774                           ;	LVP = OFF, High-voltage on MCLR/VPP must be used for programming
  5775     8008                     	org	32776
  5776     8008  1EFF               	dw	7935

Data Sizes:
    Strings     0
    Constant    12
    Data        0
    BSS         4
    Persistent  32
    Stack       0

Auto Spaces:
    Space          Size  Autos    Used
    COMMON           14     14      14
    BANK0            80     77      79
    BANK1            80     36      38
    BANK2            80      0       0
    BANK3            80      0       0
    BANK4            80      0       0
    BANK5            80      0       0
    BANK6            80      0       0
    BANK7            80      0       0
    BANK8            80      0       0
    BANK9            80      0       0
    BANK10           80      0       0
    BANK11           80      0       0
    BANK12           80      0       0
    BANK13           80      0       0
    BANK14           80      0       0
    BANK15           80      0       0
    BANK16           80      0       0
    BANK17           80      0       0
    BANK18           80      0       0
    BANK19           80      0       0
    BANK20           80      0       0
    BANK21           80      0       0
    BANK22           80      0       0
    BANK23           80      0       0
    BANK24           80      0       0
    BANK25           32      0       0

Pointer List with Targets:

    None.

Critical Paths under _main in COMMON

    _main->___flmul
    _main->___xxtofl
    _motorTurnRight->___fltol
    ___fladd->___flmul
    ___flmul->__Umul8_16
    _EUSART_Initialize->___aldiv

Critical Paths under _isr in COMMON

    None.

Critical Paths under _main in BANK0

    _main->___fldiv
    ___flsub->___fladd
    ___fladd->___flmul
    ___fldiv->___flsub
    _EUSART_Initialize->___aldiv

Critical Paths under _isr in BANK0

    None.

Critical Paths under _main in BANK1

    None.

Critical Paths under _isr in BANK1

    None.

Critical Paths under _main in BANK2

    None.

Critical Paths under _isr in BANK2

    None.

Critical Paths under _main in BANK3

    None.

Critical Paths under _isr in BANK3

    None.

Critical Paths under _main in BANK4

    None.

Critical Paths under _isr in BANK4

    None.

Critical Paths under _main in BANK5

    None.

Critical Paths under _isr in BANK5

    None.

Critical Paths under _main in BANK6

    None.

Critical Paths under _isr in BANK6

    None.

Critical Paths under _main in BANK7

    None.

Critical Paths under _isr in BANK7

    None.

Critical Paths under _main in BANK8

    None.

Critical Paths under _isr in BANK8

    None.

Critical Paths under _main in BANK9

    None.

Critical Paths under _isr in BANK9

    None.

Critical Paths under _main in BANK10

    None.

Critical Paths under _isr in BANK10

    None.

Critical Paths under _main in BANK11

    None.

Critical Paths under _isr in BANK11

    None.

Critical Paths under _main in BANK12

    None.

Critical Paths under _isr in BANK12

    None.

Critical Paths under _main in BANK13

    None.

Critical Paths under _isr in BANK13

    None.

Critical Paths under _main in BANK14

    None.

Critical Paths under _isr in BANK14

    None.

Critical Paths under _main in BANK15

    None.

Critical Paths under _isr in BANK15

    None.

Critical Paths under _main in BANK16

    None.

Critical Paths under _isr in BANK16

    None.

Critical Paths under _main in BANK17

    None.

Critical Paths under _isr in BANK17

    None.

Critical Paths under _main in BANK18

    None.

Critical Paths under _isr in BANK18

    None.

Critical Paths under _main in BANK19

    None.

Critical Paths under _isr in BANK19

    None.

Critical Paths under _main in BANK20

    None.

Critical Paths under _isr in BANK20

    None.

Critical Paths under _main in BANK21

    None.

Critical Paths under _isr in BANK21

    None.

Critical Paths under _main in BANK22

    None.

Critical Paths under _isr in BANK22

    None.

Critical Paths under _main in BANK23

    None.

Critical Paths under _isr in BANK23

    None.

Critical Paths under _main in BANK24

    None.

Critical Paths under _isr in BANK24

    None.

Critical Paths under _main in BANK25

    None.

Critical Paths under _isr in BANK25

    None.

Call Graph Tables:

 ---------------------------------------------------------------------------------
 (Depth) Function   	        Calls       Base Space   Used Autos Params    Refs
 ---------------------------------------------------------------------------------
 (0) _main                                                38    38      0   11898
                                             75 BANK0      2     2      0
                                              0 BANK1     36    36      0
                  _EUSART_Initialize
                            ___fladd
                            ___fldiv
                            ___flmul
                            ___flsub
                            ___fltol
                           ___xxtofl
                           _initMain
                     _motorTurnRight
 ---------------------------------------------------------------------------------
 (1) _motorTurnRight                                       2     0      2     598
                                             10 COMMON     2     0      2
                            ___fltol (ARG)
                         _leftEnable
                        _leftPWMDuty
                        _rightEnable
                       _rightPWMDuty
 ---------------------------------------------------------------------------------
 (2) _rightPWMDuty                                         2     0      2     250
                                              0 COMMON     2     0      2
 ---------------------------------------------------------------------------------
 (2) _rightEnable                                          0     0      0       0
 ---------------------------------------------------------------------------------
 (2) _leftPWMDuty                                          2     0      2     250
                                              0 COMMON     2     0      2
 ---------------------------------------------------------------------------------
 (2) _leftEnable                                           0     0      0       0
 ---------------------------------------------------------------------------------
 (1) _initMain                                             2     2      0       0
                                              0 COMMON     2     2      0
                        _internal_32
 ---------------------------------------------------------------------------------
 (2) _internal_32                                          0     0      0       0
 ---------------------------------------------------------------------------------
 (1) ___xxtofl                                            14    10      4     398
                                              0 COMMON    14    10      4
 ---------------------------------------------------------------------------------
 (1) ___fltol                                             10     6      4     305
                                              0 COMMON    10     6      4
 ---------------------------------------------------------------------------------
 (1) ___flsub                                              8     0      8    2941
                                             41 BANK0      8     0      8
                            ___fladd
 ---------------------------------------------------------------------------------
 (2) ___fladd                                             20    12      8    2592
                                             21 BANK0     20    12      8
                            ___flmul (ARG)
 ---------------------------------------------------------------------------------
 (1) ___flmul                                             26    18      8    2873
                                              9 COMMON     5     5      0
                                              0 BANK0     21    13      8
                          __Umul8_16
 ---------------------------------------------------------------------------------
 (2) __Umul8_16                                            9     7      2     799
                                              0 COMMON     9     7      2
 ---------------------------------------------------------------------------------
 (1) ___fldiv                                             26    18      8    1273
                                             49 BANK0     26    18      8
                            ___flsub (ARG)
 ---------------------------------------------------------------------------------
 (1) _EUSART_Initialize                                   18    14      4     595
                                              9 COMMON     2     2      0
                                              6 BANK0     16    12      4
                            ___aldiv
 ---------------------------------------------------------------------------------
 (2) ___aldiv                                             15     7      8     452
                                              0 COMMON     9     1      8
                                              0 BANK0      6     6      0
 ---------------------------------------------------------------------------------
 Estimated maximum stack depth 2
 ---------------------------------------------------------------------------------
 (Depth) Function   	        Calls       Base Space   Used Autos Params    Refs
 ---------------------------------------------------------------------------------
 (3) _isr                                                  0     0      0       0
 ---------------------------------------------------------------------------------
 Estimated maximum stack depth 3
 ---------------------------------------------------------------------------------

 Call Graph Graphs:

 _main (ROOT)
   _EUSART_Initialize
     ___aldiv
   ___fladd
     ___flmul (ARG)
       __Umul8_16
   ___fldiv
     ___flsub (ARG)
       ___fladd
   ___flmul
   ___flsub
   ___fltol
   ___xxtofl
   _initMain
     _internal_32
   _motorTurnRight
     ___fltol (ARG)
     _leftEnable (ARG)
     _leftPWMDuty (ARG)
     _rightEnable (ARG)
     _rightPWMDuty (ARG)

 _isr (ROOT)

 Address spaces:
Name               Size   Autos  Total    Cost      Usage
BIGRAM             7F0      0       0       0        0.0%
NULL                 0      0       0       0        0.0%
CODE                 0      0       0       0        0.0%
BITCOMMON            E      0       0       1        0.0%
BITSFR0              0      0       0       1        0.0%
SFR0                 0      0       0       1        0.0%
COMMON               E      E       E       2      100.0%
BITSFR1              0      0       0       2        0.0%
SFR1                 0      0       0       2        0.0%
BITSFR2              0      0       0       3        0.0%
SFR2                 0      0       0       3        0.0%
STACK                0      0       0       3        0.0%
BITBANK0            50      0       0       4        0.0%
BITSFR3              0      0       0       4        0.0%
SFR3                 0      0       0       4        0.0%
BANK0               50     4D      4F       5       98.8%
BITSFR4              0      0       0       5        0.0%
SFR4                 0      0       0       5        0.0%
BITBANK1            50      0       0       6        0.0%
BITSFR5              0      0       0       6        0.0%
SFR5                 0      0       0       6        0.0%
BANK1               50     24      26       7       47.5%
BITSFR6              0      0       0       7        0.0%
SFR6                 0      0       0       7        0.0%
BITBANK2            50      0       0       8        0.0%
BITSFR7              0      0       0       8        0.0%
SFR7                 0      0       0       8        0.0%
BANK2               50      0       0       9        0.0%
BITSFR8              0      0       0       9        0.0%
SFR8                 0      0       0       9        0.0%
BITBANK3            50      0       0      10        0.0%
BITSFR9              0      0       0      10        0.0%
SFR9                 0      0       0      10        0.0%
BANK3               50      0       0      11        0.0%
BITSFR10             0      0       0      11        0.0%
SFR10                0      0       0      11        0.0%
BITBANK4            50      0       0      12        0.0%
BITSFR11             0      0       0      12        0.0%
SFR11                0      0       0      12        0.0%
BANK4               50      0       0      13        0.0%
BITSFR12             0      0       0      13        0.0%
SFR12                0      0       0      13        0.0%
BITSFR13             0      0       0      14        0.0%
SFR13                0      0       0      14        0.0%
ABS                  0      0      83      14        0.0%
BITBANK5            50      0       0      15        0.0%
BITSFR14             0      0       0      15        0.0%
SFR14                0      0       0      15        0.0%
BANK5               50      0       0      16        0.0%
BITSFR15             0      0       0      16        0.0%
SFR15                0      0       0      16        0.0%
BITBANK6            50      0       0      17        0.0%
BITSFR16             0      0       0      17        0.0%
SFR16                0      0       0      17        0.0%
BANK6               50      0       0      18        0.0%
BITSFR17             0      0       0      18        0.0%
SFR17                0      0       0      18        0.0%
BITBANK7            50      0       0      19        0.0%
BITSFR18             0      0       0      19        0.0%
SFR18                0      0       0      19        0.0%
BANK7               50      0       0      20        0.0%
BITSFR19             0      0       0      20        0.0%
SFR19                0      0       0      20        0.0%
BITBANK8            50      0       0      21        0.0%
BITSFR20             0      0       0      21        0.0%
SFR20                0      0       0      21        0.0%
BANK8               50      0       0      22        0.0%
BITSFR21             0      0       0      22        0.0%
SFR21                0      0       0      22        0.0%
BITBANK9            50      0       0      23        0.0%
BITSFR22             0      0       0      23        0.0%
SFR22                0      0       0      23        0.0%
BANK9               50      0       0      24        0.0%
BITSFR23             0      0       0      24        0.0%
SFR23                0      0       0      24        0.0%
BITBANK10           50      0       0      25        0.0%
BITSFR24             0      0       0      25        0.0%
SFR24                0      0       0      25        0.0%
BANK10              50      0       0      26        0.0%
BITSFR25             0      0       0      26        0.0%
SFR25                0      0       0      26        0.0%
BITBANK11           50      0       0      27        0.0%
BITSFR26             0      0       0      27        0.0%
SFR26                0      0       0      27        0.0%
BITSFR27             0      0       0      28        0.0%
SFR27                0      0       0      28        0.0%
DATA                 0      0      83      28        0.0%
BANK11              50      0       0      29        0.0%
BITSFR28             0      0       0      29        0.0%
SFR28                0      0       0      29        0.0%
BITBANK12           50      0       0      30        0.0%
BITSFR29             0      0       0      30        0.0%
SFR29                0      0       0      30        0.0%
BANK12              50      0       0      31        0.0%
BITSFR30             0      0       0      31        0.0%
SFR30                0      0       0      31        0.0%
BITBANK13           50      0       0      32        0.0%
BITSFR31             0      0       0      32        0.0%
SFR31                0      0       0      32        0.0%
BANK13              50      0       0      33        0.0%
BITBANK14           50      0       0      34        0.0%
BANK14              50      0       0      35        0.0%
BITBANK15           50      0       0      36        0.0%
BANK15              50      0       0      37        0.0%
BITBANK16           50      0       0      38        0.0%
BANK16              50      0       0      39        0.0%
BITBANK17           50      0       0      40        0.0%
BANK17              50      0       0      41        0.0%
BITBANK18           50      0       0      42        0.0%
BANK18              50      0       0      43        0.0%
BITBANK19           50      0       0      44        0.0%
BANK19              50      0       0      45        0.0%
BITBANK20           50      0       0      46        0.0%
BANK20              50      0       0      47        0.0%
BITBANK21           50      0       0      48        0.0%
BANK21              50      0       0      49        0.0%
BITBANK22           50      0       0      50        0.0%
BANK22              50      0       0      51        0.0%
BITBANK23           50      0       0      52        0.0%
BANK23              50      0       0      53        0.0%
BITBANK24           50      0       0      54        0.0%
BANK24              50      0       0      55        0.0%
BITBANK25           20      0       0      56        0.0%
BANK25              20      0       0      57        0.0%


Microchip Technology PIC Macro Assembler V2.45 build 20230818022343 
Symbol Table                                                                                   Tue Feb 27 22:56:45 2024

             ___fldiv@aexp 006A               ___fldiv@bexp 0069               ___fldiv@sign 0062  
                       l62 0D31                         l74 07FC                         l59 07F8  
                       l83 0D52                         l68 07FF                         l77 0D35  
             ?_leftPWMDuty 0070        __Umul8_16@word_mpld 0076                        l133 0DE5  
                      l342 071B                        l191 0D3E                        l352 0797  
                      l603 03EE                        l620 0469                        l612 0447  
                      l621 0470                        l471 0E55                        l624 0D72  
                      l720 0707                        l609 0410                        l481 0E55  
                      l650 0F85                        l634 0EA7                        l731 06D3  
                      l636 0FFF                        l732 06DF                        l724 06B9  
                      l582 033C                        l478 0E40                        l718 0680  
                      l655 0FD1                        l591 0470                        l656 0FEB  
                      l680 01E8                        l584 031A                        l658 0FF8  
                      l674 0268                        l578 02BF                        l693 0D85  
                      l686 025C                        l695 0D95                        l599 03CC  
                      _PR6 041D                        _isr 0004                        wreg 0009  
             ___flmul@aexp 002D               ___flmul@bexp 002E               ___flmul@sign 0028  
             ___flmul@temp 0033               ___flmul@prod 002F               ___fltol@exp1 0079  
                     l2001 0E6B                       l2011 0E83                       l2003 0E73  
                     l2101 0F8F                       l2021 0E94                       l2013 0E85  
                     l2005 0E74                       l2111 0FC4                       l2103 0F97  
                     l2031 0EBB                       l2023 0E9C                       l2015 0E89  
                     l2007 0E76                       l2121 0FF2                       l2113 0FDF  
                     l2105 0F9B                       l2033 0EBF                       l2025 0E9D  
                     l2017 0E8A                       l2009 0E7E                       l2201 0143  
                     l2123 0FF4                       l2115 0FE2                       l2107 0FB3  
                     l2051 0EFE                       l2043 0ED6                       l2019 0E8F  
                     l2027 0E9F                       l2211 019E                       l2203 0155  
                     l2131 0032                       l2117 0FEA                       l2109 0FB7  
                     l2061 0F18                       l2053 0F00                       l2045 0EE6  
                     l2029 0EAF                       l2037 0EC8                       l2221 01BD  
                     l2213 01A5                       l2205 0160                       l2141 0043  
                     l2133 0034                       l2301 06E1                       l2119 0FEE  
                     l2055 0F05                       l2063 0F1F                       l2071 0F3E  
                     l2047 0EEE                       l2039 0ECD                       l2231 01D1  
                     l2223 01C4                       l2215 01B1                       l2207 0172  
                     l2151 005C                       l2143 004B                       l2135 0038  
                     l2303 06F5                       l1601 0708                       l2081 0F59  
                     l2073 0F44                       l2065 0F31                       l2057 0F13  
                     l2049 0EF6                       l2241 01FA                       l2233 01E5  
                     l2217 01B8                       l2225 01C8                       l2209 0187  
                     l2161 0073                       l2153 0060                       l2145 004D  
                     l2137 0039                       l2129 002E                       l2305 06FA  
                     l1611 072E                       l1603 070A                       l2091 0F6A  
                     l2083 0F5A                       l2075 0F4C                       l2067 0F32  
                     l2059 0F17                       l2251 0231                       l2243 01FE  
                     l2227 01CC                       l2219 01BC                       l2163 0075  
                     l2155 0061                       l2147 0055                       l2139 003E  
                     l2307 06FE                       l2331 0489                       l1621 0750  
                     l1613 0736                       l1605 070E                       l2093 0F6E  
                     l2085 0F61                       l2077 0F4E                       l2069 0F3A  
                     l2261 0259                       l2253 023F                       l2245 0216  
                     l2237 01ED                       l2229 01CD                       l2181 00CD  
                     l2173 0090                       l2165 007D                       l2157 0066  
                     l2149 005A                       l1701 02D9                       l2309 06FF  
                     l2341 0499                       l2333 0489                       l2325 0471  
                     l1631 0779                       l1623 0757                       l1615 073E  
                     l1607 071F                       l2095 0F82                       l2079 0F55  
                     l2087 0F65                       l2263 025A                       l2255 0248  
                     l2239 01F2                       l2247 021A                       l2191 0111  
                     l2183 00E5                       l2175 009B                       l2167 0082  
                     l2159 006B                       l1711 02E3                       l1703 02DB  
                     l2271 0664                       l2351 0545                       l2343 04A1  
                     l2335 0491                       l2327 0480                       l1625 0769  
                     l1617 0741                       l1633 077F                       l1609 072A  
                     l2089 0F69                       l2265 0260                       l2257 024A  
                     l2249 0227                       l2193 0118                       l2185 00F2  
                     l2177 00A8                       l2169 0087                       l1801 0407  
                     l1721 02EC                       l1713 02E5                       l1705 02DD  
                     l1641 0269                       l2281 0691                       l2273 0668  
                     l2353 0593                       l2345 04AE                       l2337 0491  
                     l2329 0489                       l1635 0784                       l1627 0771  
                     l1619 074C                       l2099 0F8A                       l2259 0255  
                     l2195 0123                       l2187 00FF                       l2179 00C0  
                     l1811 0422                       l1803 040D                       l1731 0328  
                     l1723 0303                       l1715 02E7                       l1707 02DF  
                     l1651 0279                       l1643 026D                       l2291 06B2  
                     l2283 0694                       l2275 0678                       l2355 05EF  
                     l2347 04C5                       l2339 0499                       l1637 078F  
                     l1629 0772                       l2197 012A                       l2189 0106  
                     l1821 0459                       l1813 0426                       l1741 0345  
                     l1733 0329                       l1725 031E                       l1717 02E9  
                     l1709 02E1                       l1661 0291                       l1653 027E  
                     l1645 026F                       l2293 06C0                       l2285 069F  
                     l2277 0688                       l2269 065F                       l1901 07DA  
                     l2357 0637                       l2349 04F7                       l2199 013C  
                     l1831 046B                       l1823 045E                       l1815 0443  
                     l1807 0415                       l1751 035E                       l1735 0331  
                     l1727 0322                       l1719 02EB                       l1671 02A1  
                     l1663 0294                       l1655 0286                       l1647 0273  
                     l2295 06C9                       l2287 06A6                       l1591 0D36  
                     l1911 07E6                       l1903 07DB                       l1841 0D81  
                     l1833 046F                       l1825 045F                       l1817 044C  
                     l1809 041A                       l1761 0371                       l1753 0362  
                     l1745 034E                       l1729 0324                       l1737 0335  
                     l1681 02B5                       l1673 02A2                       l1665 029A  
                     l1657 0287                       l1649 0274                       l2297 06CD  
                     l2289 06AA                       l1921 07F7                       l1913 07EA  
                     l1905 07DE                       l1593 0D2F                       l1931 0DDC  
                     l1843 0D8C                       l1835 0D74                       l1827 0463  
                     l1819 0451                       l1771 03BB                       l1755 0364  
                     l1747 0356                       l1739 0340                       l1763 0376  
                     l1691 02CF                       l1675 02A7                       l1683 02B7  
                     l1667 029B                       l1659 0289                       l2299 06D7  
                     l1915 07EE                       l1907 07E0                       l1851 079B  
                     l1595 07FD                       l1923 0D3F                       l1941 0DE3  
                     l1933 0DDF                       l1845 0D91                       l1837 0D76  
                     l1829 0465                       l1781 03E2                       l1765 038C  
                     l1773 03C4                       l1757 0368                       l1749 035A  
                     l1693 02D1                       l1685 02C5                       l1677 02AC  
                     l1669 029D                       l1917 07F3                       l1909 07E1  
                     l1861 07AD                       l1853 07A7                       l1597 07F9  
                     l1925 0D45                       l1943 0DE4                       l1935 0DE0  
                     l1839 0D7D                       l1791 03F7                       l1783 03E9  
                     l1775 03D4                       l1767 03B0                       l1759 0369  
                     l1695 02D3                       l1687 02C9                       l1679 02B4  
                     l1919 07F5                       l1871 07BC                       l1863 07AF  
                     l1855 07A9                       l1599 0D32                       l1927 0D4C  
                     l1937 0DE1                       l1929 0D96                       l1793 03FC  
                     l1785 03ED                       l1777 03D9                       l1769 03B6  
                     l1697 02D5                       l1689 02CD                       l1961 0E14  
                     l1953 0DF8                       l1881 07C8                       l1873 07BD  
                     l1865 07B0                       l1857 07AA                       l1849 0798  
                     l1939 0DE2                       l1787 03F2                       l1795 03FE  
                     l1699 02D7                       l1963 0E18                       l1971 0E30  
                     l1955 0E09                       l1947 0DE6                       l1891 07D3  
                     l1883 07CC                       l1875 07BF                       l1867 07B5  
                     l1859 07AB                       l1789 03F5                       l1797 0402  
                     l1981 0E4A                       l1957 0E0A                       l1949 0DEF  
                     l1893 07D5                       l1885 07CE                       l1877 07C2  
                     l1869 07B9                       l1991 0E5A                       l1799 0403  
                     l1983 0D53                       l1959 0E12                       l1895 07D6  
                     l1887 07D0                       l1879 07C6                       l1993 0E5C  
                     l1985 0D56                       l1977 0E37                       l1969 0E20  
                     l1897 07D8                       l1889 07D2                       l1995 0E60  
                     l1979 0E45                       l1899 07D9                       l1997 0E61  
                     l1989 0E56                       l1999 0E66                       ?_isr 0070  
                     _BRGH 0CF2                       _CREN 0CEC                       u2000 045E  
                     u2001 045D                       u2010 0463                       u2011 0462  
                     u2020 046F                       u2100 0E18                       u2021 046E  
                     u2101 0E17                       u2030 0D81                       u2110 0E1F  
                     u2031 0D80                       u2111 0E1E                       u2200 0E6B  
                     u2201 0E6A                       u2210 0E89                       u2050 0D91  
                     u2130 0E2F                       u2211 0E88                       u2051 0D90  
                     u2131 0E2E                       u1500 070E                       u2060 0DA4  
                     u2220 0E8F                       u2140 0E36                       u1501 070D  
                     u2221 0E8E                       u2045 0D86                       u2141 0E35  
                     u2125 0E21                       u1510 071F                       u2070 0DBB  
                     u2310 0F31                       u2230 0E94                       u1511 071E  
                     u2311 0F30                       u2231 0E93                       u1520 073E  
                     u2400 0F89                       u2320 0F44                       u2240 0EAF  
                     u1600 0273                       u2160 0E45                       u2080 0DEF  
                     u1521 073D                       u2065 0DA0                       u2401 0F88  
                     u2321 0F43                       u2305 0F19                       u2241 0EAE  
                     u1601 0272                       u2161 0E44                       u2081 0DEE  
                     u2410 0F8F                       u2330 0F4C                       u2250 0ECD  
                     u1610 0279                       u2170 0E4A                       u2090 0E05  
                     u2075 0DB7                       u2411 0F8E                       u2331 0F4B  
                     u2315 0F2D                       u2251 0ECC                       u1611 0278  
                     u2171 0E49                       u2155 0E38                       u1540 0750  
                     u2420 0F9B                       u2260 0F05                       u2180 0E60  
                     u2500 0060                       u1700 030D                       u1620 027E  
                     u1541 074F                       u2421 0F9A                       u2261 0F04  
                     u2181 0E5F                       u2501 005F                       u1701 030B  
                     u1621 027D                       u2430 0FA9                       u2350 0F59  
                     u2190 0E66                       u2510 0066                       u1710 030E  
                     u1630 029A                       u1535 0742                       u2351 0F58  
                     u2191 0E65                       u2511 0065                       u1631 0299  
                     u2095 0E01                       u1560 0769                       u2440 0FC4  
                     u2520 006B                       u1800 0368                       u1720 031E  
                     u1640 02A1                       u1561 0768                       u2441 0FC3  
                     u2345 0F4F                       u2521 006A                       u1801 0367  
                     u1721 031D                       u1641 02A0                       u2450 0FDF  
                     u2370 0F69                       u2290 0F17                       u2610 01BC  
                     u2530 0082                       u1730 0328                       u1650 02A7  
                     u1555 0751                       u2451 0FDE                       u2435 0FA5  
                     u2371 0F68                       u2291 0F16                       u2275 0F06  
                     u2611 01BB                       u2531 0081                       u1731 0327  
                     u1651 02A6                       u1580 077F                       u2460 0FF2  
                     u2380 0F6E                       u2700 0227                       u2540 0087  
                     u1900 0402                       u1820 038C                       u1660 02AC  
                     u1581 077E                       u1565 0765                       u2461 0FF1  
                     u2445 0FC0                       u2381 0F6D                       u2365 0F5B  
                     u2285 0F0D                       u2701 0226                       u2605 01B2  
                     u2541 0086                       u1901 0401                       u1821 038B  
                     u1661 02AB                       u1590 0784                       u2390 0F82  
                     u2710 023F                       u2630 01CC                       u2470 0038  
                     u1910 0407                       u1830 03BB                       u1750 033C  
                     u1670 02C5                       u1591 0783                       u1575 0773  
                     u2455 0FDB                       u2391 0F81                       u2711 023E  
                     u2631 01CB                       u2471 0037                       u1911 0406  
                     u1831 03BA                       u1823 0388                       u1815 036B  
                     u1751 033B                       u1671 02C4                       u2720 0259  
                     u2640 01D1                       u2480 003E                       u1920 040D  
                     u1840 03D4                       u1760 0340                       u1680 02C9  
                     u2721 0258                       u2705 0223                       u2641 01D0  
                     u2625 01BE                       u2481 003D                       u1921 040C  
                     u1841 03D3                       u1761 033F                       u1745 032B  
                     u1681 02C8                       u2650 01E5                       u2570 017D  
                     u2490 0043                       u1930 0414                       u1850 03D9  
                     u1770 0345                       u1690 0303                       u2810 06CD  
                     u2730 0664                       u2715 023B                       u2651 01E4  
                     u2555 0100                       u2491 0042                       u1931 0413  
                     u1851 03D8                       u1771 0344                       u1691 0302  
                     u2811 06CC                       u2731 0663                       u2660 01EC  
                     u2580 0194                       u1940 041A                       u1780 035A  
                     u2820 06D3                       u2740 0668                       u2661 01EB  
                     u2565 012B                       u1941 0419                       u1781 0359  
                     u2821 06D2                       u2805 06C3                       u2741 0667  
                     u2670 01F2                       u1950 0426                       u1870 03ED  
                     u1790 035E                       u2830 06D7                       u2750 0688  
                     u2671 01F1                       u2575 0179                       u1951 0425  
                     u1871 03EC                       u1791 035D                       u1695 02FF  
                     u2831 06D6                       u2751 0687                       u2680 01FE  
                     u1960 0434                       u1880 03F2                       u2840 06EB  
                     u2681 01FD                       u2585 0190                       u1881 03F1  
                     u1865 03E3                       u2690 020C                       u1970 0443  
                     u1890 03FC                       u2850 06FA                       u2770 06A5  
                     u2595 019F                       u1971 0442                       u1891 03FB  
                     u2851 06F9                       u2771 06A4                       u2907 04A7  
                     u1980 044C                       u2860 06FE                       u1981 044B  
                     u1965 0430                       u2861 06FD                       u2845 06E7  
                     u2765 0699                       u2917 0656                       u1990 0451  
                     u2790 06BF                       u2695 0208                       u1991 0450  
                     u2791 06BE                       u2927 07A0                       u2785 06B3  
                     _SCS0 04C8                       _SCS1 04C9                       _SPEN 0CEF  
                     _TXEN 0CF5                       _SYNC 0CF4                       _main 0471  
                     btemp 007E                       start 0022            ___fldiv@new_exp 0063  
                    ??_isr 0070              ___fltol@sign1 0078            __end_of___aldiv 0798  
          __end_of___fladd 0471                      ?_main 0070            __end_of___fldiv 1000  
                    _BRG16 0CFB            __end_of___flmul 0269            __end_of___flsub 0D73  
          __end_of___fltol 0E56                      _IRCF0 04CB                      _IRCF1 04CC  
                    _IRCF2 04CD                      _IRCF3 04CE                      i1l108 0020  
             main@integral 00BC               main@setpoint 00A0                      status 0003  
                    wtemp0 007E               ?_internal_32 0070            leftPWMDuty@duty 0070  
          __initialization 0024               __end_of_main 065E                     ??_main 006B  
             ?_rightEnable 0070                     _CCPR1L 0291                     _CCPR2L 0298  
                   _ANSELB 018D                     _RC1REG 0199                     i1l2361 000A  
                   i1l2371 001B                     i1l2363 000F                     i1l2365 0010  
                   i1l2367 0015                     i1l2359 0006                     i1l2369 001A  
                   u287_20 000A                     u287_21 0009                     u288_20 000F  
                   u288_21 000E                     u289_20 001A                     u289_21 0019  
                   _SPBRGL 019B                     _TX1REG 019A                     _SPLLEN 04CF  
         __end_of___xxtofl 0708                  ??___aldiv 0078                  ??___fladd 003D  
                ??___fldiv 0059                  ??___flmul 0079                  ??___flsub 007E  
                ??___fltol 0074           __end_of_initMain 07F9                     main@Kd 1000  
                   main@Ki 1004                     main@Kp 1008                     main@dt 00B8  
             ___xxtofl@arg 007A               ___xxtofl@exp 0079               ___xxtofl@val 0070  
  __end_of__initialization 002A                 ___fltol@f1 0070             __pcstackCOMMON 0070  
               __pbssBANK0 006D                 __pbssBANK1 00C4             main@derivative 00AC  
       main@previous_error 00B0          __end_of__Umul8_16 0D96              ?_rightPWMDuty 0070  
               __pmaintext 0471                 __pintentry 0004                  ?___xxtofl 0070  
                  _PPSLOCK 0E0F                 _leftEnable 0D2F                  ?_initMain 0070  
           ??_rightPWMDuty 0072                    ___aldiv 0708                    ___fladd 0269  
                  ___fldiv 0E56                    ___flmul 002E                    ___flsub 0D53  
                  ___fltol 0DE6                    __ptext1 0D3F                    __ptext2 07F9  
                  __ptext3 07FD                    __ptext4 0D32                    __ptext5 0D2F  
                  __ptext6 0798                    __ptext7 0D36                    __ptext8 065E  
                  __ptext9 0DE6                 ??___xxtofl 0074           ___aldiv@dividend 0074  
                _IOCAFbits 0393                  _IOCANbits 0392                  _T6CONbits 041E  
     end_of_initialization 002A                 ??_initMain 0070          _EUSART_Initialize 0D96  
       ?_EUSART_Initialize 0026           ___aldiv@quotient 0022         EUSART_Initialize@x 0079  
      ??_EUSART_Initialize 002A                ___fladd@grs 0048              ___xxtofl@sign 0078  
                _TRISAbits 008C                  _TRISBbits 008D                  _TRISDbits 008F  
              ___fldiv@grs 0065                ___fldiv@rem 005E                ?_leftEnable 0070  
                _RXPPSbits 0E24                ___flmul@grs 0029  __end_of_EUSART_Initialize 0DE6  
              _CCP1CONbits 0293                _CCP2CONbits 029A                 main@output 00B4  
            ??_leftPWMDuty 0072             __end_ofmain@Kd 1004             __end_ofmain@Ki 1008  
           __end_ofmain@Kp 100C        start_initialization 0024       __end_of_rightPWMDuty 07FD  
              __end_of_isr 0022                _CCPTMRSbits 029E             _motorTurnRight 0D3F  
                __Umul8_16 0D73                  ___fladd@a 0039                  ___fladd@b 0035  
                ___fldiv@a 0051                  ___fldiv@b 0055                  ___flmul@a 0024  
                ___flmul@b 0020                  ___flsub@a 0049                  ___flsub@b 004D  
                ___latbits 0003              __pcstackBANK0 0020              __pcstackBANK1 00A0  
      __end_of_leftPWMDuty 0D36              ??_internal_32 0070                  _main$1116 00A4  
   __end_of_motorTurnRight 0D53                   ?___aldiv 0070                   ?___fladd 0035  
                 ?___fldiv 0051                   ?___flmul 0020                   ?___flsub 0049  
                 ?___fltol 0070   motorTurnRight@motorSpeed 007A                 ?__Umul8_16 0070  
EUSART_Initialize@baudrate 0026              ??_rightEnable 0070            ___aldiv@divisor 0070  
          ___aldiv@counter 0020                   _LATDbits 010F                   _PIR1bits 0011  
          ?_motorTurnRight 007A        __end_of_internal_32 0D3F                _leftPWMDuty 0D32  
                main@error 00C0               ??_leftEnable 0070        __end_of_rightEnable 0800  
             _rightPWMDuty 07F9                ??__Umul8_16 0072           rightPWMDuty@duty 0070  
       __end_of_leftEnable 0D32                 _ANSELAbits 018C                 _ANSELBbits 018D  
                 ___xxtofl 065E                   __ptext10 0D53                   __ptext11 0269  
                 __ptext12 002E                   __ptext13 0D73                   __ptext14 0E56  
                 __ptext15 0D96                   __ptext16 0708                   _counterA 00C4  
                 _counterB 006D                   _initMain 0798                _internal_32 0D36  
               _RB0PPSbits 0E98                 _RB1PPSbits 0E99                 _RB2PPSbits 0E9A  
               _RC1STAbits 019D                   int$flags 007E                 _INTCONbits 000B  
              _rightEnable 07FD                   intlevel1 0000         main@measured_value 00A8  
              _PPSLOCKbits 0E0F              __pstringtext1 1000              __pstringtext2 1004  
            __pstringtext3 1008     __Umul8_16@multiplicand 0070               ___aldiv@sign 0021  
            ___fladd@signs 0045               ___fladd@aexp 0046               ___fladd@bexp 0047  
         ??_motorTurnRight 007C       __Umul8_16@multiplier 0078          __Umul8_16@product 0074  
