

Microchip MPLAB XC8 Assembler V2.45 build 20230818022343 
                                                                                               Fri Nov 24 04:57:05 2023

Microchip MPLAB XC8 C Compiler v2.45 (Free license) build 20230818022343 Og1 
     1                           	processor	16F1719
     2                           	pagewidth 120
     3                           	opt	flic
     4                           	psect	stringtext1,global,class=STRCODE,delta=2,noexec
     5                           	psect	stringtext2,global,class=STRCODE,delta=2,noexec
     6                           	psect	stringtext3,global,class=STRCODE,delta=2,noexec
     7                           	psect	cinit,global,class=CODE,merge=1,delta=2
     8                           	psect	cstackCOMMON,global,class=COMMON,space=1,delta=1,noexec
     9                           	psect	cstackBANK0,global,class=BANK0,space=1,delta=1,noexec
    10                           	psect	maintext,global,class=CODE,merge=1,split=1,delta=2
    11                           	psect	text1,local,class=CODE,merge=1,delta=2
    12                           	psect	text2,local,class=CODE,merge=1,delta=2
    13                           	psect	text3,local,class=CODE,merge=1,delta=2
    14                           	psect	text4,local,class=CODE,merge=1,delta=2
    15                           	psect	text5,local,class=CODE,merge=1,delta=2
    16                           	psect	text6,local,class=CODE,merge=1,delta=2,group=1
    17                           	psect	text7,local,class=CODE,merge=1,delta=2,group=1
    18                           	psect	text8,local,class=CODE,merge=1,delta=2,group=1
    19                           	psect	text9,local,class=CODE,merge=1,delta=2
    20                           	psect	text10,local,class=CODE,merge=1,delta=2
    21                           	psect	text11,local,class=CODE,merge=1,delta=2,group=1
    22                           	psect	config,global,abs,ovrld,class=CONFIG,space=4,delta=2,noexec
    23                           	dabs	1,0x7E,2
    24     0000                     
    25                           ; Generated 06/07/2023 GMT
    26                           ; 
    27                           ; Copyright © 2023, Microchip Technology Inc. and its subsidiaries ("Microchip")
    28                           ; All rights reserved.
    29                           ; 
    30                           ; This software is developed by Microchip Technology Inc. and its subsidiaries ("Microch
      +                          ip").
    31                           ; 
    32                           ; Redistribution and use in source and binary forms, with or without modification, are
    33                           ; permitted provided that the following conditions are met:
    34                           ; 
    35                           ;     1. Redistributions of source code must retain the above copyright notice, this lis
      +                          t of
    36                           ;        conditions and the following disclaimer.
    37                           ; 
    38                           ;     2. Redistributions in binary form must reproduce the above copyright notice, this 
      +                          list
    39                           ;        of conditions and the following disclaimer in the documentation and/or other
    40                           ;        materials provided with the distribution. Publication is not required when
    41                           ;        this file is used in an embedded application.
    42                           ; 
    43                           ;     3. Microchip's name may not be used to endorse or promote products derived from th
      +                          is
    44                           ;        software without specific prior written permission.
    45                           ; 
    46                           ; THIS SOFTWARE IS PROVIDED BY MICROCHIP "AS IS" AND ANY EXPRESS OR IMPLIED WARRANTIES,
    47                           ; INCLUDING, BUT NOT LIMITED TO, THE IMPLIED WARRANTIES OF MERCHANTABILITY AND FITNESS F
      +                          OR
    48                           ; PURPOSE ARE DISCLAIMED.  IN NO EVENT SHALL MICROCHIP BE LIABLE FOR ANY DIRECT, INDIREC
      +                          T,
    49                           ; INCIDENTAL, SPECIAL, EXEMPLARY, OR CONSEQUENTIAL DAMAGES (INCLUDING BUT NOT LIMITED TO
    50                           ; PROCUREMENT OF SUBSTITUTE GOODS OR SERVICES; LOSS OF USE, DATA OR PROFITS; OR BUSINESS
    51                           ; INTERRUPTION) HOWSOEVER CAUSED AND ON ANY THEORY OF LIABILITY, WHETHER IN CONTRACT, ST
      +                          RICT
    52                           ; LIABILITY, OR TORT (INCLUDING NEGLIGENCE OR OTHERWISE) ARISING IN ANY WAY OUT OF THE U
      +                          SE OF
    53                           ; THIS SOFTWARE, EVEN IF ADVISED OF THE POSSIBILITY OF SUCH DAMAGE.
    54                           ; 
    55                           ; 
    56                           ; Code-generator required, PIC16F1719 Definitions
    57                           ; 
    58                           ; SFR Addresses
    59     0000                     	;# 
    60     0001                     	;# 
    61     0002                     	;# 
    62     0003                     	;# 
    63     0004                     	;# 
    64     0005                     	;# 
    65     0006                     	;# 
    66     0007                     	;# 
    67     0008                     	;# 
    68     0009                     	;# 
    69     000A                     	;# 
    70     000B                     	;# 
    71     000C                     	;# 
    72     000D                     	;# 
    73     000E                     	;# 
    74     000F                     	;# 
    75     0010                     	;# 
    76     0011                     	;# 
    77     0012                     	;# 
    78     0013                     	;# 
    79     0015                     	;# 
    80     0016                     	;# 
    81     0016                     	;# 
    82     0017                     	;# 
    83     0018                     	;# 
    84     0019                     	;# 
    85     001A                     	;# 
    86     001B                     	;# 
    87     001C                     	;# 
    88     008C                     	;# 
    89     008D                     	;# 
    90     008E                     	;# 
    91     008F                     	;# 
    92     0090                     	;# 
    93     0091                     	;# 
    94     0092                     	;# 
    95     0093                     	;# 
    96     0095                     	;# 
    97     0096                     	;# 
    98     0097                     	;# 
    99     0098                     	;# 
   100     0099                     	;# 
   101     009A                     	;# 
   102     009B                     	;# 
   103     009B                     	;# 
   104     009C                     	;# 
   105     009D                     	;# 
   106     009E                     	;# 
   107     009F                     	;# 
   108     010C                     	;# 
   109     010D                     	;# 
   110     010E                     	;# 
   111     010F                     	;# 
   112     0110                     	;# 
   113     0111                     	;# 
   114     0112                     	;# 
   115     0113                     	;# 
   116     0114                     	;# 
   117     0115                     	;# 
   118     0116                     	;# 
   119     0117                     	;# 
   120     0118                     	;# 
   121     0119                     	;# 
   122     011A                     	;# 
   123     011B                     	;# 
   124     011B                     	;# 
   125     011C                     	;# 
   126     018C                     	;# 
   127     018D                     	;# 
   128     018E                     	;# 
   129     018F                     	;# 
   130     0190                     	;# 
   131     0191                     	;# 
   132     0191                     	;# 
   133     0192                     	;# 
   134     0193                     	;# 
   135     0193                     	;# 
   136     0194                     	;# 
   137     0195                     	;# 
   138     0196                     	;# 
   139     0197                     	;# 
   140     0199                     	;# 
   141     0199                     	;# 
   142     0199                     	;# 
   143     019A                     	;# 
   144     019A                     	;# 
   145     019A                     	;# 
   146     019B                     	;# 
   147     019B                     	;# 
   148     019B                     	;# 
   149     019B                     	;# 
   150     019B                     	;# 
   151     019C                     	;# 
   152     019C                     	;# 
   153     019C                     	;# 
   154     019D                     	;# 
   155     019D                     	;# 
   156     019D                     	;# 
   157     019E                     	;# 
   158     019E                     	;# 
   159     019E                     	;# 
   160     019F                     	;# 
   161     019F                     	;# 
   162     019F                     	;# 
   163     019F                     	;# 
   164     019F                     	;# 
   165     020C                     	;# 
   166     020D                     	;# 
   167     020E                     	;# 
   168     020F                     	;# 
   169     0210                     	;# 
   170     0211                     	;# 
   171     0211                     	;# 
   172     0212                     	;# 
   173     0212                     	;# 
   174     0213                     	;# 
   175     0213                     	;# 
   176     0214                     	;# 
   177     0214                     	;# 
   178     0215                     	;# 
   179     0215                     	;# 
   180     0215                     	;# 
   181     0215                     	;# 
   182     0216                     	;# 
   183     0216                     	;# 
   184     0217                     	;# 
   185     0217                     	;# 
   186     028C                     	;# 
   187     028D                     	;# 
   188     028E                     	;# 
   189     028F                     	;# 
   190     0290                     	;# 
   191     0291                     	;# 
   192     0291                     	;# 
   193     0292                     	;# 
   194     0293                     	;# 
   195     0293                     	;# 
   196     0298                     	;# 
   197     0298                     	;# 
   198     0299                     	;# 
   199     029A                     	;# 
   200     029A                     	;# 
   201     029E                     	;# 
   202     030C                     	;# 
   203     030D                     	;# 
   204     030E                     	;# 
   205     030F                     	;# 
   206     0310                     	;# 
   207     038C                     	;# 
   208     038D                     	;# 
   209     038E                     	;# 
   210     038F                     	;# 
   211     0390                     	;# 
   212     0391                     	;# 
   213     0392                     	;# 
   214     0393                     	;# 
   215     0394                     	;# 
   216     0395                     	;# 
   217     0396                     	;# 
   218     0397                     	;# 
   219     0398                     	;# 
   220     0399                     	;# 
   221     039D                     	;# 
   222     039E                     	;# 
   223     039F                     	;# 
   224     0415                     	;# 
   225     0416                     	;# 
   226     0417                     	;# 
   227     041C                     	;# 
   228     041D                     	;# 
   229     041E                     	;# 
   230     0498                     	;# 
   231     0498                     	;# 
   232     0499                     	;# 
   233     049A                     	;# 
   234     049B                     	;# 
   235     049B                     	;# 
   236     049C                     	;# 
   237     049D                     	;# 
   238     049E                     	;# 
   239     049F                     	;# 
   240     0511                     	;# 
   241     0515                     	;# 
   242     0617                     	;# 
   243     0618                     	;# 
   244     0619                     	;# 
   245     0619                     	;# 
   246     061A                     	;# 
   247     061B                     	;# 
   248     061C                     	;# 
   249     061C                     	;# 
   250     0691                     	;# 
   251     0692                     	;# 
   252     0693                     	;# 
   253     0694                     	;# 
   254     0695                     	;# 
   255     0696                     	;# 
   256     0697                     	;# 
   257     0698                     	;# 
   258     0699                     	;# 
   259     069A                     	;# 
   260     069B                     	;# 
   261     069C                     	;# 
   262     069D                     	;# 
   263     069E                     	;# 
   264     069F                     	;# 
   265     0E0F                     	;# 
   266     0E10                     	;# 
   267     0E11                     	;# 
   268     0E12                     	;# 
   269     0E13                     	;# 
   270     0E14                     	;# 
   271     0E15                     	;# 
   272     0E17                     	;# 
   273     0E20                     	;# 
   274     0E21                     	;# 
   275     0E22                     	;# 
   276     0E24                     	;# 
   277     0E25                     	;# 
   278     0E28                     	;# 
   279     0E29                     	;# 
   280     0E2A                     	;# 
   281     0E2B                     	;# 
   282     0E90                     	;# 
   283     0E91                     	;# 
   284     0E92                     	;# 
   285     0E93                     	;# 
   286     0E94                     	;# 
   287     0E95                     	;# 
   288     0E96                     	;# 
   289     0E97                     	;# 
   290     0E98                     	;# 
   291     0E99                     	;# 
   292     0E9A                     	;# 
   293     0E9B                     	;# 
   294     0E9C                     	;# 
   295     0E9D                     	;# 
   296     0E9E                     	;# 
   297     0E9F                     	;# 
   298     0EA0                     	;# 
   299     0EA1                     	;# 
   300     0EA2                     	;# 
   301     0EA3                     	;# 
   302     0EA4                     	;# 
   303     0EA5                     	;# 
   304     0EA6                     	;# 
   305     0EA7                     	;# 
   306     0EA8                     	;# 
   307     0EA9                     	;# 
   308     0EAA                     	;# 
   309     0EAB                     	;# 
   310     0EAC                     	;# 
   311     0EAD                     	;# 
   312     0EAE                     	;# 
   313     0EAF                     	;# 
   314     0EB0                     	;# 
   315     0EB1                     	;# 
   316     0EB2                     	;# 
   317     0F0F                     	;# 
   318     0F10                     	;# 
   319     0F11                     	;# 
   320     0F12                     	;# 
   321     0F13                     	;# 
   322     0F14                     	;# 
   323     0F15                     	;# 
   324     0F16                     	;# 
   325     0F17                     	;# 
   326     0F18                     	;# 
   327     0F19                     	;# 
   328     0F1A                     	;# 
   329     0F1B                     	;# 
   330     0F1C                     	;# 
   331     0F1D                     	;# 
   332     0F1E                     	;# 
   333     0F1F                     	;# 
   334     0F20                     	;# 
   335     0F21                     	;# 
   336     0F22                     	;# 
   337     0F23                     	;# 
   338     0F24                     	;# 
   339     0F25                     	;# 
   340     0F26                     	;# 
   341     0F27                     	;# 
   342     0F28                     	;# 
   343     0F29                     	;# 
   344     0F2A                     	;# 
   345     0F2B                     	;# 
   346     0F2C                     	;# 
   347     0F2D                     	;# 
   348     0F2E                     	;# 
   349     0F2F                     	;# 
   350     0F30                     	;# 
   351     0F31                     	;# 
   352     0F32                     	;# 
   353     0F33                     	;# 
   354     0F34                     	;# 
   355     0F35                     	;# 
   356     0F36                     	;# 
   357     0F37                     	;# 
   358     0FE4                     	;# 
   359     0FE5                     	;# 
   360     0FE6                     	;# 
   361     0FE7                     	;# 
   362     0FE8                     	;# 
   363     0FE9                     	;# 
   364     0FEA                     	;# 
   365     0FEB                     	;# 
   366     0FED                     	;# 
   367     0FEE                     	;# 
   368     0FEF                     	;# 
   369     0000                     	;# 
   370     0001                     	;# 
   371     0002                     	;# 
   372     0003                     	;# 
   373     0004                     	;# 
   374     0005                     	;# 
   375     0006                     	;# 
   376     0007                     	;# 
   377     0008                     	;# 
   378     0009                     	;# 
   379     000A                     	;# 
   380     000B                     	;# 
   381     000C                     	;# 
   382     000D                     	;# 
   383     000E                     	;# 
   384     000F                     	;# 
   385     0010                     	;# 
   386     0011                     	;# 
   387     0012                     	;# 
   388     0013                     	;# 
   389     0015                     	;# 
   390     0016                     	;# 
   391     0016                     	;# 
   392     0017                     	;# 
   393     0018                     	;# 
   394     0019                     	;# 
   395     001A                     	;# 
   396     001B                     	;# 
   397     001C                     	;# 
   398     008C                     	;# 
   399     008D                     	;# 
   400     008E                     	;# 
   401     008F                     	;# 
   402     0090                     	;# 
   403     0091                     	;# 
   404     0092                     	;# 
   405     0093                     	;# 
   406     0095                     	;# 
   407     0096                     	;# 
   408     0097                     	;# 
   409     0098                     	;# 
   410     0099                     	;# 
   411     009A                     	;# 
   412     009B                     	;# 
   413     009B                     	;# 
   414     009C                     	;# 
   415     009D                     	;# 
   416     009E                     	;# 
   417     009F                     	;# 
   418     010C                     	;# 
   419     010D                     	;# 
   420     010E                     	;# 
   421     010F                     	;# 
   422     0110                     	;# 
   423     0111                     	;# 
   424     0112                     	;# 
   425     0113                     	;# 
   426     0114                     	;# 
   427     0115                     	;# 
   428     0116                     	;# 
   429     0117                     	;# 
   430     0118                     	;# 
   431     0119                     	;# 
   432     011A                     	;# 
   433     011B                     	;# 
   434     011B                     	;# 
   435     011C                     	;# 
   436     018C                     	;# 
   437     018D                     	;# 
   438     018E                     	;# 
   439     018F                     	;# 
   440     0190                     	;# 
   441     0191                     	;# 
   442     0191                     	;# 
   443     0192                     	;# 
   444     0193                     	;# 
   445     0193                     	;# 
   446     0194                     	;# 
   447     0195                     	;# 
   448     0196                     	;# 
   449     0197                     	;# 
   450     0199                     	;# 
   451     0199                     	;# 
   452     0199                     	;# 
   453     019A                     	;# 
   454     019A                     	;# 
   455     019A                     	;# 
   456     019B                     	;# 
   457     019B                     	;# 
   458     019B                     	;# 
   459     019B                     	;# 
   460     019B                     	;# 
   461     019C                     	;# 
   462     019C                     	;# 
   463     019C                     	;# 
   464     019D                     	;# 
   465     019D                     	;# 
   466     019D                     	;# 
   467     019E                     	;# 
   468     019E                     	;# 
   469     019E                     	;# 
   470     019F                     	;# 
   471     019F                     	;# 
   472     019F                     	;# 
   473     019F                     	;# 
   474     019F                     	;# 
   475     020C                     	;# 
   476     020D                     	;# 
   477     020E                     	;# 
   478     020F                     	;# 
   479     0210                     	;# 
   480     0211                     	;# 
   481     0211                     	;# 
   482     0212                     	;# 
   483     0212                     	;# 
   484     0213                     	;# 
   485     0213                     	;# 
   486     0214                     	;# 
   487     0214                     	;# 
   488     0215                     	;# 
   489     0215                     	;# 
   490     0215                     	;# 
   491     0215                     	;# 
   492     0216                     	;# 
   493     0216                     	;# 
   494     0217                     	;# 
   495     0217                     	;# 
   496     028C                     	;# 
   497     028D                     	;# 
   498     028E                     	;# 
   499     028F                     	;# 
   500     0290                     	;# 
   501     0291                     	;# 
   502     0291                     	;# 
   503     0292                     	;# 
   504     0293                     	;# 
   505     0293                     	;# 
   506     0298                     	;# 
   507     0298                     	;# 
   508     0299                     	;# 
   509     029A                     	;# 
   510     029A                     	;# 
   511     029E                     	;# 
   512     030C                     	;# 
   513     030D                     	;# 
   514     030E                     	;# 
   515     030F                     	;# 
   516     0310                     	;# 
   517     038C                     	;# 
   518     038D                     	;# 
   519     038E                     	;# 
   520     038F                     	;# 
   521     0390                     	;# 
   522     0391                     	;# 
   523     0392                     	;# 
   524     0393                     	;# 
   525     0394                     	;# 
   526     0395                     	;# 
   527     0396                     	;# 
   528     0397                     	;# 
   529     0398                     	;# 
   530     0399                     	;# 
   531     039D                     	;# 
   532     039E                     	;# 
   533     039F                     	;# 
   534     0415                     	;# 
   535     0416                     	;# 
   536     0417                     	;# 
   537     041C                     	;# 
   538     041D                     	;# 
   539     041E                     	;# 
   540     0498                     	;# 
   541     0498                     	;# 
   542     0499                     	;# 
   543     049A                     	;# 
   544     049B                     	;# 
   545     049B                     	;# 
   546     049C                     	;# 
   547     049D                     	;# 
   548     049E                     	;# 
   549     049F                     	;# 
   550     0511                     	;# 
   551     0515                     	;# 
   552     0617                     	;# 
   553     0618                     	;# 
   554     0619                     	;# 
   555     0619                     	;# 
   556     061A                     	;# 
   557     061B                     	;# 
   558     061C                     	;# 
   559     061C                     	;# 
   560     0691                     	;# 
   561     0692                     	;# 
   562     0693                     	;# 
   563     0694                     	;# 
   564     0695                     	;# 
   565     0696                     	;# 
   566     0697                     	;# 
   567     0698                     	;# 
   568     0699                     	;# 
   569     069A                     	;# 
   570     069B                     	;# 
   571     069C                     	;# 
   572     069D                     	;# 
   573     069E                     	;# 
   574     069F                     	;# 
   575     0E0F                     	;# 
   576     0E10                     	;# 
   577     0E11                     	;# 
   578     0E12                     	;# 
   579     0E13                     	;# 
   580     0E14                     	;# 
   581     0E15                     	;# 
   582     0E17                     	;# 
   583     0E20                     	;# 
   584     0E21                     	;# 
   585     0E22                     	;# 
   586     0E24                     	;# 
   587     0E25                     	;# 
   588     0E28                     	;# 
   589     0E29                     	;# 
   590     0E2A                     	;# 
   591     0E2B                     	;# 
   592     0E90                     	;# 
   593     0E91                     	;# 
   594     0E92                     	;# 
   595     0E93                     	;# 
   596     0E94                     	;# 
   597     0E95                     	;# 
   598     0E96                     	;# 
   599     0E97                     	;# 
   600     0E98                     	;# 
   601     0E99                     	;# 
   602     0E9A                     	;# 
   603     0E9B                     	;# 
   604     0E9C                     	;# 
   605     0E9D                     	;# 
   606     0E9E                     	;# 
   607     0E9F                     	;# 
   608     0EA0                     	;# 
   609     0EA1                     	;# 
   610     0EA2                     	;# 
   611     0EA3                     	;# 
   612     0EA4                     	;# 
   613     0EA5                     	;# 
   614     0EA6                     	;# 
   615     0EA7                     	;# 
   616     0EA8                     	;# 
   617     0EA9                     	;# 
   618     0EAA                     	;# 
   619     0EAB                     	;# 
   620     0EAC                     	;# 
   621     0EAD                     	;# 
   622     0EAE                     	;# 
   623     0EAF                     	;# 
   624     0EB0                     	;# 
   625     0EB1                     	;# 
   626     0EB2                     	;# 
   627     0F0F                     	;# 
   628     0F10                     	;# 
   629     0F11                     	;# 
   630     0F12                     	;# 
   631     0F13                     	;# 
   632     0F14                     	;# 
   633     0F15                     	;# 
   634     0F16                     	;# 
   635     0F17                     	;# 
   636     0F18                     	;# 
   637     0F19                     	;# 
   638     0F1A                     	;# 
   639     0F1B                     	;# 
   640     0F1C                     	;# 
   641     0F1D                     	;# 
   642     0F1E                     	;# 
   643     0F1F                     	;# 
   644     0F20                     	;# 
   645     0F21                     	;# 
   646     0F22                     	;# 
   647     0F23                     	;# 
   648     0F24                     	;# 
   649     0F25                     	;# 
   650     0F26                     	;# 
   651     0F27                     	;# 
   652     0F28                     	;# 
   653     0F29                     	;# 
   654     0F2A                     	;# 
   655     0F2B                     	;# 
   656     0F2C                     	;# 
   657     0F2D                     	;# 
   658     0F2E                     	;# 
   659     0F2F                     	;# 
   660     0F30                     	;# 
   661     0F31                     	;# 
   662     0F32                     	;# 
   663     0F33                     	;# 
   664     0F34                     	;# 
   665     0F35                     	;# 
   666     0F36                     	;# 
   667     0F37                     	;# 
   668     0FE4                     	;# 
   669     0FE5                     	;# 
   670     0FE6                     	;# 
   671     0FE7                     	;# 
   672     0FE8                     	;# 
   673     0FE9                     	;# 
   674     0FEA                     	;# 
   675     0FEB                     	;# 
   676     0FED                     	;# 
   677     0FEE                     	;# 
   678     0FEF                     	;# 
   679     0000                     	;# 
   680     0001                     	;# 
   681     0002                     	;# 
   682     0003                     	;# 
   683     0004                     	;# 
   684     0005                     	;# 
   685     0006                     	;# 
   686     0007                     	;# 
   687     0008                     	;# 
   688     0009                     	;# 
   689     000A                     	;# 
   690     000B                     	;# 
   691     000C                     	;# 
   692     000D                     	;# 
   693     000E                     	;# 
   694     000F                     	;# 
   695     0010                     	;# 
   696     0011                     	;# 
   697     0012                     	;# 
   698     0013                     	;# 
   699     0015                     	;# 
   700     0016                     	;# 
   701     0016                     	;# 
   702     0017                     	;# 
   703     0018                     	;# 
   704     0019                     	;# 
   705     001A                     	;# 
   706     001B                     	;# 
   707     001C                     	;# 
   708     008C                     	;# 
   709     008D                     	;# 
   710     008E                     	;# 
   711     008F                     	;# 
   712     0090                     	;# 
   713     0091                     	;# 
   714     0092                     	;# 
   715     0093                     	;# 
   716     0095                     	;# 
   717     0096                     	;# 
   718     0097                     	;# 
   719     0098                     	;# 
   720     0099                     	;# 
   721     009A                     	;# 
   722     009B                     	;# 
   723     009B                     	;# 
   724     009C                     	;# 
   725     009D                     	;# 
   726     009E                     	;# 
   727     009F                     	;# 
   728     010C                     	;# 
   729     010D                     	;# 
   730     010E                     	;# 
   731     010F                     	;# 
   732     0110                     	;# 
   733     0111                     	;# 
   734     0112                     	;# 
   735     0113                     	;# 
   736     0114                     	;# 
   737     0115                     	;# 
   738     0116                     	;# 
   739     0117                     	;# 
   740     0118                     	;# 
   741     0119                     	;# 
   742     011A                     	;# 
   743     011B                     	;# 
   744     011B                     	;# 
   745     011C                     	;# 
   746     018C                     	;# 
   747     018D                     	;# 
   748     018E                     	;# 
   749     018F                     	;# 
   750     0190                     	;# 
   751     0191                     	;# 
   752     0191                     	;# 
   753     0192                     	;# 
   754     0193                     	;# 
   755     0193                     	;# 
   756     0194                     	;# 
   757     0195                     	;# 
   758     0196                     	;# 
   759     0197                     	;# 
   760     0199                     	;# 
   761     0199                     	;# 
   762     0199                     	;# 
   763     019A                     	;# 
   764     019A                     	;# 
   765     019A                     	;# 
   766     019B                     	;# 
   767     019B                     	;# 
   768     019B                     	;# 
   769     019B                     	;# 
   770     019B                     	;# 
   771     019C                     	;# 
   772     019C                     	;# 
   773     019C                     	;# 
   774     019D                     	;# 
   775     019D                     	;# 
   776     019D                     	;# 
   777     019E                     	;# 
   778     019E                     	;# 
   779     019E                     	;# 
   780     019F                     	;# 
   781     019F                     	;# 
   782     019F                     	;# 
   783     019F                     	;# 
   784     019F                     	;# 
   785     020C                     	;# 
   786     020D                     	;# 
   787     020E                     	;# 
   788     020F                     	;# 
   789     0210                     	;# 
   790     0211                     	;# 
   791     0211                     	;# 
   792     0212                     	;# 
   793     0212                     	;# 
   794     0213                     	;# 
   795     0213                     	;# 
   796     0214                     	;# 
   797     0214                     	;# 
   798     0215                     	;# 
   799     0215                     	;# 
   800     0215                     	;# 
   801     0215                     	;# 
   802     0216                     	;# 
   803     0216                     	;# 
   804     0217                     	;# 
   805     0217                     	;# 
   806     028C                     	;# 
   807     028D                     	;# 
   808     028E                     	;# 
   809     028F                     	;# 
   810     0290                     	;# 
   811     0291                     	;# 
   812     0291                     	;# 
   813     0292                     	;# 
   814     0293                     	;# 
   815     0293                     	;# 
   816     0298                     	;# 
   817     0298                     	;# 
   818     0299                     	;# 
   819     029A                     	;# 
   820     029A                     	;# 
   821     029E                     	;# 
   822     030C                     	;# 
   823     030D                     	;# 
   824     030E                     	;# 
   825     030F                     	;# 
   826     0310                     	;# 
   827     038C                     	;# 
   828     038D                     	;# 
   829     038E                     	;# 
   830     038F                     	;# 
   831     0390                     	;# 
   832     0391                     	;# 
   833     0392                     	;# 
   834     0393                     	;# 
   835     0394                     	;# 
   836     0395                     	;# 
   837     0396                     	;# 
   838     0397                     	;# 
   839     0398                     	;# 
   840     0399                     	;# 
   841     039D                     	;# 
   842     039E                     	;# 
   843     039F                     	;# 
   844     0415                     	;# 
   845     0416                     	;# 
   846     0417                     	;# 
   847     041C                     	;# 
   848     041D                     	;# 
   849     041E                     	;# 
   850     0498                     	;# 
   851     0498                     	;# 
   852     0499                     	;# 
   853     049A                     	;# 
   854     049B                     	;# 
   855     049B                     	;# 
   856     049C                     	;# 
   857     049D                     	;# 
   858     049E                     	;# 
   859     049F                     	;# 
   860     0511                     	;# 
   861     0515                     	;# 
   862     0617                     	;# 
   863     0618                     	;# 
   864     0619                     	;# 
   865     0619                     	;# 
   866     061A                     	;# 
   867     061B                     	;# 
   868     061C                     	;# 
   869     061C                     	;# 
   870     0691                     	;# 
   871     0692                     	;# 
   872     0693                     	;# 
   873     0694                     	;# 
   874     0695                     	;# 
   875     0696                     	;# 
   876     0697                     	;# 
   877     0698                     	;# 
   878     0699                     	;# 
   879     069A                     	;# 
   880     069B                     	;# 
   881     069C                     	;# 
   882     069D                     	;# 
   883     069E                     	;# 
   884     069F                     	;# 
   885     0E0F                     	;# 
   886     0E10                     	;# 
   887     0E11                     	;# 
   888     0E12                     	;# 
   889     0E13                     	;# 
   890     0E14                     	;# 
   891     0E15                     	;# 
   892     0E17                     	;# 
   893     0E20                     	;# 
   894     0E21                     	;# 
   895     0E22                     	;# 
   896     0E24                     	;# 
   897     0E25                     	;# 
   898     0E28                     	;# 
   899     0E29                     	;# 
   900     0E2A                     	;# 
   901     0E2B                     	;# 
   902     0E90                     	;# 
   903     0E91                     	;# 
   904     0E92                     	;# 
   905     0E93                     	;# 
   906     0E94                     	;# 
   907     0E95                     	;# 
   908     0E96                     	;# 
   909     0E97                     	;# 
   910     0E98                     	;# 
   911     0E99                     	;# 
   912     0E9A                     	;# 
   913     0E9B                     	;# 
   914     0E9C                     	;# 
   915     0E9D                     	;# 
   916     0E9E                     	;# 
   917     0E9F                     	;# 
   918     0EA0                     	;# 
   919     0EA1                     	;# 
   920     0EA2                     	;# 
   921     0EA3                     	;# 
   922     0EA4                     	;# 
   923     0EA5                     	;# 
   924     0EA6                     	;# 
   925     0EA7                     	;# 
   926     0EA8                     	;# 
   927     0EA9                     	;# 
   928     0EAA                     	;# 
   929     0EAB                     	;# 
   930     0EAC                     	;# 
   931     0EAD                     	;# 
   932     0EAE                     	;# 
   933     0EAF                     	;# 
   934     0EB0                     	;# 
   935     0EB1                     	;# 
   936     0EB2                     	;# 
   937     0F0F                     	;# 
   938     0F10                     	;# 
   939     0F11                     	;# 
   940     0F12                     	;# 
   941     0F13                     	;# 
   942     0F14                     	;# 
   943     0F15                     	;# 
   944     0F16                     	;# 
   945     0F17                     	;# 
   946     0F18                     	;# 
   947     0F19                     	;# 
   948     0F1A                     	;# 
   949     0F1B                     	;# 
   950     0F1C                     	;# 
   951     0F1D                     	;# 
   952     0F1E                     	;# 
   953     0F1F                     	;# 
   954     0F20                     	;# 
   955     0F21                     	;# 
   956     0F22                     	;# 
   957     0F23                     	;# 
   958     0F24                     	;# 
   959     0F25                     	;# 
   960     0F26                     	;# 
   961     0F27                     	;# 
   962     0F28                     	;# 
   963     0F29                     	;# 
   964     0F2A                     	;# 
   965     0F2B                     	;# 
   966     0F2C                     	;# 
   967     0F2D                     	;# 
   968     0F2E                     	;# 
   969     0F2F                     	;# 
   970     0F30                     	;# 
   971     0F31                     	;# 
   972     0F32                     	;# 
   973     0F33                     	;# 
   974     0F34                     	;# 
   975     0F35                     	;# 
   976     0F36                     	;# 
   977     0F37                     	;# 
   978     0FE4                     	;# 
   979     0FE5                     	;# 
   980     0FE6                     	;# 
   981     0FE7                     	;# 
   982     0FE8                     	;# 
   983     0FE9                     	;# 
   984     0FEA                     	;# 
   985     0FEB                     	;# 
   986     0FED                     	;# 
   987     0FEE                     	;# 
   988     0FEF                     	;# 
   989     0011                     _PIR1bits	set	17
   990     009C                     _ADRESH	set	156
   991     009B                     _ADRESL	set	155
   992     009D                     _ADCON0bits	set	157
   993     009E                     _ADCON1bits	set	158
   994     008C                     _TRISAbits	set	140
   995     008D                     _TRISBbits	set	141
   996     008F                     _TRISD	set	143
   997     008F                     _TRISDbits	set	143
   998     04CF                     _SPLLEN	set	1231
   999     04CE                     _IRCF3	set	1230
  1000     04CD                     _IRCF2	set	1229
  1001     04CC                     _IRCF1	set	1228
  1002     04CB                     _IRCF0	set	1227
  1003     04C9                     _SCS1	set	1225
  1004     04C8                     _SCS0	set	1224
  1005     010F                     _LATDbits	set	271
  1006     019A                     _TX1REG	set	410
  1007     0199                     _RC1REG	set	409
  1008     019D                     _RC1STAbits	set	413
  1009     019B                     _SPBRGL	set	411
  1010     018C                     _ANSELAbits	set	396
  1011     018D                     _ANSELBbits	set	397
  1012     018F                     _ANSELD	set	399
  1013     0CF5                     _TXEN	set	3317
  1014     0CEC                     _CREN	set	3308
  1015     0CEF                     _SPEN	set	3311
  1016     0CF4                     _SYNC	set	3316
  1017     0CFB                     _BRG16	set	3323
  1018     0CF2                     _BRGH	set	3314
  1019     0E24                     _RXPPSbits	set	3620
  1020     0E0F                     _PPSLOCKbits	set	3599
  1021     0E0F                     _PPSLOCK	set	3599
  1022     0E9A                     _RB2PPSbits	set	3738
  1023                           
  1024                           	psect	stringtext1
  1025     0800                     __pstringtext1:
  1026     0800                     STR_1:
  1027     0800  342C               	retlw	44	;','
  1028     0801  3420               	retlw	32	;' '
  1029     0802  3452               	retlw	82	;'R'
  1030     0803  3465               	retlw	101	;'e'
  1031     0804  3461               	retlw	97	;'a'
  1032     0805  3464               	retlw	100	;'d'
  1033     0806  3420               	retlw	32	;' '
  1034     0807  3444               	retlw	68	;'D'
  1035     0808  3461               	retlw	97	;'a'
  1036     0809  3474               	retlw	116	;'t'
  1037     080A  3461               	retlw	97	;'a'
  1038     080B  343A               	retlw	58	;':'
  1039     080C  3420               	retlw	32	;' '
  1040     080D  3400               	retlw	0
  1041                           
  1042                           	psect	stringtext2
  1043     080E                     __pstringtext2:
  1044     080E                     STR_2:
  1045     080E  340A               	retlw	10
  1046     080F  3400               	retlw	0
  1047                           
  1048                           	psect	stringtext3
  1049     0000                     __pstringtext3:
  1050                           
  1051                           	psect	cinit
  1052     07FD                     start_initialization:	
  1053                           ; #config settings
  1054                           
  1055     07FD                     __initialization:
  1056     07FD                     end_of_initialization:	
  1057                           ;End of C runtime variable initialization code
  1058                           
  1059     07FD                     __end_of__initialization:
  1060     07FD  0020               	movlb	0
  1061     07FE  3185  2D8B         	ljmp	_main	;jump to C main() function
  1062                           
  1063                           	psect	cstackCOMMON
  1064     0070                     __pcstackCOMMON:
  1065     0070                     ?_internal_32:
  1066     0070                     ??_internal_32:	
  1067                           ; 1 bytes @ 0x0
  1068                           
  1069     0070                     ?_initMain:	
  1070                           ; 1 bytes @ 0x0
  1071                           
  1072     0070                     ??_initMain:	
  1073                           ; 1 bytes @ 0x0
  1074                           
  1075     0070                     ?_main:	
  1076                           ; 1 bytes @ 0x0
  1077                           
  1078     0070                     ?_EUSART_Write:	
  1079                           ; 1 bytes @ 0x0
  1080                           
  1081     0070                     ??_EUSART_Write:	
  1082                           ; 1 bytes @ 0x0
  1083                           
  1084     0070                     ?___wmul:	
  1085                           ; 1 bytes @ 0x0
  1086                           
  1087     0070                     ?___awdiv:	
  1088                           ; 2 bytes @ 0x0
  1089                           
  1090     0070                     ?___awmod:	
  1091                           ; 2 bytes @ 0x0
  1092                           
  1093     0070                     ?___aldiv:	
  1094                           ; 2 bytes @ 0x0
  1095                           
  1096     0070                     EUSART_Write@txData:	
  1097                           ; 4 bytes @ 0x0
  1098                           
  1099     0070                     ___wmul@multiplier:	
  1100                           ; 1 bytes @ 0x0
  1101                           
  1102     0070                     ___awdiv@divisor:	
  1103                           ; 2 bytes @ 0x0
  1104                           
  1105     0070                     ___awmod@divisor:	
  1106                           ; 2 bytes @ 0x0
  1107                           
  1108     0070                     ___aldiv@divisor:	
  1109                           ; 2 bytes @ 0x0
  1110                           
  1111                           
  1112                           ; 4 bytes @ 0x0
  1113     0070                     	ds	1
  1114     0071                     ?_EUSART_Write_Text:
  1115     0071                     EUSART_Write_Text@text:	
  1116                           ; 1 bytes @ 0x1
  1117                           
  1118                           
  1119                           ; 2 bytes @ 0x1
  1120     0071                     	ds	1
  1121     0072                     ___wmul@multiplicand:
  1122     0072                     ___awdiv@dividend:	
  1123                           ; 2 bytes @ 0x2
  1124                           
  1125     0072                     ___awmod@dividend:	
  1126                           ; 2 bytes @ 0x2
  1127                           
  1128                           
  1129                           ; 2 bytes @ 0x2
  1130     0072                     	ds	1
  1131     0073                     ??_EUSART_Write_Text:
  1132                           
  1133                           ; 1 bytes @ 0x3
  1134     0073                     	ds	1
  1135     0074                     ??___wmul:
  1136     0074                     ??___awdiv:	
  1137                           ; 1 bytes @ 0x4
  1138                           
  1139     0074                     ??___awmod:	
  1140                           ; 1 bytes @ 0x4
  1141                           
  1142     0074                     EUSART_Write_Text@i:	
  1143                           ; 1 bytes @ 0x4
  1144                           
  1145     0074                     ___wmul@product:	
  1146                           ; 2 bytes @ 0x4
  1147                           
  1148     0074                     ___aldiv@dividend:	
  1149                           ; 2 bytes @ 0x4
  1150                           
  1151                           
  1152                           ; 4 bytes @ 0x4
  1153     0074                     	ds	1
  1154     0075                     ___awdiv@counter:
  1155     0075                     ___awmod@counter:	
  1156                           ; 1 bytes @ 0x5
  1157                           
  1158                           
  1159                           ; 1 bytes @ 0x5
  1160     0075                     	ds	1
  1161     0076                     ___awdiv@sign:
  1162     0076                     ___awmod@sign:	
  1163                           ; 1 bytes @ 0x6
  1164                           
  1165                           
  1166                           ; 1 bytes @ 0x6
  1167     0076                     	ds	1
  1168     0077                     ___awdiv@quotient:
  1169                           
  1170                           ; 2 bytes @ 0x7
  1171     0077                     	ds	1
  1172     0078                     ??___aldiv:
  1173                           
  1174                           ; 1 bytes @ 0x8
  1175     0078                     	ds	1
  1176     0079                     ?_itoa:
  1177     0079                     EUSART_Initialize@x:	
  1178                           ; 1 bytes @ 0x9
  1179                           
  1180     0079                     itoa@d:	
  1181                           ; 2 bytes @ 0x9
  1182                           
  1183                           
  1184                           ; 2 bytes @ 0x9
  1185     0079                     	ds	2
  1186     007B                     ?_EUSART_Write_Integer:
  1187     007B                     ??_itoa:	
  1188                           ; 1 bytes @ 0xB
  1189                           
  1190     007B                     EUSART_Write_Integer@value_to_send:	
  1191                           ; 1 bytes @ 0xB
  1192                           
  1193                           
  1194                           ; 2 bytes @ 0xB
  1195     007B                     	ds	2
  1196     007D                     ??_EUSART_Write_Integer:
  1197                           
  1198                           ; 1 bytes @ 0xD
  1199     007D                     	ds	1
  1200                           
  1201                           	psect	cstackBANK0
  1202     0020                     __pcstackBANK0:
  1203     0020                     ___aldiv@counter:
  1204     0020                     itoa@num:	
  1205                           ; 1 bytes @ 0x0
  1206                           
  1207                           
  1208                           ; 2 bytes @ 0x0
  1209     0020                     	ds	1
  1210     0021                     ___aldiv@sign:
  1211                           
  1212                           ; 1 bytes @ 0x1
  1213     0021                     	ds	1
  1214     0022                     itoa@temp:
  1215     0022                     ___aldiv@quotient:	
  1216                           ; 2 bytes @ 0x2
  1217                           
  1218                           
  1219                           ; 4 bytes @ 0x2
  1220     0022                     	ds	2
  1221     0024                     itoa@buf:
  1222                           
  1223                           ; 1 bytes @ 0x4
  1224     0024                     	ds	1
  1225     0025                     itoa@div:
  1226                           
  1227                           ; 2 bytes @ 0x5
  1228     0025                     	ds	1
  1229     0026                     ?_EUSART_Initialize:
  1230     0026                     EUSART_Initialize@baudrate:	
  1231                           ; 1 bytes @ 0x6
  1232                           
  1233                           
  1234                           ; 4 bytes @ 0x6
  1235     0026                     	ds	1
  1236     0027                     EUSART_Write_Integer@buffer:
  1237                           
  1238                           ; 20 bytes @ 0x7
  1239     0027                     	ds	3
  1240     002A                     ??_EUSART_Initialize:
  1241                           
  1242                           ; 1 bytes @ 0xA
  1243     002A                     	ds	17
  1244     003B                     EUSART_Write_Integer@ptr:
  1245                           
  1246                           ; 1 bytes @ 0x1B
  1247     003B                     	ds	1
  1248     003C                     EUSART_Write_Integer@temp_ptr:
  1249                           
  1250                           ; 1 bytes @ 0x1C
  1251     003C                     	ds	1
  1252     003D                     ??_main:
  1253                           
  1254                           ; 1 bytes @ 0x1D
  1255     003D                     	ds	2
  1256     003F                     main@result:
  1257                           
  1258                           ; 2 bytes @ 0x1F
  1259     003F                     	ds	2
  1260                           
  1261                           	psect	maintext
  1262     058B                     __pmaintext:	
  1263 ;;
  1264 ;;Main: autosize = 0, tempsize = 2, incstack = 0, save=0
  1265 ;;
  1266 ;; *************** function _main *****************
  1267 ;; Defined at:
  1268 ;;		line 118 in file "main.c"
  1269 ;; Parameters:    Size  Location     Type
  1270 ;;		None
  1271 ;; Auto vars:     Size  Location     Type
  1272 ;;  result          2   31[BANK0 ] int 
  1273 ;; Return value:  Size  Location     Type
  1274 ;;                  1    wreg      void 
  1275 ;; Registers used:
  1276 ;;		wreg, fsr0l, fsr0h, fsr1l, fsr1h, status,2, status,0, pclath, cstack
  1277 ;; Tracked objects:
  1278 ;;		On entry : B1F/0
  1279 ;;		On exit  : 0/0
  1280 ;;		Unchanged: 0/0
  1281 ;; Data sizes:     COMMON   BANK0   BANK1   BANK2   BANK3   BANK4   BANK5   BANK6   BANK7   BANK8   BANK9  BANK10  BANK1
      +1  BANK12  BANK13  BANK14  BANK15  BANK16  BANK17  BANK18  BANK19  BANK20  BANK21  BANK22  BANK23  BANK24  BANK25
  1282 ;;      Params:         0       0       0       0       0       0       0       0       0       0       0       0       
      +0       0       0       0       0       0       0       0       0       0       0       0       0       0       0
  1283 ;;      Locals:         0       2       0       0       0       0       0       0       0       0       0       0       
      +0       0       0       0       0       0       0       0       0       0       0       0       0       0       0
  1284 ;;      Temps:          0       2       0       0       0       0       0       0       0       0       0       0       
      +0       0       0       0       0       0       0       0       0       0       0       0       0       0       0
  1285 ;;      Totals:         0       4       0       0       0       0       0       0       0       0       0       0       
      +0       0       0       0       0       0       0       0       0       0       0       0       0       0       0
  1286 ;;Total ram usage:        4 bytes
  1287 ;; Hardware stack levels required when called: 3
  1288 ;; This function calls:
  1289 ;;		_EUSART_Initialize
  1290 ;;		_EUSART_Write_Integer
  1291 ;;		_EUSART_Write_Text
  1292 ;;		_initMain
  1293 ;; This function is called by:
  1294 ;;		Startup code after reset
  1295 ;; This function uses a non-reentrant model
  1296 ;;
  1297                           
  1298     058B                     _main:	
  1299                           ;psect for function _main
  1300                           
  1301     058B                     l1225:	
  1302                           ;incstack = 0
  1303                           ; Regs used in _main: [wreg-fsr1h+status,2+status,0+pclath+cstack]
  1304                           
  1305                           
  1306                           ;main.c: 119:     initMain();
  1307     058B  3185  254D  3185   	fcall	_initMain
  1308                           
  1309                           ;main.c: 122:     EUSART_Initialize(19200);
  1310     058E  3000               	movlw	0
  1311     058F  0020               	movlb	0	; select bank0
  1312     0590  00A9               	movwf	EUSART_Initialize@baudrate+3
  1313     0591  3000               	movlw	0
  1314     0592  00A8               	movwf	EUSART_Initialize@baudrate+2
  1315     0593  304B               	movlw	75
  1316     0594  00A7               	movwf	EUSART_Initialize@baudrate+1
  1317     0595  3000               	movlw	0
  1318     0596  00A6               	movwf	EUSART_Initialize@baudrate
  1319     0597  3185  25D2  3185   	fcall	_EUSART_Initialize
  1320     059A                     l1227:
  1321                           
  1322                           ;main.c: 128:     {;main.c: 130:       ADCON0bits.ADON = 1;
  1323     059A  0021               	movlb	1	; select bank1
  1324     059B  141D               	bsf	29,0	;volatile
  1325     059C                     l1229:
  1326                           
  1327                           ;main.c: 133:       _delay((unsigned long)((10)*(32000000/4000000.0)));
  1328     059C  301A               	movlw	26
  1329     059D                     u887:
  1330     059D  0B89               	decfsz	9,f
  1331     059E  2D9D               	goto	u887
  1332     059F  3200               	nop2
  1333     05A0                     l1231:
  1334                           
  1335                           ;main.c: 134:       ADCON0bits.GO = 1;
  1336     05A0  0021               	movlb	1	; select bank1
  1337     05A1  149D               	bsf	29,1	;volatile
  1338     05A2                     l51:	
  1339                           ;main.c: 135:       while (ADCON0bits.GO_nDONE);
  1340                           
  1341     05A2  189D               	btfsc	29,1	;volatile
  1342     05A3  2DA5               	goto	u871
  1343     05A4  2DA6               	goto	u870
  1344     05A5                     u871:
  1345     05A5  2DA2               	goto	l51
  1346     05A6                     u870:
  1347     05A6                     l1233:
  1348                           
  1349                           ;main.c: 138:       result = ((ADRESH<<8)+ADRESL);
  1350     05A6  081C               	movf	28,w	;volatile
  1351     05A7  0020               	movlb	0	; select bank0
  1352     05A8  00C0               	movwf	main@result+1
  1353     05A9  0021               	movlb	1	; select bank1
  1354     05AA  081B               	movf	27,w	;volatile
  1355     05AB  0020               	movlb	0	; select bank0
  1356     05AC  00BF               	movwf	main@result
  1357     05AD                     l1235:
  1358                           
  1359                           ;main.c: 140:       EUSART_Write_Text(", Read Data: ");
  1360     05AD  3000               	movlw	low (STR_1| (0+32768))
  1361     05AE  00F1               	movwf	EUSART_Write_Text@text
  1362     05AF  3088               	movlw	high (STR_1| (0+32768))
  1363     05B0  00F2               	movwf	EUSART_Write_Text@text+1
  1364     05B1  3184  24ED  3185   	fcall	_EUSART_Write_Text
  1365     05B4                     l1237:
  1366                           
  1367                           ;main.c: 141:       EUSART_Write_Integer(result);
  1368     05B4  0020               	movlb	0	; select bank0
  1369     05B5  0840               	movf	main@result+1,w
  1370     05B6  00FC               	movwf	EUSART_Write_Integer@value_to_send+1
  1371     05B7  083F               	movf	main@result,w
  1372     05B8  00FB               	movwf	EUSART_Write_Integer@value_to_send
  1373     05B9  3185  2529  3185   	fcall	_EUSART_Write_Integer
  1374     05BC                     l1239:
  1375                           
  1376                           ;main.c: 142:       EUSART_Write_Text("\n");
  1377     05BC  300E               	movlw	low (STR_2| (0+32768))
  1378     05BD  00F1               	movwf	EUSART_Write_Text@text
  1379     05BE  3088               	movlw	high (STR_2| (0+32768))
  1380     05BF  00F2               	movwf	EUSART_Write_Text@text+1
  1381     05C0  3184  24ED  3185   	fcall	_EUSART_Write_Text
  1382     05C3                     l1241:
  1383                           
  1384                           ;main.c: 143:       _delay((unsigned long)((1000)*(32000000/4000.0)));
  1385     05C3  3029               	movlw	41
  1386     05C4  0020               	movlb	0	; select bank0
  1387     05C5  00BE               	movwf	??_main+1
  1388     05C6  3096               	movlw	150
  1389     05C7  00BD               	movwf	??_main
  1390     05C8  307F               	movlw	127
  1391     05C9                     u897:
  1392     05C9  0B89               	decfsz	9,f
  1393     05CA  2DC9               	goto	u897
  1394     05CB  0BBD               	decfsz	??_main,f
  1395     05CC  2DC9               	goto	u897
  1396     05CD  0BBE               	decfsz	??_main+1,f
  1397     05CE  2DC9               	goto	u897
  1398     05CF  2D9A               	goto	l1227
  1399     05D0  3180  2802         	ljmp	start
  1400     05D2                     __end_of_main:
  1401                           
  1402                           	psect	text1
  1403     054D                     __ptext1:	
  1404 ;; *************** function _initMain *****************
  1405 ;; Defined at:
  1406 ;;		line 41 in file "main.c"
  1407 ;; Parameters:    Size  Location     Type
  1408 ;;		None
  1409 ;; Auto vars:     Size  Location     Type
  1410 ;;		None
  1411 ;; Return value:  Size  Location     Type
  1412 ;;                  1    wreg      void 
  1413 ;; Registers used:
  1414 ;;		wreg, status,2, status,0, pclath, cstack
  1415 ;; Tracked objects:
  1416 ;;		On entry : 0/0
  1417 ;;		On exit  : 0/0
  1418 ;;		Unchanged: 0/0
  1419 ;; Data sizes:     COMMON   BANK0   BANK1   BANK2   BANK3   BANK4   BANK5   BANK6   BANK7   BANK8   BANK9  BANK10  BANK1
      +1  BANK12  BANK13  BANK14  BANK15  BANK16  BANK17  BANK18  BANK19  BANK20  BANK21  BANK22  BANK23  BANK24  BANK25
  1420 ;;      Params:         0       0       0       0       0       0       0       0       0       0       0       0       
      +0       0       0       0       0       0       0       0       0       0       0       0       0       0       0
  1421 ;;      Locals:         0       0       0       0       0       0       0       0       0       0       0       0       
      +0       0       0       0       0       0       0       0       0       0       0       0       0       0       0
  1422 ;;      Temps:          1       0       0       0       0       0       0       0       0       0       0       0       
      +0       0       0       0       0       0       0       0       0       0       0       0       0       0       0
  1423 ;;      Totals:         1       0       0       0       0       0       0       0       0       0       0       0       
      +0       0       0       0       0       0       0       0       0       0       0       0       0       0       0
  1424 ;;Total ram usage:        1 bytes
  1425 ;; Hardware stack levels used: 1
  1426 ;; Hardware stack levels required when called: 1
  1427 ;; This function calls:
  1428 ;;		_internal_32
  1429 ;; This function is called by:
  1430 ;;		_main
  1431 ;; This function uses a non-reentrant model
  1432 ;;
  1433                           
  1434     054D                     _initMain:	
  1435                           ;psect for function _initMain
  1436                           
  1437     054D                     l1137:	
  1438                           ;incstack = 0
  1439                           ; Regs used in _initMain: [wreg+status,2+status,0+pclath+cstack]
  1440                           
  1441                           
  1442                           ;main.c: 44:     internal_32();
  1443     054D  3184  24DA  3185   	fcall	_internal_32
  1444     0550                     l1139:
  1445                           
  1446                           ;main.c: 47:     _delay((unsigned long)((10)*(32000000/4000.0)));
  1447     0550  3068               	movlw	104
  1448     0551  00F0               	movwf	??_initMain
  1449     0552  30E4               	movlw	228
  1450     0553                     u907:
  1451     0553  0B89               	decfsz	9,f
  1452     0554  2D53               	goto	u907
  1453     0555  0BF0               	decfsz	??_initMain,f
  1454     0556  2D53               	goto	u907
  1455     0557  3200               	nop2
  1456     0558                     l1141:
  1457                           
  1458                           ;main.c: 50:     TRISDbits.TRISD1 = 0;
  1459     0558  0021               	movlb	1	; select bank1
  1460     0559  108F               	bcf	15,1	;volatile
  1461     055A                     l1143:
  1462                           
  1463                           ;main.c: 53:     LATDbits.LATD1 = 0;
  1464     055A  0022               	movlb	2	; select bank2
  1465     055B  108F               	bcf	15,1	;volatile
  1466     055C                     l1145:
  1467                           
  1468                           ;main.c: 56:     TRISD = 0;
  1469     055C  0021               	movlb	1	; select bank1
  1470     055D  018F               	clrf	15	;volatile
  1471     055E                     l1147:
  1472                           
  1473                           ;main.c: 57:     ANSELD = 0;
  1474     055E  0023               	movlb	3	; select bank3
  1475     055F  018F               	clrf	15	;volatile
  1476     0560                     l1149:
  1477                           
  1478                           ;main.c: 59:     TRISBbits.TRISB2 = 0;
  1479     0560  0021               	movlb	1	; select bank1
  1480     0561  110D               	bcf	13,2	;volatile
  1481     0562                     l1151:
  1482                           
  1483                           ;main.c: 60:     ANSELBbits.ANSB2 = 0;
  1484     0562  0023               	movlb	3	; select bank3
  1485     0563  110D               	bcf	13,2	;volatile
  1486     0564                     l1153:
  1487                           
  1488                           ;main.c: 65:     PPSLOCK = 0x55;
  1489     0564  3055               	movlw	85
  1490     0565  003C               	movlb	28	; select bank28
  1491     0566  008F               	movwf	15	;volsfr
  1492     0567                     l1155:
  1493                           
  1494                           ;main.c: 66:     PPSLOCK = 0xAA;
  1495     0567  30AA               	movlw	170
  1496     0568  008F               	movwf	15	;volsfr
  1497     0569                     l1157:
  1498                           
  1499                           ;main.c: 67:     PPSLOCKbits.PPSLOCKED = 0x00;
  1500     0569  100F               	bcf	15,0	;volsfr
  1501     056A                     l1159:
  1502                           
  1503                           ;main.c: 69:     RB2PPSbits.RB2PPS = 0x14;
  1504     056A  003D               	movlb	29	; select bank29
  1505     056B  081A               	movf	26,w	;volatile
  1506     056C  39E0               	andlw	-32
  1507     056D  3814               	iorlw	20
  1508     056E  009A               	movwf	26	;volatile
  1509     056F                     l1161:
  1510                           
  1511                           ;main.c: 70:     RXPPSbits.RXPPS = 0x0B;
  1512     056F  003C               	movlb	28	; select bank28
  1513     0570  0824               	movf	36,w	;volatile
  1514     0571  39E0               	andlw	-32
  1515     0572  380B               	iorlw	11
  1516     0573  00A4               	movwf	36	;volatile
  1517     0574                     l1163:
  1518                           
  1519                           ;main.c: 72:     PPSLOCK = 0x55;
  1520     0574  3055               	movlw	85
  1521     0575  008F               	movwf	15	;volsfr
  1522     0576                     l1165:
  1523                           
  1524                           ;main.c: 73:     PPSLOCK = 0xAA;
  1525     0576  30AA               	movlw	170
  1526     0577  008F               	movwf	15	;volsfr
  1527     0578                     l1167:
  1528                           
  1529                           ;main.c: 74:     PPSLOCKbits.PPSLOCKED = 0x01;
  1530     0578  140F               	bsf	15,0	;volsfr
  1531     0579                     l1169:
  1532                           
  1533                           ;main.c: 82:     TRISAbits.TRISA0 = 1;
  1534     0579  0021               	movlb	1	; select bank1
  1535     057A  140C               	bsf	12,0	;volatile
  1536     057B                     l1171:
  1537                           
  1538                           ;main.c: 85:     ANSELAbits.ANSA0 = 1;
  1539     057B  0023               	movlb	3	; select bank3
  1540     057C  140C               	bsf	12,0	;volatile
  1541     057D                     l1173:
  1542                           
  1543                           ;main.c: 88:     ADCON1bits.ADCS = 0b010;
  1544     057D  0021               	movlb	1	; select bank1
  1545     057E  081E               	movf	30,w	;volatile
  1546     057F  398F               	andlw	-113
  1547     0580  3820               	iorlw	32
  1548     0581  009E               	movwf	30	;volatile
  1549     0582                     l1175:
  1550                           
  1551                           ;main.c: 91:     ADCON1bits.ADFM = 1;
  1552     0582  179E               	bsf	30,7	;volatile
  1553     0583                     l1177:
  1554                           
  1555                           ;main.c: 94:     ADCON1bits.ADNREF = 0;
  1556     0583  111E               	bcf	30,2	;volatile
  1557     0584                     l1179:
  1558                           
  1559                           ;main.c: 97:     ADCON1bits.ADPREF = 0b00;
  1560     0584  30FC               	movlw	-4
  1561     0585  059E               	andwf	30,f	;volatile
  1562     0586                     l1181:
  1563                           
  1564                           ;main.c: 100:     ADCON0bits.CHS = 0b00000;
  1565     0586  3083               	movlw	-125
  1566     0587  059D               	andwf	29,f	;volatile
  1567     0588                     l1183:
  1568                           
  1569                           ;main.c: 103:     ADRESL = 0;
  1570     0588  019B               	clrf	27	;volatile
  1571     0589                     l1185:
  1572                           
  1573                           ;main.c: 104:     ADRESH = 0;
  1574     0589  019C               	clrf	28	;volatile
  1575     058A                     l45:
  1576     058A  0008               	return
  1577     058B                     __end_of_initMain:
  1578                           
  1579                           	psect	text2
  1580     04DA                     __ptext2:	
  1581 ;; *************** function _internal_32 *****************
  1582 ;; Defined at:
  1583 ;;		line 32 in file "PIC16F1719_Internal.c"
  1584 ;; Parameters:    Size  Location     Type
  1585 ;;		None
  1586 ;; Auto vars:     Size  Location     Type
  1587 ;;		None
  1588 ;; Return value:  Size  Location     Type
  1589 ;;                  1    wreg      void 
  1590 ;; Registers used:
  1591 ;;		None
  1592 ;; Tracked objects:
  1593 ;;		On entry : 0/0
  1594 ;;		On exit  : 0/0
  1595 ;;		Unchanged: 0/0
  1596 ;; Data sizes:     COMMON   BANK0   BANK1   BANK2   BANK3   BANK4   BANK5   BANK6   BANK7   BANK8   BANK9  BANK10  BANK1
      +1  BANK12  BANK13  BANK14  BANK15  BANK16  BANK17  BANK18  BANK19  BANK20  BANK21  BANK22  BANK23  BANK24  BANK25
  1597 ;;      Params:         0       0       0       0       0       0       0       0       0       0       0       0       
      +0       0       0       0       0       0       0       0       0       0       0       0       0       0       0
  1598 ;;      Locals:         0       0       0       0       0       0       0       0       0       0       0       0       
      +0       0       0       0       0       0       0       0       0       0       0       0       0       0       0
  1599 ;;      Temps:          0       0       0       0       0       0       0       0       0       0       0       0       
      +0       0       0       0       0       0       0       0       0       0       0       0       0       0       0
  1600 ;;      Totals:         0       0       0       0       0       0       0       0       0       0       0       0       
      +0       0       0       0       0       0       0       0       0       0       0       0       0       0       0
  1601 ;;Total ram usage:        0 bytes
  1602 ;; Hardware stack levels used: 1
  1603 ;; This function calls:
  1604 ;;		Nothing
  1605 ;; This function is called by:
  1606 ;;		_initMain
  1607 ;; This function uses a non-reentrant model
  1608 ;;
  1609                           
  1610     04DA                     _internal_32:	
  1611                           ;psect for function _internal_32
  1612                           
  1613     04DA                     l1073:	
  1614                           ;incstack = 0
  1615                           ; Regs used in _internal_32: []
  1616                           
  1617                           
  1618                           ;PIC16F1719_Internal.c: 34:     SCS0 = 0;
  1619     04DA  0021               	movlb	1	; select bank1
  1620     04DB  1019               	bcf	25,0	;volatile
  1621                           
  1622                           ;PIC16F1719_Internal.c: 35:     SCS1 = 0;
  1623     04DC  1099               	bcf	25,1	;volatile
  1624                           
  1625                           ;PIC16F1719_Internal.c: 38:     IRCF0 = 0;
  1626     04DD  1199               	bcf	25,3	;volatile
  1627                           
  1628                           ;PIC16F1719_Internal.c: 39:     IRCF1 = 1;
  1629     04DE  1619               	bsf	25,4	;volatile
  1630                           
  1631                           ;PIC16F1719_Internal.c: 40:     IRCF2 = 1;
  1632     04DF  1699               	bsf	25,5	;volatile
  1633                           
  1634                           ;PIC16F1719_Internal.c: 41:     IRCF3 = 1;
  1635     04E0  1719               	bsf	25,6	;volatile
  1636                           
  1637                           ;PIC16F1719_Internal.c: 44:     SPLLEN = 1;
  1638     04E1  1799               	bsf	25,7	;volatile
  1639     04E2                     l73:
  1640     04E2  0008               	return
  1641     04E3                     __end_of_internal_32:
  1642                           
  1643                           	psect	text3
  1644     04ED                     __ptext3:	
  1645 ;; *************** function _EUSART_Write_Text *****************
  1646 ;; Defined at:
  1647 ;;		line 127 in file "EUSART.c"
  1648 ;; Parameters:    Size  Location     Type
  1649 ;;  text            2    1[COMMON] PTR unsigned char 
  1650 ;;		 -> STR_2(2), STR_1(14), 
  1651 ;; Auto vars:     Size  Location     Type
  1652 ;;  i               2    4[COMMON] int 
  1653 ;; Return value:  Size  Location     Type
  1654 ;;                  1    wreg      void 
  1655 ;; Registers used:
  1656 ;;		wreg, fsr0l, fsr0h, status,2, status,0, pclath, cstack
  1657 ;; Tracked objects:
  1658 ;;		On entry : 0/0
  1659 ;;		On exit  : 0/0
  1660 ;;		Unchanged: 0/0
  1661 ;; Data sizes:     COMMON   BANK0   BANK1   BANK2   BANK3   BANK4   BANK5   BANK6   BANK7   BANK8   BANK9  BANK10  BANK1
      +1  BANK12  BANK13  BANK14  BANK15  BANK16  BANK17  BANK18  BANK19  BANK20  BANK21  BANK22  BANK23  BANK24  BANK25
  1662 ;;      Params:         2       0       0       0       0       0       0       0       0       0       0       0       
      +0       0       0       0       0       0       0       0       0       0       0       0       0       0       0
  1663 ;;      Locals:         2       0       0       0       0       0       0       0       0       0       0       0       
      +0       0       0       0       0       0       0       0       0       0       0       0       0       0       0
  1664 ;;      Temps:          1       0       0       0       0       0       0       0       0       0       0       0       
      +0       0       0       0       0       0       0       0       0       0       0       0       0       0       0
  1665 ;;      Totals:         5       0       0       0       0       0       0       0       0       0       0       0       
      +0       0       0       0       0       0       0       0       0       0       0       0       0       0       0
  1666 ;;Total ram usage:        5 bytes
  1667 ;; Hardware stack levels used: 1
  1668 ;; Hardware stack levels required when called: 1
  1669 ;; This function calls:
  1670 ;;		_EUSART_Write
  1671 ;; This function is called by:
  1672 ;;		_main
  1673 ;; This function uses a non-reentrant model
  1674 ;;
  1675                           
  1676     04ED                     _EUSART_Write_Text:	
  1677                           ;psect for function _EUSART_Write_Text
  1678                           
  1679     04ED                     l1205:	
  1680                           ;incstack = 0
  1681                           ; Regs used in _EUSART_Write_Text: [wreg-fsr0h+status,2+status,0+pclath+cstack]
  1682                           
  1683                           
  1684                           ;EUSART.c: 127: void EUSART_Write_Text(char *text);EUSART.c: 128: {;EUSART.c: 129:   int
      +                           i;;EUSART.c: 130:   for(i=0;text[i]!='\0';i++)
  1685     04ED  01F4               	clrf	EUSART_Write_Text@i
  1686     04EE  01F5               	clrf	EUSART_Write_Text@i+1
  1687     04EF  2CFE               	goto	l1211
  1688     04F0                     l1207:
  1689                           
  1690                           ;EUSART.c: 131:    EUSART_Write(text[i]);
  1691     04F0  0871               	movf	EUSART_Write_Text@text,w
  1692     04F1  0774               	addwf	EUSART_Write_Text@i,w
  1693     04F2  0084               	movwf	4
  1694     04F3  0872               	movf	EUSART_Write_Text@text+1,w
  1695     04F4  3D75               	addwfc	EUSART_Write_Text@i+1,w
  1696     04F5  0085               	movwf	5
  1697     04F6  0800               	movf	0,w	;code access
  1698     04F7  3184  24E3  3184   	fcall	_EUSART_Write
  1699     04FA                     l1209:
  1700     04FA  3001               	movlw	1
  1701     04FB  07F4               	addwf	EUSART_Write_Text@i,f
  1702     04FC  3000               	movlw	0
  1703     04FD  3DF5               	addwfc	EUSART_Write_Text@i+1,f
  1704     04FE                     l1211:
  1705     04FE  0871               	movf	EUSART_Write_Text@text,w
  1706     04FF  0774               	addwf	EUSART_Write_Text@i,w
  1707     0500  0084               	movwf	4
  1708     0501  0872               	movf	EUSART_Write_Text@text+1,w
  1709     0502  3D75               	addwfc	EUSART_Write_Text@i+1,w
  1710     0503  0085               	movwf	5
  1711     0504  0012               	moviw fsr0++
  1712     0505  1D03               	btfss	3,2
  1713     0506  2D08               	goto	u851
  1714     0507  2D09               	goto	u850
  1715     0508                     u851:
  1716     0508  2CF0               	goto	l1207
  1717     0509                     u850:
  1718     0509                     l141:
  1719     0509  0008               	return
  1720     050A                     __end_of_EUSART_Write_Text:
  1721                           
  1722                           	psect	text4
  1723     0529                     __ptext4:	
  1724 ;; *************** function _EUSART_Write_Integer *****************
  1725 ;; Defined at:
  1726 ;;		line 185 in file "EUSART.c"
  1727 ;; Parameters:    Size  Location     Type
  1728 ;;  value_to_sen    2   11[COMMON] int 
  1729 ;; Auto vars:     Size  Location     Type
  1730 ;;  buffer         20    7[BANK0 ] unsigned char [20]
  1731 ;;  temp_ptr        1   28[BANK0 ] PTR unsigned char 
  1732 ;;		 -> EUSART_Write_Integer@buffer(20), 
  1733 ;;  ptr             1   27[BANK0 ] PTR unsigned char 
  1734 ;;		 -> EUSART_Write_Integer@buffer(20), 
  1735 ;; Return value:  Size  Location     Type
  1736 ;;                  1    wreg      void 
  1737 ;; Registers used:
  1738 ;;		wreg, fsr0l, fsr0h, fsr1l, fsr1h, status,2, status,0, pclath, cstack
  1739 ;; Tracked objects:
  1740 ;;		On entry : 0/0
  1741 ;;		On exit  : 0/0
  1742 ;;		Unchanged: 0/0
  1743 ;; Data sizes:     COMMON   BANK0   BANK1   BANK2   BANK3   BANK4   BANK5   BANK6   BANK7   BANK8   BANK9  BANK10  BANK1
      +1  BANK12  BANK13  BANK14  BANK15  BANK16  BANK17  BANK18  BANK19  BANK20  BANK21  BANK22  BANK23  BANK24  BANK25
  1744 ;;      Params:         2       0       0       0       0       0       0       0       0       0       0       0       
      +0       0       0       0       0       0       0       0       0       0       0       0       0       0       0
  1745 ;;      Locals:         0      22       0       0       0       0       0       0       0       0       0       0       
      +0       0       0       0       0       0       0       0       0       0       0       0       0       0       0
  1746 ;;      Temps:          1       0       0       0       0       0       0       0       0       0       0       0       
      +0       0       0       0       0       0       0       0       0       0       0       0       0       0       0
  1747 ;;      Totals:         3      22       0       0       0       0       0       0       0       0       0       0       
      +0       0       0       0       0       0       0       0       0       0       0       0       0       0       0
  1748 ;;Total ram usage:       25 bytes
  1749 ;; Hardware stack levels used: 1
  1750 ;; Hardware stack levels required when called: 2
  1751 ;; This function calls:
  1752 ;;		_EUSART_Write
  1753 ;;		_itoa
  1754 ;; This function is called by:
  1755 ;;		_main
  1756 ;; This function uses a non-reentrant model
  1757 ;;
  1758                           
  1759     0529                     _EUSART_Write_Integer:	
  1760                           ;psect for function _EUSART_Write_Integer
  1761                           
  1762     0529                     l1213:	
  1763                           ;incstack = 0
  1764                           ; Regs used in _EUSART_Write_Integer: [wreg-fsr1h+status,2+status,0+pclath+cstack]
  1765                           
  1766                           
  1767                           ;EUSART.c: 185: void EUSART_Write_Integer(int value_to_send);EUSART.c: 186: {;EUSART.c: 
      +                          187:     char buffer[20];;EUSART.c: 188:     char *ptr = buffer;
  1768     0529  3027               	movlw	(low (EUSART_Write_Integer@buffer| 0))& (0+255)
  1769     052A  0020               	movlb	0	; select bank0
  1770     052B  00BB               	movwf	EUSART_Write_Integer@ptr
  1771     052C                     l1215:
  1772                           
  1773                           ;EUSART.c: 190:     itoa(&ptr, value_to_send);
  1774     052C  087C               	movf	EUSART_Write_Integer@value_to_send+1,w
  1775     052D  00FA               	movwf	itoa@d+1
  1776     052E  087B               	movf	EUSART_Write_Integer@value_to_send,w
  1777     052F  00F9               	movwf	itoa@d
  1778     0530  303B               	movlw	(low (EUSART_Write_Integer@ptr| 0))& (0+255)
  1779     0531  3187  2764  3185   	fcall	_itoa
  1780     0534                     l1217:
  1781                           
  1782                           ;EUSART.c: 193:     char *temp_ptr = buffer;
  1783     0534  3027               	movlw	(low (EUSART_Write_Integer@buffer| 0))& (0+255)
  1784     0535  0020               	movlb	0	; select bank0
  1785     0536  00BC               	movwf	EUSART_Write_Integer@temp_ptr
  1786                           
  1787                           ;EUSART.c: 194:     while (*temp_ptr != '\0') {
  1788     0537  2D44               	goto	l1223
  1789     0538                     l1219:
  1790                           
  1791                           ;EUSART.c: 195:         EUSART_Write(*temp_ptr++);
  1792     0538  083C               	movf	EUSART_Write_Integer@temp_ptr,w
  1793     0539  0086               	movwf	6
  1794     053A  0187               	clrf	7
  1795     053B  0801               	movf	1,w
  1796     053C  3184  24E3  3185   	fcall	_EUSART_Write
  1797     053F                     l1221:
  1798     053F  3001               	movlw	1
  1799     0540  00FD               	movwf	??_EUSART_Write_Integer
  1800     0541  087D               	movf	??_EUSART_Write_Integer,w
  1801     0542  0020               	movlb	0	; select bank0
  1802     0543  07BC               	addwf	EUSART_Write_Integer@temp_ptr,f
  1803     0544                     l1223:
  1804                           
  1805                           ;EUSART.c: 194:     while (*temp_ptr != '\0') {
  1806     0544  083C               	movf	EUSART_Write_Integer@temp_ptr,w
  1807     0545  0086               	movwf	6
  1808     0546  0187               	clrf	7
  1809     0547  0801               	movf	1,w
  1810     0548  1D03               	btfss	3,2
  1811     0549  2D4B               	goto	u861
  1812     054A  2D4C               	goto	u860
  1813     054B                     u861:
  1814     054B  2D38               	goto	l1219
  1815     054C                     u860:
  1816     054C                     l157:
  1817     054C  0008               	return
  1818     054D                     __end_of_EUSART_Write_Integer:
  1819                           
  1820                           	psect	text5
  1821     0764                     __ptext5:	
  1822 ;; *************** function _itoa *****************
  1823 ;; Defined at:
  1824 ;;		line 149 in file "EUSART.c"
  1825 ;; Parameters:    Size  Location     Type
  1826 ;;  buf             1    wreg     PTR PTR unsigned char 
  1827 ;;		 -> EUSART_Write_Integer@ptr(1), 
  1828 ;;  d               2    9[COMMON] int 
  1829 ;; Auto vars:     Size  Location     Type
  1830 ;;  buf             1    4[BANK0 ] PTR PTR unsigned char 
  1831 ;;		 -> EUSART_Write_Integer@ptr(1), 
  1832 ;;  num             2    0[BANK0 ] int 
  1833 ;;  div             2    5[BANK0 ] int 
  1834 ;;  temp            2    2[BANK0 ] int 
  1835 ;; Return value:  Size  Location     Type
  1836 ;;                  1    wreg      void 
  1837 ;; Registers used:
  1838 ;;		wreg, fsr0l, fsr0h, fsr1l, fsr1h, status,2, status,0, pclath, cstack
  1839 ;; Tracked objects:
  1840 ;;		On entry : 0/0
  1841 ;;		On exit  : 0/0
  1842 ;;		Unchanged: 0/0
  1843 ;; Data sizes:     COMMON   BANK0   BANK1   BANK2   BANK3   BANK4   BANK5   BANK6   BANK7   BANK8   BANK9  BANK10  BANK1
      +1  BANK12  BANK13  BANK14  BANK15  BANK16  BANK17  BANK18  BANK19  BANK20  BANK21  BANK22  BANK23  BANK24  BANK25
  1844 ;;      Params:         2       0       0       0       0       0       0       0       0       0       0       0       
      +0       0       0       0       0       0       0       0       0       0       0       0       0       0       0
  1845 ;;      Locals:         0       7       0       0       0       0       0       0       0       0       0       0       
      +0       0       0       0       0       0       0       0       0       0       0       0       0       0       0
  1846 ;;      Temps:          0       0       0       0       0       0       0       0       0       0       0       0       
      +0       0       0       0       0       0       0       0       0       0       0       0       0       0       0
  1847 ;;      Totals:         2       7       0       0       0       0       0       0       0       0       0       0       
      +0       0       0       0       0       0       0       0       0       0       0       0       0       0       0
  1848 ;;Total ram usage:        9 bytes
  1849 ;; Hardware stack levels used: 1
  1850 ;; Hardware stack levels required when called: 1
  1851 ;; This function calls:
  1852 ;;		___awdiv
  1853 ;;		___awmod
  1854 ;;		___wmul
  1855 ;; This function is called by:
  1856 ;;		_EUSART_Write_Integer
  1857 ;; This function uses a non-reentrant model
  1858 ;;
  1859                           
  1860     0764                     _itoa:	
  1861                           ;psect for function _itoa
  1862                           
  1863                           
  1864                           ;incstack = 0
  1865                           ; Regs used in _itoa: [wreg-fsr1h+status,2+status,0+pclath+cstack]
  1866                           ;itoa@buf stored from wreg
  1867     0764  0020               	movlb	0	; select bank0
  1868     0765  00A4               	movwf	itoa@buf
  1869     0766                     l1079:
  1870                           
  1871                           ;EUSART.c: 149: void itoa(char **buf, int d);EUSART.c: 150: {;EUSART.c: 151:     int div
      +                           = 1;
  1872     0766  3001               	movlw	1
  1873     0767  00A5               	movwf	itoa@div
  1874     0768  3000               	movlw	0
  1875     0769  00A6               	movwf	itoa@div+1
  1876                           
  1877                           ;EUSART.c: 152:     if (d < 0)
  1878     076A  1FFA               	btfss	itoa@d+1,7
  1879     076B  2F6D               	goto	u701
  1880     076C  2F6E               	goto	u700
  1881     076D                     u701:
  1882     076D  2F7C               	goto	l1085
  1883     076E                     u700:
  1884     076E                     l1081:
  1885                           
  1886                           ;EUSART.c: 153:     {;EUSART.c: 154:         *((*buf)++) = '-';
  1887     076E  0824               	movf	itoa@buf,w
  1888     076F  0086               	movwf	6
  1889     0770  0187               	clrf	7
  1890     0771  3F40               	moviw [0]fsr1
  1891     0772  0084               	movwf	4
  1892     0773  0185               	clrf	5
  1893     0774  0A81               	incf	1,f
  1894     0775  302D               	movlw	45
  1895     0776  0080               	movwf	0
  1896     0777                     l1083:
  1897                           
  1898                           ;EUSART.c: 155:         d = -d;
  1899     0777  09F9               	comf	itoa@d,f
  1900     0778  09FA               	comf	itoa@d+1,f
  1901     0779  0AF9               	incf	itoa@d,f
  1902     077A  1903               	skipnz
  1903     077B  0AFA               	incf	itoa@d+1,f
  1904     077C                     l1085:
  1905                           
  1906                           ;EUSART.c: 158:     int temp = d;
  1907     077C  087A               	movf	itoa@d+1,w
  1908     077D  00A3               	movwf	itoa@temp+1
  1909     077E  0879               	movf	itoa@d,w
  1910     077F  00A2               	movwf	itoa@temp
  1911                           
  1912                           ;EUSART.c: 159:     while (temp / 10)
  1913     0780  2FA2               	goto	l145
  1914     0781                     l1087:
  1915                           
  1916                           ;EUSART.c: 160:     {;EUSART.c: 161:         temp /= 10;
  1917     0781  300A               	movlw	10
  1918     0782  00F0               	movwf	___awdiv@divisor
  1919     0783  3000               	movlw	0
  1920     0784  00F1               	movwf	___awdiv@divisor+1
  1921     0785  0020               	movlb	0	; select bank0
  1922     0786  0823               	movf	itoa@temp+1,w
  1923     0787  00F3               	movwf	___awdiv@dividend+1
  1924     0788  0822               	movf	itoa@temp,w
  1925     0789  00F2               	movwf	___awdiv@dividend
  1926     078A  3186  2675  3187   	fcall	___awdiv
  1927     078D  0871               	movf	?___awdiv+1,w
  1928     078E  0020               	movlb	0	; select bank0
  1929     078F  00A3               	movwf	itoa@temp+1
  1930     0790  0870               	movf	?___awdiv,w
  1931     0791  00A2               	movwf	itoa@temp
  1932                           
  1933                           ;EUSART.c: 162:         div *= 10;
  1934     0792  300A               	movlw	10
  1935     0793  00F0               	movwf	___wmul@multiplier
  1936     0794  3000               	movlw	0
  1937     0795  00F1               	movwf	___wmul@multiplier+1
  1938     0796  0826               	movf	itoa@div+1,w
  1939     0797  00F3               	movwf	___wmul@multiplicand+1
  1940     0798  0825               	movf	itoa@div,w
  1941     0799  00F2               	movwf	___wmul@multiplicand
  1942     079A  3185  250A  3187   	fcall	___wmul
  1943     079D  0871               	movf	?___wmul+1,w
  1944     079E  0020               	movlb	0	; select bank0
  1945     079F  00A6               	movwf	itoa@div+1
  1946     07A0  0870               	movf	?___wmul,w
  1947     07A1  00A5               	movwf	itoa@div
  1948     07A2                     l145:	
  1949                           ;EUSART.c: 163:     }
  1950                           
  1951                           
  1952                           ;EUSART.c: 159:     while (temp / 10)
  1953     07A2  300A               	movlw	10
  1954     07A3  00F0               	movwf	___awdiv@divisor
  1955     07A4  3000               	movlw	0
  1956     07A5  00F1               	movwf	___awdiv@divisor+1
  1957     07A6  0823               	movf	itoa@temp+1,w
  1958     07A7  00F3               	movwf	___awdiv@dividend+1
  1959     07A8  0822               	movf	itoa@temp,w
  1960     07A9  00F2               	movwf	___awdiv@dividend
  1961     07AA  3186  2675  3187   	fcall	___awdiv
  1962     07AD  0870               	movf	?___awdiv,w
  1963     07AE  0471               	iorwf	?___awdiv+1,w
  1964     07AF  1D03               	btfss	3,2
  1965     07B0  2FB2               	goto	u711
  1966     07B1  2FB3               	goto	u710
  1967     07B2                     u711:
  1968     07B2  2F81               	goto	l1087
  1969     07B3                     u710:
  1970     07B3  2FEE               	goto	l1093
  1971     07B4                     l1089:
  1972                           
  1973                           ;EUSART.c: 166:     {;EUSART.c: 167:         int num = d / div;
  1974     07B4  0826               	movf	itoa@div+1,w
  1975     07B5  00F1               	movwf	___awdiv@divisor+1
  1976     07B6  0825               	movf	itoa@div,w
  1977     07B7  00F0               	movwf	___awdiv@divisor
  1978     07B8  087A               	movf	itoa@d+1,w
  1979     07B9  00F3               	movwf	___awdiv@dividend+1
  1980     07BA  0879               	movf	itoa@d,w
  1981     07BB  00F2               	movwf	___awdiv@dividend
  1982     07BC  3186  2675  3187   	fcall	___awdiv
  1983     07BF  0871               	movf	?___awdiv+1,w
  1984     07C0  0020               	movlb	0	; select bank0
  1985     07C1  00A1               	movwf	itoa@num+1
  1986     07C2  0870               	movf	?___awdiv,w
  1987     07C3  00A0               	movwf	itoa@num
  1988                           
  1989                           ;EUSART.c: 168:         d %= div;
  1990     07C4  0826               	movf	itoa@div+1,w
  1991     07C5  00F1               	movwf	___awmod@divisor+1
  1992     07C6  0825               	movf	itoa@div,w
  1993     07C7  00F0               	movwf	___awmod@divisor
  1994     07C8  087A               	movf	itoa@d+1,w
  1995     07C9  00F3               	movwf	___awmod@dividend+1
  1996     07CA  0879               	movf	itoa@d,w
  1997     07CB  00F2               	movwf	___awmod@dividend
  1998     07CC  3186  2622  3187   	fcall	___awmod
  1999     07CF  0871               	movf	?___awmod+1,w
  2000     07D0  00FA               	movwf	itoa@d+1
  2001     07D1  0870               	movf	?___awmod,w
  2002     07D2  00F9               	movwf	itoa@d
  2003                           
  2004                           ;EUSART.c: 169:         div /= 10;
  2005     07D3  300A               	movlw	10
  2006     07D4  00F0               	movwf	___awdiv@divisor
  2007     07D5  3000               	movlw	0
  2008     07D6  00F1               	movwf	___awdiv@divisor+1
  2009     07D7  0020               	movlb	0	; select bank0
  2010     07D8  0826               	movf	itoa@div+1,w
  2011     07D9  00F3               	movwf	___awdiv@dividend+1
  2012     07DA  0825               	movf	itoa@div,w
  2013     07DB  00F2               	movwf	___awdiv@dividend
  2014     07DC  3186  2675  3187   	fcall	___awdiv
  2015     07DF  0871               	movf	?___awdiv+1,w
  2016     07E0  0020               	movlb	0	; select bank0
  2017     07E1  00A6               	movwf	itoa@div+1
  2018     07E2  0870               	movf	?___awdiv,w
  2019     07E3  00A5               	movwf	itoa@div
  2020     07E4                     l1091:
  2021                           
  2022                           ;EUSART.c: 170:         *((*buf)++) = num + '0';
  2023     07E4  0824               	movf	itoa@buf,w
  2024     07E5  0086               	movwf	6
  2025     07E6  0187               	clrf	7
  2026     07E7  3F40               	moviw [0]fsr1
  2027     07E8  0084               	movwf	4
  2028     07E9  0185               	clrf	5
  2029     07EA  0A81               	incf	1,f
  2030     07EB  0820               	movf	itoa@num,w
  2031     07EC  3E30               	addlw	48
  2032     07ED  0080               	movwf	0
  2033     07EE                     l1093:
  2034                           
  2035                           ;EUSART.c: 165:     while (div != 0)
  2036     07EE  0020               	movlb	0	; select bank0
  2037     07EF  0825               	movf	itoa@div,w
  2038     07F0  0426               	iorwf	itoa@div+1,w
  2039     07F1  1D03               	btfss	3,2
  2040     07F2  2FF4               	goto	u721
  2041     07F3  2FF5               	goto	u720
  2042     07F4                     u721:
  2043     07F4  2FB4               	goto	l1089
  2044     07F5                     u720:
  2045     07F5                     l1095:
  2046                           
  2047                           ;EUSART.c: 172:     *(*buf) = '\0';
  2048     07F5  0824               	movf	itoa@buf,w
  2049     07F6  0086               	movwf	6
  2050     07F7  0187               	clrf	7
  2051     07F8  0801               	movf	1,w
  2052     07F9  0086               	movwf	6
  2053     07FA  0187               	clrf	7
  2054     07FB  0181               	clrf	1
  2055     07FC                     l151:
  2056     07FC  0008               	return
  2057     07FD                     __end_of_itoa:
  2058                           
  2059                           	psect	text6
  2060     050A                     __ptext6:	
  2061 ;; *************** function ___wmul *****************
  2062 ;; Defined at:
  2063 ;;		line 15 in file "C:\Program Files\Microchip\xc8\v2.45\pic\sources\c99\common\Umul16.c"
  2064 ;; Parameters:    Size  Location     Type
  2065 ;;  multiplier      2    0[COMMON] unsigned int 
  2066 ;;  multiplicand    2    2[COMMON] unsigned int 
  2067 ;; Auto vars:     Size  Location     Type
  2068 ;;  product         2    4[COMMON] unsigned int 
  2069 ;; Return value:  Size  Location     Type
  2070 ;;                  2    0[COMMON] unsigned int 
  2071 ;; Registers used:
  2072 ;;		wreg, status,2, status,0
  2073 ;; Tracked objects:
  2074 ;;		On entry : 0/0
  2075 ;;		On exit  : 0/0
  2076 ;;		Unchanged: 0/0
  2077 ;; Data sizes:     COMMON   BANK0   BANK1   BANK2   BANK3   BANK4   BANK5   BANK6   BANK7   BANK8   BANK9  BANK10  BANK1
      +1  BANK12  BANK13  BANK14  BANK15  BANK16  BANK17  BANK18  BANK19  BANK20  BANK21  BANK22  BANK23  BANK24  BANK25
  2078 ;;      Params:         4       0       0       0       0       0       0       0       0       0       0       0       
      +0       0       0       0       0       0       0       0       0       0       0       0       0       0       0
  2079 ;;      Locals:         2       0       0       0       0       0       0       0       0       0       0       0       
      +0       0       0       0       0       0       0       0       0       0       0       0       0       0       0
  2080 ;;      Temps:          0       0       0       0       0       0       0       0       0       0       0       0       
      +0       0       0       0       0       0       0       0       0       0       0       0       0       0       0
  2081 ;;      Totals:         6       0       0       0       0       0       0       0       0       0       0       0       
      +0       0       0       0       0       0       0       0       0       0       0       0       0       0       0
  2082 ;;Total ram usage:        6 bytes
  2083 ;; Hardware stack levels used: 1
  2084 ;; This function calls:
  2085 ;;		Nothing
  2086 ;; This function is called by:
  2087 ;;		_itoa
  2088 ;; This function uses a non-reentrant model
  2089 ;;
  2090                           
  2091     050A                     ___wmul:	
  2092                           ;psect for function ___wmul
  2093                           
  2094     050A                     l977:	
  2095                           ;incstack = 0
  2096                           ; Regs used in ___wmul: [wreg+status,2+status,0]
  2097                           
  2098     050A  01F4               	clrf	___wmul@product
  2099     050B  01F5               	clrf	___wmul@product+1
  2100     050C                     l979:
  2101     050C  1C70               	btfss	___wmul@multiplier,0
  2102     050D  2D0F               	goto	u461
  2103     050E  2D10               	goto	u460
  2104     050F                     u461:
  2105     050F  2D14               	goto	l225
  2106     0510                     u460:
  2107     0510                     l981:
  2108     0510  0872               	movf	___wmul@multiplicand,w
  2109     0511  07F4               	addwf	___wmul@product,f
  2110     0512  0873               	movf	___wmul@multiplicand+1,w
  2111     0513  3DF5               	addwfc	___wmul@product+1,f
  2112     0514                     l225:
  2113     0514  3001               	movlw	1
  2114     0515                     u475:
  2115     0515  35F2               	lslf	___wmul@multiplicand,f
  2116     0516  0DF3               	rlf	___wmul@multiplicand+1,f
  2117     0517  0B89               	decfsz	9,f
  2118     0518  2D15               	goto	u475
  2119     0519                     l983:
  2120     0519  3001               	movlw	1
  2121     051A                     u485:
  2122     051A  36F1               	lsrf	___wmul@multiplier+1,f
  2123     051B  0CF0               	rrf	___wmul@multiplier,f
  2124     051C  0B89               	decfsz	9,f
  2125     051D  2D1A               	goto	u485
  2126     051E                     l985:
  2127     051E  0870               	movf	___wmul@multiplier,w
  2128     051F  0471               	iorwf	___wmul@multiplier+1,w
  2129     0520  1D03               	btfss	3,2
  2130     0521  2D23               	goto	u491
  2131     0522  2D24               	goto	u490
  2132     0523                     u491:
  2133     0523  2D0C               	goto	l979
  2134     0524                     u490:
  2135     0524                     l987:
  2136     0524  0875               	movf	___wmul@product+1,w
  2137     0525  00F1               	movwf	?___wmul+1
  2138     0526  0874               	movf	___wmul@product,w
  2139     0527  00F0               	movwf	?___wmul
  2140     0528                     l227:
  2141     0528  0008               	return
  2142     0529                     __end_of___wmul:
  2143                           
  2144                           	psect	text7
  2145     0622                     __ptext7:	
  2146 ;; *************** function ___awmod *****************
  2147 ;; Defined at:
  2148 ;;		line 5 in file "C:\Program Files\Microchip\xc8\v2.45\pic\sources\c99\common\awmod.c"
  2149 ;; Parameters:    Size  Location     Type
  2150 ;;  divisor         2    0[COMMON] int 
  2151 ;;  dividend        2    2[COMMON] int 
  2152 ;; Auto vars:     Size  Location     Type
  2153 ;;  sign            1    6[COMMON] unsigned char 
  2154 ;;  counter         1    5[COMMON] unsigned char 
  2155 ;; Return value:  Size  Location     Type
  2156 ;;                  2    0[COMMON] int 
  2157 ;; Registers used:
  2158 ;;		wreg, status,2, status,0
  2159 ;; Tracked objects:
  2160 ;;		On entry : 0/0
  2161 ;;		On exit  : 0/0
  2162 ;;		Unchanged: 0/0
  2163 ;; Data sizes:     COMMON   BANK0   BANK1   BANK2   BANK3   BANK4   BANK5   BANK6   BANK7   BANK8   BANK9  BANK10  BANK1
      +1  BANK12  BANK13  BANK14  BANK15  BANK16  BANK17  BANK18  BANK19  BANK20  BANK21  BANK22  BANK23  BANK24  BANK25
  2164 ;;      Params:         4       0       0       0       0       0       0       0       0       0       0       0       
      +0       0       0       0       0       0       0       0       0       0       0       0       0       0       0
  2165 ;;      Locals:         2       0       0       0       0       0       0       0       0       0       0       0       
      +0       0       0       0       0       0       0       0       0       0       0       0       0       0       0
  2166 ;;      Temps:          1       0       0       0       0       0       0       0       0       0       0       0       
      +0       0       0       0       0       0       0       0       0       0       0       0       0       0       0
  2167 ;;      Totals:         7       0       0       0       0       0       0       0       0       0       0       0       
      +0       0       0       0       0       0       0       0       0       0       0       0       0       0       0
  2168 ;;Total ram usage:        7 bytes
  2169 ;; Hardware stack levels used: 1
  2170 ;; This function calls:
  2171 ;;		Nothing
  2172 ;; This function is called by:
  2173 ;;		_itoa
  2174 ;; This function uses a non-reentrant model
  2175 ;;
  2176                           
  2177     0622                     ___awmod:	
  2178                           ;psect for function ___awmod
  2179                           
  2180     0622                     l1035:	
  2181                           ;incstack = 0
  2182                           ; Regs used in ___awmod: [wreg+status,2+status,0]
  2183                           
  2184     0622  01F6               	clrf	___awmod@sign
  2185     0623                     l1037:
  2186     0623  1FF3               	btfss	___awmod@dividend+1,7
  2187     0624  2E26               	goto	u601
  2188     0625  2E27               	goto	u600
  2189     0626                     u601:
  2190     0626  2E2E               	goto	l1043
  2191     0627                     u600:
  2192     0627                     l1039:
  2193     0627  09F2               	comf	___awmod@dividend,f
  2194     0628  09F3               	comf	___awmod@dividend+1,f
  2195     0629  0AF2               	incf	___awmod@dividend,f
  2196     062A  1903               	skipnz
  2197     062B  0AF3               	incf	___awmod@dividend+1,f
  2198     062C                     l1041:
  2199     062C  01F6               	clrf	___awmod@sign
  2200     062D  0AF6               	incf	___awmod@sign,f
  2201     062E                     l1043:
  2202     062E  1FF1               	btfss	___awmod@divisor+1,7
  2203     062F  2E31               	goto	u611
  2204     0630  2E32               	goto	u610
  2205     0631                     u611:
  2206     0631  2E37               	goto	l1047
  2207     0632                     u610:
  2208     0632                     l1045:
  2209     0632  09F0               	comf	___awmod@divisor,f
  2210     0633  09F1               	comf	___awmod@divisor+1,f
  2211     0634  0AF0               	incf	___awmod@divisor,f
  2212     0635  1903               	skipnz
  2213     0636  0AF1               	incf	___awmod@divisor+1,f
  2214     0637                     l1047:
  2215     0637  0870               	movf	___awmod@divisor,w
  2216     0638  0471               	iorwf	___awmod@divisor+1,w
  2217     0639  1903               	btfsc	3,2
  2218     063A  2E3C               	goto	u621
  2219     063B  2E3D               	goto	u620
  2220     063C                     u621:
  2221     063C  2E66               	goto	l1065
  2222     063D                     u620:
  2223     063D                     l1049:
  2224     063D  01F5               	clrf	___awmod@counter
  2225     063E  0AF5               	incf	___awmod@counter,f
  2226     063F  2E49               	goto	l1055
  2227     0640                     l1051:
  2228     0640  3001               	movlw	1
  2229     0641                     u635:
  2230     0641  35F0               	lslf	___awmod@divisor,f
  2231     0642  0DF1               	rlf	___awmod@divisor+1,f
  2232     0643  0B89               	decfsz	9,f
  2233     0644  2E41               	goto	u635
  2234     0645                     l1053:
  2235     0645  3001               	movlw	1
  2236     0646  00F4               	movwf	??___awmod
  2237     0647  0874               	movf	??___awmod,w
  2238     0648  07F5               	addwf	___awmod@counter,f
  2239     0649                     l1055:
  2240     0649  1FF1               	btfss	___awmod@divisor+1,7
  2241     064A  2E4C               	goto	u641
  2242     064B  2E4D               	goto	u640
  2243     064C                     u641:
  2244     064C  2E40               	goto	l1051
  2245     064D                     u640:
  2246     064D                     l1057:
  2247     064D  0871               	movf	___awmod@divisor+1,w
  2248     064E  0273               	subwf	___awmod@dividend+1,w
  2249     064F  1D03               	skipz
  2250     0650  2E53               	goto	u655
  2251     0651  0870               	movf	___awmod@divisor,w
  2252     0652  0272               	subwf	___awmod@dividend,w
  2253     0653                     u655:
  2254     0653  1C03               	skipc
  2255     0654  2E56               	goto	u651
  2256     0655  2E57               	goto	u650
  2257     0656                     u651:
  2258     0656  2E5B               	goto	l1061
  2259     0657                     u650:
  2260     0657                     l1059:
  2261     0657  0870               	movf	___awmod@divisor,w
  2262     0658  02F2               	subwf	___awmod@dividend,f
  2263     0659  0871               	movf	___awmod@divisor+1,w
  2264     065A  3BF3               	subwfb	___awmod@dividend+1,f
  2265     065B                     l1061:
  2266     065B  3001               	movlw	1
  2267     065C                     u665:
  2268     065C  36F1               	lsrf	___awmod@divisor+1,f
  2269     065D  0CF0               	rrf	___awmod@divisor,f
  2270     065E  0B89               	decfsz	9,f
  2271     065F  2E5C               	goto	u665
  2272     0660                     l1063:
  2273     0660  3001               	movlw	1
  2274     0661  02F5               	subwf	___awmod@counter,f
  2275     0662  1D03               	btfss	3,2
  2276     0663  2E65               	goto	u671
  2277     0664  2E66               	goto	u670
  2278     0665                     u671:
  2279     0665  2E4D               	goto	l1057
  2280     0666                     u670:
  2281     0666                     l1065:
  2282     0666  0876               	movf	___awmod@sign,w
  2283     0667  1903               	btfsc	3,2
  2284     0668  2E6A               	goto	u681
  2285     0669  2E6B               	goto	u680
  2286     066A                     u681:
  2287     066A  2E70               	goto	l1069
  2288     066B                     u680:
  2289     066B                     l1067:
  2290     066B  09F2               	comf	___awmod@dividend,f
  2291     066C  09F3               	comf	___awmod@dividend+1,f
  2292     066D  0AF2               	incf	___awmod@dividend,f
  2293     066E  1903               	skipnz
  2294     066F  0AF3               	incf	___awmod@dividend+1,f
  2295     0670                     l1069:
  2296     0670  0873               	movf	___awmod@dividend+1,w
  2297     0671  00F1               	movwf	?___awmod+1
  2298     0672  0872               	movf	___awmod@dividend,w
  2299     0673  00F0               	movwf	?___awmod
  2300     0674                     l391:
  2301     0674  0008               	return
  2302     0675                     __end_of___awmod:
  2303                           
  2304                           	psect	text8
  2305     0675                     __ptext8:	
  2306 ;; *************** function ___awdiv *****************
  2307 ;; Defined at:
  2308 ;;		line 5 in file "C:\Program Files\Microchip\xc8\v2.45\pic\sources\c99\common\awdiv.c"
  2309 ;; Parameters:    Size  Location     Type
  2310 ;;  divisor         2    0[COMMON] int 
  2311 ;;  dividend        2    2[COMMON] int 
  2312 ;; Auto vars:     Size  Location     Type
  2313 ;;  quotient        2    7[COMMON] int 
  2314 ;;  sign            1    6[COMMON] unsigned char 
  2315 ;;  counter         1    5[COMMON] unsigned char 
  2316 ;; Return value:  Size  Location     Type
  2317 ;;                  2    0[COMMON] int 
  2318 ;; Registers used:
  2319 ;;		wreg, status,2, status,0
  2320 ;; Tracked objects:
  2321 ;;		On entry : 0/0
  2322 ;;		On exit  : 0/0
  2323 ;;		Unchanged: 0/0
  2324 ;; Data sizes:     COMMON   BANK0   BANK1   BANK2   BANK3   BANK4   BANK5   BANK6   BANK7   BANK8   BANK9  BANK10  BANK1
      +1  BANK12  BANK13  BANK14  BANK15  BANK16  BANK17  BANK18  BANK19  BANK20  BANK21  BANK22  BANK23  BANK24  BANK25
  2325 ;;      Params:         4       0       0       0       0       0       0       0       0       0       0       0       
      +0       0       0       0       0       0       0       0       0       0       0       0       0       0       0
  2326 ;;      Locals:         4       0       0       0       0       0       0       0       0       0       0       0       
      +0       0       0       0       0       0       0       0       0       0       0       0       0       0       0
  2327 ;;      Temps:          1       0       0       0       0       0       0       0       0       0       0       0       
      +0       0       0       0       0       0       0       0       0       0       0       0       0       0       0
  2328 ;;      Totals:         9       0       0       0       0       0       0       0       0       0       0       0       
      +0       0       0       0       0       0       0       0       0       0       0       0       0       0       0
  2329 ;;Total ram usage:        9 bytes
  2330 ;; Hardware stack levels used: 1
  2331 ;; This function calls:
  2332 ;;		Nothing
  2333 ;; This function is called by:
  2334 ;;		_itoa
  2335 ;; This function uses a non-reentrant model
  2336 ;;
  2337                           
  2338     0675                     ___awdiv:	
  2339                           ;psect for function ___awdiv
  2340                           
  2341     0675                     l991:	
  2342                           ;incstack = 0
  2343                           ; Regs used in ___awdiv: [wreg+status,2+status,0]
  2344                           
  2345     0675  01F6               	clrf	___awdiv@sign
  2346     0676                     l993:
  2347     0676  1FF1               	btfss	___awdiv@divisor+1,7
  2348     0677  2E79               	goto	u501
  2349     0678  2E7A               	goto	u500
  2350     0679                     u501:
  2351     0679  2E81               	goto	l999
  2352     067A                     u500:
  2353     067A                     l995:
  2354     067A  09F0               	comf	___awdiv@divisor,f
  2355     067B  09F1               	comf	___awdiv@divisor+1,f
  2356     067C  0AF0               	incf	___awdiv@divisor,f
  2357     067D  1903               	skipnz
  2358     067E  0AF1               	incf	___awdiv@divisor+1,f
  2359     067F                     l997:
  2360     067F  01F6               	clrf	___awdiv@sign
  2361     0680  0AF6               	incf	___awdiv@sign,f
  2362     0681                     l999:
  2363     0681  1FF3               	btfss	___awdiv@dividend+1,7
  2364     0682  2E84               	goto	u511
  2365     0683  2E85               	goto	u510
  2366     0684                     u511:
  2367     0684  2E8E               	goto	l1005
  2368     0685                     u510:
  2369     0685                     l1001:
  2370     0685  09F2               	comf	___awdiv@dividend,f
  2371     0686  09F3               	comf	___awdiv@dividend+1,f
  2372     0687  0AF2               	incf	___awdiv@dividend,f
  2373     0688  1903               	skipnz
  2374     0689  0AF3               	incf	___awdiv@dividend+1,f
  2375     068A                     l1003:
  2376     068A  3001               	movlw	1
  2377     068B  00F4               	movwf	??___awdiv
  2378     068C  0874               	movf	??___awdiv,w
  2379     068D  06F6               	xorwf	___awdiv@sign,f
  2380     068E                     l1005:
  2381     068E  01F7               	clrf	___awdiv@quotient
  2382     068F  01F8               	clrf	___awdiv@quotient+1
  2383     0690                     l1007:
  2384     0690  0870               	movf	___awdiv@divisor,w
  2385     0691  0471               	iorwf	___awdiv@divisor+1,w
  2386     0692  1903               	btfsc	3,2
  2387     0693  2E95               	goto	u521
  2388     0694  2E96               	goto	u520
  2389     0695                     u521:
  2390     0695  2EC5               	goto	l1027
  2391     0696                     u520:
  2392     0696                     l1009:
  2393     0696  01F5               	clrf	___awdiv@counter
  2394     0697  0AF5               	incf	___awdiv@counter,f
  2395     0698  2EA2               	goto	l1015
  2396     0699                     l1011:
  2397     0699  3001               	movlw	1
  2398     069A                     u535:
  2399     069A  35F0               	lslf	___awdiv@divisor,f
  2400     069B  0DF1               	rlf	___awdiv@divisor+1,f
  2401     069C  0B89               	decfsz	9,f
  2402     069D  2E9A               	goto	u535
  2403     069E                     l1013:
  2404     069E  3001               	movlw	1
  2405     069F  00F4               	movwf	??___awdiv
  2406     06A0  0874               	movf	??___awdiv,w
  2407     06A1  07F5               	addwf	___awdiv@counter,f
  2408     06A2                     l1015:
  2409     06A2  1FF1               	btfss	___awdiv@divisor+1,7
  2410     06A3  2EA5               	goto	u541
  2411     06A4  2EA6               	goto	u540
  2412     06A5                     u541:
  2413     06A5  2E99               	goto	l1011
  2414     06A6                     u540:
  2415     06A6                     l1017:
  2416     06A6  3001               	movlw	1
  2417     06A7                     u555:
  2418     06A7  35F7               	lslf	___awdiv@quotient,f
  2419     06A8  0DF8               	rlf	___awdiv@quotient+1,f
  2420     06A9  0B89               	decfsz	9,f
  2421     06AA  2EA7               	goto	u555
  2422     06AB  0871               	movf	___awdiv@divisor+1,w
  2423     06AC  0273               	subwf	___awdiv@dividend+1,w
  2424     06AD  1D03               	skipz
  2425     06AE  2EB1               	goto	u565
  2426     06AF  0870               	movf	___awdiv@divisor,w
  2427     06B0  0272               	subwf	___awdiv@dividend,w
  2428     06B1                     u565:
  2429     06B1  1C03               	skipc
  2430     06B2  2EB4               	goto	u561
  2431     06B3  2EB5               	goto	u560
  2432     06B4                     u561:
  2433     06B4  2EBA               	goto	l1023
  2434     06B5                     u560:
  2435     06B5                     l1019:
  2436     06B5  0870               	movf	___awdiv@divisor,w
  2437     06B6  02F2               	subwf	___awdiv@dividend,f
  2438     06B7  0871               	movf	___awdiv@divisor+1,w
  2439     06B8  3BF3               	subwfb	___awdiv@dividend+1,f
  2440     06B9                     l1021:
  2441     06B9  1477               	bsf	___awdiv@quotient,0
  2442     06BA                     l1023:
  2443     06BA  3001               	movlw	1
  2444     06BB                     u575:
  2445     06BB  36F1               	lsrf	___awdiv@divisor+1,f
  2446     06BC  0CF0               	rrf	___awdiv@divisor,f
  2447     06BD  0B89               	decfsz	9,f
  2448     06BE  2EBB               	goto	u575
  2449     06BF                     l1025:
  2450     06BF  3001               	movlw	1
  2451     06C0  02F5               	subwf	___awdiv@counter,f
  2452     06C1  1D03               	btfss	3,2
  2453     06C2  2EC4               	goto	u581
  2454     06C3  2EC5               	goto	u580
  2455     06C4                     u581:
  2456     06C4  2EA6               	goto	l1017
  2457     06C5                     u580:
  2458     06C5                     l1027:
  2459     06C5  0876               	movf	___awdiv@sign,w
  2460     06C6  1903               	btfsc	3,2
  2461     06C7  2EC9               	goto	u591
  2462     06C8  2ECA               	goto	u590
  2463     06C9                     u591:
  2464     06C9  2ECF               	goto	l1031
  2465     06CA                     u590:
  2466     06CA                     l1029:
  2467     06CA  09F7               	comf	___awdiv@quotient,f
  2468     06CB  09F8               	comf	___awdiv@quotient+1,f
  2469     06CC  0AF7               	incf	___awdiv@quotient,f
  2470     06CD  1903               	skipnz
  2471     06CE  0AF8               	incf	___awdiv@quotient+1,f
  2472     06CF                     l1031:
  2473     06CF  0878               	movf	___awdiv@quotient+1,w
  2474     06D0  00F1               	movwf	?___awdiv+1
  2475     06D1  0877               	movf	___awdiv@quotient,w
  2476     06D2  00F0               	movwf	?___awdiv
  2477     06D3                     l378:
  2478     06D3  0008               	return
  2479     06D4                     __end_of___awdiv:
  2480                           
  2481                           	psect	text9
  2482     04E3                     __ptext9:	
  2483 ;; *************** function _EUSART_Write *****************
  2484 ;; Defined at:
  2485 ;;		line 108 in file "EUSART.c"
  2486 ;; Parameters:    Size  Location     Type
  2487 ;;  txData          1    wreg     unsigned char 
  2488 ;; Auto vars:     Size  Location     Type
  2489 ;;  txData          1    0[COMMON] unsigned char 
  2490 ;; Return value:  Size  Location     Type
  2491 ;;                  1    wreg      void 
  2492 ;; Registers used:
  2493 ;;		wreg
  2494 ;; Tracked objects:
  2495 ;;		On entry : 0/0
  2496 ;;		On exit  : 0/0
  2497 ;;		Unchanged: 0/0
  2498 ;; Data sizes:     COMMON   BANK0   BANK1   BANK2   BANK3   BANK4   BANK5   BANK6   BANK7   BANK8   BANK9  BANK10  BANK1
      +1  BANK12  BANK13  BANK14  BANK15  BANK16  BANK17  BANK18  BANK19  BANK20  BANK21  BANK22  BANK23  BANK24  BANK25
  2499 ;;      Params:         0       0       0       0       0       0       0       0       0       0       0       0       
      +0       0       0       0       0       0       0       0       0       0       0       0       0       0       0
  2500 ;;      Locals:         1       0       0       0       0       0       0       0       0       0       0       0       
      +0       0       0       0       0       0       0       0       0       0       0       0       0       0       0
  2501 ;;      Temps:          0       0       0       0       0       0       0       0       0       0       0       0       
      +0       0       0       0       0       0       0       0       0       0       0       0       0       0       0
  2502 ;;      Totals:         1       0       0       0       0       0       0       0       0       0       0       0       
      +0       0       0       0       0       0       0       0       0       0       0       0       0       0       0
  2503 ;;Total ram usage:        1 bytes
  2504 ;; Hardware stack levels used: 1
  2505 ;; This function calls:
  2506 ;;		Nothing
  2507 ;; This function is called by:
  2508 ;;		_EUSART_Write_Text
  2509 ;;		_EUSART_Write_Integer
  2510 ;; This function uses a non-reentrant model
  2511 ;;
  2512                           
  2513     04E3                     _EUSART_Write:	
  2514                           ;psect for function _EUSART_Write
  2515                           
  2516                           
  2517                           ;incstack = 0
  2518                           ; Regs used in _EUSART_Write: [wreg]
  2519                           ;EUSART_Write@txData stored from wreg
  2520     04E3  00F0               	movwf	EUSART_Write@txData
  2521     04E4                     l1075:
  2522     04E4                     l132:	
  2523                           ;EUSART.c: 111:     {;EUSART.c: 112:     }
  2524                           
  2525                           
  2526                           ;EUSART.c: 110:     while(0 == PIR1bits.TXIF)
  2527     04E4  0020               	movlb	0	; select bank0
  2528     04E5  1E11               	btfss	17,4	;volatile
  2529     04E6  2CE8               	goto	u691
  2530     04E7  2CE9               	goto	u690
  2531     04E8                     u691:
  2532     04E8  2CE4               	goto	l132
  2533     04E9                     u690:
  2534     04E9                     l1077:
  2535                           
  2536                           ;EUSART.c: 114:     TX1REG = txData;
  2537     04E9  0870               	movf	EUSART_Write@txData,w
  2538     04EA  0023               	movlb	3	; select bank3
  2539     04EB  009A               	movwf	26	;volatile
  2540     04EC                     l135:
  2541     04EC  0008               	return
  2542     04ED                     __end_of_EUSART_Write:
  2543                           
  2544                           	psect	text10
  2545     05D2                     __ptext10:	
  2546 ;; *************** function _EUSART_Initialize *****************
  2547 ;; Defined at:
  2548 ;;		line 36 in file "EUSART.c"
  2549 ;; Parameters:    Size  Location     Type
  2550 ;;  baudrate        4    6[BANK0 ] const long 
  2551 ;; Auto vars:     Size  Location     Type
  2552 ;;  x               2    9[COMMON] unsigned int 
  2553 ;; Return value:  Size  Location     Type
  2554 ;;                  1    wreg      unsigned char 
  2555 ;; Registers used:
  2556 ;;		wreg, status,2, status,0, pclath, cstack
  2557 ;; Tracked objects:
  2558 ;;		On entry : 0/0
  2559 ;;		On exit  : 0/0
  2560 ;;		Unchanged: 0/0
  2561 ;; Data sizes:     COMMON   BANK0   BANK1   BANK2   BANK3   BANK4   BANK5   BANK6   BANK7   BANK8   BANK9  BANK10  BANK1
      +1  BANK12  BANK13  BANK14  BANK15  BANK16  BANK17  BANK18  BANK19  BANK20  BANK21  BANK22  BANK23  BANK24  BANK25
  2562 ;;      Params:         0       4       0       0       0       0       0       0       0       0       0       0       
      +0       0       0       0       0       0       0       0       0       0       0       0       0       0       0
  2563 ;;      Locals:         2       0       0       0       0       0       0       0       0       0       0       0       
      +0       0       0       0       0       0       0       0       0       0       0       0       0       0       0
  2564 ;;      Temps:          0      12       0       0       0       0       0       0       0       0       0       0       
      +0       0       0       0       0       0       0       0       0       0       0       0       0       0       0
  2565 ;;      Totals:         2      16       0       0       0       0       0       0       0       0       0       0       
      +0       0       0       0       0       0       0       0       0       0       0       0       0       0       0
  2566 ;;Total ram usage:       18 bytes
  2567 ;; Hardware stack levels used: 1
  2568 ;; Hardware stack levels required when called: 1
  2569 ;; This function calls:
  2570 ;;		___aldiv
  2571 ;; This function is called by:
  2572 ;;		_main
  2573 ;; This function uses a non-reentrant model
  2574 ;;
  2575                           
  2576     05D2                     _EUSART_Initialize:	
  2577                           ;psect for function _EUSART_Initialize
  2578                           
  2579     05D2                     l1187:	
  2580                           ;incstack = 0
  2581                           ; Regs used in _EUSART_Initialize: [wreg+status,2+status,0+pclath+cstack]
  2582                           
  2583                           
  2584                           ;EUSART.c: 36: char EUSART_Initialize(const long int baudrate);EUSART.c: 37: {;EUSART.c:
      +                           38:     unsigned int x;;EUSART.c: 39:  x = (32000000 - baudrate*64)/(baudrate*64);
  2585     05D2  0020               	movlb	0	; select bank0
  2586     05D3  0826               	movf	EUSART_Initialize@baudrate,w
  2587     05D4  00AA               	movwf	??_EUSART_Initialize
  2588     05D5  0827               	movf	EUSART_Initialize@baudrate+1,w
  2589     05D6  00AB               	movwf	??_EUSART_Initialize+1
  2590     05D7  0828               	movf	EUSART_Initialize@baudrate+2,w
  2591     05D8  00AC               	movwf	??_EUSART_Initialize+2
  2592     05D9  0829               	movf	EUSART_Initialize@baudrate+3,w
  2593     05DA  00AD               	movwf	??_EUSART_Initialize+3
  2594     05DB  3006               	movlw	6
  2595     05DC                     u835:
  2596     05DC  35AA               	lslf	??_EUSART_Initialize,f
  2597     05DD  0DAB               	rlf	??_EUSART_Initialize+1,f
  2598     05DE  0DAC               	rlf	??_EUSART_Initialize+2,f
  2599     05DF  0DAD               	rlf	??_EUSART_Initialize+3,f
  2600     05E0                     u830:
  2601     05E0  0B89               	decfsz	9,f
  2602     05E1  2DDC               	goto	u835
  2603     05E2  082D               	movf	??_EUSART_Initialize+3,w
  2604     05E3  00F3               	movwf	___aldiv@divisor+3
  2605     05E4  082C               	movf	??_EUSART_Initialize+2,w
  2606     05E5  00F2               	movwf	___aldiv@divisor+2
  2607     05E6  082B               	movf	??_EUSART_Initialize+1,w
  2608     05E7  00F1               	movwf	___aldiv@divisor+1
  2609     05E8  082A               	movf	??_EUSART_Initialize,w
  2610     05E9  00F0               	movwf	___aldiv@divisor
  2611     05EA  0826               	movf	EUSART_Initialize@baudrate,w
  2612     05EB  00AE               	movwf	??_EUSART_Initialize+4
  2613     05EC  0827               	movf	EUSART_Initialize@baudrate+1,w
  2614     05ED  00AF               	movwf	??_EUSART_Initialize+5
  2615     05EE  0828               	movf	EUSART_Initialize@baudrate+2,w
  2616     05EF  00B0               	movwf	??_EUSART_Initialize+6
  2617     05F0  0829               	movf	EUSART_Initialize@baudrate+3,w
  2618     05F1  00B1               	movwf	??_EUSART_Initialize+7
  2619     05F2  3006               	movlw	6
  2620     05F3                     u845:
  2621     05F3  35AE               	lslf	??_EUSART_Initialize+4,f
  2622     05F4  0DAF               	rlf	??_EUSART_Initialize+5,f
  2623     05F5  0DB0               	rlf	??_EUSART_Initialize+6,f
  2624     05F6  0DB1               	rlf	??_EUSART_Initialize+7,f
  2625     05F7                     u840:
  2626     05F7  0B89               	decfsz	9,f
  2627     05F8  2DF3               	goto	u845
  2628     05F9  3000               	movlw	0
  2629     05FA  00B2               	movwf	??_EUSART_Initialize+8
  2630     05FB  3048               	movlw	72
  2631     05FC  00B3               	movwf	??_EUSART_Initialize+9
  2632     05FD  30E8               	movlw	232
  2633     05FE  00B4               	movwf	??_EUSART_Initialize+10
  2634     05FF  3001               	movlw	1
  2635     0600  00B5               	movwf	??_EUSART_Initialize+11
  2636     0601  082E               	movf	??_EUSART_Initialize+4,w
  2637     0602  02B2               	subwf	??_EUSART_Initialize+8,f
  2638     0603  082F               	movf	??_EUSART_Initialize+5,w
  2639     0604  3BB3               	subwfb	??_EUSART_Initialize+9,f
  2640     0605  0830               	movf	??_EUSART_Initialize+6,w
  2641     0606  3BB4               	subwfb	??_EUSART_Initialize+10,f
  2642     0607  0831               	movf	??_EUSART_Initialize+7,w
  2643     0608  3BB5               	subwfb	??_EUSART_Initialize+11,f
  2644     0609  0835               	movf	??_EUSART_Initialize+11,w
  2645     060A  00F7               	movwf	___aldiv@dividend+3
  2646     060B  0834               	movf	??_EUSART_Initialize+10,w
  2647     060C  00F6               	movwf	___aldiv@dividend+2
  2648     060D  0833               	movf	??_EUSART_Initialize+9,w
  2649     060E  00F5               	movwf	___aldiv@dividend+1
  2650     060F  0832               	movf	??_EUSART_Initialize+8,w
  2651     0610  00F4               	movwf	___aldiv@dividend
  2652     0611  3186  26D4  3185   	fcall	___aldiv
  2653     0614  0871               	movf	?___aldiv+1,w
  2654     0615  00FA               	movwf	EUSART_Initialize@x+1
  2655     0616  0870               	movf	?___aldiv,w
  2656     0617  00F9               	movwf	EUSART_Initialize@x
  2657     0618                     l1189:
  2658                           
  2659                           ;EUSART.c: 41:  SPBRGL = x;
  2660     0618  0879               	movf	EUSART_Initialize@x,w
  2661     0619  0023               	movlb	3	; select bank3
  2662     061A  009B               	movwf	27	;volatile
  2663     061B                     l1191:
  2664                           
  2665                           ;EUSART.c: 42:     BRGH = 0;
  2666     061B  111E               	bcf	30,2	;volatile
  2667     061C                     l1193:
  2668                           
  2669                           ;EUSART.c: 43:     BRG16 = 0;
  2670     061C  119F               	bcf	31,3	;volatile
  2671     061D                     l1195:
  2672                           
  2673                           ;EUSART.c: 44:     SYNC = 0;
  2674     061D  121E               	bcf	30,4	;volatile
  2675     061E                     l1197:
  2676                           
  2677                           ;EUSART.c: 45:     SPEN = 1;
  2678     061E  179D               	bsf	29,7	;volatile
  2679     061F                     l1199:
  2680                           
  2681                           ;EUSART.c: 46:     CREN = 1;
  2682     061F  161D               	bsf	29,4	;volatile
  2683     0620                     l1201:
  2684                           
  2685                           ;EUSART.c: 47:     TXEN = 1;
  2686     0620  169E               	bsf	30,5	;volatile
  2687     0621                     l116:
  2688     0621  0008               	return
  2689     0622                     __end_of_EUSART_Initialize:
  2690                           
  2691                           	psect	text11
  2692     06D4                     __ptext11:	
  2693 ;; *************** function ___aldiv *****************
  2694 ;; Defined at:
  2695 ;;		line 5 in file "C:\Program Files\Microchip\xc8\v2.45\pic\sources\c99\common\aldiv.c"
  2696 ;; Parameters:    Size  Location     Type
  2697 ;;  divisor         4    0[COMMON] long 
  2698 ;;  dividend        4    4[COMMON] long 
  2699 ;; Auto vars:     Size  Location     Type
  2700 ;;  quotient        4    2[BANK0 ] long 
  2701 ;;  sign            1    1[BANK0 ] unsigned char 
  2702 ;;  counter         1    0[BANK0 ] unsigned char 
  2703 ;; Return value:  Size  Location     Type
  2704 ;;                  4    0[COMMON] long 
  2705 ;; Registers used:
  2706 ;;		wreg, status,2, status,0
  2707 ;; Tracked objects:
  2708 ;;		On entry : 0/0
  2709 ;;		On exit  : 0/0
  2710 ;;		Unchanged: 0/0
  2711 ;; Data sizes:     COMMON   BANK0   BANK1   BANK2   BANK3   BANK4   BANK5   BANK6   BANK7   BANK8   BANK9  BANK10  BANK1
      +1  BANK12  BANK13  BANK14  BANK15  BANK16  BANK17  BANK18  BANK19  BANK20  BANK21  BANK22  BANK23  BANK24  BANK25
  2712 ;;      Params:         8       0       0       0       0       0       0       0       0       0       0       0       
      +0       0       0       0       0       0       0       0       0       0       0       0       0       0       0
  2713 ;;      Locals:         0       6       0       0       0       0       0       0       0       0       0       0       
      +0       0       0       0       0       0       0       0       0       0       0       0       0       0       0
  2714 ;;      Temps:          1       0       0       0       0       0       0       0       0       0       0       0       
      +0       0       0       0       0       0       0       0       0       0       0       0       0       0       0
  2715 ;;      Totals:         9       6       0       0       0       0       0       0       0       0       0       0       
      +0       0       0       0       0       0       0       0       0       0       0       0       0       0       0
  2716 ;;Total ram usage:       15 bytes
  2717 ;; Hardware stack levels used: 1
  2718 ;; This function calls:
  2719 ;;		Nothing
  2720 ;; This function is called by:
  2721 ;;		_EUSART_Initialize
  2722 ;; This function uses a non-reentrant model
  2723 ;;
  2724                           
  2725     06D4                     ___aldiv:	
  2726                           ;psect for function ___aldiv
  2727                           
  2728     06D4                     l1097:	
  2729                           ;incstack = 0
  2730                           ; Regs used in ___aldiv: [wreg+status,2+status,0]
  2731                           
  2732     06D4  0020               	movlb	0	; select bank0
  2733     06D5  01A1               	clrf	___aldiv@sign
  2734     06D6                     l1099:
  2735     06D6  1FF3               	btfss	___aldiv@divisor+3,7
  2736     06D7  2ED9               	goto	u731
  2737     06D8  2EDA               	goto	u730
  2738     06D9                     u731:
  2739     06D9  2EE7               	goto	l290
  2740     06DA                     u730:
  2741     06DA                     l1101:
  2742     06DA  09F0               	comf	___aldiv@divisor,f
  2743     06DB  09F1               	comf	___aldiv@divisor+1,f
  2744     06DC  09F2               	comf	___aldiv@divisor+2,f
  2745     06DD  09F3               	comf	___aldiv@divisor+3,f
  2746     06DE  0AF0               	incf	___aldiv@divisor,f
  2747     06DF  1903               	skipnz
  2748     06E0  0AF1               	incf	___aldiv@divisor+1,f
  2749     06E1  1903               	skipnz
  2750     06E2  0AF2               	incf	___aldiv@divisor+2,f
  2751     06E3  1903               	skipnz
  2752     06E4  0AF3               	incf	___aldiv@divisor+3,f
  2753     06E5  01A1               	clrf	___aldiv@sign
  2754     06E6  0AA1               	incf	___aldiv@sign,f
  2755     06E7                     l290:
  2756     06E7  1FF7               	btfss	___aldiv@dividend+3,7
  2757     06E8  2EEA               	goto	u741
  2758     06E9  2EEB               	goto	u740
  2759     06EA                     u741:
  2760     06EA  2EFA               	goto	l1107
  2761     06EB                     u740:
  2762     06EB                     l1103:
  2763     06EB  09F4               	comf	___aldiv@dividend,f
  2764     06EC  09F5               	comf	___aldiv@dividend+1,f
  2765     06ED  09F6               	comf	___aldiv@dividend+2,f
  2766     06EE  09F7               	comf	___aldiv@dividend+3,f
  2767     06EF  0AF4               	incf	___aldiv@dividend,f
  2768     06F0  1903               	skipnz
  2769     06F1  0AF5               	incf	___aldiv@dividend+1,f
  2770     06F2  1903               	skipnz
  2771     06F3  0AF6               	incf	___aldiv@dividend+2,f
  2772     06F4  1903               	skipnz
  2773     06F5  0AF7               	incf	___aldiv@dividend+3,f
  2774     06F6                     l1105:
  2775     06F6  3001               	movlw	1
  2776     06F7  00F8               	movwf	??___aldiv
  2777     06F8  0878               	movf	??___aldiv,w
  2778     06F9  06A1               	xorwf	___aldiv@sign,f
  2779     06FA                     l1107:
  2780     06FA  3000               	movlw	0
  2781     06FB  00A5               	movwf	___aldiv@quotient+3
  2782     06FC  3000               	movlw	0
  2783     06FD  00A4               	movwf	___aldiv@quotient+2
  2784     06FE  3000               	movlw	0
  2785     06FF  00A3               	movwf	___aldiv@quotient+1
  2786     0700  3000               	movlw	0
  2787     0701  00A2               	movwf	___aldiv@quotient
  2788     0702                     l1109:
  2789     0702  0873               	movf	___aldiv@divisor+3,w
  2790     0703  0472               	iorwf	___aldiv@divisor+2,w
  2791     0704  0471               	iorwf	___aldiv@divisor+1,w
  2792     0705  0470               	iorwf	___aldiv@divisor,w
  2793     0706  1903               	skipnz
  2794     0707  2F09               	goto	u751
  2795     0708  2F0A               	goto	u750
  2796     0709                     u751:
  2797     0709  2F4B               	goto	l1129
  2798     070A                     u750:
  2799     070A                     l1111:
  2800     070A  01A0               	clrf	___aldiv@counter
  2801     070B  0AA0               	incf	___aldiv@counter,f
  2802     070C  2F18               	goto	l1115
  2803     070D                     l1113:
  2804     070D  3001               	movlw	1
  2805     070E                     u765:
  2806     070E  35F0               	lslf	___aldiv@divisor,f
  2807     070F  0DF1               	rlf	___aldiv@divisor+1,f
  2808     0710  0DF2               	rlf	___aldiv@divisor+2,f
  2809     0711  0DF3               	rlf	___aldiv@divisor+3,f
  2810     0712  0B89               	decfsz	9,f
  2811     0713  2F0E               	goto	u765
  2812     0714  3001               	movlw	1
  2813     0715  00F8               	movwf	??___aldiv
  2814     0716  0878               	movf	??___aldiv,w
  2815     0717  07A0               	addwf	___aldiv@counter,f
  2816     0718                     l1115:
  2817     0718  1FF3               	btfss	___aldiv@divisor+3,7
  2818     0719  2F1B               	goto	u771
  2819     071A  2F1C               	goto	u770
  2820     071B                     u771:
  2821     071B  2F0D               	goto	l1113
  2822     071C                     u770:
  2823     071C                     l1117:
  2824     071C  3001               	movlw	1
  2825     071D                     u785:
  2826     071D  35A2               	lslf	___aldiv@quotient,f
  2827     071E  0DA3               	rlf	___aldiv@quotient+1,f
  2828     071F  0DA4               	rlf	___aldiv@quotient+2,f
  2829     0720  0DA5               	rlf	___aldiv@quotient+3,f
  2830     0721  0B89               	decfsz	9,f
  2831     0722  2F1D               	goto	u785
  2832     0723                     l1119:
  2833     0723  0873               	movf	___aldiv@divisor+3,w
  2834     0724  0277               	subwf	___aldiv@dividend+3,w
  2835     0725  1D03               	skipz
  2836     0726  2F31               	goto	u795
  2837     0727  0872               	movf	___aldiv@divisor+2,w
  2838     0728  0276               	subwf	___aldiv@dividend+2,w
  2839     0729  1D03               	skipz
  2840     072A  2F31               	goto	u795
  2841     072B  0871               	movf	___aldiv@divisor+1,w
  2842     072C  0275               	subwf	___aldiv@dividend+1,w
  2843     072D  1D03               	skipz
  2844     072E  2F31               	goto	u795
  2845     072F  0870               	movf	___aldiv@divisor,w
  2846     0730  0274               	subwf	___aldiv@dividend,w
  2847     0731                     u795:
  2848     0731  1C03               	skipc
  2849     0732  2F34               	goto	u791
  2850     0733  2F35               	goto	u790
  2851     0734                     u791:
  2852     0734  2F3E               	goto	l1125
  2853     0735                     u790:
  2854     0735                     l1121:
  2855     0735  0870               	movf	___aldiv@divisor,w
  2856     0736  02F4               	subwf	___aldiv@dividend,f
  2857     0737  0871               	movf	___aldiv@divisor+1,w
  2858     0738  3BF5               	subwfb	___aldiv@dividend+1,f
  2859     0739  0872               	movf	___aldiv@divisor+2,w
  2860     073A  3BF6               	subwfb	___aldiv@dividend+2,f
  2861     073B  0873               	movf	___aldiv@divisor+3,w
  2862     073C  3BF7               	subwfb	___aldiv@dividend+3,f
  2863     073D                     l1123:
  2864     073D  1422               	bsf	___aldiv@quotient,0
  2865     073E                     l1125:
  2866     073E  3001               	movlw	1
  2867     073F                     u805:
  2868     073F  36F3               	lsrf	___aldiv@divisor+3,f
  2869     0740  0CF2               	rrf	___aldiv@divisor+2,f
  2870     0741  0CF1               	rrf	___aldiv@divisor+1,f
  2871     0742  0CF0               	rrf	___aldiv@divisor,f
  2872     0743  0B89               	decfsz	9,f
  2873     0744  2F3F               	goto	u805
  2874     0745                     l1127:
  2875     0745  3001               	movlw	1
  2876     0746  02A0               	subwf	___aldiv@counter,f
  2877     0747  1D03               	btfss	3,2
  2878     0748  2F4A               	goto	u811
  2879     0749  2F4B               	goto	u810
  2880     074A                     u811:
  2881     074A  2F1C               	goto	l1117
  2882     074B                     u810:
  2883     074B                     l1129:
  2884     074B  0821               	movf	___aldiv@sign,w
  2885     074C  1903               	btfsc	3,2
  2886     074D  2F4F               	goto	u821
  2887     074E  2F50               	goto	u820
  2888     074F                     u821:
  2889     074F  2F5B               	goto	l1133
  2890     0750                     u820:
  2891     0750                     l1131:
  2892     0750  09A2               	comf	___aldiv@quotient,f
  2893     0751  09A3               	comf	___aldiv@quotient+1,f
  2894     0752  09A4               	comf	___aldiv@quotient+2,f
  2895     0753  09A5               	comf	___aldiv@quotient+3,f
  2896     0754  0AA2               	incf	___aldiv@quotient,f
  2897     0755  1903               	skipnz
  2898     0756  0AA3               	incf	___aldiv@quotient+1,f
  2899     0757  1903               	skipnz
  2900     0758  0AA4               	incf	___aldiv@quotient+2,f
  2901     0759  1903               	skipnz
  2902     075A  0AA5               	incf	___aldiv@quotient+3,f
  2903     075B                     l1133:
  2904     075B  0825               	movf	___aldiv@quotient+3,w
  2905     075C  00F3               	movwf	?___aldiv+3
  2906     075D  0824               	movf	___aldiv@quotient+2,w
  2907     075E  00F2               	movwf	?___aldiv+2
  2908     075F  0823               	movf	___aldiv@quotient+1,w
  2909     0760  00F1               	movwf	?___aldiv+1
  2910     0761  0822               	movf	___aldiv@quotient,w
  2911     0762  00F0               	movwf	?___aldiv
  2912     0763                     l300:
  2913     0763  0008               	return
  2914     0764                     __end_of___aldiv:
  2915     007E                     btemp	set	126	;btemp
  2916     007E                     wtemp0	set	126
  2917                           
  2918                           	psect	config
  2919                           
  2920                           ;Config register CONFIG1 @ 0x8007
  2921                           ;	Oscillator Selection Bits
  2922                           ;	FOSC = INTOSC, INTOSC oscillator: I/O function on CLKIN pin
  2923                           ;	Watchdog Timer Enable
  2924                           ;	WDTE = ON, WDT enabled
  2925                           ;	Power-up Timer Enable
  2926                           ;	PWRTE = OFF, PWRT disabled
  2927                           ;	MCLR Pin Function Select
  2928                           ;	MCLRE = OFF, MCLR/VPP pin function is digital input if LVP bit is also 0.
  2929                           ;	Flash Program Memory Code Protection
  2930                           ;	CP = OFF, Program memory code protection is disabled
  2931                           ;	Brown-out Reset Enable
  2932                           ;	BOREN = OFF, Brown-out Reset disabled
  2933                           ;	Clock Out Enable
  2934                           ;	CLKOUTEN = OFF, CLKOUT function is disabled. I/O or oscillator function on the CLKOUT 
      +                          pin
  2935                           ;	Internal/External Switchover Mode
  2936                           ;	IESO = ON, Internal/External Switchover Mode is enabled
  2937                           ;	Fail-Safe Clock Monitor Enable
  2938                           ;	FCMEN = OFF, Fail-Safe Clock Monitor is disabled
  2939     8007                     	org	32775
  2940     8007  19BC               	dw	6588
  2941                           
  2942                           ;Config register CONFIG2 @ 0x8008
  2943                           ;	Flash Memory Self-Write Protection
  2944                           ;	WRT = OFF, Write protection off
  2945                           ;	Peripheral Pin Select one-way control
  2946                           ;	PPS1WAY = ON, The PPSLOCK bit cannot be cleared once it is set by software
  2947                           ;	Zero-cross detect disable
  2948                           ;	ZCDDIS = ON, ZCD disabled. ZCD can be enabled by setting the ZCDSEN bit of ZCDCON
  2949                           ;	Phase Lock Loop enable
  2950                           ;	PLLEN = OFF, 4x PLL is disabled
  2951                           ;	Stack Overflow/Underflow Reset Enable
  2952                           ;	STVREN = ON, Stack Overflow or Underflow will cause a Reset
  2953                           ;	Brown-out Reset Voltage Selection
  2954                           ;	BORV = LO, Brown-out Reset Voltage (Vbor), low trip point selected.
  2955                           ;	Low-Power Brown Out Reset
  2956                           ;	LPBOR = OFF, Low-Power BOR is disabled
  2957                           ;	In-Circuit Debugger Mode
  2958                           ;	DEBUG = 0x1, unprogrammed default
  2959                           ;	Low-Voltage Programming Enable
  2960                           ;	LVP = OFF, High-voltage on MCLR/VPP must be used for programming
  2961     8008                     	org	32776
  2962     8008  1EFF               	dw	7935

Data Sizes:
    Strings     16
    Constant    0
    Data        0
    BSS         0
    Persistent  32
    Stack       0

Auto Spaces:
    Space          Size  Autos    Used
    COMMON           14     14      14
    BANK0            80     33      33
    BANK1            80      0       0
    BANK2            80      0       0
    BANK3            80      0       0
    BANK4            80      0       0
    BANK5            80      0       0
    BANK6            80      0       0
    BANK7            80      0       0
    BANK8            80      0       0
    BANK9            80      0       0
    BANK10           80      0       0
    BANK11           80      0       0
    BANK12           80      0       0
    BANK13           80      0       0
    BANK14           80      0       0
    BANK15           80      0       0
    BANK16           80      0       0
    BANK17           80      0       0
    BANK18           80      0       0
    BANK19           80      0       0
    BANK20           80      0       0
    BANK21           80      0       0
    BANK22           80      0       0
    BANK23           80      0       0
    BANK24           80      0       0
    BANK25           32      0       0

Pointer List with Targets:

    EUSART_Write_Integer@ptr	PTR unsigned char  size(1) Largest target is 20
		 -> EUSART_Write_Integer@buffer(BANK0[20]), 

    EUSART_Write_Integer@temp_ptr	PTR unsigned char  size(1) Largest target is 20
		 -> EUSART_Write_Integer@buffer(BANK0[20]), 

    EUSART_Write_Text@text	PTR unsigned char  size(2) Largest target is 14
		 -> STR_1(CODE[14]), STR_2(CODE[2]), 

    itoa@buf	PTR PTR unsigned char  size(1) Largest target is 1
		 -> EUSART_Write_Integer@ptr(BANK0[1]), 


Critical Paths under _main in COMMON

    _main->_EUSART_Write_Integer
    _EUSART_Write_Text->_EUSART_Write
    _EUSART_Write_Integer->_itoa
    _itoa->___awdiv
    _EUSART_Initialize->___aldiv

Critical Paths under _main in BANK0

    _main->_EUSART_Write_Integer
    _EUSART_Write_Integer->_itoa
    _EUSART_Initialize->___aldiv

Critical Paths under _main in BANK1

    None.

Critical Paths under _main in BANK2

    None.

Critical Paths under _main in BANK3

    None.

Critical Paths under _main in BANK4

    None.

Critical Paths under _main in BANK5

    None.

Critical Paths under _main in BANK6

    None.

Critical Paths under _main in BANK7

    None.

Critical Paths under _main in BANK8

    None.

Critical Paths under _main in BANK9

    None.

Critical Paths under _main in BANK10

    None.

Critical Paths under _main in BANK11

    None.

Critical Paths under _main in BANK12

    None.

Critical Paths under _main in BANK13

    None.

Critical Paths under _main in BANK14

    None.

Critical Paths under _main in BANK15

    None.

Critical Paths under _main in BANK16

    None.

Critical Paths under _main in BANK17

    None.

Critical Paths under _main in BANK18

    None.

Critical Paths under _main in BANK19

    None.

Critical Paths under _main in BANK20

    None.

Critical Paths under _main in BANK21

    None.

Critical Paths under _main in BANK22

    None.

Critical Paths under _main in BANK23

    None.

Critical Paths under _main in BANK24

    None.

Critical Paths under _main in BANK25

    None.

Call Graph Tables:

 ---------------------------------------------------------------------------------
 (Depth) Function   	        Calls       Base Space   Used Autos Params    Refs
 ---------------------------------------------------------------------------------
 (0) _main                                                 4     4      0    3197
                                             29 BANK0      4     4      0
                  _EUSART_Initialize
               _EUSART_Write_Integer
                  _EUSART_Write_Text
                           _initMain
 ---------------------------------------------------------------------------------
 (1) _initMain                                             1     1      0       0
                                              0 COMMON     1     1      0
                        _internal_32
 ---------------------------------------------------------------------------------
 (2) _internal_32                                          0     0      0       0
 ---------------------------------------------------------------------------------
 (1) _EUSART_Write_Text                                    5     3      2     264
                                              1 COMMON     5     3      2
                       _EUSART_Write
 ---------------------------------------------------------------------------------
 (1) _EUSART_Write_Integer                                25    23      2    2315
                                             11 COMMON     3     1      2
                                              7 BANK0     22    22      0
                       _EUSART_Write
                               _itoa
 ---------------------------------------------------------------------------------
 (2) _itoa                                                 9     7      2    2069
                                              9 COMMON     2     0      2
                                              0 BANK0      7     7      0
                            ___awdiv
                            ___awmod
                             ___wmul
 ---------------------------------------------------------------------------------
 (3) ___wmul                                               6     2      4     244
                                              0 COMMON     6     2      4
 ---------------------------------------------------------------------------------
 (3) ___awmod                                              7     3      4     448
                                              0 COMMON     7     3      4
 ---------------------------------------------------------------------------------
 (3) ___awdiv                                              9     5      4     908
                                              0 COMMON     9     5      4
 ---------------------------------------------------------------------------------
 (2) _EUSART_Write                                         1     1      0      22
                                              0 COMMON     1     1      0
 ---------------------------------------------------------------------------------
 (1) _EUSART_Initialize                                   18    14      4     595
                                              9 COMMON     2     2      0
                                              6 BANK0     16    12      4
                            ___aldiv
 ---------------------------------------------------------------------------------
 (2) ___aldiv                                             15     7      8     452
                                              0 COMMON     9     1      8
                                              0 BANK0      6     6      0
 ---------------------------------------------------------------------------------
 Estimated maximum stack depth 3
 ---------------------------------------------------------------------------------

 Call Graph Graphs:

 _main (ROOT)
   _EUSART_Initialize
     ___aldiv
   _EUSART_Write_Integer
     _EUSART_Write
     _itoa
       ___awdiv
       ___awmod
       ___wmul
   _EUSART_Write_Text
     _EUSART_Write
   _initMain
     _internal_32

 Address spaces:
Name               Size   Autos  Total    Cost      Usage
BIGRAM             7F0      0       0       0        0.0%
NULL                 0      0       0       0        0.0%
CODE                 0      0       0       0        0.0%
BITCOMMON            E      0       0       1        0.0%
BITSFR0              0      0       0       1        0.0%
SFR0                 0      0       0       1        0.0%
COMMON               E      E       E       2      100.0%
BITSFR1              0      0       0       2        0.0%
SFR1                 0      0       0       2        0.0%
BITSFR2              0      0       0       3        0.0%
SFR2                 0      0       0       3        0.0%
STACK                0      0       0       3        0.0%
BITBANK0            50      0       0       4        0.0%
BITSFR3              0      0       0       4        0.0%
SFR3                 0      0       0       4        0.0%
BANK0               50     21      21       5       41.2%
BITSFR4              0      0       0       5        0.0%
SFR4                 0      0       0       5        0.0%
BITBANK1            50      0       0       6        0.0%
BITSFR5              0      0       0       6        0.0%
SFR5                 0      0       0       6        0.0%
BANK1               50      0       0       7        0.0%
BITSFR6              0      0       0       7        0.0%
SFR6                 0      0       0       7        0.0%
BITBANK2            50      0       0       8        0.0%
BITSFR7              0      0       0       8        0.0%
SFR7                 0      0       0       8        0.0%
BANK2               50      0       0       9        0.0%
BITSFR8              0      0       0       9        0.0%
SFR8                 0      0       0       9        0.0%
BITBANK3            50      0       0      10        0.0%
BITSFR9              0      0       0      10        0.0%
SFR9                 0      0       0      10        0.0%
BANK3               50      0       0      11        0.0%
BITSFR10             0      0       0      11        0.0%
SFR10                0      0       0      11        0.0%
BITBANK4            50      0       0      12        0.0%
BITSFR11             0      0       0      12        0.0%
SFR11                0      0       0      12        0.0%
BANK4               50      0       0      13        0.0%
BITSFR12             0      0       0      13        0.0%
SFR12                0      0       0      13        0.0%
BITSFR13             0      0       0      14        0.0%
SFR13                0      0       0      14        0.0%
ABS                  0      0       0      14        0.0%
BITBANK5            50      0       0      15        0.0%
BITSFR14             0      0       0      15        0.0%
SFR14                0      0       0      15        0.0%
BANK5               50      0       0      16        0.0%
BITSFR15             0      0       0      16        0.0%
SFR15                0      0       0      16        0.0%
BITBANK6            50      0       0      17        0.0%
BITSFR16             0      0       0      17        0.0%
SFR16                0      0       0      17        0.0%
BANK6               50      0       0      18        0.0%
BITSFR17             0      0       0      18        0.0%
SFR17                0      0       0      18        0.0%
BITBANK7            50      0       0      19        0.0%
BITSFR18             0      0       0      19        0.0%
SFR18                0      0       0      19        0.0%
BANK7               50      0       0      20        0.0%
BITSFR19             0      0       0      20        0.0%
SFR19                0      0       0      20        0.0%
BITBANK8            50      0       0      21        0.0%
BITSFR20             0      0       0      21        0.0%
SFR20                0      0       0      21        0.0%
BANK8               50      0       0      22        0.0%
BITSFR21             0      0       0      22        0.0%
SFR21                0      0       0      22        0.0%
BITBANK9            50      0       0      23        0.0%
BITSFR22             0      0       0      23        0.0%
SFR22                0      0       0      23        0.0%
BANK9               50      0       0      24        0.0%
BITSFR23             0      0       0      24        0.0%
SFR23                0      0       0      24        0.0%
BITBANK10           50      0       0      25        0.0%
BITSFR24             0      0       0      25        0.0%
SFR24                0      0       0      25        0.0%
BANK10              50      0       0      26        0.0%
BITSFR25             0      0       0      26        0.0%
SFR25                0      0       0      26        0.0%
BITBANK11           50      0       0      27        0.0%
BITSFR26             0      0       0      27        0.0%
SFR26                0      0       0      27        0.0%
BITSFR27             0      0       0      28        0.0%
SFR27                0      0       0      28        0.0%
DATA                 0      0       0      28        0.0%
BANK11              50      0       0      29        0.0%
BITSFR28             0      0       0      29        0.0%
SFR28                0      0       0      29        0.0%
BITBANK12           50      0       0      30        0.0%
BITSFR29             0      0       0      30        0.0%
SFR29                0      0       0      30        0.0%
BANK12              50      0       0      31        0.0%
BITSFR30             0      0       0      31        0.0%
SFR30                0      0       0      31        0.0%
BITBANK13           50      0       0      32        0.0%
BITSFR31             0      0       0      32        0.0%
SFR31                0      0       0      32        0.0%
BANK13              50      0       0      33        0.0%
BITBANK14           50      0       0      34        0.0%
BANK14              50      0       0      35        0.0%
BITBANK15           50      0       0      36        0.0%
BANK15              50      0       0      37        0.0%
BITBANK16           50      0       0      38        0.0%
BANK16              50      0       0      39        0.0%
BITBANK17           50      0       0      40        0.0%
BANK17              50      0       0      41        0.0%
BITBANK18           50      0       0      42        0.0%
BANK18              50      0       0      43        0.0%
BITBANK19           50      0       0      44        0.0%
BANK19              50      0       0      45        0.0%
BITBANK20           50      0       0      46        0.0%
BANK20              50      0       0      47        0.0%
BITBANK21           50      0       0      48        0.0%
BANK21              50      0       0      49        0.0%
BITBANK22           50      0       0      50        0.0%
BANK22              50      0       0      51        0.0%
BITBANK23           50      0       0      52        0.0%
BANK23              50      0       0      53        0.0%
BITBANK24           50      0       0      54        0.0%
BANK24              50      0       0      55        0.0%
BITBANK25           20      0       0      56        0.0%
BANK25              20      0       0      57        0.0%


Microchip Technology PIC Macro Assembler V2.45 build 20230818022343 
Symbol Table                                                                                   Fri Nov 24 04:57:05 2023

                               l51 05A2                                 l45 058A  
                               l73 04E2                       ___awdiv@sign 0076  
              ___wmul@multiplicand 0072                                l300 0763  
                              l116 0621                                l132 04E4  
                              l141 0509                                l135 04EC  
                              l151 07FC                                l225 0514  
                              l145 07A2                                l227 0528  
                              l157 054C                                l290 06E7  
                              l391 0674                                l378 06D3  
                              l981 0510                                l991 0675  
                              l983 0519                                l993 0676  
                              l985 051E                                l977 050A  
                              l995 067A                                l987 0524  
                              l979 050C                                l997 067F  
                              l999 0681                                u500 067A  
                              u501 0679                                u510 0685  
                              u511 0684                                u520 0696  
                              u600 0627                                u521 0695  
                              u601 0626                                u610 0632  
                              u611 0631                                u540 06A6  
                              u620 063D                                u460 0510  
                              u700 076E                                u541 06A5  
                              u621 063C                                u461 050F  
                              u701 076D                                u710 07B3  
                              u535 069A                                u711 07B2  
                              u560 06B5                                u640 064D  
                              u720 07F5                                u561 06B4  
                              u641 064C                                u721 07F4  
                              u810 074B                                u730 06DA  
                              u650 0657                                u490 0524  
                              u811 074A                                u731 06D9  
                              u555 06A7                                u651 0656  
                              u635 0641                                u491 0523  
                              u475 0515                                u820 0750  
                              u740 06EB                                u580 06C5  
                              u821 074F                                u805 073F  
                              u741 06EA                                u581 06C4  
                              u565 06B1                                u485 051A  
                              u750 070A                                u830 05E0  
                              u590 06CA                                u670 0666  
                              u751 0709                                u591 06C9  
                              u575 06BB                                u671 0665  
                              u655 0653                                u840 05F7  
                              u680 066B                                u681 066A  
                              u665 065C                                u770 071C  
                              u690 04E9                                u850 0509  
                              u771 071B                                u835 05DC  
                              u691 04E8                                u851 0508  
                              u907 0553                                u860 054C  
                              u765 070E                                u845 05F3  
                              u861 054B                                u790 0735  
                              u870 05A6                                u791 0734  
                              u871 05A5                                u785 071D  
                              u795 0731                                u887 059D  
                              u897 05C9                       ___awmod@sign 0076  
                              wreg 0009                               l1001 0685  
                             l1011 0699                               l1003 068A  
                             l1101 06DA                               l1021 06B9  
                             l1013 069E                               l1005 068E  
                             l1111 070A                               l1103 06EB  
                             l1031 06CF                               l1023 06BA  
                             l1015 06A2                               l1007 0690  
                             l1121 0735                               l1113 070D  
                             l1105 06F6                               l1201 0620  
                             l1025 06BF                               l1017 06A6  
                             l1009 0696                               l1041 062C  
                             l1131 0750                               l1123 073D  
                             l1115 0718                               l1107 06FA  
                             l1019 06B5                               l1027 06C5  
                             l1051 0640                               l1043 062E  
                             l1035 0622                               l1211 04FE  
                             l1133 075B                               l1125 073E  
                             l1117 071C                               l1109 0702  
                             l1029 06CA                               l1061 065B  
                             l1053 0645                               l1045 0632  
                             l1037 0623                               l1221 053F  
                             l1213 0529                               l1205 04ED  
                             l1141 0558                               l1127 0745  
                             l1119 0723                               l1063 0660  
                             l1055 0649                               l1047 0637  
                             l1039 0627                               l1223 0544  
                             l1215 052C                               l1207 04F0  
                             l1151 0562                               l1143 055A  
                             l1231 05A0                               l1129 074B  
                             l1057 064D                               l1049 063D  
                             l1065 0666                               l1081 076E  
                             l1217 0534                               l1209 04FA  
                             l1073 04DA                               l1161 056F  
                             l1153 0564                               l1145 055C  
                             l1137 054D                               l1241 05C3  
                             l1233 05A6                               l1225 058B  
                             l1075 04E4                               l1067 066B  
                             l1059 0657                               l1091 07E4  
                             l1083 0777                               l1219 0538  
                             l1171 057B                               l1163 0574  
                             l1155 0567                               l1147 055E  
                             l1139 0550                               l1235 05AD  
                             l1227 059A                               l1077 04E9  
                             l1069 0670                               l1093 07EE  
                             l1085 077C                               l1181 0586  
                             l1173 057D                               l1165 0576  
                             l1157 0569                               l1149 0560  
                             l1237 05B4                               l1229 059C  
                             l1191 061B                               l1095 07F5  
                             l1087 0781                               l1079 0766  
                             l1183 0588                               l1175 0582  
                             l1167 0578                               l1159 056A  
                             l1239 05BC                               l1097 06D4  
                             l1193 061C                               l1089 07B4  
                             l1185 0589                               l1177 0583  
                             l1169 0579                               l1099 06D6  
                             l1195 061D                               l1187 05D2  
                             l1179 0584                               l1197 061E  
                             l1189 0618                               l1199 061F  
       EUSART_Write_Integer@buffer 0027                               STR_1 0800  
                             STR_2 080E                               _BRGH 0CF2  
                             _CREN 0CEC                               _SCS0 04C8  
                             _SCS1 04C9                               _SPEN 0CEF  
                             _TXEN 0CF5                               _SYNC 0CF4  
                             _main 058B                               _itoa 0764  
                             fsr0h 0005                               fsr1h 0007  
                             indf0 0000                               fsr0l 0004  
                             indf1 0001                               fsr1l 0006  
                             btemp 007E                               start 0002  
                    ?_EUSART_Write 0070                    __end_of___aldiv 0764  
                            ?_main 0070                              ?_itoa 0079  
                  __end_of___awdiv 06D4                              _BRG16 0CFB  
                  __end_of___awmod 0675                    ___awdiv@divisor 0070  
                            _IRCF0 04CB                              _IRCF1 04CC  
                            _IRCF2 04CD                              _IRCF3 04CE  
                  ___awdiv@counter 0075                              _TRISD 008F  
                            itoa@d 0079                              status 0003  
                            wtemp0 007E                       ?_internal_32 0070  
                  __initialization 07FD                       __end_of_main 05D2  
                     __end_of_itoa 07FD                     ??_EUSART_Write 0070  
                           ??_main 003D                             ??_itoa 007B  
                           _ADRESH 009C                             _ADRESL 009B  
                 ___awdiv@dividend 0072                             _ANSELD 018F  
                           _RC1REG 0199                             _SPBRGL 019B  
                           _TX1REG 019A                             _SPLLEN 04CF  
                        ??___aldiv 0078                             ___wmul 050A  
                        ??___awdiv 0074                          ??___awmod 0074  
                 __end_of_initMain 058B                   ___awdiv@quotient 0077  
                  ___awmod@divisor 0070                    ___awmod@counter 0075  
          __end_of__initialization 07FD                     __pcstackCOMMON 0070  
             __end_of_EUSART_Write 04ED                         __pmaintext 058B  
                          ?___wmul 0070                            _PPSLOCK 0E0F  
                        ?_initMain 0070                            ___aldiv 06D4  
                          ___awdiv 0675                            ___awmod 0622  
                          __ptext1 054D                            __ptext2 04DA  
                          __ptext3 04ED                            __ptext4 0529  
                          __ptext5 0764                            __ptext6 050A  
                          __ptext7 0622                            __ptext8 0675  
                          __ptext9 04E3                   ___awmod@dividend 0072  
                 ___aldiv@dividend 0074               end_of_initialization 07FD  
                       ??_initMain 0070                            itoa@div 0025  
                          itoa@buf 0024                            itoa@num 0020  
                _EUSART_Initialize 05D2                 ?_EUSART_Initialize 0026  
                 ___aldiv@quotient 0022                 EUSART_Initialize@x 0079  
              ??_EUSART_Initialize 002A                          _TRISAbits 008C  
                        _TRISBbits 008D                          _TRISDbits 008F  
                        _RXPPSbits 0E24          __end_of_EUSART_Initialize 0622  
     __end_of_EUSART_Write_Integer 054D                         main@result 003F  
                   __end_of___wmul 0529                       _EUSART_Write 04E3  
              start_initialization 07FD  EUSART_Write_Integer@value_to_send 007B  
                _EUSART_Write_Text 04ED                 ?_EUSART_Write_Text 0071  
                         ??___wmul 0074                ??_EUSART_Write_Text 0073  
                        ___latbits 0003                      __pcstackBANK0 0020  
        __end_of_EUSART_Write_Text 050A                      ??_internal_32 0070  
                         ?___aldiv 0070                           ?___awdiv 0070  
                         ?___awmod 0070          EUSART_Initialize@baudrate 0026  
             _EUSART_Write_Integer 0529                    ___aldiv@divisor 0070  
                  ___aldiv@counter 0020                     ___wmul@product 0074  
                         _LATDbits 010F                           _PIR1bits 0011  
          EUSART_Write_Integer@ptr 003B                __end_of_internal_32 04E3  
                       _ADCON0bits 009D                         _ADCON1bits 009E  
                ___wmul@multiplier 0070              ?_EUSART_Write_Integer 007B  
     EUSART_Write_Integer@temp_ptr 003C                         _ANSELAbits 018C  
                       _ANSELBbits 018D                           __ptext10 05D2  
                         __ptext11 06D4                           _initMain 054D  
                      _internal_32 04DA                         _RB2PPSbits 0E9A  
                       _RC1STAbits 019D             ??_EUSART_Write_Integer 007D  
                         itoa@temp 0022                        _PPSLOCKbits 0E0F  
                    __pstringtext1 0800                      __pstringtext2 080E  
                    __pstringtext3 0000              EUSART_Write_Text@text 0071  
                     ___aldiv@sign 0021                 EUSART_Write@txData 0070  
               EUSART_Write_Text@i 0074  
