

Microchip MPLAB XC8 Assembler V2.46 build 20240104201356 
                                                                                               Fri Dec 26 02:42:36 2025

Microchip MPLAB XC8 C Compiler v2.46 (Free license) build 20240104201356 Og1 
     1                           	processor	16F1718
     2                           	pagewidth 120
     3                           	opt	flic
     4                           	psect	stringtext1,global,class=STRCODE,delta=2,noexec
     5                           	psect	stringtext2,global,class=STRCODE,delta=2,noexec
     6                           	psect	stringtext3,global,class=STRCODE,delta=2,noexec
     7                           	psect	cinit,global,class=CODE,merge=1,delta=2
     8                           	psect	clrtext,global,class=CODE,delta=2
     9                           	psect	cstackBANK1,global,class=BANK1,space=1,delta=1,noexec
    10                           	psect	cstackCOMMON,global,class=COMMON,space=1,delta=1,noexec
    11                           	psect	cstackBANK0,global,class=BANK0,space=1,delta=1,noexec
    12                           	psect	maintext,global,class=CODE,merge=1,split=1,delta=2
    13                           	psect	text1,local,class=CODE,merge=1,delta=2
    14                           	psect	text2,local,class=CODE,merge=1,delta=2
    15                           	psect	text3,local,class=CODE,merge=1,delta=2
    16                           	psect	text4,local,class=CODE,merge=1,delta=2,group=1
    17                           	psect	text5,local,class=CODE,merge=1,delta=2,group=1
    18                           	psect	text6,local,class=CODE,merge=1,delta=2,group=1
    19                           	psect	text7,local,class=CODE,merge=1,delta=2,group=1
    20                           	psect	text8,local,class=CODE,merge=1,delta=2,group=1
    21                           	psect	text9,local,class=CODE,merge=1,delta=2,group=1
    22                           	psect	text10,local,class=CODE,merge=1,delta=2
    23                           	psect	text11,local,class=CODE,merge=1,delta=2
    24                           	psect	text12,local,class=CODE,merge=1,delta=2,group=2
    25                           	psect	text13,local,class=CODE,merge=1,delta=2,group=2
    26                           	psect	text14,local,class=CODE,merge=1,delta=2,group=2
    27                           	psect	text15,local,class=CODE,merge=1,delta=2,group=1
    28                           	psect	text16,local,class=CODE,merge=1,delta=2,group=1
    29                           	psect	text17,local,class=CODE,merge=1,delta=2,group=1
    30                           	psect	text18,local,class=CODE,merge=1,delta=2,group=1
    31                           	psect	text19,local,class=CODE,merge=1,delta=2,group=1
    32                           	psect	text20,local,class=CODE,merge=1,delta=2,group=1
    33                           	psect	text21,local,class=CODE,merge=1,delta=2,group=1
    34                           	psect	text22,local,class=CODE,merge=1,delta=2
    35                           	psect	text23,local,class=CODE,merge=1,delta=2
    36                           	psect	text24,local,class=CODE,merge=1,delta=2
    37                           	psect	text25,local,class=CODE,merge=1,delta=2,group=2
    38                           	psect	text26,local,class=CODE,merge=1,delta=2
    39                           	psect	text27,local,class=CODE,merge=1,delta=2
    40                           	psect	text28,local,class=CODE,merge=1,delta=2
    41                           	psect	text29,local,class=CODE,merge=1,delta=2
    42                           	psect	text30,local,class=CODE,merge=1,delta=2
    43                           	psect	text31,local,class=CODE,merge=1,delta=2
    44                           	psect	text32,local,class=CODE,merge=1,delta=2
    45                           	psect	text33,local,class=CODE,merge=1,delta=2
    46                           	psect	text34,local,class=CODE,merge=1,delta=2
    47                           	psect	text35,local,class=CODE,merge=1,delta=2
    48                           	psect	text36,local,class=CODE,merge=1,delta=2
    49                           	psect	text37,local,class=CODE,merge=1,delta=2
    50                           	psect	text38,local,class=CODE,merge=1,delta=2,group=1
    51                           	psect	text39,local,class=CODE,merge=1,delta=2
    52                           	psect	config,global,abs,ovrld,class=CONFIG,space=4,delta=2,noexec
    53                           	dabs	1,0xCA0,32
    54                           	dabs	1,0xC20,80
    55                           	dabs	1,0xBA0,80
    56                           	dabs	1,0xB30,64
    57                           	dabs	1,0xB20,16
    58                           	dabs	1,0xAA0,80
    59                           	dabs	1,0xA20,80
    60                           	dabs	1,0x9A0,80
    61                           	dabs	1,0x920,80
    62                           	dabs	1,0x8A0,80
    63                           	dabs	1,0x820,80
    64                           	dabs	1,0x7E0,16
    65                           	dabs	1,0x24F0,0,_screen_buffer
    66                           	dabs	1,0x26F0,0,OLED_Printf_Line@last_text
    67                           	dabs	1,0x7E,2
    68     0000                     
    69                           ; Generated 07/09/2023 GMT
    70                           ; 
    71                           ; Copyright © 2023, Microchip Technology Inc. and its subsidiaries ("Microchip")
    72                           ; All rights reserved.
    73                           ; 
    74                           ; This software is developed by Microchip Technology Inc. and its subsidiaries ("Microch
      +                          ip").
    75                           ; 
    76                           ; Redistribution and use in source and binary forms, with or without modification, are
    77                           ; permitted provided that the following conditions are met:
    78                           ; 
    79                           ;     1. Redistributions of source code must retain the above copyright notice, this lis
      +                          t of
    80                           ;        conditions and the following disclaimer.
    81                           ; 
    82                           ;     2. Redistributions in binary form must reproduce the above copyright notice, this 
      +                          list
    83                           ;        of conditions and the following disclaimer in the documentation and/or other
    84                           ;        materials provided with the distribution. Publication is not required when
    85                           ;        this file is used in an embedded application.
    86                           ; 
    87                           ;     3. Microchip's name may not be used to endorse or promote products derived from th
      +                          is
    88                           ;        software without specific prior written permission.
    89                           ; 
    90                           ; THIS SOFTWARE IS PROVIDED BY MICROCHIP "AS IS" AND ANY EXPRESS OR IMPLIED WARRANTIES,
    91                           ; INCLUDING, BUT NOT LIMITED TO, THE IMPLIED WARRANTIES OF MERCHANTABILITY AND FITNESS F
      +                          OR
    92                           ; PURPOSE ARE DISCLAIMED.  IN NO EVENT SHALL MICROCHIP BE LIABLE FOR ANY DIRECT, INDIREC
      +                          T,
    93                           ; INCIDENTAL, SPECIAL, EXEMPLARY, OR CONSEQUENTIAL DAMAGES (INCLUDING BUT NOT LIMITED TO
    94                           ; PROCUREMENT OF SUBSTITUTE GOODS OR SERVICES; LOSS OF USE, DATA OR PROFITS; OR BUSINESS
    95                           ; INTERRUPTION) HOWSOEVER CAUSED AND ON ANY THEORY OF LIABILITY, WHETHER IN CONTRACT, ST
      +                          RICT
    96                           ; LIABILITY, OR TORT (INCLUDING NEGLIGENCE OR OTHERWISE) ARISING IN ANY WAY OUT OF THE U
      +                          SE OF
    97                           ; THIS SOFTWARE, EVEN IF ADVISED OF THE POSSIBILITY OF SUCH DAMAGE.
    98                           ; 
    99                           ; 
   100                           ; Code-generator required, PIC16F1718 Definitions
   101                           ; 
   102                           ; SFR Addresses
   103     0000                     	;# 
   104     0001                     	;# 
   105     0002                     	;# 
   106     0003                     	;# 
   107     0004                     	;# 
   108     0005                     	;# 
   109     0006                     	;# 
   110     0007                     	;# 
   111     0008                     	;# 
   112     0009                     	;# 
   113     000A                     	;# 
   114     000B                     	;# 
   115     000C                     	;# 
   116     000D                     	;# 
   117     000E                     	;# 
   118     0010                     	;# 
   119     0011                     	;# 
   120     0012                     	;# 
   121     0013                     	;# 
   122     0015                     	;# 
   123     0016                     	;# 
   124     0016                     	;# 
   125     0017                     	;# 
   126     0018                     	;# 
   127     0019                     	;# 
   128     001A                     	;# 
   129     001B                     	;# 
   130     001C                     	;# 
   131     008C                     	;# 
   132     008D                     	;# 
   133     008E                     	;# 
   134     0090                     	;# 
   135     0091                     	;# 
   136     0092                     	;# 
   137     0093                     	;# 
   138     0095                     	;# 
   139     0096                     	;# 
   140     0097                     	;# 
   141     0098                     	;# 
   142     0099                     	;# 
   143     009A                     	;# 
   144     009B                     	;# 
   145     009B                     	;# 
   146     009C                     	;# 
   147     009D                     	;# 
   148     009E                     	;# 
   149     009F                     	;# 
   150     010C                     	;# 
   151     010D                     	;# 
   152     010E                     	;# 
   153     0111                     	;# 
   154     0112                     	;# 
   155     0113                     	;# 
   156     0114                     	;# 
   157     0115                     	;# 
   158     0116                     	;# 
   159     0117                     	;# 
   160     0118                     	;# 
   161     0119                     	;# 
   162     011A                     	;# 
   163     011B                     	;# 
   164     011B                     	;# 
   165     011C                     	;# 
   166     018C                     	;# 
   167     018D                     	;# 
   168     018E                     	;# 
   169     0191                     	;# 
   170     0191                     	;# 
   171     0192                     	;# 
   172     0193                     	;# 
   173     0193                     	;# 
   174     0194                     	;# 
   175     0195                     	;# 
   176     0196                     	;# 
   177     0197                     	;# 
   178     0199                     	;# 
   179     0199                     	;# 
   180     0199                     	;# 
   181     019A                     	;# 
   182     019A                     	;# 
   183     019A                     	;# 
   184     019B                     	;# 
   185     019B                     	;# 
   186     019B                     	;# 
   187     019B                     	;# 
   188     019B                     	;# 
   189     019C                     	;# 
   190     019C                     	;# 
   191     019C                     	;# 
   192     019D                     	;# 
   193     019D                     	;# 
   194     019D                     	;# 
   195     019E                     	;# 
   196     019E                     	;# 
   197     019E                     	;# 
   198     019F                     	;# 
   199     019F                     	;# 
   200     019F                     	;# 
   201     019F                     	;# 
   202     019F                     	;# 
   203     020C                     	;# 
   204     020D                     	;# 
   205     020E                     	;# 
   206     0210                     	;# 
   207     0211                     	;# 
   208     0211                     	;# 
   209     0212                     	;# 
   210     0212                     	;# 
   211     0213                     	;# 
   212     0213                     	;# 
   213     0214                     	;# 
   214     0214                     	;# 
   215     0215                     	;# 
   216     0215                     	;# 
   217     0215                     	;# 
   218     0215                     	;# 
   219     0216                     	;# 
   220     0216                     	;# 
   221     0217                     	;# 
   222     0217                     	;# 
   223     028C                     	;# 
   224     028D                     	;# 
   225     028E                     	;# 
   226     0291                     	;# 
   227     0291                     	;# 
   228     0292                     	;# 
   229     0293                     	;# 
   230     0293                     	;# 
   231     0298                     	;# 
   232     0298                     	;# 
   233     0299                     	;# 
   234     029A                     	;# 
   235     029A                     	;# 
   236     029E                     	;# 
   237     030C                     	;# 
   238     030D                     	;# 
   239     030E                     	;# 
   240     038C                     	;# 
   241     038D                     	;# 
   242     038E                     	;# 
   243     0390                     	;# 
   244     0391                     	;# 
   245     0392                     	;# 
   246     0393                     	;# 
   247     0394                     	;# 
   248     0395                     	;# 
   249     0396                     	;# 
   250     0397                     	;# 
   251     0398                     	;# 
   252     0399                     	;# 
   253     039D                     	;# 
   254     039E                     	;# 
   255     039F                     	;# 
   256     0415                     	;# 
   257     0416                     	;# 
   258     0417                     	;# 
   259     041C                     	;# 
   260     041D                     	;# 
   261     041E                     	;# 
   262     0498                     	;# 
   263     0498                     	;# 
   264     0499                     	;# 
   265     049A                     	;# 
   266     049B                     	;# 
   267     049B                     	;# 
   268     049C                     	;# 
   269     049D                     	;# 
   270     049E                     	;# 
   271     049F                     	;# 
   272     0511                     	;# 
   273     0515                     	;# 
   274     0617                     	;# 
   275     0618                     	;# 
   276     0619                     	;# 
   277     0619                     	;# 
   278     061A                     	;# 
   279     061B                     	;# 
   280     061C                     	;# 
   281     061C                     	;# 
   282     0691                     	;# 
   283     0692                     	;# 
   284     0693                     	;# 
   285     0694                     	;# 
   286     0695                     	;# 
   287     0696                     	;# 
   288     0697                     	;# 
   289     0698                     	;# 
   290     0699                     	;# 
   291     069A                     	;# 
   292     069B                     	;# 
   293     069C                     	;# 
   294     069D                     	;# 
   295     069E                     	;# 
   296     069F                     	;# 
   297     0E0F                     	;# 
   298     0E10                     	;# 
   299     0E11                     	;# 
   300     0E12                     	;# 
   301     0E13                     	;# 
   302     0E14                     	;# 
   303     0E15                     	;# 
   304     0E17                     	;# 
   305     0E20                     	;# 
   306     0E21                     	;# 
   307     0E22                     	;# 
   308     0E24                     	;# 
   309     0E25                     	;# 
   310     0E28                     	;# 
   311     0E29                     	;# 
   312     0E2A                     	;# 
   313     0E2B                     	;# 
   314     0E90                     	;# 
   315     0E91                     	;# 
   316     0E92                     	;# 
   317     0E93                     	;# 
   318     0E94                     	;# 
   319     0E95                     	;# 
   320     0E96                     	;# 
   321     0E97                     	;# 
   322     0E98                     	;# 
   323     0E99                     	;# 
   324     0E9A                     	;# 
   325     0E9B                     	;# 
   326     0E9C                     	;# 
   327     0E9D                     	;# 
   328     0E9E                     	;# 
   329     0E9F                     	;# 
   330     0EA0                     	;# 
   331     0EA1                     	;# 
   332     0EA2                     	;# 
   333     0EA3                     	;# 
   334     0EA4                     	;# 
   335     0EA5                     	;# 
   336     0EA6                     	;# 
   337     0EA7                     	;# 
   338     0F0F                     	;# 
   339     0F10                     	;# 
   340     0F11                     	;# 
   341     0F12                     	;# 
   342     0F13                     	;# 
   343     0F14                     	;# 
   344     0F15                     	;# 
   345     0F16                     	;# 
   346     0F17                     	;# 
   347     0F18                     	;# 
   348     0F19                     	;# 
   349     0F1A                     	;# 
   350     0F1B                     	;# 
   351     0F1C                     	;# 
   352     0F1D                     	;# 
   353     0F1E                     	;# 
   354     0F1F                     	;# 
   355     0F20                     	;# 
   356     0F21                     	;# 
   357     0F22                     	;# 
   358     0F23                     	;# 
   359     0F24                     	;# 
   360     0F25                     	;# 
   361     0F26                     	;# 
   362     0F27                     	;# 
   363     0F28                     	;# 
   364     0F29                     	;# 
   365     0F2A                     	;# 
   366     0F2B                     	;# 
   367     0F2C                     	;# 
   368     0F2D                     	;# 
   369     0F2E                     	;# 
   370     0F2F                     	;# 
   371     0F30                     	;# 
   372     0F31                     	;# 
   373     0F32                     	;# 
   374     0F33                     	;# 
   375     0F34                     	;# 
   376     0F35                     	;# 
   377     0F36                     	;# 
   378     0F37                     	;# 
   379     0FE4                     	;# 
   380     0FE5                     	;# 
   381     0FE6                     	;# 
   382     0FE7                     	;# 
   383     0FE8                     	;# 
   384     0FE9                     	;# 
   385     0FEA                     	;# 
   386     0FEB                     	;# 
   387     0FED                     	;# 
   388     0FEE                     	;# 
   389     0FEF                     	;# 
   390     0000                     	;# 
   391     0001                     	;# 
   392     0002                     	;# 
   393     0003                     	;# 
   394     0004                     	;# 
   395     0005                     	;# 
   396     0006                     	;# 
   397     0007                     	;# 
   398     0008                     	;# 
   399     0009                     	;# 
   400     000A                     	;# 
   401     000B                     	;# 
   402     000C                     	;# 
   403     000D                     	;# 
   404     000E                     	;# 
   405     0010                     	;# 
   406     0011                     	;# 
   407     0012                     	;# 
   408     0013                     	;# 
   409     0015                     	;# 
   410     0016                     	;# 
   411     0016                     	;# 
   412     0017                     	;# 
   413     0018                     	;# 
   414     0019                     	;# 
   415     001A                     	;# 
   416     001B                     	;# 
   417     001C                     	;# 
   418     008C                     	;# 
   419     008D                     	;# 
   420     008E                     	;# 
   421     0090                     	;# 
   422     0091                     	;# 
   423     0092                     	;# 
   424     0093                     	;# 
   425     0095                     	;# 
   426     0096                     	;# 
   427     0097                     	;# 
   428     0098                     	;# 
   429     0099                     	;# 
   430     009A                     	;# 
   431     009B                     	;# 
   432     009B                     	;# 
   433     009C                     	;# 
   434     009D                     	;# 
   435     009E                     	;# 
   436     009F                     	;# 
   437     010C                     	;# 
   438     010D                     	;# 
   439     010E                     	;# 
   440     0111                     	;# 
   441     0112                     	;# 
   442     0113                     	;# 
   443     0114                     	;# 
   444     0115                     	;# 
   445     0116                     	;# 
   446     0117                     	;# 
   447     0118                     	;# 
   448     0119                     	;# 
   449     011A                     	;# 
   450     011B                     	;# 
   451     011B                     	;# 
   452     011C                     	;# 
   453     018C                     	;# 
   454     018D                     	;# 
   455     018E                     	;# 
   456     0191                     	;# 
   457     0191                     	;# 
   458     0192                     	;# 
   459     0193                     	;# 
   460     0193                     	;# 
   461     0194                     	;# 
   462     0195                     	;# 
   463     0196                     	;# 
   464     0197                     	;# 
   465     0199                     	;# 
   466     0199                     	;# 
   467     0199                     	;# 
   468     019A                     	;# 
   469     019A                     	;# 
   470     019A                     	;# 
   471     019B                     	;# 
   472     019B                     	;# 
   473     019B                     	;# 
   474     019B                     	;# 
   475     019B                     	;# 
   476     019C                     	;# 
   477     019C                     	;# 
   478     019C                     	;# 
   479     019D                     	;# 
   480     019D                     	;# 
   481     019D                     	;# 
   482     019E                     	;# 
   483     019E                     	;# 
   484     019E                     	;# 
   485     019F                     	;# 
   486     019F                     	;# 
   487     019F                     	;# 
   488     019F                     	;# 
   489     019F                     	;# 
   490     020C                     	;# 
   491     020D                     	;# 
   492     020E                     	;# 
   493     0210                     	;# 
   494     0211                     	;# 
   495     0211                     	;# 
   496     0212                     	;# 
   497     0212                     	;# 
   498     0213                     	;# 
   499     0213                     	;# 
   500     0214                     	;# 
   501     0214                     	;# 
   502     0215                     	;# 
   503     0215                     	;# 
   504     0215                     	;# 
   505     0215                     	;# 
   506     0216                     	;# 
   507     0216                     	;# 
   508     0217                     	;# 
   509     0217                     	;# 
   510     028C                     	;# 
   511     028D                     	;# 
   512     028E                     	;# 
   513     0291                     	;# 
   514     0291                     	;# 
   515     0292                     	;# 
   516     0293                     	;# 
   517     0293                     	;# 
   518     0298                     	;# 
   519     0298                     	;# 
   520     0299                     	;# 
   521     029A                     	;# 
   522     029A                     	;# 
   523     029E                     	;# 
   524     030C                     	;# 
   525     030D                     	;# 
   526     030E                     	;# 
   527     038C                     	;# 
   528     038D                     	;# 
   529     038E                     	;# 
   530     0390                     	;# 
   531     0391                     	;# 
   532     0392                     	;# 
   533     0393                     	;# 
   534     0394                     	;# 
   535     0395                     	;# 
   536     0396                     	;# 
   537     0397                     	;# 
   538     0398                     	;# 
   539     0399                     	;# 
   540     039D                     	;# 
   541     039E                     	;# 
   542     039F                     	;# 
   543     0415                     	;# 
   544     0416                     	;# 
   545     0417                     	;# 
   546     041C                     	;# 
   547     041D                     	;# 
   548     041E                     	;# 
   549     0498                     	;# 
   550     0498                     	;# 
   551     0499                     	;# 
   552     049A                     	;# 
   553     049B                     	;# 
   554     049B                     	;# 
   555     049C                     	;# 
   556     049D                     	;# 
   557     049E                     	;# 
   558     049F                     	;# 
   559     0511                     	;# 
   560     0515                     	;# 
   561     0617                     	;# 
   562     0618                     	;# 
   563     0619                     	;# 
   564     0619                     	;# 
   565     061A                     	;# 
   566     061B                     	;# 
   567     061C                     	;# 
   568     061C                     	;# 
   569     0691                     	;# 
   570     0692                     	;# 
   571     0693                     	;# 
   572     0694                     	;# 
   573     0695                     	;# 
   574     0696                     	;# 
   575     0697                     	;# 
   576     0698                     	;# 
   577     0699                     	;# 
   578     069A                     	;# 
   579     069B                     	;# 
   580     069C                     	;# 
   581     069D                     	;# 
   582     069E                     	;# 
   583     069F                     	;# 
   584     0E0F                     	;# 
   585     0E10                     	;# 
   586     0E11                     	;# 
   587     0E12                     	;# 
   588     0E13                     	;# 
   589     0E14                     	;# 
   590     0E15                     	;# 
   591     0E17                     	;# 
   592     0E20                     	;# 
   593     0E21                     	;# 
   594     0E22                     	;# 
   595     0E24                     	;# 
   596     0E25                     	;# 
   597     0E28                     	;# 
   598     0E29                     	;# 
   599     0E2A                     	;# 
   600     0E2B                     	;# 
   601     0E90                     	;# 
   602     0E91                     	;# 
   603     0E92                     	;# 
   604     0E93                     	;# 
   605     0E94                     	;# 
   606     0E95                     	;# 
   607     0E96                     	;# 
   608     0E97                     	;# 
   609     0E98                     	;# 
   610     0E99                     	;# 
   611     0E9A                     	;# 
   612     0E9B                     	;# 
   613     0E9C                     	;# 
   614     0E9D                     	;# 
   615     0E9E                     	;# 
   616     0E9F                     	;# 
   617     0EA0                     	;# 
   618     0EA1                     	;# 
   619     0EA2                     	;# 
   620     0EA3                     	;# 
   621     0EA4                     	;# 
   622     0EA5                     	;# 
   623     0EA6                     	;# 
   624     0EA7                     	;# 
   625     0F0F                     	;# 
   626     0F10                     	;# 
   627     0F11                     	;# 
   628     0F12                     	;# 
   629     0F13                     	;# 
   630     0F14                     	;# 
   631     0F15                     	;# 
   632     0F16                     	;# 
   633     0F17                     	;# 
   634     0F18                     	;# 
   635     0F19                     	;# 
   636     0F1A                     	;# 
   637     0F1B                     	;# 
   638     0F1C                     	;# 
   639     0F1D                     	;# 
   640     0F1E                     	;# 
   641     0F1F                     	;# 
   642     0F20                     	;# 
   643     0F21                     	;# 
   644     0F22                     	;# 
   645     0F23                     	;# 
   646     0F24                     	;# 
   647     0F25                     	;# 
   648     0F26                     	;# 
   649     0F27                     	;# 
   650     0F28                     	;# 
   651     0F29                     	;# 
   652     0F2A                     	;# 
   653     0F2B                     	;# 
   654     0F2C                     	;# 
   655     0F2D                     	;# 
   656     0F2E                     	;# 
   657     0F2F                     	;# 
   658     0F30                     	;# 
   659     0F31                     	;# 
   660     0F32                     	;# 
   661     0F33                     	;# 
   662     0F34                     	;# 
   663     0F35                     	;# 
   664     0F36                     	;# 
   665     0F37                     	;# 
   666     0FE4                     	;# 
   667     0FE5                     	;# 
   668     0FE6                     	;# 
   669     0FE7                     	;# 
   670     0FE8                     	;# 
   671     0FE9                     	;# 
   672     0FEA                     	;# 
   673     0FEB                     	;# 
   674     0FED                     	;# 
   675     0FEE                     	;# 
   676     0FEF                     	;# 
   677     0000                     	;# 
   678     0001                     	;# 
   679     0002                     	;# 
   680     0003                     	;# 
   681     0004                     	;# 
   682     0005                     	;# 
   683     0006                     	;# 
   684     0007                     	;# 
   685     0008                     	;# 
   686     0009                     	;# 
   687     000A                     	;# 
   688     000B                     	;# 
   689     000C                     	;# 
   690     000D                     	;# 
   691     000E                     	;# 
   692     0010                     	;# 
   693     0011                     	;# 
   694     0012                     	;# 
   695     0013                     	;# 
   696     0015                     	;# 
   697     0016                     	;# 
   698     0016                     	;# 
   699     0017                     	;# 
   700     0018                     	;# 
   701     0019                     	;# 
   702     001A                     	;# 
   703     001B                     	;# 
   704     001C                     	;# 
   705     008C                     	;# 
   706     008D                     	;# 
   707     008E                     	;# 
   708     0090                     	;# 
   709     0091                     	;# 
   710     0092                     	;# 
   711     0093                     	;# 
   712     0095                     	;# 
   713     0096                     	;# 
   714     0097                     	;# 
   715     0098                     	;# 
   716     0099                     	;# 
   717     009A                     	;# 
   718     009B                     	;# 
   719     009B                     	;# 
   720     009C                     	;# 
   721     009D                     	;# 
   722     009E                     	;# 
   723     009F                     	;# 
   724     010C                     	;# 
   725     010D                     	;# 
   726     010E                     	;# 
   727     0111                     	;# 
   728     0112                     	;# 
   729     0113                     	;# 
   730     0114                     	;# 
   731     0115                     	;# 
   732     0116                     	;# 
   733     0117                     	;# 
   734     0118                     	;# 
   735     0119                     	;# 
   736     011A                     	;# 
   737     011B                     	;# 
   738     011B                     	;# 
   739     011C                     	;# 
   740     018C                     	;# 
   741     018D                     	;# 
   742     018E                     	;# 
   743     0191                     	;# 
   744     0191                     	;# 
   745     0192                     	;# 
   746     0193                     	;# 
   747     0193                     	;# 
   748     0194                     	;# 
   749     0195                     	;# 
   750     0196                     	;# 
   751     0197                     	;# 
   752     0199                     	;# 
   753     0199                     	;# 
   754     0199                     	;# 
   755     019A                     	;# 
   756     019A                     	;# 
   757     019A                     	;# 
   758     019B                     	;# 
   759     019B                     	;# 
   760     019B                     	;# 
   761     019B                     	;# 
   762     019B                     	;# 
   763     019C                     	;# 
   764     019C                     	;# 
   765     019C                     	;# 
   766     019D                     	;# 
   767     019D                     	;# 
   768     019D                     	;# 
   769     019E                     	;# 
   770     019E                     	;# 
   771     019E                     	;# 
   772     019F                     	;# 
   773     019F                     	;# 
   774     019F                     	;# 
   775     019F                     	;# 
   776     019F                     	;# 
   777     020C                     	;# 
   778     020D                     	;# 
   779     020E                     	;# 
   780     0210                     	;# 
   781     0211                     	;# 
   782     0211                     	;# 
   783     0212                     	;# 
   784     0212                     	;# 
   785     0213                     	;# 
   786     0213                     	;# 
   787     0214                     	;# 
   788     0214                     	;# 
   789     0215                     	;# 
   790     0215                     	;# 
   791     0215                     	;# 
   792     0215                     	;# 
   793     0216                     	;# 
   794     0216                     	;# 
   795     0217                     	;# 
   796     0217                     	;# 
   797     028C                     	;# 
   798     028D                     	;# 
   799     028E                     	;# 
   800     0291                     	;# 
   801     0291                     	;# 
   802     0292                     	;# 
   803     0293                     	;# 
   804     0293                     	;# 
   805     0298                     	;# 
   806     0298                     	;# 
   807     0299                     	;# 
   808     029A                     	;# 
   809     029A                     	;# 
   810     029E                     	;# 
   811     030C                     	;# 
   812     030D                     	;# 
   813     030E                     	;# 
   814     038C                     	;# 
   815     038D                     	;# 
   816     038E                     	;# 
   817     0390                     	;# 
   818     0391                     	;# 
   819     0392                     	;# 
   820     0393                     	;# 
   821     0394                     	;# 
   822     0395                     	;# 
   823     0396                     	;# 
   824     0397                     	;# 
   825     0398                     	;# 
   826     0399                     	;# 
   827     039D                     	;# 
   828     039E                     	;# 
   829     039F                     	;# 
   830     0415                     	;# 
   831     0416                     	;# 
   832     0417                     	;# 
   833     041C                     	;# 
   834     041D                     	;# 
   835     041E                     	;# 
   836     0498                     	;# 
   837     0498                     	;# 
   838     0499                     	;# 
   839     049A                     	;# 
   840     049B                     	;# 
   841     049B                     	;# 
   842     049C                     	;# 
   843     049D                     	;# 
   844     049E                     	;# 
   845     049F                     	;# 
   846     0511                     	;# 
   847     0515                     	;# 
   848     0617                     	;# 
   849     0618                     	;# 
   850     0619                     	;# 
   851     0619                     	;# 
   852     061A                     	;# 
   853     061B                     	;# 
   854     061C                     	;# 
   855     061C                     	;# 
   856     0691                     	;# 
   857     0692                     	;# 
   858     0693                     	;# 
   859     0694                     	;# 
   860     0695                     	;# 
   861     0696                     	;# 
   862     0697                     	;# 
   863     0698                     	;# 
   864     0699                     	;# 
   865     069A                     	;# 
   866     069B                     	;# 
   867     069C                     	;# 
   868     069D                     	;# 
   869     069E                     	;# 
   870     069F                     	;# 
   871     0E0F                     	;# 
   872     0E10                     	;# 
   873     0E11                     	;# 
   874     0E12                     	;# 
   875     0E13                     	;# 
   876     0E14                     	;# 
   877     0E15                     	;# 
   878     0E17                     	;# 
   879     0E20                     	;# 
   880     0E21                     	;# 
   881     0E22                     	;# 
   882     0E24                     	;# 
   883     0E25                     	;# 
   884     0E28                     	;# 
   885     0E29                     	;# 
   886     0E2A                     	;# 
   887     0E2B                     	;# 
   888     0E90                     	;# 
   889     0E91                     	;# 
   890     0E92                     	;# 
   891     0E93                     	;# 
   892     0E94                     	;# 
   893     0E95                     	;# 
   894     0E96                     	;# 
   895     0E97                     	;# 
   896     0E98                     	;# 
   897     0E99                     	;# 
   898     0E9A                     	;# 
   899     0E9B                     	;# 
   900     0E9C                     	;# 
   901     0E9D                     	;# 
   902     0E9E                     	;# 
   903     0E9F                     	;# 
   904     0EA0                     	;# 
   905     0EA1                     	;# 
   906     0EA2                     	;# 
   907     0EA3                     	;# 
   908     0EA4                     	;# 
   909     0EA5                     	;# 
   910     0EA6                     	;# 
   911     0EA7                     	;# 
   912     0F0F                     	;# 
   913     0F10                     	;# 
   914     0F11                     	;# 
   915     0F12                     	;# 
   916     0F13                     	;# 
   917     0F14                     	;# 
   918     0F15                     	;# 
   919     0F16                     	;# 
   920     0F17                     	;# 
   921     0F18                     	;# 
   922     0F19                     	;# 
   923     0F1A                     	;# 
   924     0F1B                     	;# 
   925     0F1C                     	;# 
   926     0F1D                     	;# 
   927     0F1E                     	;# 
   928     0F1F                     	;# 
   929     0F20                     	;# 
   930     0F21                     	;# 
   931     0F22                     	;# 
   932     0F23                     	;# 
   933     0F24                     	;# 
   934     0F25                     	;# 
   935     0F26                     	;# 
   936     0F27                     	;# 
   937     0F28                     	;# 
   938     0F29                     	;# 
   939     0F2A                     	;# 
   940     0F2B                     	;# 
   941     0F2C                     	;# 
   942     0F2D                     	;# 
   943     0F2E                     	;# 
   944     0F2F                     	;# 
   945     0F30                     	;# 
   946     0F31                     	;# 
   947     0F32                     	;# 
   948     0F33                     	;# 
   949     0F34                     	;# 
   950     0F35                     	;# 
   951     0F36                     	;# 
   952     0F37                     	;# 
   953     0FE4                     	;# 
   954     0FE5                     	;# 
   955     0FE6                     	;# 
   956     0FE7                     	;# 
   957     0FE8                     	;# 
   958     0FE9                     	;# 
   959     0FEA                     	;# 
   960     0FEB                     	;# 
   961     0FED                     	;# 
   962     0FEE                     	;# 
   963     0FEF                     	;# 
   964     0000                     	;# 
   965     0001                     	;# 
   966     0002                     	;# 
   967     0003                     	;# 
   968     0004                     	;# 
   969     0005                     	;# 
   970     0006                     	;# 
   971     0007                     	;# 
   972     0008                     	;# 
   973     0009                     	;# 
   974     000A                     	;# 
   975     000B                     	;# 
   976     000C                     	;# 
   977     000D                     	;# 
   978     000E                     	;# 
   979     0010                     	;# 
   980     0011                     	;# 
   981     0012                     	;# 
   982     0013                     	;# 
   983     0015                     	;# 
   984     0016                     	;# 
   985     0016                     	;# 
   986     0017                     	;# 
   987     0018                     	;# 
   988     0019                     	;# 
   989     001A                     	;# 
   990     001B                     	;# 
   991     001C                     	;# 
   992     008C                     	;# 
   993     008D                     	;# 
   994     008E                     	;# 
   995     0090                     	;# 
   996     0091                     	;# 
   997     0092                     	;# 
   998     0093                     	;# 
   999     0095                     	;# 
  1000     0096                     	;# 
  1001     0097                     	;# 
  1002     0098                     	;# 
  1003     0099                     	;# 
  1004     009A                     	;# 
  1005     009B                     	;# 
  1006     009B                     	;# 
  1007     009C                     	;# 
  1008     009D                     	;# 
  1009     009E                     	;# 
  1010     009F                     	;# 
  1011     010C                     	;# 
  1012     010D                     	;# 
  1013     010E                     	;# 
  1014     0111                     	;# 
  1015     0112                     	;# 
  1016     0113                     	;# 
  1017     0114                     	;# 
  1018     0115                     	;# 
  1019     0116                     	;# 
  1020     0117                     	;# 
  1021     0118                     	;# 
  1022     0119                     	;# 
  1023     011A                     	;# 
  1024     011B                     	;# 
  1025     011B                     	;# 
  1026     011C                     	;# 
  1027     018C                     	;# 
  1028     018D                     	;# 
  1029     018E                     	;# 
  1030     0191                     	;# 
  1031     0191                     	;# 
  1032     0192                     	;# 
  1033     0193                     	;# 
  1034     0193                     	;# 
  1035     0194                     	;# 
  1036     0195                     	;# 
  1037     0196                     	;# 
  1038     0197                     	;# 
  1039     0199                     	;# 
  1040     0199                     	;# 
  1041     0199                     	;# 
  1042     019A                     	;# 
  1043     019A                     	;# 
  1044     019A                     	;# 
  1045     019B                     	;# 
  1046     019B                     	;# 
  1047     019B                     	;# 
  1048     019B                     	;# 
  1049     019B                     	;# 
  1050     019C                     	;# 
  1051     019C                     	;# 
  1052     019C                     	;# 
  1053     019D                     	;# 
  1054     019D                     	;# 
  1055     019D                     	;# 
  1056     019E                     	;# 
  1057     019E                     	;# 
  1058     019E                     	;# 
  1059     019F                     	;# 
  1060     019F                     	;# 
  1061     019F                     	;# 
  1062     019F                     	;# 
  1063     019F                     	;# 
  1064     020C                     	;# 
  1065     020D                     	;# 
  1066     020E                     	;# 
  1067     0210                     	;# 
  1068     0211                     	;# 
  1069     0211                     	;# 
  1070     0212                     	;# 
  1071     0212                     	;# 
  1072     0213                     	;# 
  1073     0213                     	;# 
  1074     0214                     	;# 
  1075     0214                     	;# 
  1076     0215                     	;# 
  1077     0215                     	;# 
  1078     0215                     	;# 
  1079     0215                     	;# 
  1080     0216                     	;# 
  1081     0216                     	;# 
  1082     0217                     	;# 
  1083     0217                     	;# 
  1084     028C                     	;# 
  1085     028D                     	;# 
  1086     028E                     	;# 
  1087     0291                     	;# 
  1088     0291                     	;# 
  1089     0292                     	;# 
  1090     0293                     	;# 
  1091     0293                     	;# 
  1092     0298                     	;# 
  1093     0298                     	;# 
  1094     0299                     	;# 
  1095     029A                     	;# 
  1096     029A                     	;# 
  1097     029E                     	;# 
  1098     030C                     	;# 
  1099     030D                     	;# 
  1100     030E                     	;# 
  1101     038C                     	;# 
  1102     038D                     	;# 
  1103     038E                     	;# 
  1104     0390                     	;# 
  1105     0391                     	;# 
  1106     0392                     	;# 
  1107     0393                     	;# 
  1108     0394                     	;# 
  1109     0395                     	;# 
  1110     0396                     	;# 
  1111     0397                     	;# 
  1112     0398                     	;# 
  1113     0399                     	;# 
  1114     039D                     	;# 
  1115     039E                     	;# 
  1116     039F                     	;# 
  1117     0415                     	;# 
  1118     0416                     	;# 
  1119     0417                     	;# 
  1120     041C                     	;# 
  1121     041D                     	;# 
  1122     041E                     	;# 
  1123     0498                     	;# 
  1124     0498                     	;# 
  1125     0499                     	;# 
  1126     049A                     	;# 
  1127     049B                     	;# 
  1128     049B                     	;# 
  1129     049C                     	;# 
  1130     049D                     	;# 
  1131     049E                     	;# 
  1132     049F                     	;# 
  1133     0511                     	;# 
  1134     0515                     	;# 
  1135     0617                     	;# 
  1136     0618                     	;# 
  1137     0619                     	;# 
  1138     0619                     	;# 
  1139     061A                     	;# 
  1140     061B                     	;# 
  1141     061C                     	;# 
  1142     061C                     	;# 
  1143     0691                     	;# 
  1144     0692                     	;# 
  1145     0693                     	;# 
  1146     0694                     	;# 
  1147     0695                     	;# 
  1148     0696                     	;# 
  1149     0697                     	;# 
  1150     0698                     	;# 
  1151     0699                     	;# 
  1152     069A                     	;# 
  1153     069B                     	;# 
  1154     069C                     	;# 
  1155     069D                     	;# 
  1156     069E                     	;# 
  1157     069F                     	;# 
  1158     0E0F                     	;# 
  1159     0E10                     	;# 
  1160     0E11                     	;# 
  1161     0E12                     	;# 
  1162     0E13                     	;# 
  1163     0E14                     	;# 
  1164     0E15                     	;# 
  1165     0E17                     	;# 
  1166     0E20                     	;# 
  1167     0E21                     	;# 
  1168     0E22                     	;# 
  1169     0E24                     	;# 
  1170     0E25                     	;# 
  1171     0E28                     	;# 
  1172     0E29                     	;# 
  1173     0E2A                     	;# 
  1174     0E2B                     	;# 
  1175     0E90                     	;# 
  1176     0E91                     	;# 
  1177     0E92                     	;# 
  1178     0E93                     	;# 
  1179     0E94                     	;# 
  1180     0E95                     	;# 
  1181     0E96                     	;# 
  1182     0E97                     	;# 
  1183     0E98                     	;# 
  1184     0E99                     	;# 
  1185     0E9A                     	;# 
  1186     0E9B                     	;# 
  1187     0E9C                     	;# 
  1188     0E9D                     	;# 
  1189     0E9E                     	;# 
  1190     0E9F                     	;# 
  1191     0EA0                     	;# 
  1192     0EA1                     	;# 
  1193     0EA2                     	;# 
  1194     0EA3                     	;# 
  1195     0EA4                     	;# 
  1196     0EA5                     	;# 
  1197     0EA6                     	;# 
  1198     0EA7                     	;# 
  1199     0F0F                     	;# 
  1200     0F10                     	;# 
  1201     0F11                     	;# 
  1202     0F12                     	;# 
  1203     0F13                     	;# 
  1204     0F14                     	;# 
  1205     0F15                     	;# 
  1206     0F16                     	;# 
  1207     0F17                     	;# 
  1208     0F18                     	;# 
  1209     0F19                     	;# 
  1210     0F1A                     	;# 
  1211     0F1B                     	;# 
  1212     0F1C                     	;# 
  1213     0F1D                     	;# 
  1214     0F1E                     	;# 
  1215     0F1F                     	;# 
  1216     0F20                     	;# 
  1217     0F21                     	;# 
  1218     0F22                     	;# 
  1219     0F23                     	;# 
  1220     0F24                     	;# 
  1221     0F25                     	;# 
  1222     0F26                     	;# 
  1223     0F27                     	;# 
  1224     0F28                     	;# 
  1225     0F29                     	;# 
  1226     0F2A                     	;# 
  1227     0F2B                     	;# 
  1228     0F2C                     	;# 
  1229     0F2D                     	;# 
  1230     0F2E                     	;# 
  1231     0F2F                     	;# 
  1232     0F30                     	;# 
  1233     0F31                     	;# 
  1234     0F32                     	;# 
  1235     0F33                     	;# 
  1236     0F34                     	;# 
  1237     0F35                     	;# 
  1238     0F36                     	;# 
  1239     0F37                     	;# 
  1240     0FE4                     	;# 
  1241     0FE5                     	;# 
  1242     0FE6                     	;# 
  1243     0FE7                     	;# 
  1244     0FE8                     	;# 
  1245     0FE9                     	;# 
  1246     0FEA                     	;# 
  1247     0FEB                     	;# 
  1248     0FED                     	;# 
  1249     0FEE                     	;# 
  1250     0FEF                     	;_screen_buffer
  1251                           
  1252                           	psect	stringtext1
  1253     1800                     __pstringtext1:
  1254     1800                     _BatteryIcon:
  1255     1800  34FF               	retlw	255
  1256     1801  3481               	retlw	129
  1257     1802  34BD               	retlw	189
  1258     1803  34BD               	retlw	189
  1259     1804  34BD               	retlw	189
  1260     1805  3481               	retlw	129
  1261     1806  34FF               	retlw	255
  1262     1807  3418               	retlw	24
  1263     1808  3400               	retlw	0
  1264     1809  3400               	retlw	0
  1265     180A                     __end_of_BatteryIcon:
  1266                           
  1267                           	psect	stringtext2
  1268     0800                     __pstringtext2:
  1269     0800                     _OledFont:
  1270     0800  3400               	retlw	0
  1271     0801  3400               	retlw	0
  1272     0802  3400               	retlw	0
  1273     0803  3400               	retlw	0
  1274     0804  3400               	retlw	0
  1275     0805  3400               	retlw	0
  1276     0806  3400               	retlw	0
  1277     0807  3400               	retlw	0
  1278     0808  3400               	retlw	0
  1279     0809  3400               	retlw	0
  1280     080A  345F               	retlw	95
  1281     080B  3400               	retlw	0
  1282     080C  3400               	retlw	0
  1283     080D  3400               	retlw	0
  1284     080E  3400               	retlw	0
  1285     080F  3400               	retlw	0
  1286     0810  3400               	retlw	0
  1287     0811  3400               	retlw	0
  1288     0812  3407               	retlw	7
  1289     0813  3400               	retlw	0
  1290     0814  3407               	retlw	7
  1291     0815  3400               	retlw	0
  1292     0816  3400               	retlw	0
  1293     0817  3400               	retlw	0
  1294     0818  3400               	retlw	0
  1295     0819  3414               	retlw	20
  1296     081A  347F               	retlw	127
  1297     081B  3414               	retlw	20
  1298     081C  347F               	retlw	127
  1299     081D  3414               	retlw	20
  1300     081E  3400               	retlw	0
  1301     081F  3400               	retlw	0
  1302     0820  3400               	retlw	0
  1303     0821  3424               	retlw	36
  1304     0822  342A               	retlw	42
  1305     0823  347F               	retlw	127
  1306     0824  342A               	retlw	42
  1307     0825  3412               	retlw	18
  1308     0826  3400               	retlw	0
  1309     0827  3400               	retlw	0
  1310     0828  3400               	retlw	0
  1311     0829  3423               	retlw	35
  1312     082A  3413               	retlw	19
  1313     082B  3408               	retlw	8
  1314     082C  3464               	retlw	100
  1315     082D  3462               	retlw	98
  1316     082E  3400               	retlw	0
  1317     082F  3400               	retlw	0
  1318     0830  3400               	retlw	0
  1319     0831  3436               	retlw	54
  1320     0832  3449               	retlw	73
  1321     0833  3455               	retlw	85
  1322     0834  3422               	retlw	34
  1323     0835  3450               	retlw	80
  1324     0836  3400               	retlw	0
  1325     0837  3400               	retlw	0
  1326     0838  3400               	retlw	0
  1327     0839  3400               	retlw	0
  1328     083A  3405               	retlw	5
  1329     083B  3403               	retlw	3
  1330     083C  3400               	retlw	0
  1331     083D  3400               	retlw	0
  1332     083E  3400               	retlw	0
  1333     083F  3400               	retlw	0
  1334     0840  3400               	retlw	0
  1335     0841  341C               	retlw	28
  1336     0842  3422               	retlw	34
  1337     0843  3441               	retlw	65
  1338     0844  3400               	retlw	0
  1339     0845  3400               	retlw	0
  1340     0846  3400               	retlw	0
  1341     0847  3400               	retlw	0
  1342     0848  3400               	retlw	0
  1343     0849  3441               	retlw	65
  1344     084A  3422               	retlw	34
  1345     084B  341C               	retlw	28
  1346     084C  3400               	retlw	0
  1347     084D  3400               	retlw	0
  1348     084E  3400               	retlw	0
  1349     084F  3400               	retlw	0
  1350     0850  3400               	retlw	0
  1351     0851  3408               	retlw	8
  1352     0852  342A               	retlw	42
  1353     0853  341C               	retlw	28
  1354     0854  342A               	retlw	42
  1355     0855  3408               	retlw	8
  1356     0856  3400               	retlw	0
  1357     0857  3400               	retlw	0
  1358     0858  3400               	retlw	0
  1359     0859  3408               	retlw	8
  1360     085A  3408               	retlw	8
  1361     085B  343E               	retlw	62
  1362     085C  3408               	retlw	8
  1363     085D  3408               	retlw	8
  1364     085E  3400               	retlw	0
  1365     085F  3400               	retlw	0
  1366     0860  3400               	retlw	0
  1367     0861  34A0               	retlw	160
  1368     0862  3460               	retlw	96
  1369     0863  3400               	retlw	0
  1370     0864  3400               	retlw	0
  1371     0865  3400               	retlw	0
  1372     0866  3400               	retlw	0
  1373     0867  3400               	retlw	0
  1374     0868  3400               	retlw	0
  1375     0869  3408               	retlw	8
  1376     086A  3408               	retlw	8
  1377     086B  3408               	retlw	8
  1378     086C  3408               	retlw	8
  1379     086D  3408               	retlw	8
  1380     086E  3400               	retlw	0
  1381     086F  3400               	retlw	0
  1382     0870  3400               	retlw	0
  1383     0871  3460               	retlw	96
  1384     0872  3460               	retlw	96
  1385     0873  3400               	retlw	0
  1386     0874  3400               	retlw	0
  1387     0875  3400               	retlw	0
  1388     0876  3400               	retlw	0
  1389     0877  3400               	retlw	0
  1390     0878  3400               	retlw	0
  1391     0879  3420               	retlw	32
  1392     087A  3410               	retlw	16
  1393     087B  3408               	retlw	8
  1394     087C  3404               	retlw	4
  1395     087D  3402               	retlw	2
  1396     087E  3400               	retlw	0
  1397     087F  3400               	retlw	0
  1398     0880  3400               	retlw	0
  1399     0881  343E               	retlw	62
  1400     0882  3451               	retlw	81
  1401     0883  3449               	retlw	73
  1402     0884  3445               	retlw	69
  1403     0885  343E               	retlw	62
  1404     0886  3400               	retlw	0
  1405     0887  3400               	retlw	0
  1406     0888  3400               	retlw	0
  1407     0889  3400               	retlw	0
  1408     088A  3442               	retlw	66
  1409     088B  347F               	retlw	127
  1410     088C  3440               	retlw	64
  1411     088D  3400               	retlw	0
  1412     088E  3400               	retlw	0
  1413     088F  3400               	retlw	0
  1414     0890  3400               	retlw	0
  1415     0891  3462               	retlw	98
  1416     0892  3451               	retlw	81
  1417     0893  3449               	retlw	73
  1418     0894  3449               	retlw	73
  1419     0895  3446               	retlw	70
  1420     0896  3400               	retlw	0
  1421     0897  3400               	retlw	0
  1422     0898  3400               	retlw	0
  1423     0899  3422               	retlw	34
  1424     089A  3441               	retlw	65
  1425     089B  3449               	retlw	73
  1426     089C  3449               	retlw	73
  1427     089D  3436               	retlw	54
  1428     089E  3400               	retlw	0
  1429     089F  3400               	retlw	0
  1430     08A0  3400               	retlw	0
  1431     08A1  3418               	retlw	24
  1432     08A2  3414               	retlw	20
  1433     08A3  3412               	retlw	18
  1434     08A4  347F               	retlw	127
  1435     08A5  3410               	retlw	16
  1436     08A6  3400               	retlw	0
  1437     08A7  3400               	retlw	0
  1438     08A8  3400               	retlw	0
  1439     08A9  3427               	retlw	39
  1440     08AA  3445               	retlw	69
  1441     08AB  3445               	retlw	69
  1442     08AC  3445               	retlw	69
  1443     08AD  3439               	retlw	57
  1444     08AE  3400               	retlw	0
  1445     08AF  3400               	retlw	0
  1446     08B0  3400               	retlw	0
  1447     08B1  343C               	retlw	60
  1448     08B2  344A               	retlw	74
  1449     08B3  3449               	retlw	73
  1450     08B4  3449               	retlw	73
  1451     08B5  3430               	retlw	48
  1452     08B6  3400               	retlw	0
  1453     08B7  3400               	retlw	0
  1454     08B8  3400               	retlw	0
  1455     08B9  3401               	retlw	1
  1456     08BA  3471               	retlw	113
  1457     08BB  3409               	retlw	9
  1458     08BC  3405               	retlw	5
  1459     08BD  3403               	retlw	3
  1460     08BE  3400               	retlw	0
  1461     08BF  3400               	retlw	0
  1462     08C0  3400               	retlw	0
  1463     08C1  3436               	retlw	54
  1464     08C2  3449               	retlw	73
  1465     08C3  3449               	retlw	73
  1466     08C4  3449               	retlw	73
  1467     08C5  3436               	retlw	54
  1468     08C6  3400               	retlw	0
  1469     08C7  3400               	retlw	0
  1470     08C8  3400               	retlw	0
  1471     08C9  3406               	retlw	6
  1472     08CA  3449               	retlw	73
  1473     08CB  3449               	retlw	73
  1474     08CC  3429               	retlw	41
  1475     08CD  341E               	retlw	30
  1476     08CE  3400               	retlw	0
  1477     08CF  3400               	retlw	0
  1478     08D0  3400               	retlw	0
  1479     08D1  3400               	retlw	0
  1480     08D2  3436               	retlw	54
  1481     08D3  3436               	retlw	54
  1482     08D4  3400               	retlw	0
  1483     08D5  3400               	retlw	0
  1484     08D6  3400               	retlw	0
  1485     08D7  3400               	retlw	0
  1486     08D8  3400               	retlw	0
  1487     08D9  3400               	retlw	0
  1488     08DA  34AC               	retlw	172
  1489     08DB  346C               	retlw	108
  1490     08DC  3400               	retlw	0
  1491     08DD  3400               	retlw	0
  1492     08DE  3400               	retlw	0
  1493     08DF  3400               	retlw	0
  1494     08E0  3400               	retlw	0
  1495     08E1  3408               	retlw	8
  1496     08E2  3414               	retlw	20
  1497     08E3  3422               	retlw	34
  1498     08E4  3441               	retlw	65
  1499     08E5  3400               	retlw	0
  1500     08E6  3400               	retlw	0
  1501     08E7  3400               	retlw	0
  1502     08E8  3400               	retlw	0
  1503     08E9  3414               	retlw	20
  1504     08EA  3414               	retlw	20
  1505     08EB  3414               	retlw	20
  1506     08EC  3414               	retlw	20
  1507     08ED  3414               	retlw	20
  1508     08EE  3400               	retlw	0
  1509     08EF  3400               	retlw	0
  1510     08F0  3400               	retlw	0
  1511     08F1  3441               	retlw	65
  1512     08F2  3422               	retlw	34
  1513     08F3  3414               	retlw	20
  1514     08F4  3408               	retlw	8
  1515     08F5  3400               	retlw	0
  1516     08F6  3400               	retlw	0
  1517     08F7  3400               	retlw	0
  1518     08F8  3400               	retlw	0
  1519     08F9  3402               	retlw	2
  1520     08FA  3401               	retlw	1
  1521     08FB  3451               	retlw	81
  1522     08FC  3409               	retlw	9
  1523     08FD  3406               	retlw	6
  1524     08FE  3400               	retlw	0
  1525     08FF  3400               	retlw	0
  1526     0900  3400               	retlw	0
  1527     0901  3432               	retlw	50
  1528     0902  3449               	retlw	73
  1529     0903  3479               	retlw	121
  1530     0904  3441               	retlw	65
  1531     0905  343E               	retlw	62
  1532     0906  3400               	retlw	0
  1533     0907  3400               	retlw	0
  1534     0908  3400               	retlw	0
  1535     0909  347E               	retlw	126
  1536     090A  3409               	retlw	9
  1537     090B  3409               	retlw	9
  1538     090C  3409               	retlw	9
  1539     090D  347E               	retlw	126
  1540     090E  3400               	retlw	0
  1541     090F  3400               	retlw	0
  1542     0910  3400               	retlw	0
  1543     0911  347F               	retlw	127
  1544     0912  3449               	retlw	73
  1545     0913  3449               	retlw	73
  1546     0914  3449               	retlw	73
  1547     0915  3436               	retlw	54
  1548     0916  3400               	retlw	0
  1549     0917  3400               	retlw	0
  1550     0918  3400               	retlw	0
  1551     0919  343E               	retlw	62
  1552     091A  3441               	retlw	65
  1553     091B  3441               	retlw	65
  1554     091C  3441               	retlw	65
  1555     091D  3422               	retlw	34
  1556     091E  3400               	retlw	0
  1557     091F  3400               	retlw	0
  1558     0920  3400               	retlw	0
  1559     0921  347F               	retlw	127
  1560     0922  3441               	retlw	65
  1561     0923  3441               	retlw	65
  1562     0924  3422               	retlw	34
  1563     0925  341C               	retlw	28
  1564     0926  3400               	retlw	0
  1565     0927  3400               	retlw	0
  1566     0928  3400               	retlw	0
  1567     0929  347F               	retlw	127
  1568     092A  3449               	retlw	73
  1569     092B  3449               	retlw	73
  1570     092C  3449               	retlw	73
  1571     092D  3441               	retlw	65
  1572     092E  3400               	retlw	0
  1573     092F  3400               	retlw	0
  1574     0930  3400               	retlw	0
  1575     0931  347F               	retlw	127
  1576     0932  3409               	retlw	9
  1577     0933  3409               	retlw	9
  1578     0934  3409               	retlw	9
  1579     0935  3401               	retlw	1
  1580     0936  3400               	retlw	0
  1581     0937  3400               	retlw	0
  1582     0938  3400               	retlw	0
  1583     0939  343E               	retlw	62
  1584     093A  3441               	retlw	65
  1585     093B  3441               	retlw	65
  1586     093C  3451               	retlw	81
  1587     093D  3472               	retlw	114
  1588     093E  3400               	retlw	0
  1589     093F  3400               	retlw	0
  1590     0940  3400               	retlw	0
  1591     0941  347F               	retlw	127
  1592     0942  3408               	retlw	8
  1593     0943  3408               	retlw	8
  1594     0944  3408               	retlw	8
  1595     0945  347F               	retlw	127
  1596     0946  3400               	retlw	0
  1597     0947  3400               	retlw	0
  1598     0948  3400               	retlw	0
  1599     0949  3441               	retlw	65
  1600     094A  347F               	retlw	127
  1601     094B  3441               	retlw	65
  1602     094C  3400               	retlw	0
  1603     094D  3400               	retlw	0
  1604     094E  3400               	retlw	0
  1605     094F  3400               	retlw	0
  1606     0950  3400               	retlw	0
  1607     0951  3420               	retlw	32
  1608     0952  3440               	retlw	64
  1609     0953  3441               	retlw	65
  1610     0954  343F               	retlw	63
  1611     0955  3401               	retlw	1
  1612     0956  3400               	retlw	0
  1613     0957  3400               	retlw	0
  1614     0958  3400               	retlw	0
  1615     0959  347F               	retlw	127
  1616     095A  3408               	retlw	8
  1617     095B  3414               	retlw	20
  1618     095C  3422               	retlw	34
  1619     095D  3441               	retlw	65
  1620     095E  3400               	retlw	0
  1621     095F  3400               	retlw	0
  1622     0960  3400               	retlw	0
  1623     0961  347F               	retlw	127
  1624     0962  3440               	retlw	64
  1625     0963  3440               	retlw	64
  1626     0964  3440               	retlw	64
  1627     0965  3440               	retlw	64
  1628     0966  3400               	retlw	0
  1629     0967  3400               	retlw	0
  1630     0968  3400               	retlw	0
  1631     0969  347F               	retlw	127
  1632     096A  3402               	retlw	2
  1633     096B  340C               	retlw	12
  1634     096C  3402               	retlw	2
  1635     096D  347F               	retlw	127
  1636     096E  3400               	retlw	0
  1637     096F  3400               	retlw	0
  1638     0970  3400               	retlw	0
  1639     0971  347F               	retlw	127
  1640     0972  3404               	retlw	4
  1641     0973  3408               	retlw	8
  1642     0974  3410               	retlw	16
  1643     0975  347F               	retlw	127
  1644     0976  3400               	retlw	0
  1645     0977  3400               	retlw	0
  1646     0978  3400               	retlw	0
  1647     0979  343E               	retlw	62
  1648     097A  3441               	retlw	65
  1649     097B  3441               	retlw	65
  1650     097C  3441               	retlw	65
  1651     097D  343E               	retlw	62
  1652     097E  3400               	retlw	0
  1653     097F  3400               	retlw	0
  1654     0980  3400               	retlw	0
  1655     0981  347F               	retlw	127
  1656     0982  3409               	retlw	9
  1657     0983  3409               	retlw	9
  1658     0984  3409               	retlw	9
  1659     0985  3406               	retlw	6
  1660     0986  3400               	retlw	0
  1661     0987  3400               	retlw	0
  1662     0988  3400               	retlw	0
  1663     0989  343E               	retlw	62
  1664     098A  3441               	retlw	65
  1665     098B  3451               	retlw	81
  1666     098C  3421               	retlw	33
  1667     098D  345E               	retlw	94
  1668     098E  3400               	retlw	0
  1669     098F  3400               	retlw	0
  1670     0990  3400               	retlw	0
  1671     0991  347F               	retlw	127
  1672     0992  3409               	retlw	9
  1673     0993  3419               	retlw	25
  1674     0994  3429               	retlw	41
  1675     0995  3446               	retlw	70
  1676     0996  3400               	retlw	0
  1677     0997  3400               	retlw	0
  1678     0998  3400               	retlw	0
  1679     0999  3426               	retlw	38
  1680     099A  3449               	retlw	73
  1681     099B  3449               	retlw	73
  1682     099C  3449               	retlw	73
  1683     099D  3432               	retlw	50
  1684     099E  3400               	retlw	0
  1685     099F  3400               	retlw	0
  1686     09A0  3400               	retlw	0
  1687     09A1  3401               	retlw	1
  1688     09A2  3401               	retlw	1
  1689     09A3  347F               	retlw	127
  1690     09A4  3401               	retlw	1
  1691     09A5  3401               	retlw	1
  1692     09A6  3400               	retlw	0
  1693     09A7  3400               	retlw	0
  1694     09A8  3400               	retlw	0
  1695     09A9  343F               	retlw	63
  1696     09AA  3440               	retlw	64
  1697     09AB  3440               	retlw	64
  1698     09AC  3440               	retlw	64
  1699     09AD  343F               	retlw	63
  1700     09AE  3400               	retlw	0
  1701     09AF  3400               	retlw	0
  1702     09B0  3400               	retlw	0
  1703     09B1  341F               	retlw	31
  1704     09B2  3420               	retlw	32
  1705     09B3  3440               	retlw	64
  1706     09B4  3420               	retlw	32
  1707     09B5  341F               	retlw	31
  1708     09B6  3400               	retlw	0
  1709     09B7  3400               	retlw	0
  1710     09B8  3400               	retlw	0
  1711     09B9  343F               	retlw	63
  1712     09BA  3440               	retlw	64
  1713     09BB  3438               	retlw	56
  1714     09BC  3440               	retlw	64
  1715     09BD  343F               	retlw	63
  1716     09BE  3400               	retlw	0
  1717     09BF  3400               	retlw	0
  1718     09C0  3400               	retlw	0
  1719     09C1  3463               	retlw	99
  1720     09C2  3414               	retlw	20
  1721     09C3  3408               	retlw	8
  1722     09C4  3414               	retlw	20
  1723     09C5  3463               	retlw	99
  1724     09C6  3400               	retlw	0
  1725     09C7  3400               	retlw	0
  1726     09C8  3400               	retlw	0
  1727     09C9  3403               	retlw	3
  1728     09CA  3404               	retlw	4
  1729     09CB  3478               	retlw	120
  1730     09CC  3404               	retlw	4
  1731     09CD  3403               	retlw	3
  1732     09CE  3400               	retlw	0
  1733     09CF  3400               	retlw	0
  1734     09D0  3400               	retlw	0
  1735     09D1  3461               	retlw	97
  1736     09D2  3451               	retlw	81
  1737     09D3  3449               	retlw	73
  1738     09D4  3445               	retlw	69
  1739     09D5  3443               	retlw	67
  1740     09D6  3400               	retlw	0
  1741     09D7  3400               	retlw	0
  1742     09D8  3400               	retlw	0
  1743     09D9  347F               	retlw	127
  1744     09DA  3441               	retlw	65
  1745     09DB  3441               	retlw	65
  1746     09DC  3400               	retlw	0
  1747     09DD  3400               	retlw	0
  1748     09DE  3400               	retlw	0
  1749     09DF  3400               	retlw	0
  1750     09E0  3400               	retlw	0
  1751     09E1  3402               	retlw	2
  1752     09E2  3404               	retlw	4
  1753     09E3  3408               	retlw	8
  1754     09E4  3410               	retlw	16
  1755     09E5  3420               	retlw	32
  1756     09E6  3400               	retlw	0
  1757     09E7  3400               	retlw	0
  1758     09E8  3400               	retlw	0
  1759     09E9  3441               	retlw	65
  1760     09EA  3441               	retlw	65
  1761     09EB  347F               	retlw	127
  1762     09EC  3400               	retlw	0
  1763     09ED  3400               	retlw	0
  1764     09EE  3400               	retlw	0
  1765     09EF  3400               	retlw	0
  1766     09F0  3400               	retlw	0
  1767     09F1  3404               	retlw	4
  1768     09F2  3402               	retlw	2
  1769     09F3  3401               	retlw	1
  1770     09F4  3402               	retlw	2
  1771     09F5  3404               	retlw	4
  1772     09F6  3400               	retlw	0
  1773     09F7  3400               	retlw	0
  1774     09F8  3400               	retlw	0
  1775     09F9  3480               	retlw	128
  1776     09FA  3480               	retlw	128
  1777     09FB  3480               	retlw	128
  1778     09FC  3480               	retlw	128
  1779     09FD  3480               	retlw	128
  1780     09FE  3400               	retlw	0
  1781     09FF  3400               	retlw	0
  1782     0A00  3400               	retlw	0
  1783     0A01  3401               	retlw	1
  1784     0A02  3402               	retlw	2
  1785     0A03  3404               	retlw	4
  1786     0A04  3400               	retlw	0
  1787     0A05  3400               	retlw	0
  1788     0A06  3400               	retlw	0
  1789     0A07  3400               	retlw	0
  1790     0A08  3400               	retlw	0
  1791     0A09  3420               	retlw	32
  1792     0A0A  3454               	retlw	84
  1793     0A0B  3454               	retlw	84
  1794     0A0C  3454               	retlw	84
  1795     0A0D  3478               	retlw	120
  1796     0A0E  3400               	retlw	0
  1797     0A0F  3400               	retlw	0
  1798     0A10  3400               	retlw	0
  1799     0A11  347F               	retlw	127
  1800     0A12  3448               	retlw	72
  1801     0A13  3444               	retlw	68
  1802     0A14  3444               	retlw	68
  1803     0A15  3438               	retlw	56
  1804     0A16  3400               	retlw	0
  1805     0A17  3400               	retlw	0
  1806     0A18  3400               	retlw	0
  1807     0A19  3438               	retlw	56
  1808     0A1A  3444               	retlw	68
  1809     0A1B  3444               	retlw	68
  1810     0A1C  3428               	retlw	40
  1811     0A1D  3400               	retlw	0
  1812     0A1E  3400               	retlw	0
  1813     0A1F  3400               	retlw	0
  1814     0A20  3400               	retlw	0
  1815     0A21  3438               	retlw	56
  1816     0A22  3444               	retlw	68
  1817     0A23  3444               	retlw	68
  1818     0A24  3448               	retlw	72
  1819     0A25  347F               	retlw	127
  1820     0A26  3400               	retlw	0
  1821     0A27  3400               	retlw	0
  1822     0A28  3400               	retlw	0
  1823     0A29  3438               	retlw	56
  1824     0A2A  3454               	retlw	84
  1825     0A2B  3454               	retlw	84
  1826     0A2C  3454               	retlw	84
  1827     0A2D  3418               	retlw	24
  1828     0A2E  3400               	retlw	0
  1829     0A2F  3400               	retlw	0
  1830     0A30  3400               	retlw	0
  1831     0A31  3408               	retlw	8
  1832     0A32  347E               	retlw	126
  1833     0A33  3409               	retlw	9
  1834     0A34  3402               	retlw	2
  1835     0A35  3400               	retlw	0
  1836     0A36  3400               	retlw	0
  1837     0A37  3400               	retlw	0
  1838     0A38  3400               	retlw	0
  1839     0A39  3418               	retlw	24
  1840     0A3A  34A4               	retlw	164
  1841     0A3B  34A4               	retlw	164
  1842     0A3C  34A4               	retlw	164
  1843     0A3D  347C               	retlw	124
  1844     0A3E  3400               	retlw	0
  1845     0A3F  3400               	retlw	0
  1846     0A40  3400               	retlw	0
  1847     0A41  347F               	retlw	127
  1848     0A42  3408               	retlw	8
  1849     0A43  3404               	retlw	4
  1850     0A44  3404               	retlw	4
  1851     0A45  3478               	retlw	120
  1852     0A46  3400               	retlw	0
  1853     0A47  3400               	retlw	0
  1854     0A48  3400               	retlw	0
  1855     0A49  3400               	retlw	0
  1856     0A4A  347D               	retlw	125
  1857     0A4B  3400               	retlw	0
  1858     0A4C  3400               	retlw	0
  1859     0A4D  3400               	retlw	0
  1860     0A4E  3400               	retlw	0
  1861     0A4F  3400               	retlw	0
  1862     0A50  3400               	retlw	0
  1863     0A51  3480               	retlw	128
  1864     0A52  3484               	retlw	132
  1865     0A53  347D               	retlw	125
  1866     0A54  3400               	retlw	0
  1867     0A55  3400               	retlw	0
  1868     0A56  3400               	retlw	0
  1869     0A57  3400               	retlw	0
  1870     0A58  3400               	retlw	0
  1871     0A59  347F               	retlw	127
  1872     0A5A  3410               	retlw	16
  1873     0A5B  3428               	retlw	40
  1874     0A5C  3444               	retlw	68
  1875     0A5D  3400               	retlw	0
  1876     0A5E  3400               	retlw	0
  1877     0A5F  3400               	retlw	0
  1878     0A60  3400               	retlw	0
  1879     0A61  3441               	retlw	65
  1880     0A62  347F               	retlw	127
  1881     0A63  3440               	retlw	64
  1882     0A64  3400               	retlw	0
  1883     0A65  3400               	retlw	0
  1884     0A66  3400               	retlw	0
  1885     0A67  3400               	retlw	0
  1886     0A68  3400               	retlw	0
  1887     0A69  347C               	retlw	124
  1888     0A6A  3404               	retlw	4
  1889     0A6B  3418               	retlw	24
  1890     0A6C  3404               	retlw	4
  1891     0A6D  3478               	retlw	120
  1892     0A6E  3400               	retlw	0
  1893     0A6F  3400               	retlw	0
  1894     0A70  3400               	retlw	0
  1895     0A71  347C               	retlw	124
  1896     0A72  3408               	retlw	8
  1897     0A73  3404               	retlw	4
  1898     0A74  347C               	retlw	124
  1899     0A75  3400               	retlw	0
  1900     0A76  3400               	retlw	0
  1901     0A77  3400               	retlw	0
  1902     0A78  3400               	retlw	0
  1903     0A79  3438               	retlw	56
  1904     0A7A  3444               	retlw	68
  1905     0A7B  3444               	retlw	68
  1906     0A7C  3438               	retlw	56
  1907     0A7D  3400               	retlw	0
  1908     0A7E  3400               	retlw	0
  1909     0A7F  3400               	retlw	0
  1910     0A80  3400               	retlw	0
  1911     0A81  34FC               	retlw	252
  1912     0A82  3424               	retlw	36
  1913     0A83  3424               	retlw	36
  1914     0A84  3418               	retlw	24
  1915     0A85  3400               	retlw	0
  1916     0A86  3400               	retlw	0
  1917     0A87  3400               	retlw	0
  1918     0A88  3400               	retlw	0
  1919     0A89  3418               	retlw	24
  1920     0A8A  3424               	retlw	36
  1921     0A8B  3424               	retlw	36
  1922     0A8C  34FC               	retlw	252
  1923     0A8D  3400               	retlw	0
  1924     0A8E  3400               	retlw	0
  1925     0A8F  3400               	retlw	0
  1926     0A90  3400               	retlw	0
  1927     0A91  3400               	retlw	0
  1928     0A92  347C               	retlw	124
  1929     0A93  3408               	retlw	8
  1930     0A94  3404               	retlw	4
  1931     0A95  3400               	retlw	0
  1932     0A96  3400               	retlw	0
  1933     0A97  3400               	retlw	0
  1934     0A98  3400               	retlw	0
  1935     0A99  3448               	retlw	72
  1936     0A9A  3454               	retlw	84
  1937     0A9B  3454               	retlw	84
  1938     0A9C  3424               	retlw	36
  1939     0A9D  3400               	retlw	0
  1940     0A9E  3400               	retlw	0
  1941     0A9F  3400               	retlw	0
  1942     0AA0  3400               	retlw	0
  1943     0AA1  3404               	retlw	4
  1944     0AA2  347F               	retlw	127
  1945     0AA3  3444               	retlw	68
  1946     0AA4  3400               	retlw	0
  1947     0AA5  3400               	retlw	0
  1948     0AA6  3400               	retlw	0
  1949     0AA7  3400               	retlw	0
  1950     0AA8  3400               	retlw	0
  1951     0AA9  343C               	retlw	60
  1952     0AAA  3440               	retlw	64
  1953     0AAB  3440               	retlw	64
  1954     0AAC  347C               	retlw	124
  1955     0AAD  3400               	retlw	0
  1956     0AAE  3400               	retlw	0
  1957     0AAF  3400               	retlw	0
  1958     0AB0  3400               	retlw	0
  1959     0AB1  341C               	retlw	28
  1960     0AB2  3420               	retlw	32
  1961     0AB3  3440               	retlw	64
  1962     0AB4  3420               	retlw	32
  1963     0AB5  341C               	retlw	28
  1964     0AB6  3400               	retlw	0
  1965     0AB7  3400               	retlw	0
  1966     0AB8  3400               	retlw	0
  1967     0AB9  343C               	retlw	60
  1968     0ABA  3440               	retlw	64
  1969     0ABB  3430               	retlw	48
  1970     0ABC  3440               	retlw	64
  1971     0ABD  343C               	retlw	60
  1972     0ABE  3400               	retlw	0
  1973     0ABF  3400               	retlw	0
  1974     0AC0  3400               	retlw	0
  1975     0AC1  3444               	retlw	68
  1976     0AC2  3428               	retlw	40
  1977     0AC3  3410               	retlw	16
  1978     0AC4  3428               	retlw	40
  1979     0AC5  3444               	retlw	68
  1980     0AC6  3400               	retlw	0
  1981     0AC7  3400               	retlw	0
  1982     0AC8  3400               	retlw	0
  1983     0AC9  341C               	retlw	28
  1984     0ACA  34A0               	retlw	160
  1985     0ACB  34A0               	retlw	160
  1986     0ACC  347C               	retlw	124
  1987     0ACD  3400               	retlw	0
  1988     0ACE  3400               	retlw	0
  1989     0ACF  3400               	retlw	0
  1990     0AD0  3400               	retlw	0
  1991     0AD1  3444               	retlw	68
  1992     0AD2  3464               	retlw	100
  1993     0AD3  3454               	retlw	84
  1994     0AD4  344C               	retlw	76
  1995     0AD5  3444               	retlw	68
  1996     0AD6  3400               	retlw	0
  1997     0AD7  3400               	retlw	0
  1998     0AD8  3400               	retlw	0
  1999     0AD9  3408               	retlw	8
  2000     0ADA  3436               	retlw	54
  2001     0ADB  3441               	retlw	65
  2002     0ADC  3400               	retlw	0
  2003     0ADD  3400               	retlw	0
  2004     0ADE  3400               	retlw	0
  2005     0ADF  3400               	retlw	0
  2006     0AE0  3400               	retlw	0
  2007     0AE1  3400               	retlw	0
  2008     0AE2  347F               	retlw	127
  2009     0AE3  3400               	retlw	0
  2010     0AE4  3400               	retlw	0
  2011     0AE5  3400               	retlw	0
  2012     0AE6  3400               	retlw	0
  2013     0AE7  3400               	retlw	0
  2014     0AE8  3400               	retlw	0
  2015     0AE9  3441               	retlw	65
  2016     0AEA  3436               	retlw	54
  2017     0AEB  3408               	retlw	8
  2018     0AEC  3400               	retlw	0
  2019     0AED  3400               	retlw	0
  2020     0AEE  3400               	retlw	0
  2021     0AEF  3400               	retlw	0
  2022     0AF0  3400               	retlw	0
  2023     0AF1  3402               	retlw	2
  2024     0AF2  3401               	retlw	1
  2025     0AF3  3401               	retlw	1
  2026     0AF4  3402               	retlw	2
  2027     0AF5  3401               	retlw	1
  2028     0AF6  3400               	retlw	0
  2029     0AF7  3400               	retlw	0
  2030     0AF8  3400               	retlw	0
  2031     0AF9  3402               	retlw	2
  2032     0AFA  3405               	retlw	5
  2033     0AFB  3405               	retlw	5
  2034     0AFC  3402               	retlw	2
  2035     0AFD  3400               	retlw	0
  2036     0AFE  3400               	retlw	0
  2037     0AFF  3400               	retlw	0
  2038     0B00                     __end_of_OledFont:
  2039     0012                     _PIR2bits	set	18
  2040     0011                     _PIR1bits	set	17
  2041     008E                     _TRISCbits	set	142
  2042     009E                     _ADCON1bits	set	158
  2043     008D                     _TRISBbits	set	141
  2044     008C                     _TRISAbits	set	140
  2045     009B                     _ADRESL	set	155
  2046     009C                     _ADRESH	set	156
  2047     009D                     _ADCON0bits	set	157
  2048     04CF                     _SPLLEN	set	1231
  2049     04CE                     _IRCF3	set	1230
  2050     04CD                     _IRCF2	set	1229
  2051     04CC                     _IRCF1	set	1228
  2052     04CB                     _IRCF0	set	1227
  2053     04C9                     _SCS1	set	1225
  2054     04C8                     _SCS0	set	1224
  2055     018E                     _ANSELCbits	set	398
  2056     018D                     _ANSELBbits	set	397
  2057     018C                     _ANSELAbits	set	396
  2058     0211                     _SSPBUF	set	529
  2059     0216                     _SSPCON2bits	set	534
  2060     0214                     _SSPSTATbits	set	532
  2061     0216                     _SSPCON2	set	534
  2062     0215                     _SSPCON1bits	set	533
  2063     0212                     _SSPADD	set	530
  2064     0215                     _SSPCONbits	set	533
  2065     0E20                     _SSPCLKPPSbits	set	3616
  2066     0E21                     _SSPDATPPSbits	set	3617
  2067     0E24                     _RXPPSbits	set	3620
  2068     0E0F                     _PPSLOCKbits	set	3599
  2069     0E0F                     _PPSLOCK	set	3599
  2070     0EA5                     _RC5PPSbits	set	3749
  2071     0EA4                     _RC4PPSbits	set	3748
  2072     0E9A                     _RB2PPSbits	set	3738
  2073     0B00                     STR_1:
  2074     0B00  3454               	retlw	84	;'T'
  2075     0B01  3465               	retlw	101	;'e'
  2076     0B02  346D               	retlw	109	;'m'
  2077     0B03  3470               	retlw	112	;'p'
  2078     0B04  343A               	retlw	58	;':'
  2079     0B05  3420               	retlw	32	;' '
  2080     0B06  3425               	retlw	37	;'%'
  2081     0B07  3464               	retlw	100	;'d'
  2082     0B08  3420               	retlw	32	;' '
  2083     0B09  3443               	retlw	67	;'C'
  2084     0B0A  3400               	retlw	0
  2085                           
  2086                           	psect	stringtext3
  2087     0000                     __pstringtext3:
  2088                           
  2089                           	psect	cinit
  2090     07F2                     start_initialization:	
  2091                           ; #config settings
  2092                           
  2093     07F2                     __initialization:	;BIGRAM
  2094                           
  2095                           ; Clear objects allocated to BIGRAM
  2096     07F2  30F0               	movlw	low (0+9456)
  2097     07F3  0084               	movwf	4
  2098     07F4  3024               	movlw	high (0+9456)
  2099     07F5  0085               	movwf	5
  2100     07F6  3000               	movlw	0
  2101     07F7  00FE               	movwf	btemp
  2102     07F8  3003               	movlw	3
  2103     07F9  00FF               	movwf	btemp+1
  2104     07FA  3191  21AB  3187   	fcall	clear_ram0
  2105     07FD                     end_of_initialization:	
  2106                           ;End of C runtime variable initialization code
  2107                           
  2108     07FD                     __end_of__initialization:
  2109     07FD  0020               	movlb	0
  2110     07FE  3180  28D5         	ljmp	_main	;jump to C main() function
  2111                           
  2112                           	psect	clrtext
  2113     11AB                     clear_ram0:	
  2114                           ;	Called with FSR0 containing the base address, and
  2115                           ;	btemp/btemp+1 has the size to clear
  2116                           
  2117     11AB  0064               	clrwdt	;clear the watchdog before getting into this loop
  2118     11AC                     clrloop0:
  2119     11AC  0180               	clrf	0	;clear RAM location pointed to by FSR
  2120     11AD  3101               	addfsr 0,1
  2121     11AE  3001               	movlw	1
  2122     11AF  02FE               	subwf	btemp,f
  2123     11B0  3000               	movlw	0
  2124     11B1  3BFF               	subwfb	btemp+1,f
  2125     11B2  087F               	movf	btemp+1,w
  2126     11B3  047E               	iorwf	btemp,w
  2127     11B4  1D03               	skipz
  2128     11B5  29AC               	goto	clrloop0	;have we reached the end yet?
  2129     11B6  3400               	retlw	0	;all done for this memory range, return
  2130                           
  2131                           	psect	cstackBANK1
  2132     00A0                     __pcstackBANK1:
  2133     00A0                     OLED_Printf_Line@temp:
  2134                           
  2135                           ; 6 bytes @ 0x0
  2136     00A0                     	ds	6
  2137     00A6                     OLED_Printf_Line@temp_708:
  2138                           
  2139                           ; 6 bytes @ 0x6
  2140     00A6                     	ds	6
  2141     00AC                     OLED_Printf_Line@temp_711:
  2142                           
  2143                           ; 5 bytes @ 0xC
  2144     00AC                     	ds	5
  2145     00B1                     OLED_Printf_Line@str:
  2146                           
  2147                           ; 1 bytes @ 0x11
  2148     00B1                     	ds	1
  2149     00B2                     OLED_Printf_Line@col:
  2150                           
  2151                           ; 1 bytes @ 0x12
  2152     00B2                     	ds	1
  2153     00B3                     OLED_Printf_Line@p:
  2154                           
  2155                           ; 1 bytes @ 0x13
  2156     00B3                     	ds	1
  2157     00B4                     OLED_Printf_Line@val_701:
  2158                           
  2159                           ; 4 bytes @ 0x14
  2160     00B4                     	ds	4
  2161     00B8                     OLED_Printf_Line@val_707:
  2162                           
  2163                           ; 2 bytes @ 0x18
  2164     00B8                     	ds	2
  2165     00BA                     OLED_Printf_Line@nibble:
  2166                           
  2167                           ; 1 bytes @ 0x1A
  2168     00BA                     	ds	1
  2169     00BB                     OLED_Printf_Line@ch:
  2170                           
  2171                           ; 1 bytes @ 0x1B
  2172     00BB                     	ds	1
  2173     00BC                     OLED_Printf_Line@i:
  2174                           
  2175                           ; 1 bytes @ 0x1C
  2176     00BC                     	ds	1
  2177     00BD                     OLED_Printf_Line@i_703:
  2178                           
  2179                           ; 1 bytes @ 0x1D
  2180     00BD                     	ds	1
  2181     00BE                     OLED_Printf_Line@i_706:
  2182                           
  2183                           ; 1 bytes @ 0x1E
  2184     00BE                     	ds	1
  2185     00BF                     OLED_Printf_Line@i_709:
  2186                           
  2187                           ; 1 bytes @ 0x1F
  2188     00BF                     	ds	1
  2189     00C0                     OLED_Printf_Line@i_712:
  2190                           
  2191                           ; 1 bytes @ 0x20
  2192     00C0                     	ds	1
  2193     00C1                     OLED_Printf_Line@val_704:
  2194                           
  2195                           ; 4 bytes @ 0x21
  2196     00C1                     	ds	4
  2197     00C5                     OLED_Printf_Line@val:
  2198                           
  2199                           ; 2 bytes @ 0x25
  2200     00C5                     	ds	2
  2201     00C7                     OLED_Printf_Line@line:
  2202                           
  2203                           ; 1 bytes @ 0x27
  2204     00C7                     	ds	1
  2205     00C8                     OLED_Printf_Line@ap:
  2206                           
  2207                           ; 1 bytes @ 0x28
  2208     00C8                     	ds	1
  2209     00C9                     OLED_Printf_Line@src:
  2210                           
  2211                           ; 2 bytes @ 0x29
  2212     00C9                     	ds	2
  2213     00CB                     OLED_Printf_Line@dst:
  2214                           
  2215                           ; 1 bytes @ 0x2B
  2216     00CB                     	ds	1
  2217     00CC                     ??_main:
  2218                           
  2219                           ; 1 bytes @ 0x2C
  2220     00CC                     	ds	2
  2221     00CE                     main@voltage:
  2222                           
  2223                           ; 4 bytes @ 0x2E
  2224     00CE                     	ds	4
  2225     00D2                     main@tempC:
  2226                           
  2227                           ; 4 bytes @ 0x32
  2228     00D2                     	ds	4
  2229     00D6                     main@adc:
  2230                           
  2231                           ; 2 bytes @ 0x36
  2232     00D6                     	ds	2
  2233                           
  2234                           	psect	cstackCOMMON
  2235     0070                     __pcstackCOMMON:
  2236     0070                     ?_I2C_ClearErrors:
  2237     0070                     ??_I2C_ClearErrors:	
  2238                           ; 1 bytes @ 0x0
  2239                           
  2240     0070                     ?_internal_32:	
  2241                           ; 1 bytes @ 0x0
  2242                           
  2243     0070                     ??_internal_32:	
  2244                           ; 1 bytes @ 0x0
  2245                           
  2246     0070                     ?_OLED_Init:	
  2247                           ; 1 bytes @ 0x0
  2248                           
  2249     0070                     ?_OLED_SetOrientation:	
  2250                           ; 1 bytes @ 0x0
  2251                           
  2252     0070                     ?_OLED_Clear:	
  2253                           ; 1 bytes @ 0x0
  2254                           
  2255     0070                     ?_I2C_WaitIF:	
  2256                           ; 1 bytes @ 0x0
  2257                           
  2258     0070                     ?_I2C_Init:	
  2259                           ; 1 bytes @ 0x0
  2260                           
  2261     0070                     ??_I2C_Init:	
  2262                           ; 1 bytes @ 0x0
  2263                           
  2264     0070                     ?_I2C_WaitIdle:	
  2265                           ; 1 bytes @ 0x0
  2266                           
  2267     0070                     ?_I2C_Start:	
  2268                           ; 1 bytes @ 0x0
  2269                           
  2270     0070                     ?_I2C_Stop:	
  2271                           ; 1 bytes @ 0x0
  2272                           
  2273     0070                     ?_I2C_WriteByte:	
  2274                           ; 1 bytes @ 0x0
  2275                           
  2276     0070                     ?_ADC_ConfigurePin:	
  2277                           ; 1 bytes @ 0x0
  2278                           
  2279     0070                     ??_ADC_ConfigurePin:	
  2280                           ; 1 bytes @ 0x0
  2281                           
  2282     0070                     ?_ADC_Init:	
  2283                           ; 1 bytes @ 0x0
  2284                           
  2285     0070                     ??_ADC_Init:	
  2286                           ; 1 bytes @ 0x0
  2287                           
  2288     0070                     ?_initMain:	
  2289                           ; 1 bytes @ 0x0
  2290                           
  2291     0070                     ?_main:	
  2292                           ; 1 bytes @ 0x0
  2293                           
  2294     0070                     ?_SSD1306_CtrlW:	
  2295                           ; 1 bytes @ 0x0
  2296                           
  2297     0070                     ??_SSD1306_CtrlW:	
  2298                           ; 1 bytes @ 0x0
  2299                           
  2300     0070                     ?_OLED_Command:	
  2301                           ; 1 bytes @ 0x0
  2302                           
  2303     0070                     ?_OLED_UpdateLine:	
  2304                           ; 1 bytes @ 0x0
  2305                           
  2306     0070                     ?_memset:	
  2307                           ; 1 bytes @ 0x0
  2308                           
  2309     0070                     ?_strcmp:	
  2310                           ; 2 bytes @ 0x0
  2311                           
  2312     0070                     ?_strcpy:	
  2313                           ; 2 bytes @ 0x0
  2314                           
  2315     0070                     ?_memcpy:	
  2316                           ; 2 bytes @ 0x0
  2317                           
  2318     0070                     ?__Umul8_16:	
  2319                           ; 2 bytes @ 0x0
  2320                           
  2321     0070                     ?___awdiv:	
  2322                           ; 2 bytes @ 0x0
  2323                           
  2324     0070                     ?___awmod:	
  2325                           ; 2 bytes @ 0x0
  2326                           
  2327     0070                     ?___lwdiv:	
  2328                           ; 2 bytes @ 0x0
  2329                           
  2330     0070                     ?___lwmod:	
  2331                           ; 2 bytes @ 0x0
  2332                           
  2333     0070                     ?___lldiv:	
  2334                           ; 2 bytes @ 0x0
  2335                           
  2336     0070                     ?___aldiv:	
  2337                           ; 4 bytes @ 0x0
  2338                           
  2339     0070                     ?___almod:	
  2340                           ; 4 bytes @ 0x0
  2341                           
  2342     0070                     ?___fltol:	
  2343                           ; 4 bytes @ 0x0
  2344                           
  2345     0070                     ?___llmod:	
  2346                           ; 4 bytes @ 0x0
  2347                           
  2348     0070                     ?___fladd:	
  2349                           ; 4 bytes @ 0x0
  2350                           
  2351     0070                     ?___xxtofl:	
  2352                           ; 4 bytes @ 0x0
  2353                           
  2354     0070                     __Umul8_16@multiplicand:	
  2355                           ; 4 bytes @ 0x0
  2356                           
  2357     0070                     I2C_WaitIF@timeout_ms:	
  2358                           ; 1 bytes @ 0x0
  2359                           
  2360     0070                     I2C_WaitIdle@timeout_ms:	
  2361                           ; 2 bytes @ 0x0
  2362                           
  2363     0070                     ___awdiv@divisor:	
  2364                           ; 2 bytes @ 0x0
  2365                           
  2366     0070                     ___awmod@divisor:	
  2367                           ; 2 bytes @ 0x0
  2368                           
  2369     0070                     ___lwdiv@divisor:	
  2370                           ; 2 bytes @ 0x0
  2371                           
  2372     0070                     ___lwmod@divisor:	
  2373                           ; 2 bytes @ 0x0
  2374                           
  2375     0070                     memcpy@d1:	
  2376                           ; 2 bytes @ 0x0
  2377                           
  2378     0070                     memset@dest:	
  2379                           ; 2 bytes @ 0x0
  2380                           
  2381     0070                     strcmp@r:	
  2382                           ; 2 bytes @ 0x0
  2383                           
  2384     0070                     strcpy@dest:	
  2385                           ; 2 bytes @ 0x0
  2386                           
  2387     0070                     ___lldiv@divisor:	
  2388                           ; 2 bytes @ 0x0
  2389                           
  2390     0070                     ___aldiv@divisor:	
  2391                           ; 4 bytes @ 0x0
  2392                           
  2393     0070                     ___almod@divisor:	
  2394                           ; 4 bytes @ 0x0
  2395                           
  2396     0070                     ___fltol@f1:	
  2397                           ; 4 bytes @ 0x0
  2398                           
  2399     0070                     ___llmod@divisor:	
  2400                           ; 4 bytes @ 0x0
  2401                           
  2402     0070                     ___fladd@b:	
  2403                           ; 4 bytes @ 0x0
  2404                           
  2405     0070                     ___xxtofl@val:	
  2406                           ; 4 bytes @ 0x0
  2407                           
  2408                           
  2409                           ; 4 bytes @ 0x0
  2410     0070                     	ds	2
  2411     0072                     ??_strcmp:
  2412     0072                     ??__Umul8_16:	
  2413                           ; 1 bytes @ 0x2
  2414                           
  2415     0072                     ??_I2C_WaitIF:	
  2416                           ; 1 bytes @ 0x2
  2417                           
  2418     0072                     ??_I2C_WaitIdle:	
  2419                           ; 1 bytes @ 0x2
  2420                           
  2421     0072                     ADC_ConfigurePin@channel:	
  2422                           ; 1 bytes @ 0x2
  2423                           
  2424     0072                     strcpy@src:	
  2425                           ; 1 bytes @ 0x2
  2426                           
  2427     0072                     ___awdiv@dividend:	
  2428                           ; 1 bytes @ 0x2
  2429                           
  2430     0072                     ___awmod@dividend:	
  2431                           ; 2 bytes @ 0x2
  2432                           
  2433     0072                     ___lwdiv@dividend:	
  2434                           ; 2 bytes @ 0x2
  2435                           
  2436     0072                     ___lwmod@dividend:	
  2437                           ; 2 bytes @ 0x2
  2438                           
  2439     0072                     memcpy@s1:	
  2440                           ; 2 bytes @ 0x2
  2441                           
  2442     0072                     memset@c:	
  2443                           ; 2 bytes @ 0x2
  2444                           
  2445                           
  2446                           ; 2 bytes @ 0x2
  2447     0072                     	ds	1
  2448     0073                     ??_strcpy:
  2449     0073                     ??_I2C_Start:	
  2450                           ; 1 bytes @ 0x3
  2451                           
  2452     0073                     ??_I2C_Stop:	
  2453                           ; 1 bytes @ 0x3
  2454                           
  2455     0073                     ??_I2C_WriteByte:	
  2456                           ; 1 bytes @ 0x3
  2457                           
  2458     0073                     ??_initMain:	
  2459                           ; 1 bytes @ 0x3
  2460                           
  2461     0073                     I2C_Start@st:	
  2462                           ; 1 bytes @ 0x3
  2463                           
  2464     0073                     I2C_Stop@st:	
  2465                           ; 1 bytes @ 0x3
  2466                           
  2467     0073                     I2C_WriteByte@data:	
  2468                           ; 1 bytes @ 0x3
  2469                           
  2470     0073                     strcmp@l:	
  2471                           ; 1 bytes @ 0x3
  2472                           
  2473                           
  2474                           ; 1 bytes @ 0x3
  2475     0073                     	ds	1
  2476     0074                     ??___awdiv:
  2477     0074                     ??___awmod:	
  2478                           ; 1 bytes @ 0x4
  2479                           
  2480     0074                     ??___fltol:	
  2481                           ; 1 bytes @ 0x4
  2482                           
  2483     0074                     ??___lwdiv:	
  2484                           ; 1 bytes @ 0x4
  2485                           
  2486     0074                     ??___lwmod:	
  2487                           ; 1 bytes @ 0x4
  2488                           
  2489     0074                     ??___xxtofl:	
  2490                           ; 1 bytes @ 0x4
  2491                           
  2492     0074                     I2C_WriteByte@st:	
  2493                           ; 1 bytes @ 0x4
  2494                           
  2495     0074                     __Umul8_16@product:	
  2496                           ; 1 bytes @ 0x4
  2497                           
  2498     0074                     memcpy@n:	
  2499                           ; 2 bytes @ 0x4
  2500                           
  2501     0074                     memset@n:	
  2502                           ; 2 bytes @ 0x4
  2503                           
  2504     0074                     ___lldiv@dividend:	
  2505                           ; 2 bytes @ 0x4
  2506                           
  2507     0074                     ___aldiv@dividend:	
  2508                           ; 4 bytes @ 0x4
  2509                           
  2510     0074                     ___almod@dividend:	
  2511                           ; 4 bytes @ 0x4
  2512                           
  2513     0074                     ___llmod@dividend:	
  2514                           ; 4 bytes @ 0x4
  2515                           
  2516     0074                     ___fladd@a:	
  2517                           ; 4 bytes @ 0x4
  2518                           
  2519                           
  2520                           ; 4 bytes @ 0x4
  2521     0074                     	ds	1
  2522     0075                     ??_OLED_Command:
  2523     0075                     ?_OLED_WriteData:	
  2524                           ; 1 bytes @ 0x5
  2525                           
  2526     0075                     OLED_Command@cmd:	
  2527                           ; 1 bytes @ 0x5
  2528                           
  2529     0075                     ___awdiv@counter:	
  2530                           ; 1 bytes @ 0x5
  2531                           
  2532     0075                     ___awmod@counter:	
  2533                           ; 1 bytes @ 0x5
  2534                           
  2535     0075                     ___lwmod@counter:	
  2536                           ; 1 bytes @ 0x5
  2537                           
  2538     0075                     OLED_WriteData@data:	
  2539                           ; 1 bytes @ 0x5
  2540                           
  2541     0075                     ___lwdiv@quotient:	
  2542                           ; 2 bytes @ 0x5
  2543                           
  2544     0075                     strcpy@d:	
  2545                           ; 2 bytes @ 0x5
  2546                           
  2547                           
  2548                           ; 2 bytes @ 0x5
  2549     0075                     	ds	1
  2550     0076                     ??_memset:
  2551     0076                     ??_memcpy:	
  2552                           ; 1 bytes @ 0x6
  2553                           
  2554     0076                     OLED_Command@st:	
  2555                           ; 1 bytes @ 0x6
  2556                           
  2557     0076                     ___awdiv@sign:	
  2558                           ; 1 bytes @ 0x6
  2559                           
  2560     0076                     ___awmod@sign:	
  2561                           ; 1 bytes @ 0x6
  2562                           
  2563     0076                     __Umul8_16@word_mpld:	
  2564                           ; 1 bytes @ 0x6
  2565                           
  2566     0076                     memcpy@d:	
  2567                           ; 2 bytes @ 0x6
  2568                           
  2569     0076                     memset@p:	
  2570                           ; 2 bytes @ 0x6
  2571                           
  2572                           
  2573                           ; 2 bytes @ 0x6
  2574     0076                     	ds	1
  2575     0077                     ??_OLED_SetOrientation:
  2576     0077                     ?_OLED_YX:	
  2577                           ; 1 bytes @ 0x7
  2578                           
  2579     0077                     OLED_YX@col_char:	
  2580                           ; 1 bytes @ 0x7
  2581                           
  2582     0077                     ___lwdiv@counter:	
  2583                           ; 1 bytes @ 0x7
  2584                           
  2585     0077                     OLED_WriteData@len:	
  2586                           ; 1 bytes @ 0x7
  2587                           
  2588     0077                     ___awdiv@quotient:	
  2589                           ; 2 bytes @ 0x7
  2590                           
  2591                           
  2592                           ; 2 bytes @ 0x7
  2593     0077                     	ds	1
  2594     0078                     ??_OLED_YX:
  2595     0078                     ??___lldiv:	
  2596                           ; 1 bytes @ 0x8
  2597                           
  2598     0078                     ??___aldiv:	
  2599                           ; 1 bytes @ 0x8
  2600                           
  2601     0078                     ??___almod:	
  2602                           ; 1 bytes @ 0x8
  2603                           
  2604     0078                     ??___llmod:	
  2605                           ; 1 bytes @ 0x8
  2606                           
  2607     0078                     ___fltol@sign1:	
  2608                           ; 1 bytes @ 0x8
  2609                           
  2610     0078                     ___fladd@signs:	
  2611                           ; 1 bytes @ 0x8
  2612                           
  2613     0078                     __Umul8_16@multiplier:	
  2614                           ; 1 bytes @ 0x8
  2615                           
  2616     0078                     ___xxtofl@sign:	
  2617                           ; 1 bytes @ 0x8
  2618                           
  2619     0078                     memcpy@s:	
  2620                           ; 1 bytes @ 0x8
  2621                           
  2622                           
  2623                           ; 2 bytes @ 0x8
  2624     0078                     	ds	1
  2625     0079                     ??_OLED_WriteData:
  2626     0079                     OLED_SetOrientation@o:	
  2627                           ; 1 bytes @ 0x9
  2628                           
  2629     0079                     OLED_YX@page:	
  2630                           ; 1 bytes @ 0x9
  2631                           
  2632     0079                     ___almod@counter:	
  2633                           ; 1 bytes @ 0x9
  2634                           
  2635     0079                     ___fltol@exp1:	
  2636                           ; 1 bytes @ 0x9
  2637                           
  2638     0079                     ___llmod@counter:	
  2639                           ; 1 bytes @ 0x9
  2640                           
  2641     0079                     ___fladd@aexp:	
  2642                           ; 1 bytes @ 0x9
  2643                           
  2644     0079                     ___xxtofl@exp:	
  2645                           ; 1 bytes @ 0x9
  2646                           
  2647     0079                     OLED_WriteData@i:	
  2648                           ; 1 bytes @ 0x9
  2649                           
  2650     0079                     ___lldiv@quotient:	
  2651                           ; 2 bytes @ 0x9
  2652                           
  2653                           
  2654                           ; 4 bytes @ 0x9
  2655     0079                     	ds	1
  2656     007A                     OLED_YX@col:
  2657     007A                     ___almod@sign:	
  2658                           ; 1 bytes @ 0xA
  2659                           
  2660     007A                     ___fladd@bexp:	
  2661                           ; 1 bytes @ 0xA
  2662                           
  2663     007A                     memcpy@tmp:	
  2664                           ; 1 bytes @ 0xA
  2665                           
  2666     007A                     ___xxtofl@arg:	
  2667                           ; 1 bytes @ 0xA
  2668                           
  2669                           
  2670                           ; 4 bytes @ 0xA
  2671     007A                     	ds	1
  2672     007B                     OLED_WriteData@st:
  2673     007B                     ___fladd@grs:	
  2674                           ; 1 bytes @ 0xB
  2675                           
  2676                           
  2677                           ; 1 bytes @ 0xB
  2678     007B                     	ds	1
  2679     007C                     OLED_Clear@p:
  2680     007C                     OLED_UpdateLine@page:	
  2681                           ; 1 bytes @ 0xC
  2682                           
  2683                           
  2684                           ; 1 bytes @ 0xC
  2685     007C                     	ds	1
  2686     007D                     ??_OLED_Init:
  2687     007D                     ___lldiv@counter:	
  2688                           ; 1 bytes @ 0xD
  2689                           
  2690                           
  2691                           ; 1 bytes @ 0xD
  2692     007D                     	ds	1
  2693                           
  2694                           	psect	cstackBANK0
  2695     0020                     __pcstackBANK0:
  2696     0020                     ??_OLED_Clear:
  2697     0020                     ??_OLED_UpdateLine:	
  2698                           ; 1 bytes @ 0x0
  2699                           
  2700     0020                     ??___fladd:	
  2701                           ; 1 bytes @ 0x0
  2702                           
  2703     0020                     ?_ADC_Read_Averaged:	
  2704                           ; 1 bytes @ 0x0
  2705                           
  2706     0020                     ADC_Read_Averaged@samples:	
  2707                           ; 2 bytes @ 0x0
  2708                           
  2709     0020                     ___aldiv@counter:	
  2710                           ; 1 bytes @ 0x0
  2711                           
  2712                           
  2713                           ; 1 bytes @ 0x0
  2714     0020                     	ds	1
  2715     0021                     ___aldiv@sign:
  2716                           
  2717                           ; 1 bytes @ 0x1
  2718     0021                     	ds	1
  2719     0022                     ??_ADC_Read_Averaged:
  2720     0022                     ___aldiv@quotient:	
  2721                           ; 1 bytes @ 0x2
  2722                           
  2723                           
  2724                           ; 4 bytes @ 0x2
  2725     0022                     	ds	4
  2726     0026                     ?_OLED_Printf_Line:
  2727     0026                     ADC_Read_Averaged@channel:	
  2728                           ; 1 bytes @ 0x6
  2729                           
  2730     0026                     OLED_Printf_Line@fmt:	
  2731                           ; 1 bytes @ 0x6
  2732                           
  2733                           
  2734                           ; 2 bytes @ 0x6
  2735     0026                     	ds	1
  2736     0027                     ADC_Read_Averaged@sum:
  2737                           
  2738                           ; 4 bytes @ 0x7
  2739     0027                     	ds	1
  2740     0028                     ?___flmul:
  2741     0028                     ___flmul@b:	
  2742                           ; 4 bytes @ 0x8
  2743                           
  2744                           
  2745                           ; 4 bytes @ 0x8
  2746     0028                     	ds	2
  2747     002A                     ??_OLED_Printf_Line:
  2748                           
  2749                           ; 1 bytes @ 0xA
  2750     002A                     	ds	1
  2751     002B                     ADC_Read_Averaged@i:
  2752                           
  2753                           ; 1 bytes @ 0xB
  2754     002B                     	ds	1
  2755     002C                     ___flmul@a:
  2756                           
  2757                           ; 4 bytes @ 0xC
  2758     002C                     	ds	4
  2759     0030                     ??___flmul:
  2760                           
  2761                           ; 1 bytes @ 0x10
  2762     0030                     	ds	5
  2763     0035                     ___flmul@sign:
  2764                           
  2765                           ; 1 bytes @ 0x15
  2766     0035                     	ds	1
  2767     0036                     ___flmul@grs:
  2768     0036                     OLED_Printf_Line@temp_702:	
  2769                           ; 4 bytes @ 0x16
  2770                           
  2771                           
  2772                           ; 11 bytes @ 0x16
  2773     0036                     	ds	4
  2774     003A                     ___flmul@aexp:
  2775                           
  2776                           ; 1 bytes @ 0x1A
  2777     003A                     	ds	1
  2778     003B                     ___flmul@bexp:
  2779                           
  2780                           ; 1 bytes @ 0x1B
  2781     003B                     	ds	1
  2782     003C                     ___flmul@prod:
  2783                           
  2784                           ; 4 bytes @ 0x1C
  2785     003C                     	ds	4
  2786     0040                     ___flmul@temp:
  2787                           
  2788                           ; 2 bytes @ 0x20
  2789     0040                     	ds	1
  2790     0041                     OLED_Printf_Line@temp_705:
  2791                           
  2792                           ; 11 bytes @ 0x21
  2793     0041                     	ds	1
  2794     0042                     ?___fldiv:
  2795     0042                     ___fldiv@a:	
  2796                           ; 4 bytes @ 0x22
  2797                           
  2798                           
  2799                           ; 4 bytes @ 0x22
  2800     0042                     	ds	4
  2801     0046                     ___fldiv@b:
  2802                           
  2803                           ; 4 bytes @ 0x26
  2804     0046                     	ds	4
  2805     004A                     ??___fldiv:
  2806                           
  2807                           ; 1 bytes @ 0x2A
  2808     004A                     	ds	2
  2809     004C                     OLED_Printf_Line@buf:
  2810                           
  2811                           ; 32 bytes @ 0x2C
  2812     004C                     	ds	3
  2813     004F                     ___fldiv@rem:
  2814                           
  2815                           ; 4 bytes @ 0x2F
  2816     004F                     	ds	4
  2817     0053                     ___fldiv@sign:
  2818                           
  2819                           ; 1 bytes @ 0x33
  2820     0053                     	ds	1
  2821     0054                     ___fldiv@new_exp:
  2822                           
  2823                           ; 2 bytes @ 0x34
  2824     0054                     	ds	2
  2825     0056                     ___fldiv@grs:
  2826                           
  2827                           ; 4 bytes @ 0x36
  2828     0056                     	ds	4
  2829     005A                     ___fldiv@bexp:
  2830                           
  2831                           ; 1 bytes @ 0x3A
  2832     005A                     	ds	1
  2833     005B                     ___fldiv@aexp:
  2834                           
  2835                           ; 1 bytes @ 0x3B
  2836     005B                     	ds	17
  2837     006C                     _OLED_Printf_Line$714:
  2838                           
  2839                           ; 2 bytes @ 0x4C
  2840     006C                     	ds	2
  2841     006E                     OLED_Printf_Line@val_710:
  2842                           
  2843                           ; 2 bytes @ 0x4E
  2844     006E                     	ds	2
  2845                           
  2846                           	psect	maintext
  2847     00D5                     __pmaintext:	
  2848 ;;
  2849 ;;Main: autosize = 0, tempsize = 2, incstack = 0, save=0
  2850 ;;
  2851 ;; *************** function _main *****************
  2852 ;; Defined at:
  2853 ;;		line 102 in file "main.c"
  2854 ;; Parameters:    Size  Location     Type
  2855 ;;		None
  2856 ;; Auto vars:     Size  Location     Type
  2857 ;;  tempC           4   50[BANK1 ] float 
  2858 ;;  voltage         4   46[BANK1 ] float 
  2859 ;;  adc             2   54[BANK1 ] unsigned short 
  2860 ;;  Temperature    10    0        unsigned char [10]
  2861 ;;  celcius         4    0        float 
  2862 ;;  i               2    0        int 
  2863 ;;  LM35            2    0        unsigned short 
  2864 ;; Return value:  Size  Location     Type
  2865 ;;                  1    wreg      void 
  2866 ;; Registers used:
  2867 ;;		wreg, fsr0l, fsr0h, fsr1l, fsr1h, status,2, status,0, pclath, cstack
  2868 ;; Tracked objects:
  2869 ;;		On entry : B1F/0
  2870 ;;		On exit  : 0/0
  2871 ;;		Unchanged: 0/0
  2872 ;; Data sizes:     COMMON   BANK0   BANK1   BANK2   BANK3   BANK4   BANK5   BANK6   BANK7   BANK8   BANK9  BANK10  BANK1
      +1  BANK12  BANK13  BANK14  BANK15  BANK16  BANK17  BANK18  BANK19  BANK20  BANK21  BANK22  BANK23  BANK24  BANK25
  2873 ;;      Params:         0       0       0       0       0       0       0       0       0       0       0       0       
      +0       0       0       0       0       0       0       0       0       0       0       0       0       0       0
  2874 ;;      Locals:         0       0      10       0       0       0       0       0       0       0       0       0       
      +0       0       0       0       0       0       0       0       0       0       0       0       0       0       0
  2875 ;;      Temps:          0       0       2       0       0       0       0       0       0       0       0       0       
      +0       0       0       0       0       0       0       0       0       0       0       0       0       0       0
  2876 ;;      Totals:         0       0      12       0       0       0       0       0       0       0       0       0       
      +0       0       0       0       0       0       0       0       0       0       0       0       0       0       0
  2877 ;;Total ram usage:       12 bytes
  2878 ;; Hardware stack levels required when called: 6
  2879 ;; This function calls:
  2880 ;;		_ADC_Init
  2881 ;;		_ADC_Read_Averaged
  2882 ;;		_I2C_Init
  2883 ;;		_OLED_Clear
  2884 ;;		_OLED_Init
  2885 ;;		_OLED_Printf_Line
  2886 ;;		_OLED_SetOrientation
  2887 ;;		___fladd
  2888 ;;		___fldiv
  2889 ;;		___flmul
  2890 ;;		___fltol
  2891 ;;		___xxtofl
  2892 ;;		_initMain
  2893 ;; This function is called by:
  2894 ;;		Startup code after reset
  2895 ;; This function uses a non-reentrant model
  2896 ;;
  2897                           
  2898     00D5                     _main:	
  2899                           ;psect for function _main
  2900                           
  2901     00D5                     l4095:	
  2902                           ;incstack = 0
  2903                           ; Regs used in _main: [wreg-fsr1h+status,2+status,0+pclath+cstack]
  2904                           
  2905                           
  2906                           ;main.c: 104:     initMain();
  2907     00D5  3194  2456  3180   	fcall	_initMain
  2908     00D8                     l4097:
  2909                           
  2910                           ;main.c: 105:     I2C_Init();
  2911     00D8  3191  21B7  3180   	fcall	_I2C_Init
  2912     00DB                     l4099:
  2913                           
  2914                           ;main.c: 107:     OLED_Init();
  2915     00DB  3197  278C  3180   	fcall	_OLED_Init
  2916     00DE                     l4101:
  2917                           
  2918                           ;main.c: 108:     OLED_SetOrientation(OLED_ORIENT_0);
  2919     00DE  3000               	movlw	0
  2920     00DF  3193  23CB  3180   	fcall	_OLED_SetOrientation
  2921     00E2                     l4103:
  2922                           
  2923                           ;main.c: 109:     OLED_Clear();
  2924     00E2  3194  24A1  3180   	fcall	_OLED_Clear
  2925                           
  2926                           ;main.c: 111:     ADC_Init();
  2927     00E5  3191  21A1  3180   	fcall	_ADC_Init
  2928     00E8                     l163:	
  2929                           ;main.c: 113:     uint16_t LM35;;main.c: 114:     char Temperature[10];;main.c: 115:    
      +                           float celcius;;main.c: 116:     int i;;main.c: 118:     while (1)
  2930                           
  2931                           
  2932                           ;main.c: 119:     {;main.c: 120:        uint16_t adc = ADC_Read_Averaged(ADC_AN0, 8);
  2933     00E8  3008               	movlw	8
  2934     00E9  0020               	movlb	0	; select bank0
  2935     00EA  00A0               	movwf	ADC_Read_Averaged@samples
  2936     00EB  3000               	movlw	0
  2937     00EC  3196  26AF  3180   	fcall	_ADC_Read_Averaged
  2938     00EF  0020               	movlb	0	; select bank0
  2939     00F0  0821               	movf	?_ADC_Read_Averaged+1,w
  2940     00F1  0021               	movlb	1	; select bank1
  2941     00F2  00D7               	movwf	(main@adc+1)^(0+128)
  2942     00F3  0020               	movlb	0	; select bank0
  2943     00F4  0820               	movf	?_ADC_Read_Averaged,w
  2944     00F5  0021               	movlb	1	; select bank1
  2945     00F6  00D6               	movwf	main@adc^(0+128)
  2946                           
  2947                           ;main.c: 122:         float voltage = (adc * 5.0) / 1023.0;
  2948     00F7  3044               	movlw	68
  2949     00F8  0020               	movlb	0	; select bank0
  2950     00F9  00C5               	movwf	___fldiv@a+3
  2951     00FA  307F               	movlw	127
  2952     00FB  00C4               	movwf	___fldiv@a+2
  2953     00FC  30C0               	movlw	192
  2954     00FD  00C3               	movwf	___fldiv@a+1
  2955     00FE  3000               	movlw	0
  2956     00FF  00C2               	movwf	___fldiv@a
  2957     0100  3040               	movlw	64
  2958     0101  00AB               	movwf	___flmul@b+3
  2959     0102  30A0               	movlw	160
  2960     0103  00AA               	movwf	___flmul@b+2
  2961     0104  3000               	movlw	0
  2962     0105  00A9               	movwf	___flmul@b+1
  2963     0106  3000               	movlw	0
  2964     0107  00A8               	movwf	___flmul@b
  2965     0108  0021               	movlb	1	; select bank1
  2966     0109  0856               	movf	main@adc^(0+128),w
  2967     010A  00F0               	movwf	___xxtofl@val
  2968     010B  0857               	movf	(main@adc+1)^(0+128),w
  2969     010C  00F1               	movwf	___xxtofl@val+1
  2970     010D  01F2               	clrf	___xxtofl@val+2
  2971     010E  01F3               	clrf	___xxtofl@val+3
  2972     010F  3000               	movlw	0
  2973     0110  3180  202B  3180   	fcall	___xxtofl
  2974     0113  0873               	movf	?___xxtofl+3,w
  2975     0114  0020               	movlb	0	; select bank0
  2976     0115  00AF               	movwf	___flmul@a+3
  2977     0116  0872               	movf	?___xxtofl+2,w
  2978     0117  00AE               	movwf	___flmul@a+2
  2979     0118  0871               	movf	?___xxtofl+1,w
  2980     0119  00AD               	movwf	___flmul@a+1
  2981     011A  0870               	movf	?___xxtofl,w
  2982     011B  00AC               	movwf	___flmul@a
  2983     011C  3181  219E  3180   	fcall	___flmul
  2984     011F  0020               	movlb	0	; select bank0
  2985     0120  082B               	movf	?___flmul+3,w
  2986     0121  00C9               	movwf	___fldiv@b+3
  2987     0122  082A               	movf	?___flmul+2,w
  2988     0123  00C8               	movwf	___fldiv@b+2
  2989     0124  0829               	movf	?___flmul+1,w
  2990     0125  00C7               	movwf	___fldiv@b+1
  2991     0126  0828               	movf	?___flmul,w
  2992     0127  00C6               	movwf	___fldiv@b
  2993     0128  318C  244A  3180   	fcall	___fldiv
  2994     012B  0020               	movlb	0	; select bank0
  2995     012C  0845               	movf	?___fldiv+3,w
  2996     012D  0021               	movlb	1	; select bank1
  2997     012E  00D1               	movwf	(main@voltage+3)^(0+128)
  2998     012F  0020               	movlb	0	; select bank0
  2999     0130  0844               	movf	?___fldiv+2,w
  3000     0131  0021               	movlb	1	; select bank1
  3001     0132  00D0               	movwf	(main@voltage+2)^(0+128)
  3002     0133  0020               	movlb	0	; select bank0
  3003     0134  0843               	movf	?___fldiv+1,w
  3004     0135  0021               	movlb	1	; select bank1
  3005     0136  00CF               	movwf	(main@voltage+1)^(0+128)
  3006     0137  0020               	movlb	0	; select bank0
  3007     0138  0842               	movf	?___fldiv,w
  3008     0139  0021               	movlb	1	; select bank1
  3009     013A  00CE               	movwf	main@voltage^(0+128)
  3010                           
  3011                           ;main.c: 123:         float tempC = (voltage - 0.5) * 100.0;
  3012     013B  3042               	movlw	66
  3013     013C  0020               	movlb	0	; select bank0
  3014     013D  00AB               	movwf	___flmul@b+3
  3015     013E  30C8               	movlw	200
  3016     013F  00AA               	movwf	___flmul@b+2
  3017     0140  3000               	movlw	0
  3018     0141  00A9               	movwf	___flmul@b+1
  3019     0142  3000               	movlw	0
  3020     0143  00A8               	movwf	___flmul@b
  3021     0144  30BF               	movlw	191
  3022     0145  00F3               	movwf	___fladd@b+3
  3023     0146  3000               	movlw	0
  3024     0147  00F2               	movwf	___fladd@b+2
  3025     0148  3000               	movlw	0
  3026     0149  00F1               	movwf	___fladd@b+1
  3027     014A  3000               	movlw	0
  3028     014B  00F0               	movwf	___fladd@b
  3029     014C  0021               	movlb	1	; select bank1
  3030     014D  0851               	movf	(main@voltage+3)^(0+128),w
  3031     014E  00F7               	movwf	___fladd@a+3
  3032     014F  0850               	movf	(main@voltage+2)^(0+128),w
  3033     0150  00F6               	movwf	___fladd@a+2
  3034     0151  084F               	movf	(main@voltage+1)^(0+128),w
  3035     0152  00F5               	movwf	___fladd@a+1
  3036     0153  084E               	movf	main@voltage^(0+128),w
  3037     0154  00F4               	movwf	___fladd@a
  3038     0155  318D  25F4  3180   	fcall	___fladd
  3039     0158  0873               	movf	?___fladd+3,w
  3040     0159  0020               	movlb	0	; select bank0
  3041     015A  00AF               	movwf	___flmul@a+3
  3042     015B  0872               	movf	?___fladd+2,w
  3043     015C  00AE               	movwf	___flmul@a+2
  3044     015D  0871               	movf	?___fladd+1,w
  3045     015E  00AD               	movwf	___flmul@a+1
  3046     015F  0870               	movf	?___fladd,w
  3047     0160  00AC               	movwf	___flmul@a
  3048     0161  3181  219E  3180   	fcall	___flmul
  3049     0164  0020               	movlb	0	; select bank0
  3050     0165  082B               	movf	?___flmul+3,w
  3051     0166  0021               	movlb	1	; select bank1
  3052     0167  00D5               	movwf	(main@tempC+3)^(0+128)
  3053     0168  0020               	movlb	0	; select bank0
  3054     0169  082A               	movf	?___flmul+2,w
  3055     016A  0021               	movlb	1	; select bank1
  3056     016B  00D4               	movwf	(main@tempC+2)^(0+128)
  3057     016C  0020               	movlb	0	; select bank0
  3058     016D  0829               	movf	?___flmul+1,w
  3059     016E  0021               	movlb	1	; select bank1
  3060     016F  00D3               	movwf	(main@tempC+1)^(0+128)
  3061     0170  0020               	movlb	0	; select bank0
  3062     0171  0828               	movf	?___flmul,w
  3063     0172  0021               	movlb	1	; select bank1
  3064     0173  00D2               	movwf	main@tempC^(0+128)
  3065     0174                     l4105:
  3066                           
  3067                           ;main.c: 125:         OLED_Printf_Line(0, "Temp: %d C", (int)tempC);
  3068     0174  3000               	movlw	low (STR_1| (0+32768))
  3069     0175  0020               	movlb	0	; select bank0
  3070     0176  00A6               	movwf	OLED_Printf_Line@fmt
  3071     0177  308B               	movlw	high (STR_1| (0+32768))
  3072     0178  00A7               	movwf	OLED_Printf_Line@fmt+1
  3073     0179  0021               	movlb	1	; select bank1
  3074     017A  0855               	movf	(main@tempC+3)^(0+128),w
  3075     017B  00F3               	movwf	___fltol@f1+3
  3076     017C  0854               	movf	(main@tempC+2)^(0+128),w
  3077     017D  00F2               	movwf	___fltol@f1+2
  3078     017E  0853               	movf	(main@tempC+1)^(0+128),w
  3079     017F  00F1               	movwf	___fltol@f1+1
  3080     0180  0852               	movf	main@tempC^(0+128),w
  3081     0181  00F0               	movwf	___fltol@f1
  3082     0182  3197  271C  3180   	fcall	___fltol
  3083     0185  0871               	movf	?___fltol+1,w
  3084     0186  0020               	movlb	0	; select bank0
  3085     0187  00A9               	movwf	?_OLED_Printf_Line+3
  3086     0188  0870               	movf	?___fltol,w
  3087     0189  00A8               	movwf	?_OLED_Printf_Line+2
  3088     018A  3000               	movlw	0
  3089     018B  3183  23D9  3180   	fcall	_OLED_Printf_Line
  3090     018E                     l4107:
  3091                           
  3092                           ;main.c: 127:         _delay((unsigned long)((500)*(32000000/4000.0)));
  3093     018E  3015               	movlw	21
  3094     018F  0021               	movlb	1	; select bank1
  3095     0190  00CD               	movwf	(??_main^(0+128)+1)
  3096     0191  304B               	movlw	75
  3097     0192  00CC               	movwf	??_main^(0+128)
  3098     0193  30BE               	movlw	190
  3099     0194                     u5747:
  3100     0194  0B89               	decfsz	9,f
  3101     0195  2994               	goto	u5747
  3102     0196  0BCC               	decfsz	??_main^(0+128),f
  3103     0197  2994               	goto	u5747
  3104     0198  0BCD               	decfsz	(??_main^(0+128)+1),f
  3105     0199  2994               	goto	u5747
  3106     019A  0000               	nop
  3107     019B  28E8               	goto	l163
  3108     019C  3180  2802         	ljmp	start
  3109     019E                     __end_of_main:
  3110                           
  3111                           	psect	text1
  3112     1456                     __ptext1:	
  3113 ;; *************** function _initMain *****************
  3114 ;; Defined at:
  3115 ;;		line 38 in file "main.c"
  3116 ;; Parameters:    Size  Location     Type
  3117 ;;		None
  3118 ;; Auto vars:     Size  Location     Type
  3119 ;;		None
  3120 ;; Return value:  Size  Location     Type
  3121 ;;                  1    wreg      void 
  3122 ;; Registers used:
  3123 ;;		wreg, fsr0l, fsr0h, status,2, status,0, pclath, cstack
  3124 ;; Tracked objects:
  3125 ;;		On entry : 0/0
  3126 ;;		On exit  : 0/0
  3127 ;;		Unchanged: 0/0
  3128 ;; Data sizes:     COMMON   BANK0   BANK1   BANK2   BANK3   BANK4   BANK5   BANK6   BANK7   BANK8   BANK9  BANK10  BANK1
      +1  BANK12  BANK13  BANK14  BANK15  BANK16  BANK17  BANK18  BANK19  BANK20  BANK21  BANK22  BANK23  BANK24  BANK25
  3129 ;;      Params:         0       0       0       0       0       0       0       0       0       0       0       0       
      +0       0       0       0       0       0       0       0       0       0       0       0       0       0       0
  3130 ;;      Locals:         0       0       0       0       0       0       0       0       0       0       0       0       
      +0       0       0       0       0       0       0       0       0       0       0       0       0       0       0
  3131 ;;      Temps:          1       0       0       0       0       0       0       0       0       0       0       0       
      +0       0       0       0       0       0       0       0       0       0       0       0       0       0       0
  3132 ;;      Totals:         1       0       0       0       0       0       0       0       0       0       0       0       
      +0       0       0       0       0       0       0       0       0       0       0       0       0       0       0
  3133 ;;Total ram usage:        1 bytes
  3134 ;; Hardware stack levels used: 1
  3135 ;; Hardware stack levels required when called: 1
  3136 ;; This function calls:
  3137 ;;		_ADC_ConfigurePin
  3138 ;;		_internal_32
  3139 ;; This function is called by:
  3140 ;;		_main
  3141 ;; This function uses a non-reentrant model
  3142 ;;
  3143                           
  3144     1456                     _initMain:	
  3145                           ;psect for function _initMain
  3146                           
  3147     1456                     l3133:	
  3148                           ;incstack = 0
  3149                           ; Regs used in _initMain: [wreg-fsr0h+status,2+status,0+pclath+cstack]
  3150                           
  3151                           
  3152                           ;main.c: 41:     internal_32();
  3153     1456  3191  2198  3194   	fcall	_internal_32
  3154     1459                     l3135:
  3155                           
  3156                           ;main.c: 44:     _delay((unsigned long)((10)*(32000000/4000.0)));
  3157     1459  3068               	movlw	104
  3158     145A  00F3               	movwf	??_initMain
  3159     145B  30E4               	movlw	228
  3160     145C                     u5757:
  3161     145C  0B89               	decfsz	9,f
  3162     145D  2C5C               	goto	u5757
  3163     145E  0BF3               	decfsz	??_initMain,f
  3164     145F  2C5C               	goto	u5757
  3165     1460  3200               	nop2
  3166     1461                     l3137:
  3167                           
  3168                           ;main.c: 46:     TRISBbits.TRISB2 = 0;
  3169     1461  0021               	movlb	1	; select bank1
  3170     1462  110D               	bcf	13,2	;volatile
  3171     1463                     l3139:
  3172                           
  3173                           ;main.c: 47:     ANSELBbits.ANSB2 = 0;
  3174     1463  0023               	movlb	3	; select bank3
  3175     1464  110D               	bcf	13,2	;volatile
  3176     1465                     l3141:
  3177                           
  3178                           ;main.c: 54:     ANSELCbits.ANSC4 = 0;
  3179     1465  120E               	bcf	14,4	;volatile
  3180     1466                     l3143:
  3181                           
  3182                           ;main.c: 55:     ANSELCbits.ANSC5 = 0;
  3183     1466  128E               	bcf	14,5	;volatile
  3184     1467                     l3145:
  3185                           
  3186                           ;main.c: 56:     TRISCbits.TRISC4 = 1;
  3187     1467  0021               	movlb	1	; select bank1
  3188     1468  160E               	bsf	14,4	;volatile
  3189     1469                     l3147:
  3190                           
  3191                           ;main.c: 57:     TRISCbits.TRISC5 = 1;
  3192     1469  168E               	bsf	14,5	;volatile
  3193     146A                     l3149:
  3194                           
  3195                           ;main.c: 60:     PPSLOCK = 0x55; PPSLOCK = 0xAA; PPSLOCKbits.PPSLOCKED = 0;
  3196     146A  3055               	movlw	85
  3197     146B  003C               	movlb	28	; select bank28
  3198     146C  008F               	movwf	15	;volsfr
  3199     146D                     l3151:
  3200     146D  30AA               	movlw	170
  3201     146E  008F               	movwf	15	;volsfr
  3202     146F                     l3153:
  3203     146F  100F               	bcf	15,0	;volsfr
  3204     1470                     l3155:
  3205                           
  3206                           ;main.c: 62:     RB2PPSbits.RB2PPS = 0x14;
  3207     1470  003D               	movlb	29	; select bank29
  3208     1471  081A               	movf	26,w	;volatile
  3209     1472  39E0               	andlw	-32
  3210     1473  3814               	iorlw	20
  3211     1474  009A               	movwf	26	;volatile
  3212     1475                     l3157:
  3213                           
  3214                           ;main.c: 63:     RXPPSbits.RXPPS = 0x0B;
  3215     1475  003C               	movlb	28	; select bank28
  3216     1476  0824               	movf	36,w	;volatile
  3217     1477  39E0               	andlw	-32
  3218     1478  380B               	iorlw	11
  3219     1479  00A4               	movwf	36	;volatile
  3220     147A                     l3159:
  3221                           
  3222                           ;main.c: 65:     RC4PPSbits.RC4PPS = 0x11;
  3223     147A  003D               	movlb	29	; select bank29
  3224     147B  0824               	movf	36,w	;volatile
  3225     147C  39E0               	andlw	-32
  3226     147D  3811               	iorlw	17
  3227     147E  00A4               	movwf	36	;volatile
  3228     147F                     l3161:
  3229                           
  3230                           ;main.c: 66:     SSPDATPPSbits.SSPDATPPS = 0x14;
  3231     147F  003C               	movlb	28	; select bank28
  3232     1480  0821               	movf	33,w	;volatile
  3233     1481  39E0               	andlw	-32
  3234     1482  3814               	iorlw	20
  3235     1483  00A1               	movwf	33	;volatile
  3236     1484                     l3163:
  3237                           
  3238                           ;main.c: 68:     SSPCLKPPSbits.SSPCLKPPS = 0x15;
  3239     1484  0820               	movf	32,w	;volatile
  3240     1485  39E0               	andlw	-32
  3241     1486  3815               	iorlw	21
  3242     1487  00A0               	movwf	32	;volatile
  3243     1488                     l3165:
  3244                           
  3245                           ;main.c: 69:     RC5PPSbits.RC5PPS = 0x10;
  3246     1488  003D               	movlb	29	; select bank29
  3247     1489  0825               	movf	37,w	;volatile
  3248     148A  39E0               	andlw	-32
  3249     148B  3810               	iorlw	16
  3250     148C  00A5               	movwf	37	;volatile
  3251     148D                     l3167:
  3252                           
  3253                           ;main.c: 71:     PPSLOCK = 0x55; PPSLOCK = 0xAA; PPSLOCKbits.PPSLOCKED = 1;
  3254     148D  3055               	movlw	85
  3255     148E  003C               	movlb	28	; select bank28
  3256     148F  008F               	movwf	15	;volsfr
  3257     1490                     l3169:
  3258     1490  30AA               	movlw	170
  3259     1491  008F               	movwf	15	;volsfr
  3260     1492                     l3171:
  3261     1492  140F               	bsf	15,0	;volsfr
  3262     1493                     l3173:
  3263                           
  3264                           ;main.c: 79:     ADCON1bits.ADCS = 0b010;
  3265     1493  0021               	movlb	1	; select bank1
  3266     1494  081E               	movf	30,w	;volatile
  3267     1495  398F               	andlw	-113
  3268     1496  3820               	iorlw	32
  3269     1497  009E               	movwf	30	;volatile
  3270     1498                     l3175:
  3271                           
  3272                           ;main.c: 82:     ADCON1bits.ADFM = 1;
  3273     1498  179E               	bsf	30,7	;volatile
  3274     1499                     l3177:
  3275                           
  3276                           ;main.c: 85:     ADCON1bits.ADNREF = 0;
  3277     1499  111E               	bcf	30,2	;volatile
  3278     149A                     l3179:
  3279                           
  3280                           ;main.c: 88:     ADCON1bits.ADPREF = 0b00;
  3281     149A  30FC               	movlw	-4
  3282     149B  059E               	andwf	30,f	;volatile
  3283     149C                     l3181:
  3284                           
  3285                           ;main.c: 91:     ADC_ConfigurePin(ADC_AN0);
  3286     149C  3000               	movlw	0
  3287     149D  3196  264A  3194   	fcall	_ADC_ConfigurePin
  3288     14A0                     l158:
  3289     14A0  0008               	return
  3290     14A1                     __end_of_initMain:
  3291                           
  3292                           	psect	text2
  3293     1198                     __ptext2:	
  3294 ;; *************** function _internal_32 *****************
  3295 ;; Defined at:
  3296 ;;		line 36 in file "PIC16F1718_Internal.c"
  3297 ;; Parameters:    Size  Location     Type
  3298 ;;		None
  3299 ;; Auto vars:     Size  Location     Type
  3300 ;;		None
  3301 ;; Return value:  Size  Location     Type
  3302 ;;                  1    wreg      void 
  3303 ;; Registers used:
  3304 ;;		None
  3305 ;; Tracked objects:
  3306 ;;		On entry : 0/0
  3307 ;;		On exit  : 0/0
  3308 ;;		Unchanged: 0/0
  3309 ;; Data sizes:     COMMON   BANK0   BANK1   BANK2   BANK3   BANK4   BANK5   BANK6   BANK7   BANK8   BANK9  BANK10  BANK1
      +1  BANK12  BANK13  BANK14  BANK15  BANK16  BANK17  BANK18  BANK19  BANK20  BANK21  BANK22  BANK23  BANK24  BANK25
  3310 ;;      Params:         0       0       0       0       0       0       0       0       0       0       0       0       
      +0       0       0       0       0       0       0       0       0       0       0       0       0       0       0
  3311 ;;      Locals:         0       0       0       0       0       0       0       0       0       0       0       0       
      +0       0       0       0       0       0       0       0       0       0       0       0       0       0       0
  3312 ;;      Temps:          0       0       0       0       0       0       0       0       0       0       0       0       
      +0       0       0       0       0       0       0       0       0       0       0       0       0       0       0
  3313 ;;      Totals:         0       0       0       0       0       0       0       0       0       0       0       0       
      +0       0       0       0       0       0       0       0       0       0       0       0       0       0       0
  3314 ;;Total ram usage:        0 bytes
  3315 ;; Hardware stack levels used: 1
  3316 ;; This function calls:
  3317 ;;		Nothing
  3318 ;; This function is called by:
  3319 ;;		_initMain
  3320 ;; This function uses a non-reentrant model
  3321 ;;
  3322                           
  3323     1198                     _internal_32:	
  3324                           ;psect for function _internal_32
  3325                           
  3326     1198                     l2781:	
  3327                           ;incstack = 0
  3328                           ; Regs used in _internal_32: []
  3329                           
  3330                           
  3331                           ;PIC16F1718_Internal.c: 38:     SCS0 = 0;
  3332     1198  0021               	movlb	1	; select bank1
  3333     1199  1019               	bcf	25,0	;volatile
  3334                           
  3335                           ;PIC16F1718_Internal.c: 39:     SCS1 = 0;
  3336     119A  1099               	bcf	25,1	;volatile
  3337                           
  3338                           ;PIC16F1718_Internal.c: 42:     IRCF0 = 0;
  3339     119B  1199               	bcf	25,3	;volatile
  3340                           
  3341                           ;PIC16F1718_Internal.c: 43:     IRCF1 = 1;
  3342     119C  1619               	bsf	25,4	;volatile
  3343                           
  3344                           ;PIC16F1718_Internal.c: 44:     IRCF2 = 1;
  3345     119D  1699               	bsf	25,5	;volatile
  3346                           
  3347                           ;PIC16F1718_Internal.c: 45:     IRCF3 = 1;
  3348     119E  1719               	bsf	25,6	;volatile
  3349                           
  3350                           ;PIC16F1718_Internal.c: 48:     SPLLEN = 1;
  3351     119F  1799               	bsf	25,7	;volatile
  3352     11A0                     l369:
  3353     11A0  0008               	return
  3354     11A1                     __end_of_internal_32:
  3355                           
  3356                           	psect	text3
  3357     164A                     __ptext3:	
  3358 ;; *************** function _ADC_ConfigurePin *****************
  3359 ;; Defined at:
  3360 ;;		line 53 in file "./ADC.h"
  3361 ;; Parameters:    Size  Location     Type
  3362 ;;  channel         1    wreg     enum E6091
  3363 ;; Auto vars:     Size  Location     Type
  3364 ;;  channel         1    2[COMMON] enum E6091
  3365 ;; Return value:  Size  Location     Type
  3366 ;;                  1    wreg      void 
  3367 ;; Registers used:
  3368 ;;		wreg, fsr0l, fsr0h, status,2, status,0
  3369 ;; Tracked objects:
  3370 ;;		On entry : 0/0
  3371 ;;		On exit  : 0/0
  3372 ;;		Unchanged: 0/0
  3373 ;; Data sizes:     COMMON   BANK0   BANK1   BANK2   BANK3   BANK4   BANK5   BANK6   BANK7   BANK8   BANK9  BANK10  BANK1
      +1  BANK12  BANK13  BANK14  BANK15  BANK16  BANK17  BANK18  BANK19  BANK20  BANK21  BANK22  BANK23  BANK24  BANK25
  3374 ;;      Params:         0       0       0       0       0       0       0       0       0       0       0       0       
      +0       0       0       0       0       0       0       0       0       0       0       0       0       0       0
  3375 ;;      Locals:         1       0       0       0       0       0       0       0       0       0       0       0       
      +0       0       0       0       0       0       0       0       0       0       0       0       0       0       0
  3376 ;;      Temps:          2       0       0       0       0       0       0       0       0       0       0       0       
      +0       0       0       0       0       0       0       0       0       0       0       0       0       0       0
  3377 ;;      Totals:         3       0       0       0       0       0       0       0       0       0       0       0       
      +0       0       0       0       0       0       0       0       0       0       0       0       0       0       0
  3378 ;;Total ram usage:        3 bytes
  3379 ;; Hardware stack levels used: 1
  3380 ;; This function calls:
  3381 ;;		Nothing
  3382 ;; This function is called by:
  3383 ;;		_initMain
  3384 ;; This function uses a non-reentrant model
  3385 ;;
  3386                           
  3387     164A                     _ADC_ConfigurePin:	
  3388                           ;psect for function _ADC_ConfigurePin
  3389                           
  3390                           
  3391                           ;incstack = 0
  3392                           ; Regs used in _ADC_ConfigurePin: [wreg-fsr0h+status,2+status,0]
  3393                           ;ADC_ConfigurePin@channel stored from wreg
  3394     164A  00F2               	movwf	ADC_ConfigurePin@channel
  3395     164B                     l2771:
  3396                           
  3397                           ;./ADC.h: 53: void ADC_ConfigurePin(adc_channel_t channel);./ADC.h: 54: {;./ADC.h: 55:  
      +                             switch(channel) {
  3398     164B  2E83               	goto	l2775
  3399     164C                     l130:	
  3400                           ;./ADC.h: 56:         case ADC_AN0: TRISAbits.TRISA0 = 1; ANSELAbits.ANSA0 = 1; break;
  3401                           
  3402     164C  0021               	movlb	1	; select bank1
  3403     164D  140C               	bsf	12,0	;volatile
  3404     164E  0023               	movlb	3	; select bank3
  3405     164F  140C               	bsf	12,0	;volatile
  3406     1650  2EAE               	goto	l142
  3407     1651                     l132:	
  3408                           ;./ADC.h: 57:         case ADC_AN1: TRISAbits.TRISA1 = 1; ANSELAbits.ANSA1 = 1; break;
  3409                           
  3410     1651  0021               	movlb	1	; select bank1
  3411     1652  148C               	bsf	12,1	;volatile
  3412     1653  0023               	movlb	3	; select bank3
  3413     1654  148C               	bsf	12,1	;volatile
  3414     1655  2EAE               	goto	l142
  3415     1656                     l133:	
  3416                           ;./ADC.h: 58:         case ADC_AN2: TRISAbits.TRISA2 = 1; ANSELAbits.ANSA2 = 1; break;
  3417                           
  3418     1656  0021               	movlb	1	; select bank1
  3419     1657  150C               	bsf	12,2	;volatile
  3420     1658  0023               	movlb	3	; select bank3
  3421     1659  150C               	bsf	12,2	;volatile
  3422     165A  2EAE               	goto	l142
  3423     165B                     l134:	
  3424                           ;./ADC.h: 59:         case ADC_AN3: TRISAbits.TRISA3 = 1; ANSELAbits.ANSA3 = 1; break;
  3425                           
  3426     165B  0021               	movlb	1	; select bank1
  3427     165C  158C               	bsf	12,3	;volatile
  3428     165D  0023               	movlb	3	; select bank3
  3429     165E  158C               	bsf	12,3	;volatile
  3430     165F  2EAE               	goto	l142
  3431     1660                     l135:	
  3432                           ;./ADC.h: 60:         case ADC_AN4: TRISAbits.TRISA4 = 1; ANSELAbits.ANSA4 = 1; break;
  3433                           
  3434     1660  0021               	movlb	1	; select bank1
  3435     1661  160C               	bsf	12,4	;volatile
  3436     1662  0023               	movlb	3	; select bank3
  3437     1663  160C               	bsf	12,4	;volatile
  3438     1664  2EAE               	goto	l142
  3439     1665                     l136:	
  3440                           ;./ADC.h: 61:         case ADC_AN5: TRISAbits.TRISA5 = 1; ANSELAbits.ANSA5 = 1; break;
  3441                           
  3442     1665  0021               	movlb	1	; select bank1
  3443     1666  168C               	bsf	12,5	;volatile
  3444     1667  0023               	movlb	3	; select bank3
  3445     1668  168C               	bsf	12,5	;volatile
  3446     1669  2EAE               	goto	l142
  3447     166A                     l137:	
  3448                           ;./ADC.h: 62:         case ADC_AN8: TRISBbits.TRISB0 = 1; ANSELBbits.ANSB0 = 1; break;
  3449                           
  3450     166A  0021               	movlb	1	; select bank1
  3451     166B  140D               	bsf	13,0	;volatile
  3452     166C  0023               	movlb	3	; select bank3
  3453     166D  140D               	bsf	13,0	;volatile
  3454     166E  2EAE               	goto	l142
  3455     166F                     l138:	
  3456                           ;./ADC.h: 63:         case ADC_AN9: TRISBbits.TRISB1 = 1; ANSELBbits.ANSB1 = 1; break;
  3457                           
  3458     166F  0021               	movlb	1	; select bank1
  3459     1670  148D               	bsf	13,1	;volatile
  3460     1671  0023               	movlb	3	; select bank3
  3461     1672  148D               	bsf	13,1	;volatile
  3462     1673  2EAE               	goto	l142
  3463     1674                     l139:	
  3464                           ;./ADC.h: 64:         case ADC_AN10: TRISBbits.TRISB3 = 1; ANSELBbits.ANSB3 = 1; break;
  3465                           
  3466     1674  0021               	movlb	1	; select bank1
  3467     1675  158D               	bsf	13,3	;volatile
  3468     1676  0023               	movlb	3	; select bank3
  3469     1677  158D               	bsf	13,3	;volatile
  3470     1678  2EAE               	goto	l142
  3471     1679                     l140:	
  3472                           ;./ADC.h: 65:         case ADC_AN11: TRISBbits.TRISB4 = 1; ANSELBbits.ANSB4 = 1; break;
  3473                           
  3474     1679  0021               	movlb	1	; select bank1
  3475     167A  160D               	bsf	13,4	;volatile
  3476     167B  0023               	movlb	3	; select bank3
  3477     167C  160D               	bsf	13,4	;volatile
  3478     167D  2EAE               	goto	l142
  3479     167E                     l141:	
  3480                           ;./ADC.h: 66:         case ADC_AN12: TRISBbits.TRISB5 = 1; ANSELBbits.ANSB5 = 1; break;
  3481                           
  3482     167E  0021               	movlb	1	; select bank1
  3483     167F  168D               	bsf	13,5	;volatile
  3484     1680  0023               	movlb	3	; select bank3
  3485     1681  168D               	bsf	13,5	;volatile
  3486     1682  2EAE               	goto	l142
  3487     1683                     l2775:
  3488     1683  0872               	movf	ADC_ConfigurePin@channel,w
  3489     1684  00F0               	movwf	??_ADC_ConfigurePin
  3490     1685  01F1               	clrf	??_ADC_ConfigurePin+1
  3491                           
  3492                           ; Switch on 2 bytes has been partitioned into a top level switch of size 1, and 1 sub-sw
      +                          itches
  3493                           ; Switch size 1, requested type "simple"
  3494                           ; Number of cases is 1, Range of values is 0 to 0
  3495                           ; switch strategies available:
  3496                           ; Name         Instructions Cycles
  3497                           ; simple_byte            4     3 (average)
  3498                           ; direct_byte            8     6 (fixed)
  3499                           ; jumptable            260     6 (fixed)
  3500                           ;	Chosen strategy is simple_byte
  3501     1686  0871               	movf	??_ADC_ConfigurePin+1,w
  3502     1687  3A00               	xorlw	0	; case 0
  3503     1688  1903               	skipnz
  3504     1689  2E8B               	goto	l4215
  3505     168A  2EAE               	goto	l142
  3506     168B                     l4215:
  3507                           
  3508                           ; Switch size 1, requested type "simple"
  3509                           ; Number of cases is 11, Range of values is 0 to 12
  3510                           ; switch strategies available:
  3511                           ; Name         Instructions Cycles
  3512                           ; direct_byte           32     6 (fixed)
  3513                           ; simple_byte           34    18 (average)
  3514                           ; jumptable            260     6 (fixed)
  3515                           ;	Chosen strategy is simple_byte
  3516     168B  0870               	movf	??_ADC_ConfigurePin,w
  3517     168C  3A00               	xorlw	0	; case 0
  3518     168D  1903               	skipnz
  3519     168E  2E4C               	goto	l130
  3520     168F  3A01               	xorlw	1	; case 1
  3521     1690  1903               	skipnz
  3522     1691  2E51               	goto	l132
  3523     1692  3A03               	xorlw	3	; case 2
  3524     1693  1903               	skipnz
  3525     1694  2E56               	goto	l133
  3526     1695  3A01               	xorlw	1	; case 3
  3527     1696  1903               	skipnz
  3528     1697  2E5B               	goto	l134
  3529     1698  3A07               	xorlw	7	; case 4
  3530     1699  1903               	skipnz
  3531     169A  2E60               	goto	l135
  3532     169B  3A01               	xorlw	1	; case 5
  3533     169C  1903               	skipnz
  3534     169D  2E65               	goto	l136
  3535     169E  3A0D               	xorlw	13	; case 8
  3536     169F  1903               	skipnz
  3537     16A0  2E6A               	goto	l137
  3538     16A1  3A01               	xorlw	1	; case 9
  3539     16A2  1903               	skipnz
  3540     16A3  2E6F               	goto	l138
  3541     16A4  3A03               	xorlw	3	; case 10
  3542     16A5  1903               	skipnz
  3543     16A6  2E74               	goto	l139
  3544     16A7  3A01               	xorlw	1	; case 11
  3545     16A8  1903               	skipnz
  3546     16A9  2E79               	goto	l140
  3547     16AA  3A07               	xorlw	7	; case 12
  3548     16AB  1903               	skipnz
  3549     16AC  2E7E               	goto	l141
  3550     16AD  2EAE               	goto	l142
  3551     16AE                     l142:
  3552     16AE  0008               	return
  3553     16AF                     __end_of_ADC_ConfigurePin:
  3554                           
  3555                           	psect	text4
  3556     002B                     __ptext4:	
  3557 ;; *************** function ___xxtofl *****************
  3558 ;; Defined at:
  3559 ;;		line 10 in file "C:\Program Files\Microchip\xc8\v2.46\pic\sources\c99\common\xxtofl.c"
  3560 ;; Parameters:    Size  Location     Type
  3561 ;;  sign            1    wreg     unsigned char 
  3562 ;;  val             4    0[COMMON] long 
  3563 ;; Auto vars:     Size  Location     Type
  3564 ;;  sign            1    8[COMMON] unsigned char 
  3565 ;;  arg             4   10[COMMON] unsigned long 
  3566 ;;  exp             1    9[COMMON] unsigned char 
  3567 ;; Return value:  Size  Location     Type
  3568 ;;                  4    0[COMMON] unsigned char 
  3569 ;; Registers used:
  3570 ;;		wreg, status,2, status,0
  3571 ;; Tracked objects:
  3572 ;;		On entry : 0/0
  3573 ;;		On exit  : 0/0
  3574 ;;		Unchanged: 0/0
  3575 ;; Data sizes:     COMMON   BANK0   BANK1   BANK2   BANK3   BANK4   BANK5   BANK6   BANK7   BANK8   BANK9  BANK10  BANK1
      +1  BANK12  BANK13  BANK14  BANK15  BANK16  BANK17  BANK18  BANK19  BANK20  BANK21  BANK22  BANK23  BANK24  BANK25
  3576 ;;      Params:         4       0       0       0       0       0       0       0       0       0       0       0       
      +0       0       0       0       0       0       0       0       0       0       0       0       0       0       0
  3577 ;;      Locals:         6       0       0       0       0       0       0       0       0       0       0       0       
      +0       0       0       0       0       0       0       0       0       0       0       0       0       0       0
  3578 ;;      Temps:          4       0       0       0       0       0       0       0       0       0       0       0       
      +0       0       0       0       0       0       0       0       0       0       0       0       0       0       0
  3579 ;;      Totals:        14       0       0       0       0       0       0       0       0       0       0       0       
      +0       0       0       0       0       0       0       0       0       0       0       0       0       0       0
  3580 ;;Total ram usage:       14 bytes
  3581 ;; Hardware stack levels used: 1
  3582 ;; This function calls:
  3583 ;;		Nothing
  3584 ;; This function is called by:
  3585 ;;		_main
  3586 ;; This function uses a non-reentrant model
  3587 ;;
  3588                           
  3589     002B                     ___xxtofl:	
  3590                           ;psect for function ___xxtofl
  3591                           
  3592                           
  3593                           ;incstack = 0
  3594                           ; Regs used in ___xxtofl: [wreg+status,2+status,0]
  3595                           ;___xxtofl@sign stored from wreg
  3596     002B  00F8               	movwf	___xxtofl@sign
  3597     002C                     l4009:
  3598     002C  0878               	movf	___xxtofl@sign,w
  3599     002D  1903               	btfsc	3,2
  3600     002E  2830               	goto	u5351
  3601     002F  2831               	goto	u5350
  3602     0030                     u5351:
  3603     0030  2845               	goto	l4015
  3604     0031                     u5350:
  3605     0031                     l4011:
  3606     0031  1FF3               	btfss	___xxtofl@val+3,7
  3607     0032  2834               	goto	u5361
  3608     0033  2835               	goto	u5360
  3609     0034                     u5361:
  3610     0034  2845               	goto	l4015
  3611     0035                     u5360:
  3612     0035                     l4013:
  3613     0035  0970               	comf	___xxtofl@val,w
  3614     0036  00FA               	movwf	___xxtofl@arg
  3615     0037  0971               	comf	___xxtofl@val+1,w
  3616     0038  00FB               	movwf	___xxtofl@arg+1
  3617     0039  0972               	comf	___xxtofl@val+2,w
  3618     003A  00FC               	movwf	___xxtofl@arg+2
  3619     003B  0973               	comf	___xxtofl@val+3,w
  3620     003C  00FD               	movwf	___xxtofl@arg+3
  3621     003D  0AFA               	incf	___xxtofl@arg,f
  3622     003E  1903               	skipnz
  3623     003F  0AFB               	incf	___xxtofl@arg+1,f
  3624     0040  1903               	skipnz
  3625     0041  0AFC               	incf	___xxtofl@arg+2,f
  3626     0042  1903               	skipnz
  3627     0043  0AFD               	incf	___xxtofl@arg+3,f
  3628     0044  284D               	goto	l896
  3629     0045                     l4015:
  3630     0045  0873               	movf	___xxtofl@val+3,w
  3631     0046  00FD               	movwf	___xxtofl@arg+3
  3632     0047  0872               	movf	___xxtofl@val+2,w
  3633     0048  00FC               	movwf	___xxtofl@arg+2
  3634     0049  0871               	movf	___xxtofl@val+1,w
  3635     004A  00FB               	movwf	___xxtofl@arg+1
  3636     004B  0870               	movf	___xxtofl@val,w
  3637     004C  00FA               	movwf	___xxtofl@arg
  3638     004D                     l896:
  3639     004D  0873               	movf	___xxtofl@val+3,w
  3640     004E  0472               	iorwf	___xxtofl@val+2,w
  3641     004F  0471               	iorwf	___xxtofl@val+1,w
  3642     0050  0470               	iorwf	___xxtofl@val,w
  3643     0051  1D03               	skipz
  3644     0052  2854               	goto	u5371
  3645     0053  2855               	goto	u5370
  3646     0054                     u5371:
  3647     0054  285E               	goto	l4021
  3648     0055                     u5370:
  3649     0055                     l4017:
  3650     0055  3000               	movlw	0
  3651     0056  00F3               	movwf	?___xxtofl+3
  3652     0057  3000               	movlw	0
  3653     0058  00F2               	movwf	?___xxtofl+2
  3654     0059  3000               	movlw	0
  3655     005A  00F1               	movwf	?___xxtofl+1
  3656     005B  3000               	movlw	0
  3657     005C  00F0               	movwf	?___xxtofl
  3658     005D  28D4               	goto	l898
  3659     005E                     l4021:
  3660     005E  3096               	movlw	150
  3661     005F  00F9               	movwf	___xxtofl@exp
  3662     0060  286C               	goto	l4025
  3663     0061                     l4023:
  3664     0061  3001               	movlw	1
  3665     0062  00F4               	movwf	??___xxtofl
  3666     0063  0874               	movf	??___xxtofl,w
  3667     0064  07F9               	addwf	___xxtofl@exp,f
  3668     0065  3001               	movlw	1
  3669     0066                     u5385:
  3670     0066  36FD               	lsrf	___xxtofl@arg+3,f
  3671     0067  0CFC               	rrf	___xxtofl@arg+2,f
  3672     0068  0CFB               	rrf	___xxtofl@arg+1,f
  3673     0069  0CFA               	rrf	___xxtofl@arg,f
  3674     006A  0B89               	decfsz	9,f
  3675     006B  2866               	goto	u5385
  3676     006C                     l4025:
  3677     006C  30FE               	movlw	254
  3678     006D  057D               	andwf	___xxtofl@arg+3,w
  3679     006E  1D03               	btfss	3,2
  3680     006F  2871               	goto	u5391
  3681     0070  2872               	goto	u5390
  3682     0071                     u5391:
  3683     0071  2861               	goto	l4023
  3684     0072                     u5390:
  3685     0072  2886               	goto	l902
  3686     0073                     l4027:
  3687     0073  3001               	movlw	1
  3688     0074  00F4               	movwf	??___xxtofl
  3689     0075  0874               	movf	??___xxtofl,w
  3690     0076  07F9               	addwf	___xxtofl@exp,f
  3691     0077                     l4029:
  3692     0077  3001               	movlw	1
  3693     0078  07FA               	addwf	___xxtofl@arg,f
  3694     0079  3000               	movlw	0
  3695     007A  3DFB               	addwfc	___xxtofl@arg+1,f
  3696     007B  3000               	movlw	0
  3697     007C  3DFC               	addwfc	___xxtofl@arg+2,f
  3698     007D  3000               	movlw	0
  3699     007E  3DFD               	addwfc	___xxtofl@arg+3,f
  3700     007F                     l4031:
  3701     007F  3001               	movlw	1
  3702     0080                     u5405:
  3703     0080  36FD               	lsrf	___xxtofl@arg+3,f
  3704     0081  0CFC               	rrf	___xxtofl@arg+2,f
  3705     0082  0CFB               	rrf	___xxtofl@arg+1,f
  3706     0083  0CFA               	rrf	___xxtofl@arg,f
  3707     0084  0B89               	decfsz	9,f
  3708     0085  2880               	goto	u5405
  3709     0086                     l902:
  3710     0086  30FF               	movlw	255
  3711     0087  057D               	andwf	___xxtofl@arg+3,w
  3712     0088  1D03               	btfss	3,2
  3713     0089  288B               	goto	u5411
  3714     008A  288C               	goto	u5410
  3715     008B                     u5411:
  3716     008B  2873               	goto	l4027
  3717     008C                     u5410:
  3718     008C  2896               	goto	l4035
  3719     008D                     l4033:
  3720     008D  3001               	movlw	1
  3721     008E  02F9               	subwf	___xxtofl@exp,f
  3722     008F  3001               	movlw	1
  3723     0090                     u5425:
  3724     0090  35FA               	lslf	___xxtofl@arg,f
  3725     0091  0DFB               	rlf	___xxtofl@arg+1,f
  3726     0092  0DFC               	rlf	___xxtofl@arg+2,f
  3727     0093  0DFD               	rlf	___xxtofl@arg+3,f
  3728     0094  0B89               	decfsz	9,f
  3729     0095  2890               	goto	u5425
  3730     0096                     l4035:
  3731     0096  1BFC               	btfsc	___xxtofl@arg+2,7
  3732     0097  2899               	goto	u5431
  3733     0098  289A               	goto	u5430
  3734     0099                     u5431:
  3735     0099  28A0               	goto	l909
  3736     009A                     u5430:
  3737     009A                     l4037:
  3738     009A  3002               	movlw	2
  3739     009B  0279               	subwf	___xxtofl@exp,w
  3740     009C  1803               	skipnc
  3741     009D  289F               	goto	u5441
  3742     009E  28A0               	goto	u5440
  3743     009F                     u5441:
  3744     009F  288D               	goto	l4033
  3745     00A0                     u5440:
  3746     00A0                     l909:
  3747     00A0  1879               	btfsc	___xxtofl@exp,0
  3748     00A1  28A3               	goto	u5451
  3749     00A2  28A4               	goto	u5450
  3750     00A3                     u5451:
  3751     00A3  28AC               	goto	l910
  3752     00A4                     u5450:
  3753     00A4                     l4039:
  3754     00A4  30FF               	movlw	255
  3755     00A5  05FA               	andwf	___xxtofl@arg,f
  3756     00A6  30FF               	movlw	255
  3757     00A7  05FB               	andwf	___xxtofl@arg+1,f
  3758     00A8  307F               	movlw	127
  3759     00A9  05FC               	andwf	___xxtofl@arg+2,f
  3760     00AA  30FF               	movlw	255
  3761     00AB  05FD               	andwf	___xxtofl@arg+3,f
  3762     00AC                     l910:
  3763     00AC  1003               	clrc
  3764     00AD  0CF9               	rrf	___xxtofl@exp,f
  3765     00AE                     l4041:
  3766     00AE  0879               	movf	___xxtofl@exp,w
  3767     00AF  00F4               	movwf	??___xxtofl
  3768     00B0  01F5               	clrf	??___xxtofl+1
  3769     00B1  01F6               	clrf	??___xxtofl+2
  3770     00B2  01F7               	clrf	??___xxtofl+3
  3771     00B3  3018               	movlw	24
  3772     00B4                     u5465:
  3773     00B4  35F4               	lslf	??___xxtofl,f
  3774     00B5  0DF5               	rlf	??___xxtofl+1,f
  3775     00B6  0DF6               	rlf	??___xxtofl+2,f
  3776     00B7  0DF7               	rlf	??___xxtofl+3,f
  3777     00B8                     u5460:
  3778     00B8  0B89               	decfsz	9,f
  3779     00B9  28B4               	goto	u5465
  3780     00BA  0874               	movf	??___xxtofl,w
  3781     00BB  04FA               	iorwf	___xxtofl@arg,f
  3782     00BC  0875               	movf	??___xxtofl+1,w
  3783     00BD  04FB               	iorwf	___xxtofl@arg+1,f
  3784     00BE  0876               	movf	??___xxtofl+2,w
  3785     00BF  04FC               	iorwf	___xxtofl@arg+2,f
  3786     00C0  0877               	movf	??___xxtofl+3,w
  3787     00C1  04FD               	iorwf	___xxtofl@arg+3,f
  3788     00C2                     l4043:
  3789     00C2  0878               	movf	___xxtofl@sign,w
  3790     00C3  1903               	btfsc	3,2
  3791     00C4  28C6               	goto	u5471
  3792     00C5  28C7               	goto	u5470
  3793     00C6                     u5471:
  3794     00C6  28CC               	goto	l4049
  3795     00C7                     u5470:
  3796     00C7                     l4045:
  3797     00C7  1FF3               	btfss	___xxtofl@val+3,7
  3798     00C8  28CA               	goto	u5481
  3799     00C9  28CB               	goto	u5480
  3800     00CA                     u5481:
  3801     00CA  28CC               	goto	l4049
  3802     00CB                     u5480:
  3803     00CB                     l4047:
  3804     00CB  17FD               	bsf	___xxtofl@arg+3,7
  3805     00CC                     l4049:
  3806     00CC  087D               	movf	___xxtofl@arg+3,w
  3807     00CD  00F3               	movwf	?___xxtofl+3
  3808     00CE  087C               	movf	___xxtofl@arg+2,w
  3809     00CF  00F2               	movwf	?___xxtofl+2
  3810     00D0  087B               	movf	___xxtofl@arg+1,w
  3811     00D1  00F1               	movwf	?___xxtofl+1
  3812     00D2  087A               	movf	___xxtofl@arg,w
  3813     00D3  00F0               	movwf	?___xxtofl
  3814     00D4                     l898:
  3815     00D4  0008               	return
  3816     00D5                     __end_of___xxtofl:
  3817                           
  3818                           	psect	text5
  3819     171C                     __ptext5:	
  3820 ;; *************** function ___fltol *****************
  3821 ;; Defined at:
  3822 ;;		line 43 in file "C:\Program Files\Microchip\xc8\v2.46\pic\sources\c99\common\fltol.c"
  3823 ;; Parameters:    Size  Location     Type
  3824 ;;  f1              4    0[COMMON] unsigned char 
  3825 ;; Auto vars:     Size  Location     Type
  3826 ;;  exp1            1    9[COMMON] unsigned char 
  3827 ;;  sign1           1    8[COMMON] unsigned char 
  3828 ;; Return value:  Size  Location     Type
  3829 ;;                  4    0[COMMON] long 
  3830 ;; Registers used:
  3831 ;;		wreg, status,2, status,0
  3832 ;; Tracked objects:
  3833 ;;		On entry : 0/0
  3834 ;;		On exit  : 0/0
  3835 ;;		Unchanged: 0/0
  3836 ;; Data sizes:     COMMON   BANK0   BANK1   BANK2   BANK3   BANK4   BANK5   BANK6   BANK7   BANK8   BANK9  BANK10  BANK1
      +1  BANK12  BANK13  BANK14  BANK15  BANK16  BANK17  BANK18  BANK19  BANK20  BANK21  BANK22  BANK23  BANK24  BANK25
  3837 ;;      Params:         4       0       0       0       0       0       0       0       0       0       0       0       
      +0       0       0       0       0       0       0       0       0       0       0       0       0       0       0
  3838 ;;      Locals:         2       0       0       0       0       0       0       0       0       0       0       0       
      +0       0       0       0       0       0       0       0       0       0       0       0       0       0       0
  3839 ;;      Temps:          4       0       0       0       0       0       0       0       0       0       0       0       
      +0       0       0       0       0       0       0       0       0       0       0       0       0       0       0
  3840 ;;      Totals:        10       0       0       0       0       0       0       0       0       0       0       0       
      +0       0       0       0       0       0       0       0       0       0       0       0       0       0       0
  3841 ;;Total ram usage:       10 bytes
  3842 ;; Hardware stack levels used: 1
  3843 ;; This function calls:
  3844 ;;		Nothing
  3845 ;; This function is called by:
  3846 ;;		_main
  3847 ;; This function uses a non-reentrant model
  3848 ;;
  3849                           
  3850     171C                     ___fltol:	
  3851                           ;psect for function ___fltol
  3852                           
  3853     171C                     l3499:	
  3854                           ;incstack = 0
  3855                           ; Regs used in ___fltol: [wreg+status,2+status,0]
  3856                           
  3857     171C  1003               	clrc
  3858     171D  0D72               	rlf	___fltol@f1+2,w
  3859     171E  0D73               	rlf	___fltol@f1+3,w
  3860     171F  00F9               	movwf	___fltol@exp1
  3861     1720  0879               	movf	___fltol@exp1,w
  3862     1721  1D03               	btfss	3,2
  3863     1722  2F24               	goto	u4271
  3864     1723  2F25               	goto	u4270
  3865     1724                     u4271:
  3866     1724  2F2E               	goto	l3505
  3867     1725                     u4270:
  3868     1725                     l3501:
  3869     1725  3000               	movlw	0
  3870     1726  00F3               	movwf	?___fltol+3
  3871     1727  3000               	movlw	0
  3872     1728  00F2               	movwf	?___fltol+2
  3873     1729  3000               	movlw	0
  3874     172A  00F1               	movwf	?___fltol+1
  3875     172B  3000               	movlw	0
  3876     172C  00F0               	movwf	?___fltol
  3877     172D  2F8B               	goto	l649
  3878     172E                     l3505:
  3879     172E  0870               	movf	___fltol@f1,w
  3880     172F  00F4               	movwf	??___fltol
  3881     1730  0871               	movf	___fltol@f1+1,w
  3882     1731  00F5               	movwf	??___fltol+1
  3883     1732  0872               	movf	___fltol@f1+2,w
  3884     1733  00F6               	movwf	??___fltol+2
  3885     1734  0873               	movf	___fltol@f1+3,w
  3886     1735  00F7               	movwf	??___fltol+3
  3887     1736  301F               	movlw	31
  3888     1737                     u4285:
  3889     1737  36F7               	lsrf	??___fltol+3,f
  3890     1738  0CF6               	rrf	??___fltol+2,f
  3891     1739  0CF5               	rrf	??___fltol+1,f
  3892     173A  0CF4               	rrf	??___fltol,f
  3893     173B                     u4280:
  3894     173B  0B89               	decfsz	9,f
  3895     173C  2F37               	goto	u4285
  3896     173D  0874               	movf	??___fltol,w
  3897     173E  00F8               	movwf	___fltol@sign1
  3898     173F                     l3507:
  3899     173F  17F2               	bsf	___fltol@f1+2,7
  3900     1740                     l3509:
  3901     1740  30FF               	movlw	255
  3902     1741  05F0               	andwf	___fltol@f1,f
  3903     1742  30FF               	movlw	255
  3904     1743  05F1               	andwf	___fltol@f1+1,f
  3905     1744  30FF               	movlw	255
  3906     1745  05F2               	andwf	___fltol@f1+2,f
  3907     1746  3000               	movlw	0
  3908     1747  05F3               	andwf	___fltol@f1+3,f
  3909     1748                     l3511:
  3910     1748  3096               	movlw	150
  3911     1749  02F9               	subwf	___fltol@exp1,f
  3912     174A                     l3513:
  3913     174A  1FF9               	btfss	___fltol@exp1,7
  3914     174B  2F4D               	goto	u4291
  3915     174C  2F4E               	goto	u4290
  3916     174D                     u4291:
  3917     174D  2F66               	goto	l3523
  3918     174E                     u4290:
  3919     174E                     l3515:
  3920     174E  0879               	movf	___fltol@exp1,w
  3921     174F  3A80               	xorlw	128
  3922     1750  3E97               	addlw	151
  3923     1751  1803               	skipnc
  3924     1752  2F54               	goto	u4301
  3925     1753  2F55               	goto	u4300
  3926     1754                     u4301:
  3927     1754  2F56               	goto	l3521
  3928     1755                     u4300:
  3929     1755  2F25               	goto	l3501
  3930     1756                     l3521:
  3931     1756  3001               	movlw	1
  3932     1757                     u4315:
  3933     1757  36F3               	lsrf	___fltol@f1+3,f
  3934     1758  0CF2               	rrf	___fltol@f1+2,f
  3935     1759  0CF1               	rrf	___fltol@f1+1,f
  3936     175A  0CF0               	rrf	___fltol@f1,f
  3937     175B  0B89               	decfsz	9,f
  3938     175C  2F57               	goto	u4315
  3939     175D  3001               	movlw	1
  3940     175E  00F4               	movwf	??___fltol
  3941     175F  0874               	movf	??___fltol,w
  3942     1760  07F9               	addwf	___fltol@exp1,f
  3943     1761  1D03               	btfss	3,2
  3944     1762  2F64               	goto	u4321
  3945     1763  2F65               	goto	u4320
  3946     1764                     u4321:
  3947     1764  2F56               	goto	l3521
  3948     1765                     u4320:
  3949     1765  2F7B               	goto	l3531
  3950     1766                     l3523:
  3951     1766  3020               	movlw	32
  3952     1767  0279               	subwf	___fltol@exp1,w
  3953     1768  1C03               	skipc
  3954     1769  2F6B               	goto	u4331
  3955     176A  2F6C               	goto	u4330
  3956     176B                     u4331:
  3957     176B  2F76               	goto	l656
  3958     176C                     u4330:
  3959     176C  2F25               	goto	l3501
  3960     176D                     l3529:
  3961     176D  3001               	movlw	1
  3962     176E                     u4345:
  3963     176E  35F0               	lslf	___fltol@f1,f
  3964     176F  0DF1               	rlf	___fltol@f1+1,f
  3965     1770  0DF2               	rlf	___fltol@f1+2,f
  3966     1771  0DF3               	rlf	___fltol@f1+3,f
  3967     1772  0B89               	decfsz	9,f
  3968     1773  2F6E               	goto	u4345
  3969     1774  3001               	movlw	1
  3970     1775  02F9               	subwf	___fltol@exp1,f
  3971     1776                     l656:
  3972     1776  0879               	movf	___fltol@exp1,w
  3973     1777  1D03               	btfss	3,2
  3974     1778  2F7A               	goto	u4351
  3975     1779  2F7B               	goto	u4350
  3976     177A                     u4351:
  3977     177A  2F6D               	goto	l3529
  3978     177B                     u4350:
  3979     177B                     l3531:
  3980     177B  0878               	movf	___fltol@sign1,w
  3981     177C  1903               	btfsc	3,2
  3982     177D  2F7F               	goto	u4361
  3983     177E  2F80               	goto	u4360
  3984     177F                     u4361:
  3985     177F  2F8B               	goto	l659
  3986     1780                     u4360:
  3987     1780                     l3533:
  3988     1780  09F0               	comf	___fltol@f1,f
  3989     1781  09F1               	comf	___fltol@f1+1,f
  3990     1782  09F2               	comf	___fltol@f1+2,f
  3991     1783  09F3               	comf	___fltol@f1+3,f
  3992     1784  0AF0               	incf	___fltol@f1,f
  3993     1785  1903               	skipnz
  3994     1786  0AF1               	incf	___fltol@f1+1,f
  3995     1787  1903               	skipnz
  3996     1788  0AF2               	incf	___fltol@f1+2,f
  3997     1789  1903               	skipnz
  3998     178A  0AF3               	incf	___fltol@f1+3,f
  3999     178B                     l659:
  4000     178B                     l649:
  4001     178B  0008               	return
  4002     178C                     __end_of___fltol:
  4003                           
  4004                           	psect	text6
  4005     019E                     __ptext6:	
  4006 ;; *************** function ___flmul *****************
  4007 ;; Defined at:
  4008 ;;		line 8 in file "C:\Program Files\Microchip\xc8\v2.46\pic\sources\c99\common\sprcmul.c"
  4009 ;; Parameters:    Size  Location     Type
  4010 ;;  b               4    8[BANK0 ] long 
  4011 ;;  a               4   12[BANK0 ] long 
  4012 ;; Auto vars:     Size  Location     Type
  4013 ;;  prod            4   28[BANK0 ] struct .
  4014 ;;  grs             4   22[BANK0 ] unsigned long 
  4015 ;;  temp            2   32[BANK0 ] struct .
  4016 ;;  bexp            1   27[BANK0 ] unsigned char 
  4017 ;;  aexp            1   26[BANK0 ] unsigned char 
  4018 ;;  sign            1   21[BANK0 ] unsigned char 
  4019 ;; Return value:  Size  Location     Type
  4020 ;;                  4    8[BANK0 ] unsigned char 
  4021 ;; Registers used:
  4022 ;;		wreg, status,2, status,0, pclath, cstack
  4023 ;; Tracked objects:
  4024 ;;		On entry : 0/0
  4025 ;;		On exit  : 0/0
  4026 ;;		Unchanged: 0/0
  4027 ;; Data sizes:     COMMON   BANK0   BANK1   BANK2   BANK3   BANK4   BANK5   BANK6   BANK7   BANK8   BANK9  BANK10  BANK1
      +1  BANK12  BANK13  BANK14  BANK15  BANK16  BANK17  BANK18  BANK19  BANK20  BANK21  BANK22  BANK23  BANK24  BANK25
  4028 ;;      Params:         0       8       0       0       0       0       0       0       0       0       0       0       
      +0       0       0       0       0       0       0       0       0       0       0       0       0       0       0
  4029 ;;      Locals:         0      13       0       0       0       0       0       0       0       0       0       0       
      +0       0       0       0       0       0       0       0       0       0       0       0       0       0       0
  4030 ;;      Temps:          0       5       0       0       0       0       0       0       0       0       0       0       
      +0       0       0       0       0       0       0       0       0       0       0       0       0       0       0
  4031 ;;      Totals:         0      26       0       0       0       0       0       0       0       0       0       0       
      +0       0       0       0       0       0       0       0       0       0       0       0       0       0       0
  4032 ;;Total ram usage:       26 bytes
  4033 ;; Hardware stack levels used: 1
  4034 ;; Hardware stack levels required when called: 1
  4035 ;; This function calls:
  4036 ;;		__Umul8_16
  4037 ;; This function is called by:
  4038 ;;		_main
  4039 ;; This function uses a non-reentrant model
  4040 ;;
  4041                           
  4042     019E                     ___flmul:	
  4043                           ;psect for function ___flmul
  4044                           
  4045     019E                     l3869:	
  4046                           ;incstack = 0
  4047                           ; Regs used in ___flmul: [wreg+status,2+status,0+pclath+cstack]
  4048                           
  4049     019E  0020               	movlb	0	; select bank0
  4050     019F  082B               	movf	___flmul@b+3,w
  4051     01A0  3980               	andlw	128
  4052     01A1  00B5               	movwf	___flmul@sign
  4053     01A2                     l3871:
  4054     01A2  352B               	lslf	___flmul@b+3,w
  4055     01A3  00BB               	movwf	___flmul@bexp
  4056     01A4                     l3873:
  4057     01A4  1FAA               	btfss	___flmul@b+2,7
  4058     01A5  29A7               	goto	u5091
  4059     01A6  29A8               	goto	u5090
  4060     01A7                     u5091:
  4061     01A7  29A9               	goto	l3877
  4062     01A8                     u5090:
  4063     01A8                     l3875:
  4064     01A8  143B               	bsf	___flmul@bexp,0
  4065     01A9                     l3877:
  4066     01A9  083B               	movf	___flmul@bexp,w
  4067     01AA  1903               	btfsc	3,2
  4068     01AB  29AD               	goto	u5101
  4069     01AC  29AE               	goto	u5100
  4070     01AD                     u5101:
  4071     01AD  29BD               	goto	l3885
  4072     01AE                     u5100:
  4073     01AE                     l3879:
  4074     01AE  0A3B               	incf	___flmul@bexp,w
  4075     01AF  1D03               	btfss	3,2
  4076     01B0  29B2               	goto	u5111
  4077     01B1  29B3               	goto	u5110
  4078     01B2                     u5111:
  4079     01B2  29BB               	goto	l3883
  4080     01B3                     u5110:
  4081     01B3                     l3881:
  4082     01B3  3000               	movlw	0
  4083     01B4  00AB               	movwf	___flmul@b+3
  4084     01B5  3000               	movlw	0
  4085     01B6  00AA               	movwf	___flmul@b+2
  4086     01B7  3000               	movlw	0
  4087     01B8  00A9               	movwf	___flmul@b+1
  4088     01B9  3000               	movlw	0
  4089     01BA  00A8               	movwf	___flmul@b
  4090     01BB                     l3883:
  4091     01BB  17AA               	bsf	___flmul@b+2,7
  4092     01BC  29C5               	goto	l3887
  4093     01BD                     l3885:
  4094     01BD  3000               	movlw	0
  4095     01BE  00AB               	movwf	___flmul@b+3
  4096     01BF  3000               	movlw	0
  4097     01C0  00AA               	movwf	___flmul@b+2
  4098     01C1  3000               	movlw	0
  4099     01C2  00A9               	movwf	___flmul@b+1
  4100     01C3  3000               	movlw	0
  4101     01C4  00A8               	movwf	___flmul@b
  4102     01C5                     l3887:
  4103     01C5  082F               	movf	___flmul@a+3,w
  4104     01C6  3980               	andlw	128
  4105     01C7  00B0               	movwf	??___flmul
  4106     01C8  0830               	movf	??___flmul,w
  4107     01C9  06B5               	xorwf	___flmul@sign,f
  4108     01CA                     l3889:
  4109     01CA  352F               	lslf	___flmul@a+3,w
  4110     01CB  00BA               	movwf	___flmul@aexp
  4111     01CC                     l3891:
  4112     01CC  1FAE               	btfss	___flmul@a+2,7
  4113     01CD  29CF               	goto	u5121
  4114     01CE  29D0               	goto	u5120
  4115     01CF                     u5121:
  4116     01CF  29D1               	goto	l3895
  4117     01D0                     u5120:
  4118     01D0                     l3893:
  4119     01D0  143A               	bsf	___flmul@aexp,0
  4120     01D1                     l3895:
  4121     01D1  083A               	movf	___flmul@aexp,w
  4122     01D2  1903               	btfsc	3,2
  4123     01D3  29D5               	goto	u5131
  4124     01D4  29D6               	goto	u5130
  4125     01D5                     u5131:
  4126     01D5  29E5               	goto	l3903
  4127     01D6                     u5130:
  4128     01D6                     l3897:
  4129     01D6  0A3A               	incf	___flmul@aexp,w
  4130     01D7  1D03               	btfss	3,2
  4131     01D8  29DA               	goto	u5141
  4132     01D9  29DB               	goto	u5140
  4133     01DA                     u5141:
  4134     01DA  29E3               	goto	l3901
  4135     01DB                     u5140:
  4136     01DB                     l3899:
  4137     01DB  3000               	movlw	0
  4138     01DC  00AF               	movwf	___flmul@a+3
  4139     01DD  3000               	movlw	0
  4140     01DE  00AE               	movwf	___flmul@a+2
  4141     01DF  3000               	movlw	0
  4142     01E0  00AD               	movwf	___flmul@a+1
  4143     01E1  3000               	movlw	0
  4144     01E2  00AC               	movwf	___flmul@a
  4145     01E3                     l3901:
  4146     01E3  17AE               	bsf	___flmul@a+2,7
  4147     01E4  29ED               	goto	l3905
  4148     01E5                     l3903:
  4149     01E5  3000               	movlw	0
  4150     01E6  00AF               	movwf	___flmul@a+3
  4151     01E7  3000               	movlw	0
  4152     01E8  00AE               	movwf	___flmul@a+2
  4153     01E9  3000               	movlw	0
  4154     01EA  00AD               	movwf	___flmul@a+1
  4155     01EB  3000               	movlw	0
  4156     01EC  00AC               	movwf	___flmul@a
  4157     01ED                     l3905:
  4158     01ED  083A               	movf	___flmul@aexp,w
  4159     01EE  1903               	btfsc	3,2
  4160     01EF  29F1               	goto	u5151
  4161     01F0  29F2               	goto	u5150
  4162     01F1                     u5151:
  4163     01F1  29F7               	goto	l3909
  4164     01F2                     u5150:
  4165     01F2                     l3907:
  4166     01F2  083B               	movf	___flmul@bexp,w
  4167     01F3  1D03               	btfss	3,2
  4168     01F4  29F6               	goto	u5161
  4169     01F5  29F7               	goto	u5160
  4170     01F6                     u5161:
  4171     01F6  2A00               	goto	l3913
  4172     01F7                     u5160:
  4173     01F7                     l3909:
  4174     01F7  3000               	movlw	0
  4175     01F8  00AB               	movwf	?___flmul+3
  4176     01F9  3000               	movlw	0
  4177     01FA  00AA               	movwf	?___flmul+2
  4178     01FB  3000               	movlw	0
  4179     01FC  00A9               	movwf	?___flmul+1
  4180     01FD  3000               	movlw	0
  4181     01FE  00A8               	movwf	?___flmul
  4182     01FF  2BD8               	goto	l852
  4183     0200                     l3913:
  4184     0200  0828               	movf	___flmul@b,w
  4185     0201  00F0               	movwf	__Umul8_16@multiplicand
  4186     0202  082E               	movf	___flmul@a+2,w
  4187     0203  3192  2265  3181   	fcall	__Umul8_16
  4188     0206  0871               	movf	?__Umul8_16+1,w
  4189     0207  0020               	movlb	0	; select bank0
  4190     0208  00C1               	movwf	___flmul@temp+1
  4191     0209  0870               	movf	?__Umul8_16,w
  4192     020A  00C0               	movwf	___flmul@temp
  4193     020B                     l3915:
  4194     020B  0840               	movf	___flmul@temp,w
  4195     020C  00B0               	movwf	??___flmul
  4196     020D  01B1               	clrf	??___flmul+1
  4197     020E  01B2               	clrf	??___flmul+2
  4198     020F  01B3               	clrf	??___flmul+3
  4199     0210  0833               	movf	??___flmul+3,w
  4200     0211  00B9               	movwf	___flmul@grs+3
  4201     0212  0832               	movf	??___flmul+2,w
  4202     0213  00B8               	movwf	___flmul@grs+2
  4203     0214  0831               	movf	??___flmul+1,w
  4204     0215  00B7               	movwf	___flmul@grs+1
  4205     0216  0830               	movf	??___flmul,w
  4206     0217  00B6               	movwf	___flmul@grs
  4207     0218                     l3917:
  4208     0218  0841               	movf	___flmul@temp+1,w
  4209     0219  00B0               	movwf	??___flmul
  4210     021A  01B1               	clrf	??___flmul+1
  4211     021B  01B2               	clrf	??___flmul+2
  4212     021C  01B3               	clrf	??___flmul+3
  4213     021D  0833               	movf	??___flmul+3,w
  4214     021E  00BF               	movwf	___flmul@prod+3
  4215     021F  0832               	movf	??___flmul+2,w
  4216     0220  00BE               	movwf	___flmul@prod+2
  4217     0221  0831               	movf	??___flmul+1,w
  4218     0222  00BD               	movwf	___flmul@prod+1
  4219     0223  0830               	movf	??___flmul,w
  4220     0224  00BC               	movwf	___flmul@prod
  4221     0225  0829               	movf	___flmul@b+1,w
  4222     0226  00F0               	movwf	__Umul8_16@multiplicand
  4223     0227  082D               	movf	___flmul@a+1,w
  4224     0228  3192  2265  3181   	fcall	__Umul8_16
  4225     022B  0871               	movf	?__Umul8_16+1,w
  4226     022C  0020               	movlb	0	; select bank0
  4227     022D  00C1               	movwf	___flmul@temp+1
  4228     022E  0870               	movf	?__Umul8_16,w
  4229     022F  00C0               	movwf	___flmul@temp
  4230     0230                     l3919:
  4231     0230  0840               	movf	___flmul@temp,w
  4232     0231  00B0               	movwf	??___flmul
  4233     0232  01B1               	clrf	??___flmul+1
  4234     0233  01B2               	clrf	??___flmul+2
  4235     0234  01B3               	clrf	??___flmul+3
  4236     0235  0830               	movf	??___flmul,w
  4237     0236  07B6               	addwf	___flmul@grs,f
  4238     0237  0831               	movf	??___flmul+1,w
  4239     0238  3DB7               	addwfc	___flmul@grs+1,f
  4240     0239  0832               	movf	??___flmul+2,w
  4241     023A  3DB8               	addwfc	___flmul@grs+2,f
  4242     023B  0833               	movf	??___flmul+3,w
  4243     023C  3DB9               	addwfc	___flmul@grs+3,f
  4244     023D                     l3921:
  4245     023D  0841               	movf	___flmul@temp+1,w
  4246     023E  00B0               	movwf	??___flmul
  4247     023F  01B1               	clrf	??___flmul+1
  4248     0240  01B2               	clrf	??___flmul+2
  4249     0241  01B3               	clrf	??___flmul+3
  4250     0242  0830               	movf	??___flmul,w
  4251     0243  07BC               	addwf	___flmul@prod,f
  4252     0244  0831               	movf	??___flmul+1,w
  4253     0245  3DBD               	addwfc	___flmul@prod+1,f
  4254     0246  0832               	movf	??___flmul+2,w
  4255     0247  3DBE               	addwfc	___flmul@prod+2,f
  4256     0248  0833               	movf	??___flmul+3,w
  4257     0249  3DBF               	addwfc	___flmul@prod+3,f
  4258     024A  082A               	movf	___flmul@b+2,w
  4259     024B  00F0               	movwf	__Umul8_16@multiplicand
  4260     024C  082C               	movf	___flmul@a,w
  4261     024D  3192  2265  3181   	fcall	__Umul8_16
  4262     0250  0871               	movf	?__Umul8_16+1,w
  4263     0251  0020               	movlb	0	; select bank0
  4264     0252  00C1               	movwf	___flmul@temp+1
  4265     0253  0870               	movf	?__Umul8_16,w
  4266     0254  00C0               	movwf	___flmul@temp
  4267     0255                     l3923:
  4268     0255  0840               	movf	___flmul@temp,w
  4269     0256  00B0               	movwf	??___flmul
  4270     0257  01B1               	clrf	??___flmul+1
  4271     0258  01B2               	clrf	??___flmul+2
  4272     0259  01B3               	clrf	??___flmul+3
  4273     025A  0830               	movf	??___flmul,w
  4274     025B  07B6               	addwf	___flmul@grs,f
  4275     025C  0831               	movf	??___flmul+1,w
  4276     025D  3DB7               	addwfc	___flmul@grs+1,f
  4277     025E  0832               	movf	??___flmul+2,w
  4278     025F  3DB8               	addwfc	___flmul@grs+2,f
  4279     0260  0833               	movf	??___flmul+3,w
  4280     0261  3DB9               	addwfc	___flmul@grs+3,f
  4281     0262                     l3925:
  4282     0262  0841               	movf	___flmul@temp+1,w
  4283     0263  00B0               	movwf	??___flmul
  4284     0264  01B1               	clrf	??___flmul+1
  4285     0265  01B2               	clrf	??___flmul+2
  4286     0266  01B3               	clrf	??___flmul+3
  4287     0267  0830               	movf	??___flmul,w
  4288     0268  07BC               	addwf	___flmul@prod,f
  4289     0269  0831               	movf	??___flmul+1,w
  4290     026A  3DBD               	addwfc	___flmul@prod+1,f
  4291     026B  0832               	movf	??___flmul+2,w
  4292     026C  3DBE               	addwfc	___flmul@prod+2,f
  4293     026D  0833               	movf	??___flmul+3,w
  4294     026E  3DBF               	addwfc	___flmul@prod+3,f
  4295     026F                     l3927:
  4296     026F  3008               	movlw	8
  4297     0270                     u5175:
  4298     0270  35B6               	lslf	___flmul@grs,f
  4299     0271  0DB7               	rlf	___flmul@grs+1,f
  4300     0272  0DB8               	rlf	___flmul@grs+2,f
  4301     0273  0DB9               	rlf	___flmul@grs+3,f
  4302     0274  0B89               	decfsz	9,f
  4303     0275  2A70               	goto	u5175
  4304     0276                     l3929:
  4305     0276  0829               	movf	___flmul@b+1,w
  4306     0277  00F0               	movwf	__Umul8_16@multiplicand
  4307     0278  082C               	movf	___flmul@a,w
  4308     0279  3192  2265  3181   	fcall	__Umul8_16
  4309     027C  0871               	movf	?__Umul8_16+1,w
  4310     027D  0020               	movlb	0	; select bank0
  4311     027E  00C1               	movwf	___flmul@temp+1
  4312     027F  0870               	movf	?__Umul8_16,w
  4313     0280  00C0               	movwf	___flmul@temp
  4314     0281                     l3931:
  4315     0281  0840               	movf	___flmul@temp,w
  4316     0282  07B6               	addwf	___flmul@grs,f
  4317     0283  0841               	movf	___flmul@temp+1,w
  4318     0284  3DB7               	addwfc	___flmul@grs+1,f
  4319     0285  3000               	movlw	0
  4320     0286  3DB8               	addwfc	___flmul@grs+2,f
  4321     0287  3DB9               	addwfc	___flmul@grs+3,f
  4322     0288                     l3933:
  4323     0288  0828               	movf	___flmul@b,w
  4324     0289  00F0               	movwf	__Umul8_16@multiplicand
  4325     028A  082D               	movf	___flmul@a+1,w
  4326     028B  3192  2265  3181   	fcall	__Umul8_16
  4327     028E  0871               	movf	?__Umul8_16+1,w
  4328     028F  0020               	movlb	0	; select bank0
  4329     0290  00C1               	movwf	___flmul@temp+1
  4330     0291  0870               	movf	?__Umul8_16,w
  4331     0292  00C0               	movwf	___flmul@temp
  4332     0293                     l3935:
  4333     0293  0840               	movf	___flmul@temp,w
  4334     0294  07B6               	addwf	___flmul@grs,f
  4335     0295  0841               	movf	___flmul@temp+1,w
  4336     0296  3DB7               	addwfc	___flmul@grs+1,f
  4337     0297  3000               	movlw	0
  4338     0298  3DB8               	addwfc	___flmul@grs+2,f
  4339     0299  3DB9               	addwfc	___flmul@grs+3,f
  4340     029A                     l3937:
  4341     029A  3008               	movlw	8
  4342     029B                     u5185:
  4343     029B  35B6               	lslf	___flmul@grs,f
  4344     029C  0DB7               	rlf	___flmul@grs+1,f
  4345     029D  0DB8               	rlf	___flmul@grs+2,f
  4346     029E  0DB9               	rlf	___flmul@grs+3,f
  4347     029F  0B89               	decfsz	9,f
  4348     02A0  2A9B               	goto	u5185
  4349     02A1  0828               	movf	___flmul@b,w
  4350     02A2  00F0               	movwf	__Umul8_16@multiplicand
  4351     02A3  082C               	movf	___flmul@a,w
  4352     02A4  3192  2265  3181   	fcall	__Umul8_16
  4353     02A7  0871               	movf	?__Umul8_16+1,w
  4354     02A8  0020               	movlb	0	; select bank0
  4355     02A9  00C1               	movwf	___flmul@temp+1
  4356     02AA  0870               	movf	?__Umul8_16,w
  4357     02AB  00C0               	movwf	___flmul@temp
  4358     02AC                     l3939:
  4359     02AC  0840               	movf	___flmul@temp,w
  4360     02AD  07B6               	addwf	___flmul@grs,f
  4361     02AE  0841               	movf	___flmul@temp+1,w
  4362     02AF  3DB7               	addwfc	___flmul@grs+1,f
  4363     02B0  3000               	movlw	0
  4364     02B1  3DB8               	addwfc	___flmul@grs+2,f
  4365     02B2  3DB9               	addwfc	___flmul@grs+3,f
  4366     02B3                     l3941:
  4367     02B3  0829               	movf	___flmul@b+1,w
  4368     02B4  00F0               	movwf	__Umul8_16@multiplicand
  4369     02B5  082E               	movf	___flmul@a+2,w
  4370     02B6  3192  2265  3181   	fcall	__Umul8_16
  4371     02B9  0871               	movf	?__Umul8_16+1,w
  4372     02BA  0020               	movlb	0	; select bank0
  4373     02BB  00C1               	movwf	___flmul@temp+1
  4374     02BC  0870               	movf	?__Umul8_16,w
  4375     02BD  00C0               	movwf	___flmul@temp
  4376     02BE  0840               	movf	___flmul@temp,w
  4377     02BF  07BC               	addwf	___flmul@prod,f
  4378     02C0  0841               	movf	___flmul@temp+1,w
  4379     02C1  3DBD               	addwfc	___flmul@prod+1,f
  4380     02C2  3000               	movlw	0
  4381     02C3  3DBE               	addwfc	___flmul@prod+2,f
  4382     02C4  3DBF               	addwfc	___flmul@prod+3,f
  4383     02C5                     l3943:
  4384     02C5  082A               	movf	___flmul@b+2,w
  4385     02C6  00F0               	movwf	__Umul8_16@multiplicand
  4386     02C7  082D               	movf	___flmul@a+1,w
  4387     02C8  3192  2265  3181   	fcall	__Umul8_16
  4388     02CB  0871               	movf	?__Umul8_16+1,w
  4389     02CC  0020               	movlb	0	; select bank0
  4390     02CD  00C1               	movwf	___flmul@temp+1
  4391     02CE  0870               	movf	?__Umul8_16,w
  4392     02CF  00C0               	movwf	___flmul@temp
  4393     02D0                     l3945:
  4394     02D0  0840               	movf	___flmul@temp,w
  4395     02D1  07BC               	addwf	___flmul@prod,f
  4396     02D2  0841               	movf	___flmul@temp+1,w
  4397     02D3  3DBD               	addwfc	___flmul@prod+1,f
  4398     02D4  3000               	movlw	0
  4399     02D5  3DBE               	addwfc	___flmul@prod+2,f
  4400     02D6  3DBF               	addwfc	___flmul@prod+3,f
  4401     02D7  082A               	movf	___flmul@b+2,w
  4402     02D8  00F0               	movwf	__Umul8_16@multiplicand
  4403     02D9  082E               	movf	___flmul@a+2,w
  4404     02DA  3192  2265  3181   	fcall	__Umul8_16
  4405     02DD  0871               	movf	?__Umul8_16+1,w
  4406     02DE  0020               	movlb	0	; select bank0
  4407     02DF  00C1               	movwf	___flmul@temp+1
  4408     02E0  0870               	movf	?__Umul8_16,w
  4409     02E1  00C0               	movwf	___flmul@temp
  4410     02E2                     l3947:
  4411     02E2  0840               	movf	___flmul@temp,w
  4412     02E3  00B0               	movwf	??___flmul
  4413     02E4  0841               	movf	___flmul@temp+1,w
  4414     02E5  00B1               	movwf	??___flmul+1
  4415     02E6  01B2               	clrf	??___flmul+2
  4416     02E7  01B3               	clrf	??___flmul+3
  4417     02E8  3008               	movlw	8
  4418     02E9                     u5195:
  4419     02E9  35B0               	lslf	??___flmul,f
  4420     02EA  0DB1               	rlf	??___flmul+1,f
  4421     02EB  0DB2               	rlf	??___flmul+2,f
  4422     02EC  0DB3               	rlf	??___flmul+3,f
  4423     02ED                     u5190:
  4424     02ED  0B89               	decfsz	9,f
  4425     02EE  2AE9               	goto	u5195
  4426     02EF  0830               	movf	??___flmul,w
  4427     02F0  07BC               	addwf	___flmul@prod,f
  4428     02F1  0831               	movf	??___flmul+1,w
  4429     02F2  3DBD               	addwfc	___flmul@prod+1,f
  4430     02F3  0832               	movf	??___flmul+2,w
  4431     02F4  3DBE               	addwfc	___flmul@prod+2,f
  4432     02F5  0833               	movf	??___flmul+3,w
  4433     02F6  3DBF               	addwfc	___flmul@prod+3,f
  4434     02F7                     l3949:
  4435     02F7  0836               	movf	___flmul@grs,w
  4436     02F8  00B0               	movwf	??___flmul
  4437     02F9  0837               	movf	___flmul@grs+1,w
  4438     02FA  00B1               	movwf	??___flmul+1
  4439     02FB  0838               	movf	___flmul@grs+2,w
  4440     02FC  00B2               	movwf	??___flmul+2
  4441     02FD  0839               	movf	___flmul@grs+3,w
  4442     02FE  00B3               	movwf	??___flmul+3
  4443     02FF  3018               	movlw	24
  4444     0300                     u5205:
  4445     0300  36B3               	lsrf	??___flmul+3,f
  4446     0301  0CB2               	rrf	??___flmul+2,f
  4447     0302  0CB1               	rrf	??___flmul+1,f
  4448     0303  0CB0               	rrf	??___flmul,f
  4449     0304                     u5200:
  4450     0304  0B89               	decfsz	9,f
  4451     0305  2B00               	goto	u5205
  4452     0306  0830               	movf	??___flmul,w
  4453     0307  07BC               	addwf	___flmul@prod,f
  4454     0308  0831               	movf	??___flmul+1,w
  4455     0309  3DBD               	addwfc	___flmul@prod+1,f
  4456     030A  0832               	movf	??___flmul+2,w
  4457     030B  3DBE               	addwfc	___flmul@prod+2,f
  4458     030C  0833               	movf	??___flmul+3,w
  4459     030D  3DBF               	addwfc	___flmul@prod+3,f
  4460     030E                     l3951:
  4461     030E  3008               	movlw	8
  4462     030F                     u5215:
  4463     030F  35B6               	lslf	___flmul@grs,f
  4464     0310  0DB7               	rlf	___flmul@grs+1,f
  4465     0311  0DB8               	rlf	___flmul@grs+2,f
  4466     0312  0DB9               	rlf	___flmul@grs+3,f
  4467     0313  0B89               	decfsz	9,f
  4468     0314  2B0F               	goto	u5215
  4469     0315                     l3953:
  4470     0315  083B               	movf	___flmul@bexp,w
  4471     0316  073A               	addwf	___flmul@aexp,w
  4472     0317  00B0               	movwf	??___flmul
  4473     0318  01B1               	clrf	??___flmul+1
  4474     0319  0DB1               	rlf	??___flmul+1,f
  4475     031A  0830               	movf	??___flmul,w
  4476     031B  3E82               	addlw	130
  4477     031C  00C0               	movwf	___flmul@temp
  4478     031D  30FF               	movlw	255
  4479     031E  3D31               	addwfc	??___flmul+1,w
  4480     031F  00C1               	movwf	___flmul@temp+1
  4481     0320  2B38               	goto	l3965
  4482     0321                     l3955:
  4483     0321  3001               	movlw	1
  4484     0322                     u5225:
  4485     0322  35BC               	lslf	___flmul@prod,f
  4486     0323  0DBD               	rlf	___flmul@prod+1,f
  4487     0324  0DBE               	rlf	___flmul@prod+2,f
  4488     0325  0DBF               	rlf	___flmul@prod+3,f
  4489     0326  0B89               	decfsz	9,f
  4490     0327  2B22               	goto	u5225
  4491     0328                     l3957:
  4492     0328  1FB9               	btfss	___flmul@grs+3,7
  4493     0329  2B2B               	goto	u5231
  4494     032A  2B2C               	goto	u5230
  4495     032B                     u5231:
  4496     032B  2B2D               	goto	l3961
  4497     032C                     u5230:
  4498     032C                     l3959:
  4499     032C  143C               	bsf	___flmul@prod,0
  4500     032D                     l3961:
  4501     032D  3001               	movlw	1
  4502     032E                     u5245:
  4503     032E  35B6               	lslf	___flmul@grs,f
  4504     032F  0DB7               	rlf	___flmul@grs+1,f
  4505     0330  0DB8               	rlf	___flmul@grs+2,f
  4506     0331  0DB9               	rlf	___flmul@grs+3,f
  4507     0332  0B89               	decfsz	9,f
  4508     0333  2B2E               	goto	u5245
  4509     0334                     l3963:
  4510     0334  30FF               	movlw	255
  4511     0335  07C0               	addwf	___flmul@temp,f
  4512     0336  30FF               	movlw	255
  4513     0337  3DC1               	addwfc	___flmul@temp+1,f
  4514     0338                     l3965:
  4515     0338  1FBE               	btfss	___flmul@prod+2,7
  4516     0339  2B3B               	goto	u5251
  4517     033A  2B3C               	goto	u5250
  4518     033B                     u5251:
  4519     033B  2B21               	goto	l3955
  4520     033C                     u5250:
  4521     033C                     l3967:
  4522     033C  01BA               	clrf	___flmul@aexp
  4523     033D                     l3969:
  4524     033D  1FB9               	btfss	___flmul@grs+3,7
  4525     033E  2B40               	goto	u5261
  4526     033F  2B41               	goto	u5260
  4527     0340                     u5261:
  4528     0340  2B5D               	goto	l3977
  4529     0341                     u5260:
  4530     0341                     l3971:
  4531     0341  30FF               	movlw	255
  4532     0342  0536               	andwf	___flmul@grs,w
  4533     0343  00B0               	movwf	??___flmul
  4534     0344  30FF               	movlw	255
  4535     0345  0537               	andwf	___flmul@grs+1,w
  4536     0346  00B1               	movwf	??___flmul+1
  4537     0347  30FF               	movlw	255
  4538     0348  0538               	andwf	___flmul@grs+2,w
  4539     0349  00B2               	movwf	??___flmul+2
  4540     034A  307F               	movlw	127
  4541     034B  0539               	andwf	___flmul@grs+3,w
  4542     034C  00B3               	movwf	??___flmul+3
  4543     034D  0833               	movf	??___flmul+3,w
  4544     034E  0432               	iorwf	??___flmul+2,w
  4545     034F  0431               	iorwf	??___flmul+1,w
  4546     0350  0430               	iorwf	??___flmul,w
  4547     0351  1903               	skipnz
  4548     0352  2B54               	goto	u5271
  4549     0353  2B55               	goto	u5270
  4550     0354                     u5271:
  4551     0354  2B58               	goto	l858
  4552     0355                     u5270:
  4553     0355                     l3973:
  4554     0355  01BA               	clrf	___flmul@aexp
  4555     0356  0ABA               	incf	___flmul@aexp,f
  4556     0357  2B5D               	goto	l3977
  4557     0358                     l858:
  4558     0358  1C3C               	btfss	___flmul@prod,0
  4559     0359  2B5B               	goto	u5281
  4560     035A  2B5C               	goto	u5280
  4561     035B                     u5281:
  4562     035B  2B5D               	goto	l3977
  4563     035C                     u5280:
  4564     035C  2B55               	goto	l3973
  4565     035D                     l3977:
  4566     035D  083A               	movf	___flmul@aexp,w
  4567     035E  1903               	btfsc	3,2
  4568     035F  2B61               	goto	u5291
  4569     0360  2B62               	goto	u5290
  4570     0361                     u5291:
  4571     0361  2B8A               	goto	l3987
  4572     0362                     u5290:
  4573     0362                     l3979:
  4574     0362  3001               	movlw	1
  4575     0363  07BC               	addwf	___flmul@prod,f
  4576     0364  3000               	movlw	0
  4577     0365  3DBD               	addwfc	___flmul@prod+1,f
  4578     0366  3000               	movlw	0
  4579     0367  3DBE               	addwfc	___flmul@prod+2,f
  4580     0368  3000               	movlw	0
  4581     0369  3DBF               	addwfc	___flmul@prod+3,f
  4582     036A                     l3981:
  4583     036A  1C3F               	btfss	___flmul@prod+3,0
  4584     036B  2B6D               	goto	u5301
  4585     036C  2B6E               	goto	u5300
  4586     036D                     u5301:
  4587     036D  2B8A               	goto	l3987
  4588     036E                     u5300:
  4589     036E                     l3983:
  4590     036E  083C               	movf	___flmul@prod,w
  4591     036F  00B0               	movwf	??___flmul
  4592     0370  083D               	movf	___flmul@prod+1,w
  4593     0371  00B1               	movwf	??___flmul+1
  4594     0372  083E               	movf	___flmul@prod+2,w
  4595     0373  00B2               	movwf	??___flmul+2
  4596     0374  083F               	movf	___flmul@prod+3,w
  4597     0375  00B3               	movwf	??___flmul+3
  4598     0376  3001               	movlw	1
  4599     0377  00B4               	movwf	??___flmul+4
  4600     0378                     u5315:
  4601     0378  37B3               	asrf	??___flmul+3,f
  4602     0379  0CB2               	rrf	??___flmul+2,f
  4603     037A  0CB1               	rrf	??___flmul+1,f
  4604     037B  0CB0               	rrf	??___flmul,f
  4605     037C                     u5310:
  4606     037C  0BB4               	decfsz	??___flmul+4,f
  4607     037D  2B78               	goto	u5315
  4608     037E  0833               	movf	??___flmul+3,w
  4609     037F  00BF               	movwf	___flmul@prod+3
  4610     0380  0832               	movf	??___flmul+2,w
  4611     0381  00BE               	movwf	___flmul@prod+2
  4612     0382  0831               	movf	??___flmul+1,w
  4613     0383  00BD               	movwf	___flmul@prod+1
  4614     0384  0830               	movf	??___flmul,w
  4615     0385  00BC               	movwf	___flmul@prod
  4616     0386                     l3985:
  4617     0386  3001               	movlw	1
  4618     0387  07C0               	addwf	___flmul@temp,f
  4619     0388  3000               	movlw	0
  4620     0389  3DC1               	addwfc	___flmul@temp+1,f
  4621     038A                     l3987:
  4622     038A  0841               	movf	___flmul@temp+1,w
  4623     038B  3A80               	xorlw	128
  4624     038C  00B0               	movwf	??___flmul
  4625     038D  3080               	movlw	128
  4626     038E  0230               	subwf	??___flmul,w
  4627     038F  1D03               	skipz
  4628     0390  2B93               	goto	u5325
  4629     0391  30FF               	movlw	255
  4630     0392  0240               	subwf	___flmul@temp,w
  4631     0393                     u5325:
  4632     0393  1C03               	skipc
  4633     0394  2B96               	goto	u5321
  4634     0395  2B97               	goto	u5320
  4635     0396                     u5321:
  4636     0396  2BA1               	goto	l3991
  4637     0397                     u5320:
  4638     0397                     l3989:
  4639     0397  307F               	movlw	127
  4640     0398  0020               	movlb	0	; select bank0
  4641     0399  00BF               	movwf	___flmul@prod+3
  4642     039A  3080               	movlw	128
  4643     039B  00BE               	movwf	___flmul@prod+2
  4644     039C  3000               	movlw	0
  4645     039D  00BD               	movwf	___flmul@prod+1
  4646     039E  3000               	movlw	0
  4647     039F  00BC               	movwf	___flmul@prod
  4648     03A0  2BCC               	goto	l864
  4649     03A1                     l3991:
  4650     03A1  0020               	movlb	0	; select bank0
  4651     03A2  0841               	movf	___flmul@temp+1,w
  4652     03A3  3A80               	xorlw	128
  4653     03A4  00B0               	movwf	??___flmul
  4654     03A5  3080               	movlw	128
  4655     03A6  0230               	subwf	??___flmul,w
  4656     03A7  1D03               	skipz
  4657     03A8  2BAB               	goto	u5335
  4658     03A9  3001               	movlw	1
  4659     03AA  0240               	subwf	___flmul@temp,w
  4660     03AB                     u5335:
  4661     03AB  1803               	skipnc
  4662     03AC  2BAE               	goto	u5331
  4663     03AD  2BAF               	goto	u5330
  4664     03AE                     u5331:
  4665     03AE  2BBA               	goto	l3997
  4666     03AF                     u5330:
  4667     03AF                     l3993:
  4668     03AF  3000               	movlw	0
  4669     03B0  0020               	movlb	0	; select bank0
  4670     03B1  00BF               	movwf	___flmul@prod+3
  4671     03B2  3000               	movlw	0
  4672     03B3  00BE               	movwf	___flmul@prod+2
  4673     03B4  3000               	movlw	0
  4674     03B5  00BD               	movwf	___flmul@prod+1
  4675     03B6  3000               	movlw	0
  4676     03B7  00BC               	movwf	___flmul@prod
  4677     03B8                     l3995:
  4678     03B8  01B5               	clrf	___flmul@sign
  4679     03B9  2BCC               	goto	l864
  4680     03BA                     l3997:
  4681     03BA  0020               	movlb	0	; select bank0
  4682     03BB  0840               	movf	___flmul@temp,w
  4683     03BC  00BB               	movwf	___flmul@bexp
  4684     03BD  30FF               	movlw	255
  4685     03BE  05BC               	andwf	___flmul@prod,f
  4686     03BF  30FF               	movlw	255
  4687     03C0  05BD               	andwf	___flmul@prod+1,f
  4688     03C1  307F               	movlw	127
  4689     03C2  05BE               	andwf	___flmul@prod+2,f
  4690     03C3  3000               	movlw	0
  4691     03C4  05BF               	andwf	___flmul@prod+3,f
  4692     03C5                     l3999:
  4693     03C5  1C3B               	btfss	___flmul@bexp,0
  4694     03C6  2BC8               	goto	u5341
  4695     03C7  2BC9               	goto	u5340
  4696     03C8                     u5341:
  4697     03C8  2BCA               	goto	l4003
  4698     03C9                     u5340:
  4699     03C9                     l4001:
  4700     03C9  17BE               	bsf	___flmul@prod+2,7
  4701     03CA                     l4003:
  4702     03CA  363B               	lsrf	___flmul@bexp,w
  4703     03CB  00BF               	movwf	___flmul@prod+3
  4704     03CC                     l864:
  4705     03CC  0835               	movf	___flmul@sign,w
  4706     03CD  00B0               	movwf	??___flmul
  4707     03CE  0830               	movf	??___flmul,w
  4708     03CF  04BF               	iorwf	___flmul@prod+3,f
  4709     03D0                     l4005:
  4710     03D0  083F               	movf	___flmul@prod+3,w
  4711     03D1  00AB               	movwf	?___flmul+3
  4712     03D2  083E               	movf	___flmul@prod+2,w
  4713     03D3  00AA               	movwf	?___flmul+2
  4714     03D4  083D               	movf	___flmul@prod+1,w
  4715     03D5  00A9               	movwf	?___flmul+1
  4716     03D6  083C               	movf	___flmul@prod,w
  4717     03D7  00A8               	movwf	?___flmul
  4718     03D8                     l852:
  4719     03D8  0008               	return
  4720     03D9                     __end_of___flmul:
  4721                           
  4722                           	psect	text7
  4723     1265                     __ptext7:	
  4724 ;; *************** function __Umul8_16 *****************
  4725 ;; Defined at:
  4726 ;;		line 4 in file "C:\Program Files\Microchip\xc8\v2.46\pic\sources\c99\common\Umul8_16.c"
  4727 ;; Parameters:    Size  Location     Type
  4728 ;;  multiplier      1    wreg     unsigned char 
  4729 ;;  multiplicand    1    0[COMMON] unsigned char 
  4730 ;; Auto vars:     Size  Location     Type
  4731 ;;  multiplier      1    8[COMMON] unsigned char 
  4732 ;;  word_mpld       2    6[COMMON] unsigned short 
  4733 ;;  product         2    4[COMMON] unsigned short 
  4734 ;; Return value:  Size  Location     Type
  4735 ;;                  2    0[COMMON] unsigned int 
  4736 ;; Registers used:
  4737 ;;		wreg, status,2, status,0
  4738 ;; Tracked objects:
  4739 ;;		On entry : 0/0
  4740 ;;		On exit  : 0/0
  4741 ;;		Unchanged: 0/0
  4742 ;; Data sizes:     COMMON   BANK0   BANK1   BANK2   BANK3   BANK4   BANK5   BANK6   BANK7   BANK8   BANK9  BANK10  BANK1
      +1  BANK12  BANK13  BANK14  BANK15  BANK16  BANK17  BANK18  BANK19  BANK20  BANK21  BANK22  BANK23  BANK24  BANK25
  4743 ;;      Params:         2       0       0       0       0       0       0       0       0       0       0       0       
      +0       0       0       0       0       0       0       0       0       0       0       0       0       0       0
  4744 ;;      Locals:         5       0       0       0       0       0       0       0       0       0       0       0       
      +0       0       0       0       0       0       0       0       0       0       0       0       0       0       0
  4745 ;;      Temps:          2       0       0       0       0       0       0       0       0       0       0       0       
      +0       0       0       0       0       0       0       0       0       0       0       0       0       0       0
  4746 ;;      Totals:         9       0       0       0       0       0       0       0       0       0       0       0       
      +0       0       0       0       0       0       0       0       0       0       0       0       0       0       0
  4747 ;;Total ram usage:        9 bytes
  4748 ;; Hardware stack levels used: 1
  4749 ;; This function calls:
  4750 ;;		Nothing
  4751 ;; This function is called by:
  4752 ;;		___flmul
  4753 ;; This function uses a non-reentrant model
  4754 ;;
  4755                           
  4756     1265                     __Umul8_16:	
  4757                           ;psect for function __Umul8_16
  4758                           
  4759                           
  4760                           ;incstack = 0
  4761                           ; Regs used in __Umul8_16: [wreg+status,2+status,0]
  4762                           ;__Umul8_16@multiplier stored from wreg
  4763     1265  00F8               	movwf	__Umul8_16@multiplier
  4764     1266                     l3081:
  4765     1266  01F4               	clrf	__Umul8_16@product
  4766     1267  01F5               	clrf	__Umul8_16@product+1
  4767     1268                     l3083:
  4768     1268  0870               	movf	__Umul8_16@multiplicand,w
  4769     1269  00F2               	movwf	??__Umul8_16
  4770     126A  01F3               	clrf	??__Umul8_16+1
  4771     126B  0872               	movf	??__Umul8_16,w
  4772     126C  00F6               	movwf	__Umul8_16@word_mpld
  4773     126D  0873               	movf	??__Umul8_16+1,w
  4774     126E  00F7               	movwf	__Umul8_16@word_mpld+1
  4775     126F                     l3085:
  4776     126F  1C78               	btfss	__Umul8_16@multiplier,0
  4777     1270  2A72               	goto	u3851
  4778     1271  2A73               	goto	u3850
  4779     1272                     u3851:
  4780     1272  2A77               	goto	l871
  4781     1273                     u3850:
  4782     1273                     l3087:
  4783     1273  0876               	movf	__Umul8_16@word_mpld,w
  4784     1274  07F4               	addwf	__Umul8_16@product,f
  4785     1275  0877               	movf	__Umul8_16@word_mpld+1,w
  4786     1276  3DF5               	addwfc	__Umul8_16@product+1,f
  4787     1277                     l871:
  4788     1277  3001               	movlw	1
  4789     1278                     u3865:
  4790     1278  35F6               	lslf	__Umul8_16@word_mpld,f
  4791     1279  0DF7               	rlf	__Umul8_16@word_mpld+1,f
  4792     127A  0B89               	decfsz	9,f
  4793     127B  2A78               	goto	u3865
  4794     127C  1003               	clrc
  4795     127D  0CF8               	rrf	__Umul8_16@multiplier,f
  4796     127E                     l3089:
  4797     127E  0878               	movf	__Umul8_16@multiplier,w
  4798     127F  1D03               	btfss	3,2
  4799     1280  2A82               	goto	u3871
  4800     1281  2A83               	goto	u3870
  4801     1282                     u3871:
  4802     1282  2A6F               	goto	l3085
  4803     1283                     u3870:
  4804     1283                     l3091:
  4805     1283  0875               	movf	__Umul8_16@product+1,w
  4806     1284  00F1               	movwf	?__Umul8_16+1
  4807     1285  0874               	movf	__Umul8_16@product,w
  4808     1286  00F0               	movwf	?__Umul8_16
  4809     1287                     l873:
  4810     1287  0008               	return
  4811     1288                     __end_of__Umul8_16:
  4812                           
  4813                           	psect	text8
  4814     0C4A                     __ptext8:	
  4815 ;; *************** function ___fldiv *****************
  4816 ;; Defined at:
  4817 ;;		line 8 in file "C:\Program Files\Microchip\xc8\v2.46\pic\sources\c99\common\sprcdiv.c"
  4818 ;; Parameters:    Size  Location     Type
  4819 ;;  a               4   34[BANK0 ] unsigned int 
  4820 ;;  b               4   38[BANK0 ] unsigned int 
  4821 ;; Auto vars:     Size  Location     Type
  4822 ;;  grs             4   54[BANK0 ] unsigned long 
  4823 ;;  rem             4   47[BANK0 ] unsigned long 
  4824 ;;  new_exp         2   52[BANK0 ] short 
  4825 ;;  aexp            1   59[BANK0 ] unsigned char 
  4826 ;;  bexp            1   58[BANK0 ] unsigned char 
  4827 ;;  sign            1   51[BANK0 ] unsigned char 
  4828 ;; Return value:  Size  Location     Type
  4829 ;;                  4   34[BANK0 ] unsigned char 
  4830 ;; Registers used:
  4831 ;;		wreg, status,2, status,0
  4832 ;; Tracked objects:
  4833 ;;		On entry : 0/0
  4834 ;;		On exit  : 0/0
  4835 ;;		Unchanged: 0/0
  4836 ;; Data sizes:     COMMON   BANK0   BANK1   BANK2   BANK3   BANK4   BANK5   BANK6   BANK7   BANK8   BANK9  BANK10  BANK1
      +1  BANK12  BANK13  BANK14  BANK15  BANK16  BANK17  BANK18  BANK19  BANK20  BANK21  BANK22  BANK23  BANK24  BANK25
  4837 ;;      Params:         0       8       0       0       0       0       0       0       0       0       0       0       
      +0       0       0       0       0       0       0       0       0       0       0       0       0       0       0
  4838 ;;      Locals:         0      13       0       0       0       0       0       0       0       0       0       0       
      +0       0       0       0       0       0       0       0       0       0       0       0       0       0       0
  4839 ;;      Temps:          0       5       0       0       0       0       0       0       0       0       0       0       
      +0       0       0       0       0       0       0       0       0       0       0       0       0       0       0
  4840 ;;      Totals:         0      26       0       0       0       0       0       0       0       0       0       0       
      +0       0       0       0       0       0       0       0       0       0       0       0       0       0       0
  4841 ;;Total ram usage:       26 bytes
  4842 ;; Hardware stack levels used: 1
  4843 ;; This function calls:
  4844 ;;		Nothing
  4845 ;; This function is called by:
  4846 ;;		_main
  4847 ;; This function uses a non-reentrant model
  4848 ;;
  4849                           
  4850     0C4A                     ___fldiv:	
  4851                           ;psect for function ___fldiv
  4852                           
  4853     0C4A                     l3729:	
  4854                           ;incstack = 0
  4855                           ; Regs used in ___fldiv: [wreg+status,2+status,0]
  4856                           
  4857     0C4A  0020               	movlb	0	; select bank0
  4858     0C4B  0849               	movf	___fldiv@b+3,w
  4859     0C4C  3980               	andlw	128
  4860     0C4D  00D3               	movwf	___fldiv@sign
  4861     0C4E                     l3731:
  4862     0C4E  3549               	lslf	___fldiv@b+3,w
  4863     0C4F  00DA               	movwf	___fldiv@bexp
  4864     0C50                     l3733:
  4865     0C50  1FC8               	btfss	___fldiv@b+2,7
  4866     0C51  2C53               	goto	u4801
  4867     0C52  2C54               	goto	u4800
  4868     0C53                     u4801:
  4869     0C53  2C55               	goto	l3737
  4870     0C54                     u4800:
  4871     0C54                     l3735:
  4872     0C54  145A               	bsf	___fldiv@bexp,0
  4873     0C55                     l3737:
  4874     0C55  085A               	movf	___fldiv@bexp,w
  4875     0C56  1903               	btfsc	3,2
  4876     0C57  2C59               	goto	u4811
  4877     0C58  2C5A               	goto	u4810
  4878     0C59                     u4811:
  4879     0C59  2C6A               	goto	l3747
  4880     0C5A                     u4810:
  4881     0C5A                     l3739:
  4882     0C5A  0A5A               	incf	___fldiv@bexp,w
  4883     0C5B  1D03               	btfss	3,2
  4884     0C5C  2C5E               	goto	u4821
  4885     0C5D  2C5F               	goto	u4820
  4886     0C5E                     u4821:
  4887     0C5E  2C67               	goto	l3743
  4888     0C5F                     u4820:
  4889     0C5F                     l3741:
  4890     0C5F  3000               	movlw	0
  4891     0C60  00C9               	movwf	___fldiv@b+3
  4892     0C61  3000               	movlw	0
  4893     0C62  00C8               	movwf	___fldiv@b+2
  4894     0C63  3000               	movlw	0
  4895     0C64  00C7               	movwf	___fldiv@b+1
  4896     0C65  3000               	movlw	0
  4897     0C66  00C6               	movwf	___fldiv@b
  4898     0C67                     l3743:
  4899     0C67  17C8               	bsf	___fldiv@b+2,7
  4900     0C68                     l3745:
  4901     0C68  01C9               	clrf	___fldiv@b+3
  4902     0C69  2C72               	goto	l3749
  4903     0C6A                     l3747:
  4904     0C6A  3000               	movlw	0
  4905     0C6B  00C9               	movwf	___fldiv@b+3
  4906     0C6C  3000               	movlw	0
  4907     0C6D  00C8               	movwf	___fldiv@b+2
  4908     0C6E  3000               	movlw	0
  4909     0C6F  00C7               	movwf	___fldiv@b+1
  4910     0C70  3000               	movlw	0
  4911     0C71  00C6               	movwf	___fldiv@b
  4912     0C72                     l3749:
  4913     0C72  0845               	movf	___fldiv@a+3,w
  4914     0C73  3980               	andlw	128
  4915     0C74  00CA               	movwf	??___fldiv
  4916     0C75  084A               	movf	??___fldiv,w
  4917     0C76  06D3               	xorwf	___fldiv@sign,f
  4918     0C77                     l3751:
  4919     0C77  3545               	lslf	___fldiv@a+3,w
  4920     0C78  00DB               	movwf	___fldiv@aexp
  4921     0C79                     l3753:
  4922     0C79  1FC4               	btfss	___fldiv@a+2,7
  4923     0C7A  2C7C               	goto	u4831
  4924     0C7B  2C7D               	goto	u4830
  4925     0C7C                     u4831:
  4926     0C7C  2C7E               	goto	l3757
  4927     0C7D                     u4830:
  4928     0C7D                     l3755:
  4929     0C7D  145B               	bsf	___fldiv@aexp,0
  4930     0C7E                     l3757:
  4931     0C7E  085B               	movf	___fldiv@aexp,w
  4932     0C7F  1903               	btfsc	3,2
  4933     0C80  2C82               	goto	u4841
  4934     0C81  2C83               	goto	u4840
  4935     0C82                     u4841:
  4936     0C82  2C93               	goto	l3767
  4937     0C83                     u4840:
  4938     0C83                     l3759:
  4939     0C83  0A5B               	incf	___fldiv@aexp,w
  4940     0C84  1D03               	btfss	3,2
  4941     0C85  2C87               	goto	u4851
  4942     0C86  2C88               	goto	u4850
  4943     0C87                     u4851:
  4944     0C87  2C90               	goto	l3763
  4945     0C88                     u4850:
  4946     0C88                     l3761:
  4947     0C88  3000               	movlw	0
  4948     0C89  00C5               	movwf	___fldiv@a+3
  4949     0C8A  3000               	movlw	0
  4950     0C8B  00C4               	movwf	___fldiv@a+2
  4951     0C8C  3000               	movlw	0
  4952     0C8D  00C3               	movwf	___fldiv@a+1
  4953     0C8E  3000               	movlw	0
  4954     0C8F  00C2               	movwf	___fldiv@a
  4955     0C90                     l3763:
  4956     0C90  17C4               	bsf	___fldiv@a+2,7
  4957     0C91                     l3765:
  4958     0C91  01C5               	clrf	___fldiv@a+3
  4959     0C92  2C9B               	goto	l812
  4960     0C93                     l3767:
  4961     0C93  3000               	movlw	0
  4962     0C94  00C5               	movwf	___fldiv@a+3
  4963     0C95  3000               	movlw	0
  4964     0C96  00C4               	movwf	___fldiv@a+2
  4965     0C97  3000               	movlw	0
  4966     0C98  00C3               	movwf	___fldiv@a+1
  4967     0C99  3000               	movlw	0
  4968     0C9A  00C2               	movwf	___fldiv@a
  4969     0C9B                     l812:
  4970     0C9B  0845               	movf	___fldiv@a+3,w
  4971     0C9C  0444               	iorwf	___fldiv@a+2,w
  4972     0C9D  0443               	iorwf	___fldiv@a+1,w
  4973     0C9E  0442               	iorwf	___fldiv@a,w
  4974     0C9F  1D03               	skipz
  4975     0CA0  2CA2               	goto	u4861
  4976     0CA1  2CA3               	goto	u4860
  4977     0CA2                     u4861:
  4978     0CA2  2CBC               	goto	l3777
  4979     0CA3                     u4860:
  4980     0CA3                     l3769:
  4981     0CA3  3000               	movlw	0
  4982     0CA4  00C9               	movwf	___fldiv@b+3
  4983     0CA5  3000               	movlw	0
  4984     0CA6  00C8               	movwf	___fldiv@b+2
  4985     0CA7  3000               	movlw	0
  4986     0CA8  00C7               	movwf	___fldiv@b+1
  4987     0CA9  3000               	movlw	0
  4988     0CAA  00C6               	movwf	___fldiv@b
  4989     0CAB  3080               	movlw	128
  4990     0CAC  04C8               	iorwf	___fldiv@b+2,f
  4991     0CAD  307F               	movlw	127
  4992     0CAE  04C9               	iorwf	___fldiv@b+3,f
  4993     0CAF                     l3771:
  4994     0CAF  0853               	movf	___fldiv@sign,w
  4995     0CB0  00CA               	movwf	??___fldiv
  4996     0CB1  084A               	movf	??___fldiv,w
  4997     0CB2  04C9               	iorwf	___fldiv@b+3,f
  4998     0CB3                     l3773:
  4999     0CB3  0849               	movf	___fldiv@b+3,w
  5000     0CB4  00C5               	movwf	?___fldiv+3
  5001     0CB5  0848               	movf	___fldiv@b+2,w
  5002     0CB6  00C4               	movwf	?___fldiv+2
  5003     0CB7  0847               	movf	___fldiv@b+1,w
  5004     0CB8  00C3               	movwf	?___fldiv+1
  5005     0CB9  0846               	movf	___fldiv@b,w
  5006     0CBA  00C2               	movwf	?___fldiv
  5007     0CBB  2DF3               	goto	l814
  5008     0CBC                     l3777:
  5009     0CBC  085A               	movf	___fldiv@bexp,w
  5010     0CBD  1D03               	btfss	3,2
  5011     0CBE  2CC0               	goto	u4871
  5012     0CBF  2CC1               	goto	u4870
  5013     0CC0                     u4871:
  5014     0CC0  2CCA               	goto	l3783
  5015     0CC1                     u4870:
  5016     0CC1                     l3779:
  5017     0CC1  3000               	movlw	0
  5018     0CC2  00C5               	movwf	?___fldiv+3
  5019     0CC3  3000               	movlw	0
  5020     0CC4  00C4               	movwf	?___fldiv+2
  5021     0CC5  3000               	movlw	0
  5022     0CC6  00C3               	movwf	?___fldiv+1
  5023     0CC7  3000               	movlw	0
  5024     0CC8  00C2               	movwf	?___fldiv
  5025     0CC9  2DF3               	goto	l814
  5026     0CCA                     l3783:
  5027     0CCA  085A               	movf	___fldiv@bexp,w
  5028     0CCB  00CA               	movwf	??___fldiv
  5029     0CCC  01CB               	clrf	??___fldiv+1
  5030     0CCD  084B               	movf	??___fldiv+1,w
  5031     0CCE  00CD               	movwf	??___fldiv+3
  5032     0CCF  085B               	movf	___fldiv@aexp,w
  5033     0CD0  024A               	subwf	??___fldiv,w
  5034     0CD1  00CC               	movwf	??___fldiv+2
  5035     0CD2  1C03               	skipc
  5036     0CD3  03CD               	decf	??___fldiv+3,f
  5037     0CD4  084C               	movf	??___fldiv+2,w
  5038     0CD5  3E7F               	addlw	127
  5039     0CD6  00D4               	movwf	___fldiv@new_exp
  5040     0CD7  3000               	movlw	0
  5041     0CD8  3D4D               	addwfc	??___fldiv+3,w
  5042     0CD9  00D5               	movwf	___fldiv@new_exp+1
  5043     0CDA                     l3785:
  5044     0CDA  0849               	movf	___fldiv@b+3,w
  5045     0CDB  00D2               	movwf	___fldiv@rem+3
  5046     0CDC  0848               	movf	___fldiv@b+2,w
  5047     0CDD  00D1               	movwf	___fldiv@rem+2
  5048     0CDE  0847               	movf	___fldiv@b+1,w
  5049     0CDF  00D0               	movwf	___fldiv@rem+1
  5050     0CE0  0846               	movf	___fldiv@b,w
  5051     0CE1  00CF               	movwf	___fldiv@rem
  5052     0CE2                     l3787:
  5053     0CE2  3000               	movlw	0
  5054     0CE3  00C9               	movwf	___fldiv@b+3
  5055     0CE4  3000               	movlw	0
  5056     0CE5  00C8               	movwf	___fldiv@b+2
  5057     0CE6  3000               	movlw	0
  5058     0CE7  00C7               	movwf	___fldiv@b+1
  5059     0CE8  3000               	movlw	0
  5060     0CE9  00C6               	movwf	___fldiv@b
  5061     0CEA                     l3789:
  5062     0CEA  3000               	movlw	0
  5063     0CEB  00D9               	movwf	___fldiv@grs+3
  5064     0CEC  3000               	movlw	0
  5065     0CED  00D8               	movwf	___fldiv@grs+2
  5066     0CEE  3000               	movlw	0
  5067     0CEF  00D7               	movwf	___fldiv@grs+1
  5068     0CF0  3000               	movlw	0
  5069     0CF1  00D6               	movwf	___fldiv@grs
  5070     0CF2                     l3791:
  5071     0CF2  01DB               	clrf	___fldiv@aexp
  5072     0CF3  2D32               	goto	l3811
  5073     0CF4                     l3793:
  5074     0CF4  085B               	movf	___fldiv@aexp,w
  5075     0CF5  1903               	btfsc	3,2
  5076     0CF6  2CF8               	goto	u4881
  5077     0CF7  2CF9               	goto	u4880
  5078     0CF8                     u4881:
  5079     0CF8  2D13               	goto	l3803
  5080     0CF9                     u4880:
  5081     0CF9                     l3795:
  5082     0CF9  3001               	movlw	1
  5083     0CFA                     u4895:
  5084     0CFA  35CF               	lslf	___fldiv@rem,f
  5085     0CFB  0DD0               	rlf	___fldiv@rem+1,f
  5086     0CFC  0DD1               	rlf	___fldiv@rem+2,f
  5087     0CFD  0DD2               	rlf	___fldiv@rem+3,f
  5088     0CFE  0B89               	decfsz	9,f
  5089     0CFF  2CFA               	goto	u4895
  5090     0D00  3001               	movlw	1
  5091     0D01                     u4905:
  5092     0D01  35C6               	lslf	___fldiv@b,f
  5093     0D02  0DC7               	rlf	___fldiv@b+1,f
  5094     0D03  0DC8               	rlf	___fldiv@b+2,f
  5095     0D04  0DC9               	rlf	___fldiv@b+3,f
  5096     0D05  0B89               	decfsz	9,f
  5097     0D06  2D01               	goto	u4905
  5098     0D07                     l3797:
  5099     0D07  1FD9               	btfss	___fldiv@grs+3,7
  5100     0D08  2D0A               	goto	u4911
  5101     0D09  2D0B               	goto	u4910
  5102     0D0A                     u4911:
  5103     0D0A  2D0C               	goto	l3801
  5104     0D0B                     u4910:
  5105     0D0B                     l3799:
  5106     0D0B  1446               	bsf	___fldiv@b,0
  5107     0D0C                     l3801:
  5108     0D0C  3001               	movlw	1
  5109     0D0D                     u4925:
  5110     0D0D  35D6               	lslf	___fldiv@grs,f
  5111     0D0E  0DD7               	rlf	___fldiv@grs+1,f
  5112     0D0F  0DD8               	rlf	___fldiv@grs+2,f
  5113     0D10  0DD9               	rlf	___fldiv@grs+3,f
  5114     0D11  0B89               	decfsz	9,f
  5115     0D12  2D0D               	goto	u4925
  5116     0D13                     l3803:
  5117     0D13  0845               	movf	___fldiv@a+3,w
  5118     0D14  0252               	subwf	___fldiv@rem+3,w
  5119     0D15  1D03               	skipz
  5120     0D16  2D21               	goto	u4935
  5121     0D17  0844               	movf	___fldiv@a+2,w
  5122     0D18  0251               	subwf	___fldiv@rem+2,w
  5123     0D19  1D03               	skipz
  5124     0D1A  2D21               	goto	u4935
  5125     0D1B  0843               	movf	___fldiv@a+1,w
  5126     0D1C  0250               	subwf	___fldiv@rem+1,w
  5127     0D1D  1D03               	skipz
  5128     0D1E  2D21               	goto	u4935
  5129     0D1F  0842               	movf	___fldiv@a,w
  5130     0D20  024F               	subwf	___fldiv@rem,w
  5131     0D21                     u4935:
  5132     0D21  1C03               	skipc
  5133     0D22  2D24               	goto	u4931
  5134     0D23  2D25               	goto	u4930
  5135     0D24                     u4931:
  5136     0D24  2D2E               	goto	l3809
  5137     0D25                     u4930:
  5138     0D25                     l3805:
  5139     0D25  1759               	bsf	___fldiv@grs+3,6
  5140     0D26                     l3807:
  5141     0D26  0842               	movf	___fldiv@a,w
  5142     0D27  02CF               	subwf	___fldiv@rem,f
  5143     0D28  0843               	movf	___fldiv@a+1,w
  5144     0D29  3BD0               	subwfb	___fldiv@rem+1,f
  5145     0D2A  0844               	movf	___fldiv@a+2,w
  5146     0D2B  3BD1               	subwfb	___fldiv@rem+2,f
  5147     0D2C  0845               	movf	___fldiv@a+3,w
  5148     0D2D  3BD2               	subwfb	___fldiv@rem+3,f
  5149     0D2E                     l3809:
  5150     0D2E  3001               	movlw	1
  5151     0D2F  00CA               	movwf	??___fldiv
  5152     0D30  084A               	movf	??___fldiv,w
  5153     0D31  07DB               	addwf	___fldiv@aexp,f
  5154     0D32                     l3811:
  5155     0D32  301A               	movlw	26
  5156     0D33  025B               	subwf	___fldiv@aexp,w
  5157     0D34  1C03               	skipc
  5158     0D35  2D37               	goto	u4941
  5159     0D36  2D38               	goto	u4940
  5160     0D37                     u4941:
  5161     0D37  2CF4               	goto	l3793
  5162     0D38                     u4940:
  5163     0D38                     l3813:
  5164     0D38  0852               	movf	___fldiv@rem+3,w
  5165     0D39  0451               	iorwf	___fldiv@rem+2,w
  5166     0D3A  0450               	iorwf	___fldiv@rem+1,w
  5167     0D3B  044F               	iorwf	___fldiv@rem,w
  5168     0D3C  1903               	skipnz
  5169     0D3D  2D3F               	goto	u4951
  5170     0D3E  2D40               	goto	u4950
  5171     0D3F                     u4951:
  5172     0D3F  2D59               	goto	l3827
  5173     0D40                     u4950:
  5174     0D40                     l3815:
  5175     0D40  1456               	bsf	___fldiv@grs,0
  5176     0D41  2D59               	goto	l3827
  5177     0D42                     l3817:
  5178     0D42  3001               	movlw	1
  5179     0D43                     u4965:
  5180     0D43  35C6               	lslf	___fldiv@b,f
  5181     0D44  0DC7               	rlf	___fldiv@b+1,f
  5182     0D45  0DC8               	rlf	___fldiv@b+2,f
  5183     0D46  0DC9               	rlf	___fldiv@b+3,f
  5184     0D47  0B89               	decfsz	9,f
  5185     0D48  2D43               	goto	u4965
  5186     0D49                     l3819:
  5187     0D49  1FD9               	btfss	___fldiv@grs+3,7
  5188     0D4A  2D4C               	goto	u4971
  5189     0D4B  2D4D               	goto	u4970
  5190     0D4C                     u4971:
  5191     0D4C  2D4E               	goto	l3823
  5192     0D4D                     u4970:
  5193     0D4D                     l3821:
  5194     0D4D  1446               	bsf	___fldiv@b,0
  5195     0D4E                     l3823:
  5196     0D4E  3001               	movlw	1
  5197     0D4F                     u4985:
  5198     0D4F  35D6               	lslf	___fldiv@grs,f
  5199     0D50  0DD7               	rlf	___fldiv@grs+1,f
  5200     0D51  0DD8               	rlf	___fldiv@grs+2,f
  5201     0D52  0DD9               	rlf	___fldiv@grs+3,f
  5202     0D53  0B89               	decfsz	9,f
  5203     0D54  2D4F               	goto	u4985
  5204     0D55                     l3825:
  5205     0D55  30FF               	movlw	255
  5206     0D56  07D4               	addwf	___fldiv@new_exp,f
  5207     0D57  30FF               	movlw	255
  5208     0D58  3DD5               	addwfc	___fldiv@new_exp+1,f
  5209     0D59                     l3827:
  5210     0D59  1FC8               	btfss	___fldiv@b+2,7
  5211     0D5A  2D5C               	goto	u4991
  5212     0D5B  2D5D               	goto	u4990
  5213     0D5C                     u4991:
  5214     0D5C  2D42               	goto	l3817
  5215     0D5D                     u4990:
  5216     0D5D                     l3829:
  5217     0D5D  01DB               	clrf	___fldiv@aexp
  5218     0D5E                     l3831:
  5219     0D5E  1FD9               	btfss	___fldiv@grs+3,7
  5220     0D5F  2D61               	goto	u5001
  5221     0D60  2D62               	goto	u5000
  5222     0D61                     u5001:
  5223     0D61  2D7E               	goto	l3839
  5224     0D62                     u5000:
  5225     0D62                     l3833:
  5226     0D62  30FF               	movlw	255
  5227     0D63  0556               	andwf	___fldiv@grs,w
  5228     0D64  00CA               	movwf	??___fldiv
  5229     0D65  30FF               	movlw	255
  5230     0D66  0557               	andwf	___fldiv@grs+1,w
  5231     0D67  00CB               	movwf	??___fldiv+1
  5232     0D68  30FF               	movlw	255
  5233     0D69  0558               	andwf	___fldiv@grs+2,w
  5234     0D6A  00CC               	movwf	??___fldiv+2
  5235     0D6B  307F               	movlw	127
  5236     0D6C  0559               	andwf	___fldiv@grs+3,w
  5237     0D6D  00CD               	movwf	??___fldiv+3
  5238     0D6E  084D               	movf	??___fldiv+3,w
  5239     0D6F  044C               	iorwf	??___fldiv+2,w
  5240     0D70  044B               	iorwf	??___fldiv+1,w
  5241     0D71  044A               	iorwf	??___fldiv,w
  5242     0D72  1903               	skipnz
  5243     0D73  2D75               	goto	u5011
  5244     0D74  2D76               	goto	u5010
  5245     0D75                     u5011:
  5246     0D75  2D79               	goto	l828
  5247     0D76                     u5010:
  5248     0D76                     l3835:
  5249     0D76  01DB               	clrf	___fldiv@aexp
  5250     0D77  0ADB               	incf	___fldiv@aexp,f
  5251     0D78  2D7E               	goto	l3839
  5252     0D79                     l828:
  5253     0D79  1C46               	btfss	___fldiv@b,0
  5254     0D7A  2D7C               	goto	u5021
  5255     0D7B  2D7D               	goto	u5020
  5256     0D7C                     u5021:
  5257     0D7C  2D7E               	goto	l3839
  5258     0D7D                     u5020:
  5259     0D7D  2D76               	goto	l3835
  5260     0D7E                     l3839:
  5261     0D7E  085B               	movf	___fldiv@aexp,w
  5262     0D7F  1903               	btfsc	3,2
  5263     0D80  2D82               	goto	u5031
  5264     0D81  2D83               	goto	u5030
  5265     0D82                     u5031:
  5266     0D82  2DAB               	goto	l3849
  5267     0D83                     u5030:
  5268     0D83                     l3841:
  5269     0D83  3001               	movlw	1
  5270     0D84  07C6               	addwf	___fldiv@b,f
  5271     0D85  3000               	movlw	0
  5272     0D86  3DC7               	addwfc	___fldiv@b+1,f
  5273     0D87  3000               	movlw	0
  5274     0D88  3DC8               	addwfc	___fldiv@b+2,f
  5275     0D89  3000               	movlw	0
  5276     0D8A  3DC9               	addwfc	___fldiv@b+3,f
  5277     0D8B                     l3843:
  5278     0D8B  1C49               	btfss	___fldiv@b+3,0
  5279     0D8C  2D8E               	goto	u5041
  5280     0D8D  2D8F               	goto	u5040
  5281     0D8E                     u5041:
  5282     0D8E  2DAB               	goto	l3849
  5283     0D8F                     u5040:
  5284     0D8F                     l3845:
  5285     0D8F  0846               	movf	___fldiv@b,w
  5286     0D90  00CA               	movwf	??___fldiv
  5287     0D91  0847               	movf	___fldiv@b+1,w
  5288     0D92  00CB               	movwf	??___fldiv+1
  5289     0D93  0848               	movf	___fldiv@b+2,w
  5290     0D94  00CC               	movwf	??___fldiv+2
  5291     0D95  0849               	movf	___fldiv@b+3,w
  5292     0D96  00CD               	movwf	??___fldiv+3
  5293     0D97  3001               	movlw	1
  5294     0D98  00CE               	movwf	??___fldiv+4
  5295     0D99                     u5055:
  5296     0D99  37CD               	asrf	??___fldiv+3,f
  5297     0D9A  0CCC               	rrf	??___fldiv+2,f
  5298     0D9B  0CCB               	rrf	??___fldiv+1,f
  5299     0D9C  0CCA               	rrf	??___fldiv,f
  5300     0D9D                     u5050:
  5301     0D9D  0BCE               	decfsz	??___fldiv+4,f
  5302     0D9E  2D99               	goto	u5055
  5303     0D9F  084D               	movf	??___fldiv+3,w
  5304     0DA0  00C9               	movwf	___fldiv@b+3
  5305     0DA1  084C               	movf	??___fldiv+2,w
  5306     0DA2  00C8               	movwf	___fldiv@b+2
  5307     0DA3  084B               	movf	??___fldiv+1,w
  5308     0DA4  00C7               	movwf	___fldiv@b+1
  5309     0DA5  084A               	movf	??___fldiv,w
  5310     0DA6  00C6               	movwf	___fldiv@b
  5311     0DA7                     l3847:
  5312     0DA7  3001               	movlw	1
  5313     0DA8  07D4               	addwf	___fldiv@new_exp,f
  5314     0DA9  3000               	movlw	0
  5315     0DAA  3DD5               	addwfc	___fldiv@new_exp+1,f
  5316     0DAB                     l3849:
  5317     0DAB  0855               	movf	___fldiv@new_exp+1,w
  5318     0DAC  3A80               	xorlw	128
  5319     0DAD  00CA               	movwf	??___fldiv
  5320     0DAE  3080               	movlw	128
  5321     0DAF  024A               	subwf	??___fldiv,w
  5322     0DB0  1D03               	skipz
  5323     0DB1  2DB4               	goto	u5065
  5324     0DB2  30FF               	movlw	255
  5325     0DB3  0254               	subwf	___fldiv@new_exp,w
  5326     0DB4                     u5065:
  5327     0DB4  1C03               	skipc
  5328     0DB5  2DB7               	goto	u5061
  5329     0DB6  2DB8               	goto	u5060
  5330     0DB7                     u5061:
  5331     0DB7  2DC5               	goto	l833
  5332     0DB8                     u5060:
  5333     0DB8                     l3851:
  5334     0DB8  30FF               	movlw	255
  5335     0DB9  0020               	movlb	0	; select bank0
  5336     0DBA  00D4               	movwf	___fldiv@new_exp
  5337     0DBB  3000               	movlw	0
  5338     0DBC  00D5               	movwf	___fldiv@new_exp+1
  5339     0DBD  3000               	movlw	0
  5340     0DBE  00C9               	movwf	___fldiv@b+3
  5341     0DBF  3000               	movlw	0
  5342     0DC0  00C8               	movwf	___fldiv@b+2
  5343     0DC1  3000               	movlw	0
  5344     0DC2  00C7               	movwf	___fldiv@b+1
  5345     0DC3  3000               	movlw	0
  5346     0DC4  00C6               	movwf	___fldiv@b
  5347     0DC5                     l833:
  5348     0DC5  0020               	movlb	0	; select bank0
  5349     0DC6  0855               	movf	___fldiv@new_exp+1,w
  5350     0DC7  3A80               	xorlw	128
  5351     0DC8  00CA               	movwf	??___fldiv
  5352     0DC9  3080               	movlw	128
  5353     0DCA  024A               	subwf	??___fldiv,w
  5354     0DCB  1D03               	skipz
  5355     0DCC  2DCF               	goto	u5075
  5356     0DCD  3001               	movlw	1
  5357     0DCE  0254               	subwf	___fldiv@new_exp,w
  5358     0DCF                     u5075:
  5359     0DCF  1803               	skipnc
  5360     0DD0  2DD2               	goto	u5071
  5361     0DD1  2DD3               	goto	u5070
  5362     0DD2                     u5071:
  5363     0DD2  2DDF               	goto	l834
  5364     0DD3                     u5070:
  5365     0DD3                     l3853:
  5366     0DD3  0020               	movlb	0	; select bank0
  5367     0DD4  01D4               	clrf	___fldiv@new_exp
  5368     0DD5  01D5               	clrf	___fldiv@new_exp+1
  5369     0DD6                     l3855:
  5370     0DD6  3000               	movlw	0
  5371     0DD7  00C9               	movwf	___fldiv@b+3
  5372     0DD8  3000               	movlw	0
  5373     0DD9  00C8               	movwf	___fldiv@b+2
  5374     0DDA  3000               	movlw	0
  5375     0DDB  00C7               	movwf	___fldiv@b+1
  5376     0DDC  3000               	movlw	0
  5377     0DDD  00C6               	movwf	___fldiv@b
  5378     0DDE                     l3857:
  5379     0DDE  01D3               	clrf	___fldiv@sign
  5380     0DDF                     l834:
  5381     0DDF  0020               	movlb	0	; select bank0
  5382     0DE0  0854               	movf	___fldiv@new_exp,w
  5383     0DE1  00DA               	movwf	___fldiv@bexp
  5384     0DE2                     l3859:
  5385     0DE2  1C5A               	btfss	___fldiv@bexp,0
  5386     0DE3  2DE5               	goto	u5081
  5387     0DE4  2DE6               	goto	u5080
  5388     0DE5                     u5081:
  5389     0DE5  2DE8               	goto	l3863
  5390     0DE6                     u5080:
  5391     0DE6                     l3861:
  5392     0DE6  17C8               	bsf	___fldiv@b+2,7
  5393     0DE7  2DEC               	goto	l836
  5394     0DE8                     l3863:
  5395     0DE8  307F               	movlw	127
  5396     0DE9  00CA               	movwf	??___fldiv
  5397     0DEA  084A               	movf	??___fldiv,w
  5398     0DEB  05C8               	andwf	___fldiv@b+2,f
  5399     0DEC                     l836:
  5400     0DEC  365A               	lsrf	___fldiv@bexp,w
  5401     0DED  00C9               	movwf	___fldiv@b+3
  5402     0DEE  0853               	movf	___fldiv@sign,w
  5403     0DEF  00CA               	movwf	??___fldiv
  5404     0DF0  084A               	movf	??___fldiv,w
  5405     0DF1  04C9               	iorwf	___fldiv@b+3,f
  5406     0DF2  2CB3               	goto	l3773
  5407     0DF3                     l814:
  5408     0DF3  0008               	return
  5409     0DF4                     __end_of___fldiv:
  5410                           
  5411                           	psect	text9
  5412     0DF4                     __ptext9:	
  5413 ;; *************** function ___fladd *****************
  5414 ;; Defined at:
  5415 ;;		line 10 in file "C:\Program Files\Microchip\xc8\v2.46\pic\sources\c99\common\sprcadd.c"
  5416 ;; Parameters:    Size  Location     Type
  5417 ;;  b               4    0[COMMON] unsigned char 
  5418 ;;  a               4    4[COMMON] unsigned char 
  5419 ;; Auto vars:     Size  Location     Type
  5420 ;;  grs             1   11[COMMON] unsigned char 
  5421 ;;  bexp            1   10[COMMON] unsigned char 
  5422 ;;  aexp            1    9[COMMON] unsigned char 
  5423 ;;  signs           1    8[COMMON] unsigned char 
  5424 ;; Return value:  Size  Location     Type
  5425 ;;                  4    0[COMMON] unsigned char 
  5426 ;; Registers used:
  5427 ;;		wreg, status,2, status,0
  5428 ;; Tracked objects:
  5429 ;;		On entry : 0/0
  5430 ;;		On exit  : 0/0
  5431 ;;		Unchanged: 0/0
  5432 ;; Data sizes:     COMMON   BANK0   BANK1   BANK2   BANK3   BANK4   BANK5   BANK6   BANK7   BANK8   BANK9  BANK10  BANK1
      +1  BANK12  BANK13  BANK14  BANK15  BANK16  BANK17  BANK18  BANK19  BANK20  BANK21  BANK22  BANK23  BANK24  BANK25
  5433 ;;      Params:         8       0       0       0       0       0       0       0       0       0       0       0       
      +0       0       0       0       0       0       0       0       0       0       0       0       0       0       0
  5434 ;;      Locals:         4       0       0       0       0       0       0       0       0       0       0       0       
      +0       0       0       0       0       0       0       0       0       0       0       0       0       0       0
  5435 ;;      Temps:          0       8       0       0       0       0       0       0       0       0       0       0       
      +0       0       0       0       0       0       0       0       0       0       0       0       0       0       0
  5436 ;;      Totals:        12       8       0       0       0       0       0       0       0       0       0       0       
      +0       0       0       0       0       0       0       0       0       0       0       0       0       0       0
  5437 ;;Total ram usage:       20 bytes
  5438 ;; Hardware stack levels used: 1
  5439 ;; This function calls:
  5440 ;;		Nothing
  5441 ;; This function is called by:
  5442 ;;		_main
  5443 ;; This function uses a non-reentrant model
  5444 ;;
  5445                           
  5446     0DF4                     ___fladd:	
  5447                           ;psect for function ___fladd
  5448                           
  5449     0DF4                     l3535:	
  5450                           ;incstack = 0
  5451                           ; Regs used in ___fladd: [wreg+status,2+status,0]
  5452                           
  5453     0DF4  0873               	movf	___fladd@b+3,w
  5454     0DF5  3980               	andlw	128
  5455     0DF6  00F8               	movwf	___fladd@signs
  5456     0DF7                     l3537:
  5457     0DF7  3573               	lslf	___fladd@b+3,w
  5458     0DF8  00FA               	movwf	___fladd@bexp
  5459     0DF9                     l3539:
  5460     0DF9  1FF2               	btfss	___fladd@b+2,7
  5461     0DFA  2DFC               	goto	u4371
  5462     0DFB  2DFD               	goto	u4370
  5463     0DFC                     u4371:
  5464     0DFC  2DFE               	goto	l3543
  5465     0DFD                     u4370:
  5466     0DFD                     l3541:
  5467     0DFD  147A               	bsf	___fladd@bexp,0
  5468     0DFE                     l3543:
  5469     0DFE  087A               	movf	___fladd@bexp,w
  5470     0DFF  1903               	btfsc	3,2
  5471     0E00  2E02               	goto	u4381
  5472     0E01  2E03               	goto	u4380
  5473     0E02                     u4381:
  5474     0E02  2E13               	goto	l3553
  5475     0E03                     u4380:
  5476     0E03                     l3545:
  5477     0E03  0A7A               	incf	___fladd@bexp,w
  5478     0E04  1D03               	btfss	3,2
  5479     0E05  2E07               	goto	u4391
  5480     0E06  2E08               	goto	u4390
  5481     0E07                     u4391:
  5482     0E07  2E10               	goto	l3549
  5483     0E08                     u4390:
  5484     0E08                     l3547:
  5485     0E08  3000               	movlw	0
  5486     0E09  00F3               	movwf	___fladd@b+3
  5487     0E0A  3000               	movlw	0
  5488     0E0B  00F2               	movwf	___fladd@b+2
  5489     0E0C  3000               	movlw	0
  5490     0E0D  00F1               	movwf	___fladd@b+1
  5491     0E0E  3000               	movlw	0
  5492     0E0F  00F0               	movwf	___fladd@b
  5493     0E10                     l3549:
  5494     0E10  17F2               	bsf	___fladd@b+2,7
  5495     0E11                     l3551:
  5496     0E11  01F3               	clrf	___fladd@b+3
  5497     0E12  2E1B               	goto	l3555
  5498     0E13                     l3553:
  5499     0E13  3000               	movlw	0
  5500     0E14  00F3               	movwf	___fladd@b+3
  5501     0E15  3000               	movlw	0
  5502     0E16  00F2               	movwf	___fladd@b+2
  5503     0E17  3000               	movlw	0
  5504     0E18  00F1               	movwf	___fladd@b+1
  5505     0E19  3000               	movlw	0
  5506     0E1A  00F0               	movwf	___fladd@b
  5507     0E1B                     l3555:
  5508     0E1B  0877               	movf	___fladd@a+3,w
  5509     0E1C  3980               	andlw	128
  5510     0E1D  00F9               	movwf	___fladd@aexp
  5511     0E1E                     l3557:
  5512     0E1E  0879               	movf	___fladd@aexp,w
  5513     0E1F  0678               	xorwf	___fladd@signs,w
  5514     0E20  1903               	skipnz
  5515     0E21  2E23               	goto	u4401
  5516     0E22  2E24               	goto	u4400
  5517     0E23                     u4401:
  5518     0E23  2E25               	goto	l3561
  5519     0E24                     u4400:
  5520     0E24                     l3559:
  5521     0E24  1778               	bsf	___fladd@signs,6
  5522     0E25                     l3561:
  5523     0E25  3577               	lslf	___fladd@a+3,w
  5524     0E26  00F9               	movwf	___fladd@aexp
  5525     0E27                     l3563:
  5526     0E27  1FF6               	btfss	___fladd@a+2,7
  5527     0E28  2E2A               	goto	u4411
  5528     0E29  2E2B               	goto	u4410
  5529     0E2A                     u4411:
  5530     0E2A  2E2C               	goto	l3567
  5531     0E2B                     u4410:
  5532     0E2B                     l3565:
  5533     0E2B  1479               	bsf	___fladd@aexp,0
  5534     0E2C                     l3567:
  5535     0E2C  0879               	movf	___fladd@aexp,w
  5536     0E2D  1903               	btfsc	3,2
  5537     0E2E  2E30               	goto	u4421
  5538     0E2F  2E31               	goto	u4420
  5539     0E30                     u4421:
  5540     0E30  2E41               	goto	l3577
  5541     0E31                     u4420:
  5542     0E31                     l3569:
  5543     0E31  0A79               	incf	___fladd@aexp,w
  5544     0E32  1D03               	btfss	3,2
  5545     0E33  2E35               	goto	u4431
  5546     0E34  2E36               	goto	u4430
  5547     0E35                     u4431:
  5548     0E35  2E3E               	goto	l3573
  5549     0E36                     u4430:
  5550     0E36                     l3571:
  5551     0E36  3000               	movlw	0
  5552     0E37  00F7               	movwf	___fladd@a+3
  5553     0E38  3000               	movlw	0
  5554     0E39  00F6               	movwf	___fladd@a+2
  5555     0E3A  3000               	movlw	0
  5556     0E3B  00F5               	movwf	___fladd@a+1
  5557     0E3C  3000               	movlw	0
  5558     0E3D  00F4               	movwf	___fladd@a
  5559     0E3E                     l3573:
  5560     0E3E  17F6               	bsf	___fladd@a+2,7
  5561     0E3F                     l3575:
  5562     0E3F  01F7               	clrf	___fladd@a+3
  5563     0E40  2E49               	goto	l756
  5564     0E41                     l3577:
  5565     0E41  3000               	movlw	0
  5566     0E42  00F7               	movwf	___fladd@a+3
  5567     0E43  3000               	movlw	0
  5568     0E44  00F6               	movwf	___fladd@a+2
  5569     0E45  3000               	movlw	0
  5570     0E46  00F5               	movwf	___fladd@a+1
  5571     0E47  3000               	movlw	0
  5572     0E48  00F4               	movwf	___fladd@a
  5573     0E49                     l756:
  5574     0E49  087A               	movf	___fladd@bexp,w
  5575     0E4A  0279               	subwf	___fladd@aexp,w
  5576     0E4B  1803               	skipnc
  5577     0E4C  2E4E               	goto	u4441
  5578     0E4D  2E4F               	goto	u4440
  5579     0E4E                     u4441:
  5580     0E4E  2E76               	goto	l3613
  5581     0E4F                     u4440:
  5582     0E4F                     l3579:
  5583     0E4F  1F78               	btfss	___fladd@signs,6
  5584     0E50  2E52               	goto	u4451
  5585     0E51  2E53               	goto	u4450
  5586     0E52                     u4451:
  5587     0E52  2E58               	goto	l3583
  5588     0E53                     u4450:
  5589     0E53                     l3581:
  5590     0E53  3080               	movlw	128
  5591     0E54  0020               	movlb	0	; select bank0
  5592     0E55  00A0               	movwf	??___fladd
  5593     0E56  0820               	movf	??___fladd,w
  5594     0E57  06F8               	xorwf	___fladd@signs,f
  5595     0E58                     l3583:
  5596     0E58  087A               	movf	___fladd@bexp,w
  5597     0E59  00FB               	movwf	___fladd@grs
  5598     0E5A                     l3585:
  5599     0E5A  0879               	movf	___fladd@aexp,w
  5600     0E5B  00FA               	movwf	___fladd@bexp
  5601     0E5C                     l3587:
  5602     0E5C  087B               	movf	___fladd@grs,w
  5603     0E5D  00F9               	movwf	___fladd@aexp
  5604     0E5E                     l3589:
  5605     0E5E  0870               	movf	___fladd@b,w
  5606     0E5F  00FB               	movwf	___fladd@grs
  5607     0E60                     l3591:
  5608     0E60  0874               	movf	___fladd@a,w
  5609     0E61  00F0               	movwf	___fladd@b
  5610     0E62                     l3593:
  5611     0E62  087B               	movf	___fladd@grs,w
  5612     0E63  00F4               	movwf	___fladd@a
  5613     0E64                     l3595:
  5614     0E64  0871               	movf	___fladd@b+1,w
  5615     0E65  00FB               	movwf	___fladd@grs
  5616     0E66                     l3597:
  5617     0E66  0875               	movf	___fladd@a+1,w
  5618     0E67  00F1               	movwf	___fladd@b+1
  5619     0E68                     l3599:
  5620     0E68  087B               	movf	___fladd@grs,w
  5621     0E69  00F5               	movwf	___fladd@a+1
  5622     0E6A                     l3601:
  5623     0E6A  0872               	movf	___fladd@b+2,w
  5624     0E6B  00FB               	movwf	___fladd@grs
  5625     0E6C                     l3603:
  5626     0E6C  0876               	movf	___fladd@a+2,w
  5627     0E6D  00F2               	movwf	___fladd@b+2
  5628     0E6E                     l3605:
  5629     0E6E  087B               	movf	___fladd@grs,w
  5630     0E6F  00F6               	movwf	___fladd@a+2
  5631     0E70                     l3607:
  5632     0E70  0873               	movf	___fladd@b+3,w
  5633     0E71  00FB               	movwf	___fladd@grs
  5634     0E72                     l3609:
  5635     0E72  0877               	movf	___fladd@a+3,w
  5636     0E73  00F3               	movwf	___fladd@b+3
  5637     0E74                     l3611:
  5638     0E74  087B               	movf	___fladd@grs,w
  5639     0E75  00F7               	movwf	___fladd@a+3
  5640     0E76                     l3613:
  5641     0E76  01FB               	clrf	___fladd@grs
  5642     0E77                     l3615:
  5643     0E77  0879               	movf	___fladd@aexp,w
  5644     0E78  0020               	movlb	0	; select bank0
  5645     0E79  00A0               	movwf	??___fladd
  5646     0E7A  01A1               	clrf	??___fladd+1
  5647     0E7B  0821               	movf	??___fladd+1,w
  5648     0E7C  00A3               	movwf	??___fladd+3
  5649     0E7D  087A               	movf	___fladd@bexp,w
  5650     0E7E  0220               	subwf	??___fladd,w
  5651     0E7F  00A2               	movwf	??___fladd+2
  5652     0E80  1C03               	skipc
  5653     0E81  03A3               	decf	??___fladd+3,f
  5654     0E82  0823               	movf	??___fladd+3,w
  5655     0E83  3A80               	xorlw	128
  5656     0E84  00A4               	movwf	??___fladd+4
  5657     0E85  3080               	movlw	128
  5658     0E86  0224               	subwf	??___fladd+4,w
  5659     0E87  1D03               	skipz
  5660     0E88  2E8B               	goto	u4465
  5661     0E89  301A               	movlw	26
  5662     0E8A  0222               	subwf	??___fladd+2,w
  5663     0E8B                     u4465:
  5664     0E8B  1C03               	skipc
  5665     0E8C  2E8E               	goto	u4461
  5666     0E8D  2E8F               	goto	u4460
  5667     0E8E                     u4461:
  5668     0E8E  2EC1               	goto	l3631
  5669     0E8F                     u4460:
  5670     0E8F                     l3617:
  5671     0E8F  0873               	movf	___fladd@b+3,w
  5672     0E90  0472               	iorwf	___fladd@b+2,w
  5673     0E91  0471               	iorwf	___fladd@b+1,w
  5674     0E92  0470               	iorwf	___fladd@b,w
  5675     0E93  1D03               	skipz
  5676     0E94  2E96               	goto	u4471
  5677     0E95  2E98               	goto	u4470
  5678     0E96                     u4471:
  5679     0E96  3001               	movlw	1
  5680     0E97  2E99               	goto	u4480
  5681     0E98                     u4470:
  5682     0E98  3000               	movlw	0
  5683     0E99                     u4480:
  5684     0E99  00FB               	movwf	___fladd@grs
  5685     0E9A  3000               	movlw	0
  5686     0E9B  00F3               	movwf	___fladd@b+3
  5687     0E9C  3000               	movlw	0
  5688     0E9D  00F2               	movwf	___fladd@b+2
  5689     0E9E  3000               	movlw	0
  5690     0E9F  00F1               	movwf	___fladd@b+1
  5691     0EA0  3000               	movlw	0
  5692     0EA1  00F0               	movwf	___fladd@b
  5693     0EA2  0879               	movf	___fladd@aexp,w
  5694     0EA3  00FA               	movwf	___fladd@bexp
  5695     0EA4  2EC7               	goto	l760
  5696     0EA5                     l762:
  5697     0EA5  1C7B               	btfss	___fladd@grs,0
  5698     0EA6  2EA8               	goto	u4491
  5699     0EA7  2EA9               	goto	u4490
  5700     0EA8                     u4491:
  5701     0EA8  2EAD               	goto	l3621
  5702     0EA9                     u4490:
  5703     0EA9                     l3619:
  5704     0EA9  367B               	lsrf	___fladd@grs,w
  5705     0EAA  3801               	iorlw	1
  5706     0EAB  00FB               	movwf	___fladd@grs
  5707     0EAC  2EAF               	goto	l3623
  5708     0EAD                     l3621:
  5709     0EAD  1003               	clrc
  5710     0EAE  0CFB               	rrf	___fladd@grs,f
  5711     0EAF                     l3623:
  5712     0EAF  1C70               	btfss	___fladd@b,0
  5713     0EB0  2EB2               	goto	u4501
  5714     0EB1  2EB3               	goto	u4500
  5715     0EB2                     u4501:
  5716     0EB2  2EB4               	goto	l3627
  5717     0EB3                     u4500:
  5718     0EB3                     l3625:
  5719     0EB3  17FB               	bsf	___fladd@grs,7
  5720     0EB4                     l3627:
  5721     0EB4  3001               	movlw	1
  5722     0EB5  0020               	movlb	0	; select bank0
  5723     0EB6  00A0               	movwf	??___fladd
  5724     0EB7                     u4515:
  5725     0EB7  37F3               	asrf	___fladd@b+3,f
  5726     0EB8  0CF2               	rrf	___fladd@b+2,f
  5727     0EB9  0CF1               	rrf	___fladd@b+1,f
  5728     0EBA  0CF0               	rrf	___fladd@b,f
  5729     0EBB  0BA0               	decfsz	??___fladd& (0+127),f
  5730     0EBC  2EB7               	goto	u4515
  5731     0EBD                     l3629:
  5732     0EBD  3001               	movlw	1
  5733     0EBE  00A0               	movwf	??___fladd
  5734     0EBF  0820               	movf	??___fladd,w
  5735     0EC0  07FA               	addwf	___fladd@bexp,f
  5736     0EC1                     l3631:
  5737     0EC1  0879               	movf	___fladd@aexp,w
  5738     0EC2  027A               	subwf	___fladd@bexp,w
  5739     0EC3  1C03               	skipc
  5740     0EC4  2EC6               	goto	u4521
  5741     0EC5  2EC7               	goto	u4520
  5742     0EC6                     u4521:
  5743     0EC6  2EA5               	goto	l762
  5744     0EC7                     u4520:
  5745     0EC7                     l760:
  5746     0EC7  1B78               	btfsc	___fladd@signs,6
  5747     0EC8  2ECA               	goto	u4531
  5748     0EC9  2ECB               	goto	u4530
  5749     0ECA                     u4531:
  5750     0ECA  2F02               	goto	l3657
  5751     0ECB                     u4530:
  5752     0ECB                     l3633:
  5753     0ECB  087A               	movf	___fladd@bexp,w
  5754     0ECC  1D03               	btfss	3,2
  5755     0ECD  2ECF               	goto	u4541
  5756     0ECE  2ED0               	goto	u4540
  5757     0ECF                     u4541:
  5758     0ECF  2ED9               	goto	l3639
  5759     0ED0                     u4540:
  5760     0ED0                     l3635:
  5761     0ED0  3000               	movlw	0
  5762     0ED1  00F3               	movwf	?___fladd+3
  5763     0ED2  3000               	movlw	0
  5764     0ED3  00F2               	movwf	?___fladd+2
  5765     0ED4  3000               	movlw	0
  5766     0ED5  00F1               	movwf	?___fladd+1
  5767     0ED6  3000               	movlw	0
  5768     0ED7  00F0               	movwf	?___fladd
  5769     0ED8  2FFF               	goto	l769
  5770     0ED9                     l3639:
  5771     0ED9  0874               	movf	___fladd@a,w
  5772     0EDA  07F0               	addwf	___fladd@b,f
  5773     0EDB  0875               	movf	___fladd@a+1,w
  5774     0EDC  3DF1               	addwfc	___fladd@b+1,f
  5775     0EDD  0876               	movf	___fladd@a+2,w
  5776     0EDE  3DF2               	addwfc	___fladd@b+2,f
  5777     0EDF  0877               	movf	___fladd@a+3,w
  5778     0EE0  3DF3               	addwfc	___fladd@b+3,f
  5779     0EE1                     l3641:
  5780     0EE1  1C73               	btfss	___fladd@b+3,0
  5781     0EE2  2EE4               	goto	u4551
  5782     0EE3  2EE5               	goto	u4550
  5783     0EE4                     u4551:
  5784     0EE4  2F8F               	goto	l3691
  5785     0EE5                     u4550:
  5786     0EE5                     l3643:
  5787     0EE5  1C7B               	btfss	___fladd@grs,0
  5788     0EE6  2EE8               	goto	u4561
  5789     0EE7  2EE9               	goto	u4560
  5790     0EE8                     u4561:
  5791     0EE8  2EED               	goto	l3647
  5792     0EE9                     u4560:
  5793     0EE9                     l3645:
  5794     0EE9  367B               	lsrf	___fladd@grs,w
  5795     0EEA  3801               	iorlw	1
  5796     0EEB  00FB               	movwf	___fladd@grs
  5797     0EEC  2EEF               	goto	l3649
  5798     0EED                     l3647:
  5799     0EED  1003               	clrc
  5800     0EEE  0CFB               	rrf	___fladd@grs,f
  5801     0EEF                     l3649:
  5802     0EEF  1C70               	btfss	___fladd@b,0
  5803     0EF0  2EF2               	goto	u4571
  5804     0EF1  2EF3               	goto	u4570
  5805     0EF2                     u4571:
  5806     0EF2  2EF4               	goto	l3653
  5807     0EF3                     u4570:
  5808     0EF3                     l3651:
  5809     0EF3  17FB               	bsf	___fladd@grs,7
  5810     0EF4                     l3653:
  5811     0EF4  3001               	movlw	1
  5812     0EF5  0020               	movlb	0	; select bank0
  5813     0EF6  00A0               	movwf	??___fladd
  5814     0EF7                     u4585:
  5815     0EF7  37F3               	asrf	___fladd@b+3,f
  5816     0EF8  0CF2               	rrf	___fladd@b+2,f
  5817     0EF9  0CF1               	rrf	___fladd@b+1,f
  5818     0EFA  0CF0               	rrf	___fladd@b,f
  5819     0EFB  0BA0               	decfsz	??___fladd& (0+127),f
  5820     0EFC  2EF7               	goto	u4585
  5821     0EFD                     l3655:
  5822     0EFD  3001               	movlw	1
  5823     0EFE  00A0               	movwf	??___fladd
  5824     0EFF  0820               	movf	??___fladd,w
  5825     0F00  07FA               	addwf	___fladd@bexp,f
  5826     0F01  2F8F               	goto	l3691
  5827     0F02                     l3657:
  5828     0F02  0873               	movf	___fladd@b+3,w
  5829     0F03  3A80               	xorlw	128
  5830     0F04  0020               	movlb	0	; select bank0
  5831     0F05  00A0               	movwf	??___fladd
  5832     0F06  0877               	movf	___fladd@a+3,w
  5833     0F07  3A80               	xorlw	128
  5834     0F08  0220               	subwf	??___fladd,w
  5835     0F09  1D03               	skipz
  5836     0F0A  2F15               	goto	u4593
  5837     0F0B  0876               	movf	___fladd@a+2,w
  5838     0F0C  0272               	subwf	___fladd@b+2,w
  5839     0F0D  1D03               	skipz
  5840     0F0E  2F15               	goto	u4593
  5841     0F0F  0875               	movf	___fladd@a+1,w
  5842     0F10  0271               	subwf	___fladd@b+1,w
  5843     0F11  1D03               	skipz
  5844     0F12  2F15               	goto	u4593
  5845     0F13  0874               	movf	___fladd@a,w
  5846     0F14  0270               	subwf	___fladd@b,w
  5847     0F15                     u4593:
  5848     0F15  1803               	skipnc
  5849     0F16  2F18               	goto	u4591
  5850     0F17  2F19               	goto	u4590
  5851     0F18                     u4591:
  5852     0F18  2F51               	goto	l3667
  5853     0F19                     u4590:
  5854     0F19                     l3659:
  5855     0F19  30FF               	movlw	255
  5856     0F1A  00A0               	movwf	??___fladd
  5857     0F1B  30FF               	movlw	255
  5858     0F1C  00A1               	movwf	??___fladd+1
  5859     0F1D  30FF               	movlw	255
  5860     0F1E  00A2               	movwf	??___fladd+2
  5861     0F1F  30FF               	movlw	255
  5862     0F20  00A3               	movwf	??___fladd+3
  5863     0F21  0870               	movf	___fladd@b,w
  5864     0F22  0274               	subwf	___fladd@a,w
  5865     0F23  00A4               	movwf	??___fladd+4
  5866     0F24  0871               	movf	___fladd@b+1,w
  5867     0F25  3B75               	subwfb	___fladd@a+1,w
  5868     0F26  00A5               	movwf	??___fladd+5
  5869     0F27  0872               	movf	___fladd@b+2,w
  5870     0F28  3B76               	subwfb	___fladd@a+2,w
  5871     0F29  00A6               	movwf	??___fladd+6
  5872     0F2A  0873               	movf	___fladd@b+3,w
  5873     0F2B  3B77               	subwfb	___fladd@a+3,w
  5874     0F2C  00A7               	movwf	??___fladd+7
  5875     0F2D  0824               	movf	??___fladd+4,w
  5876     0F2E  07A0               	addwf	??___fladd,f
  5877     0F2F  0825               	movf	??___fladd+5,w
  5878     0F30  3DA1               	addwfc	??___fladd+1,f
  5879     0F31  0826               	movf	??___fladd+6,w
  5880     0F32  3DA2               	addwfc	??___fladd+2,f
  5881     0F33  0827               	movf	??___fladd+7,w
  5882     0F34  3DA3               	addwfc	??___fladd+3,f
  5883     0F35  0823               	movf	??___fladd+3,w
  5884     0F36  00F3               	movwf	___fladd@b+3
  5885     0F37  0822               	movf	??___fladd+2,w
  5886     0F38  00F2               	movwf	___fladd@b+2
  5887     0F39  0821               	movf	??___fladd+1,w
  5888     0F3A  00F1               	movwf	___fladd@b+1
  5889     0F3B  0820               	movf	??___fladd,w
  5890     0F3C  00F0               	movwf	___fladd@b
  5891     0F3D                     l3661:
  5892     0F3D  3080               	movlw	128
  5893     0F3E  00A0               	movwf	??___fladd
  5894     0F3F  0820               	movf	??___fladd,w
  5895     0F40  06F8               	xorwf	___fladd@signs,f
  5896     0F41  09FB               	comf	___fladd@grs,f
  5897     0F42  0AFB               	incf	___fladd@grs,f
  5898     0F43                     l3663:
  5899     0F43  087B               	movf	___fladd@grs,w
  5900     0F44  1D03               	btfss	3,2
  5901     0F45  2F47               	goto	u4601
  5902     0F46  2F48               	goto	u4600
  5903     0F47                     u4601:
  5904     0F47  2F59               	goto	l777
  5905     0F48                     u4600:
  5906     0F48                     l3665:
  5907     0F48  3001               	movlw	1
  5908     0F49  07F0               	addwf	___fladd@b,f
  5909     0F4A  3000               	movlw	0
  5910     0F4B  3DF1               	addwfc	___fladd@b+1,f
  5911     0F4C  3000               	movlw	0
  5912     0F4D  3DF2               	addwfc	___fladd@b+2,f
  5913     0F4E  3000               	movlw	0
  5914     0F4F  3DF3               	addwfc	___fladd@b+3,f
  5915     0F50  2F59               	goto	l777
  5916     0F51                     l3667:
  5917     0F51  0874               	movf	___fladd@a,w
  5918     0F52  02F0               	subwf	___fladd@b,f
  5919     0F53  0875               	movf	___fladd@a+1,w
  5920     0F54  3BF1               	subwfb	___fladd@b+1,f
  5921     0F55  0876               	movf	___fladd@a+2,w
  5922     0F56  3BF2               	subwfb	___fladd@b+2,f
  5923     0F57  0877               	movf	___fladd@a+3,w
  5924     0F58  3BF3               	subwfb	___fladd@b+3,f
  5925     0F59                     l777:
  5926     0F59  0873               	movf	___fladd@b+3,w
  5927     0F5A  0472               	iorwf	___fladd@b+2,w
  5928     0F5B  0471               	iorwf	___fladd@b+1,w
  5929     0F5C  0470               	iorwf	___fladd@b,w
  5930     0F5D  1D03               	skipz
  5931     0F5E  2F60               	goto	u4611
  5932     0F5F  2F61               	goto	u4610
  5933     0F60                     u4611:
  5934     0F60  2F8B               	goto	l3689
  5935     0F61                     u4610:
  5936     0F61                     l3669:
  5937     0F61  087B               	movf	___fladd@grs,w
  5938     0F62  1D03               	btfss	3,2
  5939     0F63  2F65               	goto	u4621
  5940     0F64  2F66               	goto	u4620
  5941     0F65                     u4621:
  5942     0F65  2F8B               	goto	l3689
  5943     0F66                     u4620:
  5944     0F66                     l3671:
  5945     0F66  3000               	movlw	0
  5946     0F67  00F3               	movwf	?___fladd+3
  5947     0F68  3000               	movlw	0
  5948     0F69  00F2               	movwf	?___fladd+2
  5949     0F6A  3000               	movlw	0
  5950     0F6B  00F1               	movwf	?___fladd+1
  5951     0F6C  3000               	movlw	0
  5952     0F6D  00F0               	movwf	?___fladd
  5953     0F6E  2FFF               	goto	l769
  5954     0F6F                     l3675:
  5955     0F6F  3001               	movlw	1
  5956     0F70                     u4635:
  5957     0F70  35F0               	lslf	___fladd@b,f
  5958     0F71  0DF1               	rlf	___fladd@b+1,f
  5959     0F72  0DF2               	rlf	___fladd@b+2,f
  5960     0F73  0DF3               	rlf	___fladd@b+3,f
  5961     0F74  0B89               	decfsz	9,f
  5962     0F75  2F70               	goto	u4635
  5963     0F76                     l3677:
  5964     0F76  1FFB               	btfss	___fladd@grs,7
  5965     0F77  2F79               	goto	u4641
  5966     0F78  2F7A               	goto	u4640
  5967     0F79                     u4641:
  5968     0F79  2F7B               	goto	l781
  5969     0F7A                     u4640:
  5970     0F7A                     l3679:
  5971     0F7A  1470               	bsf	___fladd@b,0
  5972     0F7B                     l781:
  5973     0F7B  1C7B               	btfss	___fladd@grs,0
  5974     0F7C  2F7E               	goto	u4651
  5975     0F7D  2F7F               	goto	u4650
  5976     0F7E                     u4651:
  5977     0F7E  2F82               	goto	l3683
  5978     0F7F                     u4650:
  5979     0F7F                     l3681:
  5980     0F7F  1403               	setc
  5981     0F80  0DFB               	rlf	___fladd@grs,f
  5982     0F81  2F84               	goto	l3685
  5983     0F82                     l3683:
  5984     0F82  1003               	clrc
  5985     0F83  0DFB               	rlf	___fladd@grs,f
  5986     0F84                     l3685:
  5987     0F84  087A               	movf	___fladd@bexp,w
  5988     0F85  1903               	btfsc	3,2
  5989     0F86  2F88               	goto	u4661
  5990     0F87  2F89               	goto	u4660
  5991     0F88                     u4661:
  5992     0F88  2F8B               	goto	l3689
  5993     0F89                     u4660:
  5994     0F89                     l3687:
  5995     0F89  3001               	movlw	1
  5996     0F8A  02FA               	subwf	___fladd@bexp,f
  5997     0F8B                     l3689:
  5998     0F8B  1FF2               	btfss	___fladd@b+2,7
  5999     0F8C  2F8E               	goto	u4671
  6000     0F8D  2F8F               	goto	u4670
  6001     0F8E                     u4671:
  6002     0F8E  2F6F               	goto	l3675
  6003     0F8F                     u4670:
  6004     0F8F                     l3691:
  6005     0F8F  01F9               	clrf	___fladd@aexp
  6006     0F90                     l3693:
  6007     0F90  1FFB               	btfss	___fladd@grs,7
  6008     0F91  2F93               	goto	u4681
  6009     0F92  2F94               	goto	u4680
  6010     0F93                     u4681:
  6011     0F93  2FA2               	goto	l3701
  6012     0F94                     u4680:
  6013     0F94                     l3695:
  6014     0F94  087B               	movf	___fladd@grs,w
  6015     0F95  397F               	andlw	127
  6016     0F96  1903               	btfsc	3,2
  6017     0F97  2F99               	goto	u4691
  6018     0F98  2F9A               	goto	u4690
  6019     0F99                     u4691:
  6020     0F99  2F9D               	goto	l787
  6021     0F9A                     u4690:
  6022     0F9A                     l3697:
  6023     0F9A  01F9               	clrf	___fladd@aexp
  6024     0F9B  0AF9               	incf	___fladd@aexp,f
  6025     0F9C  2FA2               	goto	l3701
  6026     0F9D                     l787:
  6027     0F9D  1C70               	btfss	___fladd@b,0
  6028     0F9E  2FA0               	goto	u4701
  6029     0F9F  2FA1               	goto	u4700
  6030     0FA0                     u4701:
  6031     0FA0  2FA2               	goto	l3701
  6032     0FA1                     u4700:
  6033     0FA1  2F9A               	goto	l3697
  6034     0FA2                     l3701:
  6035     0FA2  0879               	movf	___fladd@aexp,w
  6036     0FA3  1903               	btfsc	3,2
  6037     0FA4  2FA6               	goto	u4711
  6038     0FA5  2FA7               	goto	u4710
  6039     0FA6                     u4711:
  6040     0FA6  2FD5               	goto	l790
  6041     0FA7                     u4710:
  6042     0FA7                     l3703:
  6043     0FA7  3001               	movlw	1
  6044     0FA8  07F0               	addwf	___fladd@b,f
  6045     0FA9  3000               	movlw	0
  6046     0FAA  3DF1               	addwfc	___fladd@b+1,f
  6047     0FAB  3000               	movlw	0
  6048     0FAC  3DF2               	addwfc	___fladd@b+2,f
  6049     0FAD  3000               	movlw	0
  6050     0FAE  3DF3               	addwfc	___fladd@b+3,f
  6051     0FAF                     l3705:
  6052     0FAF  1C73               	btfss	___fladd@b+3,0
  6053     0FB0  2FB2               	goto	u4721
  6054     0FB1  2FB3               	goto	u4720
  6055     0FB2                     u4721:
  6056     0FB2  2FD5               	goto	l790
  6057     0FB3                     u4720:
  6058     0FB3                     l3707:
  6059     0FB3  0870               	movf	___fladd@b,w
  6060     0FB4  0020               	movlb	0	; select bank0
  6061     0FB5  00A0               	movwf	??___fladd
  6062     0FB6  0871               	movf	___fladd@b+1,w
  6063     0FB7  00A1               	movwf	??___fladd+1
  6064     0FB8  0872               	movf	___fladd@b+2,w
  6065     0FB9  00A2               	movwf	??___fladd+2
  6066     0FBA  0873               	movf	___fladd@b+3,w
  6067     0FBB  00A3               	movwf	??___fladd+3
  6068     0FBC  3001               	movlw	1
  6069     0FBD  00A4               	movwf	??___fladd+4
  6070     0FBE                     u4735:
  6071     0FBE  37A3               	asrf	??___fladd+3,f
  6072     0FBF  0CA2               	rrf	??___fladd+2,f
  6073     0FC0  0CA1               	rrf	??___fladd+1,f
  6074     0FC1  0CA0               	rrf	??___fladd,f
  6075     0FC2                     u4730:
  6076     0FC2  0BA4               	decfsz	??___fladd+4,f
  6077     0FC3  2FBE               	goto	u4735
  6078     0FC4  0823               	movf	??___fladd+3,w
  6079     0FC5  00F3               	movwf	___fladd@b+3
  6080     0FC6  0822               	movf	??___fladd+2,w
  6081     0FC7  00F2               	movwf	___fladd@b+2
  6082     0FC8  0821               	movf	??___fladd+1,w
  6083     0FC9  00F1               	movwf	___fladd@b+1
  6084     0FCA  0820               	movf	??___fladd,w
  6085     0FCB  00F0               	movwf	___fladd@b
  6086     0FCC  0A7A               	incf	___fladd@bexp,w
  6087     0FCD  1903               	btfsc	3,2
  6088     0FCE  2FD0               	goto	u4741
  6089     0FCF  2FD1               	goto	u4740
  6090     0FD0                     u4741:
  6091     0FD0  2FD5               	goto	l790
  6092     0FD1                     u4740:
  6093     0FD1                     l3709:
  6094     0FD1  3001               	movlw	1
  6095     0FD2  00A0               	movwf	??___fladd
  6096     0FD3  0820               	movf	??___fladd,w
  6097     0FD4  07FA               	addwf	___fladd@bexp,f
  6098     0FD5                     l790:
  6099     0FD5  0A7A               	incf	___fladd@bexp,w
  6100     0FD6  1903               	btfsc	3,2
  6101     0FD7  2FD9               	goto	u4751
  6102     0FD8  2FDA               	goto	u4750
  6103     0FD9                     u4751:
  6104     0FD9  2FDF               	goto	l3713
  6105     0FDA                     u4750:
  6106     0FDA                     l3711:
  6107     0FDA  087A               	movf	___fladd@bexp,w
  6108     0FDB  1D03               	btfss	3,2
  6109     0FDC  2FDE               	goto	u4761
  6110     0FDD  2FDF               	goto	u4760
  6111     0FDE                     u4761:
  6112     0FDE  2FED               	goto	l3719
  6113     0FDF                     u4760:
  6114     0FDF                     l3713:
  6115     0FDF  3000               	movlw	0
  6116     0FE0  00F3               	movwf	___fladd@b+3
  6117     0FE1  3000               	movlw	0
  6118     0FE2  00F2               	movwf	___fladd@b+2
  6119     0FE3  3000               	movlw	0
  6120     0FE4  00F1               	movwf	___fladd@b+1
  6121     0FE5  3000               	movlw	0
  6122     0FE6  00F0               	movwf	___fladd@b
  6123     0FE7                     l3715:
  6124     0FE7  087A               	movf	___fladd@bexp,w
  6125     0FE8  1D03               	btfss	3,2
  6126     0FE9  2FEB               	goto	u4771
  6127     0FEA  2FEC               	goto	u4770
  6128     0FEB                     u4771:
  6129     0FEB  2FED               	goto	l3719
  6130     0FEC                     u4770:
  6131     0FEC                     l3717:
  6132     0FEC  01F8               	clrf	___fladd@signs
  6133     0FED                     l3719:
  6134     0FED  1C7A               	btfss	___fladd@bexp,0
  6135     0FEE  2FF0               	goto	u4781
  6136     0FEF  2FF1               	goto	u4780
  6137     0FF0                     u4781:
  6138     0FF0  2FF3               	goto	l3723
  6139     0FF1                     u4780:
  6140     0FF1                     l3721:
  6141     0FF1  17F2               	bsf	___fladd@b+2,7
  6142     0FF2  2FF8               	goto	l798
  6143     0FF3                     l3723:
  6144     0FF3  307F               	movlw	127
  6145     0FF4  0020               	movlb	0	; select bank0
  6146     0FF5  00A0               	movwf	??___fladd
  6147     0FF6  0820               	movf	??___fladd,w
  6148     0FF7  05F2               	andwf	___fladd@b+2,f
  6149     0FF8                     l798:
  6150     0FF8  367A               	lsrf	___fladd@bexp,w
  6151     0FF9  00F3               	movwf	___fladd@b+3
  6152     0FFA                     l3725:
  6153     0FFA  1FF8               	btfss	___fladd@signs,7
  6154     0FFB  2FFD               	goto	u4791
  6155     0FFC  2FFE               	goto	u4790
  6156     0FFD                     u4791:
  6157     0FFD  2FFF               	goto	l799
  6158     0FFE                     u4790:
  6159     0FFE                     l3727:
  6160     0FFE  17F3               	bsf	___fladd@b+3,7
  6161     0FFF                     l799:
  6162     0FFF                     l769:
  6163     0FFF  0008               	return
  6164     1000                     __end_of___fladd:
  6165                           
  6166                           	psect	text10
  6167     13CB                     __ptext10:	
  6168 ;; *************** function _OLED_SetOrientation *****************
  6169 ;; Defined at:
  6170 ;;		line 246 in file "OLED_SSD1306.c"
  6171 ;; Parameters:    Size  Location     Type
  6172 ;;  o               1    wreg     enum E6061
  6173 ;; Auto vars:     Size  Location     Type
  6174 ;;  o               1    9[COMMON] enum E6061
  6175 ;; Return value:  Size  Location     Type
  6176 ;;                  1    wreg      void 
  6177 ;; Registers used:
  6178 ;;		wreg, fsr0l, fsr0h, status,2, status,0, pclath, cstack
  6179 ;; Tracked objects:
  6180 ;;		On entry : 0/0
  6181 ;;		On exit  : 0/0
  6182 ;;		Unchanged: 0/0
  6183 ;; Data sizes:     COMMON   BANK0   BANK1   BANK2   BANK3   BANK4   BANK5   BANK6   BANK7   BANK8   BANK9  BANK10  BANK1
      +1  BANK12  BANK13  BANK14  BANK15  BANK16  BANK17  BANK18  BANK19  BANK20  BANK21  BANK22  BANK23  BANK24  BANK25
  6184 ;;      Params:         0       0       0       0       0       0       0       0       0       0       0       0       
      +0       0       0       0       0       0       0       0       0       0       0       0       0       0       0
  6185 ;;      Locals:         1       0       0       0       0       0       0       0       0       0       0       0       
      +0       0       0       0       0       0       0       0       0       0       0       0       0       0       0
  6186 ;;      Temps:          2       0       0       0       0       0       0       0       0       0       0       0       
      +0       0       0       0       0       0       0       0       0       0       0       0       0       0       0
  6187 ;;      Totals:         3       0       0       0       0       0       0       0       0       0       0       0       
      +0       0       0       0       0       0       0       0       0       0       0       0       0       0       0
  6188 ;;Total ram usage:        3 bytes
  6189 ;; Hardware stack levels used: 1
  6190 ;; Hardware stack levels required when called: 3
  6191 ;; This function calls:
  6192 ;;		_OLED_Command
  6193 ;; This function is called by:
  6194 ;;		_main
  6195 ;; This function uses a non-reentrant model
  6196 ;;
  6197                           
  6198     13CB                     _OLED_SetOrientation:	
  6199                           ;psect for function _OLED_SetOrientation
  6200                           
  6201                           
  6202                           ;incstack = 0
  6203                           ; Regs used in _OLED_SetOrientation: [wreg-fsr0h+status,2+status,0+pclath+cstack]
  6204                           ;OLED_SetOrientation@o stored from wreg
  6205     13CB  00F9               	movwf	OLED_SetOrientation@o
  6206     13CC                     l3239:
  6207                           
  6208                           ;OLED_SSD1306.c: 246: void OLED_SetOrientation(oled_orient_t o);OLED_SSD1306.c: 247: {;O
      +                          LED_SSD1306.c: 248:     (void)OLED_Command(0x2E);
  6209     13CC  302E               	movlw	46
  6210     13CD  3193  232F  3193   	fcall	_OLED_Command
  6211                           
  6212                           ;OLED_SSD1306.c: 250:     switch (o)
  6213     13D0  2BF5               	goto	l3251
  6214     13D1                     l3241:
  6215                           
  6216                           ;OLED_SSD1306.c: 254:             (void)OLED_Command(0xA0 | 0x01);
  6217     13D1  30A1               	movlw	161
  6218     13D2  3193  232F  3193   	fcall	_OLED_Command
  6219                           
  6220                           ;OLED_SSD1306.c: 255:             (void)OLED_Command(0xC8);
  6221     13D5  30C8               	movlw	200
  6222     13D6  3193  232F  3193   	fcall	_OLED_Command
  6223                           
  6224                           ;OLED_SSD1306.c: 256:             break;
  6225     13D9  2C0B               	goto	l224
  6226     13DA                     l3243:
  6227                           
  6228                           ;OLED_SSD1306.c: 259:             (void)OLED_Command(0xA0 | 0x00);
  6229     13DA  30A0               	movlw	160
  6230     13DB  3193  232F  3193   	fcall	_OLED_Command
  6231                           
  6232                           ;OLED_SSD1306.c: 260:             (void)OLED_Command(0xC0);
  6233     13DE  30C0               	movlw	192
  6234     13DF  3193  232F  3193   	fcall	_OLED_Command
  6235                           
  6236                           ;OLED_SSD1306.c: 261:             break;
  6237     13E2  2C0B               	goto	l224
  6238     13E3                     l3245:
  6239                           
  6240                           ;OLED_SSD1306.c: 264:             (void)OLED_Command(0xA0 | 0x00);
  6241     13E3  30A0               	movlw	160
  6242     13E4  3193  232F  3193   	fcall	_OLED_Command
  6243                           
  6244                           ;OLED_SSD1306.c: 265:             (void)OLED_Command(0xC8);
  6245     13E7  30C8               	movlw	200
  6246     13E8  3193  232F  3193   	fcall	_OLED_Command
  6247                           
  6248                           ;OLED_SSD1306.c: 266:             break;
  6249     13EB  2C0B               	goto	l224
  6250     13EC                     l3247:
  6251                           
  6252                           ;OLED_SSD1306.c: 269:             (void)OLED_Command(0xA0 | 0x01);
  6253     13EC  30A1               	movlw	161
  6254     13ED  3193  232F  3193   	fcall	_OLED_Command
  6255                           
  6256                           ;OLED_SSD1306.c: 270:             (void)OLED_Command(0xC0);
  6257     13F0  30C0               	movlw	192
  6258     13F1  3193  232F  3193   	fcall	_OLED_Command
  6259                           
  6260                           ;OLED_SSD1306.c: 271:             break;
  6261     13F4  2C0B               	goto	l224
  6262     13F5                     l3251:
  6263     13F5  0879               	movf	OLED_SetOrientation@o,w
  6264     13F6  00F7               	movwf	??_OLED_SetOrientation
  6265     13F7  01F8               	clrf	??_OLED_SetOrientation+1
  6266                           
  6267                           ; Switch on 2 bytes has been partitioned into a top level switch of size 1, and 1 sub-sw
      +                          itches
  6268                           ; Switch size 1, requested type "simple"
  6269                           ; Number of cases is 1, Range of values is 0 to 0
  6270                           ; switch strategies available:
  6271                           ; Name         Instructions Cycles
  6272                           ; simple_byte            4     3 (average)
  6273                           ; direct_byte            8     6 (fixed)
  6274                           ; jumptable            260     6 (fixed)
  6275                           ;	Chosen strategy is simple_byte
  6276     13F8  0878               	movf	??_OLED_SetOrientation+1,w
  6277     13F9  3A00               	xorlw	0	; case 0
  6278     13FA  1903               	skipnz
  6279     13FB  2BFD               	goto	l4217
  6280     13FC  2BD1               	goto	l3241
  6281     13FD                     l4217:
  6282                           
  6283                           ; Switch size 1, requested type "simple"
  6284                           ; Number of cases is 4, Range of values is 0 to 3
  6285                           ; switch strategies available:
  6286                           ; Name         Instructions Cycles
  6287                           ; simple_byte           13     7 (average)
  6288                           ; direct_byte           14     6 (fixed)
  6289                           ; jumptable            260     6 (fixed)
  6290                           ;	Chosen strategy is simple_byte
  6291     13FD  0877               	movf	??_OLED_SetOrientation,w
  6292     13FE  3A00               	xorlw	0	; case 0
  6293     13FF  1903               	skipnz
  6294     1400  2BD1               	goto	l3241
  6295     1401  3A01               	xorlw	1	; case 1
  6296     1402  1903               	skipnz
  6297     1403  2BDA               	goto	l3243
  6298     1404  3A03               	xorlw	3	; case 2
  6299     1405  1903               	skipnz
  6300     1406  2BE3               	goto	l3245
  6301     1407  3A01               	xorlw	1	; case 3
  6302     1408  1903               	skipnz
  6303     1409  2BEC               	goto	l3247
  6304     140A  2BD1               	goto	l3241
  6305     140B                     l224:
  6306     140B  0008               	return
  6307     140C                     __end_of_OLED_SetOrientation:
  6308                           
  6309                           	psect	text11
  6310     03D9                     __ptext11:	
  6311 ;; *************** function _OLED_Printf_Line *****************
  6312 ;; Defined at:
  6313 ;;		line 424 in file "OLED_SSD1306.c"
  6314 ;; Parameters:    Size  Location     Type
  6315 ;;  line            1    wreg     unsigned char 
  6316 ;;  fmt             2    6[BANK0 ] PTR const unsigned char 
  6317 ;;		 -> STR_1(11), 
  6318 ;; Auto vars:     Size  Location     Type
  6319 ;;  line            1   39[BANK1 ] unsigned char 
  6320 ;;  nibble          1   26[BANK1 ] unsigned char 
  6321 ;;  temp           11   33[BANK0 ] unsigned char [11]
  6322 ;;  val             4   33[BANK1 ] long 
  6323 ;;  i               1   30[BANK1 ] unsigned char 
  6324 ;;  temp           11   22[BANK0 ] unsigned char [11]
  6325 ;;  val             4   20[BANK1 ] unsigned long 
  6326 ;;  i               1   29[BANK1 ] unsigned char 
  6327 ;;  str             1   17[BANK1 ] PTR const unsigned char 
  6328 ;;		 -> ?_OLED_Printf_Line(1), 
  6329 ;;  temp            5   12[BANK1 ] unsigned char [5]
  6330 ;;  val             2   78[BANK0 ] unsigned short 
  6331 ;;  i               1   32[BANK1 ] unsigned char 
  6332 ;;  temp            6    6[BANK1 ] unsigned char [6]
  6333 ;;  val             2   24[BANK1 ] unsigned short 
  6334 ;;  i               1   31[BANK1 ] unsigned char 
  6335 ;;  temp            6    0[BANK1 ] unsigned char [6]
  6336 ;;  val             2   37[BANK1 ] short 
  6337 ;;  i               1   28[BANK1 ] unsigned char 
  6338 ;;  ch              1   27[BANK1 ] unsigned char 
  6339 ;;  p               1   19[BANK1 ] PTR const unsigned char 
  6340 ;;		 -> OLED_Printf_Line@buf(32), 
  6341 ;;  buf            32   44[BANK0 ] unsigned char [32]
  6342 ;;  src             2   41[BANK1 ] PTR const unsigned char 
  6343 ;;		 -> STR_1(11), 
  6344 ;;  dst             1   43[BANK1 ] PTR unsigned char 
  6345 ;;		 -> OLED_Printf_Line@buf(32), 
  6346 ;;  ap              1   40[BANK1 ] PTR void [1]
  6347 ;;		 -> ?_OLED_Printf_Line(1), 
  6348 ;;  col             1   18[BANK1 ] unsigned char 
  6349 ;; Return value:  Size  Location     Type
  6350 ;;                  1    wreg      void 
  6351 ;; Registers used:
  6352 ;;		wreg, fsr0l, fsr0h, fsr1l, fsr1h, status,2, status,0, pclath, cstack
  6353 ;; Tracked objects:
  6354 ;;		On entry : 0/0
  6355 ;;		On exit  : 0/0
  6356 ;;		Unchanged: 0/0
  6357 ;; Data sizes:     COMMON   BANK0   BANK1   BANK2   BANK3   BANK4   BANK5   BANK6   BANK7   BANK8   BANK9  BANK10  BANK1
      +1  BANK12  BANK13  BANK14  BANK15  BANK16  BANK17  BANK18  BANK19  BANK20  BANK21  BANK22  BANK23  BANK24  BANK25
  6358 ;;      Params:         0       4       0       0       0       0       0       0       0       0       0       0       
      +0       0       0       0       0       0       0       0       0       0       0       0       0       0       0
  6359 ;;      Locals:         0      58      44       0       0       0       0       0       0       0       0       0       
      +0       0       0       0       0       0       0       0       0       0       0       0       0       0       0
  6360 ;;      Temps:          0      12       0       0       0       0       0       0       0       0       0       0       
      +0       0       0       0       0       0       0       0       0       0       0       0       0       0       0
  6361 ;;      Totals:         0      74      44       0       0       0       0       0       0       0       0       0       
      +0       0       0       0       0       0       0       0       0       0       0       0       0       0       0
  6362 ;;Total ram usage:      118 bytes
  6363 ;; Hardware stack levels used: 1
  6364 ;; Hardware stack levels required when called: 5
  6365 ;; This function calls:
  6366 ;;		_OLED_UpdateLine
  6367 ;;		___aldiv
  6368 ;;		___almod
  6369 ;;		___awdiv
  6370 ;;		___awmod
  6371 ;;		___lldiv
  6372 ;;		___llmod
  6373 ;;		___lwdiv
  6374 ;;		___lwmod
  6375 ;;		_memcpy
  6376 ;;		_memset
  6377 ;;		_strcmp
  6378 ;;		_strcpy
  6379 ;; This function is called by:
  6380 ;;		_main
  6381 ;; This function uses a non-reentrant model
  6382 ;;
  6383                           
  6384     03D9                     _OLED_Printf_Line:	
  6385                           ;psect for function _OLED_Printf_Line
  6386                           
  6387                           
  6388                           ;incstack = 0
  6389                           ; Regs used in _OLED_Printf_Line: [wreg-fsr1h+status,2+status,0+pclath+cstack]
  6390                           ;OLED_Printf_Line@line stored from wreg
  6391     03D9  0021               	movlb	1	; select bank1
  6392     03DA  00C7               	movwf	OLED_Printf_Line@line^(0+128)
  6393     03DB                     l3257:
  6394                           
  6395                           ;OLED_SSD1306.c: 424: void OLED_Printf_Line(uint8_t line, const char* fmt, ...);OLED_SSD
      +                          1306.c: 425: {;OLED_SSD1306.c: 426:     static char last_text[8][32];;OLED_SSD1306.c: 42
      +                          7:     char buf[32];;OLED_SSD1306.c: 428:     char *dst = buf;
  6396     03DB  304C               	movlw	(low (OLED_Printf_Line@buf| 0))& (0+255)
  6397     03DC  00CB               	movwf	OLED_Printf_Line@dst^(0+128)
  6398                           
  6399                           ;OLED_SSD1306.c: 429:     const char *src = fmt;
  6400     03DD  0020               	movlb	0	; select bank0
  6401     03DE  0827               	movf	OLED_Printf_Line@fmt+1,w
  6402     03DF  0021               	movlb	1	; select bank1
  6403     03E0  00CA               	movwf	(OLED_Printf_Line@src+1)^(0+128)
  6404     03E1  0020               	movlb	0	; select bank0
  6405     03E2  0826               	movf	OLED_Printf_Line@fmt,w
  6406     03E3  0021               	movlb	1	; select bank1
  6407     03E4  00C9               	movwf	OLED_Printf_Line@src^(0+128)
  6408                           
  6409                           ;OLED_SSD1306.c: 431:     if (line >= (32 / 8)) return;
  6410     03E5  3004               	movlw	4
  6411     03E6  0247               	subwf	OLED_Printf_Line@line^(0+128),w
  6412     03E7  1C03               	skipc
  6413     03E8  2BEA               	goto	u3911
  6414     03E9  2BEB               	goto	u3910
  6415     03EA                     u3911:
  6416     03EA  2BEC               	goto	l3261
  6417     03EB                     u3910:
  6418     03EB  2FF1               	goto	l262
  6419     03EC                     l3261:
  6420                           
  6421                           ;OLED_SSD1306.c: 433:     va_list ap;;OLED_SSD1306.c: 434:     *ap = __va_start();
  6422     03EC  3028               	movlw	(low ((?_OLED_Printf_Line| 0+2)))& (0+255)
  6423     03ED  00C8               	movwf	OLED_Printf_Line@ap^(0+128)
  6424                           
  6425                           ;OLED_SSD1306.c: 437:     while (*src && (dst - buf) < 31) {
  6426     03EE  2F01               	goto	l3461
  6427     03EF                     l3263:
  6428                           
  6429                           ;OLED_SSD1306.c: 438:         if (*src == '%') {
  6430     03EF  0849               	movf	OLED_Printf_Line@src^(0+128),w
  6431     03F0  0084               	movwf	4
  6432     03F1  084A               	movf	(OLED_Printf_Line@src+1)^(0+128),w
  6433     03F2  0085               	movwf	5
  6434     03F3  0012               	moviw fsr0++
  6435     03F4  3A25               	xorlw	37
  6436     03F5  1D03               	btfss	3,2
  6437     03F6  2BF8               	goto	u3921
  6438     03F7  2BF9               	goto	u3920
  6439     03F8                     u3921:
  6440     03F8  2EEE               	goto	l3455
  6441     03F9                     u3920:
  6442     03F9                     l3265:
  6443                           
  6444                           ;OLED_SSD1306.c: 439:             src++;
  6445     03F9  3001               	movlw	1
  6446     03FA  07C9               	addwf	OLED_Printf_Line@src^(0+128),f
  6447     03FB  3000               	movlw	0
  6448     03FC  3DCA               	addwfc	(OLED_Printf_Line@src+1)^(0+128),f
  6449                           
  6450                           ;OLED_SSD1306.c: 440:             switch (*src) {
  6451     03FD  2ECE               	goto	l3451
  6452     03FE                     l3267:
  6453                           
  6454                           ;OLED_SSD1306.c: 442:                     int16_t val = (*(int *)__va_arg(*(int **)ap, (
      +                          int)0));
  6455     03FE  0848               	movf	OLED_Printf_Line@ap^(0+128),w
  6456     03FF  0086               	movwf	6
  6457     0400  0187               	clrf	7
  6458     0401  3F40               	moviw [0]fsr1
  6459     0402  00C5               	movwf	OLED_Printf_Line@val^(0+128)
  6460     0403  3F41               	moviw [1]fsr1
  6461     0404  00C6               	movwf	(OLED_Printf_Line@val+1)^(0+128)
  6462     0405                     l3269:
  6463     0405  3002               	movlw	2
  6464     0406  0020               	movlb	0	; select bank0
  6465     0407  00AA               	movwf	??_OLED_Printf_Line
  6466     0408  082A               	movf	??_OLED_Printf_Line,w
  6467     0409  0021               	movlb	1	; select bank1
  6468     040A  07C8               	addwf	OLED_Printf_Line@ap^(0+128),f
  6469     040B                     l3271:
  6470                           
  6471                           ;OLED_SSD1306.c: 443:                     if (val < 0) {
  6472     040B  1FC6               	btfss	(OLED_Printf_Line@val+1)^(0+128),7
  6473     040C  2C0E               	goto	u3931
  6474     040D  2C0F               	goto	u3930
  6475     040E                     u3931:
  6476     040E  2C1F               	goto	l3279
  6477     040F                     u3930:
  6478     040F                     l3273:
  6479                           
  6480                           ;OLED_SSD1306.c: 444:                         *dst++ = '-';
  6481     040F  084B               	movf	OLED_Printf_Line@dst^(0+128),w
  6482     0410  0086               	movwf	6
  6483     0411  0187               	clrf	7
  6484     0412  302D               	movlw	45
  6485     0413  0081               	movwf	1
  6486     0414                     l3275:
  6487     0414  3001               	movlw	1
  6488     0415  0020               	movlb	0	; select bank0
  6489     0416  00AA               	movwf	??_OLED_Printf_Line
  6490     0417  082A               	movf	??_OLED_Printf_Line,w
  6491     0418  0021               	movlb	1	; select bank1
  6492     0419  07CB               	addwf	OLED_Printf_Line@dst^(0+128),f
  6493     041A                     l3277:
  6494                           
  6495                           ;OLED_SSD1306.c: 445:                         val = -val;
  6496     041A  09C5               	comf	OLED_Printf_Line@val^(0+128),f
  6497     041B  09C6               	comf	(OLED_Printf_Line@val+1)^(0+128),f
  6498     041C  0AC5               	incf	OLED_Printf_Line@val^(0+128),f
  6499     041D  1903               	skipnz
  6500     041E  0AC6               	incf	(OLED_Printf_Line@val+1)^(0+128),f
  6501     041F                     l3279:
  6502                           
  6503                           ;OLED_SSD1306.c: 448:                     char temp[6];;OLED_SSD1306.c: 449:            
      +                                   uint8_t i = 0;
  6504     041F  01BC               	clrf	OLED_Printf_Line@i^(0+128)
  6505     0420                     l3281:
  6506                           
  6507                           ;OLED_SSD1306.c: 451:                         temp[i++] = '0' + (val % 10);
  6508     0420  083C               	movf	OLED_Printf_Line@i^(0+128),w
  6509     0421  3EA0               	addlw	(low (OLED_Printf_Line@temp| 0))& (0+255)
  6510     0422  0086               	movwf	6
  6511     0423  0187               	clrf	7
  6512     0424  300A               	movlw	10
  6513     0425  00F0               	movwf	___awmod@divisor
  6514     0426  3000               	movlw	0
  6515     0427  00F1               	movwf	___awmod@divisor+1
  6516     0428  0846               	movf	(OLED_Printf_Line@val+1)^(0+128),w
  6517     0429  00F3               	movwf	___awmod@dividend+1
  6518     042A  0845               	movf	OLED_Printf_Line@val^(0+128),w
  6519     042B  00F2               	movwf	___awmod@dividend
  6520     042C  3195  253E  3183   	fcall	___awmod
  6521     042F  0870               	movf	?___awmod,w
  6522     0430  3E30               	addlw	48
  6523     0431  0081               	movwf	1
  6524     0432                     l3283:
  6525     0432  3001               	movlw	1
  6526     0433  0020               	movlb	0	; select bank0
  6527     0434  00AA               	movwf	??_OLED_Printf_Line
  6528     0435  082A               	movf	??_OLED_Printf_Line,w
  6529     0436  0021               	movlb	1	; select bank1
  6530     0437  07BC               	addwf	OLED_Printf_Line@i^(0+128),f
  6531     0438                     l3285:
  6532                           
  6533                           ;OLED_SSD1306.c: 452:                         val /= 10;
  6534     0438  300A               	movlw	10
  6535     0439  00F0               	movwf	___awdiv@divisor
  6536     043A  3000               	movlw	0
  6537     043B  00F1               	movwf	___awdiv@divisor+1
  6538     043C  0846               	movf	(OLED_Printf_Line@val+1)^(0+128),w
  6539     043D  00F3               	movwf	___awdiv@dividend+1
  6540     043E  0845               	movf	OLED_Printf_Line@val^(0+128),w
  6541     043F  00F2               	movwf	___awdiv@dividend
  6542     0440  3195  25EB  3183   	fcall	___awdiv
  6543     0443  0871               	movf	?___awdiv+1,w
  6544     0444  0021               	movlb	1	; select bank1
  6545     0445  00C6               	movwf	(OLED_Printf_Line@val+1)^(0+128)
  6546     0446  0870               	movf	?___awdiv,w
  6547     0447  00C5               	movwf	OLED_Printf_Line@val^(0+128)
  6548     0448                     l3287:
  6549                           
  6550                           ;OLED_SSD1306.c: 453:                     } while (val && i < 6);
  6551     0448  0845               	movf	OLED_Printf_Line@val^(0+128),w
  6552     0449  0446               	iorwf	(OLED_Printf_Line@val+1)^(0+128),w
  6553     044A  1903               	btfsc	3,2
  6554     044B  2C4D               	goto	u3941
  6555     044C  2C4E               	goto	u3940
  6556     044D                     u3941:
  6557     044D  2C64               	goto	l3295
  6558     044E                     u3940:
  6559     044E                     l3289:
  6560     044E  3006               	movlw	6
  6561     044F  023C               	subwf	OLED_Printf_Line@i^(0+128),w
  6562     0450  1C03               	skipc
  6563     0451  2C53               	goto	u3951
  6564     0452  2C54               	goto	u3950
  6565     0453                     u3951:
  6566     0453  2C20               	goto	l3281
  6567     0454                     u3950:
  6568     0454  2C64               	goto	l3295
  6569     0455                     l3291:
  6570     0455  084B               	movf	OLED_Printf_Line@dst^(0+128),w
  6571     0456  0086               	movwf	6
  6572     0457  0187               	clrf	7
  6573     0458  083C               	movf	OLED_Printf_Line@i^(0+128),w
  6574     0459  3EA0               	addlw	(low (OLED_Printf_Line@temp| 0))& (0+255)
  6575     045A  0084               	movwf	4
  6576     045B  0185               	clrf	5
  6577     045C  0800               	movf	0,w
  6578     045D  0081               	movwf	1
  6579     045E                     l3293:
  6580     045E  3001               	movlw	1
  6581     045F  0020               	movlb	0	; select bank0
  6582     0460  00AA               	movwf	??_OLED_Printf_Line
  6583     0461  082A               	movf	??_OLED_Printf_Line,w
  6584     0462  0021               	movlb	1	; select bank1
  6585     0463  07CB               	addwf	OLED_Printf_Line@dst^(0+128),f
  6586     0464                     l3295:
  6587     0464  3001               	movlw	1
  6588     0465  02BC               	subwf	OLED_Printf_Line@i^(0+128),f
  6589     0466  0A3C               	incf	OLED_Printf_Line@i^(0+128),w
  6590     0467  1D03               	btfss	3,2
  6591     0468  2C6A               	goto	u3961
  6592     0469  2C6B               	goto	u3960
  6593     046A                     u3961:
  6594     046A  2C55               	goto	l3291
  6595     046B                     u3960:
  6596     046B  2EE9               	goto	l3453
  6597     046C                     l3297:
  6598                           
  6599                           ;OLED_SSD1306.c: 458:                     src++;
  6600     046C  3001               	movlw	1
  6601     046D  07C9               	addwf	OLED_Printf_Line@src^(0+128),f
  6602     046E  3000               	movlw	0
  6603     046F  3DCA               	addwfc	(OLED_Printf_Line@src+1)^(0+128),f
  6604     0470                     l3299:
  6605                           
  6606                           ;OLED_SSD1306.c: 459:                     if (*src == 'u') {
  6607     0470  0849               	movf	OLED_Printf_Line@src^(0+128),w
  6608     0471  0084               	movwf	4
  6609     0472  084A               	movf	(OLED_Printf_Line@src+1)^(0+128),w
  6610     0473  0085               	movwf	5
  6611     0474  0012               	moviw fsr0++
  6612     0475  3A75               	xorlw	117
  6613     0476  1D03               	btfss	3,2
  6614     0477  2C79               	goto	u3971
  6615     0478  2C7A               	goto	u3970
  6616     0479                     u3971:
  6617     0479  2CEE               	goto	l3323
  6618     047A                     u3970:
  6619     047A                     l3301:
  6620                           
  6621                           ;OLED_SSD1306.c: 460:                         uint32_t val = (*(uint32_t *)__va_arg(*(ui
      +                          nt32_t **)ap, (uint32_t)0));
  6622     047A  0848               	movf	OLED_Printf_Line@ap^(0+128),w
  6623     047B  0086               	movwf	6
  6624     047C  0187               	clrf	7
  6625     047D  3F40               	moviw [0]fsr1
  6626     047E  00B4               	movwf	OLED_Printf_Line@val_701^(0+128)
  6627     047F  3F41               	moviw [1]fsr1
  6628     0480  00B5               	movwf	(OLED_Printf_Line@val_701+1)^(0+128)
  6629     0481  3F42               	moviw [2]fsr1
  6630     0482  00B6               	movwf	(OLED_Printf_Line@val_701+2)^(0+128)
  6631     0483  3F43               	moviw [3]fsr1
  6632     0484  00B7               	movwf	(OLED_Printf_Line@val_701+3)^(0+128)
  6633     0485                     l3303:
  6634     0485  3004               	movlw	4
  6635     0486  0020               	movlb	0	; select bank0
  6636     0487  00AA               	movwf	??_OLED_Printf_Line
  6637     0488  082A               	movf	??_OLED_Printf_Line,w
  6638     0489  0021               	movlb	1	; select bank1
  6639     048A  07C8               	addwf	OLED_Printf_Line@ap^(0+128),f
  6640     048B                     l3305:
  6641                           
  6642                           ;OLED_SSD1306.c: 461:                         char temp[11];;OLED_SSD1306.c: 462:       
      +                                            uint8_t i = 0;
  6643     048B  01BD               	clrf	OLED_Printf_Line@i_703^(0+128)
  6644     048C                     l3307:
  6645                           
  6646                           ;OLED_SSD1306.c: 464:                             temp[i++] = '0' + (val % 10);
  6647     048C  083D               	movf	OLED_Printf_Line@i_703^(0+128),w
  6648     048D  3E36               	addlw	(low (OLED_Printf_Line@temp_702| 0))& (0+255)
  6649     048E  0086               	movwf	6
  6650     048F  0187               	clrf	7
  6651     0490  3000               	movlw	0
  6652     0491  00F3               	movwf	___llmod@divisor+3
  6653     0492  3000               	movlw	0
  6654     0493  00F2               	movwf	___llmod@divisor+2
  6655     0494  3000               	movlw	0
  6656     0495  00F1               	movwf	___llmod@divisor+1
  6657     0496  300A               	movlw	10
  6658     0497  00F0               	movwf	___llmod@divisor
  6659     0498  0837               	movf	(OLED_Printf_Line@val_701+3)^(0+128),w
  6660     0499  00F7               	movwf	___llmod@dividend+3
  6661     049A  0836               	movf	(OLED_Printf_Line@val_701+2)^(0+128),w
  6662     049B  00F6               	movwf	___llmod@dividend+2
  6663     049C  0835               	movf	(OLED_Printf_Line@val_701+1)^(0+128),w
  6664     049D  00F5               	movwf	___llmod@dividend+1
  6665     049E  0834               	movf	OLED_Printf_Line@val_701^(0+128),w
  6666     049F  00F4               	movwf	___llmod@dividend
  6667     04A0  3194  240C  3183   	fcall	___llmod
  6668     04A3  0870               	movf	?___llmod,w
  6669     04A4  3E30               	addlw	48
  6670     04A5  0081               	movwf	1
  6671     04A6                     l3309:
  6672     04A6  3001               	movlw	1
  6673     04A7  0020               	movlb	0	; select bank0
  6674     04A8  00AA               	movwf	??_OLED_Printf_Line
  6675     04A9  082A               	movf	??_OLED_Printf_Line,w
  6676     04AA  0021               	movlb	1	; select bank1
  6677     04AB  07BD               	addwf	OLED_Printf_Line@i_703^(0+128),f
  6678     04AC                     l3311:
  6679                           
  6680                           ;OLED_SSD1306.c: 465:                             val /= 10;
  6681     04AC  3000               	movlw	0
  6682     04AD  00F3               	movwf	___lldiv@divisor+3
  6683     04AE  3000               	movlw	0
  6684     04AF  00F2               	movwf	___lldiv@divisor+2
  6685     04B0  3000               	movlw	0
  6686     04B1  00F1               	movwf	___lldiv@divisor+1
  6687     04B2  300A               	movlw	10
  6688     04B3  00F0               	movwf	___lldiv@divisor
  6689     04B4  0837               	movf	(OLED_Printf_Line@val_701+3)^(0+128),w
  6690     04B5  00F7               	movwf	___lldiv@dividend+3
  6691     04B6  0836               	movf	(OLED_Printf_Line@val_701+2)^(0+128),w
  6692     04B7  00F6               	movwf	___lldiv@dividend+2
  6693     04B8  0835               	movf	(OLED_Printf_Line@val_701+1)^(0+128),w
  6694     04B9  00F5               	movwf	___lldiv@dividend+1
  6695     04BA  0834               	movf	OLED_Printf_Line@val_701^(0+128),w
  6696     04BB  00F4               	movwf	___lldiv@dividend
  6697     04BC  3195  2591  3183   	fcall	___lldiv
  6698     04BF  0873               	movf	?___lldiv+3,w
  6699     04C0  0021               	movlb	1	; select bank1
  6700     04C1  00B7               	movwf	(OLED_Printf_Line@val_701+3)^(0+128)
  6701     04C2  0872               	movf	?___lldiv+2,w
  6702     04C3  00B6               	movwf	(OLED_Printf_Line@val_701+2)^(0+128)
  6703     04C4  0871               	movf	?___lldiv+1,w
  6704     04C5  00B5               	movwf	(OLED_Printf_Line@val_701+1)^(0+128)
  6705     04C6  0870               	movf	?___lldiv,w
  6706     04C7  00B4               	movwf	OLED_Printf_Line@val_701^(0+128)
  6707     04C8                     l3313:
  6708                           
  6709                           ;OLED_SSD1306.c: 466:                         } while (val && i < 11);
  6710     04C8  0837               	movf	(OLED_Printf_Line@val_701+3)^(0+128),w
  6711     04C9  0436               	iorwf	(OLED_Printf_Line@val_701+2)^(0+128),w
  6712     04CA  0435               	iorwf	(OLED_Printf_Line@val_701+1)^(0+128),w
  6713     04CB  0434               	iorwf	OLED_Printf_Line@val_701^(0+128),w
  6714     04CC  1903               	skipnz
  6715     04CD  2CCF               	goto	u3981
  6716     04CE  2CD0               	goto	u3980
  6717     04CF                     u3981:
  6718     04CF  2CE6               	goto	l3321
  6719     04D0                     u3980:
  6720     04D0                     l3315:
  6721     04D0  300B               	movlw	11
  6722     04D1  023D               	subwf	OLED_Printf_Line@i_703^(0+128),w
  6723     04D2  1C03               	skipc
  6724     04D3  2CD5               	goto	u3991
  6725     04D4  2CD6               	goto	u3990
  6726     04D5                     u3991:
  6727     04D5  2C8C               	goto	l3307
  6728     04D6                     u3990:
  6729     04D6  2CE6               	goto	l3321
  6730     04D7                     l3317:
  6731     04D7  084B               	movf	OLED_Printf_Line@dst^(0+128),w
  6732     04D8  0086               	movwf	6
  6733     04D9  0187               	clrf	7
  6734     04DA  083D               	movf	OLED_Printf_Line@i_703^(0+128),w
  6735     04DB  3E36               	addlw	(low (OLED_Printf_Line@temp_702| 0))& (0+255)
  6736     04DC  0084               	movwf	4
  6737     04DD  0185               	clrf	5
  6738     04DE  0800               	movf	0,w
  6739     04DF  0081               	movwf	1
  6740     04E0                     l3319:
  6741     04E0  3001               	movlw	1
  6742     04E1  0020               	movlb	0	; select bank0
  6743     04E2  00AA               	movwf	??_OLED_Printf_Line
  6744     04E3  082A               	movf	??_OLED_Printf_Line,w
  6745     04E4  0021               	movlb	1	; select bank1
  6746     04E5  07CB               	addwf	OLED_Printf_Line@dst^(0+128),f
  6747     04E6                     l3321:
  6748     04E6  3001               	movlw	1
  6749     04E7  02BD               	subwf	OLED_Printf_Line@i_703^(0+128),f
  6750     04E8  0A3D               	incf	OLED_Printf_Line@i_703^(0+128),w
  6751     04E9  1D03               	btfss	3,2
  6752     04EA  2CEC               	goto	u4001
  6753     04EB  2CED               	goto	u4000
  6754     04EC                     u4001:
  6755     04EC  2CD7               	goto	l3317
  6756     04ED                     u4000:
  6757     04ED  2DAB               	goto	l3365
  6758     04EE                     l3323:
  6759     04EE  0849               	movf	OLED_Printf_Line@src^(0+128),w
  6760     04EF  0084               	movwf	4
  6761     04F0  084A               	movf	(OLED_Printf_Line@src+1)^(0+128),w
  6762     04F1  0085               	movwf	5
  6763     04F2  0012               	moviw fsr0++
  6764     04F3  3A64               	xorlw	100
  6765     04F4  1D03               	btfss	3,2
  6766     04F5  2CF7               	goto	u4011
  6767     04F6  2CF8               	goto	u4010
  6768     04F7                     u4011:
  6769     04F7  2D86               	goto	l3355
  6770     04F8                     u4010:
  6771     04F8                     l3325:
  6772                           
  6773                           ;OLED_SSD1306.c: 469:                         int32_t val = (*(int32_t *)__va_arg(*(int3
      +                          2_t **)ap, (int32_t)0));
  6774     04F8  0848               	movf	OLED_Printf_Line@ap^(0+128),w
  6775     04F9  0086               	movwf	6
  6776     04FA  0187               	clrf	7
  6777     04FB  3F40               	moviw [0]fsr1
  6778     04FC  00C1               	movwf	OLED_Printf_Line@val_704^(0+128)
  6779     04FD  3F41               	moviw [1]fsr1
  6780     04FE  00C2               	movwf	(OLED_Printf_Line@val_704+1)^(0+128)
  6781     04FF  3F42               	moviw [2]fsr1
  6782     0500  00C3               	movwf	(OLED_Printf_Line@val_704+2)^(0+128)
  6783     0501  3F43               	moviw [3]fsr1
  6784     0502  00C4               	movwf	(OLED_Printf_Line@val_704+3)^(0+128)
  6785     0503                     l3327:
  6786     0503  3004               	movlw	4
  6787     0504  0020               	movlb	0	; select bank0
  6788     0505  00AA               	movwf	??_OLED_Printf_Line
  6789     0506  082A               	movf	??_OLED_Printf_Line,w
  6790     0507  0021               	movlb	1	; select bank1
  6791     0508  07C8               	addwf	OLED_Printf_Line@ap^(0+128),f
  6792     0509                     l3329:
  6793                           
  6794                           ;OLED_SSD1306.c: 470:                         if (val < 0) {
  6795     0509  1FC4               	btfss	(OLED_Printf_Line@val_704+3)^(0+128),7
  6796     050A  2D0C               	goto	u4021
  6797     050B  2D0D               	goto	u4020
  6798     050C                     u4021:
  6799     050C  2D23               	goto	l3337
  6800     050D                     u4020:
  6801     050D                     l3331:
  6802                           
  6803                           ;OLED_SSD1306.c: 471:                             *dst++ = '-';
  6804     050D  084B               	movf	OLED_Printf_Line@dst^(0+128),w
  6805     050E  0086               	movwf	6
  6806     050F  0187               	clrf	7
  6807     0510  302D               	movlw	45
  6808     0511  0081               	movwf	1
  6809     0512                     l3333:
  6810     0512  3001               	movlw	1
  6811     0513  0020               	movlb	0	; select bank0
  6812     0514  00AA               	movwf	??_OLED_Printf_Line
  6813     0515  082A               	movf	??_OLED_Printf_Line,w
  6814     0516  0021               	movlb	1	; select bank1
  6815     0517  07CB               	addwf	OLED_Printf_Line@dst^(0+128),f
  6816     0518                     l3335:
  6817                           
  6818                           ;OLED_SSD1306.c: 472:                             val = -val;
  6819     0518  09C1               	comf	OLED_Printf_Line@val_704^(0+128),f
  6820     0519  09C2               	comf	(OLED_Printf_Line@val_704+1)^(0+128),f
  6821     051A  09C3               	comf	(OLED_Printf_Line@val_704+2)^(0+128),f
  6822     051B  09C4               	comf	(OLED_Printf_Line@val_704+3)^(0+128),f
  6823     051C  0AC1               	incf	OLED_Printf_Line@val_704^(0+128),f
  6824     051D  1903               	skipnz
  6825     051E  0AC2               	incf	(OLED_Printf_Line@val_704+1)^(0+128),f
  6826     051F  1903               	skipnz
  6827     0520  0AC3               	incf	(OLED_Printf_Line@val_704+2)^(0+128),f
  6828     0521  1903               	skipnz
  6829     0522  0AC4               	incf	(OLED_Printf_Line@val_704+3)^(0+128),f
  6830     0523                     l3337:
  6831                           
  6832                           ;OLED_SSD1306.c: 474:                         char temp[11];;OLED_SSD1306.c: 475:       
      +                                            uint8_t i = 0;
  6833     0523  01BE               	clrf	OLED_Printf_Line@i_706^(0+128)
  6834     0524                     l3339:
  6835                           
  6836                           ;OLED_SSD1306.c: 477:                             temp[i++] = '0' + (val % 10);
  6837     0524  083E               	movf	OLED_Printf_Line@i_706^(0+128),w
  6838     0525  3E41               	addlw	(low (OLED_Printf_Line@temp_705| 0))& (0+255)
  6839     0526  0086               	movwf	6
  6840     0527  0187               	clrf	7
  6841     0528  3000               	movlw	0
  6842     0529  00F3               	movwf	___almod@divisor+3
  6843     052A  3000               	movlw	0
  6844     052B  00F2               	movwf	___almod@divisor+2
  6845     052C  3000               	movlw	0
  6846     052D  00F1               	movwf	___almod@divisor+1
  6847     052E  300A               	movlw	10
  6848     052F  00F0               	movwf	___almod@divisor
  6849     0530  0844               	movf	(OLED_Printf_Line@val_704+3)^(0+128),w
  6850     0531  00F7               	movwf	___almod@dividend+3
  6851     0532  0843               	movf	(OLED_Printf_Line@val_704+2)^(0+128),w
  6852     0533  00F6               	movwf	___almod@dividend+2
  6853     0534  0842               	movf	(OLED_Printf_Line@val_704+1)^(0+128),w
  6854     0535  00F5               	movwf	___almod@dividend+1
  6855     0536  0841               	movf	OLED_Printf_Line@val_704^(0+128),w
  6856     0537  00F4               	movwf	___almod@dividend
  6857     0538  318B  233F  3183   	fcall	___almod
  6858     053B  0870               	movf	?___almod,w
  6859     053C  3E30               	addlw	48
  6860     053D  0081               	movwf	1
  6861     053E                     l3341:
  6862     053E  3001               	movlw	1
  6863     053F  0020               	movlb	0	; select bank0
  6864     0540  00AA               	movwf	??_OLED_Printf_Line
  6865     0541  082A               	movf	??_OLED_Printf_Line,w
  6866     0542  0021               	movlb	1	; select bank1
  6867     0543  07BE               	addwf	OLED_Printf_Line@i_706^(0+128),f
  6868     0544                     l3343:
  6869                           
  6870                           ;OLED_SSD1306.c: 478:                             val /= 10;
  6871     0544  3000               	movlw	0
  6872     0545  00F3               	movwf	___aldiv@divisor+3
  6873     0546  3000               	movlw	0
  6874     0547  00F2               	movwf	___aldiv@divisor+2
  6875     0548  3000               	movlw	0
  6876     0549  00F1               	movwf	___aldiv@divisor+1
  6877     054A  300A               	movlw	10
  6878     054B  00F0               	movwf	___aldiv@divisor
  6879     054C  0844               	movf	(OLED_Printf_Line@val_704+3)^(0+128),w
  6880     054D  00F7               	movwf	___aldiv@dividend+3
  6881     054E  0843               	movf	(OLED_Printf_Line@val_704+2)^(0+128),w
  6882     054F  00F6               	movwf	___aldiv@dividend+2
  6883     0550  0842               	movf	(OLED_Printf_Line@val_704+1)^(0+128),w
  6884     0551  00F5               	movwf	___aldiv@dividend+1
  6885     0552  0841               	movf	OLED_Printf_Line@val_704^(0+128),w
  6886     0553  00F4               	movwf	___aldiv@dividend
  6887     0554  318B  23BA  3183   	fcall	___aldiv
  6888     0557  0873               	movf	?___aldiv+3,w
  6889     0558  0021               	movlb	1	; select bank1
  6890     0559  00C4               	movwf	(OLED_Printf_Line@val_704+3)^(0+128)
  6891     055A  0872               	movf	?___aldiv+2,w
  6892     055B  00C3               	movwf	(OLED_Printf_Line@val_704+2)^(0+128)
  6893     055C  0871               	movf	?___aldiv+1,w
  6894     055D  00C2               	movwf	(OLED_Printf_Line@val_704+1)^(0+128)
  6895     055E  0870               	movf	?___aldiv,w
  6896     055F  00C1               	movwf	OLED_Printf_Line@val_704^(0+128)
  6897     0560                     l3345:
  6898                           
  6899                           ;OLED_SSD1306.c: 479:                         } while (val && i < 11);
  6900     0560  0844               	movf	(OLED_Printf_Line@val_704+3)^(0+128),w
  6901     0561  0443               	iorwf	(OLED_Printf_Line@val_704+2)^(0+128),w
  6902     0562  0442               	iorwf	(OLED_Printf_Line@val_704+1)^(0+128),w
  6903     0563  0441               	iorwf	OLED_Printf_Line@val_704^(0+128),w
  6904     0564  1903               	skipnz
  6905     0565  2D67               	goto	u4031
  6906     0566  2D68               	goto	u4030
  6907     0567                     u4031:
  6908     0567  2D7E               	goto	l3353
  6909     0568                     u4030:
  6910     0568                     l3347:
  6911     0568  300B               	movlw	11
  6912     0569  023E               	subwf	OLED_Printf_Line@i_706^(0+128),w
  6913     056A  1C03               	skipc
  6914     056B  2D6D               	goto	u4041
  6915     056C  2D6E               	goto	u4040
  6916     056D                     u4041:
  6917     056D  2D24               	goto	l3339
  6918     056E                     u4040:
  6919     056E  2D7E               	goto	l3353
  6920     056F                     l3349:
  6921     056F  084B               	movf	OLED_Printf_Line@dst^(0+128),w
  6922     0570  0086               	movwf	6
  6923     0571  0187               	clrf	7
  6924     0572  083E               	movf	OLED_Printf_Line@i_706^(0+128),w
  6925     0573  3E41               	addlw	(low (OLED_Printf_Line@temp_705| 0))& (0+255)
  6926     0574  0084               	movwf	4
  6927     0575  0185               	clrf	5
  6928     0576  0800               	movf	0,w
  6929     0577  0081               	movwf	1
  6930     0578                     l3351:
  6931     0578  3001               	movlw	1
  6932     0579  0020               	movlb	0	; select bank0
  6933     057A  00AA               	movwf	??_OLED_Printf_Line
  6934     057B  082A               	movf	??_OLED_Printf_Line,w
  6935     057C  0021               	movlb	1	; select bank1
  6936     057D  07CB               	addwf	OLED_Printf_Line@dst^(0+128),f
  6937     057E                     l3353:
  6938     057E  3001               	movlw	1
  6939     057F  02BE               	subwf	OLED_Printf_Line@i_706^(0+128),f
  6940     0580  0A3E               	incf	OLED_Printf_Line@i_706^(0+128),w
  6941     0581  1D03               	btfss	3,2
  6942     0582  2D84               	goto	u4051
  6943     0583  2D85               	goto	u4050
  6944     0584                     u4051:
  6945     0584  2D6F               	goto	l3349
  6946     0585                     u4050:
  6947     0585  2DAB               	goto	l3365
  6948     0586                     l3355:
  6949                           
  6950                           ;OLED_SSD1306.c: 483:                         *dst++ = '%';
  6951     0586  084B               	movf	OLED_Printf_Line@dst^(0+128),w
  6952     0587  0086               	movwf	6
  6953     0588  0187               	clrf	7
  6954     0589  3025               	movlw	37
  6955     058A  0081               	movwf	1
  6956     058B                     l3357:
  6957     058B  3001               	movlw	1
  6958     058C  0020               	movlb	0	; select bank0
  6959     058D  00AA               	movwf	??_OLED_Printf_Line
  6960     058E  082A               	movf	??_OLED_Printf_Line,w
  6961     058F  0021               	movlb	1	; select bank1
  6962     0590  07CB               	addwf	OLED_Printf_Line@dst^(0+128),f
  6963     0591                     l3359:
  6964                           
  6965                           ;OLED_SSD1306.c: 484:                         *dst++ = 'l';
  6966     0591  084B               	movf	OLED_Printf_Line@dst^(0+128),w
  6967     0592  0086               	movwf	6
  6968     0593  0187               	clrf	7
  6969     0594  306C               	movlw	108
  6970     0595  0081               	movwf	1
  6971     0596  3001               	movlw	1
  6972     0597  0020               	movlb	0	; select bank0
  6973     0598  00AA               	movwf	??_OLED_Printf_Line
  6974     0599  082A               	movf	??_OLED_Printf_Line,w
  6975     059A  0021               	movlb	1	; select bank1
  6976     059B  07CB               	addwf	OLED_Printf_Line@dst^(0+128),f
  6977     059C                     l3361:
  6978                           
  6979                           ;OLED_SSD1306.c: 485:                         *dst++ = *src;
  6980     059C  084B               	movf	OLED_Printf_Line@dst^(0+128),w
  6981     059D  0086               	movwf	6
  6982     059E  0187               	clrf	7
  6983     059F  0849               	movf	OLED_Printf_Line@src^(0+128),w
  6984     05A0  0084               	movwf	4
  6985     05A1  084A               	movf	(OLED_Printf_Line@src+1)^(0+128),w
  6986     05A2  0085               	movwf	5
  6987     05A3  0800               	movf	0,w	;code access
  6988     05A4  0081               	movwf	1
  6989     05A5                     l3363:
  6990     05A5  3001               	movlw	1
  6991     05A6  0020               	movlb	0	; select bank0
  6992     05A7  00AA               	movwf	??_OLED_Printf_Line
  6993     05A8  082A               	movf	??_OLED_Printf_Line,w
  6994     05A9  0021               	movlb	1	; select bank1
  6995     05AA  07CB               	addwf	OLED_Printf_Line@dst^(0+128),f
  6996     05AB                     l3365:
  6997                           
  6998                           ;OLED_SSD1306.c: 487:                     src++;
  6999     05AB  3001               	movlw	1
  7000     05AC  07C9               	addwf	OLED_Printf_Line@src^(0+128),f
  7001     05AD  3000               	movlw	0
  7002     05AE  3DCA               	addwfc	(OLED_Printf_Line@src+1)^(0+128),f
  7003                           
  7004                           ;OLED_SSD1306.c: 488:                     break;
  7005     05AF  2EE9               	goto	l3453
  7006     05B0                     l3367:
  7007                           
  7008                           ;OLED_SSD1306.c: 491:                     uint16_t val = (*(unsigned int *)__va_arg(*(un
      +                          signed int **)ap, (unsigned int)0));
  7009     05B0  0848               	movf	OLED_Printf_Line@ap^(0+128),w
  7010     05B1  0086               	movwf	6
  7011     05B2  0187               	clrf	7
  7012     05B3  3F40               	moviw [0]fsr1
  7013     05B4  00B8               	movwf	OLED_Printf_Line@val_707^(0+128)
  7014     05B5  3F41               	moviw [1]fsr1
  7015     05B6  00B9               	movwf	(OLED_Printf_Line@val_707+1)^(0+128)
  7016     05B7                     l3369:
  7017     05B7  3002               	movlw	2
  7018     05B8  0020               	movlb	0	; select bank0
  7019     05B9  00AA               	movwf	??_OLED_Printf_Line
  7020     05BA  082A               	movf	??_OLED_Printf_Line,w
  7021     05BB  0021               	movlb	1	; select bank1
  7022     05BC  07C8               	addwf	OLED_Printf_Line@ap^(0+128),f
  7023     05BD                     l3371:
  7024                           
  7025                           ;OLED_SSD1306.c: 492:                     char temp[6];;OLED_SSD1306.c: 493:            
      +                                   uint8_t i = 0;
  7026     05BD  01BF               	clrf	OLED_Printf_Line@i_709^(0+128)
  7027     05BE                     l3373:
  7028                           
  7029                           ;OLED_SSD1306.c: 495:                         temp[i++] = '0' + (val % 10);
  7030     05BE  083F               	movf	OLED_Printf_Line@i_709^(0+128),w
  7031     05BF  3EA6               	addlw	(low (OLED_Printf_Line@temp_708| 0))& (0+255)
  7032     05C0  0086               	movwf	6
  7033     05C1  0187               	clrf	7
  7034     05C2  300A               	movlw	10
  7035     05C3  00F0               	movwf	___lwmod@divisor
  7036     05C4  3000               	movlw	0
  7037     05C5  00F1               	movwf	___lwmod@divisor+1
  7038     05C6  0839               	movf	(OLED_Printf_Line@val_707+1)^(0+128),w
  7039     05C7  00F3               	movwf	___lwmod@dividend+1
  7040     05C8  0838               	movf	OLED_Printf_Line@val_707^(0+128),w
  7041     05C9  00F2               	movwf	___lwmod@dividend
  7042     05CA  318B  230B  3183   	fcall	___lwmod
  7043     05CD  0870               	movf	?___lwmod,w
  7044     05CE  3E30               	addlw	48
  7045     05CF  0081               	movwf	1
  7046     05D0                     l3375:
  7047     05D0  3001               	movlw	1
  7048     05D1  0020               	movlb	0	; select bank0
  7049     05D2  00AA               	movwf	??_OLED_Printf_Line
  7050     05D3  082A               	movf	??_OLED_Printf_Line,w
  7051     05D4  0021               	movlb	1	; select bank1
  7052     05D5  07BF               	addwf	OLED_Printf_Line@i_709^(0+128),f
  7053     05D6                     l3377:
  7054                           
  7055                           ;OLED_SSD1306.c: 496:                         val /= 10;
  7056     05D6  300A               	movlw	10
  7057     05D7  00F0               	movwf	___lwdiv@divisor
  7058     05D8  3000               	movlw	0
  7059     05D9  00F1               	movwf	___lwdiv@divisor+1
  7060     05DA  0839               	movf	(OLED_Printf_Line@val_707+1)^(0+128),w
  7061     05DB  00F3               	movwf	___lwdiv@dividend+1
  7062     05DC  0838               	movf	OLED_Printf_Line@val_707^(0+128),w
  7063     05DD  00F2               	movwf	___lwdiv@dividend
  7064     05DE  3193  238F  3183   	fcall	___lwdiv
  7065     05E1  0871               	movf	?___lwdiv+1,w
  7066     05E2  0021               	movlb	1	; select bank1
  7067     05E3  00B9               	movwf	(OLED_Printf_Line@val_707+1)^(0+128)
  7068     05E4  0870               	movf	?___lwdiv,w
  7069     05E5  00B8               	movwf	OLED_Printf_Line@val_707^(0+128)
  7070     05E6                     l3379:
  7071                           
  7072                           ;OLED_SSD1306.c: 497:                     } while (val && i < 6);
  7073     05E6  0838               	movf	OLED_Printf_Line@val_707^(0+128),w
  7074     05E7  0439               	iorwf	(OLED_Printf_Line@val_707+1)^(0+128),w
  7075     05E8  1903               	btfsc	3,2
  7076     05E9  2DEB               	goto	u4061
  7077     05EA  2DEC               	goto	u4060
  7078     05EB                     u4061:
  7079     05EB  2E02               	goto	l3387
  7080     05EC                     u4060:
  7081     05EC                     l3381:
  7082     05EC  3006               	movlw	6
  7083     05ED  023F               	subwf	OLED_Printf_Line@i_709^(0+128),w
  7084     05EE  1C03               	skipc
  7085     05EF  2DF1               	goto	u4071
  7086     05F0  2DF2               	goto	u4070
  7087     05F1                     u4071:
  7088     05F1  2DBE               	goto	l3373
  7089     05F2                     u4070:
  7090     05F2  2E02               	goto	l3387
  7091     05F3                     l3383:
  7092     05F3  084B               	movf	OLED_Printf_Line@dst^(0+128),w
  7093     05F4  0086               	movwf	6
  7094     05F5  0187               	clrf	7
  7095     05F6  083F               	movf	OLED_Printf_Line@i_709^(0+128),w
  7096     05F7  3EA6               	addlw	(low (OLED_Printf_Line@temp_708| 0))& (0+255)
  7097     05F8  0084               	movwf	4
  7098     05F9  0185               	clrf	5
  7099     05FA  0800               	movf	0,w
  7100     05FB  0081               	movwf	1
  7101     05FC                     l3385:
  7102     05FC  3001               	movlw	1
  7103     05FD  0020               	movlb	0	; select bank0
  7104     05FE  00AA               	movwf	??_OLED_Printf_Line
  7105     05FF  082A               	movf	??_OLED_Printf_Line,w
  7106     0600  0021               	movlb	1	; select bank1
  7107     0601  07CB               	addwf	OLED_Printf_Line@dst^(0+128),f
  7108     0602                     l3387:
  7109     0602  3001               	movlw	1
  7110     0603  02BF               	subwf	OLED_Printf_Line@i_709^(0+128),f
  7111     0604  0A3F               	incf	OLED_Printf_Line@i_709^(0+128),w
  7112     0605  1D03               	btfss	3,2
  7113     0606  2E08               	goto	u4081
  7114     0607  2E09               	goto	u4080
  7115     0608                     u4081:
  7116     0608  2DF3               	goto	l3383
  7117     0609                     u4080:
  7118     0609  2EE9               	goto	l3453
  7119     060A                     l3389:
  7120                           
  7121                           ;OLED_SSD1306.c: 502:                     uint16_t val = (*(unsigned int *)__va_arg(*(un
      +                          signed int **)ap, (unsigned int)0));
  7122     060A  0848               	movf	OLED_Printf_Line@ap^(0+128),w
  7123     060B  0086               	movwf	6
  7124     060C  0187               	clrf	7
  7125     060D  3F40               	moviw [0]fsr1
  7126     060E  0020               	movlb	0	; select bank0
  7127     060F  00EE               	movwf	OLED_Printf_Line@val_710
  7128     0610  3F41               	moviw [1]fsr1
  7129     0611  00EF               	movwf	OLED_Printf_Line@val_710+1
  7130     0612                     l3391:
  7131     0612  3002               	movlw	2
  7132     0613  00AA               	movwf	??_OLED_Printf_Line
  7133     0614  082A               	movf	??_OLED_Printf_Line,w
  7134     0615  0021               	movlb	1	; select bank1
  7135     0616  07C8               	addwf	OLED_Printf_Line@ap^(0+128),f
  7136     0617                     l3393:
  7137                           
  7138                           ;OLED_SSD1306.c: 503:                     char temp[5];;OLED_SSD1306.c: 504:            
      +                                   uint8_t i = 0;
  7139     0617  01C0               	clrf	OLED_Printf_Line@i_712^(0+128)
  7140     0618                     l3395:
  7141                           
  7142                           ;OLED_SSD1306.c: 506:                         uint8_t nibble = val & 0xF;
  7143     0618  0020               	movlb	0	; select bank0
  7144     0619  086E               	movf	OLED_Printf_Line@val_710,w
  7145     061A  390F               	andlw	15
  7146     061B  0021               	movlb	1	; select bank1
  7147     061C  00BA               	movwf	OLED_Printf_Line@nibble^(0+128)
  7148     061D                     l3397:
  7149                           
  7150                           ;OLED_SSD1306.c: 507:                         temp[i++] = (nibble < 10) ? ('0' + nibble)
      +                           : ('A' + nibble - 10);
  7151     061D  300A               	movlw	10
  7152     061E  023A               	subwf	OLED_Printf_Line@nibble^(0+128),w
  7153     061F  1C03               	skipc
  7154     0620  2E22               	goto	u4091
  7155     0621  2E23               	goto	u4090
  7156     0622                     u4091:
  7157     0622  2E2C               	goto	l3401
  7158     0623                     u4090:
  7159     0623                     l3399:
  7160     0623  083A               	movf	OLED_Printf_Line@nibble^(0+128),w
  7161     0624  3E37               	addlw	55
  7162     0625  0020               	movlb	0	; select bank0
  7163     0626  00EC               	movwf	_OLED_Printf_Line$714
  7164     0627  3000               	movlw	0
  7165     0628  1803               	skipnc
  7166     0629  3001               	movlw	1
  7167     062A  00ED               	movwf	_OLED_Printf_Line$714+1
  7168     062B  2E34               	goto	l3403
  7169     062C                     l3401:
  7170     062C  083A               	movf	OLED_Printf_Line@nibble^(0+128),w
  7171     062D  3E30               	addlw	48
  7172     062E  0020               	movlb	0	; select bank0
  7173     062F  00EC               	movwf	_OLED_Printf_Line$714
  7174     0630  3000               	movlw	0
  7175     0631  1803               	skipnc
  7176     0632  3001               	movlw	1
  7177     0633  00ED               	movwf	_OLED_Printf_Line$714+1
  7178     0634                     l3403:
  7179     0634  0021               	movlb	1	; select bank1
  7180     0635  0840               	movf	OLED_Printf_Line@i_712^(0+128),w
  7181     0636  3EAC               	addlw	(low (OLED_Printf_Line@temp_711| 0))& (0+255)
  7182     0637  0086               	movwf	6
  7183     0638  0187               	clrf	7
  7184     0639  0020               	movlb	0	; select bank0
  7185     063A  086C               	movf	_OLED_Printf_Line$714,w
  7186     063B  0081               	movwf	1
  7187     063C                     l3405:
  7188     063C  3001               	movlw	1
  7189     063D  00AA               	movwf	??_OLED_Printf_Line
  7190     063E  082A               	movf	??_OLED_Printf_Line,w
  7191     063F  0021               	movlb	1	; select bank1
  7192     0640  07C0               	addwf	OLED_Printf_Line@i_712^(0+128),f
  7193     0641                     l3407:
  7194                           
  7195                           ;OLED_SSD1306.c: 508:                         val >>= 4;
  7196     0641  3004               	movlw	4
  7197     0642  0020               	movlb	0	; select bank0
  7198     0643                     u4105:
  7199     0643  36EF               	lsrf	OLED_Printf_Line@val_710+1,f
  7200     0644  0CEE               	rrf	OLED_Printf_Line@val_710,f
  7201     0645  0B89               	decfsz	9,f
  7202     0646  2E43               	goto	u4105
  7203     0647                     l3409:
  7204                           
  7205                           ;OLED_SSD1306.c: 509:                     } while (val && i < 5);
  7206     0647  086E               	movf	OLED_Printf_Line@val_710,w
  7207     0648  046F               	iorwf	OLED_Printf_Line@val_710+1,w
  7208     0649  1903               	btfsc	3,2
  7209     064A  2E4C               	goto	u4111
  7210     064B  2E4D               	goto	u4110
  7211     064C                     u4111:
  7212     064C  2E64               	goto	l3417
  7213     064D                     u4110:
  7214     064D                     l3411:
  7215     064D  3005               	movlw	5
  7216     064E  0021               	movlb	1	; select bank1
  7217     064F  0240               	subwf	OLED_Printf_Line@i_712^(0+128),w
  7218     0650  1C03               	skipc
  7219     0651  2E53               	goto	u4121
  7220     0652  2E54               	goto	u4120
  7221     0653                     u4121:
  7222     0653  2E18               	goto	l3395
  7223     0654                     u4120:
  7224     0654  2E64               	goto	l3417
  7225     0655                     l3413:
  7226     0655  084B               	movf	OLED_Printf_Line@dst^(0+128),w
  7227     0656  0086               	movwf	6
  7228     0657  0187               	clrf	7
  7229     0658  0840               	movf	OLED_Printf_Line@i_712^(0+128),w
  7230     0659  3EAC               	addlw	(low (OLED_Printf_Line@temp_711| 0))& (0+255)
  7231     065A  0084               	movwf	4
  7232     065B  0185               	clrf	5
  7233     065C  0800               	movf	0,w
  7234     065D  0081               	movwf	1
  7235     065E                     l3415:
  7236     065E  3001               	movlw	1
  7237     065F  0020               	movlb	0	; select bank0
  7238     0660  00AA               	movwf	??_OLED_Printf_Line
  7239     0661  082A               	movf	??_OLED_Printf_Line,w
  7240     0662  0021               	movlb	1	; select bank1
  7241     0663  07CB               	addwf	OLED_Printf_Line@dst^(0+128),f
  7242     0664                     l3417:
  7243     0664  3001               	movlw	1
  7244     0665  0021               	movlb	1	; select bank1
  7245     0666  02C0               	subwf	OLED_Printf_Line@i_712^(0+128),f
  7246     0667  0A40               	incf	OLED_Printf_Line@i_712^(0+128),w
  7247     0668  1D03               	btfss	3,2
  7248     0669  2E6B               	goto	u4131
  7249     066A  2E6C               	goto	u4130
  7250     066B                     u4131:
  7251     066B  2E55               	goto	l3413
  7252     066C                     u4130:
  7253     066C  2EE9               	goto	l3453
  7254     066D                     l3419:
  7255                           
  7256                           ;OLED_SSD1306.c: 514:                     const char *str = (*(const char* *)__va_arg(*(
      +                          const char* **)ap, (const char*)0));
  7257     066D  0848               	movf	OLED_Printf_Line@ap^(0+128),w
  7258     066E  0086               	movwf	6
  7259     066F  0187               	clrf	7
  7260     0670  0801               	movf	1,w
  7261     0671  00B1               	movwf	OLED_Printf_Line@str^(0+128)
  7262     0672                     l3421:
  7263     0672  3001               	movlw	1
  7264     0673  0020               	movlb	0	; select bank0
  7265     0674  00AA               	movwf	??_OLED_Printf_Line
  7266     0675  082A               	movf	??_OLED_Printf_Line,w
  7267     0676  0021               	movlb	1	; select bank1
  7268     0677  07C8               	addwf	OLED_Printf_Line@ap^(0+128),f
  7269                           
  7270                           ;OLED_SSD1306.c: 515:                     while (*str && (dst - buf) < 31) {
  7271     0678  2E8D               	goto	l3429
  7272     0679                     l3423:
  7273                           
  7274                           ;OLED_SSD1306.c: 516:                         *dst++ = *str++;
  7275     0679  084B               	movf	OLED_Printf_Line@dst^(0+128),w
  7276     067A  0086               	movwf	6
  7277     067B  0187               	clrf	7
  7278     067C  0831               	movf	OLED_Printf_Line@str^(0+128),w
  7279     067D  0084               	movwf	4
  7280     067E  0185               	clrf	5
  7281     067F  0800               	movf	0,w
  7282     0680  0081               	movwf	1
  7283     0681                     l3425:
  7284     0681  3001               	movlw	1
  7285     0682  0020               	movlb	0	; select bank0
  7286     0683  00AA               	movwf	??_OLED_Printf_Line
  7287     0684  082A               	movf	??_OLED_Printf_Line,w
  7288     0685  0021               	movlb	1	; select bank1
  7289     0686  07B1               	addwf	OLED_Printf_Line@str^(0+128),f
  7290     0687                     l3427:
  7291     0687  3001               	movlw	1
  7292     0688  0020               	movlb	0	; select bank0
  7293     0689  00AA               	movwf	??_OLED_Printf_Line
  7294     068A  082A               	movf	??_OLED_Printf_Line,w
  7295     068B  0021               	movlb	1	; select bank1
  7296     068C  07CB               	addwf	OLED_Printf_Line@dst^(0+128),f
  7297     068D                     l3429:
  7298                           
  7299                           ;OLED_SSD1306.c: 515:                     while (*str && (dst - buf) < 31) {
  7300     068D  0831               	movf	OLED_Printf_Line@str^(0+128),w
  7301     068E  0086               	movwf	6
  7302     068F  0187               	clrf	7
  7303     0690  0801               	movf	1,w
  7304     0691  1903               	btfsc	3,2
  7305     0692  2E94               	goto	u4141
  7306     0693  2E95               	goto	u4140
  7307     0694                     u4141:
  7308     0694  2EE9               	goto	l3453
  7309     0695                     u4140:
  7310     0695                     l3431:
  7311     0695  304C               	movlw	(low OLED_Printf_Line@buf)& (0+255)
  7312     0696  024B               	subwf	OLED_Printf_Line@dst^(0+128),w
  7313     0697  3A80               	xorlw	128
  7314     0698  3E61               	addlw	-159
  7315     0699  1C03               	skipc
  7316     069A  2E9C               	goto	u4151
  7317     069B  2E9D               	goto	u4150
  7318     069C                     u4151:
  7319     069C  2E79               	goto	l3423
  7320     069D                     u4150:
  7321     069D  2EE9               	goto	l3453
  7322     069E                     l3433:
  7323                           
  7324                           ;OLED_SSD1306.c: 521:                     *dst++ = (char)(*(int *)__va_arg(*(int **)ap, 
      +                          (int)0));
  7325     069E  084B               	movf	OLED_Printf_Line@dst^(0+128),w
  7326     069F  0086               	movwf	6
  7327     06A0  0187               	clrf	7
  7328     06A1  0848               	movf	OLED_Printf_Line@ap^(0+128),w
  7329     06A2  0084               	movwf	4
  7330     06A3  0185               	clrf	5
  7331     06A4  0800               	movf	0,w
  7332     06A5  0081               	movwf	1
  7333     06A6                     l3435:
  7334     06A6  3002               	movlw	2
  7335     06A7  0020               	movlb	0	; select bank0
  7336     06A8  00AA               	movwf	??_OLED_Printf_Line
  7337     06A9  082A               	movf	??_OLED_Printf_Line,w
  7338     06AA  0021               	movlb	1	; select bank1
  7339     06AB  07C8               	addwf	OLED_Printf_Line@ap^(0+128),f
  7340     06AC                     l3437:
  7341     06AC  3001               	movlw	1
  7342     06AD  0020               	movlb	0	; select bank0
  7343     06AE  00AA               	movwf	??_OLED_Printf_Line
  7344     06AF  082A               	movf	??_OLED_Printf_Line,w
  7345     06B0  0021               	movlb	1	; select bank1
  7346     06B1  07CB               	addwf	OLED_Printf_Line@dst^(0+128),f
  7347                           
  7348                           ;OLED_SSD1306.c: 522:                     break;
  7349     06B2  2EE9               	goto	l3453
  7350     06B3                     l3439:
  7351                           
  7352                           ;OLED_SSD1306.c: 525:                     *dst++ = '%';
  7353     06B3  084B               	movf	OLED_Printf_Line@dst^(0+128),w
  7354     06B4  0086               	movwf	6
  7355     06B5  0187               	clrf	7
  7356     06B6  3025               	movlw	37
  7357     06B7  0081               	movwf	1
  7358     06B8  2EAC               	goto	l3437
  7359     06B9                     l3443:
  7360                           
  7361                           ;OLED_SSD1306.c: 529:                     *dst++ = '%';
  7362     06B9  084B               	movf	OLED_Printf_Line@dst^(0+128),w
  7363     06BA  0086               	movwf	6
  7364     06BB  0187               	clrf	7
  7365     06BC  3025               	movlw	37
  7366     06BD  0081               	movwf	1
  7367     06BE                     l3445:
  7368     06BE  3001               	movlw	1
  7369     06BF  0020               	movlb	0	; select bank0
  7370     06C0  00AA               	movwf	??_OLED_Printf_Line
  7371     06C1  082A               	movf	??_OLED_Printf_Line,w
  7372     06C2  0021               	movlb	1	; select bank1
  7373     06C3  07CB               	addwf	OLED_Printf_Line@dst^(0+128),f
  7374     06C4                     l3447:
  7375                           
  7376                           ;OLED_SSD1306.c: 530:                     *dst++ = *src;
  7377     06C4  084B               	movf	OLED_Printf_Line@dst^(0+128),w
  7378     06C5  0086               	movwf	6
  7379     06C6  0187               	clrf	7
  7380     06C7  0849               	movf	OLED_Printf_Line@src^(0+128),w
  7381     06C8  0084               	movwf	4
  7382     06C9  084A               	movf	(OLED_Printf_Line@src+1)^(0+128),w
  7383     06CA  0085               	movwf	5
  7384     06CB  0800               	movf	0,w	;code access
  7385     06CC  0081               	movwf	1
  7386     06CD  2EAC               	goto	l3437
  7387     06CE                     l3451:
  7388     06CE  0849               	movf	OLED_Printf_Line@src^(0+128),w
  7389     06CF  0084               	movwf	4
  7390     06D0  084A               	movf	(OLED_Printf_Line@src+1)^(0+128),w
  7391     06D1  0085               	movwf	5
  7392     06D2  0800               	movf	0,w	;code access
  7393                           
  7394                           ; Switch size 1, requested type "simple"
  7395                           ; Number of cases is 7, Range of values is 37 to 120
  7396                           ; switch strategies available:
  7397                           ; Name         Instructions Cycles
  7398                           ; simple_byte           22    12 (average)
  7399                           ; direct_byte          177     9 (fixed)
  7400                           ; jumptable            263     9 (fixed)
  7401                           ;	Chosen strategy is simple_byte
  7402     06D3  3A25               	xorlw	37	; case 37
  7403     06D4  1903               	skipnz
  7404     06D5  2EB3               	goto	l3439
  7405     06D6  3A46               	xorlw	70	; case 99
  7406     06D7  1903               	skipnz
  7407     06D8  2E9E               	goto	l3433
  7408     06D9  3A07               	xorlw	7	; case 100
  7409     06DA  1903               	skipnz
  7410     06DB  2BFE               	goto	l3267
  7411     06DC  3A08               	xorlw	8	; case 108
  7412     06DD  1903               	skipnz
  7413     06DE  2C6C               	goto	l3297
  7414     06DF  3A1F               	xorlw	31	; case 115
  7415     06E0  1903               	skipnz
  7416     06E1  2E6D               	goto	l3419
  7417     06E2  3A06               	xorlw	6	; case 117
  7418     06E3  1903               	skipnz
  7419     06E4  2DB0               	goto	l3367
  7420     06E5  3A0D               	xorlw	13	; case 120
  7421     06E6  1903               	skipnz
  7422     06E7  2E0A               	goto	l3389
  7423     06E8  2EB9               	goto	l3443
  7424     06E9                     l3453:
  7425                           
  7426                           ;OLED_SSD1306.c: 532:             src++;
  7427     06E9  3001               	movlw	1
  7428     06EA  07C9               	addwf	OLED_Printf_Line@src^(0+128),f
  7429     06EB  3000               	movlw	0
  7430     06EC  3DCA               	addwfc	(OLED_Printf_Line@src+1)^(0+128),f
  7431                           
  7432                           ;OLED_SSD1306.c: 533:         } else {
  7433     06ED  2F01               	goto	l3461
  7434     06EE                     l3455:
  7435                           
  7436                           ;OLED_SSD1306.c: 534:             *dst++ = *src++;
  7437     06EE  084B               	movf	OLED_Printf_Line@dst^(0+128),w
  7438     06EF  0086               	movwf	6
  7439     06F0  0187               	clrf	7
  7440     06F1  0849               	movf	OLED_Printf_Line@src^(0+128),w
  7441     06F2  0084               	movwf	4
  7442     06F3  084A               	movf	(OLED_Printf_Line@src+1)^(0+128),w
  7443     06F4  0085               	movwf	5
  7444     06F5  0800               	movf	0,w	;code access
  7445     06F6  0081               	movwf	1
  7446     06F7                     l3457:
  7447     06F7  3001               	movlw	1
  7448     06F8  07C9               	addwf	OLED_Printf_Line@src^(0+128),f
  7449     06F9  3000               	movlw	0
  7450     06FA  3DCA               	addwfc	(OLED_Printf_Line@src+1)^(0+128),f
  7451     06FB                     l3459:
  7452     06FB  3001               	movlw	1
  7453     06FC  0020               	movlb	0	; select bank0
  7454     06FD  00AA               	movwf	??_OLED_Printf_Line
  7455     06FE  082A               	movf	??_OLED_Printf_Line,w
  7456     06FF  0021               	movlb	1	; select bank1
  7457     0700  07CB               	addwf	OLED_Printf_Line@dst^(0+128),f
  7458     0701                     l3461:
  7459                           
  7460                           ;OLED_SSD1306.c: 437:     while (*src && (dst - buf) < 31) {
  7461     0701  0849               	movf	OLED_Printf_Line@src^(0+128),w
  7462     0702  0084               	movwf	4
  7463     0703  084A               	movf	(OLED_Printf_Line@src+1)^(0+128),w
  7464     0704  0085               	movwf	5
  7465     0705  0012               	moviw fsr0++
  7466     0706  1903               	btfsc	3,2
  7467     0707  2F09               	goto	u4161
  7468     0708  2F0A               	goto	u4160
  7469     0709                     u4161:
  7470     0709  2F12               	goto	l3465
  7471     070A                     u4160:
  7472     070A                     l3463:
  7473     070A  304C               	movlw	(low OLED_Printf_Line@buf)& (0+255)
  7474     070B  024B               	subwf	OLED_Printf_Line@dst^(0+128),w
  7475     070C  3A80               	xorlw	128
  7476     070D  3E61               	addlw	-159
  7477     070E  1C03               	skipc
  7478     070F  2F11               	goto	u4171
  7479     0710  2F12               	goto	u4170
  7480     0711                     u4171:
  7481     0711  2BEF               	goto	l3263
  7482     0712                     u4170:
  7483     0712                     l3465:
  7484                           
  7485                           ;OLED_SSD1306.c: 537:     *dst = '\0';
  7486     0712  084B               	movf	OLED_Printf_Line@dst^(0+128),w
  7487     0713  0086               	movwf	6
  7488     0714  0187               	clrf	7
  7489     0715  0181               	clrf	1
  7490     0716                     l3467:
  7491                           
  7492                           ;OLED_SSD1306.c: 541:     if (strcmp(buf, last_text[line]) == 0) return;
  7493     0716  0847               	movf	OLED_Printf_Line@line^(0+128),w
  7494     0717  0020               	movlb	0	; select bank0
  7495     0718  00AA               	movwf	??_OLED_Printf_Line
  7496     0719  01AB               	clrf	??_OLED_Printf_Line+1
  7497     071A  3005               	movlw	5
  7498     071B                     u4185:
  7499     071B  35AA               	lslf	??_OLED_Printf_Line,f
  7500     071C  0DAB               	rlf	??_OLED_Printf_Line+1,f
  7501     071D  0B89               	decfsz	9,f
  7502     071E  2F1B               	goto	u4185
  7503     071F  30F0               	movlw	240
  7504     0720  00AC               	movwf	??_OLED_Printf_Line+2
  7505     0721  3026               	movlw	38
  7506     0722  00AD               	movwf	??_OLED_Printf_Line+3
  7507     0723  082A               	movf	??_OLED_Printf_Line,w
  7508     0724  072C               	addwf	??_OLED_Printf_Line+2,w
  7509     0725  00AE               	movwf	??_OLED_Printf_Line+4
  7510     0726  082B               	movf	??_OLED_Printf_Line+1,w
  7511     0727  3D2D               	addwfc	??_OLED_Printf_Line+3,w
  7512     0728  00AF               	movwf	??_OLED_Printf_Line+5
  7513     0729  082E               	movf	??_OLED_Printf_Line+4,w
  7514     072A  00F0               	movwf	strcmp@r
  7515     072B  082F               	movf	??_OLED_Printf_Line+5,w
  7516     072C  00F1               	movwf	strcmp@r+1
  7517     072D  304C               	movlw	(low (OLED_Printf_Line@buf| 0))& (0+255)
  7518     072E  3193  2302  3183   	fcall	_strcmp
  7519     0731  0870               	movf	?_strcmp,w
  7520     0732  0471               	iorwf	?_strcmp+1,w
  7521     0733  1D03               	btfss	3,2
  7522     0734  2F36               	goto	u4191
  7523     0735  2F37               	goto	u4190
  7524     0736                     u4191:
  7525     0736  2F38               	goto	l3471
  7526     0737                     u4190:
  7527     0737  2FF1               	goto	l262
  7528     0738                     l3471:
  7529                           
  7530                           ;OLED_SSD1306.c: 542:     strcpy(last_text[line], buf);
  7531     0738  0021               	movlb	1	; select bank1
  7532     0739  0847               	movf	OLED_Printf_Line@line^(0+128),w
  7533     073A  0020               	movlb	0	; select bank0
  7534     073B  00AA               	movwf	??_OLED_Printf_Line
  7535     073C  01AB               	clrf	??_OLED_Printf_Line+1
  7536     073D  3005               	movlw	5
  7537     073E                     u4205:
  7538     073E  35AA               	lslf	??_OLED_Printf_Line,f
  7539     073F  0DAB               	rlf	??_OLED_Printf_Line+1,f
  7540     0740  0B89               	decfsz	9,f
  7541     0741  2F3E               	goto	u4205
  7542     0742  30F0               	movlw	240
  7543     0743  00AC               	movwf	??_OLED_Printf_Line+2
  7544     0744  3026               	movlw	38
  7545     0745  00AD               	movwf	??_OLED_Printf_Line+3
  7546     0746  082A               	movf	??_OLED_Printf_Line,w
  7547     0747  072C               	addwf	??_OLED_Printf_Line+2,w
  7548     0748  00F0               	movwf	strcpy@dest
  7549     0749  082B               	movf	??_OLED_Printf_Line+1,w
  7550     074A  3D2D               	addwfc	??_OLED_Printf_Line+3,w
  7551     074B  00F1               	movwf	strcpy@dest+1
  7552     074C  304C               	movlw	(low (OLED_Printf_Line@buf| 0))& (0+255)
  7553     074D  00F2               	movwf	strcpy@src
  7554     074E  3191  21CB  3183   	fcall	_strcpy
  7555     0751                     l3473:
  7556                           
  7557                           ;OLED_SSD1306.c: 545:     memset(screen_buffer[line], 0, 128);
  7558     0751  0021               	movlb	1	; select bank1
  7559     0752  0847               	movf	OLED_Printf_Line@line^(0+128),w
  7560     0753  0020               	movlb	0	; select bank0
  7561     0754  00AA               	movwf	??_OLED_Printf_Line
  7562     0755  01AB               	clrf	??_OLED_Printf_Line+1
  7563     0756  3007               	movlw	7
  7564     0757                     u4215:
  7565     0757  35AA               	lslf	??_OLED_Printf_Line,f
  7566     0758  0DAB               	rlf	??_OLED_Printf_Line+1,f
  7567     0759  0B89               	decfsz	9,f
  7568     075A  2F57               	goto	u4215
  7569     075B  30F0               	movlw	240
  7570     075C  00AC               	movwf	??_OLED_Printf_Line+2
  7571     075D  3024               	movlw	36
  7572     075E  00AD               	movwf	??_OLED_Printf_Line+3
  7573     075F  082A               	movf	??_OLED_Printf_Line,w
  7574     0760  072C               	addwf	??_OLED_Printf_Line+2,w
  7575     0761  00F0               	movwf	memset@dest
  7576     0762  082B               	movf	??_OLED_Printf_Line+1,w
  7577     0763  3D2D               	addwfc	??_OLED_Printf_Line+3,w
  7578     0764  00F1               	movwf	memset@dest+1
  7579     0765  3000               	movlw	0
  7580     0766  00F2               	movwf	memset@c
  7581     0767  00F3               	movwf	memset@c+1
  7582     0768  3080               	movlw	128
  7583     0769  00F4               	movwf	memset@n
  7584     076A  3000               	movlw	0
  7585     076B  00F5               	movwf	memset@n+1
  7586     076C  3191  21E6  3183   	fcall	_memset
  7587     076F                     l3475:
  7588                           
  7589                           ;OLED_SSD1306.c: 548:     uint8_t col = 0;
  7590     076F  0021               	movlb	1	; select bank1
  7591     0770  01B2               	clrf	OLED_Printf_Line@col^(0+128)
  7592     0771                     l3477:
  7593                           
  7594                           ;OLED_SSD1306.c: 549:     for (const char* p = buf; *p && (col + 8) <= 128; ++p)
  7595     0771  304C               	movlw	(low (OLED_Printf_Line@buf| 0))& (0+255)
  7596     0772  00B3               	movwf	OLED_Printf_Line@p^(0+128)
  7597     0773  2FCF               	goto	l3493
  7598     0774                     l3479:
  7599                           
  7600                           ;OLED_SSD1306.c: 550:     {;OLED_SSD1306.c: 551:         char ch = *p;
  7601     0774  0021               	movlb	1	; select bank1
  7602     0775  0833               	movf	OLED_Printf_Line@p^(0+128),w
  7603     0776  0086               	movwf	6
  7604     0777  0187               	clrf	7
  7605     0778  0801               	movf	1,w
  7606     0779  00BB               	movwf	OLED_Printf_Line@ch^(0+128)
  7607     077A                     l3481:
  7608                           
  7609                           ;OLED_SSD1306.c: 552:         if (ch < 32 || ch > 127) ch = ' ';
  7610     077A  3020               	movlw	32
  7611     077B  023B               	subwf	OLED_Printf_Line@ch^(0+128),w
  7612     077C  1C03               	skipc
  7613     077D  2F7F               	goto	u4221
  7614     077E  2F80               	goto	u4220
  7615     077F                     u4221:
  7616     077F  2F86               	goto	l3485
  7617     0780                     u4220:
  7618     0780                     l3483:
  7619     0780  3080               	movlw	128
  7620     0781  023B               	subwf	OLED_Printf_Line@ch^(0+128),w
  7621     0782  1C03               	skipc
  7622     0783  2F85               	goto	u4231
  7623     0784  2F86               	goto	u4230
  7624     0785                     u4231:
  7625     0785  2F88               	goto	l3487
  7626     0786                     u4230:
  7627     0786                     l3485:
  7628     0786  3020               	movlw	32
  7629     0787  00BB               	movwf	OLED_Printf_Line@ch^(0+128)
  7630     0788                     l3487:
  7631                           
  7632                           ;OLED_SSD1306.c: 554:         memcpy(&screen_buffer[line][col], &OledFont[(uint8_t)(ch -
      +                           32)][0], 8);
  7633     0788  0832               	movf	OLED_Printf_Line@col^(0+128),w
  7634     0789  0020               	movlb	0	; select bank0
  7635     078A  00AA               	movwf	??_OLED_Printf_Line
  7636     078B  01AB               	clrf	??_OLED_Printf_Line+1
  7637     078C  0021               	movlb	1	; select bank1
  7638     078D  0847               	movf	OLED_Printf_Line@line^(0+128),w
  7639     078E  0020               	movlb	0	; select bank0
  7640     078F  00AC               	movwf	??_OLED_Printf_Line+2
  7641     0790  01AD               	clrf	??_OLED_Printf_Line+3
  7642     0791  3007               	movlw	7
  7643     0792                     u4245:
  7644     0792  35AC               	lslf	??_OLED_Printf_Line+2,f
  7645     0793  0DAD               	rlf	??_OLED_Printf_Line+3,f
  7646     0794  0B89               	decfsz	9,f
  7647     0795  2F92               	goto	u4245
  7648     0796  30F0               	movlw	240
  7649     0797  00AE               	movwf	??_OLED_Printf_Line+4
  7650     0798  3024               	movlw	36
  7651     0799  00AF               	movwf	??_OLED_Printf_Line+5
  7652     079A  082C               	movf	??_OLED_Printf_Line+2,w
  7653     079B  072E               	addwf	??_OLED_Printf_Line+4,w
  7654     079C  00B0               	movwf	??_OLED_Printf_Line+6
  7655     079D  082D               	movf	??_OLED_Printf_Line+3,w
  7656     079E  3D2F               	addwfc	??_OLED_Printf_Line+5,w
  7657     079F  00B1               	movwf	??_OLED_Printf_Line+7
  7658     07A0  082A               	movf	??_OLED_Printf_Line,w
  7659     07A1  0730               	addwf	??_OLED_Printf_Line+6,w
  7660     07A2  00F0               	movwf	memcpy@d1
  7661     07A3  082B               	movf	??_OLED_Printf_Line+1,w
  7662     07A4  3D31               	addwfc	??_OLED_Printf_Line+7,w
  7663     07A5  00F1               	movwf	memcpy@d1+1
  7664     07A6  0021               	movlb	1	; select bank1
  7665     07A7  083B               	movf	OLED_Printf_Line@ch^(0+128),w
  7666     07A8  3EE0               	addlw	224
  7667     07A9  0020               	movlb	0	; select bank0
  7668     07AA  00B2               	movwf	??_OLED_Printf_Line+8
  7669     07AB  01B3               	clrf	??_OLED_Printf_Line+9
  7670     07AC  35B2               	lslf	??_OLED_Printf_Line+8,f
  7671     07AD  0DB3               	rlf	??_OLED_Printf_Line+9,f
  7672     07AE  35B2               	lslf	??_OLED_Printf_Line+8,f
  7673     07AF  0DB3               	rlf	??_OLED_Printf_Line+9,f
  7674     07B0  35B2               	lslf	??_OLED_Printf_Line+8,f
  7675     07B1  0DB3               	rlf	??_OLED_Printf_Line+9,f
  7676     07B2  3000               	movlw	low (_OledFont| (0+32768))
  7677     07B3  00B4               	movwf	??_OLED_Printf_Line+10
  7678     07B4  3088               	movlw	high (_OledFont| (0+32768))
  7679     07B5  00B5               	movwf	??_OLED_Printf_Line+11
  7680     07B6  0832               	movf	??_OLED_Printf_Line+8,w
  7681     07B7  0734               	addwf	??_OLED_Printf_Line+10,w
  7682     07B8  00F2               	movwf	memcpy@s1
  7683     07B9  0833               	movf	??_OLED_Printf_Line+9,w
  7684     07BA  3D35               	addwfc	??_OLED_Printf_Line+11,w
  7685     07BB  00F3               	movwf	memcpy@s1+1
  7686     07BC  3008               	movlw	8
  7687     07BD  00F4               	movwf	memcpy@n
  7688     07BE  3000               	movlw	0
  7689     07BF  00F5               	movwf	memcpy@n+1
  7690     07C0  3192  22AC  3183   	fcall	_memcpy
  7691     07C3                     l3489:
  7692                           
  7693                           ;OLED_SSD1306.c: 555:         col += 8;
  7694     07C3  3008               	movlw	8
  7695     07C4  0020               	movlb	0	; select bank0
  7696     07C5  00AA               	movwf	??_OLED_Printf_Line
  7697     07C6  082A               	movf	??_OLED_Printf_Line,w
  7698     07C7  0021               	movlb	1	; select bank1
  7699     07C8  07B2               	addwf	OLED_Printf_Line@col^(0+128),f
  7700     07C9                     l3491:
  7701                           
  7702                           ;OLED_SSD1306.c: 556:     }
  7703     07C9  3001               	movlw	1
  7704     07CA  0020               	movlb	0	; select bank0
  7705     07CB  00AA               	movwf	??_OLED_Printf_Line
  7706     07CC  082A               	movf	??_OLED_Printf_Line,w
  7707     07CD  0021               	movlb	1	; select bank1
  7708     07CE  07B3               	addwf	OLED_Printf_Line@p^(0+128),f
  7709     07CF                     l3493:
  7710     07CF  0833               	movf	OLED_Printf_Line@p^(0+128),w
  7711     07D0  0086               	movwf	6
  7712     07D1  0187               	clrf	7
  7713     07D2  0801               	movf	1,w
  7714     07D3  1903               	btfsc	3,2
  7715     07D4  2FD6               	goto	u4251
  7716     07D5  2FD7               	goto	u4250
  7717     07D6                     u4251:
  7718     07D6  2FEC               	goto	l3497
  7719     07D7                     u4250:
  7720     07D7                     l3495:
  7721     07D7  0832               	movf	OLED_Printf_Line@col^(0+128),w
  7722     07D8  3E08               	addlw	8
  7723     07D9  0020               	movlb	0	; select bank0
  7724     07DA  00AA               	movwf	??_OLED_Printf_Line
  7725     07DB  3000               	movlw	0
  7726     07DC  1803               	skipnc
  7727     07DD  3001               	movlw	1
  7728     07DE  00AB               	movwf	??_OLED_Printf_Line+1
  7729     07DF  082B               	movf	??_OLED_Printf_Line+1,w
  7730     07E0  3A80               	xorlw	128
  7731     07E1  00AC               	movwf	??_OLED_Printf_Line+2
  7732     07E2  3080               	movlw	128
  7733     07E3  022C               	subwf	??_OLED_Printf_Line+2,w
  7734     07E4  1D03               	skipz
  7735     07E5  2FE8               	goto	u4265
  7736     07E6  3081               	movlw	129
  7737     07E7  022A               	subwf	??_OLED_Printf_Line,w
  7738     07E8                     u4265:
  7739     07E8  1C03               	skipc
  7740     07E9  2FEB               	goto	u4261
  7741     07EA  2FEC               	goto	u4260
  7742     07EB                     u4261:
  7743     07EB  2F74               	goto	l3479
  7744     07EC                     u4260:
  7745     07EC                     l3497:
  7746                           
  7747                           ;OLED_SSD1306.c: 558:     OLED_UpdateLine(line);
  7748     07EC  0021               	movlb	1	; select bank1
  7749     07ED  0847               	movf	OLED_Printf_Line@line^(0+128),w
  7750     07EE  3192  22D6  3183   	fcall	_OLED_UpdateLine
  7751     07F1                     l262:
  7752     07F1  0008               	return
  7753     07F2                     __end_of_OLED_Printf_Line:
  7754                           
  7755                           	psect	text12
  7756     11CB                     __ptext12:	
  7757 ;; *************** function _strcpy *****************
  7758 ;; Defined at:
  7759 ;;		line 3 in file "C:\Program Files\Microchip\xc8\v2.46\pic\sources\c99\common\strcpy.c"
  7760 ;; Parameters:    Size  Location     Type
  7761 ;;  dest            2    0[COMMON] PTR unsigned char 
  7762 ;;		 -> OLED_Printf_Line@last_text(256), 
  7763 ;;  src             1    2[COMMON] PTR const unsigned char 
  7764 ;;		 -> OLED_Printf_Line@buf(32), 
  7765 ;; Auto vars:     Size  Location     Type
  7766 ;;  d               2    5[COMMON] PTR unsigned char 
  7767 ;;		 -> OLED_Printf_Line@last_text(256), 
  7768 ;; Return value:  Size  Location     Type
  7769 ;;                  2    0[COMMON] PTR unsigned char 
  7770 ;; Registers used:
  7771 ;;		wreg, fsr0l, fsr0h, fsr1l, fsr1h, status,2, status,0
  7772 ;; Tracked objects:
  7773 ;;		On entry : 0/0
  7774 ;;		On exit  : 0/0
  7775 ;;		Unchanged: 0/0
  7776 ;; Data sizes:     COMMON   BANK0   BANK1   BANK2   BANK3   BANK4   BANK5   BANK6   BANK7   BANK8   BANK9  BANK10  BANK1
      +1  BANK12  BANK13  BANK14  BANK15  BANK16  BANK17  BANK18  BANK19  BANK20  BANK21  BANK22  BANK23  BANK24  BANK25
  7777 ;;      Params:         3       0       0       0       0       0       0       0       0       0       0       0       
      +0       0       0       0       0       0       0       0       0       0       0       0       0       0       0
  7778 ;;      Locals:         2       0       0       0       0       0       0       0       0       0       0       0       
      +0       0       0       0       0       0       0       0       0       0       0       0       0       0       0
  7779 ;;      Temps:          2       0       0       0       0       0       0       0       0       0       0       0       
      +0       0       0       0       0       0       0       0       0       0       0       0       0       0       0
  7780 ;;      Totals:         7       0       0       0       0       0       0       0       0       0       0       0       
      +0       0       0       0       0       0       0       0       0       0       0       0       0       0       0
  7781 ;;Total ram usage:        7 bytes
  7782 ;; Hardware stack levels used: 1
  7783 ;; This function calls:
  7784 ;;		Nothing
  7785 ;; This function is called by:
  7786 ;;		_OLED_Printf_Line
  7787 ;; This function uses a non-reentrant model
  7788 ;;
  7789                           
  7790     11CB                     _strcpy:	
  7791                           ;psect for function _strcpy
  7792                           
  7793     11CB                     l2819:	
  7794                           ;incstack = 0
  7795                           ; Regs used in _strcpy: [wreg-fsr1h+status,2+status,0]
  7796                           
  7797     11CB  0871               	movf	strcpy@dest+1,w
  7798     11CC  00F6               	movwf	strcpy@d+1
  7799     11CD  0870               	movf	strcpy@dest,w
  7800     11CE  00F5               	movwf	strcpy@d
  7801     11CF                     l2821:
  7802     11CF  0876               	movf	strcpy@d+1,w
  7803     11D0  00F4               	movwf	??_strcpy+1
  7804     11D1  0875               	movf	strcpy@d,w
  7805     11D2  00F3               	movwf	??_strcpy
  7806     11D3  0AF5               	incf	strcpy@d,f
  7807     11D4  1903               	skipnz
  7808     11D5  0AF6               	incf	strcpy@d+1,f
  7809     11D6  0873               	movf	??_strcpy,w
  7810     11D7  0086               	movwf	6
  7811     11D8  0874               	movf	??_strcpy+1,w
  7812     11D9  0087               	movwf	7
  7813     11DA  0872               	movf	strcpy@src,w
  7814     11DB  0084               	movwf	4
  7815     11DC  0185               	clrf	5
  7816     11DD  0AF2               	incf	strcpy@src,f
  7817     11DE  0800               	movf	0,w
  7818     11DF  3FC0               	movwi [0]fsr1
  7819     11E0  0889               	movf	9,f
  7820     11E1  1D03               	btfss	3,2
  7821     11E2  29E4               	goto	u3191
  7822     11E3  29E5               	goto	u3190
  7823     11E4                     u3191:
  7824     11E4  29CF               	goto	l2821
  7825     11E5                     u3190:
  7826     11E5                     l937:
  7827     11E5  0008               	return
  7828     11E6                     __end_of_strcpy:
  7829                           
  7830                           	psect	text13
  7831     1302                     __ptext13:	
  7832 ;; *************** function _strcmp *****************
  7833 ;; Defined at:
  7834 ;;		line 3 in file "C:\Program Files\Microchip\xc8\v2.46\pic\sources\c99\common\strcmp.c"
  7835 ;; Parameters:    Size  Location     Type
  7836 ;;  l               1    wreg     PTR const unsigned char 
  7837 ;;		 -> OLED_Printf_Line@buf(32), 
  7838 ;;  r               2    0[COMMON] PTR const unsigned char 
  7839 ;;		 -> OLED_Printf_Line@last_text(256), 
  7840 ;; Auto vars:     Size  Location     Type
  7841 ;;  l               1    3[COMMON] PTR const unsigned char 
  7842 ;;		 -> OLED_Printf_Line@buf(32), 
  7843 ;; Return value:  Size  Location     Type
  7844 ;;                  2    0[COMMON] int 
  7845 ;; Registers used:
  7846 ;;		wreg, fsr0l, fsr0h, fsr1l, fsr1h, status,2, status,0
  7847 ;; Tracked objects:
  7848 ;;		On entry : 0/0
  7849 ;;		On exit  : 0/0
  7850 ;;		Unchanged: 0/0
  7851 ;; Data sizes:     COMMON   BANK0   BANK1   BANK2   BANK3   BANK4   BANK5   BANK6   BANK7   BANK8   BANK9  BANK10  BANK1
      +1  BANK12  BANK13  BANK14  BANK15  BANK16  BANK17  BANK18  BANK19  BANK20  BANK21  BANK22  BANK23  BANK24  BANK25
  7852 ;;      Params:         2       0       0       0       0       0       0       0       0       0       0       0       
      +0       0       0       0       0       0       0       0       0       0       0       0       0       0       0
  7853 ;;      Locals:         1       0       0       0       0       0       0       0       0       0       0       0       
      +0       0       0       0       0       0       0       0       0       0       0       0       0       0       0
  7854 ;;      Temps:          1       0       0       0       0       0       0       0       0       0       0       0       
      +0       0       0       0       0       0       0       0       0       0       0       0       0       0       0
  7855 ;;      Totals:         4       0       0       0       0       0       0       0       0       0       0       0       
      +0       0       0       0       0       0       0       0       0       0       0       0       0       0       0
  7856 ;;Total ram usage:        4 bytes
  7857 ;; Hardware stack levels used: 1
  7858 ;; This function calls:
  7859 ;;		Nothing
  7860 ;; This function is called by:
  7861 ;;		_OLED_Printf_Line
  7862 ;; This function uses a non-reentrant model
  7863 ;;
  7864                           
  7865     1302                     _strcmp:	
  7866                           ;psect for function _strcmp
  7867                           
  7868                           
  7869                           ;incstack = 0
  7870                           ; Regs used in _strcmp: [wreg-fsr1h+status,2+status,0]
  7871                           ;strcmp@l stored from wreg
  7872     1302  00F3               	movwf	strcmp@l
  7873     1303                     l2807:
  7874     1303  2B0C               	goto	l2811
  7875     1304                     l2809:
  7876     1304  3001               	movlw	1
  7877     1305  00F2               	movwf	??_strcmp
  7878     1306  0872               	movf	??_strcmp,w
  7879     1307  07F3               	addwf	strcmp@l,f
  7880     1308  3001               	movlw	1
  7881     1309  07F0               	addwf	strcmp@r,f
  7882     130A  3000               	movlw	0
  7883     130B  3DF1               	addwfc	strcmp@r+1,f
  7884     130C                     l2811:
  7885     130C  0870               	movf	strcmp@r,w
  7886     130D  0086               	movwf	6
  7887     130E  0871               	movf	strcmp@r+1,w
  7888     130F  0087               	movwf	7
  7889     1310  0873               	movf	strcmp@l,w
  7890     1311  0084               	movwf	4
  7891     1312  0185               	clrf	5
  7892     1313  0800               	movf	0,w
  7893     1314  0601               	xorwf	1,w
  7894     1315  1D03               	skipz
  7895     1316  2B18               	goto	u3171
  7896     1317  2B19               	goto	u3170
  7897     1318                     u3171:
  7898     1318  2B21               	goto	l2815
  7899     1319                     u3170:
  7900     1319                     l2813:
  7901     1319  0873               	movf	strcmp@l,w
  7902     131A  0086               	movwf	6
  7903     131B  0187               	clrf	7
  7904     131C  0801               	movf	1,w
  7905     131D  1D03               	btfss	3,2
  7906     131E  2B20               	goto	u3181
  7907     131F  2B21               	goto	u3180
  7908     1320                     u3181:
  7909     1320  2B04               	goto	l2809
  7910     1321                     u3180:
  7911     1321                     l2815:
  7912     1321  0873               	movf	strcmp@l,w
  7913     1322  0086               	movwf	6
  7914     1323  0187               	clrf	7
  7915     1324  0870               	movf	strcmp@r,w
  7916     1325  0084               	movwf	4
  7917     1326  0871               	movf	strcmp@r+1,w
  7918     1327  0085               	movwf	5
  7919     1328  0800               	movf	0,w
  7920     1329  0201               	subwf	1,w
  7921     132A  00F0               	movwf	?_strcmp
  7922     132B  01F1               	clrf	?_strcmp+1
  7923     132C  1C03               	skipc
  7924     132D  03F1               	decf	?_strcmp+1,f
  7925     132E                     l931:
  7926     132E  0008               	return
  7927     132F                     __end_of_strcmp:
  7928                           
  7929                           	psect	text14
  7930     12AC                     __ptext14:	
  7931 ;; *************** function _memcpy *****************
  7932 ;; Defined at:
  7933 ;;		line 4 in file "C:\Program Files\Microchip\xc8\v2.46\pic\sources\c99\common\memcpy.c"
  7934 ;; Parameters:    Size  Location     Type
  7935 ;;  d1              2    0[COMMON] PTR void 
  7936 ;;		 -> screen_buffer(512), 
  7937 ;;  s1              2    2[COMMON] PTR const void 
  7938 ;;		 -> OledFont(768), 
  7939 ;;  n               2    4[COMMON] unsigned int 
  7940 ;; Auto vars:     Size  Location     Type
  7941 ;;  s               2    8[COMMON] PTR const unsigned char 
  7942 ;;		 -> OledFont(768), 
  7943 ;;  d               2    6[COMMON] PTR unsigned char 
  7944 ;;		 -> screen_buffer(512), 
  7945 ;;  tmp             1   10[COMMON] unsigned char 
  7946 ;; Return value:  Size  Location     Type
  7947 ;;                  2    0[COMMON] PTR void 
  7948 ;; Registers used:
  7949 ;;		wreg, fsr0l, fsr0h, fsr1l, fsr1h, status,2, status,0, pclath
  7950 ;; Tracked objects:
  7951 ;;		On entry : 0/0
  7952 ;;		On exit  : 0/0
  7953 ;;		Unchanged: 0/0
  7954 ;; Data sizes:     COMMON   BANK0   BANK1   BANK2   BANK3   BANK4   BANK5   BANK6   BANK7   BANK8   BANK9  BANK10  BANK1
      +1  BANK12  BANK13  BANK14  BANK15  BANK16  BANK17  BANK18  BANK19  BANK20  BANK21  BANK22  BANK23  BANK24  BANK25
  7955 ;;      Params:         6       0       0       0       0       0       0       0       0       0       0       0       
      +0       0       0       0       0       0       0       0       0       0       0       0       0       0       0
  7956 ;;      Locals:         5       0       0       0       0       0       0       0       0       0       0       0       
      +0       0       0       0       0       0       0       0       0       0       0       0       0       0       0
  7957 ;;      Temps:          0       0       0       0       0       0       0       0       0       0       0       0       
      +0       0       0       0       0       0       0       0       0       0       0       0       0       0       0
  7958 ;;      Totals:        11       0       0       0       0       0       0       0       0       0       0       0       
      +0       0       0       0       0       0       0       0       0       0       0       0       0       0       0
  7959 ;;Total ram usage:       11 bytes
  7960 ;; Hardware stack levels used: 1
  7961 ;; This function calls:
  7962 ;;		Nothing
  7963 ;; This function is called by:
  7964 ;;		_OLED_Printf_Line
  7965 ;; This function uses a non-reentrant model
  7966 ;;
  7967                           
  7968     12AC                     _memcpy:	
  7969                           ;psect for function _memcpy
  7970                           
  7971     12AC                     l2823:	
  7972                           ;incstack = 0
  7973                           ; Regs used in _memcpy: [wreg-fsr1h+status,2+status,0+pclath]
  7974                           
  7975     12AC  0873               	movf	memcpy@s1+1,w
  7976     12AD  00F9               	movwf	memcpy@s+1
  7977     12AE  0872               	movf	memcpy@s1,w
  7978     12AF  00F8               	movwf	memcpy@s
  7979     12B0  0871               	movf	memcpy@d1+1,w
  7980     12B1  00F7               	movwf	memcpy@d+1
  7981     12B2  0870               	movf	memcpy@d1,w
  7982     12B3  00F6               	movwf	memcpy@d
  7983     12B4  2AC9               	goto	l2833
  7984     12B5                     l2825:
  7985     12B5  0878               	movf	memcpy@s,w
  7986     12B6  0084               	movwf	4
  7987     12B7  0879               	movf	memcpy@s+1,w
  7988     12B8  0085               	movwf	5
  7989     12B9  0800               	movf	0,w	;code access
  7990     12BA  00FA               	movwf	memcpy@tmp
  7991     12BB                     l2827:
  7992     12BB  3001               	movlw	1
  7993     12BC  07F8               	addwf	memcpy@s,f
  7994     12BD  3000               	movlw	0
  7995     12BE  3DF9               	addwfc	memcpy@s+1,f
  7996     12BF                     l2829:
  7997     12BF  0876               	movf	memcpy@d,w
  7998     12C0  0086               	movwf	6
  7999     12C1  0877               	movf	memcpy@d+1,w
  8000     12C2  0087               	movwf	7
  8001     12C3  087A               	movf	memcpy@tmp,w
  8002     12C4  0081               	movwf	1
  8003     12C5                     l2831:
  8004     12C5  3001               	movlw	1
  8005     12C6  07F6               	addwf	memcpy@d,f
  8006     12C7  3000               	movlw	0
  8007     12C8  3DF7               	addwfc	memcpy@d+1,f
  8008     12C9                     l2833:
  8009     12C9  3001               	movlw	1
  8010     12CA  02F4               	subwf	memcpy@n,f
  8011     12CB  3000               	movlw	0
  8012     12CC  3BF5               	subwfb	memcpy@n+1,f
  8013     12CD  0A74               	incf	memcpy@n,w
  8014     12CE  1D03               	skipz
  8015     12CF  2AD4               	goto	u3201
  8016     12D0  0A75               	incf	memcpy@n+1,w
  8017     12D1  1D03               	btfss	3,2
  8018     12D2  2AD4               	goto	u3201
  8019     12D3  2AD5               	goto	u3200
  8020     12D4                     u3201:
  8021     12D4  2AB5               	goto	l2825
  8022     12D5                     u3200:
  8023     12D5                     l917:
  8024     12D5  0008               	return
  8025     12D6                     __end_of_memcpy:
  8026                           
  8027                           	psect	text15
  8028     0B0B                     __ptext15:	
  8029 ;; *************** function ___lwmod *****************
  8030 ;; Defined at:
  8031 ;;		line 5 in file "C:\Program Files\Microchip\xc8\v2.46\pic\sources\c99\common\lwmod.c"
  8032 ;; Parameters:    Size  Location     Type
  8033 ;;  divisor         2    0[COMMON] unsigned int 
  8034 ;;  dividend        2    2[COMMON] unsigned int 
  8035 ;; Auto vars:     Size  Location     Type
  8036 ;;  counter         1    5[COMMON] unsigned char 
  8037 ;; Return value:  Size  Location     Type
  8038 ;;                  2    0[COMMON] unsigned int 
  8039 ;; Registers used:
  8040 ;;		wreg, status,2, status,0
  8041 ;; Tracked objects:
  8042 ;;		On entry : 0/0
  8043 ;;		On exit  : 0/0
  8044 ;;		Unchanged: 0/0
  8045 ;; Data sizes:     COMMON   BANK0   BANK1   BANK2   BANK3   BANK4   BANK5   BANK6   BANK7   BANK8   BANK9  BANK10  BANK1
      +1  BANK12  BANK13  BANK14  BANK15  BANK16  BANK17  BANK18  BANK19  BANK20  BANK21  BANK22  BANK23  BANK24  BANK25
  8046 ;;      Params:         4       0       0       0       0       0       0       0       0       0       0       0       
      +0       0       0       0       0       0       0       0       0       0       0       0       0       0       0
  8047 ;;      Locals:         1       0       0       0       0       0       0       0       0       0       0       0       
      +0       0       0       0       0       0       0       0       0       0       0       0       0       0       0
  8048 ;;      Temps:          1       0       0       0       0       0       0       0       0       0       0       0       
      +0       0       0       0       0       0       0       0       0       0       0       0       0       0       0
  8049 ;;      Totals:         6       0       0       0       0       0       0       0       0       0       0       0       
      +0       0       0       0       0       0       0       0       0       0       0       0       0       0       0
  8050 ;;Total ram usage:        6 bytes
  8051 ;; Hardware stack levels used: 1
  8052 ;; This function calls:
  8053 ;;		Nothing
  8054 ;; This function is called by:
  8055 ;;		_OLED_Printf_Line
  8056 ;; This function uses a non-reentrant model
  8057 ;;
  8058                           
  8059     0B0B                     ___lwmod:	
  8060                           ;psect for function ___lwmod
  8061                           
  8062     0B0B                     l3059:	
  8063                           ;incstack = 0
  8064                           ; Regs used in ___lwmod: [wreg+status,2+status,0]
  8065                           
  8066     0B0B  0870               	movf	___lwmod@divisor,w
  8067     0B0C  0471               	iorwf	___lwmod@divisor+1,w
  8068     0B0D  1903               	btfsc	3,2
  8069     0B0E  2B10               	goto	u3791
  8070     0B0F  2B11               	goto	u3790
  8071     0B10                     u3791:
  8072     0B10  2B3A               	goto	l3077
  8073     0B11                     u3790:
  8074     0B11                     l3061:
  8075     0B11  01F5               	clrf	___lwmod@counter
  8076     0B12  0AF5               	incf	___lwmod@counter,f
  8077     0B13  2B1D               	goto	l3067
  8078     0B14                     l3063:
  8079     0B14  3001               	movlw	1
  8080     0B15                     u3805:
  8081     0B15  35F0               	lslf	___lwmod@divisor,f
  8082     0B16  0DF1               	rlf	___lwmod@divisor+1,f
  8083     0B17  0B89               	decfsz	9,f
  8084     0B18  2B15               	goto	u3805
  8085     0B19                     l3065:
  8086     0B19  3001               	movlw	1
  8087     0B1A  00F4               	movwf	??___lwmod
  8088     0B1B  0874               	movf	??___lwmod,w
  8089     0B1C  07F5               	addwf	___lwmod@counter,f
  8090     0B1D                     l3067:
  8091     0B1D  1FF1               	btfss	___lwmod@divisor+1,7
  8092     0B1E  2B20               	goto	u3811
  8093     0B1F  2B21               	goto	u3810
  8094     0B20                     u3811:
  8095     0B20  2B14               	goto	l3063
  8096     0B21                     u3810:
  8097     0B21                     l3069:
  8098     0B21  0871               	movf	___lwmod@divisor+1,w
  8099     0B22  0273               	subwf	___lwmod@dividend+1,w
  8100     0B23  1D03               	skipz
  8101     0B24  2B27               	goto	u3825
  8102     0B25  0870               	movf	___lwmod@divisor,w
  8103     0B26  0272               	subwf	___lwmod@dividend,w
  8104     0B27                     u3825:
  8105     0B27  1C03               	skipc
  8106     0B28  2B2A               	goto	u3821
  8107     0B29  2B2B               	goto	u3820
  8108     0B2A                     u3821:
  8109     0B2A  2B2F               	goto	l3073
  8110     0B2B                     u3820:
  8111     0B2B                     l3071:
  8112     0B2B  0870               	movf	___lwmod@divisor,w
  8113     0B2C  02F2               	subwf	___lwmod@dividend,f
  8114     0B2D  0871               	movf	___lwmod@divisor+1,w
  8115     0B2E  3BF3               	subwfb	___lwmod@dividend+1,f
  8116     0B2F                     l3073:
  8117     0B2F  3001               	movlw	1
  8118     0B30                     u3835:
  8119     0B30  36F1               	lsrf	___lwmod@divisor+1,f
  8120     0B31  0CF0               	rrf	___lwmod@divisor,f
  8121     0B32  0B89               	decfsz	9,f
  8122     0B33  2B30               	goto	u3835
  8123     0B34                     l3075:
  8124     0B34  3001               	movlw	1
  8125     0B35  02F5               	subwf	___lwmod@counter,f
  8126     0B36  1D03               	btfss	3,2
  8127     0B37  2B39               	goto	u3841
  8128     0B38  2B3A               	goto	u3840
  8129     0B39                     u3841:
  8130     0B39  2B21               	goto	l3069
  8131     0B3A                     u3840:
  8132     0B3A                     l3077:
  8133     0B3A  0873               	movf	___lwmod@dividend+1,w
  8134     0B3B  00F1               	movwf	?___lwmod+1
  8135     0B3C  0872               	movf	___lwmod@dividend,w
  8136     0B3D  00F0               	movwf	?___lwmod
  8137     0B3E                     l745:
  8138     0B3E  0008               	return
  8139     0B3F                     __end_of___lwmod:
  8140                           
  8141                           	psect	text16
  8142     138F                     __ptext16:	
  8143 ;; *************** function ___lwdiv *****************
  8144 ;; Defined at:
  8145 ;;		line 5 in file "C:\Program Files\Microchip\xc8\v2.46\pic\sources\c99\common\lwdiv.c"
  8146 ;; Parameters:    Size  Location     Type
  8147 ;;  divisor         2    0[COMMON] unsigned int 
  8148 ;;  dividend        2    2[COMMON] unsigned int 
  8149 ;; Auto vars:     Size  Location     Type
  8150 ;;  quotient        2    5[COMMON] unsigned int 
  8151 ;;  counter         1    7[COMMON] unsigned char 
  8152 ;; Return value:  Size  Location     Type
  8153 ;;                  2    0[COMMON] unsigned int 
  8154 ;; Registers used:
  8155 ;;		wreg, status,2, status,0
  8156 ;; Tracked objects:
  8157 ;;		On entry : 0/0
  8158 ;;		On exit  : 0/0
  8159 ;;		Unchanged: 0/0
  8160 ;; Data sizes:     COMMON   BANK0   BANK1   BANK2   BANK3   BANK4   BANK5   BANK6   BANK7   BANK8   BANK9  BANK10  BANK1
      +1  BANK12  BANK13  BANK14  BANK15  BANK16  BANK17  BANK18  BANK19  BANK20  BANK21  BANK22  BANK23  BANK24  BANK25
  8161 ;;      Params:         4       0       0       0       0       0       0       0       0       0       0       0       
      +0       0       0       0       0       0       0       0       0       0       0       0       0       0       0
  8162 ;;      Locals:         3       0       0       0       0       0       0       0       0       0       0       0       
      +0       0       0       0       0       0       0       0       0       0       0       0       0       0       0
  8163 ;;      Temps:          1       0       0       0       0       0       0       0       0       0       0       0       
      +0       0       0       0       0       0       0       0       0       0       0       0       0       0       0
  8164 ;;      Totals:         8       0       0       0       0       0       0       0       0       0       0       0       
      +0       0       0       0       0       0       0       0       0       0       0       0       0       0       0
  8165 ;;Total ram usage:        8 bytes
  8166 ;; Hardware stack levels used: 1
  8167 ;; This function calls:
  8168 ;;		Nothing
  8169 ;; This function is called by:
  8170 ;;		_OLED_Printf_Line
  8171 ;; This function uses a non-reentrant model
  8172 ;;
  8173                           
  8174     138F                     ___lwdiv:	
  8175                           ;psect for function ___lwdiv
  8176                           
  8177     138F                     l3033:	
  8178                           ;incstack = 0
  8179                           ; Regs used in ___lwdiv: [wreg+status,2+status,0]
  8180                           
  8181     138F  01F5               	clrf	___lwdiv@quotient
  8182     1390  01F6               	clrf	___lwdiv@quotient+1
  8183     1391                     l3035:
  8184     1391  0870               	movf	___lwdiv@divisor,w
  8185     1392  0471               	iorwf	___lwdiv@divisor+1,w
  8186     1393  1903               	btfsc	3,2
  8187     1394  2B96               	goto	u3721
  8188     1395  2B97               	goto	u3720
  8189     1396                     u3721:
  8190     1396  2BC6               	goto	l3055
  8191     1397                     u3720:
  8192     1397                     l3037:
  8193     1397  01F7               	clrf	___lwdiv@counter
  8194     1398  0AF7               	incf	___lwdiv@counter,f
  8195     1399  2BA3               	goto	l3043
  8196     139A                     l3039:
  8197     139A  3001               	movlw	1
  8198     139B                     u3735:
  8199     139B  35F0               	lslf	___lwdiv@divisor,f
  8200     139C  0DF1               	rlf	___lwdiv@divisor+1,f
  8201     139D  0B89               	decfsz	9,f
  8202     139E  2B9B               	goto	u3735
  8203     139F                     l3041:
  8204     139F  3001               	movlw	1
  8205     13A0  00F4               	movwf	??___lwdiv
  8206     13A1  0874               	movf	??___lwdiv,w
  8207     13A2  07F7               	addwf	___lwdiv@counter,f
  8208     13A3                     l3043:
  8209     13A3  1FF1               	btfss	___lwdiv@divisor+1,7
  8210     13A4  2BA6               	goto	u3741
  8211     13A5  2BA7               	goto	u3740
  8212     13A6                     u3741:
  8213     13A6  2B9A               	goto	l3039
  8214     13A7                     u3740:
  8215     13A7                     l3045:
  8216     13A7  3001               	movlw	1
  8217     13A8                     u3755:
  8218     13A8  35F5               	lslf	___lwdiv@quotient,f
  8219     13A9  0DF6               	rlf	___lwdiv@quotient+1,f
  8220     13AA  0B89               	decfsz	9,f
  8221     13AB  2BA8               	goto	u3755
  8222     13AC  0871               	movf	___lwdiv@divisor+1,w
  8223     13AD  0273               	subwf	___lwdiv@dividend+1,w
  8224     13AE  1D03               	skipz
  8225     13AF  2BB2               	goto	u3765
  8226     13B0  0870               	movf	___lwdiv@divisor,w
  8227     13B1  0272               	subwf	___lwdiv@dividend,w
  8228     13B2                     u3765:
  8229     13B2  1C03               	skipc
  8230     13B3  2BB5               	goto	u3761
  8231     13B4  2BB6               	goto	u3760
  8232     13B5                     u3761:
  8233     13B5  2BBB               	goto	l3051
  8234     13B6                     u3760:
  8235     13B6                     l3047:
  8236     13B6  0870               	movf	___lwdiv@divisor,w
  8237     13B7  02F2               	subwf	___lwdiv@dividend,f
  8238     13B8  0871               	movf	___lwdiv@divisor+1,w
  8239     13B9  3BF3               	subwfb	___lwdiv@dividend+1,f
  8240     13BA                     l3049:
  8241     13BA  1475               	bsf	___lwdiv@quotient,0
  8242     13BB                     l3051:
  8243     13BB  3001               	movlw	1
  8244     13BC                     u3775:
  8245     13BC  36F1               	lsrf	___lwdiv@divisor+1,f
  8246     13BD  0CF0               	rrf	___lwdiv@divisor,f
  8247     13BE  0B89               	decfsz	9,f
  8248     13BF  2BBC               	goto	u3775
  8249     13C0                     l3053:
  8250     13C0  3001               	movlw	1
  8251     13C1  02F7               	subwf	___lwdiv@counter,f
  8252     13C2  1D03               	btfss	3,2
  8253     13C3  2BC5               	goto	u3781
  8254     13C4  2BC6               	goto	u3780
  8255     13C5                     u3781:
  8256     13C5  2BA7               	goto	l3045
  8257     13C6                     u3780:
  8258     13C6                     l3055:
  8259     13C6  0876               	movf	___lwdiv@quotient+1,w
  8260     13C7  00F1               	movwf	?___lwdiv+1
  8261     13C8  0875               	movf	___lwdiv@quotient,w
  8262     13C9  00F0               	movwf	?___lwdiv
  8263     13CA                     l735:
  8264     13CA  0008               	return
  8265     13CB                     __end_of___lwdiv:
  8266                           
  8267                           	psect	text17
  8268     140C                     __ptext17:	
  8269 ;; *************** function ___llmod *****************
  8270 ;; Defined at:
  8271 ;;		line 5 in file "C:\Program Files\Microchip\xc8\v2.46\pic\sources\c99\common\llmod.c"
  8272 ;; Parameters:    Size  Location     Type
  8273 ;;  divisor         4    0[COMMON] unsigned long 
  8274 ;;  dividend        4    4[COMMON] unsigned long 
  8275 ;; Auto vars:     Size  Location     Type
  8276 ;;  counter         1    9[COMMON] unsigned char 
  8277 ;; Return value:  Size  Location     Type
  8278 ;;                  4    0[COMMON] unsigned long 
  8279 ;; Registers used:
  8280 ;;		wreg, status,2, status,0
  8281 ;; Tracked objects:
  8282 ;;		On entry : 0/0
  8283 ;;		On exit  : 0/0
  8284 ;;		Unchanged: 0/0
  8285 ;; Data sizes:     COMMON   BANK0   BANK1   BANK2   BANK3   BANK4   BANK5   BANK6   BANK7   BANK8   BANK9  BANK10  BANK1
      +1  BANK12  BANK13  BANK14  BANK15  BANK16  BANK17  BANK18  BANK19  BANK20  BANK21  BANK22  BANK23  BANK24  BANK25
  8286 ;;      Params:         8       0       0       0       0       0       0       0       0       0       0       0       
      +0       0       0       0       0       0       0       0       0       0       0       0       0       0       0
  8287 ;;      Locals:         1       0       0       0       0       0       0       0       0       0       0       0       
      +0       0       0       0       0       0       0       0       0       0       0       0       0       0       0
  8288 ;;      Temps:          1       0       0       0       0       0       0       0       0       0       0       0       
      +0       0       0       0       0       0       0       0       0       0       0       0       0       0       0
  8289 ;;      Totals:        10       0       0       0       0       0       0       0       0       0       0       0       
      +0       0       0       0       0       0       0       0       0       0       0       0       0       0       0
  8290 ;;Total ram usage:       10 bytes
  8291 ;; Hardware stack levels used: 1
  8292 ;; This function calls:
  8293 ;;		Nothing
  8294 ;; This function is called by:
  8295 ;;		_OLED_Printf_Line
  8296 ;; This function uses a non-reentrant model
  8297 ;;
  8298                           
  8299     140C                     ___llmod:	
  8300                           ;psect for function ___llmod
  8301                           
  8302     140C                     l3013:	
  8303                           ;incstack = 0
  8304                           ; Regs used in ___llmod: [wreg+status,2+status,0]
  8305                           
  8306     140C  0873               	movf	___llmod@divisor+3,w
  8307     140D  0472               	iorwf	___llmod@divisor+2,w
  8308     140E  0471               	iorwf	___llmod@divisor+1,w
  8309     140F  0470               	iorwf	___llmod@divisor,w
  8310     1410  1903               	skipnz
  8311     1411  2C13               	goto	u3661
  8312     1412  2C14               	goto	u3660
  8313     1413                     u3661:
  8314     1413  2C4D               	goto	l3029
  8315     1414                     u3660:
  8316     1414                     l3015:
  8317     1414  01F9               	clrf	___llmod@counter
  8318     1415  0AF9               	incf	___llmod@counter,f
  8319     1416  2C22               	goto	l3019
  8320     1417                     l3017:
  8321     1417  3001               	movlw	1
  8322     1418                     u3675:
  8323     1418  35F0               	lslf	___llmod@divisor,f
  8324     1419  0DF1               	rlf	___llmod@divisor+1,f
  8325     141A  0DF2               	rlf	___llmod@divisor+2,f
  8326     141B  0DF3               	rlf	___llmod@divisor+3,f
  8327     141C  0B89               	decfsz	9,f
  8328     141D  2C18               	goto	u3675
  8329     141E  3001               	movlw	1
  8330     141F  00F8               	movwf	??___llmod
  8331     1420  0878               	movf	??___llmod,w
  8332     1421  07F9               	addwf	___llmod@counter,f
  8333     1422                     l3019:
  8334     1422  1FF3               	btfss	___llmod@divisor+3,7
  8335     1423  2C25               	goto	u3681
  8336     1424  2C26               	goto	u3680
  8337     1425                     u3681:
  8338     1425  2C17               	goto	l3017
  8339     1426                     u3680:
  8340     1426                     l3021:
  8341     1426  0873               	movf	___llmod@divisor+3,w
  8342     1427  0277               	subwf	___llmod@dividend+3,w
  8343     1428  1D03               	skipz
  8344     1429  2C34               	goto	u3695
  8345     142A  0872               	movf	___llmod@divisor+2,w
  8346     142B  0276               	subwf	___llmod@dividend+2,w
  8347     142C  1D03               	skipz
  8348     142D  2C34               	goto	u3695
  8349     142E  0871               	movf	___llmod@divisor+1,w
  8350     142F  0275               	subwf	___llmod@dividend+1,w
  8351     1430  1D03               	skipz
  8352     1431  2C34               	goto	u3695
  8353     1432  0870               	movf	___llmod@divisor,w
  8354     1433  0274               	subwf	___llmod@dividend,w
  8355     1434                     u3695:
  8356     1434  1C03               	skipc
  8357     1435  2C37               	goto	u3691
  8358     1436  2C38               	goto	u3690
  8359     1437                     u3691:
  8360     1437  2C40               	goto	l3025
  8361     1438                     u3690:
  8362     1438                     l3023:
  8363     1438  0870               	movf	___llmod@divisor,w
  8364     1439  02F4               	subwf	___llmod@dividend,f
  8365     143A  0871               	movf	___llmod@divisor+1,w
  8366     143B  3BF5               	subwfb	___llmod@dividend+1,f
  8367     143C  0872               	movf	___llmod@divisor+2,w
  8368     143D  3BF6               	subwfb	___llmod@dividend+2,f
  8369     143E  0873               	movf	___llmod@divisor+3,w
  8370     143F  3BF7               	subwfb	___llmod@dividend+3,f
  8371     1440                     l3025:
  8372     1440  3001               	movlw	1
  8373     1441                     u3705:
  8374     1441  36F3               	lsrf	___llmod@divisor+3,f
  8375     1442  0CF2               	rrf	___llmod@divisor+2,f
  8376     1443  0CF1               	rrf	___llmod@divisor+1,f
  8377     1444  0CF0               	rrf	___llmod@divisor,f
  8378     1445  0B89               	decfsz	9,f
  8379     1446  2C41               	goto	u3705
  8380     1447                     l3027:
  8381     1447  3001               	movlw	1
  8382     1448  02F9               	subwf	___llmod@counter,f
  8383     1449  1D03               	btfss	3,2
  8384     144A  2C4C               	goto	u3711
  8385     144B  2C4D               	goto	u3710
  8386     144C                     u3711:
  8387     144C  2C26               	goto	l3021
  8388     144D                     u3710:
  8389     144D                     l3029:
  8390     144D  0877               	movf	___llmod@dividend+3,w
  8391     144E  00F3               	movwf	?___llmod+3
  8392     144F  0876               	movf	___llmod@dividend+2,w
  8393     1450  00F2               	movwf	?___llmod+2
  8394     1451  0875               	movf	___llmod@dividend+1,w
  8395     1452  00F1               	movwf	?___llmod+1
  8396     1453  0874               	movf	___llmod@dividend,w
  8397     1454  00F0               	movwf	?___llmod
  8398     1455                     l685:
  8399     1455  0008               	return
  8400     1456                     __end_of___llmod:
  8401                           
  8402                           	psect	text18
  8403     153E                     __ptext18:	
  8404 ;; *************** function ___awmod *****************
  8405 ;; Defined at:
  8406 ;;		line 5 in file "C:\Program Files\Microchip\xc8\v2.46\pic\sources\c99\common\awmod.c"
  8407 ;; Parameters:    Size  Location     Type
  8408 ;;  divisor         2    0[COMMON] int 
  8409 ;;  dividend        2    2[COMMON] int 
  8410 ;; Auto vars:     Size  Location     Type
  8411 ;;  sign            1    6[COMMON] unsigned char 
  8412 ;;  counter         1    5[COMMON] unsigned char 
  8413 ;; Return value:  Size  Location     Type
  8414 ;;                  2    0[COMMON] int 
  8415 ;; Registers used:
  8416 ;;		wreg, status,2, status,0
  8417 ;; Tracked objects:
  8418 ;;		On entry : 0/0
  8419 ;;		On exit  : 0/0
  8420 ;;		Unchanged: 0/0
  8421 ;; Data sizes:     COMMON   BANK0   BANK1   BANK2   BANK3   BANK4   BANK5   BANK6   BANK7   BANK8   BANK9  BANK10  BANK1
      +1  BANK12  BANK13  BANK14  BANK15  BANK16  BANK17  BANK18  BANK19  BANK20  BANK21  BANK22  BANK23  BANK24  BANK25
  8422 ;;      Params:         4       0       0       0       0       0       0       0       0       0       0       0       
      +0       0       0       0       0       0       0       0       0       0       0       0       0       0       0
  8423 ;;      Locals:         2       0       0       0       0       0       0       0       0       0       0       0       
      +0       0       0       0       0       0       0       0       0       0       0       0       0       0       0
  8424 ;;      Temps:          1       0       0       0       0       0       0       0       0       0       0       0       
      +0       0       0       0       0       0       0       0       0       0       0       0       0       0       0
  8425 ;;      Totals:         7       0       0       0       0       0       0       0       0       0       0       0       
      +0       0       0       0       0       0       0       0       0       0       0       0       0       0       0
  8426 ;;Total ram usage:        7 bytes
  8427 ;; Hardware stack levels used: 1
  8428 ;; This function calls:
  8429 ;;		Nothing
  8430 ;; This function is called by:
  8431 ;;		_OLED_Printf_Line
  8432 ;; This function uses a non-reentrant model
  8433 ;;
  8434                           
  8435     153E                     ___awmod:	
  8436                           ;psect for function ___awmod
  8437                           
  8438     153E                     l2975:	
  8439                           ;incstack = 0
  8440                           ; Regs used in ___awmod: [wreg+status,2+status,0]
  8441                           
  8442     153E  01F6               	clrf	___awmod@sign
  8443     153F                     l2977:
  8444     153F  1FF3               	btfss	___awmod@dividend+1,7
  8445     1540  2D42               	goto	u3571
  8446     1541  2D43               	goto	u3570
  8447     1542                     u3571:
  8448     1542  2D4A               	goto	l2983
  8449     1543                     u3570:
  8450     1543                     l2979:
  8451     1543  09F2               	comf	___awmod@dividend,f
  8452     1544  09F3               	comf	___awmod@dividend+1,f
  8453     1545  0AF2               	incf	___awmod@dividend,f
  8454     1546  1903               	skipnz
  8455     1547  0AF3               	incf	___awmod@dividend+1,f
  8456     1548                     l2981:
  8457     1548  01F6               	clrf	___awmod@sign
  8458     1549  0AF6               	incf	___awmod@sign,f
  8459     154A                     l2983:
  8460     154A  1FF1               	btfss	___awmod@divisor+1,7
  8461     154B  2D4D               	goto	u3581
  8462     154C  2D4E               	goto	u3580
  8463     154D                     u3581:
  8464     154D  2D53               	goto	l2987
  8465     154E                     u3580:
  8466     154E                     l2985:
  8467     154E  09F0               	comf	___awmod@divisor,f
  8468     154F  09F1               	comf	___awmod@divisor+1,f
  8469     1550  0AF0               	incf	___awmod@divisor,f
  8470     1551  1903               	skipnz
  8471     1552  0AF1               	incf	___awmod@divisor+1,f
  8472     1553                     l2987:
  8473     1553  0870               	movf	___awmod@divisor,w
  8474     1554  0471               	iorwf	___awmod@divisor+1,w
  8475     1555  1903               	btfsc	3,2
  8476     1556  2D58               	goto	u3591
  8477     1557  2D59               	goto	u3590
  8478     1558                     u3591:
  8479     1558  2D82               	goto	l3005
  8480     1559                     u3590:
  8481     1559                     l2989:
  8482     1559  01F5               	clrf	___awmod@counter
  8483     155A  0AF5               	incf	___awmod@counter,f
  8484     155B  2D65               	goto	l2995
  8485     155C                     l2991:
  8486     155C  3001               	movlw	1
  8487     155D                     u3605:
  8488     155D  35F0               	lslf	___awmod@divisor,f
  8489     155E  0DF1               	rlf	___awmod@divisor+1,f
  8490     155F  0B89               	decfsz	9,f
  8491     1560  2D5D               	goto	u3605
  8492     1561                     l2993:
  8493     1561  3001               	movlw	1
  8494     1562  00F4               	movwf	??___awmod
  8495     1563  0874               	movf	??___awmod,w
  8496     1564  07F5               	addwf	___awmod@counter,f
  8497     1565                     l2995:
  8498     1565  1FF1               	btfss	___awmod@divisor+1,7
  8499     1566  2D68               	goto	u3611
  8500     1567  2D69               	goto	u3610
  8501     1568                     u3611:
  8502     1568  2D5C               	goto	l2991
  8503     1569                     u3610:
  8504     1569                     l2997:
  8505     1569  0871               	movf	___awmod@divisor+1,w
  8506     156A  0273               	subwf	___awmod@dividend+1,w
  8507     156B  1D03               	skipz
  8508     156C  2D6F               	goto	u3625
  8509     156D  0870               	movf	___awmod@divisor,w
  8510     156E  0272               	subwf	___awmod@dividend,w
  8511     156F                     u3625:
  8512     156F  1C03               	skipc
  8513     1570  2D72               	goto	u3621
  8514     1571  2D73               	goto	u3620
  8515     1572                     u3621:
  8516     1572  2D77               	goto	l3001
  8517     1573                     u3620:
  8518     1573                     l2999:
  8519     1573  0870               	movf	___awmod@divisor,w
  8520     1574  02F2               	subwf	___awmod@dividend,f
  8521     1575  0871               	movf	___awmod@divisor+1,w
  8522     1576  3BF3               	subwfb	___awmod@dividend+1,f
  8523     1577                     l3001:
  8524     1577  3001               	movlw	1
  8525     1578                     u3635:
  8526     1578  36F1               	lsrf	___awmod@divisor+1,f
  8527     1579  0CF0               	rrf	___awmod@divisor,f
  8528     157A  0B89               	decfsz	9,f
  8529     157B  2D78               	goto	u3635
  8530     157C                     l3003:
  8531     157C  3001               	movlw	1
  8532     157D  02F5               	subwf	___awmod@counter,f
  8533     157E  1D03               	btfss	3,2
  8534     157F  2D81               	goto	u3641
  8535     1580  2D82               	goto	u3640
  8536     1581                     u3641:
  8537     1581  2D69               	goto	l2997
  8538     1582                     u3640:
  8539     1582                     l3005:
  8540     1582  0876               	movf	___awmod@sign,w
  8541     1583  1903               	btfsc	3,2
  8542     1584  2D86               	goto	u3651
  8543     1585  2D87               	goto	u3650
  8544     1586                     u3651:
  8545     1586  2D8C               	goto	l3009
  8546     1587                     u3650:
  8547     1587                     l3007:
  8548     1587  09F2               	comf	___awmod@dividend,f
  8549     1588  09F3               	comf	___awmod@dividend+1,f
  8550     1589  0AF2               	incf	___awmod@dividend,f
  8551     158A  1903               	skipnz
  8552     158B  0AF3               	incf	___awmod@dividend+1,f
  8553     158C                     l3009:
  8554     158C  0873               	movf	___awmod@dividend+1,w
  8555     158D  00F1               	movwf	?___awmod+1
  8556     158E  0872               	movf	___awmod@dividend,w
  8557     158F  00F0               	movwf	?___awmod
  8558     1590                     l621:
  8559     1590  0008               	return
  8560     1591                     __end_of___awmod:
  8561                           
  8562                           	psect	text19
  8563     15EB                     __ptext19:	
  8564 ;; *************** function ___awdiv *****************
  8565 ;; Defined at:
  8566 ;;		line 5 in file "C:\Program Files\Microchip\xc8\v2.46\pic\sources\c99\common\awdiv.c"
  8567 ;; Parameters:    Size  Location     Type
  8568 ;;  divisor         2    0[COMMON] int 
  8569 ;;  dividend        2    2[COMMON] int 
  8570 ;; Auto vars:     Size  Location     Type
  8571 ;;  quotient        2    7[COMMON] int 
  8572 ;;  sign            1    6[COMMON] unsigned char 
  8573 ;;  counter         1    5[COMMON] unsigned char 
  8574 ;; Return value:  Size  Location     Type
  8575 ;;                  2    0[COMMON] int 
  8576 ;; Registers used:
  8577 ;;		wreg, status,2, status,0
  8578 ;; Tracked objects:
  8579 ;;		On entry : 0/0
  8580 ;;		On exit  : 0/0
  8581 ;;		Unchanged: 0/0
  8582 ;; Data sizes:     COMMON   BANK0   BANK1   BANK2   BANK3   BANK4   BANK5   BANK6   BANK7   BANK8   BANK9  BANK10  BANK1
      +1  BANK12  BANK13  BANK14  BANK15  BANK16  BANK17  BANK18  BANK19  BANK20  BANK21  BANK22  BANK23  BANK24  BANK25
  8583 ;;      Params:         4       0       0       0       0       0       0       0       0       0       0       0       
      +0       0       0       0       0       0       0       0       0       0       0       0       0       0       0
  8584 ;;      Locals:         4       0       0       0       0       0       0       0       0       0       0       0       
      +0       0       0       0       0       0       0       0       0       0       0       0       0       0       0
  8585 ;;      Temps:          1       0       0       0       0       0       0       0       0       0       0       0       
      +0       0       0       0       0       0       0       0       0       0       0       0       0       0       0
  8586 ;;      Totals:         9       0       0       0       0       0       0       0       0       0       0       0       
      +0       0       0       0       0       0       0       0       0       0       0       0       0       0       0
  8587 ;;Total ram usage:        9 bytes
  8588 ;; Hardware stack levels used: 1
  8589 ;; This function calls:
  8590 ;;		Nothing
  8591 ;; This function is called by:
  8592 ;;		_OLED_Printf_Line
  8593 ;;		_OLED_DrawBattery
  8594 ;; This function uses a non-reentrant model
  8595 ;;
  8596                           
  8597     15EB                     ___awdiv:	
  8598                           ;psect for function ___awdiv
  8599                           
  8600     15EB                     l2931:	
  8601                           ;incstack = 0
  8602                           ; Regs used in ___awdiv: [wreg+status,2+status,0]
  8603                           
  8604     15EB  01F6               	clrf	___awdiv@sign
  8605     15EC                     l2933:
  8606     15EC  1FF1               	btfss	___awdiv@divisor+1,7
  8607     15ED  2DEF               	goto	u3471
  8608     15EE  2DF0               	goto	u3470
  8609     15EF                     u3471:
  8610     15EF  2DF7               	goto	l2939
  8611     15F0                     u3470:
  8612     15F0                     l2935:
  8613     15F0  09F0               	comf	___awdiv@divisor,f
  8614     15F1  09F1               	comf	___awdiv@divisor+1,f
  8615     15F2  0AF0               	incf	___awdiv@divisor,f
  8616     15F3  1903               	skipnz
  8617     15F4  0AF1               	incf	___awdiv@divisor+1,f
  8618     15F5                     l2937:
  8619     15F5  01F6               	clrf	___awdiv@sign
  8620     15F6  0AF6               	incf	___awdiv@sign,f
  8621     15F7                     l2939:
  8622     15F7  1FF3               	btfss	___awdiv@dividend+1,7
  8623     15F8  2DFA               	goto	u3481
  8624     15F9  2DFB               	goto	u3480
  8625     15FA                     u3481:
  8626     15FA  2E04               	goto	l2945
  8627     15FB                     u3480:
  8628     15FB                     l2941:
  8629     15FB  09F2               	comf	___awdiv@dividend,f
  8630     15FC  09F3               	comf	___awdiv@dividend+1,f
  8631     15FD  0AF2               	incf	___awdiv@dividend,f
  8632     15FE  1903               	skipnz
  8633     15FF  0AF3               	incf	___awdiv@dividend+1,f
  8634     1600                     l2943:
  8635     1600  3001               	movlw	1
  8636     1601  00F4               	movwf	??___awdiv
  8637     1602  0874               	movf	??___awdiv,w
  8638     1603  06F6               	xorwf	___awdiv@sign,f
  8639     1604                     l2945:
  8640     1604  01F7               	clrf	___awdiv@quotient
  8641     1605  01F8               	clrf	___awdiv@quotient+1
  8642     1606                     l2947:
  8643     1606  0870               	movf	___awdiv@divisor,w
  8644     1607  0471               	iorwf	___awdiv@divisor+1,w
  8645     1608  1903               	btfsc	3,2
  8646     1609  2E0B               	goto	u3491
  8647     160A  2E0C               	goto	u3490
  8648     160B                     u3491:
  8649     160B  2E3B               	goto	l2967
  8650     160C                     u3490:
  8651     160C                     l2949:
  8652     160C  01F5               	clrf	___awdiv@counter
  8653     160D  0AF5               	incf	___awdiv@counter,f
  8654     160E  2E18               	goto	l2955
  8655     160F                     l2951:
  8656     160F  3001               	movlw	1
  8657     1610                     u3505:
  8658     1610  35F0               	lslf	___awdiv@divisor,f
  8659     1611  0DF1               	rlf	___awdiv@divisor+1,f
  8660     1612  0B89               	decfsz	9,f
  8661     1613  2E10               	goto	u3505
  8662     1614                     l2953:
  8663     1614  3001               	movlw	1
  8664     1615  00F4               	movwf	??___awdiv
  8665     1616  0874               	movf	??___awdiv,w
  8666     1617  07F5               	addwf	___awdiv@counter,f
  8667     1618                     l2955:
  8668     1618  1FF1               	btfss	___awdiv@divisor+1,7
  8669     1619  2E1B               	goto	u3511
  8670     161A  2E1C               	goto	u3510
  8671     161B                     u3511:
  8672     161B  2E0F               	goto	l2951
  8673     161C                     u3510:
  8674     161C                     l2957:
  8675     161C  3001               	movlw	1
  8676     161D                     u3525:
  8677     161D  35F7               	lslf	___awdiv@quotient,f
  8678     161E  0DF8               	rlf	___awdiv@quotient+1,f
  8679     161F  0B89               	decfsz	9,f
  8680     1620  2E1D               	goto	u3525
  8681     1621  0871               	movf	___awdiv@divisor+1,w
  8682     1622  0273               	subwf	___awdiv@dividend+1,w
  8683     1623  1D03               	skipz
  8684     1624  2E27               	goto	u3535
  8685     1625  0870               	movf	___awdiv@divisor,w
  8686     1626  0272               	subwf	___awdiv@dividend,w
  8687     1627                     u3535:
  8688     1627  1C03               	skipc
  8689     1628  2E2A               	goto	u3531
  8690     1629  2E2B               	goto	u3530
  8691     162A                     u3531:
  8692     162A  2E30               	goto	l2963
  8693     162B                     u3530:
  8694     162B                     l2959:
  8695     162B  0870               	movf	___awdiv@divisor,w
  8696     162C  02F2               	subwf	___awdiv@dividend,f
  8697     162D  0871               	movf	___awdiv@divisor+1,w
  8698     162E  3BF3               	subwfb	___awdiv@dividend+1,f
  8699     162F                     l2961:
  8700     162F  1477               	bsf	___awdiv@quotient,0
  8701     1630                     l2963:
  8702     1630  3001               	movlw	1
  8703     1631                     u3545:
  8704     1631  36F1               	lsrf	___awdiv@divisor+1,f
  8705     1632  0CF0               	rrf	___awdiv@divisor,f
  8706     1633  0B89               	decfsz	9,f
  8707     1634  2E31               	goto	u3545
  8708     1635                     l2965:
  8709     1635  3001               	movlw	1
  8710     1636  02F5               	subwf	___awdiv@counter,f
  8711     1637  1D03               	btfss	3,2
  8712     1638  2E3A               	goto	u3551
  8713     1639  2E3B               	goto	u3550
  8714     163A                     u3551:
  8715     163A  2E1C               	goto	l2957
  8716     163B                     u3550:
  8717     163B                     l2967:
  8718     163B  0876               	movf	___awdiv@sign,w
  8719     163C  1903               	btfsc	3,2
  8720     163D  2E3F               	goto	u3561
  8721     163E  2E40               	goto	u3560
  8722     163F                     u3561:
  8723     163F  2E45               	goto	l2971
  8724     1640                     u3560:
  8725     1640                     l2969:
  8726     1640  09F7               	comf	___awdiv@quotient,f
  8727     1641  09F8               	comf	___awdiv@quotient+1,f
  8728     1642  0AF7               	incf	___awdiv@quotient,f
  8729     1643  1903               	skipnz
  8730     1644  0AF8               	incf	___awdiv@quotient+1,f
  8731     1645                     l2971:
  8732     1645  0878               	movf	___awdiv@quotient+1,w
  8733     1646  00F1               	movwf	?___awdiv+1
  8734     1647  0877               	movf	___awdiv@quotient,w
  8735     1648  00F0               	movwf	?___awdiv
  8736     1649                     l608:
  8737     1649  0008               	return
  8738     164A                     __end_of___awdiv:
  8739                           
  8740                           	psect	text20
  8741     0B3F                     __ptext20:	
  8742 ;; *************** function ___almod *****************
  8743 ;; Defined at:
  8744 ;;		line 5 in file "C:\Program Files\Microchip\xc8\v2.46\pic\sources\c99\common\almod.c"
  8745 ;; Parameters:    Size  Location     Type
  8746 ;;  divisor         4    0[COMMON] long 
  8747 ;;  dividend        4    4[COMMON] long 
  8748 ;; Auto vars:     Size  Location     Type
  8749 ;;  sign            1   10[COMMON] unsigned char 
  8750 ;;  counter         1    9[COMMON] unsigned char 
  8751 ;; Return value:  Size  Location     Type
  8752 ;;                  4    0[COMMON] long 
  8753 ;; Registers used:
  8754 ;;		wreg, status,2, status,0
  8755 ;; Tracked objects:
  8756 ;;		On entry : 0/0
  8757 ;;		On exit  : 0/0
  8758 ;;		Unchanged: 0/0
  8759 ;; Data sizes:     COMMON   BANK0   BANK1   BANK2   BANK3   BANK4   BANK5   BANK6   BANK7   BANK8   BANK9  BANK10  BANK1
      +1  BANK12  BANK13  BANK14  BANK15  BANK16  BANK17  BANK18  BANK19  BANK20  BANK21  BANK22  BANK23  BANK24  BANK25
  8760 ;;      Params:         8       0       0       0       0       0       0       0       0       0       0       0       
      +0       0       0       0       0       0       0       0       0       0       0       0       0       0       0
  8761 ;;      Locals:         2       0       0       0       0       0       0       0       0       0       0       0       
      +0       0       0       0       0       0       0       0       0       0       0       0       0       0       0
  8762 ;;      Temps:          1       0       0       0       0       0       0       0       0       0       0       0       
      +0       0       0       0       0       0       0       0       0       0       0       0       0       0       0
  8763 ;;      Totals:        11       0       0       0       0       0       0       0       0       0       0       0       
      +0       0       0       0       0       0       0       0       0       0       0       0       0       0       0
  8764 ;;Total ram usage:       11 bytes
  8765 ;; Hardware stack levels used: 1
  8766 ;; This function calls:
  8767 ;;		Nothing
  8768 ;; This function is called by:
  8769 ;;		_OLED_Printf_Line
  8770 ;; This function uses a non-reentrant model
  8771 ;;
  8772                           
  8773     0B3F                     ___almod:	
  8774                           ;psect for function ___almod
  8775                           
  8776     0B3F                     l2899:	
  8777                           ;incstack = 0
  8778                           ; Regs used in ___almod: [wreg+status,2+status,0]
  8779                           
  8780     0B3F  01FA               	clrf	___almod@sign
  8781     0B40                     l2901:
  8782     0B40  1FF7               	btfss	___almod@dividend+3,7
  8783     0B41  2B43               	goto	u3381
  8784     0B42  2B44               	goto	u3380
  8785     0B43                     u3381:
  8786     0B43  2B51               	goto	l533
  8787     0B44                     u3380:
  8788     0B44                     l2903:
  8789     0B44  09F4               	comf	___almod@dividend,f
  8790     0B45  09F5               	comf	___almod@dividend+1,f
  8791     0B46  09F6               	comf	___almod@dividend+2,f
  8792     0B47  09F7               	comf	___almod@dividend+3,f
  8793     0B48  0AF4               	incf	___almod@dividend,f
  8794     0B49  1903               	skipnz
  8795     0B4A  0AF5               	incf	___almod@dividend+1,f
  8796     0B4B  1903               	skipnz
  8797     0B4C  0AF6               	incf	___almod@dividend+2,f
  8798     0B4D  1903               	skipnz
  8799     0B4E  0AF7               	incf	___almod@dividend+3,f
  8800     0B4F  01FA               	clrf	___almod@sign
  8801     0B50  0AFA               	incf	___almod@sign,f
  8802     0B51                     l533:
  8803     0B51  1FF3               	btfss	___almod@divisor+3,7
  8804     0B52  2B54               	goto	u3391
  8805     0B53  2B55               	goto	u3390
  8806     0B54                     u3391:
  8807     0B54  2B60               	goto	l2907
  8808     0B55                     u3390:
  8809     0B55                     l2905:
  8810     0B55  09F0               	comf	___almod@divisor,f
  8811     0B56  09F1               	comf	___almod@divisor+1,f
  8812     0B57  09F2               	comf	___almod@divisor+2,f
  8813     0B58  09F3               	comf	___almod@divisor+3,f
  8814     0B59  0AF0               	incf	___almod@divisor,f
  8815     0B5A  1903               	skipnz
  8816     0B5B  0AF1               	incf	___almod@divisor+1,f
  8817     0B5C  1903               	skipnz
  8818     0B5D  0AF2               	incf	___almod@divisor+2,f
  8819     0B5E  1903               	skipnz
  8820     0B5F  0AF3               	incf	___almod@divisor+3,f
  8821     0B60                     l2907:
  8822     0B60  0873               	movf	___almod@divisor+3,w
  8823     0B61  0472               	iorwf	___almod@divisor+2,w
  8824     0B62  0471               	iorwf	___almod@divisor+1,w
  8825     0B63  0470               	iorwf	___almod@divisor,w
  8826     0B64  1903               	skipnz
  8827     0B65  2B67               	goto	u3401
  8828     0B66  2B68               	goto	u3400
  8829     0B67                     u3401:
  8830     0B67  2BA1               	goto	l2923
  8831     0B68                     u3400:
  8832     0B68                     l2909:
  8833     0B68  01F9               	clrf	___almod@counter
  8834     0B69  0AF9               	incf	___almod@counter,f
  8835     0B6A  2B76               	goto	l2913
  8836     0B6B                     l2911:
  8837     0B6B  3001               	movlw	1
  8838     0B6C                     u3415:
  8839     0B6C  35F0               	lslf	___almod@divisor,f
  8840     0B6D  0DF1               	rlf	___almod@divisor+1,f
  8841     0B6E  0DF2               	rlf	___almod@divisor+2,f
  8842     0B6F  0DF3               	rlf	___almod@divisor+3,f
  8843     0B70  0B89               	decfsz	9,f
  8844     0B71  2B6C               	goto	u3415
  8845     0B72  3001               	movlw	1
  8846     0B73  00F8               	movwf	??___almod
  8847     0B74  0878               	movf	??___almod,w
  8848     0B75  07F9               	addwf	___almod@counter,f
  8849     0B76                     l2913:
  8850     0B76  1FF3               	btfss	___almod@divisor+3,7
  8851     0B77  2B79               	goto	u3421
  8852     0B78  2B7A               	goto	u3420
  8853     0B79                     u3421:
  8854     0B79  2B6B               	goto	l2911
  8855     0B7A                     u3420:
  8856     0B7A                     l2915:
  8857     0B7A  0873               	movf	___almod@divisor+3,w
  8858     0B7B  0277               	subwf	___almod@dividend+3,w
  8859     0B7C  1D03               	skipz
  8860     0B7D  2B88               	goto	u3435
  8861     0B7E  0872               	movf	___almod@divisor+2,w
  8862     0B7F  0276               	subwf	___almod@dividend+2,w
  8863     0B80  1D03               	skipz
  8864     0B81  2B88               	goto	u3435
  8865     0B82  0871               	movf	___almod@divisor+1,w
  8866     0B83  0275               	subwf	___almod@dividend+1,w
  8867     0B84  1D03               	skipz
  8868     0B85  2B88               	goto	u3435
  8869     0B86  0870               	movf	___almod@divisor,w
  8870     0B87  0274               	subwf	___almod@dividend,w
  8871     0B88                     u3435:
  8872     0B88  1C03               	skipc
  8873     0B89  2B8B               	goto	u3431
  8874     0B8A  2B8C               	goto	u3430
  8875     0B8B                     u3431:
  8876     0B8B  2B94               	goto	l2919
  8877     0B8C                     u3430:
  8878     0B8C                     l2917:
  8879     0B8C  0870               	movf	___almod@divisor,w
  8880     0B8D  02F4               	subwf	___almod@dividend,f
  8881     0B8E  0871               	movf	___almod@divisor+1,w
  8882     0B8F  3BF5               	subwfb	___almod@dividend+1,f
  8883     0B90  0872               	movf	___almod@divisor+2,w
  8884     0B91  3BF6               	subwfb	___almod@dividend+2,f
  8885     0B92  0873               	movf	___almod@divisor+3,w
  8886     0B93  3BF7               	subwfb	___almod@dividend+3,f
  8887     0B94                     l2919:
  8888     0B94  3001               	movlw	1
  8889     0B95                     u3445:
  8890     0B95  36F3               	lsrf	___almod@divisor+3,f
  8891     0B96  0CF2               	rrf	___almod@divisor+2,f
  8892     0B97  0CF1               	rrf	___almod@divisor+1,f
  8893     0B98  0CF0               	rrf	___almod@divisor,f
  8894     0B99  0B89               	decfsz	9,f
  8895     0B9A  2B95               	goto	u3445
  8896     0B9B                     l2921:
  8897     0B9B  3001               	movlw	1
  8898     0B9C  02F9               	subwf	___almod@counter,f
  8899     0B9D  1D03               	btfss	3,2
  8900     0B9E  2BA0               	goto	u3451
  8901     0B9F  2BA1               	goto	u3450
  8902     0BA0                     u3451:
  8903     0BA0  2B7A               	goto	l2915
  8904     0BA1                     u3450:
  8905     0BA1                     l2923:
  8906     0BA1  087A               	movf	___almod@sign,w
  8907     0BA2  1903               	btfsc	3,2
  8908     0BA3  2BA5               	goto	u3461
  8909     0BA4  2BA6               	goto	u3460
  8910     0BA5                     u3461:
  8911     0BA5  2BB1               	goto	l2927
  8912     0BA6                     u3460:
  8913     0BA6                     l2925:
  8914     0BA6  09F4               	comf	___almod@dividend,f
  8915     0BA7  09F5               	comf	___almod@dividend+1,f
  8916     0BA8  09F6               	comf	___almod@dividend+2,f
  8917     0BA9  09F7               	comf	___almod@dividend+3,f
  8918     0BAA  0AF4               	incf	___almod@dividend,f
  8919     0BAB  1903               	skipnz
  8920     0BAC  0AF5               	incf	___almod@dividend+1,f
  8921     0BAD  1903               	skipnz
  8922     0BAE  0AF6               	incf	___almod@dividend+2,f
  8923     0BAF  1903               	skipnz
  8924     0BB0  0AF7               	incf	___almod@dividend+3,f
  8925     0BB1                     l2927:
  8926     0BB1  0877               	movf	___almod@dividend+3,w
  8927     0BB2  00F3               	movwf	?___almod+3
  8928     0BB3  0876               	movf	___almod@dividend+2,w
  8929     0BB4  00F2               	movwf	?___almod+2
  8930     0BB5  0875               	movf	___almod@dividend+1,w
  8931     0BB6  00F1               	movwf	?___almod+1
  8932     0BB7  0874               	movf	___almod@dividend,w
  8933     0BB8  00F0               	movwf	?___almod
  8934     0BB9                     l543:
  8935     0BB9  0008               	return
  8936     0BBA                     __end_of___almod:
  8937                           
  8938                           	psect	text21
  8939     0BBA                     __ptext21:	
  8940 ;; *************** function ___aldiv *****************
  8941 ;; Defined at:
  8942 ;;		line 5 in file "C:\Program Files\Microchip\xc8\v2.46\pic\sources\c99\common\aldiv.c"
  8943 ;; Parameters:    Size  Location     Type
  8944 ;;  divisor         4    0[COMMON] long 
  8945 ;;  dividend        4    4[COMMON] long 
  8946 ;; Auto vars:     Size  Location     Type
  8947 ;;  quotient        4    2[BANK0 ] long 
  8948 ;;  sign            1    1[BANK0 ] unsigned char 
  8949 ;;  counter         1    0[BANK0 ] unsigned char 
  8950 ;; Return value:  Size  Location     Type
  8951 ;;                  4    0[COMMON] long 
  8952 ;; Registers used:
  8953 ;;		wreg, status,2, status,0
  8954 ;; Tracked objects:
  8955 ;;		On entry : 0/0
  8956 ;;		On exit  : 0/0
  8957 ;;		Unchanged: 0/0
  8958 ;; Data sizes:     COMMON   BANK0   BANK1   BANK2   BANK3   BANK4   BANK5   BANK6   BANK7   BANK8   BANK9  BANK10  BANK1
      +1  BANK12  BANK13  BANK14  BANK15  BANK16  BANK17  BANK18  BANK19  BANK20  BANK21  BANK22  BANK23  BANK24  BANK25
  8959 ;;      Params:         8       0       0       0       0       0       0       0       0       0       0       0       
      +0       0       0       0       0       0       0       0       0       0       0       0       0       0       0
  8960 ;;      Locals:         0       6       0       0       0       0       0       0       0       0       0       0       
      +0       0       0       0       0       0       0       0       0       0       0       0       0       0       0
  8961 ;;      Temps:          1       0       0       0       0       0       0       0       0       0       0       0       
      +0       0       0       0       0       0       0       0       0       0       0       0       0       0       0
  8962 ;;      Totals:         9       6       0       0       0       0       0       0       0       0       0       0       
      +0       0       0       0       0       0       0       0       0       0       0       0       0       0       0
  8963 ;;Total ram usage:       15 bytes
  8964 ;; Hardware stack levels used: 1
  8965 ;; This function calls:
  8966 ;;		Nothing
  8967 ;; This function is called by:
  8968 ;;		_OLED_Printf_Line
  8969 ;; This function uses a non-reentrant model
  8970 ;;
  8971                           
  8972     0BBA                     ___aldiv:	
  8973                           ;psect for function ___aldiv
  8974                           
  8975     0BBA                     l2859:	
  8976                           ;incstack = 0
  8977                           ; Regs used in ___aldiv: [wreg+status,2+status,0]
  8978                           
  8979     0BBA  0020               	movlb	0	; select bank0
  8980     0BBB  01A1               	clrf	___aldiv@sign
  8981     0BBC                     l2861:
  8982     0BBC  1FF3               	btfss	___aldiv@divisor+3,7
  8983     0BBD  2BBF               	goto	u3281
  8984     0BBE  2BC0               	goto	u3280
  8985     0BBF                     u3281:
  8986     0BBF  2BCD               	goto	l520
  8987     0BC0                     u3280:
  8988     0BC0                     l2863:
  8989     0BC0  09F0               	comf	___aldiv@divisor,f
  8990     0BC1  09F1               	comf	___aldiv@divisor+1,f
  8991     0BC2  09F2               	comf	___aldiv@divisor+2,f
  8992     0BC3  09F3               	comf	___aldiv@divisor+3,f
  8993     0BC4  0AF0               	incf	___aldiv@divisor,f
  8994     0BC5  1903               	skipnz
  8995     0BC6  0AF1               	incf	___aldiv@divisor+1,f
  8996     0BC7  1903               	skipnz
  8997     0BC8  0AF2               	incf	___aldiv@divisor+2,f
  8998     0BC9  1903               	skipnz
  8999     0BCA  0AF3               	incf	___aldiv@divisor+3,f
  9000     0BCB  01A1               	clrf	___aldiv@sign
  9001     0BCC  0AA1               	incf	___aldiv@sign,f
  9002     0BCD                     l520:
  9003     0BCD  1FF7               	btfss	___aldiv@dividend+3,7
  9004     0BCE  2BD0               	goto	u3291
  9005     0BCF  2BD1               	goto	u3290
  9006     0BD0                     u3291:
  9007     0BD0  2BE0               	goto	l2869
  9008     0BD1                     u3290:
  9009     0BD1                     l2865:
  9010     0BD1  09F4               	comf	___aldiv@dividend,f
  9011     0BD2  09F5               	comf	___aldiv@dividend+1,f
  9012     0BD3  09F6               	comf	___aldiv@dividend+2,f
  9013     0BD4  09F7               	comf	___aldiv@dividend+3,f
  9014     0BD5  0AF4               	incf	___aldiv@dividend,f
  9015     0BD6  1903               	skipnz
  9016     0BD7  0AF5               	incf	___aldiv@dividend+1,f
  9017     0BD8  1903               	skipnz
  9018     0BD9  0AF6               	incf	___aldiv@dividend+2,f
  9019     0BDA  1903               	skipnz
  9020     0BDB  0AF7               	incf	___aldiv@dividend+3,f
  9021     0BDC                     l2867:
  9022     0BDC  3001               	movlw	1
  9023     0BDD  00F8               	movwf	??___aldiv
  9024     0BDE  0878               	movf	??___aldiv,w
  9025     0BDF  06A1               	xorwf	___aldiv@sign,f
  9026     0BE0                     l2869:
  9027     0BE0  3000               	movlw	0
  9028     0BE1  00A5               	movwf	___aldiv@quotient+3
  9029     0BE2  3000               	movlw	0
  9030     0BE3  00A4               	movwf	___aldiv@quotient+2
  9031     0BE4  3000               	movlw	0
  9032     0BE5  00A3               	movwf	___aldiv@quotient+1
  9033     0BE6  3000               	movlw	0
  9034     0BE7  00A2               	movwf	___aldiv@quotient
  9035     0BE8                     l2871:
  9036     0BE8  0873               	movf	___aldiv@divisor+3,w
  9037     0BE9  0472               	iorwf	___aldiv@divisor+2,w
  9038     0BEA  0471               	iorwf	___aldiv@divisor+1,w
  9039     0BEB  0470               	iorwf	___aldiv@divisor,w
  9040     0BEC  1903               	skipnz
  9041     0BED  2BEF               	goto	u3301
  9042     0BEE  2BF0               	goto	u3300
  9043     0BEF                     u3301:
  9044     0BEF  2C31               	goto	l2891
  9045     0BF0                     u3300:
  9046     0BF0                     l2873:
  9047     0BF0  01A0               	clrf	___aldiv@counter
  9048     0BF1  0AA0               	incf	___aldiv@counter,f
  9049     0BF2  2BFE               	goto	l2877
  9050     0BF3                     l2875:
  9051     0BF3  3001               	movlw	1
  9052     0BF4                     u3315:
  9053     0BF4  35F0               	lslf	___aldiv@divisor,f
  9054     0BF5  0DF1               	rlf	___aldiv@divisor+1,f
  9055     0BF6  0DF2               	rlf	___aldiv@divisor+2,f
  9056     0BF7  0DF3               	rlf	___aldiv@divisor+3,f
  9057     0BF8  0B89               	decfsz	9,f
  9058     0BF9  2BF4               	goto	u3315
  9059     0BFA  3001               	movlw	1
  9060     0BFB  00F8               	movwf	??___aldiv
  9061     0BFC  0878               	movf	??___aldiv,w
  9062     0BFD  07A0               	addwf	___aldiv@counter,f
  9063     0BFE                     l2877:
  9064     0BFE  1FF3               	btfss	___aldiv@divisor+3,7
  9065     0BFF  2C01               	goto	u3321
  9066     0C00  2C02               	goto	u3320
  9067     0C01                     u3321:
  9068     0C01  2BF3               	goto	l2875
  9069     0C02                     u3320:
  9070     0C02                     l2879:
  9071     0C02  3001               	movlw	1
  9072     0C03                     u3335:
  9073     0C03  35A2               	lslf	___aldiv@quotient,f
  9074     0C04  0DA3               	rlf	___aldiv@quotient+1,f
  9075     0C05  0DA4               	rlf	___aldiv@quotient+2,f
  9076     0C06  0DA5               	rlf	___aldiv@quotient+3,f
  9077     0C07  0B89               	decfsz	9,f
  9078     0C08  2C03               	goto	u3335
  9079     0C09                     l2881:
  9080     0C09  0873               	movf	___aldiv@divisor+3,w
  9081     0C0A  0277               	subwf	___aldiv@dividend+3,w
  9082     0C0B  1D03               	skipz
  9083     0C0C  2C17               	goto	u3345
  9084     0C0D  0872               	movf	___aldiv@divisor+2,w
  9085     0C0E  0276               	subwf	___aldiv@dividend+2,w
  9086     0C0F  1D03               	skipz
  9087     0C10  2C17               	goto	u3345
  9088     0C11  0871               	movf	___aldiv@divisor+1,w
  9089     0C12  0275               	subwf	___aldiv@dividend+1,w
  9090     0C13  1D03               	skipz
  9091     0C14  2C17               	goto	u3345
  9092     0C15  0870               	movf	___aldiv@divisor,w
  9093     0C16  0274               	subwf	___aldiv@dividend,w
  9094     0C17                     u3345:
  9095     0C17  1C03               	skipc
  9096     0C18  2C1A               	goto	u3341
  9097     0C19  2C1B               	goto	u3340
  9098     0C1A                     u3341:
  9099     0C1A  2C24               	goto	l2887
  9100     0C1B                     u3340:
  9101     0C1B                     l2883:
  9102     0C1B  0870               	movf	___aldiv@divisor,w
  9103     0C1C  02F4               	subwf	___aldiv@dividend,f
  9104     0C1D  0871               	movf	___aldiv@divisor+1,w
  9105     0C1E  3BF5               	subwfb	___aldiv@dividend+1,f
  9106     0C1F  0872               	movf	___aldiv@divisor+2,w
  9107     0C20  3BF6               	subwfb	___aldiv@dividend+2,f
  9108     0C21  0873               	movf	___aldiv@divisor+3,w
  9109     0C22  3BF7               	subwfb	___aldiv@dividend+3,f
  9110     0C23                     l2885:
  9111     0C23  1422               	bsf	___aldiv@quotient,0
  9112     0C24                     l2887:
  9113     0C24  3001               	movlw	1
  9114     0C25                     u3355:
  9115     0C25  36F3               	lsrf	___aldiv@divisor+3,f
  9116     0C26  0CF2               	rrf	___aldiv@divisor+2,f
  9117     0C27  0CF1               	rrf	___aldiv@divisor+1,f
  9118     0C28  0CF0               	rrf	___aldiv@divisor,f
  9119     0C29  0B89               	decfsz	9,f
  9120     0C2A  2C25               	goto	u3355
  9121     0C2B                     l2889:
  9122     0C2B  3001               	movlw	1
  9123     0C2C  02A0               	subwf	___aldiv@counter,f
  9124     0C2D  1D03               	btfss	3,2
  9125     0C2E  2C30               	goto	u3361
  9126     0C2F  2C31               	goto	u3360
  9127     0C30                     u3361:
  9128     0C30  2C02               	goto	l2879
  9129     0C31                     u3360:
  9130     0C31                     l2891:
  9131     0C31  0821               	movf	___aldiv@sign,w
  9132     0C32  1903               	btfsc	3,2
  9133     0C33  2C35               	goto	u3371
  9134     0C34  2C36               	goto	u3370
  9135     0C35                     u3371:
  9136     0C35  2C41               	goto	l2895
  9137     0C36                     u3370:
  9138     0C36                     l2893:
  9139     0C36  09A2               	comf	___aldiv@quotient,f
  9140     0C37  09A3               	comf	___aldiv@quotient+1,f
  9141     0C38  09A4               	comf	___aldiv@quotient+2,f
  9142     0C39  09A5               	comf	___aldiv@quotient+3,f
  9143     0C3A  0AA2               	incf	___aldiv@quotient,f
  9144     0C3B  1903               	skipnz
  9145     0C3C  0AA3               	incf	___aldiv@quotient+1,f
  9146     0C3D  1903               	skipnz
  9147     0C3E  0AA4               	incf	___aldiv@quotient+2,f
  9148     0C3F  1903               	skipnz
  9149     0C40  0AA5               	incf	___aldiv@quotient+3,f
  9150     0C41                     l2895:
  9151     0C41  0825               	movf	___aldiv@quotient+3,w
  9152     0C42  00F3               	movwf	?___aldiv+3
  9153     0C43  0824               	movf	___aldiv@quotient+2,w
  9154     0C44  00F2               	movwf	?___aldiv+2
  9155     0C45  0823               	movf	___aldiv@quotient+1,w
  9156     0C46  00F1               	movwf	?___aldiv+1
  9157     0C47  0822               	movf	___aldiv@quotient,w
  9158     0C48  00F0               	movwf	?___aldiv
  9159     0C49                     l530:
  9160     0C49  0008               	return
  9161     0C4A                     __end_of___aldiv:
  9162                           
  9163                           	psect	text22
  9164     12D6                     __ptext22:	
  9165 ;; *************** function _OLED_UpdateLine *****************
  9166 ;; Defined at:
  9167 ;;		line 370 in file "OLED_SSD1306.c"
  9168 ;; Parameters:    Size  Location     Type
  9169 ;;  page            1    wreg     unsigned char 
  9170 ;; Auto vars:     Size  Location     Type
  9171 ;;  page            1   12[COMMON] unsigned char 
  9172 ;; Return value:  Size  Location     Type
  9173 ;;                  1    wreg      void 
  9174 ;; Registers used:
  9175 ;;		wreg, fsr0l, fsr0h, status,2, status,0, pclath, cstack
  9176 ;; Tracked objects:
  9177 ;;		On entry : 0/0
  9178 ;;		On exit  : 0/0
  9179 ;;		Unchanged: 0/0
  9180 ;; Data sizes:     COMMON   BANK0   BANK1   BANK2   BANK3   BANK4   BANK5   BANK6   BANK7   BANK8   BANK9  BANK10  BANK1
      +1  BANK12  BANK13  BANK14  BANK15  BANK16  BANK17  BANK18  BANK19  BANK20  BANK21  BANK22  BANK23  BANK24  BANK25
  9181 ;;      Params:         0       0       0       0       0       0       0       0       0       0       0       0       
      +0       0       0       0       0       0       0       0       0       0       0       0       0       0       0
  9182 ;;      Locals:         1       0       0       0       0       0       0       0       0       0       0       0       
      +0       0       0       0       0       0       0       0       0       0       0       0       0       0       0
  9183 ;;      Temps:          0       6       0       0       0       0       0       0       0       0       0       0       
      +0       0       0       0       0       0       0       0       0       0       0       0       0       0       0
  9184 ;;      Totals:         1       6       0       0       0       0       0       0       0       0       0       0       
      +0       0       0       0       0       0       0       0       0       0       0       0       0       0       0
  9185 ;;Total ram usage:        7 bytes
  9186 ;; Hardware stack levels used: 1
  9187 ;; Hardware stack levels required when called: 4
  9188 ;; This function calls:
  9189 ;;		_OLED_WriteData
  9190 ;;		_OLED_YX
  9191 ;; This function is called by:
  9192 ;;		_OLED_Printf_Line
  9193 ;; This function uses a non-reentrant model
  9194 ;;
  9195                           
  9196     12D6                     _OLED_UpdateLine:	
  9197                           ;psect for function _OLED_UpdateLine
  9198                           
  9199                           
  9200                           ;incstack = 0
  9201                           ; Regs used in _OLED_UpdateLine: [wreg-fsr0h+status,2+status,0+pclath+cstack]
  9202                           ;OLED_UpdateLine@page stored from wreg
  9203     12D6  00FC               	movwf	OLED_UpdateLine@page
  9204     12D7                     l2799:
  9205                           
  9206                           ;OLED_SSD1306.c: 370: void OLED_UpdateLine(uint8_t page);OLED_SSD1306.c: 371: {;OLED_SSD
      +                          1306.c: 372:     if (page >= (32 / 8)) return;
  9207     12D7  3004               	movlw	4
  9208     12D8  027C               	subwf	OLED_UpdateLine@page,w
  9209     12D9  1C03               	skipc
  9210     12DA  2ADC               	goto	u3151
  9211     12DB  2ADD               	goto	u3150
  9212     12DC                     u3151:
  9213     12DC  2ADE               	goto	l2803
  9214     12DD                     u3150:
  9215     12DD  2B01               	goto	l239
  9216     12DE                     l2803:
  9217                           
  9218                           ;OLED_SSD1306.c: 374:     OLED_YX(page, 0);
  9219     12DE  01F7               	clrf	OLED_YX@col_char
  9220     12DF  087C               	movf	OLED_UpdateLine@page,w
  9221     12E0  3192  2220  3192   	fcall	_OLED_YX
  9222     12E3                     l2805:
  9223                           
  9224                           ;OLED_SSD1306.c: 375:     (void)OLED_WriteData(screen_buffer[page], 128);
  9225     12E3  087C               	movf	OLED_UpdateLine@page,w
  9226     12E4  0020               	movlb	0	; select bank0
  9227     12E5  00A0               	movwf	??_OLED_UpdateLine
  9228     12E6  01A1               	clrf	??_OLED_UpdateLine+1
  9229     12E7  3007               	movlw	7
  9230     12E8                     u3165:
  9231     12E8  35A0               	lslf	??_OLED_UpdateLine,f
  9232     12E9  0DA1               	rlf	??_OLED_UpdateLine+1,f
  9233     12EA  0B89               	decfsz	9,f
  9234     12EB  2AE8               	goto	u3165
  9235     12EC  30F0               	movlw	240
  9236     12ED  00A2               	movwf	??_OLED_UpdateLine+2
  9237     12EE  3024               	movlw	36
  9238     12EF  00A3               	movwf	??_OLED_UpdateLine+3
  9239     12F0  0820               	movf	??_OLED_UpdateLine,w
  9240     12F1  0722               	addwf	??_OLED_UpdateLine+2,w
  9241     12F2  00A4               	movwf	??_OLED_UpdateLine+4
  9242     12F3  0821               	movf	??_OLED_UpdateLine+1,w
  9243     12F4  3D23               	addwfc	??_OLED_UpdateLine+3,w
  9244     12F5  00A5               	movwf	??_OLED_UpdateLine+5
  9245     12F6  0824               	movf	??_OLED_UpdateLine+4,w
  9246     12F7  00F5               	movwf	OLED_WriteData@data
  9247     12F8  0825               	movf	??_OLED_UpdateLine+5,w
  9248     12F9  00F6               	movwf	OLED_WriteData@data+1
  9249     12FA  3080               	movlw	128
  9250     12FB  00F7               	movwf	OLED_WriteData@len
  9251     12FC  3000               	movlw	0
  9252     12FD  00F8               	movwf	OLED_WriteData@len+1
  9253     12FE  3194  24EE  3192   	fcall	_OLED_WriteData
  9254     1301                     l239:
  9255     1301  0008               	return
  9256     1302                     __end_of_OLED_UpdateLine:
  9257                           
  9258                           	psect	text23
  9259     178C                     __ptext23:	
  9260 ;; *************** function _OLED_Init *****************
  9261 ;; Defined at:
  9262 ;;		line 298 in file "OLED_SSD1306.c"
  9263 ;; Parameters:    Size  Location     Type
  9264 ;;		None
  9265 ;; Auto vars:     Size  Location     Type
  9266 ;;		None
  9267 ;; Return value:  Size  Location     Type
  9268 ;;                  1    wreg      void 
  9269 ;; Registers used:
  9270 ;;		wreg, fsr0l, fsr0h, fsr1l, fsr1h, status,2, status,0, pclath, cstack
  9271 ;; Tracked objects:
  9272 ;;		On entry : 0/0
  9273 ;;		On exit  : 0/0
  9274 ;;		Unchanged: 0/0
  9275 ;; Data sizes:     COMMON   BANK0   BANK1   BANK2   BANK3   BANK4   BANK5   BANK6   BANK7   BANK8   BANK9  BANK10  BANK1
      +1  BANK12  BANK13  BANK14  BANK15  BANK16  BANK17  BANK18  BANK19  BANK20  BANK21  BANK22  BANK23  BANK24  BANK25
  9276 ;;      Params:         0       0       0       0       0       0       0       0       0       0       0       0       
      +0       0       0       0       0       0       0       0       0       0       0       0       0       0       0
  9277 ;;      Locals:         0       0       0       0       0       0       0       0       0       0       0       0       
      +0       0       0       0       0       0       0       0       0       0       0       0       0       0       0
  9278 ;;      Temps:          1       0       0       0       0       0       0       0       0       0       0       0       
      +0       0       0       0       0       0       0       0       0       0       0       0       0       0       0
  9279 ;;      Totals:         1       0       0       0       0       0       0       0       0       0       0       0       
      +0       0       0       0       0       0       0       0       0       0       0       0       0       0       0
  9280 ;;Total ram usage:        1 bytes
  9281 ;; Hardware stack levels used: 1
  9282 ;; Hardware stack levels required when called: 5
  9283 ;; This function calls:
  9284 ;;		_OLED_Clear
  9285 ;;		_OLED_Command
  9286 ;; This function is called by:
  9287 ;;		_main
  9288 ;; This function uses a non-reentrant model
  9289 ;;
  9290                           
  9291     178C                     _OLED_Init:	
  9292                           ;psect for function _OLED_Init
  9293                           
  9294     178C                     l3183:	
  9295                           ;incstack = 0
  9296                           ; Regs used in _OLED_Init: [wreg-fsr1h+status,2+status,0+pclath+cstack]
  9297                           
  9298                           
  9299                           ;OLED_SSD1306.c: 300:     _delay((unsigned long)((10)*(32000000/4000.0)));
  9300     178C  3068               	movlw	104
  9301     178D  00FD               	movwf	??_OLED_Init
  9302     178E  30E4               	movlw	228
  9303     178F                     u5767:
  9304     178F  0B89               	decfsz	9,f
  9305     1790  2F8F               	goto	u5767
  9306     1791  0BFD               	decfsz	??_OLED_Init,f
  9307     1792  2F8F               	goto	u5767
  9308     1793  3200               	nop2
  9309     1794                     l3185:
  9310                           
  9311                           ;OLED_SSD1306.c: 302:     (void)OLED_Command(0xAE);
  9312     1794  30AE               	movlw	174
  9313     1795  3193  232F  3197   	fcall	_OLED_Command
  9314     1798                     l3187:
  9315                           
  9316                           ;OLED_SSD1306.c: 303:     (void)OLED_Command(0x2E);
  9317     1798  302E               	movlw	46
  9318     1799  3193  232F  3197   	fcall	_OLED_Command
  9319     179C                     l3189:
  9320                           
  9321                           ;OLED_SSD1306.c: 305:     (void)OLED_Command(0xD5);
  9322     179C  30D5               	movlw	213
  9323     179D  3193  232F  3197   	fcall	_OLED_Command
  9324     17A0                     l3191:
  9325                           
  9326                           ;OLED_SSD1306.c: 306:     (void)OLED_Command(0x80);
  9327     17A0  3080               	movlw	128
  9328     17A1  3193  232F  3197   	fcall	_OLED_Command
  9329     17A4                     l3193:
  9330                           
  9331                           ;OLED_SSD1306.c: 308:     (void)OLED_Command(0xA8);
  9332     17A4  30A8               	movlw	168
  9333     17A5  3193  232F  3197   	fcall	_OLED_Command
  9334     17A8                     l3195:
  9335                           
  9336                           ;OLED_SSD1306.c: 312:     (void)OLED_Command(0x1F);
  9337     17A8  301F               	movlw	31
  9338     17A9  3193  232F  3197   	fcall	_OLED_Command
  9339     17AC                     l3197:
  9340                           
  9341                           ;OLED_SSD1306.c: 315:     (void)OLED_Command(0xD3);
  9342     17AC  30D3               	movlw	211
  9343     17AD  3193  232F  3197   	fcall	_OLED_Command
  9344     17B0                     l3199:
  9345                           
  9346                           ;OLED_SSD1306.c: 316:     (void)OLED_Command(0x00);
  9347     17B0  3000               	movlw	0
  9348     17B1  3193  232F  3197   	fcall	_OLED_Command
  9349     17B4                     l3201:
  9350                           
  9351                           ;OLED_SSD1306.c: 318:     (void)OLED_Command(0x40 | 0x00);
  9352     17B4  3040               	movlw	64
  9353     17B5  3193  232F  3197   	fcall	_OLED_Command
  9354     17B8                     l3203:
  9355                           
  9356                           ;OLED_SSD1306.c: 320:     (void)OLED_Command(0x8D);
  9357     17B8  308D               	movlw	141
  9358     17B9  3193  232F  3197   	fcall	_OLED_Command
  9359     17BC                     l3205:
  9360                           
  9361                           ;OLED_SSD1306.c: 321:     (void)OLED_Command(0x14);
  9362     17BC  3014               	movlw	20
  9363     17BD  3193  232F  3197   	fcall	_OLED_Command
  9364     17C0                     l3207:
  9365                           
  9366                           ;OLED_SSD1306.c: 323:     (void)OLED_Command(0x20);
  9367     17C0  3020               	movlw	32
  9368     17C1  3193  232F  3197   	fcall	_OLED_Command
  9369     17C4                     l3209:
  9370                           
  9371                           ;OLED_SSD1306.c: 324:     (void)OLED_Command(0x02);
  9372     17C4  3002               	movlw	2
  9373     17C5  3193  232F  3197   	fcall	_OLED_Command
  9374     17C8                     l3211:
  9375                           
  9376                           ;OLED_SSD1306.c: 326:     (void)OLED_Command(0xA0 | 0x01);
  9377     17C8  30A1               	movlw	161
  9378     17C9  3193  232F  3197   	fcall	_OLED_Command
  9379     17CC                     l3213:
  9380                           
  9381                           ;OLED_SSD1306.c: 327:     (void)OLED_Command(0xC8);
  9382     17CC  30C8               	movlw	200
  9383     17CD  3193  232F  3197   	fcall	_OLED_Command
  9384     17D0                     l3215:
  9385                           
  9386                           ;OLED_SSD1306.c: 329:     (void)OLED_Command(0xDA);
  9387     17D0  30DA               	movlw	218
  9388     17D1  3193  232F  3197   	fcall	_OLED_Command
  9389     17D4                     l3217:
  9390                           
  9391                           ;OLED_SSD1306.c: 333:     (void)OLED_Command(0x02);
  9392     17D4  3002               	movlw	2
  9393     17D5  3193  232F  3197   	fcall	_OLED_Command
  9394     17D8                     l3219:
  9395                           
  9396                           ;OLED_SSD1306.c: 336:     (void)OLED_Command(0x81);
  9397     17D8  3081               	movlw	129
  9398     17D9  3193  232F  3197   	fcall	_OLED_Command
  9399     17DC                     l3221:
  9400                           
  9401                           ;OLED_SSD1306.c: 337:     (void)OLED_Command(0x8F);
  9402     17DC  308F               	movlw	143
  9403     17DD  3193  232F  3197   	fcall	_OLED_Command
  9404     17E0                     l3223:
  9405                           
  9406                           ;OLED_SSD1306.c: 339:     (void)OLED_Command(0xD9);
  9407     17E0  30D9               	movlw	217
  9408     17E1  3193  232F  3197   	fcall	_OLED_Command
  9409     17E4                     l3225:
  9410                           
  9411                           ;OLED_SSD1306.c: 340:     (void)OLED_Command(0xF1);
  9412     17E4  30F1               	movlw	241
  9413     17E5  3193  232F  3197   	fcall	_OLED_Command
  9414     17E8                     l3227:
  9415                           
  9416                           ;OLED_SSD1306.c: 342:     (void)OLED_Command(0xDB);
  9417     17E8  30DB               	movlw	219
  9418     17E9  3193  232F  3197   	fcall	_OLED_Command
  9419     17EC                     l3229:
  9420                           
  9421                           ;OLED_SSD1306.c: 343:     (void)OLED_Command(0x40);
  9422     17EC  3040               	movlw	64
  9423     17ED  3193  232F  3197   	fcall	_OLED_Command
  9424     17F0                     l3231:
  9425                           
  9426                           ;OLED_SSD1306.c: 345:     (void)OLED_Command(0xA4);
  9427     17F0  30A4               	movlw	164
  9428     17F1  3193  232F  3197   	fcall	_OLED_Command
  9429     17F4                     l3233:
  9430                           
  9431                           ;OLED_SSD1306.c: 346:     (void)OLED_Command(0xA6);
  9432     17F4  30A6               	movlw	166
  9433     17F5  3193  232F  3197   	fcall	_OLED_Command
  9434     17F8                     l3235:
  9435                           
  9436                           ;OLED_SSD1306.c: 347:     (void)OLED_Command(0xAF);
  9437     17F8  30AF               	movlw	175
  9438     17F9  3193  232F  3197   	fcall	_OLED_Command
  9439     17FC                     l3237:
  9440                           
  9441                           ;OLED_SSD1306.c: 350:     OLED_Clear();
  9442     17FC  3194  24A1  3197   	fcall	_OLED_Clear
  9443     17FF                     l230:
  9444     17FF  0008               	return
  9445     1800                     __end_of_OLED_Init:
  9446                           
  9447                           	psect	text24
  9448     14A1                     __ptext24:	
  9449 ;; *************** function _OLED_Clear *****************
  9450 ;; Defined at:
  9451 ;;		line 356 in file "OLED_SSD1306.c"
  9452 ;; Parameters:    Size  Location     Type
  9453 ;;		None
  9454 ;; Auto vars:     Size  Location     Type
  9455 ;;  p               1   12[COMMON] unsigned char 
  9456 ;; Return value:  Size  Location     Type
  9457 ;;                  1    wreg      void 
  9458 ;; Registers used:
  9459 ;;		wreg, fsr0l, fsr0h, fsr1l, fsr1h, status,2, status,0, pclath, cstack
  9460 ;; Tracked objects:
  9461 ;;		On entry : 0/0
  9462 ;;		On exit  : 0/0
  9463 ;;		Unchanged: 0/0
  9464 ;; Data sizes:     COMMON   BANK0   BANK1   BANK2   BANK3   BANK4   BANK5   BANK6   BANK7   BANK8   BANK9  BANK10  BANK1
      +1  BANK12  BANK13  BANK14  BANK15  BANK16  BANK17  BANK18  BANK19  BANK20  BANK21  BANK22  BANK23  BANK24  BANK25
  9465 ;;      Params:         0       0       0       0       0       0       0       0       0       0       0       0       
      +0       0       0       0       0       0       0       0       0       0       0       0       0       0       0
  9466 ;;      Locals:         1       0       0       0       0       0       0       0       0       0       0       0       
      +0       0       0       0       0       0       0       0       0       0       0       0       0       0       0
  9467 ;;      Temps:          0       6       0       0       0       0       0       0       0       0       0       0       
      +0       0       0       0       0       0       0       0       0       0       0       0       0       0       0
  9468 ;;      Totals:         1       6       0       0       0       0       0       0       0       0       0       0       
      +0       0       0       0       0       0       0       0       0       0       0       0       0       0       0
  9469 ;;Total ram usage:        7 bytes
  9470 ;; Hardware stack levels used: 1
  9471 ;; Hardware stack levels required when called: 4
  9472 ;; This function calls:
  9473 ;;		_OLED_WriteData
  9474 ;;		_OLED_YX
  9475 ;;		_memset
  9476 ;; This function is called by:
  9477 ;;		_main
  9478 ;;		_OLED_Init
  9479 ;; This function uses a non-reentrant model
  9480 ;;
  9481                           
  9482     14A1                     _OLED_Clear:	
  9483                           ;psect for function _OLED_Clear
  9484                           
  9485     14A1                     l2783:	
  9486                           ;incstack = 0
  9487                           ; Regs used in _OLED_Clear: [wreg-fsr1h+status,2+status,0+pclath+cstack]
  9488                           
  9489                           
  9490                           ;OLED_SSD1306.c: 358:     for (uint8_t p = 0; p < (32 / 8); p++)
  9491     14A1  01FC               	clrf	OLED_Clear@p
  9492     14A2                     l2789:
  9493                           
  9494                           ;OLED_SSD1306.c: 359:     {;OLED_SSD1306.c: 360:         memset(screen_buffer[p], 0, 128
      +                          );
  9495     14A2  087C               	movf	OLED_Clear@p,w
  9496     14A3  0020               	movlb	0	; select bank0
  9497     14A4  00A0               	movwf	??_OLED_Clear
  9498     14A5  01A1               	clrf	??_OLED_Clear+1
  9499     14A6  3007               	movlw	7
  9500     14A7                     u3125:
  9501     14A7  35A0               	lslf	??_OLED_Clear,f
  9502     14A8  0DA1               	rlf	??_OLED_Clear+1,f
  9503     14A9  0B89               	decfsz	9,f
  9504     14AA  2CA7               	goto	u3125
  9505     14AB  30F0               	movlw	240
  9506     14AC  00A2               	movwf	??_OLED_Clear+2
  9507     14AD  3024               	movlw	36
  9508     14AE  00A3               	movwf	??_OLED_Clear+3
  9509     14AF  0820               	movf	??_OLED_Clear,w
  9510     14B0  0722               	addwf	??_OLED_Clear+2,w
  9511     14B1  00F0               	movwf	memset@dest
  9512     14B2  0821               	movf	??_OLED_Clear+1,w
  9513     14B3  3D23               	addwfc	??_OLED_Clear+3,w
  9514     14B4  00F1               	movwf	memset@dest+1
  9515     14B5  3000               	movlw	0
  9516     14B6  00F2               	movwf	memset@c
  9517     14B7  00F3               	movwf	memset@c+1
  9518     14B8  3080               	movlw	128
  9519     14B9  00F4               	movwf	memset@n
  9520     14BA  3000               	movlw	0
  9521     14BB  00F5               	movwf	memset@n+1
  9522     14BC  3191  21E6  3194   	fcall	_memset
  9523     14BF                     l2791:
  9524                           
  9525                           ;OLED_SSD1306.c: 362:         OLED_YX(p, 0);
  9526     14BF  01F7               	clrf	OLED_YX@col_char
  9527     14C0  087C               	movf	OLED_Clear@p,w
  9528     14C1  3192  2220  3194   	fcall	_OLED_YX
  9529     14C4                     l2793:
  9530                           
  9531                           ;OLED_SSD1306.c: 363:         (void)OLED_WriteData(screen_buffer[p], 128);
  9532     14C4  087C               	movf	OLED_Clear@p,w
  9533     14C5  0020               	movlb	0	; select bank0
  9534     14C6  00A0               	movwf	??_OLED_Clear
  9535     14C7  01A1               	clrf	??_OLED_Clear+1
  9536     14C8  3007               	movlw	7
  9537     14C9                     u3135:
  9538     14C9  35A0               	lslf	??_OLED_Clear,f
  9539     14CA  0DA1               	rlf	??_OLED_Clear+1,f
  9540     14CB  0B89               	decfsz	9,f
  9541     14CC  2CC9               	goto	u3135
  9542     14CD  30F0               	movlw	240
  9543     14CE  00A2               	movwf	??_OLED_Clear+2
  9544     14CF  3024               	movlw	36
  9545     14D0  00A3               	movwf	??_OLED_Clear+3
  9546     14D1  0820               	movf	??_OLED_Clear,w
  9547     14D2  0722               	addwf	??_OLED_Clear+2,w
  9548     14D3  00A4               	movwf	??_OLED_Clear+4
  9549     14D4  0821               	movf	??_OLED_Clear+1,w
  9550     14D5  3D23               	addwfc	??_OLED_Clear+3,w
  9551     14D6  00A5               	movwf	??_OLED_Clear+5
  9552     14D7  0824               	movf	??_OLED_Clear+4,w
  9553     14D8  00F5               	movwf	OLED_WriteData@data
  9554     14D9  0825               	movf	??_OLED_Clear+5,w
  9555     14DA  00F6               	movwf	OLED_WriteData@data+1
  9556     14DB  3080               	movlw	128
  9557     14DC  00F7               	movwf	OLED_WriteData@len
  9558     14DD  3000               	movlw	0
  9559     14DE  00F8               	movwf	OLED_WriteData@len+1
  9560     14DF  3194  24EE  3194   	fcall	_OLED_WriteData
  9561     14E2                     l2795:
  9562                           
  9563                           ;OLED_SSD1306.c: 364:     }
  9564     14E2  3001               	movlw	1
  9565     14E3  0020               	movlb	0	; select bank0
  9566     14E4  00A0               	movwf	??_OLED_Clear
  9567     14E5  0820               	movf	??_OLED_Clear,w
  9568     14E6  07FC               	addwf	OLED_Clear@p,f
  9569     14E7                     l2797:
  9570     14E7  3004               	movlw	4
  9571     14E8  027C               	subwf	OLED_Clear@p,w
  9572     14E9  1C03               	skipc
  9573     14EA  2CEC               	goto	u3141
  9574     14EB  2CED               	goto	u3140
  9575     14EC                     u3141:
  9576     14EC  2CA2               	goto	l2789
  9577     14ED                     u3140:
  9578     14ED                     l235:
  9579     14ED  0008               	return
  9580     14EE                     __end_of_OLED_Clear:
  9581                           
  9582                           	psect	text25
  9583     11E6                     __ptext25:	
  9584 ;; *************** function _memset *****************
  9585 ;; Defined at:
  9586 ;;		line 3 in file "C:\Program Files\Microchip\xc8\v2.46\pic\sources\c99\common\memset.c"
  9587 ;; Parameters:    Size  Location     Type
  9588 ;;  dest            2    0[COMMON] PTR void 
  9589 ;;		 -> screen_buffer(512), 
  9590 ;;  c               2    2[COMMON] int 
  9591 ;;  n               2    4[COMMON] unsigned int 
  9592 ;; Auto vars:     Size  Location     Type
  9593 ;;  p               2    6[COMMON] PTR unsigned char 
  9594 ;;		 -> screen_buffer(512), 
  9595 ;; Return value:  Size  Location     Type
  9596 ;;                  2    0[COMMON] PTR void 
  9597 ;; Registers used:
  9598 ;;		wreg, fsr1l, fsr1h, status,2, status,0
  9599 ;; Tracked objects:
  9600 ;;		On entry : 0/0
  9601 ;;		On exit  : 0/0
  9602 ;;		Unchanged: 0/0
  9603 ;; Data sizes:     COMMON   BANK0   BANK1   BANK2   BANK3   BANK4   BANK5   BANK6   BANK7   BANK8   BANK9  BANK10  BANK1
      +1  BANK12  BANK13  BANK14  BANK15  BANK16  BANK17  BANK18  BANK19  BANK20  BANK21  BANK22  BANK23  BANK24  BANK25
  9604 ;;      Params:         6       0       0       0       0       0       0       0       0       0       0       0       
      +0       0       0       0       0       0       0       0       0       0       0       0       0       0       0
  9605 ;;      Locals:         2       0       0       0       0       0       0       0       0       0       0       0       
      +0       0       0       0       0       0       0       0       0       0       0       0       0       0       0
  9606 ;;      Temps:          0       0       0       0       0       0       0       0       0       0       0       0       
      +0       0       0       0       0       0       0       0       0       0       0       0       0       0       0
  9607 ;;      Totals:         8       0       0       0       0       0       0       0       0       0       0       0       
      +0       0       0       0       0       0       0       0       0       0       0       0       0       0       0
  9608 ;;Total ram usage:        8 bytes
  9609 ;; Hardware stack levels used: 1
  9610 ;; This function calls:
  9611 ;;		Nothing
  9612 ;; This function is called by:
  9613 ;;		_OLED_Clear
  9614 ;;		_OLED_Printf_Line
  9615 ;; This function uses a non-reentrant model
  9616 ;;
  9617                           
  9618     11E6                     _memset:	
  9619                           ;psect for function _memset
  9620                           
  9621     11E6                     l2761:	
  9622                           ;incstack = 0
  9623                           ; Regs used in _memset: [wreg+fsr1l+fsr1h+status,2+status,0]
  9624                           
  9625     11E6  0871               	movf	memset@dest+1,w
  9626     11E7  00F7               	movwf	memset@p+1
  9627     11E8  0870               	movf	memset@dest,w
  9628     11E9  00F6               	movwf	memset@p
  9629     11EA  29F5               	goto	l2767
  9630     11EB                     l2763:
  9631     11EB  0876               	movf	memset@p,w
  9632     11EC  0086               	movwf	6
  9633     11ED  0877               	movf	memset@p+1,w
  9634     11EE  0087               	movwf	7
  9635     11EF  0872               	movf	memset@c,w
  9636     11F0  0081               	movwf	1
  9637     11F1                     l2765:
  9638     11F1  3001               	movlw	1
  9639     11F2  07F6               	addwf	memset@p,f
  9640     11F3  3000               	movlw	0
  9641     11F4  3DF7               	addwfc	memset@p+1,f
  9642     11F5                     l2767:
  9643     11F5  3001               	movlw	1
  9644     11F6  02F4               	subwf	memset@n,f
  9645     11F7  3000               	movlw	0
  9646     11F8  3BF5               	subwfb	memset@n+1,f
  9647     11F9  0A74               	incf	memset@n,w
  9648     11FA  1D03               	skipz
  9649     11FB  2A00               	goto	u3111
  9650     11FC  0A75               	incf	memset@n+1,w
  9651     11FD  1D03               	btfss	3,2
  9652     11FE  2A00               	goto	u3111
  9653     11FF  2A01               	goto	u3110
  9654     1200                     u3111:
  9655     1200  29EB               	goto	l2763
  9656     1201                     u3110:
  9657     1201                     l923:
  9658     1201  0008               	return
  9659     1202                     __end_of_memset:
  9660                           
  9661                           	psect	text26
  9662     1220                     __ptext26:	
  9663 ;; *************** function _OLED_YX *****************
  9664 ;; Defined at:
  9665 ;;		line 283 in file "OLED_SSD1306.c"
  9666 ;; Parameters:    Size  Location     Type
  9667 ;;  page            1    wreg     unsigned char 
  9668 ;;  col_char        1    7[COMMON] unsigned char 
  9669 ;; Auto vars:     Size  Location     Type
  9670 ;;  page            1    9[COMMON] unsigned char 
  9671 ;;  col             1   10[COMMON] unsigned char 
  9672 ;; Return value:  Size  Location     Type
  9673 ;;                  1    wreg      void 
  9674 ;; Registers used:
  9675 ;;		wreg, status,2, status,0, pclath, cstack
  9676 ;; Tracked objects:
  9677 ;;		On entry : 0/0
  9678 ;;		On exit  : 0/0
  9679 ;;		Unchanged: 0/0
  9680 ;; Data sizes:     COMMON   BANK0   BANK1   BANK2   BANK3   BANK4   BANK5   BANK6   BANK7   BANK8   BANK9  BANK10  BANK1
      +1  BANK12  BANK13  BANK14  BANK15  BANK16  BANK17  BANK18  BANK19  BANK20  BANK21  BANK22  BANK23  BANK24  BANK25
  9681 ;;      Params:         1       0       0       0       0       0       0       0       0       0       0       0       
      +0       0       0       0       0       0       0       0       0       0       0       0       0       0       0
  9682 ;;      Locals:         2       0       0       0       0       0       0       0       0       0       0       0       
      +0       0       0       0       0       0       0       0       0       0       0       0       0       0       0
  9683 ;;      Temps:          1       0       0       0       0       0       0       0       0       0       0       0       
      +0       0       0       0       0       0       0       0       0       0       0       0       0       0       0
  9684 ;;      Totals:         4       0       0       0       0       0       0       0       0       0       0       0       
      +0       0       0       0       0       0       0       0       0       0       0       0       0       0       0
  9685 ;;Total ram usage:        4 bytes
  9686 ;; Hardware stack levels used: 1
  9687 ;; Hardware stack levels required when called: 3
  9688 ;; This function calls:
  9689 ;;		_OLED_Command
  9690 ;; This function is called by:
  9691 ;;		_OLED_Clear
  9692 ;;		_OLED_UpdateLine
  9693 ;;		_OLED_WriteString
  9694 ;; This function uses a non-reentrant model
  9695 ;;
  9696                           
  9697     1220                     _OLED_YX:	
  9698                           ;psect for function _OLED_YX
  9699                           
  9700                           
  9701                           ;incstack = 0
  9702                           ; Regs used in _OLED_YX: [wreg+status,2+status,0+pclath+cstack]
  9703                           ;OLED_YX@page stored from wreg
  9704     1220  00F9               	movwf	OLED_YX@page
  9705     1221                     l2753:
  9706                           
  9707                           ;OLED_SSD1306.c: 283: void OLED_YX(uint8_t page, uint8_t col_char);OLED_SSD1306.c: 284: 
      +                          {;OLED_SSD1306.c: 285:     uint8_t col = (uint8_t)(col_char * 8);
  9708     1221  0877               	movf	OLED_YX@col_char,w
  9709     1222  00F8               	movwf	??_OLED_YX
  9710     1223  3002               	movlw	2
  9711     1224                     u3095:
  9712     1224  35F8               	lslf	??_OLED_YX,f
  9713     1225  3EFF               	addlw	-1
  9714     1226  1D03               	skipz
  9715     1227  2A24               	goto	u3095
  9716     1228  3578               	lslf	??_OLED_YX,w
  9717     1229  00FA               	movwf	OLED_YX@col
  9718     122A                     l2755:
  9719                           
  9720                           ;OLED_SSD1306.c: 287:     (void)OLED_Command(0xB0 | (page & 0x07));
  9721     122A  0879               	movf	OLED_YX@page,w
  9722     122B  3907               	andlw	7
  9723     122C  38B0               	iorlw	176
  9724     122D  3193  232F  3192   	fcall	_OLED_Command
  9725     1230                     l2757:
  9726                           
  9727                           ;OLED_SSD1306.c: 288:     (void)OLED_Command(0x00 | (col & 0x0F));
  9728     1230  087A               	movf	OLED_YX@col,w
  9729     1231  390F               	andlw	15
  9730     1232  3193  232F  3192   	fcall	_OLED_Command
  9731     1235                     l2759:
  9732                           
  9733                           ;OLED_SSD1306.c: 289:     (void)OLED_Command(0x10 | ((col >> 4) & 0x0F));
  9734     1235  087A               	movf	OLED_YX@col,w
  9735     1236  00F8               	movwf	??_OLED_YX
  9736     1237  3004               	movlw	4
  9737     1238                     u3105:
  9738     1238  36F8               	lsrf	??_OLED_YX,f
  9739     1239  0B89               	decfsz	9,f
  9740     123A  2A38               	goto	u3105
  9741     123B  0878               	movf	??_OLED_YX,w
  9742     123C  390F               	andlw	15
  9743     123D  3810               	iorlw	16
  9744     123E  3193  232F  3192   	fcall	_OLED_Command
  9745     1241                     l227:
  9746     1241  0008               	return
  9747     1242                     __end_of_OLED_YX:
  9748                           
  9749                           	psect	text27
  9750     132F                     __ptext27:	
  9751 ;; *************** function _OLED_Command *****************
  9752 ;; Defined at:
  9753 ;;		line 190 in file "OLED_SSD1306.c"
  9754 ;; Parameters:    Size  Location     Type
  9755 ;;  cmd             1    wreg     unsigned char 
  9756 ;; Auto vars:     Size  Location     Type
  9757 ;;  cmd             1    5[COMMON] unsigned char 
  9758 ;;  st              1    6[COMMON] enum E6043
  9759 ;; Return value:  Size  Location     Type
  9760 ;;                  1    wreg      enum E6043
  9761 ;; Registers used:
  9762 ;;		wreg, status,2, status,0, pclath, cstack
  9763 ;; Tracked objects:
  9764 ;;		On entry : 0/0
  9765 ;;		On exit  : 0/0
  9766 ;;		Unchanged: 0/0
  9767 ;; Data sizes:     COMMON   BANK0   BANK1   BANK2   BANK3   BANK4   BANK5   BANK6   BANK7   BANK8   BANK9  BANK10  BANK1
      +1  BANK12  BANK13  BANK14  BANK15  BANK16  BANK17  BANK18  BANK19  BANK20  BANK21  BANK22  BANK23  BANK24  BANK25
  9768 ;;      Params:         0       0       0       0       0       0       0       0       0       0       0       0       
      +0       0       0       0       0       0       0       0       0       0       0       0       0       0       0
  9769 ;;      Locals:         2       0       0       0       0       0       0       0       0       0       0       0       
      +0       0       0       0       0       0       0       0       0       0       0       0       0       0       0
  9770 ;;      Temps:          0       0       0       0       0       0       0       0       0       0       0       0       
      +0       0       0       0       0       0       0       0       0       0       0       0       0       0       0
  9771 ;;      Totals:         2       0       0       0       0       0       0       0       0       0       0       0       
      +0       0       0       0       0       0       0       0       0       0       0       0       0       0       0
  9772 ;;Total ram usage:        2 bytes
  9773 ;; Hardware stack levels used: 1
  9774 ;; Hardware stack levels required when called: 2
  9775 ;; This function calls:
  9776 ;;		_I2C_Start
  9777 ;;		_I2C_Stop
  9778 ;;		_I2C_WriteByte
  9779 ;;		_SSD1306_CtrlW
  9780 ;; This function is called by:
  9781 ;;		_OLED_SetOrientation
  9782 ;;		_OLED_YX
  9783 ;;		_OLED_Init
  9784 ;;		_OLED_UpdatePartialLine
  9785 ;; This function uses a non-reentrant model
  9786 ;;
  9787                           
  9788     132F                     _OLED_Command:	
  9789                           ;psect for function _OLED_Command
  9790                           
  9791                           
  9792                           ;incstack = 0
  9793                           ; Regs used in _OLED_Command: [wreg+status,2+status,0+pclath+cstack]
  9794                           ;OLED_Command@cmd stored from wreg
  9795     132F  00F5               	movwf	OLED_Command@cmd
  9796     1330                     l2685:
  9797                           
  9798                           ;OLED_SSD1306.c: 190: static I2C_Status_t OLED_Command(uint8_t cmd);OLED_SSD1306.c: 191:
      +                           {;OLED_SSD1306.c: 192:     I2C_Status_t st;;OLED_SSD1306.c: 194:     st = I2C_Start();
  9799     1330  3180  2006  3193   	fcall	_I2C_Start
  9800     1333  00F6               	movwf	OLED_Command@st
  9801     1334                     l2687:
  9802                           
  9803                           ;OLED_SSD1306.c: 195:     if (st != I2C_OK) return st;
  9804     1334  0876               	movf	OLED_Command@st,w
  9805     1335  1903               	btfsc	3,2
  9806     1336  2B38               	goto	u3001
  9807     1337  2B39               	goto	u3000
  9808     1338                     u3001:
  9809     1338  2B3A               	goto	l2691
  9810     1339                     u3000:
  9811     1339  2B5C               	goto	l201
  9812     133A                     l2691:
  9813                           
  9814                           ;OLED_SSD1306.c: 197:     st = I2C_WriteByte(SSD1306_CtrlW());
  9815     133A  3180  2004  3193   	fcall	_SSD1306_CtrlW
  9816     133D  3193  235D  3193   	fcall	_I2C_WriteByte
  9817     1340  00F6               	movwf	OLED_Command@st
  9818     1341                     l2693:
  9819                           
  9820                           ;OLED_SSD1306.c: 198:     if (st != I2C_OK) { I2C_Stop(); return st; }
  9821     1341  0876               	movf	OLED_Command@st,w
  9822     1342  1903               	btfsc	3,2
  9823     1343  2B45               	goto	u3011
  9824     1344  2B46               	goto	u3010
  9825     1345                     u3011:
  9826     1345  2B4A               	goto	l2699
  9827     1346                     u3010:
  9828     1346                     l2695:
  9829     1346  3192  2242  3193   	fcall	_I2C_Stop
  9830     1349  2B5C               	goto	l201
  9831     134A                     l2699:
  9832                           
  9833                           ;OLED_SSD1306.c: 200:     st = I2C_WriteByte(0x00);
  9834     134A  3000               	movlw	0
  9835     134B  3193  235D  3193   	fcall	_I2C_WriteByte
  9836     134E  00F6               	movwf	OLED_Command@st
  9837     134F                     l2701:
  9838                           
  9839                           ;OLED_SSD1306.c: 201:     if (st != I2C_OK) { I2C_Stop(); return st; }
  9840     134F  0876               	movf	OLED_Command@st,w
  9841     1350  1903               	btfsc	3,2
  9842     1351  2B53               	goto	u3021
  9843     1352  2B54               	goto	u3020
  9844     1353                     u3021:
  9845     1353  2B55               	goto	l2707
  9846     1354                     u3020:
  9847     1354  2B46               	goto	l2695
  9848     1355                     l2707:
  9849     1355  0875               	movf	OLED_Command@cmd,w
  9850     1356  3193  235D  3193   	fcall	_I2C_WriteByte
  9851                           
  9852                           ;OLED_SSD1306.c: 204:     I2C_Stop();
  9853     1359  3192  2242  3193   	fcall	_I2C_Stop
  9854     135C                     l201:
  9855     135C  0008               	return
  9856     135D                     __end_of_OLED_Command:
  9857                           
  9858                           	psect	text28
  9859     14EE                     __ptext28:	
  9860 ;; *************** function _OLED_WriteData *****************
  9861 ;; Defined at:
  9862 ;;		line 215 in file "OLED_SSD1306.c"
  9863 ;; Parameters:    Size  Location     Type
  9864 ;;  data            2    5[COMMON] PTR const unsigned char 
  9865 ;;		 -> OledFont(768), screen_buffer(512), 
  9866 ;;  len             2    7[COMMON] unsigned short 
  9867 ;; Auto vars:     Size  Location     Type
  9868 ;;  i               2    9[COMMON] unsigned short 
  9869 ;;  st              1   11[COMMON] enum E6043
  9870 ;; Return value:  Size  Location     Type
  9871 ;;                  1    wreg      enum E6043
  9872 ;; Registers used:
  9873 ;;		wreg, fsr0l, fsr0h, status,2, status,0, pclath, cstack
  9874 ;; Tracked objects:
  9875 ;;		On entry : 0/0
  9876 ;;		On exit  : 0/0
  9877 ;;		Unchanged: 0/0
  9878 ;; Data sizes:     COMMON   BANK0   BANK1   BANK2   BANK3   BANK4   BANK5   BANK6   BANK7   BANK8   BANK9  BANK10  BANK1
      +1  BANK12  BANK13  BANK14  BANK15  BANK16  BANK17  BANK18  BANK19  BANK20  BANK21  BANK22  BANK23  BANK24  BANK25
  9879 ;;      Params:         4       0       0       0       0       0       0       0       0       0       0       0       
      +0       0       0       0       0       0       0       0       0       0       0       0       0       0       0
  9880 ;;      Locals:         3       0       0       0       0       0       0       0       0       0       0       0       
      +0       0       0       0       0       0       0       0       0       0       0       0       0       0       0
  9881 ;;      Temps:          0       0       0       0       0       0       0       0       0       0       0       0       
      +0       0       0       0       0       0       0       0       0       0       0       0       0       0       0
  9882 ;;      Totals:         7       0       0       0       0       0       0       0       0       0       0       0       
      +0       0       0       0       0       0       0       0       0       0       0       0       0       0       0
  9883 ;;Total ram usage:        7 bytes
  9884 ;; Hardware stack levels used: 1
  9885 ;; Hardware stack levels required when called: 2
  9886 ;; This function calls:
  9887 ;;		_I2C_Start
  9888 ;;		_I2C_Stop
  9889 ;;		_I2C_WriteByte
  9890 ;;		_SSD1306_CtrlW
  9891 ;; This function is called by:
  9892 ;;		_OLED_Clear
  9893 ;;		_OLED_UpdateLine
  9894 ;;		_OLED_UpdatePartialLine
  9895 ;;		_OLED_WriteString
  9896 ;; This function uses a non-reentrant model
  9897 ;;
  9898                           
  9899     14EE                     _OLED_WriteData:	
  9900                           ;psect for function _OLED_WriteData
  9901                           
  9902     14EE                     l2711:	
  9903                           ;incstack = 0
  9904                           ; Regs used in _OLED_WriteData: [wreg-fsr0h+status,2+status,0+pclath+cstack]
  9905                           
  9906                           
  9907                           ;OLED_SSD1306.c: 215: static I2C_Status_t OLED_WriteData(const uint8_t* data, uint16_t l
      +                          en);OLED_SSD1306.c: 216: {;OLED_SSD1306.c: 217:     I2C_Status_t st;;OLED_SSD1306.c: 219
      +                          :     if (data == ((void*)0)) return I2C_TIMEOUT;
  9908     14EE  0875               	movf	OLED_WriteData@data,w
  9909     14EF  0476               	iorwf	OLED_WriteData@data+1,w
  9910     14F0  1D03               	btfss	3,2
  9911     14F1  2CF3               	goto	u3031
  9912     14F2  2CF4               	goto	u3030
  9913     14F3                     u3031:
  9914     14F3  2CF5               	goto	l2715
  9915     14F4                     u3030:
  9916     14F4  2D3D               	goto	l207
  9917     14F5                     l2715:
  9918                           
  9919                           ;OLED_SSD1306.c: 221:     st = I2C_Start();
  9920     14F5  3180  2006  3194   	fcall	_I2C_Start
  9921     14F8  00FB               	movwf	OLED_WriteData@st
  9922     14F9                     l2717:
  9923                           
  9924                           ;OLED_SSD1306.c: 222:     if (st != I2C_OK) return st;
  9925     14F9  087B               	movf	OLED_WriteData@st,w
  9926     14FA  1903               	btfsc	3,2
  9927     14FB  2CFD               	goto	u3041
  9928     14FC  2CFE               	goto	u3040
  9929     14FD                     u3041:
  9930     14FD  2CFF               	goto	l2721
  9931     14FE                     u3040:
  9932     14FE  2D3D               	goto	l207
  9933     14FF                     l2721:
  9934                           
  9935                           ;OLED_SSD1306.c: 224:     st = I2C_WriteByte(SSD1306_CtrlW());
  9936     14FF  3180  2004  3194   	fcall	_SSD1306_CtrlW
  9937     1502  3193  235D  3194   	fcall	_I2C_WriteByte
  9938     1505  00FB               	movwf	OLED_WriteData@st
  9939     1506                     l2723:
  9940                           
  9941                           ;OLED_SSD1306.c: 225:     if (st != I2C_OK) { I2C_Stop(); return st; }
  9942     1506  087B               	movf	OLED_WriteData@st,w
  9943     1507  1903               	btfsc	3,2
  9944     1508  2D0A               	goto	u3051
  9945     1509  2D0B               	goto	u3050
  9946     150A                     u3051:
  9947     150A  2D0F               	goto	l2729
  9948     150B                     u3050:
  9949     150B                     l2725:
  9950     150B  3192  2242  3194   	fcall	_I2C_Stop
  9951     150E  2D3D               	goto	l207
  9952     150F                     l2729:
  9953                           
  9954                           ;OLED_SSD1306.c: 227:     st = I2C_WriteByte(0x40);
  9955     150F  3040               	movlw	64
  9956     1510  3193  235D  3194   	fcall	_I2C_WriteByte
  9957     1513  00FB               	movwf	OLED_WriteData@st
  9958     1514                     l2731:
  9959                           
  9960                           ;OLED_SSD1306.c: 228:     if (st != I2C_OK) { I2C_Stop(); return st; }
  9961     1514  087B               	movf	OLED_WriteData@st,w
  9962     1515  1903               	btfsc	3,2
  9963     1516  2D18               	goto	u3061
  9964     1517  2D19               	goto	u3060
  9965     1518                     u3061:
  9966     1518  2D1A               	goto	l2737
  9967     1519                     u3060:
  9968     1519  2D0B               	goto	l2725
  9969     151A                     l2737:
  9970                           
  9971                           ;OLED_SSD1306.c: 230:     for (uint16_t i = 0; i < len; i++)
  9972     151A  01F9               	clrf	OLED_WriteData@i
  9973     151B  01FA               	clrf	OLED_WriteData@i+1
  9974     151C  2D32               	goto	l211
  9975     151D                     l2739:
  9976                           
  9977                           ;OLED_SSD1306.c: 231:     {;OLED_SSD1306.c: 232:         st = I2C_WriteByte(data[i]);
  9978     151D  0875               	movf	OLED_WriteData@data,w
  9979     151E  0779               	addwf	OLED_WriteData@i,w
  9980     151F  0084               	movwf	4
  9981     1520  0876               	movf	OLED_WriteData@data+1,w
  9982     1521  3D7A               	addwfc	OLED_WriteData@i+1,w
  9983     1522  0085               	movwf	5
  9984     1523  0800               	movf	0,w	;code access
  9985     1524  3193  235D  3194   	fcall	_I2C_WriteByte
  9986     1527  00FB               	movwf	OLED_WriteData@st
  9987     1528                     l2741:
  9988                           
  9989                           ;OLED_SSD1306.c: 233:         if (st != I2C_OK) { I2C_Stop(); return st; }
  9990     1528  087B               	movf	OLED_WriteData@st,w
  9991     1529  1903               	btfsc	3,2
  9992     152A  2D2C               	goto	u3071
  9993     152B  2D2D               	goto	u3070
  9994     152C                     u3071:
  9995     152C  2D2E               	goto	l2747
  9996     152D                     u3070:
  9997     152D  2D0B               	goto	l2725
  9998     152E                     l2747:
  9999                           
 10000                           ;OLED_SSD1306.c: 234:     }
 10001     152E  3001               	movlw	1
 10002     152F  07F9               	addwf	OLED_WriteData@i,f
 10003     1530  3000               	movlw	0
 10004     1531  3DFA               	addwfc	OLED_WriteData@i+1,f
 10005     1532                     l211:
 10006     1532  0878               	movf	OLED_WriteData@len+1,w
 10007     1533  027A               	subwf	OLED_WriteData@i+1,w
 10008     1534  1D03               	skipz
 10009     1535  2D38               	goto	u3085
 10010     1536  0877               	movf	OLED_WriteData@len,w
 10011     1537  0279               	subwf	OLED_WriteData@i,w
 10012     1538                     u3085:
 10013     1538  1C03               	skipc
 10014     1539  2D3B               	goto	u3081
 10015     153A  2D3C               	goto	u3080
 10016     153B                     u3081:
 10017     153B  2D1D               	goto	l2739
 10018     153C                     u3080:
 10019     153C  2D0B               	goto	l2725
 10020     153D                     l207:
 10021     153D  0008               	return
 10022     153E                     __end_of_OLED_WriteData:
 10023                           
 10024                           	psect	text29
 10025     0004                     __ptext29:	
 10026 ;; *************** function _SSD1306_CtrlW *****************
 10027 ;; Defined at:
 10028 ;;		line 182 in file "OLED_SSD1306.c"
 10029 ;; Parameters:    Size  Location     Type
 10030 ;;		None
 10031 ;; Auto vars:     Size  Location     Type
 10032 ;;		None
 10033 ;; Return value:  Size  Location     Type
 10034 ;;                  1    wreg      unsigned char 
 10035 ;; Registers used:
 10036 ;;		wreg
 10037 ;; Tracked objects:
 10038 ;;		On entry : 0/0
 10039 ;;		On exit  : 0/0
 10040 ;;		Unchanged: 0/0
 10041 ;; Data sizes:     COMMON   BANK0   BANK1   BANK2   BANK3   BANK4   BANK5   BANK6   BANK7   BANK8   BANK9  BANK10  BANK1
      +1  BANK12  BANK13  BANK14  BANK15  BANK16  BANK17  BANK18  BANK19  BANK20  BANK21  BANK22  BANK23  BANK24  BANK25
 10042 ;;      Params:         0       0       0       0       0       0       0       0       0       0       0       0       
      +0       0       0       0       0       0       0       0       0       0       0       0       0       0       0
 10043 ;;      Locals:         0       0       0       0       0       0       0       0       0       0       0       0       
      +0       0       0       0       0       0       0       0       0       0       0       0       0       0       0
 10044 ;;      Temps:          0       0       0       0       0       0       0       0       0       0       0       0       
      +0       0       0       0       0       0       0       0       0       0       0       0       0       0       0
 10045 ;;      Totals:         0       0       0       0       0       0       0       0       0       0       0       0       
      +0       0       0       0       0       0       0       0       0       0       0       0       0       0       0
 10046 ;;Total ram usage:        0 bytes
 10047 ;; Hardware stack levels used: 1
 10048 ;; This function calls:
 10049 ;;		Nothing
 10050 ;; This function is called by:
 10051 ;;		_OLED_Command
 10052 ;;		_OLED_WriteData
 10053 ;; This function uses a non-reentrant model
 10054 ;;
 10055                           
 10056     0004                     _SSD1306_CtrlW:	
 10057                           ;psect for function _SSD1306_CtrlW
 10058                           
 10059     0004                     l2681:	
 10060                           ;incstack = 0
 10061                           ; Regs used in _SSD1306_CtrlW: [wreg]
 10062                           
 10063     0004  3078               	movlw	120
 10064     0005                     l197:
 10065     0005  0008               	return
 10066     0006                     __end_of_SSD1306_CtrlW:
 10067                           
 10068                           	psect	text30
 10069     135D                     __ptext30:	
 10070 ;; *************** function _I2C_WriteByte *****************
 10071 ;; Defined at:
 10072 ;;		line 161 in file "I2C.c"
 10073 ;; Parameters:    Size  Location     Type
 10074 ;;  data            1    wreg     unsigned char 
 10075 ;; Auto vars:     Size  Location     Type
 10076 ;;  data            1    3[COMMON] unsigned char 
 10077 ;;  st              1    4[COMMON] enum E6036
 10078 ;; Return value:  Size  Location     Type
 10079 ;;                  1    wreg      enum E6036
 10080 ;; Registers used:
 10081 ;;		wreg, status,2, status,0, pclath, cstack
 10082 ;; Tracked objects:
 10083 ;;		On entry : 0/0
 10084 ;;		On exit  : 0/0
 10085 ;;		Unchanged: 0/0
 10086 ;; Data sizes:     COMMON   BANK0   BANK1   BANK2   BANK3   BANK4   BANK5   BANK6   BANK7   BANK8   BANK9  BANK10  BANK1
      +1  BANK12  BANK13  BANK14  BANK15  BANK16  BANK17  BANK18  BANK19  BANK20  BANK21  BANK22  BANK23  BANK24  BANK25
 10087 ;;      Params:         0       0       0       0       0       0       0       0       0       0       0       0       
      +0       0       0       0       0       0       0       0       0       0       0       0       0       0       0
 10088 ;;      Locals:         2       0       0       0       0       0       0       0       0       0       0       0       
      +0       0       0       0       0       0       0       0       0       0       0       0       0       0       0
 10089 ;;      Temps:          0       0       0       0       0       0       0       0       0       0       0       0       
      +0       0       0       0       0       0       0       0       0       0       0       0       0       0       0
 10090 ;;      Totals:         2       0       0       0       0       0       0       0       0       0       0       0       
      +0       0       0       0       0       0       0       0       0       0       0       0       0       0       0
 10091 ;;Total ram usage:        2 bytes
 10092 ;; Hardware stack levels used: 1
 10093 ;; Hardware stack levels required when called: 1
 10094 ;; This function calls:
 10095 ;;		_I2C_WaitIF
 10096 ;;		_I2C_WaitIdle
 10097 ;; This function is called by:
 10098 ;;		_OLED_Command
 10099 ;;		_OLED_WriteData
 10100 ;; This function uses a non-reentrant model
 10101 ;;
 10102                           
 10103     135D                     _I2C_WriteByte:	
 10104                           ;psect for function _I2C_WriteByte
 10105                           
 10106                           
 10107                           ;incstack = 0
 10108                           ; Regs used in _I2C_WriteByte: [wreg+status,2+status,0+pclath+cstack]
 10109                           ;I2C_WriteByte@data stored from wreg
 10110     135D  00F3               	movwf	I2C_WriteByte@data
 10111     135E                     l2653:
 10112                           
 10113                           ;I2C.c: 161: I2C_Status_t I2C_WriteByte(uint8_t data);I2C.c: 162: {;I2C.c: 163:     I2C_
      +                          Status_t st;;I2C.c: 165:     st = I2C_WaitIdle(50);
 10114     135E  3032               	movlw	50
 10115     135F  00F0               	movwf	I2C_WaitIdle@timeout_ms
 10116     1360  3000               	movlw	0
 10117     1361  00F1               	movwf	I2C_WaitIdle@timeout_ms+1
 10118     1362  3192  2288  3193   	fcall	_I2C_WaitIdle
 10119     1365  00F4               	movwf	I2C_WriteByte@st
 10120     1366                     l2655:
 10121                           
 10122                           ;I2C.c: 166:     if (st != I2C_OK) return st;
 10123     1366  0874               	movf	I2C_WriteByte@st,w
 10124     1367  1903               	btfsc	3,2
 10125     1368  2B6A               	goto	u2971
 10126     1369  2B6B               	goto	u2970
 10127     136A                     u2971:
 10128     136A  2B6D               	goto	l60
 10129     136B                     u2970:
 10130     136B                     l2657:
 10131     136B  0874               	movf	I2C_WriteByte@st,w
 10132     136C  2B8E               	goto	l61
 10133     136D                     l60:
 10134                           
 10135                           ;I2C.c: 168:     PIR1bits.SSP1IF = 0;
 10136     136D  0020               	movlb	0	; select bank0
 10137     136E  1191               	bcf	17,3	;volatile
 10138     136F                     l2661:
 10139                           
 10140                           ;I2C.c: 169:     SSPBUF = data;
 10141     136F  0873               	movf	I2C_WriteByte@data,w
 10142     1370  0024               	movlb	4	; select bank4
 10143     1371  0091               	movwf	17	;volatile
 10144     1372                     l2663:
 10145                           
 10146                           ;I2C.c: 171:     st = I2C_WaitIF(50);
 10147     1372  3032               	movlw	50
 10148     1373  00F0               	movwf	I2C_WaitIF@timeout_ms
 10149     1374  3000               	movlw	0
 10150     1375  00F1               	movwf	I2C_WaitIF@timeout_ms+1
 10151     1376  3192  2202  3193   	fcall	_I2C_WaitIF
 10152     1379  00F4               	movwf	I2C_WriteByte@st
 10153     137A                     l2665:
 10154                           
 10155                           ;I2C.c: 172:     if (st != I2C_OK) return st;
 10156     137A  0874               	movf	I2C_WriteByte@st,w
 10157     137B  1903               	btfsc	3,2
 10158     137C  2B7E               	goto	u2981
 10159     137D  2B7F               	goto	u2980
 10160     137E                     u2981:
 10161     137E  2B80               	goto	l62
 10162     137F                     u2980:
 10163     137F  2B6B               	goto	l2657
 10164     1380                     l62:
 10165                           
 10166                           ;I2C.c: 175:     if (PIR2bits.BCL1IF)
 10167     1380  0020               	movlb	0	; select bank0
 10168     1381  1D92               	btfss	18,3	;volatile
 10169     1382  2B84               	goto	u2991
 10170     1383  2B85               	goto	u2990
 10171     1384                     u2991:
 10172     1384  2B88               	goto	l63
 10173     1385                     u2990:
 10174     1385                     l2671:
 10175                           
 10176                           ;I2C.c: 176:     {;I2C.c: 177:         PIR2bits.BCL1IF = 0;
 10177     1385  1192               	bcf	18,3	;volatile
 10178     1386                     l2673:
 10179                           
 10180                           ;I2C.c: 178:         return I2C_BUS_COLLISION;
 10181     1386  3003               	movlw	3
 10182     1387  2B8E               	goto	l61
 10183     1388                     l63:	
 10184                           ;I2C.c: 179:     }
 10185                           
 10186                           
 10187                           ;I2C.c: 182:     PIR1bits.SSP1IF = 0;
 10188     1388  1191               	bcf	17,3	;volatile
 10189     1389                     l2677:
 10190                           
 10191                           ;I2C.c: 183:     return (SSPCON2bits.ACKSTAT == 0) ? I2C_OK : I2C_NAK;
 10192     1389  0024               	movlb	4	; select bank4
 10193     138A  0E16               	swapf	22,w	;volatile
 10194     138B  0C89               	rrf	9,f
 10195     138C  0C89               	rrf	9,f
 10196     138D  3901               	andlw	1
 10197     138E                     l61:
 10198     138E  0008               	return
 10199     138F                     __end_of_I2C_WriteByte:
 10200                           
 10201                           	psect	text31
 10202     1242                     __ptext31:	
 10203 ;; *************** function _I2C_Stop *****************
 10204 ;; Defined at:
 10205 ;;		line 138 in file "I2C.c"
 10206 ;; Parameters:    Size  Location     Type
 10207 ;;		None
 10208 ;; Auto vars:     Size  Location     Type
 10209 ;;  st              1    3[COMMON] enum E6036
 10210 ;; Return value:  Size  Location     Type
 10211 ;;                  1    wreg      enum E6036
 10212 ;; Registers used:
 10213 ;;		wreg, status,2, status,0, pclath, cstack
 10214 ;; Tracked objects:
 10215 ;;		On entry : 0/0
 10216 ;;		On exit  : 0/0
 10217 ;;		Unchanged: 0/0
 10218 ;; Data sizes:     COMMON   BANK0   BANK1   BANK2   BANK3   BANK4   BANK5   BANK6   BANK7   BANK8   BANK9  BANK10  BANK1
      +1  BANK12  BANK13  BANK14  BANK15  BANK16  BANK17  BANK18  BANK19  BANK20  BANK21  BANK22  BANK23  BANK24  BANK25
 10219 ;;      Params:         0       0       0       0       0       0       0       0       0       0       0       0       
      +0       0       0       0       0       0       0       0       0       0       0       0       0       0       0
 10220 ;;      Locals:         1       0       0       0       0       0       0       0       0       0       0       0       
      +0       0       0       0       0       0       0       0       0       0       0       0       0       0       0
 10221 ;;      Temps:          0       0       0       0       0       0       0       0       0       0       0       0       
      +0       0       0       0       0       0       0       0       0       0       0       0       0       0       0
 10222 ;;      Totals:         1       0       0       0       0       0       0       0       0       0       0       0       
      +0       0       0       0       0       0       0       0       0       0       0       0       0       0       0
 10223 ;;Total ram usage:        1 bytes
 10224 ;; Hardware stack levels used: 1
 10225 ;; Hardware stack levels required when called: 1
 10226 ;; This function calls:
 10227 ;;		_I2C_WaitIF
 10228 ;;		_I2C_WaitIdle
 10229 ;; This function is called by:
 10230 ;;		_OLED_Command
 10231 ;;		_OLED_WriteData
 10232 ;; This function uses a non-reentrant model
 10233 ;;
 10234                           
 10235     1242                     _I2C_Stop:	
 10236                           ;psect for function _I2C_Stop
 10237                           
 10238     1242                     l2641:	
 10239                           ;incstack = 0
 10240                           ; Regs used in _I2C_Stop: [wreg+status,2+status,0+pclath+cstack]
 10241                           
 10242                           
 10243                           ;I2C.c: 140:     I2C_Status_t st;;I2C.c: 142:     st = I2C_WaitIdle(50);
 10244     1242  3032               	movlw	50
 10245     1243  00F0               	movwf	I2C_WaitIdle@timeout_ms
 10246     1244  3000               	movlw	0
 10247     1245  00F1               	movwf	I2C_WaitIdle@timeout_ms+1
 10248     1246  3192  2288  3192   	fcall	_I2C_WaitIdle
 10249     1249  00F3               	movwf	I2C_Stop@st
 10250     124A                     l2643:
 10251                           
 10252                           ;I2C.c: 143:     if (st != I2C_OK) return st;
 10253     124A  0873               	movf	I2C_Stop@st,w
 10254     124B  1903               	btfsc	3,2
 10255     124C  2A4E               	goto	u2951
 10256     124D  2A4F               	goto	u2950
 10257     124E                     u2951:
 10258     124E  2A50               	goto	l55
 10259     124F                     u2950:
 10260     124F  2A64               	goto	l56
 10261     1250                     l55:
 10262                           
 10263                           ;I2C.c: 145:     PIR1bits.SSP1IF = 0;
 10264     1250  0020               	movlb	0	; select bank0
 10265     1251  1191               	bcf	17,3	;volatile
 10266                           
 10267                           ;I2C.c: 146:     SSPCON2bits.PEN = 1;
 10268     1252  0024               	movlb	4	; select bank4
 10269     1253  1516               	bsf	22,2	;volatile
 10270     1254                     l2647:
 10271                           
 10272                           ;I2C.c: 148:     st = I2C_WaitIF(50);
 10273     1254  3032               	movlw	50
 10274     1255  00F0               	movwf	I2C_WaitIF@timeout_ms
 10275     1256  3000               	movlw	0
 10276     1257  00F1               	movwf	I2C_WaitIF@timeout_ms+1
 10277     1258  3192  2202  3192   	fcall	_I2C_WaitIF
 10278     125B  00F3               	movwf	I2C_Stop@st
 10279     125C                     l2649:
 10280                           
 10281                           ;I2C.c: 149:     if (st != I2C_OK) return st;
 10282     125C  0873               	movf	I2C_Stop@st,w
 10283     125D  1903               	btfsc	3,2
 10284     125E  2A60               	goto	u2961
 10285     125F  2A61               	goto	u2960
 10286     1260                     u2961:
 10287     1260  2A62               	goto	l57
 10288     1261                     u2960:
 10289     1261  2A64               	goto	l56
 10290     1262                     l57:
 10291                           
 10292                           ;I2C.c: 151:     PIR1bits.SSP1IF = 0;
 10293     1262  0020               	movlb	0	; select bank0
 10294     1263  1191               	bcf	17,3	;volatile
 10295     1264                     l56:	
 10296                           ;I2C.c: 152:     return I2C_OK;;	Return value of _I2C_Stop is never used
 10297                           
 10298     1264  0008               	return
 10299     1265                     __end_of_I2C_Stop:
 10300                           
 10301                           	psect	text32
 10302     0006                     __ptext32:	
 10303 ;; *************** function _I2C_Start *****************
 10304 ;; Defined at:
 10305 ;;		line 98 in file "I2C.c"
 10306 ;; Parameters:    Size  Location     Type
 10307 ;;		None
 10308 ;; Auto vars:     Size  Location     Type
 10309 ;;  st              1    3[COMMON] enum E6036
 10310 ;; Return value:  Size  Location     Type
 10311 ;;                  1    wreg      enum E6036
 10312 ;; Registers used:
 10313 ;;		wreg, status,2, status,0, pclath, cstack
 10314 ;; Tracked objects:
 10315 ;;		On entry : 0/0
 10316 ;;		On exit  : 0/0
 10317 ;;		Unchanged: 0/0
 10318 ;; Data sizes:     COMMON   BANK0   BANK1   BANK2   BANK3   BANK4   BANK5   BANK6   BANK7   BANK8   BANK9  BANK10  BANK1
      +1  BANK12  BANK13  BANK14  BANK15  BANK16  BANK17  BANK18  BANK19  BANK20  BANK21  BANK22  BANK23  BANK24  BANK25
 10319 ;;      Params:         0       0       0       0       0       0       0       0       0       0       0       0       
      +0       0       0       0       0       0       0       0       0       0       0       0       0       0       0
 10320 ;;      Locals:         1       0       0       0       0       0       0       0       0       0       0       0       
      +0       0       0       0       0       0       0       0       0       0       0       0       0       0       0
 10321 ;;      Temps:          0       0       0       0       0       0       0       0       0       0       0       0       
      +0       0       0       0       0       0       0       0       0       0       0       0       0       0       0
 10322 ;;      Totals:         1       0       0       0       0       0       0       0       0       0       0       0       
      +0       0       0       0       0       0       0       0       0       0       0       0       0       0       0
 10323 ;;Total ram usage:        1 bytes
 10324 ;; Hardware stack levels used: 1
 10325 ;; Hardware stack levels required when called: 1
 10326 ;; This function calls:
 10327 ;;		_I2C_WaitIF
 10328 ;;		_I2C_WaitIdle
 10329 ;; This function is called by:
 10330 ;;		_OLED_Command
 10331 ;;		_OLED_WriteData
 10332 ;; This function uses a non-reentrant model
 10333 ;;
 10334                           
 10335     0006                     _I2C_Start:	
 10336                           ;psect for function _I2C_Start
 10337                           
 10338     0006                     l2621:	
 10339                           ;incstack = 0
 10340                           ; Regs used in _I2C_Start: [wreg+status,2+status,0+pclath+cstack]
 10341                           
 10342                           
 10343                           ;I2C.c: 100:     I2C_Status_t st;;I2C.c: 102:     st = I2C_WaitIdle(50);
 10344     0006  3032               	movlw	50
 10345     0007  00F0               	movwf	I2C_WaitIdle@timeout_ms
 10346     0008  3000               	movlw	0
 10347     0009  00F1               	movwf	I2C_WaitIdle@timeout_ms+1
 10348     000A  3192  2288  3180   	fcall	_I2C_WaitIdle
 10349     000D  00F3               	movwf	I2C_Start@st
 10350     000E                     l2623:
 10351                           
 10352                           ;I2C.c: 103:     if (st != I2C_OK) return st;
 10353     000E  0873               	movf	I2C_Start@st,w
 10354     000F  1903               	btfsc	3,2
 10355     0010  2812               	goto	u2931
 10356     0011  2813               	goto	u2930
 10357     0012                     u2931:
 10358     0012  2815               	goto	l45
 10359     0013                     u2930:
 10360     0013                     l2625:
 10361     0013  0873               	movf	I2C_Start@st,w
 10362     0014  282A               	goto	l46
 10363     0015                     l45:
 10364                           
 10365                           ;I2C.c: 105:     PIR1bits.SSP1IF = 0;
 10366     0015  0020               	movlb	0	; select bank0
 10367     0016  1191               	bcf	17,3	;volatile
 10368                           
 10369                           ;I2C.c: 106:     SSPCON2bits.SEN = 1;
 10370     0017  0024               	movlb	4	; select bank4
 10371     0018  1416               	bsf	22,0	;volatile
 10372     0019                     l2629:
 10373                           
 10374                           ;I2C.c: 108:     st = I2C_WaitIF(50);
 10375     0019  3032               	movlw	50
 10376     001A  00F0               	movwf	I2C_WaitIF@timeout_ms
 10377     001B  3000               	movlw	0
 10378     001C  00F1               	movwf	I2C_WaitIF@timeout_ms+1
 10379     001D  3192  2202  3180   	fcall	_I2C_WaitIF
 10380     0020  00F3               	movwf	I2C_Start@st
 10381     0021                     l2631:
 10382                           
 10383                           ;I2C.c: 109:     if (st != I2C_OK) return st;
 10384     0021  0873               	movf	I2C_Start@st,w
 10385     0022  1903               	btfsc	3,2
 10386     0023  2825               	goto	u2941
 10387     0024  2826               	goto	u2940
 10388     0025                     u2941:
 10389     0025  2827               	goto	l47
 10390     0026                     u2940:
 10391     0026  2813               	goto	l2625
 10392     0027                     l47:
 10393                           
 10394                           ;I2C.c: 111:     PIR1bits.SSP1IF = 0;
 10395     0027  0020               	movlb	0	; select bank0
 10396     0028  1191               	bcf	17,3	;volatile
 10397     0029                     l2637:
 10398                           
 10399                           ;I2C.c: 112:     return I2C_OK;
 10400     0029  3000               	movlw	0
 10401     002A                     l46:
 10402     002A  0008               	return
 10403     002B                     __end_of_I2C_Start:
 10404                           
 10405                           	psect	text33
 10406     1288                     __ptext33:	
 10407 ;; *************** function _I2C_WaitIdle *****************
 10408 ;; Defined at:
 10409 ;;		line 81 in file "I2C.c"
 10410 ;; Parameters:    Size  Location     Type
 10411 ;;  timeout_ms      2    0[COMMON] unsigned short 
 10412 ;; Auto vars:     Size  Location     Type
 10413 ;;		None
 10414 ;; Return value:  Size  Location     Type
 10415 ;;                  1    wreg      enum E6036
 10416 ;; Registers used:
 10417 ;;		wreg, status,2, status,0
 10418 ;; Tracked objects:
 10419 ;;		On entry : 0/0
 10420 ;;		On exit  : 0/0
 10421 ;;		Unchanged: 0/0
 10422 ;; Data sizes:     COMMON   BANK0   BANK1   BANK2   BANK3   BANK4   BANK5   BANK6   BANK7   BANK8   BANK9  BANK10  BANK1
      +1  BANK12  BANK13  BANK14  BANK15  BANK16  BANK17  BANK18  BANK19  BANK20  BANK21  BANK22  BANK23  BANK24  BANK25
 10423 ;;      Params:         2       0       0       0       0       0       0       0       0       0       0       0       
      +0       0       0       0       0       0       0       0       0       0       0       0       0       0       0
 10424 ;;      Locals:         0       0       0       0       0       0       0       0       0       0       0       0       
      +0       0       0       0       0       0       0       0       0       0       0       0       0       0       0
 10425 ;;      Temps:          1       0       0       0       0       0       0       0       0       0       0       0       
      +0       0       0       0       0       0       0       0       0       0       0       0       0       0       0
 10426 ;;      Totals:         3       0       0       0       0       0       0       0       0       0       0       0       
      +0       0       0       0       0       0       0       0       0       0       0       0       0       0       0
 10427 ;;Total ram usage:        3 bytes
 10428 ;; Hardware stack levels used: 1
 10429 ;; This function calls:
 10430 ;;		Nothing
 10431 ;; This function is called by:
 10432 ;;		_I2C_Start
 10433 ;;		_I2C_Stop
 10434 ;;		_I2C_WriteByte
 10435 ;;		_I2C_RepeatedStart
 10436 ;;		_I2C_ReadByte
 10437 ;; This function uses a non-reentrant model
 10438 ;;
 10439                           
 10440     1288                     _I2C_WaitIdle:	
 10441                           ;psect for function _I2C_WaitIdle
 10442                           
 10443     1288                     l2603:	
 10444                           ;incstack = 0
 10445                           ; Regs used in _I2C_WaitIdle: [wreg+status,2+status,0]
 10446                           
 10447                           
 10448                           ;I2C.c: 81: I2C_Status_t I2C_WaitIdle(uint16_t timeout_ms);I2C.c: 82: {;I2C.c: 83:     w
      +                          hile (timeout_ms--)
 10449     1288  2A9E               	goto	l2615
 10450     1289                     l2605:
 10451                           
 10452                           ;I2C.c: 84:     {;I2C.c: 87:         if ((SSPCON2 & 0x1F) == 0 && SSPSTATbits.R_nW == 0)
 10453     1289  0024               	movlb	4	; select bank4
 10454     128A  0816               	movf	22,w	;volatile
 10455     128B  391F               	andlw	31
 10456     128C  1D03               	btfss	3,2
 10457     128D  2A8F               	goto	u2901
 10458     128E  2A90               	goto	u2900
 10459     128F                     u2901:
 10460     128F  2A96               	goto	l2613
 10461     1290                     u2900:
 10462     1290                     l2607:
 10463     1290  1914               	btfsc	20,2	;volatile
 10464     1291  2A93               	goto	u2911
 10465     1292  2A94               	goto	u2910
 10466     1293                     u2911:
 10467     1293  2A96               	goto	l2613
 10468     1294                     u2910:
 10469     1294                     l2609:
 10470                           
 10471                           ;I2C.c: 88:             return I2C_OK;
 10472     1294  3000               	movlw	0
 10473     1295  2AAB               	goto	l41
 10474     1296                     l2613:
 10475                           
 10476                           ;I2C.c: 90:         _delay((unsigned long)((1)*(32000000/4000.0)));
 10477     1296  300B               	movlw	11
 10478     1297  00F2               	movwf	??_I2C_WaitIdle
 10479     1298  3062               	movlw	98
 10480     1299                     u5777:
 10481     1299  0B89               	decfsz	9,f
 10482     129A  2A99               	goto	u5777
 10483     129B  0BF2               	decfsz	??_I2C_WaitIdle,f
 10484     129C  2A99               	goto	u5777
 10485     129D  3200               	nop2
 10486     129E                     l2615:
 10487                           
 10488                           ;I2C.c: 83:     while (timeout_ms--)
 10489     129E  3001               	movlw	1
 10490     129F  02F0               	subwf	I2C_WaitIdle@timeout_ms,f
 10491     12A0  3000               	movlw	0
 10492     12A1  3BF1               	subwfb	I2C_WaitIdle@timeout_ms+1,f
 10493     12A2  0A70               	incf	I2C_WaitIdle@timeout_ms,w
 10494     12A3  1D03               	skipz
 10495     12A4  2AA9               	goto	u2921
 10496     12A5  0A71               	incf	I2C_WaitIdle@timeout_ms+1,w
 10497     12A6  1D03               	btfss	3,2
 10498     12A7  2AA9               	goto	u2921
 10499     12A8  2AAA               	goto	u2920
 10500     12A9                     u2921:
 10501     12A9  2A89               	goto	l2605
 10502     12AA                     u2920:
 10503     12AA                     l2617:
 10504                           
 10505                           ;I2C.c: 92:     return I2C_TIMEOUT;
 10506     12AA  3002               	movlw	2
 10507     12AB                     l41:
 10508     12AB  0008               	return
 10509     12AC                     __end_of_I2C_WaitIdle:
 10510                           
 10511                           	psect	text34
 10512     1202                     __ptext34:	
 10513 ;; *************** function _I2C_WaitIF *****************
 10514 ;; Defined at:
 10515 ;;		line 23 in file "I2C.c"
 10516 ;; Parameters:    Size  Location     Type
 10517 ;;  timeout_ms      2    0[COMMON] unsigned short 
 10518 ;; Auto vars:     Size  Location     Type
 10519 ;;		None
 10520 ;; Return value:  Size  Location     Type
 10521 ;;                  1    wreg      enum E6036
 10522 ;; Registers used:
 10523 ;;		wreg, status,2, status,0
 10524 ;; Tracked objects:
 10525 ;;		On entry : 0/0
 10526 ;;		On exit  : 0/0
 10527 ;;		Unchanged: 0/0
 10528 ;; Data sizes:     COMMON   BANK0   BANK1   BANK2   BANK3   BANK4   BANK5   BANK6   BANK7   BANK8   BANK9  BANK10  BANK1
      +1  BANK12  BANK13  BANK14  BANK15  BANK16  BANK17  BANK18  BANK19  BANK20  BANK21  BANK22  BANK23  BANK24  BANK25
 10529 ;;      Params:         2       0       0       0       0       0       0       0       0       0       0       0       
      +0       0       0       0       0       0       0       0       0       0       0       0       0       0       0
 10530 ;;      Locals:         0       0       0       0       0       0       0       0       0       0       0       0       
      +0       0       0       0       0       0       0       0       0       0       0       0       0       0       0
 10531 ;;      Temps:          1       0       0       0       0       0       0       0       0       0       0       0       
      +0       0       0       0       0       0       0       0       0       0       0       0       0       0       0
 10532 ;;      Totals:         3       0       0       0       0       0       0       0       0       0       0       0       
      +0       0       0       0       0       0       0       0       0       0       0       0       0       0       0
 10533 ;;Total ram usage:        3 bytes
 10534 ;; Hardware stack levels used: 1
 10535 ;; This function calls:
 10536 ;;		Nothing
 10537 ;; This function is called by:
 10538 ;;		_I2C_Start
 10539 ;;		_I2C_Stop
 10540 ;;		_I2C_WriteByte
 10541 ;;		_I2C_RepeatedStart
 10542 ;;		_I2C_ReadByte
 10543 ;; This function uses a non-reentrant model
 10544 ;;
 10545                           
 10546     1202                     _I2C_WaitIF:	
 10547                           ;psect for function _I2C_WaitIF
 10548                           
 10549     1202                     l2589:	
 10550                           ;incstack = 0
 10551                           ; Regs used in _I2C_WaitIF: [wreg+status,2+status,0]
 10552                           
 10553                           
 10554                           ;I2C.c: 23: static I2C_Status_t I2C_WaitIF(uint16_t timeout_ms);I2C.c: 24: {;I2C.c: 25: 
      +                              while (timeout_ms--)
 10555     1202  2A12               	goto	l2597
 10556     1203                     l26:
 10557                           
 10558                           ;I2C.c: 26:     {;I2C.c: 27:         if (PIR1bits.SSP1IF)
 10559     1203  0020               	movlb	0	; select bank0
 10560     1204  1D91               	btfss	17,3	;volatile
 10561     1205  2A07               	goto	u2881
 10562     1206  2A08               	goto	u2880
 10563     1207                     u2881:
 10564     1207  2A0A               	goto	l2595
 10565     1208                     u2880:
 10566     1208                     l2591:
 10567                           
 10568                           ;I2C.c: 28:             return I2C_OK;
 10569     1208  3000               	movlw	0
 10570     1209  2A1F               	goto	l28
 10571     120A                     l2595:
 10572                           
 10573                           ;I2C.c: 30:         _delay((unsigned long)((1)*(32000000/4000.0)));
 10574     120A  300B               	movlw	11
 10575     120B  00F2               	movwf	??_I2C_WaitIF
 10576     120C  3062               	movlw	98
 10577     120D                     u5787:
 10578     120D  0B89               	decfsz	9,f
 10579     120E  2A0D               	goto	u5787
 10580     120F  0BF2               	decfsz	??_I2C_WaitIF,f
 10581     1210  2A0D               	goto	u5787
 10582     1211  3200               	nop2
 10583     1212                     l2597:
 10584                           
 10585                           ;I2C.c: 25:     while (timeout_ms--)
 10586     1212  3001               	movlw	1
 10587     1213  02F0               	subwf	I2C_WaitIF@timeout_ms,f
 10588     1214  3000               	movlw	0
 10589     1215  3BF1               	subwfb	I2C_WaitIF@timeout_ms+1,f
 10590     1216  0A70               	incf	I2C_WaitIF@timeout_ms,w
 10591     1217  1D03               	skipz
 10592     1218  2A1D               	goto	u2891
 10593     1219  0A71               	incf	I2C_WaitIF@timeout_ms+1,w
 10594     121A  1D03               	btfss	3,2
 10595     121B  2A1D               	goto	u2891
 10596     121C  2A1E               	goto	u2890
 10597     121D                     u2891:
 10598     121D  2A03               	goto	l26
 10599     121E                     u2890:
 10600     121E                     l2599:
 10601                           
 10602                           ;I2C.c: 32:     return I2C_TIMEOUT;
 10603     121E  3002               	movlw	2
 10604     121F                     l28:
 10605     121F  0008               	return
 10606     1220                     __end_of_I2C_WaitIF:
 10607                           
 10608                           	psect	text35
 10609     11B7                     __ptext35:	
 10610 ;; *************** function _I2C_Init *****************
 10611 ;; Defined at:
 10612 ;;		line 41 in file "I2C.c"
 10613 ;; Parameters:    Size  Location     Type
 10614 ;;		None
 10615 ;; Auto vars:     Size  Location     Type
 10616 ;;		None
 10617 ;; Return value:  Size  Location     Type
 10618 ;;                  1    wreg      void 
 10619 ;; Registers used:
 10620 ;;		wreg, status,2, status,0, pclath, cstack
 10621 ;; Tracked objects:
 10622 ;;		On entry : 0/0
 10623 ;;		On exit  : 0/0
 10624 ;;		Unchanged: 0/0
 10625 ;; Data sizes:     COMMON   BANK0   BANK1   BANK2   BANK3   BANK4   BANK5   BANK6   BANK7   BANK8   BANK9  BANK10  BANK1
      +1  BANK12  BANK13  BANK14  BANK15  BANK16  BANK17  BANK18  BANK19  BANK20  BANK21  BANK22  BANK23  BANK24  BANK25
 10626 ;;      Params:         0       0       0       0       0       0       0       0       0       0       0       0       
      +0       0       0       0       0       0       0       0       0       0       0       0       0       0       0
 10627 ;;      Locals:         0       0       0       0       0       0       0       0       0       0       0       0       
      +0       0       0       0       0       0       0       0       0       0       0       0       0       0       0
 10628 ;;      Temps:          1       0       0       0       0       0       0       0       0       0       0       0       
      +0       0       0       0       0       0       0       0       0       0       0       0       0       0       0
 10629 ;;      Totals:         1       0       0       0       0       0       0       0       0       0       0       0       
      +0       0       0       0       0       0       0       0       0       0       0       0       0       0       0
 10630 ;;Total ram usage:        1 bytes
 10631 ;; Hardware stack levels used: 1
 10632 ;; Hardware stack levels required when called: 1
 10633 ;; This function calls:
 10634 ;;		_I2C_ClearErrors
 10635 ;; This function is called by:
 10636 ;;		_main
 10637 ;; This function uses a non-reentrant model
 10638 ;;
 10639                           
 10640     11B7                     _I2C_Init:	
 10641                           ;psect for function _I2C_Init
 10642                           
 10643     11B7                     l3095:	
 10644                           ;incstack = 0
 10645                           ; Regs used in _I2C_Init: [wreg+status,2+status,0+pclath+cstack]
 10646                           
 10647                           
 10648                           ;I2C.c: 44:     SSPCONbits.SSPM = 0x08;
 10649     11B7  0024               	movlb	4	; select bank4
 10650     11B8  0815               	movf	21,w	;volatile
 10651     11B9  39F0               	andlw	-16
 10652     11BA  3808               	iorlw	8
 10653     11BB  0095               	movwf	21	;volatile
 10654     11BC                     l3097:
 10655                           
 10656                           ;I2C.c: 47:     SSPCONbits.SSPEN = 1;
 10657     11BC  1695               	bsf	21,5	;volatile
 10658     11BD                     l3099:
 10659                           
 10660                           ;I2C.c: 50:     SSPADD = 79;
 10661     11BD  304F               	movlw	79
 10662     11BE  0092               	movwf	18	;volatile
 10663     11BF                     l3101:
 10664                           
 10665                           ;I2C.c: 52:     I2C_ClearErrors();
 10666     11BF  3191  2191  3191   	fcall	_I2C_ClearErrors
 10667     11C2                     l3103:
 10668                           
 10669                           ;I2C.c: 53:     _delay((unsigned long)((10)*(32000000/4000.0)));
 10670     11C2  3068               	movlw	104
 10671     11C3  00F0               	movwf	??_I2C_Init
 10672     11C4  30E4               	movlw	228
 10673     11C5                     u5797:
 10674     11C5  0B89               	decfsz	9,f
 10675     11C6  29C5               	goto	u5797
 10676     11C7  0BF0               	decfsz	??_I2C_Init,f
 10677     11C8  29C5               	goto	u5797
 10678     11C9  3200               	nop2
 10679     11CA                     l32:
 10680     11CA  0008               	return
 10681     11CB                     __end_of_I2C_Init:
 10682                           
 10683                           	psect	text36
 10684     1191                     __ptext36:	
 10685 ;; *************** function _I2C_ClearErrors *****************
 10686 ;; Defined at:
 10687 ;;		line 62 in file "I2C.c"
 10688 ;; Parameters:    Size  Location     Type
 10689 ;;		None
 10690 ;; Auto vars:     Size  Location     Type
 10691 ;;		None
 10692 ;; Return value:  Size  Location     Type
 10693 ;;                  1    wreg      void 
 10694 ;; Registers used:
 10695 ;;		None
 10696 ;; Tracked objects:
 10697 ;;		On entry : 0/0
 10698 ;;		On exit  : 0/0
 10699 ;;		Unchanged: 0/0
 10700 ;; Data sizes:     COMMON   BANK0   BANK1   BANK2   BANK3   BANK4   BANK5   BANK6   BANK7   BANK8   BANK9  BANK10  BANK1
      +1  BANK12  BANK13  BANK14  BANK15  BANK16  BANK17  BANK18  BANK19  BANK20  BANK21  BANK22  BANK23  BANK24  BANK25
 10701 ;;      Params:         0       0       0       0       0       0       0       0       0       0       0       0       
      +0       0       0       0       0       0       0       0       0       0       0       0       0       0       0
 10702 ;;      Locals:         0       0       0       0       0       0       0       0       0       0       0       0       
      +0       0       0       0       0       0       0       0       0       0       0       0       0       0       0
 10703 ;;      Temps:          0       0       0       0       0       0       0       0       0       0       0       0       
      +0       0       0       0       0       0       0       0       0       0       0       0       0       0       0
 10704 ;;      Totals:         0       0       0       0       0       0       0       0       0       0       0       0       
      +0       0       0       0       0       0       0       0       0       0       0       0       0       0       0
 10705 ;;Total ram usage:        0 bytes
 10706 ;; Hardware stack levels used: 1
 10707 ;; This function calls:
 10708 ;;		Nothing
 10709 ;; This function is called by:
 10710 ;;		_I2C_Init
 10711 ;; This function uses a non-reentrant model
 10712 ;;
 10713                           
 10714     1191                     _I2C_ClearErrors:	
 10715                           ;psect for function _I2C_ClearErrors
 10716                           
 10717     1191                     l2769:	
 10718                           ;incstack = 0
 10719                           ; Regs used in _I2C_ClearErrors: []
 10720                           
 10721                           
 10722                           ;I2C.c: 65:     SSPCON1bits.SSPOV = 0;
 10723     1191  0024               	movlb	4	; select bank4
 10724     1192  1315               	bcf	21,6	;volatile
 10725                           
 10726                           ;I2C.c: 66:     SSPCON1bits.WCOL = 0;
 10727     1193  1395               	bcf	21,7	;volatile
 10728                           
 10729                           ;I2C.c: 69:     PIR2bits.BCL1IF = 0;
 10730     1194  0020               	movlb	0	; select bank0
 10731     1195  1192               	bcf	18,3	;volatile
 10732                           
 10733                           ;I2C.c: 72:     PIR1bits.SSP1IF = 0;
 10734     1196  1191               	bcf	17,3	;volatile
 10735     1197                     l35:
 10736     1197  0008               	return
 10737     1198                     __end_of_I2C_ClearErrors:
 10738                           
 10739                           	psect	text37
 10740     16AF                     __ptext37:	
 10741 ;; *************** function _ADC_Read_Averaged *****************
 10742 ;; Defined at:
 10743 ;;		line 99 in file "./ADC.h"
 10744 ;; Parameters:    Size  Location     Type
 10745 ;;  channel         1    wreg     enum E6091
 10746 ;;  samples         1    0[BANK0 ] unsigned char 
 10747 ;; Auto vars:     Size  Location     Type
 10748 ;;  channel         1    6[BANK0 ] enum E6091
 10749 ;;  i               1   11[BANK0 ] unsigned char 
 10750 ;;  sum             4    7[BANK0 ] unsigned long 
 10751 ;; Return value:  Size  Location     Type
 10752 ;;                  2    0[BANK0 ] unsigned short 
 10753 ;; Registers used:
 10754 ;;		wreg, status,2, status,0, pclath, cstack
 10755 ;; Tracked objects:
 10756 ;;		On entry : 0/0
 10757 ;;		On exit  : 0/0
 10758 ;;		Unchanged: 0/0
 10759 ;; Data sizes:     COMMON   BANK0   BANK1   BANK2   BANK3   BANK4   BANK5   BANK6   BANK7   BANK8   BANK9  BANK10  BANK1
      +1  BANK12  BANK13  BANK14  BANK15  BANK16  BANK17  BANK18  BANK19  BANK20  BANK21  BANK22  BANK23  BANK24  BANK25
 10760 ;;      Params:         0       2       0       0       0       0       0       0       0       0       0       0       
      +0       0       0       0       0       0       0       0       0       0       0       0       0       0       0
 10761 ;;      Locals:         0       6       0       0       0       0       0       0       0       0       0       0       
      +0       0       0       0       0       0       0       0       0       0       0       0       0       0       0
 10762 ;;      Temps:          0       4       0       0       0       0       0       0       0       0       0       0       
      +0       0       0       0       0       0       0       0       0       0       0       0       0       0       0
 10763 ;;      Totals:         0      12       0       0       0       0       0       0       0       0       0       0       
      +0       0       0       0       0       0       0       0       0       0       0       0       0       0       0
 10764 ;;Total ram usage:       12 bytes
 10765 ;; Hardware stack levels used: 1
 10766 ;; Hardware stack levels required when called: 1
 10767 ;; This function calls:
 10768 ;;		___lldiv
 10769 ;; This function is called by:
 10770 ;;		_main
 10771 ;; This function uses a non-reentrant model
 10772 ;;
 10773                           
 10774     16AF                     _ADC_Read_Averaged:	
 10775                           ;psect for function _ADC_Read_Averaged
 10776                           
 10777                           
 10778                           ;incstack = 0
 10779                           ; Regs used in _ADC_Read_Averaged: [wreg+status,2+status,0+pclath+cstack]
 10780                           ;ADC_Read_Averaged@channel stored from wreg
 10781     16AF  0020               	movlb	0	; select bank0
 10782     16B0  00A6               	movwf	ADC_Read_Averaged@channel
 10783     16B1                     l3111:
 10784                           
 10785                           ;./ADC.h: 99: uint16_t ADC_Read_Averaged(adc_channel_t channel, uint8_t samples);./ADC.h
      +                          : 100: {;./ADC.h: 101:     uint32_t sum = 0;
 10786     16B1  3000               	movlw	0
 10787     16B2  00AA               	movwf	ADC_Read_Averaged@sum+3
 10788     16B3  3000               	movlw	0
 10789     16B4  00A9               	movwf	ADC_Read_Averaged@sum+2
 10790     16B5  3000               	movlw	0
 10791     16B6  00A8               	movwf	ADC_Read_Averaged@sum+1
 10792     16B7  3000               	movlw	0
 10793     16B8  00A7               	movwf	ADC_Read_Averaged@sum
 10794     16B9                     l3113:
 10795                           
 10796                           ;./ADC.h: 104:     ADCON0bits.CHS = (uint8_t)channel;
 10797     16B9  0826               	movf	ADC_Read_Averaged@channel,w
 10798     16BA  00A2               	movwf	??_ADC_Read_Averaged
 10799     16BB  0DA2               	rlf	??_ADC_Read_Averaged,f
 10800     16BC  0DA2               	rlf	??_ADC_Read_Averaged,f
 10801     16BD  0021               	movlb	1	; select bank1
 10802     16BE  081D               	movf	29,w	;volatile
 10803     16BF  0020               	movlb	0	; select bank0
 10804     16C0  0622               	xorwf	??_ADC_Read_Averaged,w
 10805     16C1  3983               	andlw	-125
 10806     16C2  0622               	xorwf	??_ADC_Read_Averaged,w
 10807     16C3  0021               	movlb	1	; select bank1
 10808     16C4  009D               	movwf	29	;volatile
 10809     16C5                     l3115:
 10810                           
 10811                           ;./ADC.h: 105:     ADCON0bits.ADON = 1;
 10812     16C5  141D               	bsf	29,0	;volatile
 10813     16C6                     l3117:
 10814                           
 10815                           ;./ADC.h: 106:     _delay((unsigned long)((20)*(32000000/4000000.0)));
 10816     16C6  3035               	movlw	53
 10817     16C7                     u5807:
 10818     16C7  0B89               	decfsz	9,f
 10819     16C8  2EC7               	goto	u5807
 10820     16C9  0000               	nop
 10821     16CA                     l3119:
 10822                           
 10823                           ;./ADC.h: 109:     for (uint8_t i = 0; i < samples; i++)
 10824     16CA  0020               	movlb	0	; select bank0
 10825     16CB  01AB               	clrf	ADC_Read_Averaged@i
 10826     16CC  2EF8               	goto	l3127
 10827     16CD                     l149:
 10828                           
 10829                           ;./ADC.h: 110:     {;./ADC.h: 112:         ADCON0bits.GO = 1;
 10830     16CD  0021               	movlb	1	; select bank1
 10831     16CE  149D               	bsf	29,1	;volatile
 10832     16CF                     l150:	
 10833                           ;./ADC.h: 113:         while (ADCON0bits.GO_nDONE);
 10834                           
 10835     16CF  189D               	btfsc	29,1	;volatile
 10836     16D0  2ED2               	goto	u3881
 10837     16D1  2ED3               	goto	u3880
 10838     16D2                     u3881:
 10839     16D2  2ECF               	goto	l150
 10840     16D3                     u3880:
 10841     16D3                     l3121:
 10842                           
 10843                           ;./ADC.h: 115:         sum += (uint16_t)((ADRESH << 8) + ADRESL);
 10844     16D3  081B               	movf	27,w	;volatile
 10845     16D4  0020               	movlb	0	; select bank0
 10846     16D5  07A7               	addwf	ADC_Read_Averaged@sum,f
 10847     16D6  0021               	movlb	1	; select bank1
 10848     16D7  081C               	movf	28,w	;volatile
 10849     16D8  0020               	movlb	0	; select bank0
 10850     16D9  3DA8               	addwfc	ADC_Read_Averaged@sum+1,f
 10851     16DA  3000               	movlw	0
 10852     16DB  3DA9               	addwfc	ADC_Read_Averaged@sum+2,f
 10853     16DC  3DAA               	addwfc	ADC_Read_Averaged@sum+3,f
 10854                           
 10855                           ;./ADC.h: 118:         if (i < samples - 1) _delay((unsigned long)((5)*(32000000/4000000
      +                          .0)));
 10856     16DD  0820               	movf	ADC_Read_Averaged@samples,w
 10857     16DE  3EFF               	addlw	255
 10858     16DF  00A2               	movwf	??_ADC_Read_Averaged
 10859     16E0  30FF               	movlw	255
 10860     16E1  1803               	skipnc
 10861     16E2  3000               	movlw	0
 10862     16E3  00A3               	movwf	??_ADC_Read_Averaged+1
 10863     16E4  0823               	movf	??_ADC_Read_Averaged+1,w
 10864     16E5  3A80               	xorlw	128
 10865     16E6  3C80               	sublw	128
 10866     16E7  1D03               	skipz
 10867     16E8  2EEB               	goto	u3895
 10868     16E9  0822               	movf	??_ADC_Read_Averaged,w
 10869     16EA  022B               	subwf	ADC_Read_Averaged@i,w
 10870     16EB                     u3895:
 10871     16EB  1803               	skipnc
 10872     16EC  2EEE               	goto	u3891
 10873     16ED  2EEF               	goto	u3890
 10874     16EE                     u3891:
 10875     16EE  2EF3               	goto	l3125
 10876     16EF                     u3890:
 10877     16EF                     l3123:
 10878     16EF  300D               	movlw	13
 10879     16F0                     u5817:
 10880     16F0  0B89               	decfsz	9,f
 10881     16F1  2EF0               	goto	u5817
 10882     16F2  0000               	nop
 10883     16F3                     l3125:
 10884                           
 10885                           ;./ADC.h: 119:     }
 10886     16F3  3001               	movlw	1
 10887     16F4  0020               	movlb	0	; select bank0
 10888     16F5  00A2               	movwf	??_ADC_Read_Averaged
 10889     16F6  0822               	movf	??_ADC_Read_Averaged,w
 10890     16F7  07AB               	addwf	ADC_Read_Averaged@i,f
 10891     16F8                     l3127:
 10892     16F8  0820               	movf	ADC_Read_Averaged@samples,w
 10893     16F9  022B               	subwf	ADC_Read_Averaged@i,w
 10894     16FA  1C03               	skipc
 10895     16FB  2EFD               	goto	u3901
 10896     16FC  2EFE               	goto	u3900
 10897     16FD                     u3901:
 10898     16FD  2ECD               	goto	l149
 10899     16FE                     u3900:
 10900     16FE                     l3129:
 10901                           
 10902                           ;./ADC.h: 121:     return (uint16_t)(sum / samples);
 10903     16FE  0820               	movf	ADC_Read_Averaged@samples,w
 10904     16FF  00A2               	movwf	??_ADC_Read_Averaged
 10905     1700  01A3               	clrf	??_ADC_Read_Averaged+1
 10906     1701  01A4               	clrf	??_ADC_Read_Averaged+2
 10907     1702  01A5               	clrf	??_ADC_Read_Averaged+3
 10908     1703  0825               	movf	??_ADC_Read_Averaged+3,w
 10909     1704  00F3               	movwf	___lldiv@divisor+3
 10910     1705  0824               	movf	??_ADC_Read_Averaged+2,w
 10911     1706  00F2               	movwf	___lldiv@divisor+2
 10912     1707  0823               	movf	??_ADC_Read_Averaged+1,w
 10913     1708  00F1               	movwf	___lldiv@divisor+1
 10914     1709  0822               	movf	??_ADC_Read_Averaged,w
 10915     170A  00F0               	movwf	___lldiv@divisor
 10916     170B  082A               	movf	ADC_Read_Averaged@sum+3,w
 10917     170C  00F7               	movwf	___lldiv@dividend+3
 10918     170D  0829               	movf	ADC_Read_Averaged@sum+2,w
 10919     170E  00F6               	movwf	___lldiv@dividend+2
 10920     170F  0828               	movf	ADC_Read_Averaged@sum+1,w
 10921     1710  00F5               	movwf	___lldiv@dividend+1
 10922     1711  0827               	movf	ADC_Read_Averaged@sum,w
 10923     1712  00F4               	movwf	___lldiv@dividend
 10924     1713  3195  2591  3196   	fcall	___lldiv
 10925     1716  0871               	movf	?___lldiv+1,w
 10926     1717  0020               	movlb	0	; select bank0
 10927     1718  00A1               	movwf	?_ADC_Read_Averaged+1
 10928     1719  0870               	movf	?___lldiv,w
 10929     171A  00A0               	movwf	?_ADC_Read_Averaged
 10930     171B                     l155:
 10931     171B  0008               	return
 10932     171C                     __end_of_ADC_Read_Averaged:
 10933                           
 10934                           	psect	text38
 10935     1591                     __ptext38:	
 10936 ;; *************** function ___lldiv *****************
 10937 ;; Defined at:
 10938 ;;		line 5 in file "C:\Program Files\Microchip\xc8\v2.46\pic\sources\c99\common\__lldiv.c"
 10939 ;; Parameters:    Size  Location     Type
 10940 ;;  divisor         4    0[COMMON] unsigned long 
 10941 ;;  dividend        4    4[COMMON] unsigned long 
 10942 ;; Auto vars:     Size  Location     Type
 10943 ;;  quotient        4    9[COMMON] unsigned long 
 10944 ;;  counter         1   13[COMMON] unsigned char 
 10945 ;; Return value:  Size  Location     Type
 10946 ;;                  4    0[COMMON] unsigned long 
 10947 ;; Registers used:
 10948 ;;		wreg, status,2, status,0
 10949 ;; Tracked objects:
 10950 ;;		On entry : 0/0
 10951 ;;		On exit  : 0/0
 10952 ;;		Unchanged: 0/0
 10953 ;; Data sizes:     COMMON   BANK0   BANK1   BANK2   BANK3   BANK4   BANK5   BANK6   BANK7   BANK8   BANK9  BANK10  BANK1
      +1  BANK12  BANK13  BANK14  BANK15  BANK16  BANK17  BANK18  BANK19  BANK20  BANK21  BANK22  BANK23  BANK24  BANK25
 10954 ;;      Params:         8       0       0       0       0       0       0       0       0       0       0       0       
      +0       0       0       0       0       0       0       0       0       0       0       0       0       0       0
 10955 ;;      Locals:         5       0       0       0       0       0       0       0       0       0       0       0       
      +0       0       0       0       0       0       0       0       0       0       0       0       0       0       0
 10956 ;;      Temps:          1       0       0       0       0       0       0       0       0       0       0       0       
      +0       0       0       0       0       0       0       0       0       0       0       0       0       0       0
 10957 ;;      Totals:        14       0       0       0       0       0       0       0       0       0       0       0       
      +0       0       0       0       0       0       0       0       0       0       0       0       0       0       0
 10958 ;;Total ram usage:       14 bytes
 10959 ;; Hardware stack levels used: 1
 10960 ;; This function calls:
 10961 ;;		Nothing
 10962 ;; This function is called by:
 10963 ;;		_ADC_Read_Averaged
 10964 ;;		_OLED_Printf_Line
 10965 ;; This function uses a non-reentrant model
 10966 ;;
 10967                           
 10968     1591                     ___lldiv:	
 10969                           ;psect for function ___lldiv
 10970                           
 10971     1591                     l2835:	
 10972                           ;incstack = 0
 10973                           ; Regs used in ___lldiv: [wreg+status,2+status,0]
 10974                           
 10975     1591  3000               	movlw	0
 10976     1592  00FC               	movwf	___lldiv@quotient+3
 10977     1593  3000               	movlw	0
 10978     1594  00FB               	movwf	___lldiv@quotient+2
 10979     1595  3000               	movlw	0
 10980     1596  00FA               	movwf	___lldiv@quotient+1
 10981     1597  3000               	movlw	0
 10982     1598  00F9               	movwf	___lldiv@quotient
 10983     1599  0873               	movf	___lldiv@divisor+3,w
 10984     159A  0472               	iorwf	___lldiv@divisor+2,w
 10985     159B  0471               	iorwf	___lldiv@divisor+1,w
 10986     159C  0470               	iorwf	___lldiv@divisor,w
 10987     159D  1903               	skipnz
 10988     159E  2DA0               	goto	u3211
 10989     159F  2DA1               	goto	u3210
 10990     15A0                     u3211:
 10991     15A0  2DE2               	goto	l2855
 10992     15A1                     u3210:
 10993     15A1                     l2837:
 10994     15A1  01FD               	clrf	___lldiv@counter
 10995     15A2  0AFD               	incf	___lldiv@counter,f
 10996     15A3  2DAF               	goto	l2841
 10997     15A4                     l2839:
 10998     15A4  3001               	movlw	1
 10999     15A5                     u3225:
 11000     15A5  35F0               	lslf	___lldiv@divisor,f
 11001     15A6  0DF1               	rlf	___lldiv@divisor+1,f
 11002     15A7  0DF2               	rlf	___lldiv@divisor+2,f
 11003     15A8  0DF3               	rlf	___lldiv@divisor+3,f
 11004     15A9  0B89               	decfsz	9,f
 11005     15AA  2DA5               	goto	u3225
 11006     15AB  3001               	movlw	1
 11007     15AC  00F8               	movwf	??___lldiv
 11008     15AD  0878               	movf	??___lldiv,w
 11009     15AE  07FD               	addwf	___lldiv@counter,f
 11010     15AF                     l2841:
 11011     15AF  1FF3               	btfss	___lldiv@divisor+3,7
 11012     15B0  2DB2               	goto	u3231
 11013     15B1  2DB3               	goto	u3230
 11014     15B2                     u3231:
 11015     15B2  2DA4               	goto	l2839
 11016     15B3                     u3230:
 11017     15B3                     l2843:
 11018     15B3  3001               	movlw	1
 11019     15B4                     u3245:
 11020     15B4  35F9               	lslf	___lldiv@quotient,f
 11021     15B5  0DFA               	rlf	___lldiv@quotient+1,f
 11022     15B6  0DFB               	rlf	___lldiv@quotient+2,f
 11023     15B7  0DFC               	rlf	___lldiv@quotient+3,f
 11024     15B8  0B89               	decfsz	9,f
 11025     15B9  2DB4               	goto	u3245
 11026     15BA                     l2845:
 11027     15BA  0873               	movf	___lldiv@divisor+3,w
 11028     15BB  0277               	subwf	___lldiv@dividend+3,w
 11029     15BC  1D03               	skipz
 11030     15BD  2DC8               	goto	u3255
 11031     15BE  0872               	movf	___lldiv@divisor+2,w
 11032     15BF  0276               	subwf	___lldiv@dividend+2,w
 11033     15C0  1D03               	skipz
 11034     15C1  2DC8               	goto	u3255
 11035     15C2  0871               	movf	___lldiv@divisor+1,w
 11036     15C3  0275               	subwf	___lldiv@dividend+1,w
 11037     15C4  1D03               	skipz
 11038     15C5  2DC8               	goto	u3255
 11039     15C6  0870               	movf	___lldiv@divisor,w
 11040     15C7  0274               	subwf	___lldiv@dividend,w
 11041     15C8                     u3255:
 11042     15C8  1C03               	skipc
 11043     15C9  2DCB               	goto	u3251
 11044     15CA  2DCC               	goto	u3250
 11045     15CB                     u3251:
 11046     15CB  2DD5               	goto	l2851
 11047     15CC                     u3250:
 11048     15CC                     l2847:
 11049     15CC  0870               	movf	___lldiv@divisor,w
 11050     15CD  02F4               	subwf	___lldiv@dividend,f
 11051     15CE  0871               	movf	___lldiv@divisor+1,w
 11052     15CF  3BF5               	subwfb	___lldiv@dividend+1,f
 11053     15D0  0872               	movf	___lldiv@divisor+2,w
 11054     15D1  3BF6               	subwfb	___lldiv@dividend+2,f
 11055     15D2  0873               	movf	___lldiv@divisor+3,w
 11056     15D3  3BF7               	subwfb	___lldiv@dividend+3,f
 11057     15D4                     l2849:
 11058     15D4  1479               	bsf	___lldiv@quotient,0
 11059     15D5                     l2851:
 11060     15D5  3001               	movlw	1
 11061     15D6                     u3265:
 11062     15D6  36F3               	lsrf	___lldiv@divisor+3,f
 11063     15D7  0CF2               	rrf	___lldiv@divisor+2,f
 11064     15D8  0CF1               	rrf	___lldiv@divisor+1,f
 11065     15D9  0CF0               	rrf	___lldiv@divisor,f
 11066     15DA  0B89               	decfsz	9,f
 11067     15DB  2DD6               	goto	u3265
 11068     15DC                     l2853:
 11069     15DC  3001               	movlw	1
 11070     15DD  02FD               	subwf	___lldiv@counter,f
 11071     15DE  1D03               	btfss	3,2
 11072     15DF  2DE1               	goto	u3271
 11073     15E0  2DE2               	goto	u3270
 11074     15E1                     u3271:
 11075     15E1  2DB3               	goto	l2843
 11076     15E2                     u3270:
 11077     15E2                     l2855:
 11078     15E2  087C               	movf	___lldiv@quotient+3,w
 11079     15E3  00F3               	movwf	?___lldiv+3
 11080     15E4  087B               	movf	___lldiv@quotient+2,w
 11081     15E5  00F2               	movwf	?___lldiv+2
 11082     15E6  087A               	movf	___lldiv@quotient+1,w
 11083     15E7  00F1               	movwf	?___lldiv+1
 11084     15E8  0879               	movf	___lldiv@quotient,w
 11085     15E9  00F0               	movwf	?___lldiv
 11086     15EA                     l491:
 11087     15EA  0008               	return
 11088     15EB                     __end_of___lldiv:
 11089                           
 11090                           	psect	text39
 11091     11A1                     __ptext39:	
 11092 ;; *************** function _ADC_Init *****************
 11093 ;; Defined at:
 11094 ;;		line 76 in file "./ADC.h"
 11095 ;; Parameters:    Size  Location     Type
 11096 ;;		None
 11097 ;; Auto vars:     Size  Location     Type
 11098 ;;		None
 11099 ;; Return value:  Size  Location     Type
 11100 ;;                  1    wreg      void 
 11101 ;; Registers used:
 11102 ;;		wreg, status,2, status,0
 11103 ;; Tracked objects:
 11104 ;;		On entry : 0/0
 11105 ;;		On exit  : 0/0
 11106 ;;		Unchanged: 0/0
 11107 ;; Data sizes:     COMMON   BANK0   BANK1   BANK2   BANK3   BANK4   BANK5   BANK6   BANK7   BANK8   BANK9  BANK10  BANK1
      +1  BANK12  BANK13  BANK14  BANK15  BANK16  BANK17  BANK18  BANK19  BANK20  BANK21  BANK22  BANK23  BANK24  BANK25
 11108 ;;      Params:         0       0       0       0       0       0       0       0       0       0       0       0       
      +0       0       0       0       0       0       0       0       0       0       0       0       0       0       0
 11109 ;;      Locals:         0       0       0       0       0       0       0       0       0       0       0       0       
      +0       0       0       0       0       0       0       0       0       0       0       0       0       0       0
 11110 ;;      Temps:          0       0       0       0       0       0       0       0       0       0       0       0       
      +0       0       0       0       0       0       0       0       0       0       0       0       0       0       0
 11111 ;;      Totals:         0       0       0       0       0       0       0       0       0       0       0       0       
      +0       0       0       0       0       0       0       0       0       0       0       0       0       0       0
 11112 ;;Total ram usage:        0 bytes
 11113 ;; Hardware stack levels used: 1
 11114 ;; This function calls:
 11115 ;;		Nothing
 11116 ;; This function is called by:
 11117 ;;		_main
 11118 ;; This function uses a non-reentrant model
 11119 ;;
 11120                           
 11121     11A1                     _ADC_Init:	
 11122                           ;psect for function _ADC_Init
 11123                           
 11124     11A1                     l3105:	
 11125                           ;incstack = 0
 11126                           ; Regs used in _ADC_Init: [wreg+status,2+status,0]
 11127                           
 11128                           
 11129                           ;./ADC.h: 79:     ADCON1bits.ADCS = 0b010;
 11130     11A1  0021               	movlb	1	; select bank1
 11131     11A2  081E               	movf	30,w	;volatile
 11132     11A3  398F               	andlw	-113
 11133     11A4  3820               	iorlw	32
 11134     11A5  009E               	movwf	30	;volatile
 11135     11A6                     l3107:
 11136                           
 11137                           ;./ADC.h: 82:     ADCON1bits.ADFM = 1;
 11138     11A6  179E               	bsf	30,7	;volatile
 11139     11A7                     l3109:
 11140                           
 11141                           ;./ADC.h: 85:     ADCON1bits.ADNREF = 0;
 11142     11A7  111E               	bcf	30,2	;volatile
 11143                           
 11144                           ;./ADC.h: 88:     ADCON1bits.ADPREF = 0b00;
 11145     11A8  30FC               	movlw	-4
 11146     11A9  059E               	andwf	30,f	;volatile
 11147     11AA                     l145:
 11148     11AA  0008               	return
 11149     11AB                     __end_of_ADC_Init:
 11150     007E                     btemp	set	126	;btemp
 11151     007E                     wtemp0	set	126
 11152     24F0                     
 11153                           	psect	config
 11154                           
 11155                           ;Config register CONFIG1 @ 0x8007
 11156                           ;	Oscillator Selection Bits
 11157                           ;	FOSC = INTOSC, INTOSC oscillator: I/O function on CLKIN pin
 11158                           ;	Watchdog Timer Enable
 11159                           ;	WDTE = OFF, WDT disabled
 11160                           ;	Power-up Timer Enable
 11161                           ;	PWRTE = OFF, PWRT disabled
 11162                           ;	MCLR Pin Function Select
 11163                           ;	MCLRE = OFF, MCLR/VPP pin function is digital input if LVP bit is also 0.
 11164                           ;	Flash Program Memory Code Protection
 11165                           ;	CP = OFF, Program memory code protection is disabled
 11166                           ;	Brown-out Reset Enable
 11167                           ;	BOREN = OFF, Brown-out Reset disabled
 11168                           ;	Clock Out Enable
 11169                           ;	CLKOUTEN = OFF, CLKOUT function is disabled. I/O or oscillator function on the CLKOUT 
      +                          pin
 11170                           ;	Internal/External Switchover Mode
 11171                           ;	IESO = ON, Internal/External Switchover Mode is enabled
 11172                           ;	Fail-Safe Clock Monitor Enable
 11173                           ;	FCMEN = OFF, Fail-Safe Clock Monitor is disabled
 11174     8007                     	org	32775
 11175     8007  19A4               	dw	6564
 11176                           
 11177                           ;Config register CONFIG2 @ 0x8008
 11178                           ;	Flash Memory Self-Write Protection
 11179                           ;	WRT = OFF, Write protection off
 11180                           ;	Peripheral Pin Select one-way control
 11181                           ;	PPS1WAY = ON, The PPSLOCK bit cannot be cleared once it is set by software
 11182                           ;	Zero-cross detect disable
 11183                           ;	ZCDDIS = ON, ZCD disabled. ZCD can be enabled by setting the ZCDSEN bit of ZCDCON
 11184                           ;	Phase Lock Loop enable
 11185                           ;	PLLEN = OFF, 4x PLL is disabled
 11186                           ;	Stack Overflow/Underflow Reset Enable
 11187                           ;	STVREN = ON, Stack Overflow or Underflow will cause a Reset
 11188                           ;	Brown-out Reset Voltage Selection
 11189                           ;	BORV = LO, Brown-out Reset Voltage (Vbor), low trip point selected.
 11190                           ;	Low-Power Brown Out Reset
 11191                           ;	LPBOR = OFF, Low-Power BOR is disabled
 11192                           ;	In-Circuit Debugger Mode
 11193                           ;	DEBUG = 0x1, unprogrammed default
 11194                           ;	Low-Voltage Programming Enable
 11195                           ;	LVP = OFF, High-voltage on MCLR/VPP must be used for programming
 11196     8008                     	org	32776
 11197     8008  1EFF               	dw	7935

Data Sizes:
    Strings     11
    Constant    778
    Data        0
    BSS         0
    Persistent  32
    Stack       0

Auto Spaces:
    Space          Size  Autos    Used
    COMMON           14     14      14
    BANK0            80     80      80
    BANK1            80     56      56
    BANK2            80      0       0
    BANK3            80      0       0
    BANK4            80      0       0
    BANK5            80      0       0
    BANK6            80      0       0
    BANK7            80      0       0
    BANK8            80      0       0
    BANK9            80      0       0
    BANK10           80      0       0
    BANK11           80      0       0
    BANK12           80      0       0
    BANK13           80      0       0
    BANK14           80      0       0
    BANK15           64      0       0
    BANK16            0      0       0
    BANK17            0      0       0
    BANK18            0      0       0
    BANK19            0      0       0
    BANK20            0      0       0
    BANK21            0      0       0
    BANK22            0      0       0
    BANK23            0      0       0
    BANK24            0      0       0
    BANK25            0      0       0

Pointer List with Targets:

    memcpy@d	PTR unsigned char  size(2) Largest target is 512
		 -> screen_buffer(BIGRAM[512]), 

    memcpy@d1	PTR void  size(2) Largest target is 512
		 -> screen_buffer(BIGRAM[512]), 

    memcpy@s	PTR const unsigned char  size(2) Largest target is 768
		 -> OledFont(CODE[768]), 

    memcpy@s1	PTR const void  size(2) Largest target is 768
		 -> OledFont(CODE[768]), 

    memset@dest	PTR void  size(2) Largest target is 512
		 -> screen_buffer(BIGRAM[512]), 

    memset@p	PTR unsigned char  size(2) Largest target is 512
		 -> screen_buffer(BIGRAM[512]), 

    OLED_Printf_Line@ap	PTR void [1] size(1) Largest target is 1
		 -> ?_OLED_Printf_Line(BANK0[1]), 

    OLED_Printf_Line@dst	PTR unsigned char  size(1) Largest target is 32
		 -> OLED_Printf_Line@buf(BANK0[32]), 

    OLED_Printf_Line@fmt	PTR const unsigned char  size(2) Largest target is 11
		 -> STR_1(CODE[11]), 

    OLED_Printf_Line@p	PTR const unsigned char  size(1) Largest target is 32
		 -> OLED_Printf_Line@buf(BANK0[32]), 

    OLED_Printf_Line@src	PTR const unsigned char  size(2) Largest target is 11
		 -> STR_1(CODE[11]), 

    OLED_Printf_Line@str	PTR const unsigned char  size(1) Largest target is 1
		 -> ?_OLED_Printf_Line(BANK0[1]), 

    OLED_WriteData@data	PTR const unsigned char  size(2) Largest target is 768
		 -> OledFont(CODE[768]), screen_buffer(BIGRAM[512]), 

    sp__memcpy	PTR void  size(2) Largest target is 512
		 -> screen_buffer(BIGRAM[512]), 

    sp__memset	PTR void  size(2) Largest target is 512
		 -> screen_buffer(BIGRAM[512]), 

    sp__strcpy	PTR unsigned char  size(2) Largest target is 256
		 -> OLED_Printf_Line@last_text(BIGRAM[256]), 

    strcmp@l	PTR const unsigned char  size(1) Largest target is 32
		 -> OLED_Printf_Line@buf(BANK0[32]), 

    strcmp@r	PTR const unsigned char  size(2) Largest target is 256
		 -> OLED_Printf_Line@last_text(BIGRAM[256]), 

    strcpy@d	PTR unsigned char  size(2) Largest target is 256
		 -> OLED_Printf_Line@last_text(BIGRAM[256]), 

    strcpy@dest	PTR unsigned char  size(2) Largest target is 256
		 -> OLED_Printf_Line@last_text(BIGRAM[256]), 

    strcpy@src	PTR const unsigned char  size(1) Largest target is 32
		 -> OLED_Printf_Line@buf(BANK0[32]), 


Critical Paths under _main in COMMON

    _main->_OLED_Init
    _main->___xxtofl
    _initMain->_ADC_ConfigurePin
    ___flmul->___xxtofl
    ___fldiv->___xxtofl
    _OLED_SetOrientation->_OLED_Command
    _OLED_Printf_Line->___lldiv
    _OLED_UpdateLine->_OLED_WriteData
    _OLED_Init->_OLED_Clear
    _OLED_Clear->_OLED_WriteData
    _OLED_YX->_OLED_Command
    _OLED_Command->_I2C_WriteByte
    _OLED_WriteData->_I2C_WriteByte
    _I2C_WriteByte->_I2C_WaitIF
    _I2C_WriteByte->_I2C_WaitIdle
    _I2C_Stop->_I2C_WaitIF
    _I2C_Stop->_I2C_WaitIdle
    _I2C_Start->_I2C_WaitIF
    _I2C_Start->_I2C_WaitIdle
    _ADC_Read_Averaged->___lldiv

Critical Paths under _main in BANK0

    _main->_OLED_Printf_Line
    ___flmul->___fladd
    ___fldiv->___flmul
    _OLED_Printf_Line->_OLED_UpdateLine
    _OLED_Printf_Line->___aldiv
    _OLED_Init->_OLED_Clear

Critical Paths under _main in BANK1

    _main->_OLED_Printf_Line

Critical Paths under _main in BANK2

    None.

Critical Paths under _main in BANK3

    None.

Critical Paths under _main in BANK4

    None.

Critical Paths under _main in BANK5

    None.

Critical Paths under _main in BANK6

    None.

Critical Paths under _main in BANK7

    None.

Critical Paths under _main in BANK8

    None.

Critical Paths under _main in BANK9

    None.

Critical Paths under _main in BANK10

    None.

Critical Paths under _main in BANK11

    None.

Critical Paths under _main in BANK12

    None.

Critical Paths under _main in BANK13

    None.

Critical Paths under _main in BANK14

    None.

Critical Paths under _main in BANK15

    None.

Critical Paths under _main in BANK16

    None.

Critical Paths under _main in BANK17

    None.

Critical Paths under _main in BANK18

    None.

Critical Paths under _main in BANK19

    None.

Critical Paths under _main in BANK20

    None.

Critical Paths under _main in BANK21

    None.

Critical Paths under _main in BANK22

    None.

Critical Paths under _main in BANK23

    None.

Critical Paths under _main in BANK24

    None.

Critical Paths under _main in BANK25

    None.

Call Graph Tables:

 ---------------------------------------------------------------------------------
 (Depth) Function   	        Calls       Base Space   Used Autos Params    Refs
 ---------------------------------------------------------------------------------
 (0) _main                                                30    30      0   43547
                                             44 BANK1     12    12      0
                           _ADC_Init
                  _ADC_Read_Averaged
                           _I2C_Init
                         _OLED_Clear
                          _OLED_Init
                   _OLED_Printf_Line
                _OLED_SetOrientation
                            ___fladd
                            ___fldiv
                            ___flmul
                            ___fltol
                           ___xxtofl
                           _initMain
 ---------------------------------------------------------------------------------
 (1) _initMain                                             1     1      0      22
                                              3 COMMON     1     1      0
                   _ADC_ConfigurePin
                        _internal_32
 ---------------------------------------------------------------------------------
 (2) _internal_32                                          0     0      0       0
 ---------------------------------------------------------------------------------
 (2) _ADC_ConfigurePin                                     3     3      0      22
                                              0 COMMON     3     3      0
 ---------------------------------------------------------------------------------
 (1) ___xxtofl                                            14    10      4     398
                                              0 COMMON    14    10      4
 ---------------------------------------------------------------------------------
 (1) ___fltol                                             10     6      4     305
                                              0 COMMON    10     6      4
 ---------------------------------------------------------------------------------
 (1) ___flmul                                             26    18      8    2569
                                              8 BANK0     26    18      8
                          __Umul8_16
                            ___fladd (ARG)
                           ___xxtofl (ARG)
 ---------------------------------------------------------------------------------
 (2) __Umul8_16                                            9     7      2     799
                                              0 COMMON     9     7      2
 ---------------------------------------------------------------------------------
 (1) ___fldiv                                             26    18      8    1273
                                             34 BANK0     26    18      8
                            ___flmul (ARG)
                           ___xxtofl (ARG)
 ---------------------------------------------------------------------------------
 (1) ___fladd                                             20    12      8    2262
                                              0 COMMON    12     4      8
                                              0 BANK0      8     8      0
 ---------------------------------------------------------------------------------
 (1) _OLED_SetOrientation                                  3     3      0    3038
                                              7 COMMON     3     3      0
                       _OLED_Command
 ---------------------------------------------------------------------------------
 (1) _OLED_Printf_Line                                   118   114      4   14429
                                              6 BANK0     74    70      4
                                              0 BANK1     44    44      0
                    _OLED_UpdateLine
                            ___aldiv
                            ___almod
                            ___awdiv
                            ___awmod
                            ___fltol (ARG)
                            ___lldiv
                            ___llmod
                            ___lwdiv
                            ___lwmod
                             _memcpy
                             _memset
                             _strcmp
                             _strcpy
 ---------------------------------------------------------------------------------
 (2) _strcpy                                               7     4      3     225
                                              0 COMMON     7     4      3
 ---------------------------------------------------------------------------------
 (2) _strcmp                                               4     2      2     221
                                              0 COMMON     4     2      2
 ---------------------------------------------------------------------------------
 (2) _memcpy                                              11     5      6     371
                                              0 COMMON    11     5      6
 ---------------------------------------------------------------------------------
 (2) ___lwmod                                              6     2      4     311
                                              0 COMMON     6     2      4
 ---------------------------------------------------------------------------------
 (2) ___lwdiv                                              8     4      4     314
                                              0 COMMON     8     4      4
 ---------------------------------------------------------------------------------
 (2) ___llmod                                             10     2      8     311
                                              0 COMMON    10     2      8
 ---------------------------------------------------------------------------------
 (2) ___awmod                                              7     3      4     448
                                              0 COMMON     7     3      4
 ---------------------------------------------------------------------------------
 (2) ___awdiv                                              9     5      4     604
                                              0 COMMON     9     5      4
 ---------------------------------------------------------------------------------
 (2) ___almod                                             11     3      8     448
                                              0 COMMON    11     3      8
 ---------------------------------------------------------------------------------
 (2) ___aldiv                                             15     7      8     452
                                              0 COMMON     9     1      8
                                              0 BANK0      6     6      0
 ---------------------------------------------------------------------------------
 (2) _OLED_UpdateLine                                      7     7      0    7135
                                             12 COMMON     1     1      0
                                              0 BANK0      6     6      0
                     _OLED_WriteData
                            _OLED_YX
 ---------------------------------------------------------------------------------
 (1) _OLED_Init                                            1     1      0   10749
                                             13 COMMON     1     1      0
                         _OLED_Clear
                       _OLED_Command
 ---------------------------------------------------------------------------------
 (2) _OLED_Clear                                           7     7      0    7733
                                             12 COMMON     1     1      0
                                              0 BANK0      6     6      0
                     _OLED_WriteData
                            _OLED_YX
                             _memset
 ---------------------------------------------------------------------------------
 (2) _memset                                               8     2      6     552
                                              0 COMMON     8     2      6
 ---------------------------------------------------------------------------------
 (3) _OLED_YX                                              4     3      1    3333
                                              7 COMMON     4     3      1
                       _OLED_Command
 ---------------------------------------------------------------------------------
 (2) _OLED_Command                                         2     2      0    3016
                                              5 COMMON     2     2      0
                          _I2C_Start
                           _I2C_Stop
                      _I2C_WriteByte
                      _SSD1306_CtrlW
 ---------------------------------------------------------------------------------
 (3) _OLED_WriteData                                       7     3      4    3736
                                              5 COMMON     7     3      4
                          _I2C_Start
                           _I2C_Stop
                      _I2C_WriteByte
                      _SSD1306_CtrlW
 ---------------------------------------------------------------------------------
 (3) _SSD1306_CtrlW                                        0     0      0       0
 ---------------------------------------------------------------------------------
 (3) _I2C_WriteByte                                        2     2      0     992
                                              3 COMMON     2     2      0
                         _I2C_WaitIF
                       _I2C_WaitIdle
 ---------------------------------------------------------------------------------
 (3) _I2C_Stop                                             1     1      0     938
                                              3 COMMON     1     1      0
                         _I2C_WaitIF
                       _I2C_WaitIdle
 ---------------------------------------------------------------------------------
 (3) _I2C_Start                                            1     1      0     970
                                              3 COMMON     1     1      0
                         _I2C_WaitIF
                       _I2C_WaitIdle
 ---------------------------------------------------------------------------------
 (4) _I2C_WaitIdle                                         3     1      2     402
                                              0 COMMON     3     1      2
 ---------------------------------------------------------------------------------
 (4) _I2C_WaitIF                                           3     1      2     478
                                              0 COMMON     3     1      2
 ---------------------------------------------------------------------------------
 (1) _I2C_Init                                             1     1      0       0
                                              0 COMMON     1     1      0
                    _I2C_ClearErrors
 ---------------------------------------------------------------------------------
 (2) _I2C_ClearErrors                                      0     0      0       0
 ---------------------------------------------------------------------------------
 (1) _ADC_Read_Averaged                                   12    10      2     700
                                              0 BANK0     12    10      2
                            ___lldiv
 ---------------------------------------------------------------------------------
 (2) ___lldiv                                             14     6      8     466
                                              0 COMMON    14     6      8
 ---------------------------------------------------------------------------------
 (1) _ADC_Init                                             0     0      0       0
 ---------------------------------------------------------------------------------
 Estimated maximum stack depth 4
 ---------------------------------------------------------------------------------

 Call Graph Graphs:

 _main (ROOT)
   _ADC_Init
   _ADC_Read_Averaged
     ___lldiv
   _I2C_Init
     _I2C_ClearErrors
   _OLED_Clear
     _OLED_WriteData
       _I2C_Start
         _I2C_WaitIF
         _I2C_WaitIdle
       _I2C_Stop
         _I2C_WaitIF
         _I2C_WaitIdle
       _I2C_WriteByte
         _I2C_WaitIF
         _I2C_WaitIdle
       _SSD1306_CtrlW
     _OLED_YX
       _OLED_Command
         _I2C_Start
         _I2C_Stop
         _I2C_WriteByte
         _SSD1306_CtrlW
     _memset
   _OLED_Init
     _OLED_Clear
     _OLED_Command
   _OLED_Printf_Line
     _OLED_UpdateLine
       _OLED_WriteData
       _OLED_YX
     ___aldiv
     ___almod
     ___awdiv
     ___awmod
     ___fltol (ARG)
     ___lldiv (ARG)
     ___llmod (ARG)
     ___lwdiv (ARG)
     ___lwmod (ARG)
     _memcpy (ARG)
     _memset (ARG)
     _strcmp (ARG)
     _strcpy (ARG)
   _OLED_SetOrientation
     _OLED_Command
   ___fladd
   ___fldiv
     ___flmul (ARG)
       __Umul8_16
       ___fladd (ARG)
       ___xxtofl (ARG)
     ___xxtofl (ARG)
   ___flmul
   ___fltol
   ___xxtofl
   _initMain
     _ADC_ConfigurePin
     _internal_32

 Address spaces:
Name               Size   Autos  Total    Cost      Usage
BIGRAM             7F0      0       0       0        0.0%
NULL                 0      0       0       0        0.0%
CODE                 0      0       0       0        0.0%
BITCOMMON            E      0       0       1        0.0%
BITSFR0              0      0       0       1        0.0%
SFR0                 0      0       0       1        0.0%
COMMON               E      E       E       2      100.0%
BITSFR1              0      0       0       2        0.0%
SFR1                 0      0       0       2        0.0%
BITSFR2              0      0       0       3        0.0%
SFR2                 0      0       0       3        0.0%
STACK                0      0       0       3        0.0%
BITBANK0            50      0       0       4        0.0%
BITSFR3              0      0       0       4        0.0%
SFR3                 0      0       0       4        0.0%
BANK0               50     50      50       5      100.0%
BITSFR4              0      0       0       5        0.0%
SFR4                 0      0       0       5        0.0%
BITBANK1            50      0       0       6        0.0%
BITSFR5              0      0       0       6        0.0%
SFR5                 0      0       0       6        0.0%
BANK1               50     38      38       7       70.0%
BITSFR6              0      0       0       7        0.0%
SFR6                 0      0       0       7        0.0%
BITBANK2            50      0       0       8        0.0%
BITSFR7              0      0       0       8        0.0%
SFR7                 0      0       0       8        0.0%
BANK2               50      0       0       9        0.0%
BITSFR8              0      0       0       9        0.0%
SFR8                 0      0       0       9        0.0%
BITBANK3            50      0       0      10        0.0%
BITSFR9              0      0       0      10        0.0%
SFR9                 0      0       0      10        0.0%
BANK3               50      0       0      11        0.0%
BITSFR10             0      0       0      11        0.0%
SFR10                0      0       0      11        0.0%
BITBANK4            50      0       0      12        0.0%
BITSFR11             0      0       0      12        0.0%
SFR11                0      0       0      12        0.0%
BANK4               50      0       0      13        0.0%
BITSFR12             0      0       0      13        0.0%
SFR12                0      0       0      13        0.0%
BITSFR13             0      0       0      14        0.0%
SFR13                0      0       0      14        0.0%
ABS                  0      0       0      14        0.0%
BITBANK5            50      0       0      15        0.0%
BITSFR14             0      0       0      15        0.0%
SFR14                0      0       0      15        0.0%
BANK5               50      0       0      16        0.0%
BITSFR15             0      0       0      16        0.0%
SFR15                0      0       0      16        0.0%
BITBANK6            50      0       0      17        0.0%
BITSFR16             0      0       0      17        0.0%
SFR16                0      0       0      17        0.0%
BANK6               50      0       0      18        0.0%
BITSFR17             0      0       0      18        0.0%
SFR17                0      0       0      18        0.0%
BITBANK7            50      0       0      19        0.0%
BITSFR18             0      0       0      19        0.0%
SFR18                0      0       0      19        0.0%
BANK7               50      0       0      20        0.0%
BITSFR19             0      0       0      20        0.0%
SFR19                0      0       0      20        0.0%
BITBANK8            50      0       0      21        0.0%
BITSFR20             0      0       0      21        0.0%
SFR20                0      0       0      21        0.0%
BANK8               50      0       0      22        0.0%
BITSFR21             0      0       0      22        0.0%
SFR21                0      0       0      22        0.0%
BITBANK9            50      0       0      23        0.0%
BITSFR22             0      0       0      23        0.0%
SFR22                0      0       0      23        0.0%
BANK9               50      0       0      24        0.0%
BITSFR23             0      0       0      24        0.0%
SFR23                0      0       0      24        0.0%
BITBANK10           50      0       0      25        0.0%
BITSFR24             0      0       0      25        0.0%
SFR24                0      0       0      25        0.0%
BANK10              50      0       0      26        0.0%
BITSFR25             0      0       0      26        0.0%
SFR25                0      0       0      26        0.0%
BITBANK11           50      0       0      27        0.0%
BITSFR26             0      0       0      27        0.0%
SFR26                0      0       0      27        0.0%
BITSFR27             0      0       0      28        0.0%
SFR27                0      0       0      28        0.0%
DATA                 0      0       0      28        0.0%
BANK11              50      0       0      29        0.0%
BITSFR28             0      0       0      29        0.0%
SFR28                0      0       0      29        0.0%
BITBANK12           50      0       0      30        0.0%
BITSFR29             0      0       0      30        0.0%
SFR29                0      0       0      30        0.0%
BANK12              50      0       0      31        0.0%
BITSFR30             0      0       0      31        0.0%
SFR30                0      0       0      31        0.0%
BITBANK13           50      0       0      32        0.0%
BITSFR31             0      0       0      32        0.0%
SFR31                0      0       0      32        0.0%
BANK13              50      0       0      33        0.0%
BITBANK14           50      0       0      34        0.0%
BANK14              50      0       0      35        0.0%
BITBANK15           50      0       0      36        0.0%
BANK15              40      0       0      37        0.0%
BITBANK16           50      0       0      38        0.0%
BANK16               0      0       0      39        0.0%
BITBANK17           50      0       0      40        0.0%
BANK17               0      0       0      41        0.0%
BITBANK18           50      0       0      42        0.0%
BANK18               0      0       0      43        0.0%
BITBANK19           50      0       0      44        0.0%
BANK19               0      0       0      45        0.0%
BITBANK20           50      0       0      46        0.0%
BANK20               0      0       0      47        0.0%
BITBANK21           50      0       0      48        0.0%
BANK21               0      0       0      49        0.0%
BITBANK22           50      0       0      50        0.0%
BANK22               0      0       0      51        0.0%
BITBANK23           50      0       0      52        0.0%
BANK23               0      0       0      53        0.0%
BITBANK24           50      0       0      54        0.0%
BANK24               0      0       0      55        0.0%
BITBANK25           20      0       0      56        0.0%
BANK25               0      0       0      57        0.0%


Microchip Technology PIC Macro Assembler V2.46 build 20240104201356 
Symbol Table                                                                                   Fri Dec 26 02:42:36 2025

               ___fldiv@aexp 005B                 ___fldiv@bexp 005A                 ___fldiv@sign 0053  
           _ADC_ConfigurePin 164A                  _SSPSTATbits 0214                           l32 11CA  
                         l41 12AB                           l26 1203                           l35 1197  
                         l28 121F                           l60 136D                           l45 0015  
                         l61 138E                           l46 002A                           l62 1380  
                         l47 0027                           l55 1250                           l63 1388  
                         l56 1264                           l57 1262                 ___awdiv@sign 0076  
        __Umul8_16@word_mpld 0076    OLED_Printf_Line@last_text 26F0                          l201 135C  
                        l130 164C                          l211 1532                          l140 1679  
                        l132 1651                          l141 167E                          l133 1656  
                        l150 16CF                          l230 17FF                          l134 165B  
                        l142 16AE                          l207 153D                          l135 1660  
                        l224 140B                          l136 1665                          l145 11AA  
                        l137 166A                          l138 166F                          l155 171B  
                        l227 1241                          l235 14ED                          l139 1674  
                        l163 00E8                          l149 16CD                          l262 07F1  
                        l158 14A0                          l239 1301                          l520 0BCD  
                        l530 0C49                          l197 0005                          l533 0B51  
                        l621 1590                          l543 0BB9                          l608 1649  
                        l369 11A0                          l491 15EA                          l812 0C9B  
                        l814 0DF3                          l910 00AC                          l902 0086  
                        l735 13CA                          l760 0EC7                          l656 1776  
                        l745 0B3E                          l833 0DC5                          l649 178B  
                        l762 0EA5                          l834 0DDF                          l923 1201  
                        l931 132E                          l659 178B                          l756 0E49  
                        l836 0DEC                          l828 0D79                          l852 03D8  
                        l685 1455                          l917 12D5                          l781 0F7B  
                        l909 00A0                          l790 0FD5                          l871 1277  
                        l864 03CC                          l937 11E5                          l777 0F59  
                        l769 0FFF                          l873 1287                          l858 0358  
                        l787 0F9D                          l798 0FF8                          l799 0FFF  
                        l896 004D                          l898 00D4                 ___awmod@sign 0076  
                        wreg 0009                 ___flmul@aexp 003A                 ___flmul@bexp 003B  
               ___flmul@sign 0035                 ___flmul@temp 0040                 ___flmul@prod 003C  
               ___fltol@exp1 0079                         l3001 1577                         l3003 157C  
                       l3101 11BF                         l3005 1582                         l3021 1426  
                       l3013 140C                         l3111 16B1                         l3103 11C2  
                       l3007 1587                         l3023 1438                         l3015 1414  
                       l3105 11A1                         l3121 16D3                         l3113 16B9  
                       l3201 17B4                         l3009 158C                         l3025 1440  
                       l3017 1417                         l3041 139F                         l3033 138F  
                       l4001 03C9                         l3107 11A6                         l3123 16EF  
                       l3115 16C5                         l3211 17C8                         l3203 17B8  
                       l3027 1447                         l3019 1422                         l3051 13BB  
                       l3043 13A3                         l3035 1391                         l4003 03CA  
                       l4011 0031                         l3109 11A7                         l3125 16F3  
                       l3117 16C6                         l3221 17DC                         l3213 17CC  
                       l3205 17BC                         l3029 144D                         l3053 13C0  
                       l3045 13A7                         l3037 1397                         l3061 0B11  
                       l3301 047A                         l4005 03D0                         l4021 005E  
                       l4013 0035                         l3141 1465                         l3133 1456  
                       l4101 00DE                         l3127 16F8                         l3119 16CA  
                       l3231 17F0                         l3223 17E0                         l3215 17D0  
                       l3207 17C0                         l3047 13B6                         l3039 139A  
                       l3055 13C6                         l3071 0B2B                         l3063 0B14  
                       l3311 04AC                         l3303 0485                         l4031 007F  
                       l4023 0061                         l4015 0045                         l3151 146D  
                       l3143 1466                         l3135 1459                         l4103 00E2  
                       l3129 16FE                         l3233 17F4                         l3225 17E4  
                       l3217 17D4                         l3209 17C4                         l3049 13BA  
                       l3073 0B2F                         l3065 0B19                         l3401 062C  
                       l3321 04E6                         l3313 04C8                         l3305 048B  
                       l3241 13D1                         l3081 1266                         l4041 00AE  
                       l4033 008D                         l4025 006C                         l4017 0055  
                       l4009 002C                         l3161 147F                         l3153 146F  
                       l3145 1467                         l3137 1461                         l4105 0174  
                       l2603 1288                         l3235 17F8                         l3227 17E8  
                       l3219 17D8                         l3075 0B34                         l3067 0B1D  
                       l3059 0B0B                         l3411 064D                         l3403 0634  
                       l3331 050D                         l3315 04D0                         l3307 048C  
                       l3323 04EE                         l3243 13DA                         l3251 13F5  
                       l3091 1283                         l3083 1268                         l4043 00C2  
                       l4035 0096                         l4027 0073                         l3171 1492  
                       l3163 1484                         l3155 1470                         l3147 1469  
                       l3139 1463                         l4107 018E                         l2613 1296  
                       l2605 1289                         l2621 0006                         l2701 134F  
                       l3237 17FC                         l3229 17EC                         l3069 0B21  
                       l3077 0B3A                         l3421 0672                         l3413 0655  
                       l3405 063C                         l3341 053E                         l3333 0512  
                       l3325 04F8                         l3317 04D7                         l3309 04A6  
                       l3261 03EC                         l3245 13E3                         l3085 126F  
                       l3501 1725                         l4045 00C7                         l4037 009A  
                       l4029 0077                         l3181 149C                         l3173 1493  
                       l3165 1488                         l3157 1475                         l3149 146A  
                       l3095 11B7                         l2607 1290                         l2615 129E  
                       l2631 0021                         l2623 000E                         l2711 14EE  
                       l3191 17A0                         l3183 178C                         l3431 0695  
                       l3423 0679                         l3415 065E                         l3407 0641  
                       l3351 0578                         l3343 0544                         l3335 0518  
                       l3327 0503                         l3319 04E0                         l3271 040B  
                       l3263 03EF                         l3247 13EC                         l3239 13CC  
                       l3087 1273                         l3511 1748                         l4047 00CB  
                       l4039 00A4                         l4215 168B                         l3175 1498  
                       l3167 148D                         l3159 147A                         l3097 11BC  
                       l2617 12AA                         l2609 1294                         l2625 0013  
                       l2641 1242                         l2721 14FF                         l3193 17A4  
                       l3185 1794                         l3433 069E                         l3425 0681  
                       l3417 0664                         l3409 0647                         l3361 059C  
                       l3353 057E                         l3345 0560                         l3337 0523  
                       l3329 0509                         l3281 0420                         l3273 040F  
                       l3265 03F9                         l3257 03DB                         l4217 13FD  
                       l3601 0E6A                         l3089 127E                         l3521 1756  
                       l3513 174A                         l3505 172E                         l4049 00CC  
                       l3177 1499                         l3169 1490                         l3099 11BD  
                       l2643 124A                         l2731 1514                         l2723 1506  
                       l2715 14F5                         l2707 1355                         l3195 17A8  
                       l3187 1798                         l2803 12DE                         l2811 130C  
                       l3443 06B9                         l3435 06A6                         l3427 0687  
                       l3419 066D                         l3371 05BD                         l3363 05A5  
                       l3347 0568                         l3339 0524                         l3355 0586  
                       l3291 0455                         l3283 0432                         l3275 0414  
                       l3267 03FE                         l3451 06CE                         l3611 0E74  
                       l3603 0E6C                         l3531 177B                         l3515 174E  
                       l3523 1766                         l3507 173F                         l3179 149A  
                       l2637 0029                         l2629 0019                         l2661 136F  
                       l2653 135E                         l2741 1528                         l2725 150B  
                       l2717 14F9                         l3197 17AC                         l3189 179C  
                       l2805 12E3                         l2901 0B40                         l2813 1319  
                       l2821 11CF                         l3445 06BE                         l3437 06AC  
                       l3429 068D                         l3381 05EC                         l3373 05BE  
                       l3357 058B                         l3349 056F                         l3365 05AB  
                       l3453 06E9                         l3293 045E                         l3285 0438  
                       l3277 041A                         l3269 0405                         l3461 0701  
                       l3701 0FA2                         l3621 0EAD                         l3605 0E6E  
                       l3613 0E76                         l3541 0DFD                         l3533 1780  
                       l3509 1740                         l2591 1208                         l2647 1254  
                       l2671 1385                         l2663 1372                         l2655 1366  
                       l3199 17B0                         l2911 0B6B                         l2903 0B44  
                       l2831 12C5                         l2823 12AC                         l2815 1321  
                       l2807 1303                         l3471 0738                         l3463 070A  
                       l3447 06C4                         l3439 06B3                         l3391 0612  
                       l3383 05F3                         l3375 05D0                         l3367 05B0  
                       l3359 0591                         l3295 0464                         l3287 0448  
                       l3279 041F                         l3455 06EE                         l3711 0FDA  
                       l3703 0FA7                         l3623 0EAF                         l3631 0EC1  
                       l3615 0E77                         l3607 0E70                         l3551 0E11  
                       l3543 0DFE                         l3535 0DF4                         l4095 00D5  
                       l2841 15AF                         l2649 125C                         l2673 1386  
                       l2665 137A                         l2657 136B                         l2681 0004  
                       l2737 151A                         l2729 150F                         l2753 1221  
                       l2761 11E6                         l2921 0B9B                         l2913 0B76  
                       l2905 0B55                         l2825 12B5                         l2833 12C9  
                       l2809 1304                         l3481 077A                         l3473 0751  
                       l3465 0712                         l3457 06F7                         l3393 0617  
                       l3385 05FC                         l3377 05D6                         l3369 05B7  
                       l3297 046C                         l3289 044E                         l3721 0FF1  
                       l3713 0FDF                         l3705 0FAF                         l3641 0EE1  
                       l3633 0ECB                         l3625 0EB3                         l3617 0E8F  
                       l3609 0E72                         l3561 0E25                         l3545 0E03  
                       l3553 0E13                         l3537 0DF7                         l3801 0D0C  
                       l3529 176D                         l4097 00D8                         l2851 15D5  
                       l2843 15B3                         l2835 1591                         l2595 120A  
                       l2747 152E                         l2739 151D                         l2691 133A  
                       l2755 122A                         l2763 11EB                         l2915 0B7A  
                       l2923 0BA1                         l2907 0B60                         l2931 15EB  
                       l2827 12BB                         l2819 11CB                         l3491 07C9  
                       l3483 0780                         l3475 076F                         l3467 0716  
                       l3459 06FB                         l3395 0618                         l3387 0602  
                       l3379 05E6                         l3299 0470                         l3723 0FF3  
                       l3715 0FE7                         l3707 0FB3                         l3651 0EF3  
                       l3643 0EE5                         l3635 0ED0                         l3627 0EB4  
                       l3619 0EA9                         l3571 0E36                         l3563 0E27  
                       l3555 0E1B                         l3547 0E08                         l3539 0DF9  
                       l3803 0D13                         l3811 0D32                         l3731 0C4E  
                       l2771 164B                         l4099 00DB                         l2853 15DC  
                       l2845 15BA                         l2837 15A1                         l2597 1212  
                       l2589 1202                         l2677 1389                         l2693 1341  
                       l2685 1330                         l2757 1230                         l2765 11F1  
                       l2861 0BBC                         l2925 0BA6                         l2917 0B8C  
                       l2909 0B68                         l2941 15FB                         l2933 15EC  
                       l2829 12BF                         l3485 0786                         l3493 07CF  
                       l3477 0771                         l3397 061D                         l3389 060A  
                       l3725 0FFA                         l3717 0FEC                         l3709 0FD1  
                       l3661 0F3D                         l3653 0EF4                         l3645 0EE9  
                       l3629 0EBD                         l3581 0E53                         l3573 0E3E  
                       l3565 0E2B                         l3557 0E1E                         l3549 0E10  
                       l3821 0D4D                         l3813 0D38                         l3805 0D25  
                       l3741 0C5F                         l3733 0C50                         l3901 01E3  
                       l2781 1198                         l2847 15CC                         l2839 15A4  
                       l2855 15E2                         l2599 121E                         l2695 1346  
                       l2687 1334                         l2759 1235                         l2767 11F5  
                       l2791 14BF                         l2783 14A1                         l2871 0BE8  
                       l2863 0BC0                         l2927 0BB1                         l2919 0B94  
                       l2951 160F                         l2943 1600                         l2935 15F0  
                       l3495 07D7                         l3487 0788                         l3479 0774  
                       l3399 0623                         l3727 0FFE                         l3719 0FED  
                       l3671 0F66                         l3663 0F43                         l3655 0EFD  
                       l3647 0EED                         l3639 0ED9                         l3591 0E60  
                       l3583 0E58                         l3575 0E3F                         l3567 0E2C  
                       l3559 0E24                         l3831 0D5E                         l3823 0D4E  
                       l3815 0D40                         l3807 0D26                         l3751 0C77  
                       l3743 0C67                         l3735 0C54                         l3903 01E5  
                       l2775 1683                         l2849 15D4                         l2769 1191  
                       l2793 14C4                         l2881 0C09                         l2873 0BF0  
                       l2865 0BD1                         l2961 162F                         l2953 1614  
                       l2945 1604                         l2937 15F5                         l3497 07EC  
                       l3489 07C3                         l3681 0F7F                         l3665 0F48  
                       l3649 0EEF                         l3657 0F02                         l3593 0E62  
                       l3585 0E5A                         l3569 0E31                         l3577 0E41  
                       l3841 0D83                         l3833 0D62                         l3825 0D55  
                       l3817 0D42                         l3809 0D2E                         l3761 0C88  
                       l3753 0C79                         l3745 0C68                         l3737 0C55  
                       l3729 0C4A                         l3921 023D                         l3913 0200  
                       l3905 01ED                         l2699 134A                         l2795 14E2  
                       l2883 0C1B                         l2875 0BF3                         l2891 0C31  
                       l2867 0BDC                         l2859 0BBA                         l2971 1645  
                       l2963 1630                         l2955 1618                         l2947 1606  
                       l2939 15F7                         l3683 0F82                         l3675 0F6F  
                       l3659 0F19                         l3667 0F51                         l3691 0F8F  
                       l3595 0E64                         l3587 0E5C                         l3579 0E4F  
                       l3851 0DB8                         l3843 0D8B                         l3835 0D76  
                       l3819 0D49                         l3827 0D59                         l3771 0CAF  
                       l3763 0C90                         l3755 0C7D                         l3739 0C5A  
                       l3747 0C6A                         l3931 0281                         l3923 0255  
                       l3915 020B                         l3907 01F2                         l3499 171C  
                       l2797 14E7                         l2789 14A2                         l2893 0C36  
                       l2885 0C23                         l2877 0BFE                         l2869 0BE0  
                       l2965 1635                         l2957 161C                         l2949 160C  
                       l2981 1548                         l3693 0F90                         l3685 0F84  
                       l3677 0F76                         l3669 0F61                         l3597 0E66  
                       l3589 0E5E                         l3861 0DE6                         l3853 0DD3  
                       l3845 0D8F                         l3829 0D5D                         l3773 0CB3  
                       l3765 0C91                         l3757 0C7E                         l3749 0C72  
                       l3941 02B3                         l3933 0288                         l3925 0262  
                       l3917 0218                         l3909 01F7                         l2799 12D7  
                       l2895 0C41                         l2887 0C24                         l2879 0C02  
                       l2959 162B                         l2967 163B                         l2991 155C  
                       l2983 154A                         l2975 153E                         l3695 0F94  
                       l3687 0F89                         l3679 0F7A                         l3599 0E68  
                       l3863 0DE8                         l3855 0DD6                         l3847 0DA7  
                       l3839 0D7E                         l3791 0CF2                         l3783 0CCA  
                       l3759 0C83                         l3767 0C93                         l3951 030E  
                       l3943 02C5                         l3935 0293                         l3927 026F  
                       l3919 0230                         l3871 01A2                         l2889 0C2B  
                       l2969 1640                         l2993 1561                         l2985 154E  
                       l2977 153F                         l3697 0F9A                         l3689 0F8B  
                       l3857 0DDE                         l3849 0DAB                         l3793 0CF4  
                       l3785 0CDA                         l3769 0CA3                         l3777 0CBC  
                       l3961 032D                         l3953 0315                         l3945 02D0  
                       l3937 029A                         l3929 0276                         l3881 01B3  
                       l3873 01A4                         l2899 0B3F                         l2995 1565  
                       l2987 1553                         l2979 1543                         l3859 0DE2  
                       l3795 0CF9                         l3787 0CE2                         l3779 0CC1  
                       l3971 0341                         l3963 0334                         l3955 0321  
                       l3947 02E2                         l3939 02AC                         l3891 01CC  
                       l3883 01BB                         l3875 01A8                         l2997 1569  
                       l2989 1559                         l3797 0D07                         l3789 0CEA  
                       l3981 036A                         l3973 0355                         l3957 0328  
                       l3965 0338                         l3949 02F7                         l3893 01D0  
                       l3885 01BD                         l3877 01A9                         l3869 019E  
                       l2999 1573                         l3799 0D0B                         l3991 03A1  
                       l3983 036E                         l3967 033C                         l3959 032C  
                       l3895 01D1                         l3887 01C5                         l3879 01AE  
                       l3993 03AF                         l3985 0386                         l3977 035D  
                       l3969 033D                         l3897 01D6                         l3889 01CA  
                       l3995 03B8                         l3979 0362                         l3987 038A  
                       l3899 01DB                         l3997 03BA                         l3989 0397  
                       l3999 03C5                         STR_1 0B00              __end_of_OLED_YX 1242  
                ?_OLED_Clear 0070                         u3000 1339                         u3001 1338  
                       u3010 1346                         u3011 1345                         u3020 1354  
                       u3021 1353                         u3030 14F4                         u3110 1201  
                       u3031 14F3                         u3111 1200                         u3040 14FE  
                       u3200 12D5                         u4000 04ED                         u3041 14FD  
                       u3105 1238                         u3201 12D4                         u4001 04EC  
                       u3210 15A1                         u3050 150B                         u4010 04F8  
                       u3211 15A0                         u3051 150A                         u4011 04F7  
                       u3060 1519                         u3140 14ED                         u3300 0BF0  
                       u4020 050D                         u3061 1518                         u3141 14EC  
                       u3125 14A7                         u3301 0BEF                         u4021 050C  
                       u3230 15B3                         u3070 152D                         u3150 12DD  
                       u4110 064D                         u4030 0568                         u3231 15B2  
                       u3071 152C                         u3135 14C9                         u3151 12DC  
                       u4111 064C                         u4031 0567                         u3080 153C  
                       u3320 0C02                         u3400 0B68                         u4120 0654  
                       u4040 056E                         u5000 0D62                         u3225 15A5  
                       u3081 153B                         u3321 0C01                         u3401 0B67  
                       u4121 0653                         u4105 0643                         u4041 056D  
                       u5001 0D61                         u3250 15CC                         u3170 1319  
                       u4130 066C                         u4050 0585                         u5010 0D76  
                       u3251 15CB                         u3315 0BF4                         u3171 1318  
                       u4131 066B                         u4051 0584                         u5011 0D75  
                       u3340 0C1B                         u3420 0B7A                         u3180 1321  
                       u4220 0780                         u4140 0695                         u4060 05EC  
                       u5020 0D7D                         u5100 01AE                         u4300 1755  
                       u3245 15B4                         u3085 1538                         u3165 12E8  
                       u3341 0C1A                         u3421 0B79                         u3181 1320  
                       u4221 077F                         u4205 073E                         u4141 0694  
                       u4061 05EB                         u5021 0D7C                         u5101 01AD  
                       u4301 1754                         u3270 15E2                         u3430 0B8C  
                       u3510 161C                         u3190 11E5                         u4230 0786  
                       u4150 069D                         u4070 05F2                         u5030 0D83  
                       u5110 01B3                         u3271 15E1                         u3255 15C8  
                       u3095 1224                         u3335 0C03                         u3431 0B8B  
                       u3415 0B6C                         u3511 161B                         u3191 11E4  
                       u4231 0785                         u4215 0757                         u4151 069C  
                       u4071 05F1                         u5031 0D82                         u5111 01B2  
                       u3360 0C31                         u3280 0BC0                         u4160 070A  
                       u4080 0609                         u4400 0E24                         u5040 0D8F  
                       u5200 0304                         u5120 01D0                         u4320 1765  
                       u3265 15D6                         u3361 0C30                         u3345 0C17  
                       u3281 0BBF                         u3505 1610                         u4161 0709  
                       u4081 0608                         u4401 0E23                         u5041 0D8E  
                       u5121 01CF                         u4321 1764                         u3370 0C36  
                       u3290 0BD1                         u3450 0BA1                         u3530 162B  
                       u3610 1569                         u4250 07D7                         u4170 0712  
                       u4090 0623                         u4410 0E2B                         u5050 0D9D  
                       u5130 01D6                         u4330 176C                         u3371 0C35  
                       u3355 0C25                         u3291 0BD0                         u3451 0BA0  
                       u3435 0B88                         u3531 162A                         u3611 1568  
                       u4251 07D6                         u4171 0711                         u4091 0622  
                       u4411 0E2A                         u5131 01D5                         u4331 176B  
                       u4315 1757                         u2900 1290                         u3460 0BA6  
                       u3380 0B44                         u3620 1573                         u4260 07EC  
                       u4500 0EB3                         u4420 0E31                         u5060 0DB8  
                       u5300 036E                         u5140 01DB                         u2901 128F  
                       u3461 0BA5                         u3445 0B95                         u3381 0B43  
                       u3525 161D                         u3621 1572                         u3605 155D  
                       u4261 07EB                         u4245 0792                         u4501 0EB2  
                       u4421 0E30                         u5061 0DB7                         u5301 036D  
                       u5205 0300                         u5141 01DA                         u2910 1294  
                       u3390 0B55                         u3550 163B                         u3470 15F0  
                       u3710 144D                         u4190 0737                         u4430 0E36  
                       u5070 0DD3                         u5310 037C                         u5230 032C  
                       u5150 01F2                         u4350 177B                         u4270 1725  
                       u2911 1293                         u3391 0B54                         u3551 163A  
                       u3535 1627                         u3471 15EF                         u3711 144C  
                       u4191 0736                         u4431 0E35                         u5071 0DD2  
                       u5055 0D99                         u5231 032B                         u5215 030F  
                       u5151 01F1                         u4351 177A                         u4271 1724  
                       u2920 12AA                         u3560 1640                         u3480 15FB  
                       u3640 1582                         u3720 1397                         u4600 0F48  
                       u4520 0EC7                         u4440 0E4F                         u5080 0DE6  
                       u5320 0397                         u5160 01F7                         u4360 1780  
                       u4280 173B                         u2921 12A9                         u3561 163F  
                       u3545 1631                         u3481 15FA                         u3641 1581  
                       u3625 156F                         u3705 1441                         u3721 1396  
                       u4265 07E8                         u4185 071B                         u4601 0F47  
                       u4521 0EC6                         u4441 0E4E                         u5081 0DE5  
                       u5065 0DB4                         u5321 0396                         u5225 0322  
                       u5161 01F6                         u4361 177F                         u4345 176E  
                       u2930 0013                         u3490 160C                         u3650 1587  
                       u3570 1543                         u3810 0B21                         u4610 0F61  
                       u4530 0ECB                         u4450 0E53                         u4370 0DFD  
                       u5330 03AF                         u5250 033C                         u5090 01A8  
                       u4290 174E                         u5410 008C                         u2931 0012  
                       u3491 160B                         u3651 1586                         u3635 1578  
                       u3571 1542                         u3811 0B20                         u4611 0F60  
                       u4531 0ECA                         u4515 0EB7                         u4451 0E52  
                       u4371 0DFC                         u5075 0DCF                         u5331 03AE  
                       u5315 0378                         u5251 033B                         u5091 01A7  
                       u4291 174D                         u5411 008B                         u3900 16FE  
                       u2940 0026                         u3580 154E                         u3660 1414  
                       u3740 13A7                         u3820 0B2B                         u4700 0FA1  
                       u4620 0F66                         u4540 0ED0                         u4460 0E8F  
                       u4380 0E03                         u5340 03C9                         u5260 0341  
                       u3901 16FD                         u2941 0025                         u3581 154D  
                       u3661 1413                         u3741 13A6                         u3821 0B2A  
                       u3805 0B15                         u4701 0FA0                         u4621 0F65  
                       u4541 0ECF                         u4461 0E8E                         u4381 0E02  
                       u5341 03C8                         u5325 0393                         u5261 0340  
                       u5245 032E                         u4285 1737                         u5405 0080  
                       u2950 124F                         u3590 1559                         u3910 03EB  
                       u4710 0FA7                         u4550 0EE5                         u4470 0E98  
                       u4390 0E08                         u5270 0355                         u5190 02ED  
                       u5430 009A                         u5350 0031                         u2951 124E  
                       u3591 1558                         u3735 139B                         u3911 03EA  
                       u4711 0FA6                         u4551 0EE4                         u4471 0E96  
                       u4391 0E07                         u5335 03AB                         u5271 0354  
                       u5175 0270                         u5431 0099                         u5351 0030  
                       u2880 1208                         u2960 1261                         u3680 1426  
                       u3760 13B6                         u3840 0B3A                         u3920 03F9  
                       u4720 0FB3                         u4640 0F7A                         u4560 0EE9  
                       u4480 0E99                         u4800 0C54                         u5280 035C  
                       u5440 00A0                         u5360 0035                         u2881 1207  
                       u2961 1260                         u3681 1425                         u3761 13B5  
                       u3841 0B39                         u3825 0B27                         u3921 03F8  
                       u4721 0FB2                         u4641 0F79                         u4561 0EE8  
                       u4465 0E8B                         u4801 0C53                         u5281 035B  
                       u5185 029B                         u5441 009F                         u5425 0090  
                       u5361 0034                         u2890 121E                         u2970 136B  
                       u3690 1438                         u3930 040F                         u4730 0FC2  
                       u4650 0F7F                         u4570 0EF3                         u4490 0EA9  
                       u4810 0C5A                         u3850 1273                         u5290 0362  
                       u5450 00A4                         u5370 0055                         u2891 121D  
                       u2971 136A                         u3691 1437                         u3675 1418  
                       u3755 13A8                         u3835 0B30                         u3931 040E  
                       u4651 0F7E                         u4635 0F70                         u4571 0EF2  
                       u4491 0EA8                         u4811 0C59                         u3851 1272  
                       u5291 0361                         u5195 02E9                         u5451 00A3  
                       u5371 0054                         u2980 137F                         u3780 13C6  
                       u3940 044E                         u4740 0FD1                         u4660 0F89  
                       u4820 0C5F                         u5460 00B8                         u2981 137E  
                       u3781 13C5                         u3765 13B2                         u3941 044D  
                       u4741 0FD0                         u4661 0F88                         u4821 0C5E  
                       u2990 1385                         u3790 0B11                         u3950 0454  
                       u4750 0FDA                         u4670 0F8F                         u4590 0F19  
                       u4910 0D0B                         u4830 0C7D                         u3870 1283  
                       u5470 00C7                         u5390 0072                         u2991 1384  
                       u3695 1434                         u3775 13BC                         u3791 0B10  
                       u3951 0453                         u4751 0FD9                         u4735 0FBE  
                       u4671 0F8E                         u4591 0F18                         u4911 0D0A  
                       u4831 0C7C                         u3871 1282                         u5471 00C6  
                       u5391 0071                         u3880 16D3                         u3960 046B  
                       u4760 0FDF                         u4680 0F94                         u4840 0C83  
                       u5480 00CB                         u3881 16D2                         u3961 046A  
                       u4761 0FDE                         u4681 0F93                         u4593 0F15  
                       u4585 0EF7                         u4905 0D01                         u4841 0C82  
                       u3865 1278                         u5481 00CA                         u5465 00B4  
                       u5385 0066                         u3890 16EF                         u3970 047A  
                       u4770 0FEC                         u4690 0F9A                         u4930 0D25  
                       u4850 0C88                         _SCS0 04C8                         u3891 16EE  
                       u3971 0479                         u4771 0FEB                         u4691 0F99  
                       u4931 0D24                         u4851 0C87                         _SCS1 04C9  
                       u3980 04D0                         u4780 0FF1                         u4940 0D38  
                       u4860 0CA3                         u3981 04CF                         u4781 0FF0  
                       u4941 0D37                         u4925 0D0D                         u4861 0CA2  
                       u3990 04D6                         u4790 0FFE                         u4950 0D40  
                       u4870 0CC1                         u3895 16EB                         u5807 16C7  
                       u3991 04D5                         u4791 0FFD                         u4951 0D3F  
                       u4935 0D21                         u4871 0CC0                         u4880 0CF9  
                       u5817 16F0                         u4881 0CF8                         u4970 0D4D  
                       u4971 0D4C                         u5747 0194                         u4965 0D43  
                       u5757 145C                         u4990 0D5D                         u5767 178F  
                       u4991 0D5C                         u4895 0CFA                         u5777 1299  
                       u4985 0D4F                         u5787 120D                         u5797 11C5  
          OLED_Printf_Line@i 00BC            OLED_Printf_Line@p 00B3                         _main 00D5  
           __end_of_I2C_Init 11CB                         fsr0h 0005                         fsr1h 0007  
                       indf0 0000                         fsr0l 0004                         indf1 0001  
                       fsr1l 0006                         btemp 007E             __end_of_I2C_Stop 1265  
           __end_of_ADC_Init 11AB                         start 0002              ___fldiv@new_exp 0054  
                main@voltage 00CE             ??_OLED_WriteData 0079                ___fltol@sign1 0078  
            __end_of___aldiv 0C4A              __end_of___almod 0BBA              __end_of___fladd 1000  
                      ?_main 0070              __end_of___fldiv 0DF4              __end_of___awdiv 164A  
            __end_of___awmod 1591              __end_of___flmul 03D9              __end_of___fltol 178C  
            __end_of___lldiv 15EB              ___awdiv@divisor 0070              __end_of___llmod 1456  
                      _IRCF0 04CB                        _IRCF1 04CC                        _IRCF2 04CD  
                      _IRCF3 04CE              __end_of___lwdiv 13CB              __end_of___lwmod 0B3F  
            ___awdiv@counter 0075           OLED_Printf_Line@ch 00BB           OLED_Printf_Line@ap 00C8  
          ??_OLED_UpdateLine 0020            __end_of_I2C_Start 002B                  _BatteryIcon 1800  
               _I2C_WaitIdle 1288         I2C_WaitIF@timeout_ms 0070                        status 0003  
       OLED_SetOrientation@o 0079                        wtemp0 007E                 ?_internal_32 0070  
            __initialization 07F2                 __end_of_main 019E             __end_of_OledFont 0B00  
                     ??_main 00CC                    ??_OLED_YX 0078             ___llmod@dividend 0074  
                     _ADRESH 009C                       _ADRESL 009B             ___awdiv@dividend 0072  
               ??_I2C_WaitIF 0072            __end_of_OLED_Init 1800                ?_OLED_Command 0070  
                     _SPLLEN 04CF                       _SSPADD 0212                       _SSPBUF 0211  
          ?_OLED_Printf_Line 0026             __end_of___xxtofl 00D5           ??_OLED_Printf_Line 002A  
                  ??___aldiv 0078                    ??___almod 0078                    ??___fladd 0020  
    ADC_ConfigurePin@channel 0072                    ??___fldiv 004A                    ??___awdiv 0074  
                  ??___awmod 0074                    ??___flmul 0030                    ??___fltol 0074  
                  ??___lldiv 0078                    ??___llmod 0078          OLED_Printf_Line@col 00B2  
        OLED_Printf_Line@buf 004C                    ??___lwdiv 0074          OLED_Printf_Line@fmt 0026  
        OLED_Printf_Line@dst 00CB                    ??___lwmod 0074          OLED_Printf_Line@val 00C5  
        OLED_Printf_Line@src 00C9             __end_of_initMain 14A1          OLED_Printf_Line@str 00B1  
                     _memcpy 12AC                       _memset 11E6                  OLED_Clear@p 007C  
           ___awdiv@quotient 0077              ___awmod@divisor 0070              ___awmod@counter 0075  
                OLED_YX@page 0079           __end_of_I2C_WaitIF 1220                       _strcmp 1302  
                     _strcpy 11CB                    ?_I2C_Init 0070                    ?_I2C_Stop 0070  
                  ?_ADC_Init 0070     __end_of_ADC_ConfigurePin 16AF               ??_OLED_Command 0075  
               ___xxtofl@arg 007A                 ___xxtofl@exp 0079              I2C_WriteByte@st 0074  
               ___xxtofl@val 0070      __end_of__initialization 07FD                   ___fltol@f1 0070  
             __pcstackCOMMON 0070                _I2C_WriteByte 135D                   ??_I2C_Init 0070  
                 ??_I2C_Stop 0073                   ??_ADC_Init 0070  __end_of_OLED_SetOrientation 140C  
               ??_OLED_Clear 0020            __end_of__Umul8_16 1288                _SSD1306_CtrlW 0004  
                 __pmaintext 00D5               ?_I2C_WriteByte 0070            _ADC_Read_Averaged 16AF  
         ?_ADC_Read_Averaged 0020                      ?_memcpy 0070                      ?_memset 0070  
                 I2C_Stop@st 0073              _OLED_UpdateLine 12D6           __end_of_OLED_Clear 14EE  
                    ?_strcmp 0070                      ?_strcpy 0070      OLED_Printf_Line@val_701 00B4  
    OLED_Printf_Line@val_710 006E      OLED_Printf_Line@val_704 00C1      OLED_Printf_Line@val_707 00B8  
                  ?___xxtofl 0070          ??_ADC_Read_Averaged 0022                      _OLED_YX 1220  
                    _PPSLOCK 0E0F                      _SSPCON2 0216       I2C_WaitIdle@timeout_ms 0070  
                  ?_initMain 0070                    _I2C_Start 0006               ?_SSD1306_CtrlW 0070  
  __end_of_ADC_Read_Averaged 171C                      ___aldiv 0BBA                      ___almod 0B3F  
                    ___fladd 0DF4                      ___fldiv 0C4A                      ___awdiv 15EB  
                    ___awmod 153E                      ___flmul 019E                      ___fltol 171C  
                    ___lldiv 1591                      ___llmod 140C            ??_I2C_ClearErrors 0070  
                    ___lwdiv 138F                      ___lwmod 0B0B         __end_of_OLED_Command 135D  
                    __ptext1 1456                      __ptext2 1198                      __ptext3 164A  
                    __ptext4 002B                      __ptext5 171C                      __ptext6 019E  
                    __ptext7 1265                      __ptext8 0C4A                      __ptext9 0DF4  
       OLED_Printf_Line@line 00C7         OLED_Printf_Line@temp 00A0                   ??___xxtofl 0074  
           ___awmod@dividend 0072             ___aldiv@dividend 0074                      main@adc 00D6  
                    clrloop0 11AC         end_of_initialization 07FD                      memcpy@d 0076  
                    memcpy@n 0074                      memcpy@s 0078                   ??_initMain 0073  
                    memset@c 0072                      memset@n 0074                      memset@p 0076  
                  _OLED_Init 178C                   ?_I2C_Start 0070            OLED_WriteData@len 0077  
            ??_I2C_WriteByte 0073              ___lldiv@divisor 0070              ___lldiv@counter 007D  
    __end_of_OLED_UpdateLine 1302             ___aldiv@quotient 0022                      strcmp@l 0073  
                    strcmp@r 0070                      strcpy@d 0075          OLED_UpdateLine@page 007C  
                ___fladd@grs 007B                ___xxtofl@sign 0078                    _TRISAbits 008C  
                  _TRISBbits 008D                    _TRISCbits 008E              OLED_YX@col_char 0077  
                ___fldiv@grs 0056                  ___fldiv@rem 004F                    _RXPPSbits 0E24  
          ?_ADC_ConfigurePin 0070              OLED_Command@cmd 0075                  ___flmul@grs 0036  
            ??_SSD1306_CtrlW 0070           ??_ADC_ConfigurePin 0070                   ?_OLED_Init 0070  
             __end_of_memcpy 12D6               __end_of_memset 1202               __end_of_strcmp 132F  
             __end_of_strcpy 11E6          start_initialization 07F2              ___llmod@divisor 0070  
                ??_I2C_Start 0073              ___llmod@counter 0079     ADC_Read_Averaged@channel 0026  
           ?_OLED_UpdateLine 0070                   OLED_YX@col 007A                    __Umul8_16 1265  
   ADC_Read_Averaged@samples 0020                     ??_memcpy 0076                     ??_memset 0076  
                 memset@dest 0070                     ??_strcmp 0072                     ??_strcpy 0073  
                  ___fladd@a 0074                    ___fladd@b 0070                    ___fldiv@a 0042  
                  ___fldiv@b 0046                  __pbssBIGRAM 24F0                    ___flmul@a 002C  
                  ___flmul@b 0028                    ___latbits 0003                     ?_OLED_YX 0077  
              __pcstackBANK0 0020                __pcstackBANK1 00A0                ?_I2C_WaitIdle 0070  
               _OLED_Command 132F              _I2C_ClearErrors 1191                ??_internal_32 0070  
                ??_OLED_Init 007D                _screen_buffer 24F0             ___lwdiv@dividend 0072  
                   ?___aldiv 0070                     ?___almod 0070                     ?___fladd 0070  
                   ?___fldiv 0042                     ?___awdiv 0070                     ?___awmod 0070  
                   ?___flmul 0028                     ?___fltol 0070                     ?___lldiv 0070  
                   ?___llmod 0070                   ?__Umul8_16 0070                     ?___lwdiv 0070  
                   ?___lwmod 0070       OLED_Printf_Line@nibble 00BA             _OLED_Printf_Line 03D9  
           ___almod@dividend 0074                  I2C_Start@st 0073                     _I2C_Init 11B7  
                   _I2C_Stop 1242                     _ADC_Init 11A1               _OLED_WriteData 14EE  
           ___lwdiv@quotient 0075               ??_I2C_WaitIdle 0072              ___aldiv@divisor 0070  
            ___aldiv@counter 0020                    clear_ram0 11AB     OLED_Printf_Line@temp_702 0036  
   OLED_Printf_Line@temp_711 00AC     OLED_Printf_Line@temp_705 0041     OLED_Printf_Line@temp_708 00A6  
           OLED_WriteData@st 007B                     _PIR1bits 0011                     _PIR2bits 0012  
        __end_of_internal_32 11A1                   _ADCON0bits 009D                   _ADCON1bits 009E  
     __end_of_OLED_WriteData 153E               OLED_Command@st 0076                    main@tempC 00D2  
    __end_of_I2C_ClearErrors 1198                   _I2C_WaitIF 1202                     _OledFont 0800  
                  memcpy@tmp 007A        __end_of_I2C_WriteByte 138F                  ??__Umul8_16 0072  
                 _ANSELAbits 018C                   _ANSELBbits 018D                   _ANSELCbits 018E  
            ?_OLED_WriteData 0075                     ___xxtofl 002B        OLED_Printf_Line@i_703 00BD  
      OLED_Printf_Line@i_712 00C0        OLED_Printf_Line@i_706 00BE        OLED_Printf_Line@i_709 00BF  
            ___lwdiv@divisor 0070              ___lwdiv@counter 0077                     __ptext10 13CB  
                   __ptext11 03D9                     __ptext20 0B3F                     __ptext12 11CB  
                   __ptext21 0BBA                     __ptext13 1302                     __ptext30 135D  
                   __ptext22 12D6                     __ptext14 12AC                     __ptext31 1242  
                   __ptext23 178C                     __ptext15 0B0B                     __ptext32 0006  
                   __ptext24 14A1                     __ptext16 138F                     __ptext33 1288  
                   __ptext25 11E6                     __ptext17 140C                     __ptext34 1202  
                   __ptext26 1220                     __ptext18 153E                     __ptext35 11B7  
                   __ptext27 132F                     __ptext19 15EB                     __ptext36 1191  
                   __ptext28 14EE                     __ptext37 16AF                     __ptext29 0004  
                   __ptext38 1591                     __ptext39 11A1              ___almod@divisor 0070  
            ___almod@counter 0079                   strcpy@dest 0070                     _initMain 1456  
              _SSPDATPPSbits 0E21                  _internal_32 1198        __end_of_SSD1306_CtrlW 0006  
                 _RB2PPSbits 0E9A              OLED_WriteData@i 0079                   _RC4PPSbits 0EA4  
              _SSPCLKPPSbits 0E20                   _RC5PPSbits 0EA5         __end_of_I2C_WaitIdle 12AC  
        _OLED_SetOrientation 13CB                     memcpy@d1 0070                     memcpy@s1 0072  
           ?_I2C_ClearErrors 0070                  ?_I2C_WaitIF 0070                   _OLED_Clear 14A1  
       _OLED_Printf_Line$714 006C           OLED_WriteData@data 0075     __end_of_OLED_Printf_Line 07F2  
           ___lwmod@dividend 0072         ?_OLED_SetOrientation 0070             ___lldiv@dividend 0074  
                  strcpy@src 0072                  _PPSLOCKbits 0E0F                __pstringtext1 1800  
              __pstringtext2 0800                __pstringtext3 0000       __Umul8_16@multiplicand 0070  
           ___lldiv@quotient 0079              ___lwmod@divisor 0070              ___lwmod@counter 0075  
               ___aldiv@sign 0021                  _SSPCON1bits 0215                  _SSPCON2bits 0216  
              ___fladd@signs 0078         ADC_Read_Averaged@sum 0027                 ___almod@sign 007A  
      ??_OLED_SetOrientation 0077                 ___fladd@aexp 0079                 ___fladd@bexp 007A  
       __Umul8_16@multiplier 0078            I2C_WriteByte@data 0073                   _SSPCONbits 0215  
         ADC_Read_Averaged@i 002B          __end_of_BatteryIcon 180A            __Umul8_16@product 0074  
