

Microchip MPLAB XC8 Assembler V2.46 build 20240104201356 
                                                                                               Fri Dec 26 02:18:42 2025

Microchip MPLAB XC8 C Compiler v2.46 (Free license) build 20240104201356 Og1 
     1                           	processor	16F1718
     2                           	pagewidth 120
     3                           	opt	flic
     4                           	psect	stringtext1,global,class=STRCODE,delta=2,noexec
     5                           	psect	stringtext2,global,class=STRCODE,delta=2,noexec
     6                           	psect	stringtext3,global,class=STRCODE,delta=2,noexec
     7                           	psect	cinit,global,class=CODE,merge=1,delta=2
     8                           	psect	clrtext,global,class=CODE,delta=2
     9                           	psect	cstackBANK1,global,class=BANK1,space=1,delta=1,noexec
    10                           	psect	cstackCOMMON,global,class=COMMON,space=1,delta=1,noexec
    11                           	psect	cstackBANK0,global,class=BANK0,space=1,delta=1,noexec
    12                           	psect	maintext,global,class=CODE,merge=1,split=1,delta=2
    13                           	psect	text1,local,class=CODE,merge=1,delta=2
    14                           	psect	text2,local,class=CODE,merge=1,delta=2
    15                           	psect	text3,local,class=CODE,merge=1,delta=2
    16                           	psect	text4,local,class=CODE,merge=1,delta=2,group=1
    17                           	psect	text5,local,class=CODE,merge=1,delta=2,group=1
    18                           	psect	text6,local,class=CODE,merge=1,delta=2,group=1
    19                           	psect	text7,local,class=CODE,merge=1,delta=2,group=1
    20                           	psect	text8,local,class=CODE,merge=1,delta=2,group=1
    21                           	psect	text9,local,class=CODE,merge=1,delta=2
    22                           	psect	text10,local,class=CODE,merge=1,delta=2
    23                           	psect	text11,local,class=CODE,merge=1,delta=2,group=2
    24                           	psect	text12,local,class=CODE,merge=1,delta=2,group=2
    25                           	psect	text13,local,class=CODE,merge=1,delta=2,group=2
    26                           	psect	text14,local,class=CODE,merge=1,delta=2,group=1
    27                           	psect	text15,local,class=CODE,merge=1,delta=2,group=1
    28                           	psect	text16,local,class=CODE,merge=1,delta=2,group=1
    29                           	psect	text17,local,class=CODE,merge=1,delta=2,group=1
    30                           	psect	text18,local,class=CODE,merge=1,delta=2,group=1
    31                           	psect	text19,local,class=CODE,merge=1,delta=2,group=1
    32                           	psect	text20,local,class=CODE,merge=1,delta=2,group=1
    33                           	psect	text21,local,class=CODE,merge=1,delta=2
    34                           	psect	text22,local,class=CODE,merge=1,delta=2
    35                           	psect	text23,local,class=CODE,merge=1,delta=2
    36                           	psect	text24,local,class=CODE,merge=1,delta=2,group=2
    37                           	psect	text25,local,class=CODE,merge=1,delta=2
    38                           	psect	text26,local,class=CODE,merge=1,delta=2
    39                           	psect	text27,local,class=CODE,merge=1,delta=2
    40                           	psect	text28,local,class=CODE,merge=1,delta=2
    41                           	psect	text29,local,class=CODE,merge=1,delta=2
    42                           	psect	text30,local,class=CODE,merge=1,delta=2
    43                           	psect	text31,local,class=CODE,merge=1,delta=2
    44                           	psect	text32,local,class=CODE,merge=1,delta=2
    45                           	psect	text33,local,class=CODE,merge=1,delta=2
    46                           	psect	text34,local,class=CODE,merge=1,delta=2
    47                           	psect	text35,local,class=CODE,merge=1,delta=2
    48                           	psect	text36,local,class=CODE,merge=1,delta=2
    49                           	psect	text37,local,class=CODE,merge=1,delta=2,group=1
    50                           	psect	text38,local,class=CODE,merge=1,delta=2
    51                           	psect	config,global,abs,ovrld,class=CONFIG,space=4,delta=2,noexec
    52                           	dabs	1,0xCA0,32
    53                           	dabs	1,0xC20,80
    54                           	dabs	1,0xBA0,80
    55                           	dabs	1,0xB30,64
    56                           	dabs	1,0xB20,16
    57                           	dabs	1,0xAA0,80
    58                           	dabs	1,0xA20,80
    59                           	dabs	1,0x9A0,80
    60                           	dabs	1,0x920,80
    61                           	dabs	1,0x8A0,80
    62                           	dabs	1,0x820,80
    63                           	dabs	1,0x7E0,16
    64                           	dabs	1,0x24F0,0,_screen_buffer
    65                           	dabs	1,0x26F0,0,OLED_Printf_Line@last_text
    66                           	dabs	1,0x7E,2
    67     0000                     
    68                           ; Generated 07/09/2023 GMT
    69                           ; 
    70                           ; Copyright © 2023, Microchip Technology Inc. and its subsidiaries ("Microchip")
    71                           ; All rights reserved.
    72                           ; 
    73                           ; This software is developed by Microchip Technology Inc. and its subsidiaries ("Microch
      +                          ip").
    74                           ; 
    75                           ; Redistribution and use in source and binary forms, with or without modification, are
    76                           ; permitted provided that the following conditions are met:
    77                           ; 
    78                           ;     1. Redistributions of source code must retain the above copyright notice, this lis
      +                          t of
    79                           ;        conditions and the following disclaimer.
    80                           ; 
    81                           ;     2. Redistributions in binary form must reproduce the above copyright notice, this 
      +                          list
    82                           ;        of conditions and the following disclaimer in the documentation and/or other
    83                           ;        materials provided with the distribution. Publication is not required when
    84                           ;        this file is used in an embedded application.
    85                           ; 
    86                           ;     3. Microchip's name may not be used to endorse or promote products derived from th
      +                          is
    87                           ;        software without specific prior written permission.
    88                           ; 
    89                           ; THIS SOFTWARE IS PROVIDED BY MICROCHIP "AS IS" AND ANY EXPRESS OR IMPLIED WARRANTIES,
    90                           ; INCLUDING, BUT NOT LIMITED TO, THE IMPLIED WARRANTIES OF MERCHANTABILITY AND FITNESS F
      +                          OR
    91                           ; PURPOSE ARE DISCLAIMED.  IN NO EVENT SHALL MICROCHIP BE LIABLE FOR ANY DIRECT, INDIREC
      +                          T,
    92                           ; INCIDENTAL, SPECIAL, EXEMPLARY, OR CONSEQUENTIAL DAMAGES (INCLUDING BUT NOT LIMITED TO
    93                           ; PROCUREMENT OF SUBSTITUTE GOODS OR SERVICES; LOSS OF USE, DATA OR PROFITS; OR BUSINESS
    94                           ; INTERRUPTION) HOWSOEVER CAUSED AND ON ANY THEORY OF LIABILITY, WHETHER IN CONTRACT, ST
      +                          RICT
    95                           ; LIABILITY, OR TORT (INCLUDING NEGLIGENCE OR OTHERWISE) ARISING IN ANY WAY OUT OF THE U
      +                          SE OF
    96                           ; THIS SOFTWARE, EVEN IF ADVISED OF THE POSSIBILITY OF SUCH DAMAGE.
    97                           ; 
    98                           ; 
    99                           ; Code-generator required, PIC16F1718 Definitions
   100                           ; 
   101                           ; SFR Addresses
   102     0000                     	;# 
   103     0001                     	;# 
   104     0002                     	;# 
   105     0003                     	;# 
   106     0004                     	;# 
   107     0005                     	;# 
   108     0006                     	;# 
   109     0007                     	;# 
   110     0008                     	;# 
   111     0009                     	;# 
   112     000A                     	;# 
   113     000B                     	;# 
   114     000C                     	;# 
   115     000D                     	;# 
   116     000E                     	;# 
   117     0010                     	;# 
   118     0011                     	;# 
   119     0012                     	;# 
   120     0013                     	;# 
   121     0015                     	;# 
   122     0016                     	;# 
   123     0016                     	;# 
   124     0017                     	;# 
   125     0018                     	;# 
   126     0019                     	;# 
   127     001A                     	;# 
   128     001B                     	;# 
   129     001C                     	;# 
   130     008C                     	;# 
   131     008D                     	;# 
   132     008E                     	;# 
   133     0090                     	;# 
   134     0091                     	;# 
   135     0092                     	;# 
   136     0093                     	;# 
   137     0095                     	;# 
   138     0096                     	;# 
   139     0097                     	;# 
   140     0098                     	;# 
   141     0099                     	;# 
   142     009A                     	;# 
   143     009B                     	;# 
   144     009B                     	;# 
   145     009C                     	;# 
   146     009D                     	;# 
   147     009E                     	;# 
   148     009F                     	;# 
   149     010C                     	;# 
   150     010D                     	;# 
   151     010E                     	;# 
   152     0111                     	;# 
   153     0112                     	;# 
   154     0113                     	;# 
   155     0114                     	;# 
   156     0115                     	;# 
   157     0116                     	;# 
   158     0117                     	;# 
   159     0118                     	;# 
   160     0119                     	;# 
   161     011A                     	;# 
   162     011B                     	;# 
   163     011B                     	;# 
   164     011C                     	;# 
   165     018C                     	;# 
   166     018D                     	;# 
   167     018E                     	;# 
   168     0191                     	;# 
   169     0191                     	;# 
   170     0192                     	;# 
   171     0193                     	;# 
   172     0193                     	;# 
   173     0194                     	;# 
   174     0195                     	;# 
   175     0196                     	;# 
   176     0197                     	;# 
   177     0199                     	;# 
   178     0199                     	;# 
   179     0199                     	;# 
   180     019A                     	;# 
   181     019A                     	;# 
   182     019A                     	;# 
   183     019B                     	;# 
   184     019B                     	;# 
   185     019B                     	;# 
   186     019B                     	;# 
   187     019B                     	;# 
   188     019C                     	;# 
   189     019C                     	;# 
   190     019C                     	;# 
   191     019D                     	;# 
   192     019D                     	;# 
   193     019D                     	;# 
   194     019E                     	;# 
   195     019E                     	;# 
   196     019E                     	;# 
   197     019F                     	;# 
   198     019F                     	;# 
   199     019F                     	;# 
   200     019F                     	;# 
   201     019F                     	;# 
   202     020C                     	;# 
   203     020D                     	;# 
   204     020E                     	;# 
   205     0210                     	;# 
   206     0211                     	;# 
   207     0211                     	;# 
   208     0212                     	;# 
   209     0212                     	;# 
   210     0213                     	;# 
   211     0213                     	;# 
   212     0214                     	;# 
   213     0214                     	;# 
   214     0215                     	;# 
   215     0215                     	;# 
   216     0215                     	;# 
   217     0215                     	;# 
   218     0216                     	;# 
   219     0216                     	;# 
   220     0217                     	;# 
   221     0217                     	;# 
   222     028C                     	;# 
   223     028D                     	;# 
   224     028E                     	;# 
   225     0291                     	;# 
   226     0291                     	;# 
   227     0292                     	;# 
   228     0293                     	;# 
   229     0293                     	;# 
   230     0298                     	;# 
   231     0298                     	;# 
   232     0299                     	;# 
   233     029A                     	;# 
   234     029A                     	;# 
   235     029E                     	;# 
   236     030C                     	;# 
   237     030D                     	;# 
   238     030E                     	;# 
   239     038C                     	;# 
   240     038D                     	;# 
   241     038E                     	;# 
   242     0390                     	;# 
   243     0391                     	;# 
   244     0392                     	;# 
   245     0393                     	;# 
   246     0394                     	;# 
   247     0395                     	;# 
   248     0396                     	;# 
   249     0397                     	;# 
   250     0398                     	;# 
   251     0399                     	;# 
   252     039D                     	;# 
   253     039E                     	;# 
   254     039F                     	;# 
   255     0415                     	;# 
   256     0416                     	;# 
   257     0417                     	;# 
   258     041C                     	;# 
   259     041D                     	;# 
   260     041E                     	;# 
   261     0498                     	;# 
   262     0498                     	;# 
   263     0499                     	;# 
   264     049A                     	;# 
   265     049B                     	;# 
   266     049B                     	;# 
   267     049C                     	;# 
   268     049D                     	;# 
   269     049E                     	;# 
   270     049F                     	;# 
   271     0511                     	;# 
   272     0515                     	;# 
   273     0617                     	;# 
   274     0618                     	;# 
   275     0619                     	;# 
   276     0619                     	;# 
   277     061A                     	;# 
   278     061B                     	;# 
   279     061C                     	;# 
   280     061C                     	;# 
   281     0691                     	;# 
   282     0692                     	;# 
   283     0693                     	;# 
   284     0694                     	;# 
   285     0695                     	;# 
   286     0696                     	;# 
   287     0697                     	;# 
   288     0698                     	;# 
   289     0699                     	;# 
   290     069A                     	;# 
   291     069B                     	;# 
   292     069C                     	;# 
   293     069D                     	;# 
   294     069E                     	;# 
   295     069F                     	;# 
   296     0E0F                     	;# 
   297     0E10                     	;# 
   298     0E11                     	;# 
   299     0E12                     	;# 
   300     0E13                     	;# 
   301     0E14                     	;# 
   302     0E15                     	;# 
   303     0E17                     	;# 
   304     0E20                     	;# 
   305     0E21                     	;# 
   306     0E22                     	;# 
   307     0E24                     	;# 
   308     0E25                     	;# 
   309     0E28                     	;# 
   310     0E29                     	;# 
   311     0E2A                     	;# 
   312     0E2B                     	;# 
   313     0E90                     	;# 
   314     0E91                     	;# 
   315     0E92                     	;# 
   316     0E93                     	;# 
   317     0E94                     	;# 
   318     0E95                     	;# 
   319     0E96                     	;# 
   320     0E97                     	;# 
   321     0E98                     	;# 
   322     0E99                     	;# 
   323     0E9A                     	;# 
   324     0E9B                     	;# 
   325     0E9C                     	;# 
   326     0E9D                     	;# 
   327     0E9E                     	;# 
   328     0E9F                     	;# 
   329     0EA0                     	;# 
   330     0EA1                     	;# 
   331     0EA2                     	;# 
   332     0EA3                     	;# 
   333     0EA4                     	;# 
   334     0EA5                     	;# 
   335     0EA6                     	;# 
   336     0EA7                     	;# 
   337     0F0F                     	;# 
   338     0F10                     	;# 
   339     0F11                     	;# 
   340     0F12                     	;# 
   341     0F13                     	;# 
   342     0F14                     	;# 
   343     0F15                     	;# 
   344     0F16                     	;# 
   345     0F17                     	;# 
   346     0F18                     	;# 
   347     0F19                     	;# 
   348     0F1A                     	;# 
   349     0F1B                     	;# 
   350     0F1C                     	;# 
   351     0F1D                     	;# 
   352     0F1E                     	;# 
   353     0F1F                     	;# 
   354     0F20                     	;# 
   355     0F21                     	;# 
   356     0F22                     	;# 
   357     0F23                     	;# 
   358     0F24                     	;# 
   359     0F25                     	;# 
   360     0F26                     	;# 
   361     0F27                     	;# 
   362     0F28                     	;# 
   363     0F29                     	;# 
   364     0F2A                     	;# 
   365     0F2B                     	;# 
   366     0F2C                     	;# 
   367     0F2D                     	;# 
   368     0F2E                     	;# 
   369     0F2F                     	;# 
   370     0F30                     	;# 
   371     0F31                     	;# 
   372     0F32                     	;# 
   373     0F33                     	;# 
   374     0F34                     	;# 
   375     0F35                     	;# 
   376     0F36                     	;# 
   377     0F37                     	;# 
   378     0FE4                     	;# 
   379     0FE5                     	;# 
   380     0FE6                     	;# 
   381     0FE7                     	;# 
   382     0FE8                     	;# 
   383     0FE9                     	;# 
   384     0FEA                     	;# 
   385     0FEB                     	;# 
   386     0FED                     	;# 
   387     0FEE                     	;# 
   388     0FEF                     	;# 
   389     0000                     	;# 
   390     0001                     	;# 
   391     0002                     	;# 
   392     0003                     	;# 
   393     0004                     	;# 
   394     0005                     	;# 
   395     0006                     	;# 
   396     0007                     	;# 
   397     0008                     	;# 
   398     0009                     	;# 
   399     000A                     	;# 
   400     000B                     	;# 
   401     000C                     	;# 
   402     000D                     	;# 
   403     000E                     	;# 
   404     0010                     	;# 
   405     0011                     	;# 
   406     0012                     	;# 
   407     0013                     	;# 
   408     0015                     	;# 
   409     0016                     	;# 
   410     0016                     	;# 
   411     0017                     	;# 
   412     0018                     	;# 
   413     0019                     	;# 
   414     001A                     	;# 
   415     001B                     	;# 
   416     001C                     	;# 
   417     008C                     	;# 
   418     008D                     	;# 
   419     008E                     	;# 
   420     0090                     	;# 
   421     0091                     	;# 
   422     0092                     	;# 
   423     0093                     	;# 
   424     0095                     	;# 
   425     0096                     	;# 
   426     0097                     	;# 
   427     0098                     	;# 
   428     0099                     	;# 
   429     009A                     	;# 
   430     009B                     	;# 
   431     009B                     	;# 
   432     009C                     	;# 
   433     009D                     	;# 
   434     009E                     	;# 
   435     009F                     	;# 
   436     010C                     	;# 
   437     010D                     	;# 
   438     010E                     	;# 
   439     0111                     	;# 
   440     0112                     	;# 
   441     0113                     	;# 
   442     0114                     	;# 
   443     0115                     	;# 
   444     0116                     	;# 
   445     0117                     	;# 
   446     0118                     	;# 
   447     0119                     	;# 
   448     011A                     	;# 
   449     011B                     	;# 
   450     011B                     	;# 
   451     011C                     	;# 
   452     018C                     	;# 
   453     018D                     	;# 
   454     018E                     	;# 
   455     0191                     	;# 
   456     0191                     	;# 
   457     0192                     	;# 
   458     0193                     	;# 
   459     0193                     	;# 
   460     0194                     	;# 
   461     0195                     	;# 
   462     0196                     	;# 
   463     0197                     	;# 
   464     0199                     	;# 
   465     0199                     	;# 
   466     0199                     	;# 
   467     019A                     	;# 
   468     019A                     	;# 
   469     019A                     	;# 
   470     019B                     	;# 
   471     019B                     	;# 
   472     019B                     	;# 
   473     019B                     	;# 
   474     019B                     	;# 
   475     019C                     	;# 
   476     019C                     	;# 
   477     019C                     	;# 
   478     019D                     	;# 
   479     019D                     	;# 
   480     019D                     	;# 
   481     019E                     	;# 
   482     019E                     	;# 
   483     019E                     	;# 
   484     019F                     	;# 
   485     019F                     	;# 
   486     019F                     	;# 
   487     019F                     	;# 
   488     019F                     	;# 
   489     020C                     	;# 
   490     020D                     	;# 
   491     020E                     	;# 
   492     0210                     	;# 
   493     0211                     	;# 
   494     0211                     	;# 
   495     0212                     	;# 
   496     0212                     	;# 
   497     0213                     	;# 
   498     0213                     	;# 
   499     0214                     	;# 
   500     0214                     	;# 
   501     0215                     	;# 
   502     0215                     	;# 
   503     0215                     	;# 
   504     0215                     	;# 
   505     0216                     	;# 
   506     0216                     	;# 
   507     0217                     	;# 
   508     0217                     	;# 
   509     028C                     	;# 
   510     028D                     	;# 
   511     028E                     	;# 
   512     0291                     	;# 
   513     0291                     	;# 
   514     0292                     	;# 
   515     0293                     	;# 
   516     0293                     	;# 
   517     0298                     	;# 
   518     0298                     	;# 
   519     0299                     	;# 
   520     029A                     	;# 
   521     029A                     	;# 
   522     029E                     	;# 
   523     030C                     	;# 
   524     030D                     	;# 
   525     030E                     	;# 
   526     038C                     	;# 
   527     038D                     	;# 
   528     038E                     	;# 
   529     0390                     	;# 
   530     0391                     	;# 
   531     0392                     	;# 
   532     0393                     	;# 
   533     0394                     	;# 
   534     0395                     	;# 
   535     0396                     	;# 
   536     0397                     	;# 
   537     0398                     	;# 
   538     0399                     	;# 
   539     039D                     	;# 
   540     039E                     	;# 
   541     039F                     	;# 
   542     0415                     	;# 
   543     0416                     	;# 
   544     0417                     	;# 
   545     041C                     	;# 
   546     041D                     	;# 
   547     041E                     	;# 
   548     0498                     	;# 
   549     0498                     	;# 
   550     0499                     	;# 
   551     049A                     	;# 
   552     049B                     	;# 
   553     049B                     	;# 
   554     049C                     	;# 
   555     049D                     	;# 
   556     049E                     	;# 
   557     049F                     	;# 
   558     0511                     	;# 
   559     0515                     	;# 
   560     0617                     	;# 
   561     0618                     	;# 
   562     0619                     	;# 
   563     0619                     	;# 
   564     061A                     	;# 
   565     061B                     	;# 
   566     061C                     	;# 
   567     061C                     	;# 
   568     0691                     	;# 
   569     0692                     	;# 
   570     0693                     	;# 
   571     0694                     	;# 
   572     0695                     	;# 
   573     0696                     	;# 
   574     0697                     	;# 
   575     0698                     	;# 
   576     0699                     	;# 
   577     069A                     	;# 
   578     069B                     	;# 
   579     069C                     	;# 
   580     069D                     	;# 
   581     069E                     	;# 
   582     069F                     	;# 
   583     0E0F                     	;# 
   584     0E10                     	;# 
   585     0E11                     	;# 
   586     0E12                     	;# 
   587     0E13                     	;# 
   588     0E14                     	;# 
   589     0E15                     	;# 
   590     0E17                     	;# 
   591     0E20                     	;# 
   592     0E21                     	;# 
   593     0E22                     	;# 
   594     0E24                     	;# 
   595     0E25                     	;# 
   596     0E28                     	;# 
   597     0E29                     	;# 
   598     0E2A                     	;# 
   599     0E2B                     	;# 
   600     0E90                     	;# 
   601     0E91                     	;# 
   602     0E92                     	;# 
   603     0E93                     	;# 
   604     0E94                     	;# 
   605     0E95                     	;# 
   606     0E96                     	;# 
   607     0E97                     	;# 
   608     0E98                     	;# 
   609     0E99                     	;# 
   610     0E9A                     	;# 
   611     0E9B                     	;# 
   612     0E9C                     	;# 
   613     0E9D                     	;# 
   614     0E9E                     	;# 
   615     0E9F                     	;# 
   616     0EA0                     	;# 
   617     0EA1                     	;# 
   618     0EA2                     	;# 
   619     0EA3                     	;# 
   620     0EA4                     	;# 
   621     0EA5                     	;# 
   622     0EA6                     	;# 
   623     0EA7                     	;# 
   624     0F0F                     	;# 
   625     0F10                     	;# 
   626     0F11                     	;# 
   627     0F12                     	;# 
   628     0F13                     	;# 
   629     0F14                     	;# 
   630     0F15                     	;# 
   631     0F16                     	;# 
   632     0F17                     	;# 
   633     0F18                     	;# 
   634     0F19                     	;# 
   635     0F1A                     	;# 
   636     0F1B                     	;# 
   637     0F1C                     	;# 
   638     0F1D                     	;# 
   639     0F1E                     	;# 
   640     0F1F                     	;# 
   641     0F20                     	;# 
   642     0F21                     	;# 
   643     0F22                     	;# 
   644     0F23                     	;# 
   645     0F24                     	;# 
   646     0F25                     	;# 
   647     0F26                     	;# 
   648     0F27                     	;# 
   649     0F28                     	;# 
   650     0F29                     	;# 
   651     0F2A                     	;# 
   652     0F2B                     	;# 
   653     0F2C                     	;# 
   654     0F2D                     	;# 
   655     0F2E                     	;# 
   656     0F2F                     	;# 
   657     0F30                     	;# 
   658     0F31                     	;# 
   659     0F32                     	;# 
   660     0F33                     	;# 
   661     0F34                     	;# 
   662     0F35                     	;# 
   663     0F36                     	;# 
   664     0F37                     	;# 
   665     0FE4                     	;# 
   666     0FE5                     	;# 
   667     0FE6                     	;# 
   668     0FE7                     	;# 
   669     0FE8                     	;# 
   670     0FE9                     	;# 
   671     0FEA                     	;# 
   672     0FEB                     	;# 
   673     0FED                     	;# 
   674     0FEE                     	;# 
   675     0FEF                     	;# 
   676     0000                     	;# 
   677     0001                     	;# 
   678     0002                     	;# 
   679     0003                     	;# 
   680     0004                     	;# 
   681     0005                     	;# 
   682     0006                     	;# 
   683     0007                     	;# 
   684     0008                     	;# 
   685     0009                     	;# 
   686     000A                     	;# 
   687     000B                     	;# 
   688     000C                     	;# 
   689     000D                     	;# 
   690     000E                     	;# 
   691     0010                     	;# 
   692     0011                     	;# 
   693     0012                     	;# 
   694     0013                     	;# 
   695     0015                     	;# 
   696     0016                     	;# 
   697     0016                     	;# 
   698     0017                     	;# 
   699     0018                     	;# 
   700     0019                     	;# 
   701     001A                     	;# 
   702     001B                     	;# 
   703     001C                     	;# 
   704     008C                     	;# 
   705     008D                     	;# 
   706     008E                     	;# 
   707     0090                     	;# 
   708     0091                     	;# 
   709     0092                     	;# 
   710     0093                     	;# 
   711     0095                     	;# 
   712     0096                     	;# 
   713     0097                     	;# 
   714     0098                     	;# 
   715     0099                     	;# 
   716     009A                     	;# 
   717     009B                     	;# 
   718     009B                     	;# 
   719     009C                     	;# 
   720     009D                     	;# 
   721     009E                     	;# 
   722     009F                     	;# 
   723     010C                     	;# 
   724     010D                     	;# 
   725     010E                     	;# 
   726     0111                     	;# 
   727     0112                     	;# 
   728     0113                     	;# 
   729     0114                     	;# 
   730     0115                     	;# 
   731     0116                     	;# 
   732     0117                     	;# 
   733     0118                     	;# 
   734     0119                     	;# 
   735     011A                     	;# 
   736     011B                     	;# 
   737     011B                     	;# 
   738     011C                     	;# 
   739     018C                     	;# 
   740     018D                     	;# 
   741     018E                     	;# 
   742     0191                     	;# 
   743     0191                     	;# 
   744     0192                     	;# 
   745     0193                     	;# 
   746     0193                     	;# 
   747     0194                     	;# 
   748     0195                     	;# 
   749     0196                     	;# 
   750     0197                     	;# 
   751     0199                     	;# 
   752     0199                     	;# 
   753     0199                     	;# 
   754     019A                     	;# 
   755     019A                     	;# 
   756     019A                     	;# 
   757     019B                     	;# 
   758     019B                     	;# 
   759     019B                     	;# 
   760     019B                     	;# 
   761     019B                     	;# 
   762     019C                     	;# 
   763     019C                     	;# 
   764     019C                     	;# 
   765     019D                     	;# 
   766     019D                     	;# 
   767     019D                     	;# 
   768     019E                     	;# 
   769     019E                     	;# 
   770     019E                     	;# 
   771     019F                     	;# 
   772     019F                     	;# 
   773     019F                     	;# 
   774     019F                     	;# 
   775     019F                     	;# 
   776     020C                     	;# 
   777     020D                     	;# 
   778     020E                     	;# 
   779     0210                     	;# 
   780     0211                     	;# 
   781     0211                     	;# 
   782     0212                     	;# 
   783     0212                     	;# 
   784     0213                     	;# 
   785     0213                     	;# 
   786     0214                     	;# 
   787     0214                     	;# 
   788     0215                     	;# 
   789     0215                     	;# 
   790     0215                     	;# 
   791     0215                     	;# 
   792     0216                     	;# 
   793     0216                     	;# 
   794     0217                     	;# 
   795     0217                     	;# 
   796     028C                     	;# 
   797     028D                     	;# 
   798     028E                     	;# 
   799     0291                     	;# 
   800     0291                     	;# 
   801     0292                     	;# 
   802     0293                     	;# 
   803     0293                     	;# 
   804     0298                     	;# 
   805     0298                     	;# 
   806     0299                     	;# 
   807     029A                     	;# 
   808     029A                     	;# 
   809     029E                     	;# 
   810     030C                     	;# 
   811     030D                     	;# 
   812     030E                     	;# 
   813     038C                     	;# 
   814     038D                     	;# 
   815     038E                     	;# 
   816     0390                     	;# 
   817     0391                     	;# 
   818     0392                     	;# 
   819     0393                     	;# 
   820     0394                     	;# 
   821     0395                     	;# 
   822     0396                     	;# 
   823     0397                     	;# 
   824     0398                     	;# 
   825     0399                     	;# 
   826     039D                     	;# 
   827     039E                     	;# 
   828     039F                     	;# 
   829     0415                     	;# 
   830     0416                     	;# 
   831     0417                     	;# 
   832     041C                     	;# 
   833     041D                     	;# 
   834     041E                     	;# 
   835     0498                     	;# 
   836     0498                     	;# 
   837     0499                     	;# 
   838     049A                     	;# 
   839     049B                     	;# 
   840     049B                     	;# 
   841     049C                     	;# 
   842     049D                     	;# 
   843     049E                     	;# 
   844     049F                     	;# 
   845     0511                     	;# 
   846     0515                     	;# 
   847     0617                     	;# 
   848     0618                     	;# 
   849     0619                     	;# 
   850     0619                     	;# 
   851     061A                     	;# 
   852     061B                     	;# 
   853     061C                     	;# 
   854     061C                     	;# 
   855     0691                     	;# 
   856     0692                     	;# 
   857     0693                     	;# 
   858     0694                     	;# 
   859     0695                     	;# 
   860     0696                     	;# 
   861     0697                     	;# 
   862     0698                     	;# 
   863     0699                     	;# 
   864     069A                     	;# 
   865     069B                     	;# 
   866     069C                     	;# 
   867     069D                     	;# 
   868     069E                     	;# 
   869     069F                     	;# 
   870     0E0F                     	;# 
   871     0E10                     	;# 
   872     0E11                     	;# 
   873     0E12                     	;# 
   874     0E13                     	;# 
   875     0E14                     	;# 
   876     0E15                     	;# 
   877     0E17                     	;# 
   878     0E20                     	;# 
   879     0E21                     	;# 
   880     0E22                     	;# 
   881     0E24                     	;# 
   882     0E25                     	;# 
   883     0E28                     	;# 
   884     0E29                     	;# 
   885     0E2A                     	;# 
   886     0E2B                     	;# 
   887     0E90                     	;# 
   888     0E91                     	;# 
   889     0E92                     	;# 
   890     0E93                     	;# 
   891     0E94                     	;# 
   892     0E95                     	;# 
   893     0E96                     	;# 
   894     0E97                     	;# 
   895     0E98                     	;# 
   896     0E99                     	;# 
   897     0E9A                     	;# 
   898     0E9B                     	;# 
   899     0E9C                     	;# 
   900     0E9D                     	;# 
   901     0E9E                     	;# 
   902     0E9F                     	;# 
   903     0EA0                     	;# 
   904     0EA1                     	;# 
   905     0EA2                     	;# 
   906     0EA3                     	;# 
   907     0EA4                     	;# 
   908     0EA5                     	;# 
   909     0EA6                     	;# 
   910     0EA7                     	;# 
   911     0F0F                     	;# 
   912     0F10                     	;# 
   913     0F11                     	;# 
   914     0F12                     	;# 
   915     0F13                     	;# 
   916     0F14                     	;# 
   917     0F15                     	;# 
   918     0F16                     	;# 
   919     0F17                     	;# 
   920     0F18                     	;# 
   921     0F19                     	;# 
   922     0F1A                     	;# 
   923     0F1B                     	;# 
   924     0F1C                     	;# 
   925     0F1D                     	;# 
   926     0F1E                     	;# 
   927     0F1F                     	;# 
   928     0F20                     	;# 
   929     0F21                     	;# 
   930     0F22                     	;# 
   931     0F23                     	;# 
   932     0F24                     	;# 
   933     0F25                     	;# 
   934     0F26                     	;# 
   935     0F27                     	;# 
   936     0F28                     	;# 
   937     0F29                     	;# 
   938     0F2A                     	;# 
   939     0F2B                     	;# 
   940     0F2C                     	;# 
   941     0F2D                     	;# 
   942     0F2E                     	;# 
   943     0F2F                     	;# 
   944     0F30                     	;# 
   945     0F31                     	;# 
   946     0F32                     	;# 
   947     0F33                     	;# 
   948     0F34                     	;# 
   949     0F35                     	;# 
   950     0F36                     	;# 
   951     0F37                     	;# 
   952     0FE4                     	;# 
   953     0FE5                     	;# 
   954     0FE6                     	;# 
   955     0FE7                     	;# 
   956     0FE8                     	;# 
   957     0FE9                     	;# 
   958     0FEA                     	;# 
   959     0FEB                     	;# 
   960     0FED                     	;# 
   961     0FEE                     	;# 
   962     0FEF                     	;# 
   963     0000                     	;# 
   964     0001                     	;# 
   965     0002                     	;# 
   966     0003                     	;# 
   967     0004                     	;# 
   968     0005                     	;# 
   969     0006                     	;# 
   970     0007                     	;# 
   971     0008                     	;# 
   972     0009                     	;# 
   973     000A                     	;# 
   974     000B                     	;# 
   975     000C                     	;# 
   976     000D                     	;# 
   977     000E                     	;# 
   978     0010                     	;# 
   979     0011                     	;# 
   980     0012                     	;# 
   981     0013                     	;# 
   982     0015                     	;# 
   983     0016                     	;# 
   984     0016                     	;# 
   985     0017                     	;# 
   986     0018                     	;# 
   987     0019                     	;# 
   988     001A                     	;# 
   989     001B                     	;# 
   990     001C                     	;# 
   991     008C                     	;# 
   992     008D                     	;# 
   993     008E                     	;# 
   994     0090                     	;# 
   995     0091                     	;# 
   996     0092                     	;# 
   997     0093                     	;# 
   998     0095                     	;# 
   999     0096                     	;# 
  1000     0097                     	;# 
  1001     0098                     	;# 
  1002     0099                     	;# 
  1003     009A                     	;# 
  1004     009B                     	;# 
  1005     009B                     	;# 
  1006     009C                     	;# 
  1007     009D                     	;# 
  1008     009E                     	;# 
  1009     009F                     	;# 
  1010     010C                     	;# 
  1011     010D                     	;# 
  1012     010E                     	;# 
  1013     0111                     	;# 
  1014     0112                     	;# 
  1015     0113                     	;# 
  1016     0114                     	;# 
  1017     0115                     	;# 
  1018     0116                     	;# 
  1019     0117                     	;# 
  1020     0118                     	;# 
  1021     0119                     	;# 
  1022     011A                     	;# 
  1023     011B                     	;# 
  1024     011B                     	;# 
  1025     011C                     	;# 
  1026     018C                     	;# 
  1027     018D                     	;# 
  1028     018E                     	;# 
  1029     0191                     	;# 
  1030     0191                     	;# 
  1031     0192                     	;# 
  1032     0193                     	;# 
  1033     0193                     	;# 
  1034     0194                     	;# 
  1035     0195                     	;# 
  1036     0196                     	;# 
  1037     0197                     	;# 
  1038     0199                     	;# 
  1039     0199                     	;# 
  1040     0199                     	;# 
  1041     019A                     	;# 
  1042     019A                     	;# 
  1043     019A                     	;# 
  1044     019B                     	;# 
  1045     019B                     	;# 
  1046     019B                     	;# 
  1047     019B                     	;# 
  1048     019B                     	;# 
  1049     019C                     	;# 
  1050     019C                     	;# 
  1051     019C                     	;# 
  1052     019D                     	;# 
  1053     019D                     	;# 
  1054     019D                     	;# 
  1055     019E                     	;# 
  1056     019E                     	;# 
  1057     019E                     	;# 
  1058     019F                     	;# 
  1059     019F                     	;# 
  1060     019F                     	;# 
  1061     019F                     	;# 
  1062     019F                     	;# 
  1063     020C                     	;# 
  1064     020D                     	;# 
  1065     020E                     	;# 
  1066     0210                     	;# 
  1067     0211                     	;# 
  1068     0211                     	;# 
  1069     0212                     	;# 
  1070     0212                     	;# 
  1071     0213                     	;# 
  1072     0213                     	;# 
  1073     0214                     	;# 
  1074     0214                     	;# 
  1075     0215                     	;# 
  1076     0215                     	;# 
  1077     0215                     	;# 
  1078     0215                     	;# 
  1079     0216                     	;# 
  1080     0216                     	;# 
  1081     0217                     	;# 
  1082     0217                     	;# 
  1083     028C                     	;# 
  1084     028D                     	;# 
  1085     028E                     	;# 
  1086     0291                     	;# 
  1087     0291                     	;# 
  1088     0292                     	;# 
  1089     0293                     	;# 
  1090     0293                     	;# 
  1091     0298                     	;# 
  1092     0298                     	;# 
  1093     0299                     	;# 
  1094     029A                     	;# 
  1095     029A                     	;# 
  1096     029E                     	;# 
  1097     030C                     	;# 
  1098     030D                     	;# 
  1099     030E                     	;# 
  1100     038C                     	;# 
  1101     038D                     	;# 
  1102     038E                     	;# 
  1103     0390                     	;# 
  1104     0391                     	;# 
  1105     0392                     	;# 
  1106     0393                     	;# 
  1107     0394                     	;# 
  1108     0395                     	;# 
  1109     0396                     	;# 
  1110     0397                     	;# 
  1111     0398                     	;# 
  1112     0399                     	;# 
  1113     039D                     	;# 
  1114     039E                     	;# 
  1115     039F                     	;# 
  1116     0415                     	;# 
  1117     0416                     	;# 
  1118     0417                     	;# 
  1119     041C                     	;# 
  1120     041D                     	;# 
  1121     041E                     	;# 
  1122     0498                     	;# 
  1123     0498                     	;# 
  1124     0499                     	;# 
  1125     049A                     	;# 
  1126     049B                     	;# 
  1127     049B                     	;# 
  1128     049C                     	;# 
  1129     049D                     	;# 
  1130     049E                     	;# 
  1131     049F                     	;# 
  1132     0511                     	;# 
  1133     0515                     	;# 
  1134     0617                     	;# 
  1135     0618                     	;# 
  1136     0619                     	;# 
  1137     0619                     	;# 
  1138     061A                     	;# 
  1139     061B                     	;# 
  1140     061C                     	;# 
  1141     061C                     	;# 
  1142     0691                     	;# 
  1143     0692                     	;# 
  1144     0693                     	;# 
  1145     0694                     	;# 
  1146     0695                     	;# 
  1147     0696                     	;# 
  1148     0697                     	;# 
  1149     0698                     	;# 
  1150     0699                     	;# 
  1151     069A                     	;# 
  1152     069B                     	;# 
  1153     069C                     	;# 
  1154     069D                     	;# 
  1155     069E                     	;# 
  1156     069F                     	;# 
  1157     0E0F                     	;# 
  1158     0E10                     	;# 
  1159     0E11                     	;# 
  1160     0E12                     	;# 
  1161     0E13                     	;# 
  1162     0E14                     	;# 
  1163     0E15                     	;# 
  1164     0E17                     	;# 
  1165     0E20                     	;# 
  1166     0E21                     	;# 
  1167     0E22                     	;# 
  1168     0E24                     	;# 
  1169     0E25                     	;# 
  1170     0E28                     	;# 
  1171     0E29                     	;# 
  1172     0E2A                     	;# 
  1173     0E2B                     	;# 
  1174     0E90                     	;# 
  1175     0E91                     	;# 
  1176     0E92                     	;# 
  1177     0E93                     	;# 
  1178     0E94                     	;# 
  1179     0E95                     	;# 
  1180     0E96                     	;# 
  1181     0E97                     	;# 
  1182     0E98                     	;# 
  1183     0E99                     	;# 
  1184     0E9A                     	;# 
  1185     0E9B                     	;# 
  1186     0E9C                     	;# 
  1187     0E9D                     	;# 
  1188     0E9E                     	;# 
  1189     0E9F                     	;# 
  1190     0EA0                     	;# 
  1191     0EA1                     	;# 
  1192     0EA2                     	;# 
  1193     0EA3                     	;# 
  1194     0EA4                     	;# 
  1195     0EA5                     	;# 
  1196     0EA6                     	;# 
  1197     0EA7                     	;# 
  1198     0F0F                     	;# 
  1199     0F10                     	;# 
  1200     0F11                     	;# 
  1201     0F12                     	;# 
  1202     0F13                     	;# 
  1203     0F14                     	;# 
  1204     0F15                     	;# 
  1205     0F16                     	;# 
  1206     0F17                     	;# 
  1207     0F18                     	;# 
  1208     0F19                     	;# 
  1209     0F1A                     	;# 
  1210     0F1B                     	;# 
  1211     0F1C                     	;# 
  1212     0F1D                     	;# 
  1213     0F1E                     	;# 
  1214     0F1F                     	;# 
  1215     0F20                     	;# 
  1216     0F21                     	;# 
  1217     0F22                     	;# 
  1218     0F23                     	;# 
  1219     0F24                     	;# 
  1220     0F25                     	;# 
  1221     0F26                     	;# 
  1222     0F27                     	;# 
  1223     0F28                     	;# 
  1224     0F29                     	;# 
  1225     0F2A                     	;# 
  1226     0F2B                     	;# 
  1227     0F2C                     	;# 
  1228     0F2D                     	;# 
  1229     0F2E                     	;# 
  1230     0F2F                     	;# 
  1231     0F30                     	;# 
  1232     0F31                     	;# 
  1233     0F32                     	;# 
  1234     0F33                     	;# 
  1235     0F34                     	;# 
  1236     0F35                     	;# 
  1237     0F36                     	;# 
  1238     0F37                     	;# 
  1239     0FE4                     	;# 
  1240     0FE5                     	;# 
  1241     0FE6                     	;# 
  1242     0FE7                     	;# 
  1243     0FE8                     	;# 
  1244     0FE9                     	;# 
  1245     0FEA                     	;# 
  1246     0FEB                     	;# 
  1247     0FED                     	;# 
  1248     0FEE                     	;# 
  1249     0FEF                     	;_screen_buffer
  1250                           
  1251                           	psect	stringtext1
  1252     1800                     __pstringtext1:
  1253     1800                     _BatteryIcon:
  1254     1800  34FF               	retlw	255
  1255     1801  3481               	retlw	129
  1256     1802  34BD               	retlw	189
  1257     1803  34BD               	retlw	189
  1258     1804  34BD               	retlw	189
  1259     1805  3481               	retlw	129
  1260     1806  34FF               	retlw	255
  1261     1807  3418               	retlw	24
  1262     1808  3400               	retlw	0
  1263     1809  3400               	retlw	0
  1264     180A                     __end_of_BatteryIcon:
  1265                           
  1266                           	psect	stringtext2
  1267     0800                     __pstringtext2:
  1268     0800                     _OledFont:
  1269     0800  3400               	retlw	0
  1270     0801  3400               	retlw	0
  1271     0802  3400               	retlw	0
  1272     0803  3400               	retlw	0
  1273     0804  3400               	retlw	0
  1274     0805  3400               	retlw	0
  1275     0806  3400               	retlw	0
  1276     0807  3400               	retlw	0
  1277     0808  3400               	retlw	0
  1278     0809  3400               	retlw	0
  1279     080A  345F               	retlw	95
  1280     080B  3400               	retlw	0
  1281     080C  3400               	retlw	0
  1282     080D  3400               	retlw	0
  1283     080E  3400               	retlw	0
  1284     080F  3400               	retlw	0
  1285     0810  3400               	retlw	0
  1286     0811  3400               	retlw	0
  1287     0812  3407               	retlw	7
  1288     0813  3400               	retlw	0
  1289     0814  3407               	retlw	7
  1290     0815  3400               	retlw	0
  1291     0816  3400               	retlw	0
  1292     0817  3400               	retlw	0
  1293     0818  3400               	retlw	0
  1294     0819  3414               	retlw	20
  1295     081A  347F               	retlw	127
  1296     081B  3414               	retlw	20
  1297     081C  347F               	retlw	127
  1298     081D  3414               	retlw	20
  1299     081E  3400               	retlw	0
  1300     081F  3400               	retlw	0
  1301     0820  3400               	retlw	0
  1302     0821  3424               	retlw	36
  1303     0822  342A               	retlw	42
  1304     0823  347F               	retlw	127
  1305     0824  342A               	retlw	42
  1306     0825  3412               	retlw	18
  1307     0826  3400               	retlw	0
  1308     0827  3400               	retlw	0
  1309     0828  3400               	retlw	0
  1310     0829  3423               	retlw	35
  1311     082A  3413               	retlw	19
  1312     082B  3408               	retlw	8
  1313     082C  3464               	retlw	100
  1314     082D  3462               	retlw	98
  1315     082E  3400               	retlw	0
  1316     082F  3400               	retlw	0
  1317     0830  3400               	retlw	0
  1318     0831  3436               	retlw	54
  1319     0832  3449               	retlw	73
  1320     0833  3455               	retlw	85
  1321     0834  3422               	retlw	34
  1322     0835  3450               	retlw	80
  1323     0836  3400               	retlw	0
  1324     0837  3400               	retlw	0
  1325     0838  3400               	retlw	0
  1326     0839  3400               	retlw	0
  1327     083A  3405               	retlw	5
  1328     083B  3403               	retlw	3
  1329     083C  3400               	retlw	0
  1330     083D  3400               	retlw	0
  1331     083E  3400               	retlw	0
  1332     083F  3400               	retlw	0
  1333     0840  3400               	retlw	0
  1334     0841  341C               	retlw	28
  1335     0842  3422               	retlw	34
  1336     0843  3441               	retlw	65
  1337     0844  3400               	retlw	0
  1338     0845  3400               	retlw	0
  1339     0846  3400               	retlw	0
  1340     0847  3400               	retlw	0
  1341     0848  3400               	retlw	0
  1342     0849  3441               	retlw	65
  1343     084A  3422               	retlw	34
  1344     084B  341C               	retlw	28
  1345     084C  3400               	retlw	0
  1346     084D  3400               	retlw	0
  1347     084E  3400               	retlw	0
  1348     084F  3400               	retlw	0
  1349     0850  3400               	retlw	0
  1350     0851  3408               	retlw	8
  1351     0852  342A               	retlw	42
  1352     0853  341C               	retlw	28
  1353     0854  342A               	retlw	42
  1354     0855  3408               	retlw	8
  1355     0856  3400               	retlw	0
  1356     0857  3400               	retlw	0
  1357     0858  3400               	retlw	0
  1358     0859  3408               	retlw	8
  1359     085A  3408               	retlw	8
  1360     085B  343E               	retlw	62
  1361     085C  3408               	retlw	8
  1362     085D  3408               	retlw	8
  1363     085E  3400               	retlw	0
  1364     085F  3400               	retlw	0
  1365     0860  3400               	retlw	0
  1366     0861  34A0               	retlw	160
  1367     0862  3460               	retlw	96
  1368     0863  3400               	retlw	0
  1369     0864  3400               	retlw	0
  1370     0865  3400               	retlw	0
  1371     0866  3400               	retlw	0
  1372     0867  3400               	retlw	0
  1373     0868  3400               	retlw	0
  1374     0869  3408               	retlw	8
  1375     086A  3408               	retlw	8
  1376     086B  3408               	retlw	8
  1377     086C  3408               	retlw	8
  1378     086D  3408               	retlw	8
  1379     086E  3400               	retlw	0
  1380     086F  3400               	retlw	0
  1381     0870  3400               	retlw	0
  1382     0871  3460               	retlw	96
  1383     0872  3460               	retlw	96
  1384     0873  3400               	retlw	0
  1385     0874  3400               	retlw	0
  1386     0875  3400               	retlw	0
  1387     0876  3400               	retlw	0
  1388     0877  3400               	retlw	0
  1389     0878  3400               	retlw	0
  1390     0879  3420               	retlw	32
  1391     087A  3410               	retlw	16
  1392     087B  3408               	retlw	8
  1393     087C  3404               	retlw	4
  1394     087D  3402               	retlw	2
  1395     087E  3400               	retlw	0
  1396     087F  3400               	retlw	0
  1397     0880  3400               	retlw	0
  1398     0881  343E               	retlw	62
  1399     0882  3451               	retlw	81
  1400     0883  3449               	retlw	73
  1401     0884  3445               	retlw	69
  1402     0885  343E               	retlw	62
  1403     0886  3400               	retlw	0
  1404     0887  3400               	retlw	0
  1405     0888  3400               	retlw	0
  1406     0889  3400               	retlw	0
  1407     088A  3442               	retlw	66
  1408     088B  347F               	retlw	127
  1409     088C  3440               	retlw	64
  1410     088D  3400               	retlw	0
  1411     088E  3400               	retlw	0
  1412     088F  3400               	retlw	0
  1413     0890  3400               	retlw	0
  1414     0891  3462               	retlw	98
  1415     0892  3451               	retlw	81
  1416     0893  3449               	retlw	73
  1417     0894  3449               	retlw	73
  1418     0895  3446               	retlw	70
  1419     0896  3400               	retlw	0
  1420     0897  3400               	retlw	0
  1421     0898  3400               	retlw	0
  1422     0899  3422               	retlw	34
  1423     089A  3441               	retlw	65
  1424     089B  3449               	retlw	73
  1425     089C  3449               	retlw	73
  1426     089D  3436               	retlw	54
  1427     089E  3400               	retlw	0
  1428     089F  3400               	retlw	0
  1429     08A0  3400               	retlw	0
  1430     08A1  3418               	retlw	24
  1431     08A2  3414               	retlw	20
  1432     08A3  3412               	retlw	18
  1433     08A4  347F               	retlw	127
  1434     08A5  3410               	retlw	16
  1435     08A6  3400               	retlw	0
  1436     08A7  3400               	retlw	0
  1437     08A8  3400               	retlw	0
  1438     08A9  3427               	retlw	39
  1439     08AA  3445               	retlw	69
  1440     08AB  3445               	retlw	69
  1441     08AC  3445               	retlw	69
  1442     08AD  3439               	retlw	57
  1443     08AE  3400               	retlw	0
  1444     08AF  3400               	retlw	0
  1445     08B0  3400               	retlw	0
  1446     08B1  343C               	retlw	60
  1447     08B2  344A               	retlw	74
  1448     08B3  3449               	retlw	73
  1449     08B4  3449               	retlw	73
  1450     08B5  3430               	retlw	48
  1451     08B6  3400               	retlw	0
  1452     08B7  3400               	retlw	0
  1453     08B8  3400               	retlw	0
  1454     08B9  3401               	retlw	1
  1455     08BA  3471               	retlw	113
  1456     08BB  3409               	retlw	9
  1457     08BC  3405               	retlw	5
  1458     08BD  3403               	retlw	3
  1459     08BE  3400               	retlw	0
  1460     08BF  3400               	retlw	0
  1461     08C0  3400               	retlw	0
  1462     08C1  3436               	retlw	54
  1463     08C2  3449               	retlw	73
  1464     08C3  3449               	retlw	73
  1465     08C4  3449               	retlw	73
  1466     08C5  3436               	retlw	54
  1467     08C6  3400               	retlw	0
  1468     08C7  3400               	retlw	0
  1469     08C8  3400               	retlw	0
  1470     08C9  3406               	retlw	6
  1471     08CA  3449               	retlw	73
  1472     08CB  3449               	retlw	73
  1473     08CC  3429               	retlw	41
  1474     08CD  341E               	retlw	30
  1475     08CE  3400               	retlw	0
  1476     08CF  3400               	retlw	0
  1477     08D0  3400               	retlw	0
  1478     08D1  3400               	retlw	0
  1479     08D2  3436               	retlw	54
  1480     08D3  3436               	retlw	54
  1481     08D4  3400               	retlw	0
  1482     08D5  3400               	retlw	0
  1483     08D6  3400               	retlw	0
  1484     08D7  3400               	retlw	0
  1485     08D8  3400               	retlw	0
  1486     08D9  3400               	retlw	0
  1487     08DA  34AC               	retlw	172
  1488     08DB  346C               	retlw	108
  1489     08DC  3400               	retlw	0
  1490     08DD  3400               	retlw	0
  1491     08DE  3400               	retlw	0
  1492     08DF  3400               	retlw	0
  1493     08E0  3400               	retlw	0
  1494     08E1  3408               	retlw	8
  1495     08E2  3414               	retlw	20
  1496     08E3  3422               	retlw	34
  1497     08E4  3441               	retlw	65
  1498     08E5  3400               	retlw	0
  1499     08E6  3400               	retlw	0
  1500     08E7  3400               	retlw	0
  1501     08E8  3400               	retlw	0
  1502     08E9  3414               	retlw	20
  1503     08EA  3414               	retlw	20
  1504     08EB  3414               	retlw	20
  1505     08EC  3414               	retlw	20
  1506     08ED  3414               	retlw	20
  1507     08EE  3400               	retlw	0
  1508     08EF  3400               	retlw	0
  1509     08F0  3400               	retlw	0
  1510     08F1  3441               	retlw	65
  1511     08F2  3422               	retlw	34
  1512     08F3  3414               	retlw	20
  1513     08F4  3408               	retlw	8
  1514     08F5  3400               	retlw	0
  1515     08F6  3400               	retlw	0
  1516     08F7  3400               	retlw	0
  1517     08F8  3400               	retlw	0
  1518     08F9  3402               	retlw	2
  1519     08FA  3401               	retlw	1
  1520     08FB  3451               	retlw	81
  1521     08FC  3409               	retlw	9
  1522     08FD  3406               	retlw	6
  1523     08FE  3400               	retlw	0
  1524     08FF  3400               	retlw	0
  1525     0900  3400               	retlw	0
  1526     0901  3432               	retlw	50
  1527     0902  3449               	retlw	73
  1528     0903  3479               	retlw	121
  1529     0904  3441               	retlw	65
  1530     0905  343E               	retlw	62
  1531     0906  3400               	retlw	0
  1532     0907  3400               	retlw	0
  1533     0908  3400               	retlw	0
  1534     0909  347E               	retlw	126
  1535     090A  3409               	retlw	9
  1536     090B  3409               	retlw	9
  1537     090C  3409               	retlw	9
  1538     090D  347E               	retlw	126
  1539     090E  3400               	retlw	0
  1540     090F  3400               	retlw	0
  1541     0910  3400               	retlw	0
  1542     0911  347F               	retlw	127
  1543     0912  3449               	retlw	73
  1544     0913  3449               	retlw	73
  1545     0914  3449               	retlw	73
  1546     0915  3436               	retlw	54
  1547     0916  3400               	retlw	0
  1548     0917  3400               	retlw	0
  1549     0918  3400               	retlw	0
  1550     0919  343E               	retlw	62
  1551     091A  3441               	retlw	65
  1552     091B  3441               	retlw	65
  1553     091C  3441               	retlw	65
  1554     091D  3422               	retlw	34
  1555     091E  3400               	retlw	0
  1556     091F  3400               	retlw	0
  1557     0920  3400               	retlw	0
  1558     0921  347F               	retlw	127
  1559     0922  3441               	retlw	65
  1560     0923  3441               	retlw	65
  1561     0924  3422               	retlw	34
  1562     0925  341C               	retlw	28
  1563     0926  3400               	retlw	0
  1564     0927  3400               	retlw	0
  1565     0928  3400               	retlw	0
  1566     0929  347F               	retlw	127
  1567     092A  3449               	retlw	73
  1568     092B  3449               	retlw	73
  1569     092C  3449               	retlw	73
  1570     092D  3441               	retlw	65
  1571     092E  3400               	retlw	0
  1572     092F  3400               	retlw	0
  1573     0930  3400               	retlw	0
  1574     0931  347F               	retlw	127
  1575     0932  3409               	retlw	9
  1576     0933  3409               	retlw	9
  1577     0934  3409               	retlw	9
  1578     0935  3401               	retlw	1
  1579     0936  3400               	retlw	0
  1580     0937  3400               	retlw	0
  1581     0938  3400               	retlw	0
  1582     0939  343E               	retlw	62
  1583     093A  3441               	retlw	65
  1584     093B  3441               	retlw	65
  1585     093C  3451               	retlw	81
  1586     093D  3472               	retlw	114
  1587     093E  3400               	retlw	0
  1588     093F  3400               	retlw	0
  1589     0940  3400               	retlw	0
  1590     0941  347F               	retlw	127
  1591     0942  3408               	retlw	8
  1592     0943  3408               	retlw	8
  1593     0944  3408               	retlw	8
  1594     0945  347F               	retlw	127
  1595     0946  3400               	retlw	0
  1596     0947  3400               	retlw	0
  1597     0948  3400               	retlw	0
  1598     0949  3441               	retlw	65
  1599     094A  347F               	retlw	127
  1600     094B  3441               	retlw	65
  1601     094C  3400               	retlw	0
  1602     094D  3400               	retlw	0
  1603     094E  3400               	retlw	0
  1604     094F  3400               	retlw	0
  1605     0950  3400               	retlw	0
  1606     0951  3420               	retlw	32
  1607     0952  3440               	retlw	64
  1608     0953  3441               	retlw	65
  1609     0954  343F               	retlw	63
  1610     0955  3401               	retlw	1
  1611     0956  3400               	retlw	0
  1612     0957  3400               	retlw	0
  1613     0958  3400               	retlw	0
  1614     0959  347F               	retlw	127
  1615     095A  3408               	retlw	8
  1616     095B  3414               	retlw	20
  1617     095C  3422               	retlw	34
  1618     095D  3441               	retlw	65
  1619     095E  3400               	retlw	0
  1620     095F  3400               	retlw	0
  1621     0960  3400               	retlw	0
  1622     0961  347F               	retlw	127
  1623     0962  3440               	retlw	64
  1624     0963  3440               	retlw	64
  1625     0964  3440               	retlw	64
  1626     0965  3440               	retlw	64
  1627     0966  3400               	retlw	0
  1628     0967  3400               	retlw	0
  1629     0968  3400               	retlw	0
  1630     0969  347F               	retlw	127
  1631     096A  3402               	retlw	2
  1632     096B  340C               	retlw	12
  1633     096C  3402               	retlw	2
  1634     096D  347F               	retlw	127
  1635     096E  3400               	retlw	0
  1636     096F  3400               	retlw	0
  1637     0970  3400               	retlw	0
  1638     0971  347F               	retlw	127
  1639     0972  3404               	retlw	4
  1640     0973  3408               	retlw	8
  1641     0974  3410               	retlw	16
  1642     0975  347F               	retlw	127
  1643     0976  3400               	retlw	0
  1644     0977  3400               	retlw	0
  1645     0978  3400               	retlw	0
  1646     0979  343E               	retlw	62
  1647     097A  3441               	retlw	65
  1648     097B  3441               	retlw	65
  1649     097C  3441               	retlw	65
  1650     097D  343E               	retlw	62
  1651     097E  3400               	retlw	0
  1652     097F  3400               	retlw	0
  1653     0980  3400               	retlw	0
  1654     0981  347F               	retlw	127
  1655     0982  3409               	retlw	9
  1656     0983  3409               	retlw	9
  1657     0984  3409               	retlw	9
  1658     0985  3406               	retlw	6
  1659     0986  3400               	retlw	0
  1660     0987  3400               	retlw	0
  1661     0988  3400               	retlw	0
  1662     0989  343E               	retlw	62
  1663     098A  3441               	retlw	65
  1664     098B  3451               	retlw	81
  1665     098C  3421               	retlw	33
  1666     098D  345E               	retlw	94
  1667     098E  3400               	retlw	0
  1668     098F  3400               	retlw	0
  1669     0990  3400               	retlw	0
  1670     0991  347F               	retlw	127
  1671     0992  3409               	retlw	9
  1672     0993  3419               	retlw	25
  1673     0994  3429               	retlw	41
  1674     0995  3446               	retlw	70
  1675     0996  3400               	retlw	0
  1676     0997  3400               	retlw	0
  1677     0998  3400               	retlw	0
  1678     0999  3426               	retlw	38
  1679     099A  3449               	retlw	73
  1680     099B  3449               	retlw	73
  1681     099C  3449               	retlw	73
  1682     099D  3432               	retlw	50
  1683     099E  3400               	retlw	0
  1684     099F  3400               	retlw	0
  1685     09A0  3400               	retlw	0
  1686     09A1  3401               	retlw	1
  1687     09A2  3401               	retlw	1
  1688     09A3  347F               	retlw	127
  1689     09A4  3401               	retlw	1
  1690     09A5  3401               	retlw	1
  1691     09A6  3400               	retlw	0
  1692     09A7  3400               	retlw	0
  1693     09A8  3400               	retlw	0
  1694     09A9  343F               	retlw	63
  1695     09AA  3440               	retlw	64
  1696     09AB  3440               	retlw	64
  1697     09AC  3440               	retlw	64
  1698     09AD  343F               	retlw	63
  1699     09AE  3400               	retlw	0
  1700     09AF  3400               	retlw	0
  1701     09B0  3400               	retlw	0
  1702     09B1  341F               	retlw	31
  1703     09B2  3420               	retlw	32
  1704     09B3  3440               	retlw	64
  1705     09B4  3420               	retlw	32
  1706     09B5  341F               	retlw	31
  1707     09B6  3400               	retlw	0
  1708     09B7  3400               	retlw	0
  1709     09B8  3400               	retlw	0
  1710     09B9  343F               	retlw	63
  1711     09BA  3440               	retlw	64
  1712     09BB  3438               	retlw	56
  1713     09BC  3440               	retlw	64
  1714     09BD  343F               	retlw	63
  1715     09BE  3400               	retlw	0
  1716     09BF  3400               	retlw	0
  1717     09C0  3400               	retlw	0
  1718     09C1  3463               	retlw	99
  1719     09C2  3414               	retlw	20
  1720     09C3  3408               	retlw	8
  1721     09C4  3414               	retlw	20
  1722     09C5  3463               	retlw	99
  1723     09C6  3400               	retlw	0
  1724     09C7  3400               	retlw	0
  1725     09C8  3400               	retlw	0
  1726     09C9  3403               	retlw	3
  1727     09CA  3404               	retlw	4
  1728     09CB  3478               	retlw	120
  1729     09CC  3404               	retlw	4
  1730     09CD  3403               	retlw	3
  1731     09CE  3400               	retlw	0
  1732     09CF  3400               	retlw	0
  1733     09D0  3400               	retlw	0
  1734     09D1  3461               	retlw	97
  1735     09D2  3451               	retlw	81
  1736     09D3  3449               	retlw	73
  1737     09D4  3445               	retlw	69
  1738     09D5  3443               	retlw	67
  1739     09D6  3400               	retlw	0
  1740     09D7  3400               	retlw	0
  1741     09D8  3400               	retlw	0
  1742     09D9  347F               	retlw	127
  1743     09DA  3441               	retlw	65
  1744     09DB  3441               	retlw	65
  1745     09DC  3400               	retlw	0
  1746     09DD  3400               	retlw	0
  1747     09DE  3400               	retlw	0
  1748     09DF  3400               	retlw	0
  1749     09E0  3400               	retlw	0
  1750     09E1  3402               	retlw	2
  1751     09E2  3404               	retlw	4
  1752     09E3  3408               	retlw	8
  1753     09E4  3410               	retlw	16
  1754     09E5  3420               	retlw	32
  1755     09E6  3400               	retlw	0
  1756     09E7  3400               	retlw	0
  1757     09E8  3400               	retlw	0
  1758     09E9  3441               	retlw	65
  1759     09EA  3441               	retlw	65
  1760     09EB  347F               	retlw	127
  1761     09EC  3400               	retlw	0
  1762     09ED  3400               	retlw	0
  1763     09EE  3400               	retlw	0
  1764     09EF  3400               	retlw	0
  1765     09F0  3400               	retlw	0
  1766     09F1  3404               	retlw	4
  1767     09F2  3402               	retlw	2
  1768     09F3  3401               	retlw	1
  1769     09F4  3402               	retlw	2
  1770     09F5  3404               	retlw	4
  1771     09F6  3400               	retlw	0
  1772     09F7  3400               	retlw	0
  1773     09F8  3400               	retlw	0
  1774     09F9  3480               	retlw	128
  1775     09FA  3480               	retlw	128
  1776     09FB  3480               	retlw	128
  1777     09FC  3480               	retlw	128
  1778     09FD  3480               	retlw	128
  1779     09FE  3400               	retlw	0
  1780     09FF  3400               	retlw	0
  1781     0A00  3400               	retlw	0
  1782     0A01  3401               	retlw	1
  1783     0A02  3402               	retlw	2
  1784     0A03  3404               	retlw	4
  1785     0A04  3400               	retlw	0
  1786     0A05  3400               	retlw	0
  1787     0A06  3400               	retlw	0
  1788     0A07  3400               	retlw	0
  1789     0A08  3400               	retlw	0
  1790     0A09  3420               	retlw	32
  1791     0A0A  3454               	retlw	84
  1792     0A0B  3454               	retlw	84
  1793     0A0C  3454               	retlw	84
  1794     0A0D  3478               	retlw	120
  1795     0A0E  3400               	retlw	0
  1796     0A0F  3400               	retlw	0
  1797     0A10  3400               	retlw	0
  1798     0A11  347F               	retlw	127
  1799     0A12  3448               	retlw	72
  1800     0A13  3444               	retlw	68
  1801     0A14  3444               	retlw	68
  1802     0A15  3438               	retlw	56
  1803     0A16  3400               	retlw	0
  1804     0A17  3400               	retlw	0
  1805     0A18  3400               	retlw	0
  1806     0A19  3438               	retlw	56
  1807     0A1A  3444               	retlw	68
  1808     0A1B  3444               	retlw	68
  1809     0A1C  3428               	retlw	40
  1810     0A1D  3400               	retlw	0
  1811     0A1E  3400               	retlw	0
  1812     0A1F  3400               	retlw	0
  1813     0A20  3400               	retlw	0
  1814     0A21  3438               	retlw	56
  1815     0A22  3444               	retlw	68
  1816     0A23  3444               	retlw	68
  1817     0A24  3448               	retlw	72
  1818     0A25  347F               	retlw	127
  1819     0A26  3400               	retlw	0
  1820     0A27  3400               	retlw	0
  1821     0A28  3400               	retlw	0
  1822     0A29  3438               	retlw	56
  1823     0A2A  3454               	retlw	84
  1824     0A2B  3454               	retlw	84
  1825     0A2C  3454               	retlw	84
  1826     0A2D  3418               	retlw	24
  1827     0A2E  3400               	retlw	0
  1828     0A2F  3400               	retlw	0
  1829     0A30  3400               	retlw	0
  1830     0A31  3408               	retlw	8
  1831     0A32  347E               	retlw	126
  1832     0A33  3409               	retlw	9
  1833     0A34  3402               	retlw	2
  1834     0A35  3400               	retlw	0
  1835     0A36  3400               	retlw	0
  1836     0A37  3400               	retlw	0
  1837     0A38  3400               	retlw	0
  1838     0A39  3418               	retlw	24
  1839     0A3A  34A4               	retlw	164
  1840     0A3B  34A4               	retlw	164
  1841     0A3C  34A4               	retlw	164
  1842     0A3D  347C               	retlw	124
  1843     0A3E  3400               	retlw	0
  1844     0A3F  3400               	retlw	0
  1845     0A40  3400               	retlw	0
  1846     0A41  347F               	retlw	127
  1847     0A42  3408               	retlw	8
  1848     0A43  3404               	retlw	4
  1849     0A44  3404               	retlw	4
  1850     0A45  3478               	retlw	120
  1851     0A46  3400               	retlw	0
  1852     0A47  3400               	retlw	0
  1853     0A48  3400               	retlw	0
  1854     0A49  3400               	retlw	0
  1855     0A4A  347D               	retlw	125
  1856     0A4B  3400               	retlw	0
  1857     0A4C  3400               	retlw	0
  1858     0A4D  3400               	retlw	0
  1859     0A4E  3400               	retlw	0
  1860     0A4F  3400               	retlw	0
  1861     0A50  3400               	retlw	0
  1862     0A51  3480               	retlw	128
  1863     0A52  3484               	retlw	132
  1864     0A53  347D               	retlw	125
  1865     0A54  3400               	retlw	0
  1866     0A55  3400               	retlw	0
  1867     0A56  3400               	retlw	0
  1868     0A57  3400               	retlw	0
  1869     0A58  3400               	retlw	0
  1870     0A59  347F               	retlw	127
  1871     0A5A  3410               	retlw	16
  1872     0A5B  3428               	retlw	40
  1873     0A5C  3444               	retlw	68
  1874     0A5D  3400               	retlw	0
  1875     0A5E  3400               	retlw	0
  1876     0A5F  3400               	retlw	0
  1877     0A60  3400               	retlw	0
  1878     0A61  3441               	retlw	65
  1879     0A62  347F               	retlw	127
  1880     0A63  3440               	retlw	64
  1881     0A64  3400               	retlw	0
  1882     0A65  3400               	retlw	0
  1883     0A66  3400               	retlw	0
  1884     0A67  3400               	retlw	0
  1885     0A68  3400               	retlw	0
  1886     0A69  347C               	retlw	124
  1887     0A6A  3404               	retlw	4
  1888     0A6B  3418               	retlw	24
  1889     0A6C  3404               	retlw	4
  1890     0A6D  3478               	retlw	120
  1891     0A6E  3400               	retlw	0
  1892     0A6F  3400               	retlw	0
  1893     0A70  3400               	retlw	0
  1894     0A71  347C               	retlw	124
  1895     0A72  3408               	retlw	8
  1896     0A73  3404               	retlw	4
  1897     0A74  347C               	retlw	124
  1898     0A75  3400               	retlw	0
  1899     0A76  3400               	retlw	0
  1900     0A77  3400               	retlw	0
  1901     0A78  3400               	retlw	0
  1902     0A79  3438               	retlw	56
  1903     0A7A  3444               	retlw	68
  1904     0A7B  3444               	retlw	68
  1905     0A7C  3438               	retlw	56
  1906     0A7D  3400               	retlw	0
  1907     0A7E  3400               	retlw	0
  1908     0A7F  3400               	retlw	0
  1909     0A80  3400               	retlw	0
  1910     0A81  34FC               	retlw	252
  1911     0A82  3424               	retlw	36
  1912     0A83  3424               	retlw	36
  1913     0A84  3418               	retlw	24
  1914     0A85  3400               	retlw	0
  1915     0A86  3400               	retlw	0
  1916     0A87  3400               	retlw	0
  1917     0A88  3400               	retlw	0
  1918     0A89  3418               	retlw	24
  1919     0A8A  3424               	retlw	36
  1920     0A8B  3424               	retlw	36
  1921     0A8C  34FC               	retlw	252
  1922     0A8D  3400               	retlw	0
  1923     0A8E  3400               	retlw	0
  1924     0A8F  3400               	retlw	0
  1925     0A90  3400               	retlw	0
  1926     0A91  3400               	retlw	0
  1927     0A92  347C               	retlw	124
  1928     0A93  3408               	retlw	8
  1929     0A94  3404               	retlw	4
  1930     0A95  3400               	retlw	0
  1931     0A96  3400               	retlw	0
  1932     0A97  3400               	retlw	0
  1933     0A98  3400               	retlw	0
  1934     0A99  3448               	retlw	72
  1935     0A9A  3454               	retlw	84
  1936     0A9B  3454               	retlw	84
  1937     0A9C  3424               	retlw	36
  1938     0A9D  3400               	retlw	0
  1939     0A9E  3400               	retlw	0
  1940     0A9F  3400               	retlw	0
  1941     0AA0  3400               	retlw	0
  1942     0AA1  3404               	retlw	4
  1943     0AA2  347F               	retlw	127
  1944     0AA3  3444               	retlw	68
  1945     0AA4  3400               	retlw	0
  1946     0AA5  3400               	retlw	0
  1947     0AA6  3400               	retlw	0
  1948     0AA7  3400               	retlw	0
  1949     0AA8  3400               	retlw	0
  1950     0AA9  343C               	retlw	60
  1951     0AAA  3440               	retlw	64
  1952     0AAB  3440               	retlw	64
  1953     0AAC  347C               	retlw	124
  1954     0AAD  3400               	retlw	0
  1955     0AAE  3400               	retlw	0
  1956     0AAF  3400               	retlw	0
  1957     0AB0  3400               	retlw	0
  1958     0AB1  341C               	retlw	28
  1959     0AB2  3420               	retlw	32
  1960     0AB3  3440               	retlw	64
  1961     0AB4  3420               	retlw	32
  1962     0AB5  341C               	retlw	28
  1963     0AB6  3400               	retlw	0
  1964     0AB7  3400               	retlw	0
  1965     0AB8  3400               	retlw	0
  1966     0AB9  343C               	retlw	60
  1967     0ABA  3440               	retlw	64
  1968     0ABB  3430               	retlw	48
  1969     0ABC  3440               	retlw	64
  1970     0ABD  343C               	retlw	60
  1971     0ABE  3400               	retlw	0
  1972     0ABF  3400               	retlw	0
  1973     0AC0  3400               	retlw	0
  1974     0AC1  3444               	retlw	68
  1975     0AC2  3428               	retlw	40
  1976     0AC3  3410               	retlw	16
  1977     0AC4  3428               	retlw	40
  1978     0AC5  3444               	retlw	68
  1979     0AC6  3400               	retlw	0
  1980     0AC7  3400               	retlw	0
  1981     0AC8  3400               	retlw	0
  1982     0AC9  341C               	retlw	28
  1983     0ACA  34A0               	retlw	160
  1984     0ACB  34A0               	retlw	160
  1985     0ACC  347C               	retlw	124
  1986     0ACD  3400               	retlw	0
  1987     0ACE  3400               	retlw	0
  1988     0ACF  3400               	retlw	0
  1989     0AD0  3400               	retlw	0
  1990     0AD1  3444               	retlw	68
  1991     0AD2  3464               	retlw	100
  1992     0AD3  3454               	retlw	84
  1993     0AD4  344C               	retlw	76
  1994     0AD5  3444               	retlw	68
  1995     0AD6  3400               	retlw	0
  1996     0AD7  3400               	retlw	0
  1997     0AD8  3400               	retlw	0
  1998     0AD9  3408               	retlw	8
  1999     0ADA  3436               	retlw	54
  2000     0ADB  3441               	retlw	65
  2001     0ADC  3400               	retlw	0
  2002     0ADD  3400               	retlw	0
  2003     0ADE  3400               	retlw	0
  2004     0ADF  3400               	retlw	0
  2005     0AE0  3400               	retlw	0
  2006     0AE1  3400               	retlw	0
  2007     0AE2  347F               	retlw	127
  2008     0AE3  3400               	retlw	0
  2009     0AE4  3400               	retlw	0
  2010     0AE5  3400               	retlw	0
  2011     0AE6  3400               	retlw	0
  2012     0AE7  3400               	retlw	0
  2013     0AE8  3400               	retlw	0
  2014     0AE9  3441               	retlw	65
  2015     0AEA  3436               	retlw	54
  2016     0AEB  3408               	retlw	8
  2017     0AEC  3400               	retlw	0
  2018     0AED  3400               	retlw	0
  2019     0AEE  3400               	retlw	0
  2020     0AEF  3400               	retlw	0
  2021     0AF0  3400               	retlw	0
  2022     0AF1  3402               	retlw	2
  2023     0AF2  3401               	retlw	1
  2024     0AF3  3401               	retlw	1
  2025     0AF4  3402               	retlw	2
  2026     0AF5  3401               	retlw	1
  2027     0AF6  3400               	retlw	0
  2028     0AF7  3400               	retlw	0
  2029     0AF8  3400               	retlw	0
  2030     0AF9  3402               	retlw	2
  2031     0AFA  3405               	retlw	5
  2032     0AFB  3405               	retlw	5
  2033     0AFC  3402               	retlw	2
  2034     0AFD  3400               	retlw	0
  2035     0AFE  3400               	retlw	0
  2036     0AFF  3400               	retlw	0
  2037     0B00                     __end_of_OledFont:
  2038     0012                     _PIR2bits	set	18
  2039     0011                     _PIR1bits	set	17
  2040     008E                     _TRISCbits	set	142
  2041     009E                     _ADCON1bits	set	158
  2042     008D                     _TRISBbits	set	141
  2043     008C                     _TRISAbits	set	140
  2044     009B                     _ADRESL	set	155
  2045     009C                     _ADRESH	set	156
  2046     009D                     _ADCON0bits	set	157
  2047     04CF                     _SPLLEN	set	1231
  2048     04CE                     _IRCF3	set	1230
  2049     04CD                     _IRCF2	set	1229
  2050     04CC                     _IRCF1	set	1228
  2051     04CB                     _IRCF0	set	1227
  2052     04C9                     _SCS1	set	1225
  2053     04C8                     _SCS0	set	1224
  2054     018E                     _ANSELCbits	set	398
  2055     018D                     _ANSELBbits	set	397
  2056     018C                     _ANSELAbits	set	396
  2057     0211                     _SSPBUF	set	529
  2058     0216                     _SSPCON2bits	set	534
  2059     0214                     _SSPSTATbits	set	532
  2060     0216                     _SSPCON2	set	534
  2061     0215                     _SSPCON1bits	set	533
  2062     0212                     _SSPADD	set	530
  2063     0215                     _SSPCONbits	set	533
  2064     0E20                     _SSPCLKPPSbits	set	3616
  2065     0E21                     _SSPDATPPSbits	set	3617
  2066     0E24                     _RXPPSbits	set	3620
  2067     0E0F                     _PPSLOCKbits	set	3599
  2068     0E0F                     _PPSLOCK	set	3599
  2069     0EA5                     _RC5PPSbits	set	3749
  2070     0EA4                     _RC4PPSbits	set	3748
  2071     0E9A                     _RB2PPSbits	set	3738
  2072     0B00                     STR_1:
  2073     0B00  3454               	retlw	84	;'T'
  2074     0B01  3465               	retlw	101	;'e'
  2075     0B02  346D               	retlw	109	;'m'
  2076     0B03  3470               	retlw	112	;'p'
  2077     0B04  343A               	retlw	58	;':'
  2078     0B05  3420               	retlw	32	;' '
  2079     0B06  3425               	retlw	37	;'%'
  2080     0B07  3464               	retlw	100	;'d'
  2081     0B08  3420               	retlw	32	;' '
  2082     0B09  3443               	retlw	67	;'C'
  2083     0B0A  3400               	retlw	0
  2084                           
  2085                           	psect	stringtext3
  2086     0000                     __pstringtext3:
  2087                           
  2088                           	psect	cinit
  2089     07F2                     start_initialization:	
  2090                           ; #config settings
  2091                           
  2092     07F2                     __initialization:	;BIGRAM
  2093                           
  2094                           ; Clear objects allocated to BIGRAM
  2095     07F2  30F0               	movlw	low (0+9456)
  2096     07F3  0084               	movwf	4
  2097     07F4  3024               	movlw	high (0+9456)
  2098     07F5  0085               	movwf	5
  2099     07F6  3000               	movlw	0
  2100     07F7  00FE               	movwf	btemp
  2101     07F8  3003               	movlw	3
  2102     07F9  00FF               	movwf	btemp+1
  2103     07FA  3193  23C5  3187   	fcall	clear_ram0
  2104     07FD                     end_of_initialization:	
  2105                           ;End of C runtime variable initialization code
  2106                           
  2107     07FD                     __end_of__initialization:
  2108     07FD  0020               	movlb	0
  2109     07FE  3180  28E2         	ljmp	_main	;jump to C main() function
  2110                           
  2111                           	psect	clrtext
  2112     13C5                     clear_ram0:	
  2113                           ;	Called with FSR0 containing the base address, and
  2114                           ;	btemp/btemp+1 has the size to clear
  2115                           
  2116     13C5  0064               	clrwdt	;clear the watchdog before getting into this loop
  2117     13C6                     clrloop0:
  2118     13C6  0180               	clrf	0	;clear RAM location pointed to by FSR
  2119     13C7  3101               	addfsr 0,1
  2120     13C8  3001               	movlw	1
  2121     13C9  02FE               	subwf	btemp,f
  2122     13CA  3000               	movlw	0
  2123     13CB  3BFF               	subwfb	btemp+1,f
  2124     13CC  087F               	movf	btemp+1,w
  2125     13CD  047E               	iorwf	btemp,w
  2126     13CE  1D03               	skipz
  2127     13CF  2BC6               	goto	clrloop0	;have we reached the end yet?
  2128     13D0  3400               	retlw	0	;all done for this memory range, return
  2129                           
  2130                           	psect	cstackBANK1
  2131     00A0                     __pcstackBANK1:
  2132     00A0                     OLED_Printf_Line@temp:
  2133                           
  2134                           ; 6 bytes @ 0x0
  2135     00A0                     	ds	6
  2136     00A6                     OLED_Printf_Line@temp_357:
  2137                           
  2138                           ; 6 bytes @ 0x6
  2139     00A6                     	ds	6
  2140     00AC                     OLED_Printf_Line@temp_360:
  2141                           
  2142                           ; 5 bytes @ 0xC
  2143     00AC                     	ds	5
  2144     00B1                     OLED_Printf_Line@str:
  2145                           
  2146                           ; 1 bytes @ 0x11
  2147     00B1                     	ds	1
  2148     00B2                     OLED_Printf_Line@col:
  2149                           
  2150                           ; 1 bytes @ 0x12
  2151     00B2                     	ds	1
  2152     00B3                     OLED_Printf_Line@p:
  2153                           
  2154                           ; 1 bytes @ 0x13
  2155     00B3                     	ds	1
  2156     00B4                     OLED_Printf_Line@val_350:
  2157                           
  2158                           ; 4 bytes @ 0x14
  2159     00B4                     	ds	4
  2160     00B8                     OLED_Printf_Line@val_356:
  2161                           
  2162                           ; 2 bytes @ 0x18
  2163     00B8                     	ds	2
  2164     00BA                     OLED_Printf_Line@nibble:
  2165                           
  2166                           ; 1 bytes @ 0x1A
  2167     00BA                     	ds	1
  2168     00BB                     OLED_Printf_Line@ch:
  2169                           
  2170                           ; 1 bytes @ 0x1B
  2171     00BB                     	ds	1
  2172     00BC                     OLED_Printf_Line@i:
  2173                           
  2174                           ; 1 bytes @ 0x1C
  2175     00BC                     	ds	1
  2176     00BD                     OLED_Printf_Line@i_352:
  2177                           
  2178                           ; 1 bytes @ 0x1D
  2179     00BD                     	ds	1
  2180     00BE                     OLED_Printf_Line@i_355:
  2181                           
  2182                           ; 1 bytes @ 0x1E
  2183     00BE                     	ds	1
  2184     00BF                     OLED_Printf_Line@i_358:
  2185                           
  2186                           ; 1 bytes @ 0x1F
  2187     00BF                     	ds	1
  2188     00C0                     OLED_Printf_Line@i_361:
  2189                           
  2190                           ; 1 bytes @ 0x20
  2191     00C0                     	ds	1
  2192     00C1                     OLED_Printf_Line@val_353:
  2193                           
  2194                           ; 4 bytes @ 0x21
  2195     00C1                     	ds	4
  2196     00C5                     OLED_Printf_Line@val:
  2197                           
  2198                           ; 2 bytes @ 0x25
  2199     00C5                     	ds	2
  2200     00C7                     OLED_Printf_Line@line:
  2201                           
  2202                           ; 1 bytes @ 0x27
  2203     00C7                     	ds	1
  2204     00C8                     OLED_Printf_Line@ap:
  2205                           
  2206                           ; 1 bytes @ 0x28
  2207     00C8                     	ds	1
  2208     00C9                     OLED_Printf_Line@src:
  2209                           
  2210                           ; 2 bytes @ 0x29
  2211     00C9                     	ds	2
  2212     00CB                     OLED_Printf_Line@dst:
  2213                           
  2214                           ; 1 bytes @ 0x2B
  2215     00CB                     	ds	1
  2216     00CC                     ??_main:
  2217                           
  2218                           ; 1 bytes @ 0x2C
  2219     00CC                     	ds	2
  2220     00CE                     main@celcius:
  2221                           
  2222                           ; 4 bytes @ 0x2E
  2223     00CE                     	ds	4
  2224     00D2                     main@voltage:
  2225                           
  2226                           ; 4 bytes @ 0x32
  2227     00D2                     	ds	4
  2228     00D6                     main@LM35:
  2229                           
  2230                           ; 2 bytes @ 0x36
  2231     00D6                     	ds	2
  2232                           
  2233                           	psect	cstackCOMMON
  2234     0070                     __pcstackCOMMON:
  2235     0070                     ?_I2C_ClearErrors:
  2236     0070                     ??_I2C_ClearErrors:	
  2237                           ; 1 bytes @ 0x0
  2238                           
  2239     0070                     ?_OLED_Clear:	
  2240                           ; 1 bytes @ 0x0
  2241                           
  2242     0070                     ?_I2C_WaitIF:	
  2243                           ; 1 bytes @ 0x0
  2244                           
  2245     0070                     ?_I2C_Init:	
  2246                           ; 1 bytes @ 0x0
  2247                           
  2248     0070                     ??_I2C_Init:	
  2249                           ; 1 bytes @ 0x0
  2250                           
  2251     0070                     ?_I2C_WaitIdle:	
  2252                           ; 1 bytes @ 0x0
  2253                           
  2254     0070                     ?_I2C_Start:	
  2255                           ; 1 bytes @ 0x0
  2256                           
  2257     0070                     ?_I2C_Stop:	
  2258                           ; 1 bytes @ 0x0
  2259                           
  2260     0070                     ?_I2C_WriteByte:	
  2261                           ; 1 bytes @ 0x0
  2262                           
  2263     0070                     ?_SSD1306_CtrlW:	
  2264                           ; 1 bytes @ 0x0
  2265                           
  2266     0070                     ??_SSD1306_CtrlW:	
  2267                           ; 1 bytes @ 0x0
  2268                           
  2269     0070                     ?_OLED_Command:	
  2270                           ; 1 bytes @ 0x0
  2271                           
  2272     0070                     ?_OLED_SetOrientation:	
  2273                           ; 1 bytes @ 0x0
  2274                           
  2275     0070                     ?_OLED_Init:	
  2276                           ; 1 bytes @ 0x0
  2277                           
  2278     0070                     ?_OLED_UpdateLine:	
  2279                           ; 1 bytes @ 0x0
  2280                           
  2281     0070                     ?_internal_32:	
  2282                           ; 1 bytes @ 0x0
  2283                           
  2284     0070                     ??_internal_32:	
  2285                           ; 1 bytes @ 0x0
  2286                           
  2287     0070                     ?_ADC_ConfigurePin:	
  2288                           ; 1 bytes @ 0x0
  2289                           
  2290     0070                     ??_ADC_ConfigurePin:	
  2291                           ; 1 bytes @ 0x0
  2292                           
  2293     0070                     ?_ADC_Init:	
  2294                           ; 1 bytes @ 0x0
  2295                           
  2296     0070                     ??_ADC_Init:	
  2297                           ; 1 bytes @ 0x0
  2298                           
  2299     0070                     ?_initMain:	
  2300                           ; 1 bytes @ 0x0
  2301                           
  2302     0070                     ?_main:	
  2303                           ; 1 bytes @ 0x0
  2304                           
  2305     0070                     ?_memset:	
  2306                           ; 1 bytes @ 0x0
  2307                           
  2308     0070                     ?_strcmp:	
  2309                           ; 2 bytes @ 0x0
  2310                           
  2311     0070                     ?_strcpy:	
  2312                           ; 2 bytes @ 0x0
  2313                           
  2314     0070                     ?_memcpy:	
  2315                           ; 2 bytes @ 0x0
  2316                           
  2317     0070                     ?__Umul8_16:	
  2318                           ; 2 bytes @ 0x0
  2319                           
  2320     0070                     ?___awdiv:	
  2321                           ; 2 bytes @ 0x0
  2322                           
  2323     0070                     ?___awmod:	
  2324                           ; 2 bytes @ 0x0
  2325                           
  2326     0070                     ?___lwdiv:	
  2327                           ; 2 bytes @ 0x0
  2328                           
  2329     0070                     ?___lwmod:	
  2330                           ; 2 bytes @ 0x0
  2331                           
  2332     0070                     ?___lldiv:	
  2333                           ; 2 bytes @ 0x0
  2334                           
  2335     0070                     ?___aldiv:	
  2336                           ; 4 bytes @ 0x0
  2337                           
  2338     0070                     ?___almod:	
  2339                           ; 4 bytes @ 0x0
  2340                           
  2341     0070                     ?___fltol:	
  2342                           ; 4 bytes @ 0x0
  2343                           
  2344     0070                     ?___llmod:	
  2345                           ; 4 bytes @ 0x0
  2346                           
  2347     0070                     ?___xxtofl:	
  2348                           ; 4 bytes @ 0x0
  2349                           
  2350     0070                     __Umul8_16@multiplicand:	
  2351                           ; 4 bytes @ 0x0
  2352                           
  2353     0070                     I2C_WaitIF@timeout_ms:	
  2354                           ; 1 bytes @ 0x0
  2355                           
  2356     0070                     I2C_WaitIdle@timeout_ms:	
  2357                           ; 2 bytes @ 0x0
  2358                           
  2359     0070                     ___awdiv@divisor:	
  2360                           ; 2 bytes @ 0x0
  2361                           
  2362     0070                     ___awmod@divisor:	
  2363                           ; 2 bytes @ 0x0
  2364                           
  2365     0070                     ___lwdiv@divisor:	
  2366                           ; 2 bytes @ 0x0
  2367                           
  2368     0070                     ___lwmod@divisor:	
  2369                           ; 2 bytes @ 0x0
  2370                           
  2371     0070                     memcpy@d1:	
  2372                           ; 2 bytes @ 0x0
  2373                           
  2374     0070                     memset@dest:	
  2375                           ; 2 bytes @ 0x0
  2376                           
  2377     0070                     strcmp@r:	
  2378                           ; 2 bytes @ 0x0
  2379                           
  2380     0070                     strcpy@dest:	
  2381                           ; 2 bytes @ 0x0
  2382                           
  2383     0070                     ___lldiv@divisor:	
  2384                           ; 2 bytes @ 0x0
  2385                           
  2386     0070                     ___aldiv@divisor:	
  2387                           ; 4 bytes @ 0x0
  2388                           
  2389     0070                     ___almod@divisor:	
  2390                           ; 4 bytes @ 0x0
  2391                           
  2392     0070                     ___fltol@f1:	
  2393                           ; 4 bytes @ 0x0
  2394                           
  2395     0070                     ___llmod@divisor:	
  2396                           ; 4 bytes @ 0x0
  2397                           
  2398     0070                     ___xxtofl@val:	
  2399                           ; 4 bytes @ 0x0
  2400                           
  2401                           
  2402                           ; 4 bytes @ 0x0
  2403     0070                     	ds	2
  2404     0072                     ??_strcmp:
  2405     0072                     ??__Umul8_16:	
  2406                           ; 1 bytes @ 0x2
  2407                           
  2408     0072                     ??_I2C_WaitIF:	
  2409                           ; 1 bytes @ 0x2
  2410                           
  2411     0072                     ??_I2C_WaitIdle:	
  2412                           ; 1 bytes @ 0x2
  2413                           
  2414     0072                     ADC_ConfigurePin@channel:	
  2415                           ; 1 bytes @ 0x2
  2416                           
  2417     0072                     strcpy@src:	
  2418                           ; 1 bytes @ 0x2
  2419                           
  2420     0072                     ___awdiv@dividend:	
  2421                           ; 1 bytes @ 0x2
  2422                           
  2423     0072                     ___awmod@dividend:	
  2424                           ; 2 bytes @ 0x2
  2425                           
  2426     0072                     ___lwdiv@dividend:	
  2427                           ; 2 bytes @ 0x2
  2428                           
  2429     0072                     ___lwmod@dividend:	
  2430                           ; 2 bytes @ 0x2
  2431                           
  2432     0072                     memcpy@s1:	
  2433                           ; 2 bytes @ 0x2
  2434                           
  2435     0072                     memset@c:	
  2436                           ; 2 bytes @ 0x2
  2437                           
  2438                           
  2439                           ; 2 bytes @ 0x2
  2440     0072                     	ds	1
  2441     0073                     ??_strcpy:
  2442     0073                     ??_I2C_Start:	
  2443                           ; 1 bytes @ 0x3
  2444                           
  2445     0073                     ??_I2C_Stop:	
  2446                           ; 1 bytes @ 0x3
  2447                           
  2448     0073                     ??_I2C_WriteByte:	
  2449                           ; 1 bytes @ 0x3
  2450                           
  2451     0073                     ??_initMain:	
  2452                           ; 1 bytes @ 0x3
  2453                           
  2454     0073                     I2C_Start@st:	
  2455                           ; 1 bytes @ 0x3
  2456                           
  2457     0073                     I2C_Stop@st:	
  2458                           ; 1 bytes @ 0x3
  2459                           
  2460     0073                     I2C_WriteByte@data:	
  2461                           ; 1 bytes @ 0x3
  2462                           
  2463     0073                     strcmp@l:	
  2464                           ; 1 bytes @ 0x3
  2465                           
  2466                           
  2467                           ; 1 bytes @ 0x3
  2468     0073                     	ds	1
  2469     0074                     ??___awdiv:
  2470     0074                     ??___awmod:	
  2471                           ; 1 bytes @ 0x4
  2472                           
  2473     0074                     ??___fltol:	
  2474                           ; 1 bytes @ 0x4
  2475                           
  2476     0074                     ??___lwdiv:	
  2477                           ; 1 bytes @ 0x4
  2478                           
  2479     0074                     ??___lwmod:	
  2480                           ; 1 bytes @ 0x4
  2481                           
  2482     0074                     ??___xxtofl:	
  2483                           ; 1 bytes @ 0x4
  2484                           
  2485     0074                     I2C_WriteByte@st:	
  2486                           ; 1 bytes @ 0x4
  2487                           
  2488     0074                     __Umul8_16@product:	
  2489                           ; 1 bytes @ 0x4
  2490                           
  2491     0074                     memcpy@n:	
  2492                           ; 2 bytes @ 0x4
  2493                           
  2494     0074                     memset@n:	
  2495                           ; 2 bytes @ 0x4
  2496                           
  2497     0074                     ___lldiv@dividend:	
  2498                           ; 2 bytes @ 0x4
  2499                           
  2500     0074                     ___aldiv@dividend:	
  2501                           ; 4 bytes @ 0x4
  2502                           
  2503     0074                     ___almod@dividend:	
  2504                           ; 4 bytes @ 0x4
  2505                           
  2506     0074                     ___llmod@dividend:	
  2507                           ; 4 bytes @ 0x4
  2508                           
  2509                           
  2510                           ; 4 bytes @ 0x4
  2511     0074                     	ds	1
  2512     0075                     ??_OLED_Command:
  2513     0075                     ?_OLED_WriteData:	
  2514                           ; 1 bytes @ 0x5
  2515                           
  2516     0075                     OLED_Command@cmd:	
  2517                           ; 1 bytes @ 0x5
  2518                           
  2519     0075                     ___awdiv@counter:	
  2520                           ; 1 bytes @ 0x5
  2521                           
  2522     0075                     ___awmod@counter:	
  2523                           ; 1 bytes @ 0x5
  2524                           
  2525     0075                     ___lwmod@counter:	
  2526                           ; 1 bytes @ 0x5
  2527                           
  2528     0075                     OLED_WriteData@data:	
  2529                           ; 1 bytes @ 0x5
  2530                           
  2531     0075                     ___lwdiv@quotient:	
  2532                           ; 2 bytes @ 0x5
  2533                           
  2534     0075                     strcpy@d:	
  2535                           ; 2 bytes @ 0x5
  2536                           
  2537                           
  2538                           ; 2 bytes @ 0x5
  2539     0075                     	ds	1
  2540     0076                     ??_memset:
  2541     0076                     ??_memcpy:	
  2542                           ; 1 bytes @ 0x6
  2543                           
  2544     0076                     OLED_Command@st:	
  2545                           ; 1 bytes @ 0x6
  2546                           
  2547     0076                     ___awdiv@sign:	
  2548                           ; 1 bytes @ 0x6
  2549                           
  2550     0076                     ___awmod@sign:	
  2551                           ; 1 bytes @ 0x6
  2552                           
  2553     0076                     __Umul8_16@word_mpld:	
  2554                           ; 1 bytes @ 0x6
  2555                           
  2556     0076                     memcpy@d:	
  2557                           ; 2 bytes @ 0x6
  2558                           
  2559     0076                     memset@p:	
  2560                           ; 2 bytes @ 0x6
  2561                           
  2562                           
  2563                           ; 2 bytes @ 0x6
  2564     0076                     	ds	1
  2565     0077                     ??_OLED_SetOrientation:
  2566     0077                     ?_OLED_YX:	
  2567                           ; 1 bytes @ 0x7
  2568                           
  2569     0077                     OLED_YX@col_char:	
  2570                           ; 1 bytes @ 0x7
  2571                           
  2572     0077                     ___lwdiv@counter:	
  2573                           ; 1 bytes @ 0x7
  2574                           
  2575     0077                     OLED_WriteData@len:	
  2576                           ; 1 bytes @ 0x7
  2577                           
  2578     0077                     ___awdiv@quotient:	
  2579                           ; 2 bytes @ 0x7
  2580                           
  2581                           
  2582                           ; 2 bytes @ 0x7
  2583     0077                     	ds	1
  2584     0078                     ??_OLED_YX:
  2585     0078                     ??___lldiv:	
  2586                           ; 1 bytes @ 0x8
  2587                           
  2588     0078                     ??___aldiv:	
  2589                           ; 1 bytes @ 0x8
  2590                           
  2591     0078                     ??___almod:	
  2592                           ; 1 bytes @ 0x8
  2593                           
  2594     0078                     ??___llmod:	
  2595                           ; 1 bytes @ 0x8
  2596                           
  2597     0078                     ___fltol@sign1:	
  2598                           ; 1 bytes @ 0x8
  2599                           
  2600     0078                     __Umul8_16@multiplier:	
  2601                           ; 1 bytes @ 0x8
  2602                           
  2603     0078                     ___xxtofl@sign:	
  2604                           ; 1 bytes @ 0x8
  2605                           
  2606     0078                     memcpy@s:	
  2607                           ; 1 bytes @ 0x8
  2608                           
  2609                           
  2610                           ; 2 bytes @ 0x8
  2611     0078                     	ds	1
  2612     0079                     ??_OLED_WriteData:
  2613     0079                     OLED_SetOrientation@o:	
  2614                           ; 1 bytes @ 0x9
  2615                           
  2616     0079                     OLED_YX@page:	
  2617                           ; 1 bytes @ 0x9
  2618                           
  2619     0079                     ___almod@counter:	
  2620                           ; 1 bytes @ 0x9
  2621                           
  2622     0079                     ___fltol@exp1:	
  2623                           ; 1 bytes @ 0x9
  2624                           
  2625     0079                     ___llmod@counter:	
  2626                           ; 1 bytes @ 0x9
  2627                           
  2628     0079                     ___xxtofl@exp:	
  2629                           ; 1 bytes @ 0x9
  2630                           
  2631     0079                     OLED_WriteData@i:	
  2632                           ; 1 bytes @ 0x9
  2633                           
  2634     0079                     ___lldiv@quotient:	
  2635                           ; 2 bytes @ 0x9
  2636                           
  2637                           
  2638                           ; 4 bytes @ 0x9
  2639     0079                     	ds	1
  2640     007A                     OLED_YX@col:
  2641     007A                     ___almod@sign:	
  2642                           ; 1 bytes @ 0xA
  2643                           
  2644     007A                     memcpy@tmp:	
  2645                           ; 1 bytes @ 0xA
  2646                           
  2647     007A                     ___xxtofl@arg:	
  2648                           ; 1 bytes @ 0xA
  2649                           
  2650                           
  2651                           ; 4 bytes @ 0xA
  2652     007A                     	ds	1
  2653     007B                     OLED_WriteData@st:
  2654                           
  2655                           ; 1 bytes @ 0xB
  2656     007B                     	ds	1
  2657     007C                     OLED_Clear@p:
  2658     007C                     OLED_UpdateLine@page:	
  2659                           ; 1 bytes @ 0xC
  2660                           
  2661                           
  2662                           ; 1 bytes @ 0xC
  2663     007C                     	ds	1
  2664     007D                     ??_OLED_Init:
  2665     007D                     ___lldiv@counter:	
  2666                           ; 1 bytes @ 0xD
  2667                           
  2668                           
  2669                           ; 1 bytes @ 0xD
  2670     007D                     	ds	1
  2671                           
  2672                           	psect	cstackBANK0
  2673     0020                     __pcstackBANK0:
  2674     0020                     ??_OLED_Clear:
  2675     0020                     ??_OLED_UpdateLine:	
  2676                           ; 1 bytes @ 0x0
  2677                           
  2678     0020                     ?_ADC_Read_Averaged:	
  2679                           ; 1 bytes @ 0x0
  2680                           
  2681     0020                     ?___flmul:	
  2682                           ; 2 bytes @ 0x0
  2683                           
  2684     0020                     ADC_Read_Averaged@samples:	
  2685                           ; 4 bytes @ 0x0
  2686                           
  2687     0020                     ___aldiv@counter:	
  2688                           ; 1 bytes @ 0x0
  2689                           
  2690     0020                     ___flmul@b:	
  2691                           ; 1 bytes @ 0x0
  2692                           
  2693                           
  2694                           ; 4 bytes @ 0x0
  2695     0020                     	ds	1
  2696     0021                     ___aldiv@sign:
  2697                           
  2698                           ; 1 bytes @ 0x1
  2699     0021                     	ds	1
  2700     0022                     ??_ADC_Read_Averaged:
  2701     0022                     ___aldiv@quotient:	
  2702                           ; 1 bytes @ 0x2
  2703                           
  2704                           
  2705                           ; 4 bytes @ 0x2
  2706     0022                     	ds	2
  2707     0024                     ___flmul@a:
  2708                           
  2709                           ; 4 bytes @ 0x4
  2710     0024                     	ds	2
  2711     0026                     ?_OLED_Printf_Line:
  2712     0026                     ADC_Read_Averaged@channel:	
  2713                           ; 1 bytes @ 0x6
  2714                           
  2715     0026                     OLED_Printf_Line@fmt:	
  2716                           ; 1 bytes @ 0x6
  2717                           
  2718                           
  2719                           ; 2 bytes @ 0x6
  2720     0026                     	ds	1
  2721     0027                     ADC_Read_Averaged@sum:
  2722                           
  2723                           ; 4 bytes @ 0x7
  2724     0027                     	ds	1
  2725     0028                     ??___flmul:
  2726                           
  2727                           ; 1 bytes @ 0x8
  2728     0028                     	ds	2
  2729     002A                     ??_OLED_Printf_Line:
  2730                           
  2731                           ; 1 bytes @ 0xA
  2732     002A                     	ds	1
  2733     002B                     ADC_Read_Averaged@i:
  2734                           
  2735                           ; 1 bytes @ 0xB
  2736     002B                     	ds	2
  2737     002D                     ___flmul@sign:
  2738                           
  2739                           ; 1 bytes @ 0xD
  2740     002D                     	ds	1
  2741     002E                     ___flmul@grs:
  2742                           
  2743                           ; 4 bytes @ 0xE
  2744     002E                     	ds	4
  2745     0032                     ___flmul@aexp:
  2746                           
  2747                           ; 1 bytes @ 0x12
  2748     0032                     	ds	1
  2749     0033                     ___flmul@bexp:
  2750                           
  2751                           ; 1 bytes @ 0x13
  2752     0033                     	ds	1
  2753     0034                     ___flmul@prod:
  2754                           
  2755                           ; 4 bytes @ 0x14
  2756     0034                     	ds	2
  2757     0036                     OLED_Printf_Line@temp_351:
  2758                           
  2759                           ; 11 bytes @ 0x16
  2760     0036                     	ds	2
  2761     0038                     ___flmul@temp:
  2762                           
  2763                           ; 2 bytes @ 0x18
  2764     0038                     	ds	2
  2765     003A                     ?___fldiv:
  2766     003A                     ___fldiv@a:	
  2767                           ; 4 bytes @ 0x1A
  2768                           
  2769                           
  2770                           ; 4 bytes @ 0x1A
  2771     003A                     	ds	4
  2772     003E                     ___fldiv@b:
  2773                           
  2774                           ; 4 bytes @ 0x1E
  2775     003E                     	ds	3
  2776     0041                     OLED_Printf_Line@temp_354:
  2777                           
  2778                           ; 11 bytes @ 0x21
  2779     0041                     	ds	1
  2780     0042                     ??___fldiv:
  2781                           
  2782                           ; 1 bytes @ 0x22
  2783     0042                     	ds	5
  2784     0047                     ___fldiv@rem:
  2785                           
  2786                           ; 4 bytes @ 0x27
  2787     0047                     	ds	4
  2788     004B                     ___fldiv@sign:
  2789                           
  2790                           ; 1 bytes @ 0x2B
  2791     004B                     	ds	1
  2792     004C                     ___fldiv@new_exp:
  2793     004C                     OLED_Printf_Line@buf:	
  2794                           ; 2 bytes @ 0x2C
  2795                           
  2796                           
  2797                           ; 32 bytes @ 0x2C
  2798     004C                     	ds	2
  2799     004E                     ___fldiv@grs:
  2800                           
  2801                           ; 4 bytes @ 0x2E
  2802     004E                     	ds	4
  2803     0052                     ___fldiv@bexp:
  2804                           
  2805                           ; 1 bytes @ 0x32
  2806     0052                     	ds	1
  2807     0053                     ___fldiv@aexp:
  2808                           
  2809                           ; 1 bytes @ 0x33
  2810     0053                     	ds	25
  2811     006C                     _OLED_Printf_Line$363:
  2812                           
  2813                           ; 2 bytes @ 0x4C
  2814     006C                     	ds	2
  2815     006E                     OLED_Printf_Line@val_359:
  2816                           
  2817                           ; 2 bytes @ 0x4E
  2818     006E                     	ds	2
  2819                           
  2820                           	psect	maintext
  2821     00E2                     __pmaintext:	
  2822 ;;
  2823 ;;Main: autosize = 0, tempsize = 2, incstack = 0, save=0
  2824 ;;
  2825 ;; *************** function _main *****************
  2826 ;; Defined at:
  2827 ;;		line 107 in file "main.c"
  2828 ;; Parameters:    Size  Location     Type
  2829 ;;		None
  2830 ;; Auto vars:     Size  Location     Type
  2831 ;;  voltage         4   50[BANK1 ] float 
  2832 ;;  Temperature    10    0        unsigned char [10]
  2833 ;;  celcius         4   46[BANK1 ] float 
  2834 ;;  LM35            2   54[BANK1 ] unsigned short 
  2835 ;;  i               2    0        int 
  2836 ;; Return value:  Size  Location     Type
  2837 ;;                  1    wreg      void 
  2838 ;; Registers used:
  2839 ;;		wreg, fsr0l, fsr0h, fsr1l, fsr1h, status,2, status,0, pclath, cstack
  2840 ;; Tracked objects:
  2841 ;;		On entry : B1F/0
  2842 ;;		On exit  : 0/0
  2843 ;;		Unchanged: 0/0
  2844 ;; Data sizes:     COMMON   BANK0   BANK1   BANK2   BANK3   BANK4   BANK5   BANK6   BANK7   BANK8   BANK9  BANK10  BANK1
      +1  BANK12  BANK13  BANK14  BANK15  BANK16  BANK17  BANK18  BANK19  BANK20  BANK21  BANK22  BANK23  BANK24  BANK25
  2845 ;;      Params:         0       0       0       0       0       0       0       0       0       0       0       0       
      +0       0       0       0       0       0       0       0       0       0       0       0       0       0       0
  2846 ;;      Locals:         0       0      10       0       0       0       0       0       0       0       0       0       
      +0       0       0       0       0       0       0       0       0       0       0       0       0       0       0
  2847 ;;      Temps:          0       0       2       0       0       0       0       0       0       0       0       0       
      +0       0       0       0       0       0       0       0       0       0       0       0       0       0       0
  2848 ;;      Totals:         0       0      12       0       0       0       0       0       0       0       0       0       
      +0       0       0       0       0       0       0       0       0       0       0       0       0       0       0
  2849 ;;Total ram usage:       12 bytes
  2850 ;; Hardware stack levels required when called: 6
  2851 ;; This function calls:
  2852 ;;		_ADC_Init
  2853 ;;		_ADC_Read_Averaged
  2854 ;;		_I2C_Init
  2855 ;;		_OLED_Clear
  2856 ;;		_OLED_Init
  2857 ;;		_OLED_Printf_Line
  2858 ;;		_OLED_SetOrientation
  2859 ;;		___fldiv
  2860 ;;		___flmul
  2861 ;;		___fltol
  2862 ;;		___xxtofl
  2863 ;;		_initMain
  2864 ;; This function is called by:
  2865 ;;		Startup code after reset
  2866 ;; This function uses a non-reentrant model
  2867 ;;
  2868                           
  2869     00E2                     _main:	
  2870                           ;psect for function _main
  2871                           
  2872     00E2                     l3773:	
  2873                           ;incstack = 0
  2874                           ; Regs used in _main: [wreg-fsr1h+status,2+status,0+pclath+cstack]
  2875                           
  2876                           
  2877                           ;main.c: 109:     initMain();
  2878     00E2  3196  266B  3180   	fcall	_initMain
  2879     00E5                     l3775:
  2880                           
  2881                           ;main.c: 110:     I2C_Init();
  2882     00E5  3193  23D1  3180   	fcall	_I2C_Init
  2883     00E8                     l3777:
  2884                           
  2885                           ;main.c: 112:     OLED_Init();
  2886     00E8  318C  24D7  3180   	fcall	_OLED_Init
  2887     00EB                     l3779:
  2888                           
  2889                           ;main.c: 113:     OLED_SetOrientation(OLED_ORIENT_0);
  2890     00EB  3000               	movlw	0
  2891     00EC  3195  25E0  3180   	fcall	_OLED_SetOrientation
  2892     00EF                     l3781:
  2893                           
  2894                           ;main.c: 114:     OLED_Clear();
  2895     00EF  3196  26B6  3180   	fcall	_OLED_Clear
  2896                           
  2897                           ;main.c: 116:     ADC_Init();
  2898     00F2  3193  23BB  3180   	fcall	_ADC_Init
  2899     00F5                     l384:	
  2900                           ;main.c: 118:     uint16_t LM35;;main.c: 119:     char Temperature[10];;main.c: 120:    
      +                           float celcius;;main.c: 121:     int i;;main.c: 123:    while (1)
  2901                           
  2902                           
  2903                           ;main.c: 124: {;main.c: 125:     LM35 = ADC_Read_Averaged(ADC_AN0, 8);
  2904     00F5  3008               	movlw	8
  2905     00F6  0020               	movlb	0	; select bank0
  2906     00F7  00A0               	movwf	ADC_Read_Averaged@samples
  2907     00F8  3000               	movlw	0
  2908     00F9  318B  23FA  3180   	fcall	_ADC_Read_Averaged
  2909     00FC  0020               	movlb	0	; select bank0
  2910     00FD  0821               	movf	?_ADC_Read_Averaged+1,w
  2911     00FE  0021               	movlb	1	; select bank1
  2912     00FF  00D7               	movwf	(main@LM35+1)^(0+128)
  2913     0100  0020               	movlb	0	; select bank0
  2914     0101  0820               	movf	?_ADC_Read_Averaged,w
  2915     0102  0021               	movlb	1	; select bank1
  2916     0103  00D6               	movwf	main@LM35^(0+128)
  2917                           
  2918                           ;main.c: 127:     float voltage = (LM35 * 5.0) / 1023.0;
  2919     0104  3044               	movlw	68
  2920     0105  0020               	movlb	0	; select bank0
  2921     0106  00BD               	movwf	___fldiv@a+3
  2922     0107  307F               	movlw	127
  2923     0108  00BC               	movwf	___fldiv@a+2
  2924     0109  30C0               	movlw	192
  2925     010A  00BB               	movwf	___fldiv@a+1
  2926     010B  3000               	movlw	0
  2927     010C  00BA               	movwf	___fldiv@a
  2928     010D  3040               	movlw	64
  2929     010E  00A3               	movwf	___flmul@b+3
  2930     010F  30A0               	movlw	160
  2931     0110  00A2               	movwf	___flmul@b+2
  2932     0111  3000               	movlw	0
  2933     0112  00A1               	movwf	___flmul@b+1
  2934     0113  3000               	movlw	0
  2935     0114  00A0               	movwf	___flmul@b
  2936     0115  0021               	movlb	1	; select bank1
  2937     0116  0856               	movf	main@LM35^(0+128),w
  2938     0117  00F0               	movwf	___xxtofl@val
  2939     0118  0857               	movf	(main@LM35+1)^(0+128),w
  2940     0119  00F1               	movwf	___xxtofl@val+1
  2941     011A  01F2               	clrf	___xxtofl@val+2
  2942     011B  01F3               	clrf	___xxtofl@val+3
  2943     011C  3000               	movlw	0
  2944     011D  3180  2038  3180   	fcall	___xxtofl
  2945     0120  0873               	movf	?___xxtofl+3,w
  2946     0121  0020               	movlb	0	; select bank0
  2947     0122  00A7               	movwf	___flmul@a+3
  2948     0123  0872               	movf	?___xxtofl+2,w
  2949     0124  00A6               	movwf	___flmul@a+2
  2950     0125  0871               	movf	?___xxtofl+1,w
  2951     0126  00A5               	movwf	___flmul@a+1
  2952     0127  0870               	movf	?___xxtofl,w
  2953     0128  00A4               	movwf	___flmul@a
  2954     0129  3181  219E  3180   	fcall	___flmul
  2955     012C  0020               	movlb	0	; select bank0
  2956     012D  0823               	movf	?___flmul+3,w
  2957     012E  00C1               	movwf	___fldiv@b+3
  2958     012F  0822               	movf	?___flmul+2,w
  2959     0130  00C0               	movwf	___fldiv@b+2
  2960     0131  0821               	movf	?___flmul+1,w
  2961     0132  00BF               	movwf	___fldiv@b+1
  2962     0133  0820               	movf	?___flmul,w
  2963     0134  00BE               	movwf	___fldiv@b
  2964     0135  318E  2656  3180   	fcall	___fldiv
  2965     0138  0020               	movlb	0	; select bank0
  2966     0139  083D               	movf	?___fldiv+3,w
  2967     013A  0021               	movlb	1	; select bank1
  2968     013B  00D5               	movwf	(main@voltage+3)^(0+128)
  2969     013C  0020               	movlb	0	; select bank0
  2970     013D  083C               	movf	?___fldiv+2,w
  2971     013E  0021               	movlb	1	; select bank1
  2972     013F  00D4               	movwf	(main@voltage+2)^(0+128)
  2973     0140  0020               	movlb	0	; select bank0
  2974     0141  083B               	movf	?___fldiv+1,w
  2975     0142  0021               	movlb	1	; select bank1
  2976     0143  00D3               	movwf	(main@voltage+1)^(0+128)
  2977     0144  0020               	movlb	0	; select bank0
  2978     0145  083A               	movf	?___fldiv,w
  2979     0146  0021               	movlb	1	; select bank1
  2980     0147  00D2               	movwf	main@voltage^(0+128)
  2981                           
  2982                           ;main.c: 128:     celcius = voltage * 100.0;
  2983     0148  3042               	movlw	66
  2984     0149  0020               	movlb	0	; select bank0
  2985     014A  00A3               	movwf	___flmul@b+3
  2986     014B  30C8               	movlw	200
  2987     014C  00A2               	movwf	___flmul@b+2
  2988     014D  3000               	movlw	0
  2989     014E  00A1               	movwf	___flmul@b+1
  2990     014F  3000               	movlw	0
  2991     0150  00A0               	movwf	___flmul@b
  2992     0151  0021               	movlb	1	; select bank1
  2993     0152  0855               	movf	(main@voltage+3)^(0+128),w
  2994     0153  0020               	movlb	0	; select bank0
  2995     0154  00A7               	movwf	___flmul@a+3
  2996     0155  0021               	movlb	1	; select bank1
  2997     0156  0854               	movf	(main@voltage+2)^(0+128),w
  2998     0157  0020               	movlb	0	; select bank0
  2999     0158  00A6               	movwf	___flmul@a+2
  3000     0159  0021               	movlb	1	; select bank1
  3001     015A  0853               	movf	(main@voltage+1)^(0+128),w
  3002     015B  0020               	movlb	0	; select bank0
  3003     015C  00A5               	movwf	___flmul@a+1
  3004     015D  0021               	movlb	1	; select bank1
  3005     015E  0852               	movf	main@voltage^(0+128),w
  3006     015F  0020               	movlb	0	; select bank0
  3007     0160  00A4               	movwf	___flmul@a
  3008     0161  3181  219E  3180   	fcall	___flmul
  3009     0164  0020               	movlb	0	; select bank0
  3010     0165  0823               	movf	?___flmul+3,w
  3011     0166  0021               	movlb	1	; select bank1
  3012     0167  00D1               	movwf	(main@celcius+3)^(0+128)
  3013     0168  0020               	movlb	0	; select bank0
  3014     0169  0822               	movf	?___flmul+2,w
  3015     016A  0021               	movlb	1	; select bank1
  3016     016B  00D0               	movwf	(main@celcius+2)^(0+128)
  3017     016C  0020               	movlb	0	; select bank0
  3018     016D  0821               	movf	?___flmul+1,w
  3019     016E  0021               	movlb	1	; select bank1
  3020     016F  00CF               	movwf	(main@celcius+1)^(0+128)
  3021     0170  0020               	movlb	0	; select bank0
  3022     0171  0820               	movf	?___flmul,w
  3023     0172  0021               	movlb	1	; select bank1
  3024     0173  00CE               	movwf	main@celcius^(0+128)
  3025     0174                     l3783:
  3026                           
  3027                           ;main.c: 130:     OLED_Printf_Line(0, "Temp: %d C", (int)celcius);
  3028     0174  3000               	movlw	low (STR_1| (0+32768))
  3029     0175  0020               	movlb	0	; select bank0
  3030     0176  00A6               	movwf	OLED_Printf_Line@fmt
  3031     0177  308B               	movlw	high (STR_1| (0+32768))
  3032     0178  00A7               	movwf	OLED_Printf_Line@fmt+1
  3033     0179  0021               	movlb	1	; select bank1
  3034     017A  0851               	movf	(main@celcius+3)^(0+128),w
  3035     017B  00F3               	movwf	___fltol@f1+3
  3036     017C  0850               	movf	(main@celcius+2)^(0+128),w
  3037     017D  00F2               	movwf	___fltol@f1+2
  3038     017E  084F               	movf	(main@celcius+1)^(0+128),w
  3039     017F  00F1               	movwf	___fltol@f1+1
  3040     0180  084E               	movf	main@celcius^(0+128),w
  3041     0181  00F0               	movwf	___fltol@f1
  3042     0182  318C  2467  3180   	fcall	___fltol
  3043     0185  0871               	movf	?___fltol+1,w
  3044     0186  0020               	movlb	0	; select bank0
  3045     0187  00A9               	movwf	?_OLED_Printf_Line+3
  3046     0188  0870               	movf	?___fltol,w
  3047     0189  00A8               	movwf	?_OLED_Printf_Line+2
  3048     018A  3000               	movlw	0
  3049     018B  3183  23D9  3180   	fcall	_OLED_Printf_Line
  3050     018E                     l3785:
  3051                           
  3052                           ;main.c: 132:     _delay((unsigned long)((500)*(32000000/4000.0)));
  3053     018E  3015               	movlw	21
  3054     018F  0021               	movlb	1	; select bank1
  3055     0190  00CD               	movwf	(??_main^(0+128)+1)
  3056     0191  304B               	movlw	75
  3057     0192  00CC               	movwf	??_main^(0+128)
  3058     0193  30BE               	movlw	190
  3059     0194                     u4887:
  3060     0194  0B89               	decfsz	9,f
  3061     0195  2994               	goto	u4887
  3062     0196  0BCC               	decfsz	??_main^(0+128),f
  3063     0197  2994               	goto	u4887
  3064     0198  0BCD               	decfsz	(??_main^(0+128)+1),f
  3065     0199  2994               	goto	u4887
  3066     019A  0000               	nop
  3067     019B  28F5               	goto	l384
  3068     019C  3180  2802         	ljmp	start
  3069     019E                     __end_of_main:
  3070                           
  3071                           	psect	text1
  3072     166B                     __ptext1:	
  3073 ;; *************** function _initMain *****************
  3074 ;; Defined at:
  3075 ;;		line 43 in file "main.c"
  3076 ;; Parameters:    Size  Location     Type
  3077 ;;		None
  3078 ;; Auto vars:     Size  Location     Type
  3079 ;;		None
  3080 ;; Return value:  Size  Location     Type
  3081 ;;                  1    wreg      void 
  3082 ;; Registers used:
  3083 ;;		wreg, fsr0l, fsr0h, status,2, status,0, pclath, cstack
  3084 ;; Tracked objects:
  3085 ;;		On entry : 0/0
  3086 ;;		On exit  : 0/0
  3087 ;;		Unchanged: 0/0
  3088 ;; Data sizes:     COMMON   BANK0   BANK1   BANK2   BANK3   BANK4   BANK5   BANK6   BANK7   BANK8   BANK9  BANK10  BANK1
      +1  BANK12  BANK13  BANK14  BANK15  BANK16  BANK17  BANK18  BANK19  BANK20  BANK21  BANK22  BANK23  BANK24  BANK25
  3089 ;;      Params:         0       0       0       0       0       0       0       0       0       0       0       0       
      +0       0       0       0       0       0       0       0       0       0       0       0       0       0       0
  3090 ;;      Locals:         0       0       0       0       0       0       0       0       0       0       0       0       
      +0       0       0       0       0       0       0       0       0       0       0       0       0       0       0
  3091 ;;      Temps:          1       0       0       0       0       0       0       0       0       0       0       0       
      +0       0       0       0       0       0       0       0       0       0       0       0       0       0       0
  3092 ;;      Totals:         1       0       0       0       0       0       0       0       0       0       0       0       
      +0       0       0       0       0       0       0       0       0       0       0       0       0       0       0
  3093 ;;Total ram usage:        1 bytes
  3094 ;; Hardware stack levels used: 1
  3095 ;; Hardware stack levels required when called: 1
  3096 ;; This function calls:
  3097 ;;		_ADC_ConfigurePin
  3098 ;;		_internal_32
  3099 ;; This function is called by:
  3100 ;;		_main
  3101 ;; This function uses a non-reentrant model
  3102 ;;
  3103                           
  3104     166B                     _initMain:	
  3105                           ;psect for function _initMain
  3106                           
  3107     166B                     l3255:	
  3108                           ;incstack = 0
  3109                           ; Regs used in _initMain: [wreg-fsr0h+status,2+status,0+pclath+cstack]
  3110                           
  3111                           
  3112                           ;main.c: 46:     internal_32();
  3113     166B  3193  23B2  3196   	fcall	_internal_32
  3114     166E                     l3257:
  3115                           
  3116                           ;main.c: 49:     _delay((unsigned long)((10)*(32000000/4000.0)));
  3117     166E  3068               	movlw	104
  3118     166F  00F3               	movwf	??_initMain
  3119     1670  30E4               	movlw	228
  3120     1671                     u4897:
  3121     1671  0B89               	decfsz	9,f
  3122     1672  2E71               	goto	u4897
  3123     1673  0BF3               	decfsz	??_initMain,f
  3124     1674  2E71               	goto	u4897
  3125     1675  3200               	nop2
  3126     1676                     l3259:
  3127                           
  3128                           ;main.c: 51:     TRISBbits.TRISB2 = 0;
  3129     1676  0021               	movlb	1	; select bank1
  3130     1677  110D               	bcf	13,2	;volatile
  3131     1678                     l3261:
  3132                           
  3133                           ;main.c: 52:     ANSELBbits.ANSB2 = 0;
  3134     1678  0023               	movlb	3	; select bank3
  3135     1679  110D               	bcf	13,2	;volatile
  3136     167A                     l3263:
  3137                           
  3138                           ;main.c: 59:     ANSELCbits.ANSC4 = 0;
  3139     167A  120E               	bcf	14,4	;volatile
  3140     167B                     l3265:
  3141                           
  3142                           ;main.c: 60:     ANSELCbits.ANSC5 = 0;
  3143     167B  128E               	bcf	14,5	;volatile
  3144     167C                     l3267:
  3145                           
  3146                           ;main.c: 61:     TRISCbits.TRISC4 = 1;
  3147     167C  0021               	movlb	1	; select bank1
  3148     167D  160E               	bsf	14,4	;volatile
  3149     167E                     l3269:
  3150                           
  3151                           ;main.c: 62:     TRISCbits.TRISC5 = 1;
  3152     167E  168E               	bsf	14,5	;volatile
  3153     167F                     l3271:
  3154                           
  3155                           ;main.c: 65:     PPSLOCK = 0x55; PPSLOCK = 0xAA; PPSLOCKbits.PPSLOCKED = 0;
  3156     167F  3055               	movlw	85
  3157     1680  003C               	movlb	28	; select bank28
  3158     1681  008F               	movwf	15	;volsfr
  3159     1682                     l3273:
  3160     1682  30AA               	movlw	170
  3161     1683  008F               	movwf	15	;volsfr
  3162     1684                     l3275:
  3163     1684  100F               	bcf	15,0	;volsfr
  3164     1685                     l3277:
  3165                           
  3166                           ;main.c: 67:     RB2PPSbits.RB2PPS = 0x14;
  3167     1685  003D               	movlb	29	; select bank29
  3168     1686  081A               	movf	26,w	;volatile
  3169     1687  39E0               	andlw	-32
  3170     1688  3814               	iorlw	20
  3171     1689  009A               	movwf	26	;volatile
  3172     168A                     l3279:
  3173                           
  3174                           ;main.c: 68:     RXPPSbits.RXPPS = 0x0B;
  3175     168A  003C               	movlb	28	; select bank28
  3176     168B  0824               	movf	36,w	;volatile
  3177     168C  39E0               	andlw	-32
  3178     168D  380B               	iorlw	11
  3179     168E  00A4               	movwf	36	;volatile
  3180     168F                     l3281:
  3181                           
  3182                           ;main.c: 70:     RC4PPSbits.RC4PPS = 0x11;
  3183     168F  003D               	movlb	29	; select bank29
  3184     1690  0824               	movf	36,w	;volatile
  3185     1691  39E0               	andlw	-32
  3186     1692  3811               	iorlw	17
  3187     1693  00A4               	movwf	36	;volatile
  3188     1694                     l3283:
  3189                           
  3190                           ;main.c: 71:     SSPDATPPSbits.SSPDATPPS = 0x14;
  3191     1694  003C               	movlb	28	; select bank28
  3192     1695  0821               	movf	33,w	;volatile
  3193     1696  39E0               	andlw	-32
  3194     1697  3814               	iorlw	20
  3195     1698  00A1               	movwf	33	;volatile
  3196     1699                     l3285:
  3197                           
  3198                           ;main.c: 73:     SSPCLKPPSbits.SSPCLKPPS = 0x15;
  3199     1699  0820               	movf	32,w	;volatile
  3200     169A  39E0               	andlw	-32
  3201     169B  3815               	iorlw	21
  3202     169C  00A0               	movwf	32	;volatile
  3203     169D                     l3287:
  3204                           
  3205                           ;main.c: 74:     RC5PPSbits.RC5PPS = 0x10;
  3206     169D  003D               	movlb	29	; select bank29
  3207     169E  0825               	movf	37,w	;volatile
  3208     169F  39E0               	andlw	-32
  3209     16A0  3810               	iorlw	16
  3210     16A1  00A5               	movwf	37	;volatile
  3211     16A2                     l3289:
  3212                           
  3213                           ;main.c: 76:     PPSLOCK = 0x55; PPSLOCK = 0xAA; PPSLOCKbits.PPSLOCKED = 1;
  3214     16A2  3055               	movlw	85
  3215     16A3  003C               	movlb	28	; select bank28
  3216     16A4  008F               	movwf	15	;volsfr
  3217     16A5                     l3291:
  3218     16A5  30AA               	movlw	170
  3219     16A6  008F               	movwf	15	;volsfr
  3220     16A7                     l3293:
  3221     16A7  140F               	bsf	15,0	;volsfr
  3222     16A8                     l3295:
  3223                           
  3224                           ;main.c: 84:     ADCON1bits.ADCS = 0b010;
  3225     16A8  0021               	movlb	1	; select bank1
  3226     16A9  081E               	movf	30,w	;volatile
  3227     16AA  398F               	andlw	-113
  3228     16AB  3820               	iorlw	32
  3229     16AC  009E               	movwf	30	;volatile
  3230     16AD                     l3297:
  3231                           
  3232                           ;main.c: 87:     ADCON1bits.ADFM = 1;
  3233     16AD  179E               	bsf	30,7	;volatile
  3234     16AE                     l3299:
  3235                           
  3236                           ;main.c: 90:     ADCON1bits.ADNREF = 0;
  3237     16AE  111E               	bcf	30,2	;volatile
  3238     16AF                     l3301:
  3239                           
  3240                           ;main.c: 93:     ADCON1bits.ADPREF = 0b00;
  3241     16AF  30FC               	movlw	-4
  3242     16B0  059E               	andwf	30,f	;volatile
  3243     16B1                     l3303:
  3244                           
  3245                           ;main.c: 96:     ADC_ConfigurePin(ADC_AN0);
  3246     16B1  3000               	movlw	0
  3247     16B2  318B  2395  3196   	fcall	_ADC_ConfigurePin
  3248     16B5                     l379:
  3249     16B5  0008               	return
  3250     16B6                     __end_of_initMain:
  3251                           
  3252                           	psect	text2
  3253     13B2                     __ptext2:	
  3254 ;; *************** function _internal_32 *****************
  3255 ;; Defined at:
  3256 ;;		line 36 in file "PIC16F1718_Internal.c"
  3257 ;; Parameters:    Size  Location     Type
  3258 ;;		None
  3259 ;; Auto vars:     Size  Location     Type
  3260 ;;		None
  3261 ;; Return value:  Size  Location     Type
  3262 ;;                  1    wreg      void 
  3263 ;; Registers used:
  3264 ;;		None
  3265 ;; Tracked objects:
  3266 ;;		On entry : 0/0
  3267 ;;		On exit  : 0/0
  3268 ;;		Unchanged: 0/0
  3269 ;; Data sizes:     COMMON   BANK0   BANK1   BANK2   BANK3   BANK4   BANK5   BANK6   BANK7   BANK8   BANK9  BANK10  BANK1
      +1  BANK12  BANK13  BANK14  BANK15  BANK16  BANK17  BANK18  BANK19  BANK20  BANK21  BANK22  BANK23  BANK24  BANK25
  3270 ;;      Params:         0       0       0       0       0       0       0       0       0       0       0       0       
      +0       0       0       0       0       0       0       0       0       0       0       0       0       0       0
  3271 ;;      Locals:         0       0       0       0       0       0       0       0       0       0       0       0       
      +0       0       0       0       0       0       0       0       0       0       0       0       0       0       0
  3272 ;;      Temps:          0       0       0       0       0       0       0       0       0       0       0       0       
      +0       0       0       0       0       0       0       0       0       0       0       0       0       0       0
  3273 ;;      Totals:         0       0       0       0       0       0       0       0       0       0       0       0       
      +0       0       0       0       0       0       0       0       0       0       0       0       0       0       0
  3274 ;;Total ram usage:        0 bytes
  3275 ;; Hardware stack levels used: 1
  3276 ;; This function calls:
  3277 ;;		Nothing
  3278 ;; This function is called by:
  3279 ;;		_initMain
  3280 ;; This function uses a non-reentrant model
  3281 ;;
  3282                           
  3283     13B2                     _internal_32:	
  3284                           ;psect for function _internal_32
  3285                           
  3286     13B2                     l2629:	
  3287                           ;incstack = 0
  3288                           ; Regs used in _internal_32: []
  3289                           
  3290                           
  3291                           ;PIC16F1718_Internal.c: 38:     SCS0 = 0;
  3292     13B2  0021               	movlb	1	; select bank1
  3293     13B3  1019               	bcf	25,0	;volatile
  3294                           
  3295                           ;PIC16F1718_Internal.c: 39:     SCS1 = 0;
  3296     13B4  1099               	bcf	25,1	;volatile
  3297                           
  3298                           ;PIC16F1718_Internal.c: 42:     IRCF0 = 0;
  3299     13B5  1199               	bcf	25,3	;volatile
  3300                           
  3301                           ;PIC16F1718_Internal.c: 43:     IRCF1 = 1;
  3302     13B6  1619               	bsf	25,4	;volatile
  3303                           
  3304                           ;PIC16F1718_Internal.c: 44:     IRCF2 = 1;
  3305     13B7  1699               	bsf	25,5	;volatile
  3306                           
  3307                           ;PIC16F1718_Internal.c: 45:     IRCF3 = 1;
  3308     13B8  1719               	bsf	25,6	;volatile
  3309                           
  3310                           ;PIC16F1718_Internal.c: 48:     SPLLEN = 1;
  3311     13B9  1799               	bsf	25,7	;volatile
  3312     13BA                     l273:
  3313     13BA  0008               	return
  3314     13BB                     __end_of_internal_32:
  3315                           
  3316                           	psect	text3
  3317     0B95                     __ptext3:	
  3318 ;; *************** function _ADC_ConfigurePin *****************
  3319 ;; Defined at:
  3320 ;;		line 53 in file "./ADC.h"
  3321 ;; Parameters:    Size  Location     Type
  3322 ;;  channel         1    wreg     enum E6091
  3323 ;; Auto vars:     Size  Location     Type
  3324 ;;  channel         1    2[COMMON] enum E6091
  3325 ;; Return value:  Size  Location     Type
  3326 ;;                  1    wreg      void 
  3327 ;; Registers used:
  3328 ;;		wreg, fsr0l, fsr0h, status,2, status,0
  3329 ;; Tracked objects:
  3330 ;;		On entry : 0/0
  3331 ;;		On exit  : 0/0
  3332 ;;		Unchanged: 0/0
  3333 ;; Data sizes:     COMMON   BANK0   BANK1   BANK2   BANK3   BANK4   BANK5   BANK6   BANK7   BANK8   BANK9  BANK10  BANK1
      +1  BANK12  BANK13  BANK14  BANK15  BANK16  BANK17  BANK18  BANK19  BANK20  BANK21  BANK22  BANK23  BANK24  BANK25
  3334 ;;      Params:         0       0       0       0       0       0       0       0       0       0       0       0       
      +0       0       0       0       0       0       0       0       0       0       0       0       0       0       0
  3335 ;;      Locals:         1       0       0       0       0       0       0       0       0       0       0       0       
      +0       0       0       0       0       0       0       0       0       0       0       0       0       0       0
  3336 ;;      Temps:          2       0       0       0       0       0       0       0       0       0       0       0       
      +0       0       0       0       0       0       0       0       0       0       0       0       0       0       0
  3337 ;;      Totals:         3       0       0       0       0       0       0       0       0       0       0       0       
      +0       0       0       0       0       0       0       0       0       0       0       0       0       0       0
  3338 ;;Total ram usage:        3 bytes
  3339 ;; Hardware stack levels used: 1
  3340 ;; This function calls:
  3341 ;;		Nothing
  3342 ;; This function is called by:
  3343 ;;		_initMain
  3344 ;; This function uses a non-reentrant model
  3345 ;;
  3346                           
  3347     0B95                     _ADC_ConfigurePin:	
  3348                           ;psect for function _ADC_ConfigurePin
  3349                           
  3350                           
  3351                           ;incstack = 0
  3352                           ; Regs used in _ADC_ConfigurePin: [wreg-fsr0h+status,2+status,0]
  3353                           ;ADC_ConfigurePin@channel stored from wreg
  3354     0B95  00F2               	movwf	ADC_ConfigurePin@channel
  3355     0B96                     l2631:
  3356                           
  3357                           ;./ADC.h: 53: void ADC_ConfigurePin(adc_channel_t channel);./ADC.h: 54: {;./ADC.h: 55:  
      +                             switch(channel) {
  3358     0B96  2BCE               	goto	l2635
  3359     0B97                     l351:	
  3360                           ;./ADC.h: 56:         case ADC_AN0: TRISAbits.TRISA0 = 1; ANSELAbits.ANSA0 = 1; break;
  3361                           
  3362     0B97  0021               	movlb	1	; select bank1
  3363     0B98  140C               	bsf	12,0	;volatile
  3364     0B99  0023               	movlb	3	; select bank3
  3365     0B9A  140C               	bsf	12,0	;volatile
  3366     0B9B  2BF9               	goto	l363
  3367     0B9C                     l353:	
  3368                           ;./ADC.h: 57:         case ADC_AN1: TRISAbits.TRISA1 = 1; ANSELAbits.ANSA1 = 1; break;
  3369                           
  3370     0B9C  0021               	movlb	1	; select bank1
  3371     0B9D  148C               	bsf	12,1	;volatile
  3372     0B9E  0023               	movlb	3	; select bank3
  3373     0B9F  148C               	bsf	12,1	;volatile
  3374     0BA0  2BF9               	goto	l363
  3375     0BA1                     l354:	
  3376                           ;./ADC.h: 58:         case ADC_AN2: TRISAbits.TRISA2 = 1; ANSELAbits.ANSA2 = 1; break;
  3377                           
  3378     0BA1  0021               	movlb	1	; select bank1
  3379     0BA2  150C               	bsf	12,2	;volatile
  3380     0BA3  0023               	movlb	3	; select bank3
  3381     0BA4  150C               	bsf	12,2	;volatile
  3382     0BA5  2BF9               	goto	l363
  3383     0BA6                     l355:	
  3384                           ;./ADC.h: 59:         case ADC_AN3: TRISAbits.TRISA3 = 1; ANSELAbits.ANSA3 = 1; break;
  3385                           
  3386     0BA6  0021               	movlb	1	; select bank1
  3387     0BA7  158C               	bsf	12,3	;volatile
  3388     0BA8  0023               	movlb	3	; select bank3
  3389     0BA9  158C               	bsf	12,3	;volatile
  3390     0BAA  2BF9               	goto	l363
  3391     0BAB                     l356:	
  3392                           ;./ADC.h: 60:         case ADC_AN4: TRISAbits.TRISA4 = 1; ANSELAbits.ANSA4 = 1; break;
  3393                           
  3394     0BAB  0021               	movlb	1	; select bank1
  3395     0BAC  160C               	bsf	12,4	;volatile
  3396     0BAD  0023               	movlb	3	; select bank3
  3397     0BAE  160C               	bsf	12,4	;volatile
  3398     0BAF  2BF9               	goto	l363
  3399     0BB0                     l357:	
  3400                           ;./ADC.h: 61:         case ADC_AN5: TRISAbits.TRISA5 = 1; ANSELAbits.ANSA5 = 1; break;
  3401                           
  3402     0BB0  0021               	movlb	1	; select bank1
  3403     0BB1  168C               	bsf	12,5	;volatile
  3404     0BB2  0023               	movlb	3	; select bank3
  3405     0BB3  168C               	bsf	12,5	;volatile
  3406     0BB4  2BF9               	goto	l363
  3407     0BB5                     l358:	
  3408                           ;./ADC.h: 62:         case ADC_AN8: TRISBbits.TRISB0 = 1; ANSELBbits.ANSB0 = 1; break;
  3409                           
  3410     0BB5  0021               	movlb	1	; select bank1
  3411     0BB6  140D               	bsf	13,0	;volatile
  3412     0BB7  0023               	movlb	3	; select bank3
  3413     0BB8  140D               	bsf	13,0	;volatile
  3414     0BB9  2BF9               	goto	l363
  3415     0BBA                     l359:	
  3416                           ;./ADC.h: 63:         case ADC_AN9: TRISBbits.TRISB1 = 1; ANSELBbits.ANSB1 = 1; break;
  3417                           
  3418     0BBA  0021               	movlb	1	; select bank1
  3419     0BBB  148D               	bsf	13,1	;volatile
  3420     0BBC  0023               	movlb	3	; select bank3
  3421     0BBD  148D               	bsf	13,1	;volatile
  3422     0BBE  2BF9               	goto	l363
  3423     0BBF                     l360:	
  3424                           ;./ADC.h: 64:         case ADC_AN10: TRISBbits.TRISB3 = 1; ANSELBbits.ANSB3 = 1; break;
  3425                           
  3426     0BBF  0021               	movlb	1	; select bank1
  3427     0BC0  158D               	bsf	13,3	;volatile
  3428     0BC1  0023               	movlb	3	; select bank3
  3429     0BC2  158D               	bsf	13,3	;volatile
  3430     0BC3  2BF9               	goto	l363
  3431     0BC4                     l361:	
  3432                           ;./ADC.h: 65:         case ADC_AN11: TRISBbits.TRISB4 = 1; ANSELBbits.ANSB4 = 1; break;
  3433                           
  3434     0BC4  0021               	movlb	1	; select bank1
  3435     0BC5  160D               	bsf	13,4	;volatile
  3436     0BC6  0023               	movlb	3	; select bank3
  3437     0BC7  160D               	bsf	13,4	;volatile
  3438     0BC8  2BF9               	goto	l363
  3439     0BC9                     l362:	
  3440                           ;./ADC.h: 66:         case ADC_AN12: TRISBbits.TRISB5 = 1; ANSELBbits.ANSB5 = 1; break;
  3441                           
  3442     0BC9  0021               	movlb	1	; select bank1
  3443     0BCA  168D               	bsf	13,5	;volatile
  3444     0BCB  0023               	movlb	3	; select bank3
  3445     0BCC  168D               	bsf	13,5	;volatile
  3446     0BCD  2BF9               	goto	l363
  3447     0BCE                     l2635:
  3448     0BCE  0872               	movf	ADC_ConfigurePin@channel,w
  3449     0BCF  00F0               	movwf	??_ADC_ConfigurePin
  3450     0BD0  01F1               	clrf	??_ADC_ConfigurePin+1
  3451                           
  3452                           ; Switch on 2 bytes has been partitioned into a top level switch of size 1, and 1 sub-sw
      +                          itches
  3453                           ; Switch size 1, requested type "simple"
  3454                           ; Number of cases is 1, Range of values is 0 to 0
  3455                           ; switch strategies available:
  3456                           ; Name         Instructions Cycles
  3457                           ; simple_byte            4     3 (average)
  3458                           ; direct_byte            8     6 (fixed)
  3459                           ; jumptable            260     6 (fixed)
  3460                           ;	Chosen strategy is simple_byte
  3461     0BD1  0871               	movf	??_ADC_ConfigurePin+1,w
  3462     0BD2  3A00               	xorlw	0	; case 0
  3463     0BD3  1903               	skipnz
  3464     0BD4  2BD6               	goto	l3827
  3465     0BD5  2BF9               	goto	l363
  3466     0BD6                     l3827:
  3467                           
  3468                           ; Switch size 1, requested type "simple"
  3469                           ; Number of cases is 11, Range of values is 0 to 12
  3470                           ; switch strategies available:
  3471                           ; Name         Instructions Cycles
  3472                           ; direct_byte           32     6 (fixed)
  3473                           ; simple_byte           34    18 (average)
  3474                           ; jumptable            260     6 (fixed)
  3475                           ;	Chosen strategy is simple_byte
  3476     0BD6  0870               	movf	??_ADC_ConfigurePin,w
  3477     0BD7  3A00               	xorlw	0	; case 0
  3478     0BD8  1903               	skipnz
  3479     0BD9  2B97               	goto	l351
  3480     0BDA  3A01               	xorlw	1	; case 1
  3481     0BDB  1903               	skipnz
  3482     0BDC  2B9C               	goto	l353
  3483     0BDD  3A03               	xorlw	3	; case 2
  3484     0BDE  1903               	skipnz
  3485     0BDF  2BA1               	goto	l354
  3486     0BE0  3A01               	xorlw	1	; case 3
  3487     0BE1  1903               	skipnz
  3488     0BE2  2BA6               	goto	l355
  3489     0BE3  3A07               	xorlw	7	; case 4
  3490     0BE4  1903               	skipnz
  3491     0BE5  2BAB               	goto	l356
  3492     0BE6  3A01               	xorlw	1	; case 5
  3493     0BE7  1903               	skipnz
  3494     0BE8  2BB0               	goto	l357
  3495     0BE9  3A0D               	xorlw	13	; case 8
  3496     0BEA  1903               	skipnz
  3497     0BEB  2BB5               	goto	l358
  3498     0BEC  3A01               	xorlw	1	; case 9
  3499     0BED  1903               	skipnz
  3500     0BEE  2BBA               	goto	l359
  3501     0BEF  3A03               	xorlw	3	; case 10
  3502     0BF0  1903               	skipnz
  3503     0BF1  2BBF               	goto	l360
  3504     0BF2  3A01               	xorlw	1	; case 11
  3505     0BF3  1903               	skipnz
  3506     0BF4  2BC4               	goto	l361
  3507     0BF5  3A07               	xorlw	7	; case 12
  3508     0BF6  1903               	skipnz
  3509     0BF7  2BC9               	goto	l362
  3510     0BF8  2BF9               	goto	l363
  3511     0BF9                     l363:
  3512     0BF9  0008               	return
  3513     0BFA                     __end_of_ADC_ConfigurePin:
  3514                           
  3515                           	psect	text4
  3516     0038                     __ptext4:	
  3517 ;; *************** function ___xxtofl *****************
  3518 ;; Defined at:
  3519 ;;		line 10 in file "C:\Program Files\Microchip\xc8\v2.46\pic\sources\c99\common\xxtofl.c"
  3520 ;; Parameters:    Size  Location     Type
  3521 ;;  sign            1    wreg     unsigned char 
  3522 ;;  val             4    0[COMMON] long 
  3523 ;; Auto vars:     Size  Location     Type
  3524 ;;  sign            1    8[COMMON] unsigned char 
  3525 ;;  arg             4   10[COMMON] unsigned long 
  3526 ;;  exp             1    9[COMMON] unsigned char 
  3527 ;; Return value:  Size  Location     Type
  3528 ;;                  4    0[COMMON] unsigned char 
  3529 ;; Registers used:
  3530 ;;		wreg, status,2, status,0
  3531 ;; Tracked objects:
  3532 ;;		On entry : 0/0
  3533 ;;		On exit  : 0/0
  3534 ;;		Unchanged: 0/0
  3535 ;; Data sizes:     COMMON   BANK0   BANK1   BANK2   BANK3   BANK4   BANK5   BANK6   BANK7   BANK8   BANK9  BANK10  BANK1
      +1  BANK12  BANK13  BANK14  BANK15  BANK16  BANK17  BANK18  BANK19  BANK20  BANK21  BANK22  BANK23  BANK24  BANK25
  3536 ;;      Params:         4       0       0       0       0       0       0       0       0       0       0       0       
      +0       0       0       0       0       0       0       0       0       0       0       0       0       0       0
  3537 ;;      Locals:         6       0       0       0       0       0       0       0       0       0       0       0       
      +0       0       0       0       0       0       0       0       0       0       0       0       0       0       0
  3538 ;;      Temps:          4       0       0       0       0       0       0       0       0       0       0       0       
      +0       0       0       0       0       0       0       0       0       0       0       0       0       0       0
  3539 ;;      Totals:        14       0       0       0       0       0       0       0       0       0       0       0       
      +0       0       0       0       0       0       0       0       0       0       0       0       0       0       0
  3540 ;;Total ram usage:       14 bytes
  3541 ;; Hardware stack levels used: 1
  3542 ;; This function calls:
  3543 ;;		Nothing
  3544 ;; This function is called by:
  3545 ;;		_main
  3546 ;; This function uses a non-reentrant model
  3547 ;;
  3548                           
  3549     0038                     ___xxtofl:	
  3550                           ;psect for function ___xxtofl
  3551                           
  3552                           
  3553                           ;incstack = 0
  3554                           ; Regs used in ___xxtofl: [wreg+status,2+status,0]
  3555                           ;___xxtofl@sign stored from wreg
  3556     0038  00F8               	movwf	___xxtofl@sign
  3557     0039                     l3621:
  3558     0039  0878               	movf	___xxtofl@sign,w
  3559     003A  1903               	btfsc	3,2
  3560     003B  283D               	goto	u4491
  3561     003C  283E               	goto	u4490
  3562     003D                     u4491:
  3563     003D  2852               	goto	l3627
  3564     003E                     u4490:
  3565     003E                     l3623:
  3566     003E  1FF3               	btfss	___xxtofl@val+3,7
  3567     003F  2841               	goto	u4501
  3568     0040  2842               	goto	u4500
  3569     0041                     u4501:
  3570     0041  2852               	goto	l3627
  3571     0042                     u4500:
  3572     0042                     l3625:
  3573     0042  0970               	comf	___xxtofl@val,w
  3574     0043  00FA               	movwf	___xxtofl@arg
  3575     0044  0971               	comf	___xxtofl@val+1,w
  3576     0045  00FB               	movwf	___xxtofl@arg+1
  3577     0046  0972               	comf	___xxtofl@val+2,w
  3578     0047  00FC               	movwf	___xxtofl@arg+2
  3579     0048  0973               	comf	___xxtofl@val+3,w
  3580     0049  00FD               	movwf	___xxtofl@arg+3
  3581     004A  0AFA               	incf	___xxtofl@arg,f
  3582     004B  1903               	skipnz
  3583     004C  0AFB               	incf	___xxtofl@arg+1,f
  3584     004D  1903               	skipnz
  3585     004E  0AFC               	incf	___xxtofl@arg+2,f
  3586     004F  1903               	skipnz
  3587     0050  0AFD               	incf	___xxtofl@arg+3,f
  3588     0051  285A               	goto	l896
  3589     0052                     l3627:
  3590     0052  0873               	movf	___xxtofl@val+3,w
  3591     0053  00FD               	movwf	___xxtofl@arg+3
  3592     0054  0872               	movf	___xxtofl@val+2,w
  3593     0055  00FC               	movwf	___xxtofl@arg+2
  3594     0056  0871               	movf	___xxtofl@val+1,w
  3595     0057  00FB               	movwf	___xxtofl@arg+1
  3596     0058  0870               	movf	___xxtofl@val,w
  3597     0059  00FA               	movwf	___xxtofl@arg
  3598     005A                     l896:
  3599     005A  0873               	movf	___xxtofl@val+3,w
  3600     005B  0472               	iorwf	___xxtofl@val+2,w
  3601     005C  0471               	iorwf	___xxtofl@val+1,w
  3602     005D  0470               	iorwf	___xxtofl@val,w
  3603     005E  1D03               	skipz
  3604     005F  2861               	goto	u4511
  3605     0060  2862               	goto	u4510
  3606     0061                     u4511:
  3607     0061  286B               	goto	l3633
  3608     0062                     u4510:
  3609     0062                     l3629:
  3610     0062  3000               	movlw	0
  3611     0063  00F3               	movwf	?___xxtofl+3
  3612     0064  3000               	movlw	0
  3613     0065  00F2               	movwf	?___xxtofl+2
  3614     0066  3000               	movlw	0
  3615     0067  00F1               	movwf	?___xxtofl+1
  3616     0068  3000               	movlw	0
  3617     0069  00F0               	movwf	?___xxtofl
  3618     006A  28E1               	goto	l898
  3619     006B                     l3633:
  3620     006B  3096               	movlw	150
  3621     006C  00F9               	movwf	___xxtofl@exp
  3622     006D  2879               	goto	l3637
  3623     006E                     l3635:
  3624     006E  3001               	movlw	1
  3625     006F  00F4               	movwf	??___xxtofl
  3626     0070  0874               	movf	??___xxtofl,w
  3627     0071  07F9               	addwf	___xxtofl@exp,f
  3628     0072  3001               	movlw	1
  3629     0073                     u4525:
  3630     0073  36FD               	lsrf	___xxtofl@arg+3,f
  3631     0074  0CFC               	rrf	___xxtofl@arg+2,f
  3632     0075  0CFB               	rrf	___xxtofl@arg+1,f
  3633     0076  0CFA               	rrf	___xxtofl@arg,f
  3634     0077  0B89               	decfsz	9,f
  3635     0078  2873               	goto	u4525
  3636     0079                     l3637:
  3637     0079  30FE               	movlw	254
  3638     007A  057D               	andwf	___xxtofl@arg+3,w
  3639     007B  1D03               	btfss	3,2
  3640     007C  287E               	goto	u4531
  3641     007D  287F               	goto	u4530
  3642     007E                     u4531:
  3643     007E  286E               	goto	l3635
  3644     007F                     u4530:
  3645     007F  2893               	goto	l902
  3646     0080                     l3639:
  3647     0080  3001               	movlw	1
  3648     0081  00F4               	movwf	??___xxtofl
  3649     0082  0874               	movf	??___xxtofl,w
  3650     0083  07F9               	addwf	___xxtofl@exp,f
  3651     0084                     l3641:
  3652     0084  3001               	movlw	1
  3653     0085  07FA               	addwf	___xxtofl@arg,f
  3654     0086  3000               	movlw	0
  3655     0087  3DFB               	addwfc	___xxtofl@arg+1,f
  3656     0088  3000               	movlw	0
  3657     0089  3DFC               	addwfc	___xxtofl@arg+2,f
  3658     008A  3000               	movlw	0
  3659     008B  3DFD               	addwfc	___xxtofl@arg+3,f
  3660     008C                     l3643:
  3661     008C  3001               	movlw	1
  3662     008D                     u4545:
  3663     008D  36FD               	lsrf	___xxtofl@arg+3,f
  3664     008E  0CFC               	rrf	___xxtofl@arg+2,f
  3665     008F  0CFB               	rrf	___xxtofl@arg+1,f
  3666     0090  0CFA               	rrf	___xxtofl@arg,f
  3667     0091  0B89               	decfsz	9,f
  3668     0092  288D               	goto	u4545
  3669     0093                     l902:
  3670     0093  30FF               	movlw	255
  3671     0094  057D               	andwf	___xxtofl@arg+3,w
  3672     0095  1D03               	btfss	3,2
  3673     0096  2898               	goto	u4551
  3674     0097  2899               	goto	u4550
  3675     0098                     u4551:
  3676     0098  2880               	goto	l3639
  3677     0099                     u4550:
  3678     0099  28A3               	goto	l3647
  3679     009A                     l3645:
  3680     009A  3001               	movlw	1
  3681     009B  02F9               	subwf	___xxtofl@exp,f
  3682     009C  3001               	movlw	1
  3683     009D                     u4565:
  3684     009D  35FA               	lslf	___xxtofl@arg,f
  3685     009E  0DFB               	rlf	___xxtofl@arg+1,f
  3686     009F  0DFC               	rlf	___xxtofl@arg+2,f
  3687     00A0  0DFD               	rlf	___xxtofl@arg+3,f
  3688     00A1  0B89               	decfsz	9,f
  3689     00A2  289D               	goto	u4565
  3690     00A3                     l3647:
  3691     00A3  1BFC               	btfsc	___xxtofl@arg+2,7
  3692     00A4  28A6               	goto	u4571
  3693     00A5  28A7               	goto	u4570
  3694     00A6                     u4571:
  3695     00A6  28AD               	goto	l909
  3696     00A7                     u4570:
  3697     00A7                     l3649:
  3698     00A7  3002               	movlw	2
  3699     00A8  0279               	subwf	___xxtofl@exp,w
  3700     00A9  1803               	skipnc
  3701     00AA  28AC               	goto	u4581
  3702     00AB  28AD               	goto	u4580
  3703     00AC                     u4581:
  3704     00AC  289A               	goto	l3645
  3705     00AD                     u4580:
  3706     00AD                     l909:
  3707     00AD  1879               	btfsc	___xxtofl@exp,0
  3708     00AE  28B0               	goto	u4591
  3709     00AF  28B1               	goto	u4590
  3710     00B0                     u4591:
  3711     00B0  28B9               	goto	l910
  3712     00B1                     u4590:
  3713     00B1                     l3651:
  3714     00B1  30FF               	movlw	255
  3715     00B2  05FA               	andwf	___xxtofl@arg,f
  3716     00B3  30FF               	movlw	255
  3717     00B4  05FB               	andwf	___xxtofl@arg+1,f
  3718     00B5  307F               	movlw	127
  3719     00B6  05FC               	andwf	___xxtofl@arg+2,f
  3720     00B7  30FF               	movlw	255
  3721     00B8  05FD               	andwf	___xxtofl@arg+3,f
  3722     00B9                     l910:
  3723     00B9  1003               	clrc
  3724     00BA  0CF9               	rrf	___xxtofl@exp,f
  3725     00BB                     l3653:
  3726     00BB  0879               	movf	___xxtofl@exp,w
  3727     00BC  00F4               	movwf	??___xxtofl
  3728     00BD  01F5               	clrf	??___xxtofl+1
  3729     00BE  01F6               	clrf	??___xxtofl+2
  3730     00BF  01F7               	clrf	??___xxtofl+3
  3731     00C0  3018               	movlw	24
  3732     00C1                     u4605:
  3733     00C1  35F4               	lslf	??___xxtofl,f
  3734     00C2  0DF5               	rlf	??___xxtofl+1,f
  3735     00C3  0DF6               	rlf	??___xxtofl+2,f
  3736     00C4  0DF7               	rlf	??___xxtofl+3,f
  3737     00C5                     u4600:
  3738     00C5  0B89               	decfsz	9,f
  3739     00C6  28C1               	goto	u4605
  3740     00C7  0874               	movf	??___xxtofl,w
  3741     00C8  04FA               	iorwf	___xxtofl@arg,f
  3742     00C9  0875               	movf	??___xxtofl+1,w
  3743     00CA  04FB               	iorwf	___xxtofl@arg+1,f
  3744     00CB  0876               	movf	??___xxtofl+2,w
  3745     00CC  04FC               	iorwf	___xxtofl@arg+2,f
  3746     00CD  0877               	movf	??___xxtofl+3,w
  3747     00CE  04FD               	iorwf	___xxtofl@arg+3,f
  3748     00CF                     l3655:
  3749     00CF  0878               	movf	___xxtofl@sign,w
  3750     00D0  1903               	btfsc	3,2
  3751     00D1  28D3               	goto	u4611
  3752     00D2  28D4               	goto	u4610
  3753     00D3                     u4611:
  3754     00D3  28D9               	goto	l3661
  3755     00D4                     u4610:
  3756     00D4                     l3657:
  3757     00D4  1FF3               	btfss	___xxtofl@val+3,7
  3758     00D5  28D7               	goto	u4621
  3759     00D6  28D8               	goto	u4620
  3760     00D7                     u4621:
  3761     00D7  28D9               	goto	l3661
  3762     00D8                     u4620:
  3763     00D8                     l3659:
  3764     00D8  17FD               	bsf	___xxtofl@arg+3,7
  3765     00D9                     l3661:
  3766     00D9  087D               	movf	___xxtofl@arg+3,w
  3767     00DA  00F3               	movwf	?___xxtofl+3
  3768     00DB  087C               	movf	___xxtofl@arg+2,w
  3769     00DC  00F2               	movwf	?___xxtofl+2
  3770     00DD  087B               	movf	___xxtofl@arg+1,w
  3771     00DE  00F1               	movwf	?___xxtofl+1
  3772     00DF  087A               	movf	___xxtofl@arg,w
  3773     00E0  00F0               	movwf	?___xxtofl
  3774     00E1                     l898:
  3775     00E1  0008               	return
  3776     00E2                     __end_of___xxtofl:
  3777                           
  3778                           	psect	text5
  3779     0C67                     __ptext5:	
  3780 ;; *************** function ___fltol *****************
  3781 ;; Defined at:
  3782 ;;		line 43 in file "C:\Program Files\Microchip\xc8\v2.46\pic\sources\c99\common\fltol.c"
  3783 ;; Parameters:    Size  Location     Type
  3784 ;;  f1              4    0[COMMON] unsigned char 
  3785 ;; Auto vars:     Size  Location     Type
  3786 ;;  exp1            1    9[COMMON] unsigned char 
  3787 ;;  sign1           1    8[COMMON] unsigned char 
  3788 ;; Return value:  Size  Location     Type
  3789 ;;                  4    0[COMMON] long 
  3790 ;; Registers used:
  3791 ;;		wreg, status,2, status,0
  3792 ;; Tracked objects:
  3793 ;;		On entry : 0/0
  3794 ;;		On exit  : 0/0
  3795 ;;		Unchanged: 0/0
  3796 ;; Data sizes:     COMMON   BANK0   BANK1   BANK2   BANK3   BANK4   BANK5   BANK6   BANK7   BANK8   BANK9  BANK10  BANK1
      +1  BANK12  BANK13  BANK14  BANK15  BANK16  BANK17  BANK18  BANK19  BANK20  BANK21  BANK22  BANK23  BANK24  BANK25
  3797 ;;      Params:         4       0       0       0       0       0       0       0       0       0       0       0       
      +0       0       0       0       0       0       0       0       0       0       0       0       0       0       0
  3798 ;;      Locals:         2       0       0       0       0       0       0       0       0       0       0       0       
      +0       0       0       0       0       0       0       0       0       0       0       0       0       0       0
  3799 ;;      Temps:          4       0       0       0       0       0       0       0       0       0       0       0       
      +0       0       0       0       0       0       0       0       0       0       0       0       0       0       0
  3800 ;;      Totals:        10       0       0       0       0       0       0       0       0       0       0       0       
      +0       0       0       0       0       0       0       0       0       0       0       0       0       0       0
  3801 ;;Total ram usage:       10 bytes
  3802 ;; Hardware stack levels used: 1
  3803 ;; This function calls:
  3804 ;;		Nothing
  3805 ;; This function is called by:
  3806 ;;		_main
  3807 ;; This function uses a non-reentrant model
  3808 ;;
  3809                           
  3810     0C67                     ___fltol:	
  3811                           ;psect for function ___fltol
  3812                           
  3813     0C67                     l3305:	
  3814                           ;incstack = 0
  3815                           ; Regs used in ___fltol: [wreg+status,2+status,0]
  3816                           
  3817     0C67  1003               	clrc
  3818     0C68  0D72               	rlf	___fltol@f1+2,w
  3819     0C69  0D73               	rlf	___fltol@f1+3,w
  3820     0C6A  00F9               	movwf	___fltol@exp1
  3821     0C6B  0879               	movf	___fltol@exp1,w
  3822     0C6C  1D03               	btfss	3,2
  3823     0C6D  2C6F               	goto	u3841
  3824     0C6E  2C70               	goto	u3840
  3825     0C6F                     u3841:
  3826     0C6F  2C79               	goto	l3311
  3827     0C70                     u3840:
  3828     0C70                     l3307:
  3829     0C70  3000               	movlw	0
  3830     0C71  00F3               	movwf	?___fltol+3
  3831     0C72  3000               	movlw	0
  3832     0C73  00F2               	movwf	?___fltol+2
  3833     0C74  3000               	movlw	0
  3834     0C75  00F1               	movwf	?___fltol+1
  3835     0C76  3000               	movlw	0
  3836     0C77  00F0               	movwf	?___fltol
  3837     0C78  2CD6               	goto	l649
  3838     0C79                     l3311:
  3839     0C79  0870               	movf	___fltol@f1,w
  3840     0C7A  00F4               	movwf	??___fltol
  3841     0C7B  0871               	movf	___fltol@f1+1,w
  3842     0C7C  00F5               	movwf	??___fltol+1
  3843     0C7D  0872               	movf	___fltol@f1+2,w
  3844     0C7E  00F6               	movwf	??___fltol+2
  3845     0C7F  0873               	movf	___fltol@f1+3,w
  3846     0C80  00F7               	movwf	??___fltol+3
  3847     0C81  301F               	movlw	31
  3848     0C82                     u3855:
  3849     0C82  36F7               	lsrf	??___fltol+3,f
  3850     0C83  0CF6               	rrf	??___fltol+2,f
  3851     0C84  0CF5               	rrf	??___fltol+1,f
  3852     0C85  0CF4               	rrf	??___fltol,f
  3853     0C86                     u3850:
  3854     0C86  0B89               	decfsz	9,f
  3855     0C87  2C82               	goto	u3855
  3856     0C88  0874               	movf	??___fltol,w
  3857     0C89  00F8               	movwf	___fltol@sign1
  3858     0C8A                     l3313:
  3859     0C8A  17F2               	bsf	___fltol@f1+2,7
  3860     0C8B                     l3315:
  3861     0C8B  30FF               	movlw	255
  3862     0C8C  05F0               	andwf	___fltol@f1,f
  3863     0C8D  30FF               	movlw	255
  3864     0C8E  05F1               	andwf	___fltol@f1+1,f
  3865     0C8F  30FF               	movlw	255
  3866     0C90  05F2               	andwf	___fltol@f1+2,f
  3867     0C91  3000               	movlw	0
  3868     0C92  05F3               	andwf	___fltol@f1+3,f
  3869     0C93                     l3317:
  3870     0C93  3096               	movlw	150
  3871     0C94  02F9               	subwf	___fltol@exp1,f
  3872     0C95                     l3319:
  3873     0C95  1FF9               	btfss	___fltol@exp1,7
  3874     0C96  2C98               	goto	u3861
  3875     0C97  2C99               	goto	u3860
  3876     0C98                     u3861:
  3877     0C98  2CB1               	goto	l3329
  3878     0C99                     u3860:
  3879     0C99                     l3321:
  3880     0C99  0879               	movf	___fltol@exp1,w
  3881     0C9A  3A80               	xorlw	128
  3882     0C9B  3E97               	addlw	151
  3883     0C9C  1803               	skipnc
  3884     0C9D  2C9F               	goto	u3871
  3885     0C9E  2CA0               	goto	u3870
  3886     0C9F                     u3871:
  3887     0C9F  2CA1               	goto	l3327
  3888     0CA0                     u3870:
  3889     0CA0  2C70               	goto	l3307
  3890     0CA1                     l3327:
  3891     0CA1  3001               	movlw	1
  3892     0CA2                     u3885:
  3893     0CA2  36F3               	lsrf	___fltol@f1+3,f
  3894     0CA3  0CF2               	rrf	___fltol@f1+2,f
  3895     0CA4  0CF1               	rrf	___fltol@f1+1,f
  3896     0CA5  0CF0               	rrf	___fltol@f1,f
  3897     0CA6  0B89               	decfsz	9,f
  3898     0CA7  2CA2               	goto	u3885
  3899     0CA8  3001               	movlw	1
  3900     0CA9  00F4               	movwf	??___fltol
  3901     0CAA  0874               	movf	??___fltol,w
  3902     0CAB  07F9               	addwf	___fltol@exp1,f
  3903     0CAC  1D03               	btfss	3,2
  3904     0CAD  2CAF               	goto	u3891
  3905     0CAE  2CB0               	goto	u3890
  3906     0CAF                     u3891:
  3907     0CAF  2CA1               	goto	l3327
  3908     0CB0                     u3890:
  3909     0CB0  2CC6               	goto	l3337
  3910     0CB1                     l3329:
  3911     0CB1  3020               	movlw	32
  3912     0CB2  0279               	subwf	___fltol@exp1,w
  3913     0CB3  1C03               	skipc
  3914     0CB4  2CB6               	goto	u3901
  3915     0CB5  2CB7               	goto	u3900
  3916     0CB6                     u3901:
  3917     0CB6  2CC1               	goto	l656
  3918     0CB7                     u3900:
  3919     0CB7  2C70               	goto	l3307
  3920     0CB8                     l3335:
  3921     0CB8  3001               	movlw	1
  3922     0CB9                     u3915:
  3923     0CB9  35F0               	lslf	___fltol@f1,f
  3924     0CBA  0DF1               	rlf	___fltol@f1+1,f
  3925     0CBB  0DF2               	rlf	___fltol@f1+2,f
  3926     0CBC  0DF3               	rlf	___fltol@f1+3,f
  3927     0CBD  0B89               	decfsz	9,f
  3928     0CBE  2CB9               	goto	u3915
  3929     0CBF  3001               	movlw	1
  3930     0CC0  02F9               	subwf	___fltol@exp1,f
  3931     0CC1                     l656:
  3932     0CC1  0879               	movf	___fltol@exp1,w
  3933     0CC2  1D03               	btfss	3,2
  3934     0CC3  2CC5               	goto	u3921
  3935     0CC4  2CC6               	goto	u3920
  3936     0CC5                     u3921:
  3937     0CC5  2CB8               	goto	l3335
  3938     0CC6                     u3920:
  3939     0CC6                     l3337:
  3940     0CC6  0878               	movf	___fltol@sign1,w
  3941     0CC7  1903               	btfsc	3,2
  3942     0CC8  2CCA               	goto	u3931
  3943     0CC9  2CCB               	goto	u3930
  3944     0CCA                     u3931:
  3945     0CCA  2CD6               	goto	l659
  3946     0CCB                     u3930:
  3947     0CCB                     l3339:
  3948     0CCB  09F0               	comf	___fltol@f1,f
  3949     0CCC  09F1               	comf	___fltol@f1+1,f
  3950     0CCD  09F2               	comf	___fltol@f1+2,f
  3951     0CCE  09F3               	comf	___fltol@f1+3,f
  3952     0CCF  0AF0               	incf	___fltol@f1,f
  3953     0CD0  1903               	skipnz
  3954     0CD1  0AF1               	incf	___fltol@f1+1,f
  3955     0CD2  1903               	skipnz
  3956     0CD3  0AF2               	incf	___fltol@f1+2,f
  3957     0CD4  1903               	skipnz
  3958     0CD5  0AF3               	incf	___fltol@f1+3,f
  3959     0CD6                     l659:
  3960     0CD6                     l649:
  3961     0CD6  0008               	return
  3962     0CD7                     __end_of___fltol:
  3963                           
  3964                           	psect	text6
  3965     019E                     __ptext6:	
  3966 ;; *************** function ___flmul *****************
  3967 ;; Defined at:
  3968 ;;		line 8 in file "C:\Program Files\Microchip\xc8\v2.46\pic\sources\c99\common\sprcmul.c"
  3969 ;; Parameters:    Size  Location     Type
  3970 ;;  b               4    0[BANK0 ] long 
  3971 ;;  a               4    4[BANK0 ] long 
  3972 ;; Auto vars:     Size  Location     Type
  3973 ;;  prod            4   20[BANK0 ] struct .
  3974 ;;  grs             4   14[BANK0 ] unsigned long 
  3975 ;;  temp            2   24[BANK0 ] struct .
  3976 ;;  bexp            1   19[BANK0 ] unsigned char 
  3977 ;;  aexp            1   18[BANK0 ] unsigned char 
  3978 ;;  sign            1   13[BANK0 ] unsigned char 
  3979 ;; Return value:  Size  Location     Type
  3980 ;;                  4    0[BANK0 ] unsigned char 
  3981 ;; Registers used:
  3982 ;;		wreg, status,2, status,0, pclath, cstack
  3983 ;; Tracked objects:
  3984 ;;		On entry : 0/0
  3985 ;;		On exit  : 0/0
  3986 ;;		Unchanged: 0/0
  3987 ;; Data sizes:     COMMON   BANK0   BANK1   BANK2   BANK3   BANK4   BANK5   BANK6   BANK7   BANK8   BANK9  BANK10  BANK1
      +1  BANK12  BANK13  BANK14  BANK15  BANK16  BANK17  BANK18  BANK19  BANK20  BANK21  BANK22  BANK23  BANK24  BANK25
  3988 ;;      Params:         0       8       0       0       0       0       0       0       0       0       0       0       
      +0       0       0       0       0       0       0       0       0       0       0       0       0       0       0
  3989 ;;      Locals:         0      13       0       0       0       0       0       0       0       0       0       0       
      +0       0       0       0       0       0       0       0       0       0       0       0       0       0       0
  3990 ;;      Temps:          0       5       0       0       0       0       0       0       0       0       0       0       
      +0       0       0       0       0       0       0       0       0       0       0       0       0       0       0
  3991 ;;      Totals:         0      26       0       0       0       0       0       0       0       0       0       0       
      +0       0       0       0       0       0       0       0       0       0       0       0       0       0       0
  3992 ;;Total ram usage:       26 bytes
  3993 ;; Hardware stack levels used: 1
  3994 ;; Hardware stack levels required when called: 1
  3995 ;; This function calls:
  3996 ;;		__Umul8_16
  3997 ;; This function is called by:
  3998 ;;		_main
  3999 ;; This function uses a non-reentrant model
  4000 ;;
  4001                           
  4002     019E                     ___flmul:	
  4003                           ;psect for function ___flmul
  4004                           
  4005     019E                     l3481:	
  4006                           ;incstack = 0
  4007                           ; Regs used in ___flmul: [wreg+status,2+status,0+pclath+cstack]
  4008                           
  4009     019E  0020               	movlb	0	; select bank0
  4010     019F  0823               	movf	___flmul@b+3,w
  4011     01A0  3980               	andlw	128
  4012     01A1  00AD               	movwf	___flmul@sign
  4013     01A2                     l3483:
  4014     01A2  3523               	lslf	___flmul@b+3,w
  4015     01A3  00B3               	movwf	___flmul@bexp
  4016     01A4                     l3485:
  4017     01A4  1FA2               	btfss	___flmul@b+2,7
  4018     01A5  29A7               	goto	u4231
  4019     01A6  29A8               	goto	u4230
  4020     01A7                     u4231:
  4021     01A7  29A9               	goto	l3489
  4022     01A8                     u4230:
  4023     01A8                     l3487:
  4024     01A8  1433               	bsf	___flmul@bexp,0
  4025     01A9                     l3489:
  4026     01A9  0833               	movf	___flmul@bexp,w
  4027     01AA  1903               	btfsc	3,2
  4028     01AB  29AD               	goto	u4241
  4029     01AC  29AE               	goto	u4240
  4030     01AD                     u4241:
  4031     01AD  29BD               	goto	l3497
  4032     01AE                     u4240:
  4033     01AE                     l3491:
  4034     01AE  0A33               	incf	___flmul@bexp,w
  4035     01AF  1D03               	btfss	3,2
  4036     01B0  29B2               	goto	u4251
  4037     01B1  29B3               	goto	u4250
  4038     01B2                     u4251:
  4039     01B2  29BB               	goto	l3495
  4040     01B3                     u4250:
  4041     01B3                     l3493:
  4042     01B3  3000               	movlw	0
  4043     01B4  00A3               	movwf	___flmul@b+3
  4044     01B5  3000               	movlw	0
  4045     01B6  00A2               	movwf	___flmul@b+2
  4046     01B7  3000               	movlw	0
  4047     01B8  00A1               	movwf	___flmul@b+1
  4048     01B9  3000               	movlw	0
  4049     01BA  00A0               	movwf	___flmul@b
  4050     01BB                     l3495:
  4051     01BB  17A2               	bsf	___flmul@b+2,7
  4052     01BC  29C5               	goto	l3499
  4053     01BD                     l3497:
  4054     01BD  3000               	movlw	0
  4055     01BE  00A3               	movwf	___flmul@b+3
  4056     01BF  3000               	movlw	0
  4057     01C0  00A2               	movwf	___flmul@b+2
  4058     01C1  3000               	movlw	0
  4059     01C2  00A1               	movwf	___flmul@b+1
  4060     01C3  3000               	movlw	0
  4061     01C4  00A0               	movwf	___flmul@b
  4062     01C5                     l3499:
  4063     01C5  0827               	movf	___flmul@a+3,w
  4064     01C6  3980               	andlw	128
  4065     01C7  00A8               	movwf	??___flmul
  4066     01C8  0828               	movf	??___flmul,w
  4067     01C9  06AD               	xorwf	___flmul@sign,f
  4068     01CA                     l3501:
  4069     01CA  3527               	lslf	___flmul@a+3,w
  4070     01CB  00B2               	movwf	___flmul@aexp
  4071     01CC                     l3503:
  4072     01CC  1FA6               	btfss	___flmul@a+2,7
  4073     01CD  29CF               	goto	u4261
  4074     01CE  29D0               	goto	u4260
  4075     01CF                     u4261:
  4076     01CF  29D1               	goto	l3507
  4077     01D0                     u4260:
  4078     01D0                     l3505:
  4079     01D0  1432               	bsf	___flmul@aexp,0
  4080     01D1                     l3507:
  4081     01D1  0832               	movf	___flmul@aexp,w
  4082     01D2  1903               	btfsc	3,2
  4083     01D3  29D5               	goto	u4271
  4084     01D4  29D6               	goto	u4270
  4085     01D5                     u4271:
  4086     01D5  29E5               	goto	l3515
  4087     01D6                     u4270:
  4088     01D6                     l3509:
  4089     01D6  0A32               	incf	___flmul@aexp,w
  4090     01D7  1D03               	btfss	3,2
  4091     01D8  29DA               	goto	u4281
  4092     01D9  29DB               	goto	u4280
  4093     01DA                     u4281:
  4094     01DA  29E3               	goto	l3513
  4095     01DB                     u4280:
  4096     01DB                     l3511:
  4097     01DB  3000               	movlw	0
  4098     01DC  00A7               	movwf	___flmul@a+3
  4099     01DD  3000               	movlw	0
  4100     01DE  00A6               	movwf	___flmul@a+2
  4101     01DF  3000               	movlw	0
  4102     01E0  00A5               	movwf	___flmul@a+1
  4103     01E1  3000               	movlw	0
  4104     01E2  00A4               	movwf	___flmul@a
  4105     01E3                     l3513:
  4106     01E3  17A6               	bsf	___flmul@a+2,7
  4107     01E4  29ED               	goto	l3517
  4108     01E5                     l3515:
  4109     01E5  3000               	movlw	0
  4110     01E6  00A7               	movwf	___flmul@a+3
  4111     01E7  3000               	movlw	0
  4112     01E8  00A6               	movwf	___flmul@a+2
  4113     01E9  3000               	movlw	0
  4114     01EA  00A5               	movwf	___flmul@a+1
  4115     01EB  3000               	movlw	0
  4116     01EC  00A4               	movwf	___flmul@a
  4117     01ED                     l3517:
  4118     01ED  0832               	movf	___flmul@aexp,w
  4119     01EE  1903               	btfsc	3,2
  4120     01EF  29F1               	goto	u4291
  4121     01F0  29F2               	goto	u4290
  4122     01F1                     u4291:
  4123     01F1  29F7               	goto	l3521
  4124     01F2                     u4290:
  4125     01F2                     l3519:
  4126     01F2  0833               	movf	___flmul@bexp,w
  4127     01F3  1D03               	btfss	3,2
  4128     01F4  29F6               	goto	u4301
  4129     01F5  29F7               	goto	u4300
  4130     01F6                     u4301:
  4131     01F6  2A00               	goto	l3525
  4132     01F7                     u4300:
  4133     01F7                     l3521:
  4134     01F7  3000               	movlw	0
  4135     01F8  00A3               	movwf	?___flmul+3
  4136     01F9  3000               	movlw	0
  4137     01FA  00A2               	movwf	?___flmul+2
  4138     01FB  3000               	movlw	0
  4139     01FC  00A1               	movwf	?___flmul+1
  4140     01FD  3000               	movlw	0
  4141     01FE  00A0               	movwf	?___flmul
  4142     01FF  2BD8               	goto	l852
  4143     0200                     l3525:
  4144     0200  0820               	movf	___flmul@b,w
  4145     0201  00F0               	movwf	__Umul8_16@multiplicand
  4146     0202  0826               	movf	___flmul@a+2,w
  4147     0203  3194  247F  3181   	fcall	__Umul8_16
  4148     0206  0871               	movf	?__Umul8_16+1,w
  4149     0207  0020               	movlb	0	; select bank0
  4150     0208  00B9               	movwf	___flmul@temp+1
  4151     0209  0870               	movf	?__Umul8_16,w
  4152     020A  00B8               	movwf	___flmul@temp
  4153     020B                     l3527:
  4154     020B  0838               	movf	___flmul@temp,w
  4155     020C  00A8               	movwf	??___flmul
  4156     020D  01A9               	clrf	??___flmul+1
  4157     020E  01AA               	clrf	??___flmul+2
  4158     020F  01AB               	clrf	??___flmul+3
  4159     0210  082B               	movf	??___flmul+3,w
  4160     0211  00B1               	movwf	___flmul@grs+3
  4161     0212  082A               	movf	??___flmul+2,w
  4162     0213  00B0               	movwf	___flmul@grs+2
  4163     0214  0829               	movf	??___flmul+1,w
  4164     0215  00AF               	movwf	___flmul@grs+1
  4165     0216  0828               	movf	??___flmul,w
  4166     0217  00AE               	movwf	___flmul@grs
  4167     0218                     l3529:
  4168     0218  0839               	movf	___flmul@temp+1,w
  4169     0219  00A8               	movwf	??___flmul
  4170     021A  01A9               	clrf	??___flmul+1
  4171     021B  01AA               	clrf	??___flmul+2
  4172     021C  01AB               	clrf	??___flmul+3
  4173     021D  082B               	movf	??___flmul+3,w
  4174     021E  00B7               	movwf	___flmul@prod+3
  4175     021F  082A               	movf	??___flmul+2,w
  4176     0220  00B6               	movwf	___flmul@prod+2
  4177     0221  0829               	movf	??___flmul+1,w
  4178     0222  00B5               	movwf	___flmul@prod+1
  4179     0223  0828               	movf	??___flmul,w
  4180     0224  00B4               	movwf	___flmul@prod
  4181     0225  0821               	movf	___flmul@b+1,w
  4182     0226  00F0               	movwf	__Umul8_16@multiplicand
  4183     0227  0825               	movf	___flmul@a+1,w
  4184     0228  3194  247F  3181   	fcall	__Umul8_16
  4185     022B  0871               	movf	?__Umul8_16+1,w
  4186     022C  0020               	movlb	0	; select bank0
  4187     022D  00B9               	movwf	___flmul@temp+1
  4188     022E  0870               	movf	?__Umul8_16,w
  4189     022F  00B8               	movwf	___flmul@temp
  4190     0230                     l3531:
  4191     0230  0838               	movf	___flmul@temp,w
  4192     0231  00A8               	movwf	??___flmul
  4193     0232  01A9               	clrf	??___flmul+1
  4194     0233  01AA               	clrf	??___flmul+2
  4195     0234  01AB               	clrf	??___flmul+3
  4196     0235  0828               	movf	??___flmul,w
  4197     0236  07AE               	addwf	___flmul@grs,f
  4198     0237  0829               	movf	??___flmul+1,w
  4199     0238  3DAF               	addwfc	___flmul@grs+1,f
  4200     0239  082A               	movf	??___flmul+2,w
  4201     023A  3DB0               	addwfc	___flmul@grs+2,f
  4202     023B  082B               	movf	??___flmul+3,w
  4203     023C  3DB1               	addwfc	___flmul@grs+3,f
  4204     023D                     l3533:
  4205     023D  0839               	movf	___flmul@temp+1,w
  4206     023E  00A8               	movwf	??___flmul
  4207     023F  01A9               	clrf	??___flmul+1
  4208     0240  01AA               	clrf	??___flmul+2
  4209     0241  01AB               	clrf	??___flmul+3
  4210     0242  0828               	movf	??___flmul,w
  4211     0243  07B4               	addwf	___flmul@prod,f
  4212     0244  0829               	movf	??___flmul+1,w
  4213     0245  3DB5               	addwfc	___flmul@prod+1,f
  4214     0246  082A               	movf	??___flmul+2,w
  4215     0247  3DB6               	addwfc	___flmul@prod+2,f
  4216     0248  082B               	movf	??___flmul+3,w
  4217     0249  3DB7               	addwfc	___flmul@prod+3,f
  4218     024A  0822               	movf	___flmul@b+2,w
  4219     024B  00F0               	movwf	__Umul8_16@multiplicand
  4220     024C  0824               	movf	___flmul@a,w
  4221     024D  3194  247F  3181   	fcall	__Umul8_16
  4222     0250  0871               	movf	?__Umul8_16+1,w
  4223     0251  0020               	movlb	0	; select bank0
  4224     0252  00B9               	movwf	___flmul@temp+1
  4225     0253  0870               	movf	?__Umul8_16,w
  4226     0254  00B8               	movwf	___flmul@temp
  4227     0255                     l3535:
  4228     0255  0838               	movf	___flmul@temp,w
  4229     0256  00A8               	movwf	??___flmul
  4230     0257  01A9               	clrf	??___flmul+1
  4231     0258  01AA               	clrf	??___flmul+2
  4232     0259  01AB               	clrf	??___flmul+3
  4233     025A  0828               	movf	??___flmul,w
  4234     025B  07AE               	addwf	___flmul@grs,f
  4235     025C  0829               	movf	??___flmul+1,w
  4236     025D  3DAF               	addwfc	___flmul@grs+1,f
  4237     025E  082A               	movf	??___flmul+2,w
  4238     025F  3DB0               	addwfc	___flmul@grs+2,f
  4239     0260  082B               	movf	??___flmul+3,w
  4240     0261  3DB1               	addwfc	___flmul@grs+3,f
  4241     0262                     l3537:
  4242     0262  0839               	movf	___flmul@temp+1,w
  4243     0263  00A8               	movwf	??___flmul
  4244     0264  01A9               	clrf	??___flmul+1
  4245     0265  01AA               	clrf	??___flmul+2
  4246     0266  01AB               	clrf	??___flmul+3
  4247     0267  0828               	movf	??___flmul,w
  4248     0268  07B4               	addwf	___flmul@prod,f
  4249     0269  0829               	movf	??___flmul+1,w
  4250     026A  3DB5               	addwfc	___flmul@prod+1,f
  4251     026B  082A               	movf	??___flmul+2,w
  4252     026C  3DB6               	addwfc	___flmul@prod+2,f
  4253     026D  082B               	movf	??___flmul+3,w
  4254     026E  3DB7               	addwfc	___flmul@prod+3,f
  4255     026F                     l3539:
  4256     026F  3008               	movlw	8
  4257     0270                     u4315:
  4258     0270  35AE               	lslf	___flmul@grs,f
  4259     0271  0DAF               	rlf	___flmul@grs+1,f
  4260     0272  0DB0               	rlf	___flmul@grs+2,f
  4261     0273  0DB1               	rlf	___flmul@grs+3,f
  4262     0274  0B89               	decfsz	9,f
  4263     0275  2A70               	goto	u4315
  4264     0276                     l3541:
  4265     0276  0821               	movf	___flmul@b+1,w
  4266     0277  00F0               	movwf	__Umul8_16@multiplicand
  4267     0278  0824               	movf	___flmul@a,w
  4268     0279  3194  247F  3181   	fcall	__Umul8_16
  4269     027C  0871               	movf	?__Umul8_16+1,w
  4270     027D  0020               	movlb	0	; select bank0
  4271     027E  00B9               	movwf	___flmul@temp+1
  4272     027F  0870               	movf	?__Umul8_16,w
  4273     0280  00B8               	movwf	___flmul@temp
  4274     0281                     l3543:
  4275     0281  0838               	movf	___flmul@temp,w
  4276     0282  07AE               	addwf	___flmul@grs,f
  4277     0283  0839               	movf	___flmul@temp+1,w
  4278     0284  3DAF               	addwfc	___flmul@grs+1,f
  4279     0285  3000               	movlw	0
  4280     0286  3DB0               	addwfc	___flmul@grs+2,f
  4281     0287  3DB1               	addwfc	___flmul@grs+3,f
  4282     0288                     l3545:
  4283     0288  0820               	movf	___flmul@b,w
  4284     0289  00F0               	movwf	__Umul8_16@multiplicand
  4285     028A  0825               	movf	___flmul@a+1,w
  4286     028B  3194  247F  3181   	fcall	__Umul8_16
  4287     028E  0871               	movf	?__Umul8_16+1,w
  4288     028F  0020               	movlb	0	; select bank0
  4289     0290  00B9               	movwf	___flmul@temp+1
  4290     0291  0870               	movf	?__Umul8_16,w
  4291     0292  00B8               	movwf	___flmul@temp
  4292     0293                     l3547:
  4293     0293  0838               	movf	___flmul@temp,w
  4294     0294  07AE               	addwf	___flmul@grs,f
  4295     0295  0839               	movf	___flmul@temp+1,w
  4296     0296  3DAF               	addwfc	___flmul@grs+1,f
  4297     0297  3000               	movlw	0
  4298     0298  3DB0               	addwfc	___flmul@grs+2,f
  4299     0299  3DB1               	addwfc	___flmul@grs+3,f
  4300     029A                     l3549:
  4301     029A  3008               	movlw	8
  4302     029B                     u4325:
  4303     029B  35AE               	lslf	___flmul@grs,f
  4304     029C  0DAF               	rlf	___flmul@grs+1,f
  4305     029D  0DB0               	rlf	___flmul@grs+2,f
  4306     029E  0DB1               	rlf	___flmul@grs+3,f
  4307     029F  0B89               	decfsz	9,f
  4308     02A0  2A9B               	goto	u4325
  4309     02A1  0820               	movf	___flmul@b,w
  4310     02A2  00F0               	movwf	__Umul8_16@multiplicand
  4311     02A3  0824               	movf	___flmul@a,w
  4312     02A4  3194  247F  3181   	fcall	__Umul8_16
  4313     02A7  0871               	movf	?__Umul8_16+1,w
  4314     02A8  0020               	movlb	0	; select bank0
  4315     02A9  00B9               	movwf	___flmul@temp+1
  4316     02AA  0870               	movf	?__Umul8_16,w
  4317     02AB  00B8               	movwf	___flmul@temp
  4318     02AC                     l3551:
  4319     02AC  0838               	movf	___flmul@temp,w
  4320     02AD  07AE               	addwf	___flmul@grs,f
  4321     02AE  0839               	movf	___flmul@temp+1,w
  4322     02AF  3DAF               	addwfc	___flmul@grs+1,f
  4323     02B0  3000               	movlw	0
  4324     02B1  3DB0               	addwfc	___flmul@grs+2,f
  4325     02B2  3DB1               	addwfc	___flmul@grs+3,f
  4326     02B3                     l3553:
  4327     02B3  0821               	movf	___flmul@b+1,w
  4328     02B4  00F0               	movwf	__Umul8_16@multiplicand
  4329     02B5  0826               	movf	___flmul@a+2,w
  4330     02B6  3194  247F  3181   	fcall	__Umul8_16
  4331     02B9  0871               	movf	?__Umul8_16+1,w
  4332     02BA  0020               	movlb	0	; select bank0
  4333     02BB  00B9               	movwf	___flmul@temp+1
  4334     02BC  0870               	movf	?__Umul8_16,w
  4335     02BD  00B8               	movwf	___flmul@temp
  4336     02BE  0838               	movf	___flmul@temp,w
  4337     02BF  07B4               	addwf	___flmul@prod,f
  4338     02C0  0839               	movf	___flmul@temp+1,w
  4339     02C1  3DB5               	addwfc	___flmul@prod+1,f
  4340     02C2  3000               	movlw	0
  4341     02C3  3DB6               	addwfc	___flmul@prod+2,f
  4342     02C4  3DB7               	addwfc	___flmul@prod+3,f
  4343     02C5                     l3555:
  4344     02C5  0822               	movf	___flmul@b+2,w
  4345     02C6  00F0               	movwf	__Umul8_16@multiplicand
  4346     02C7  0825               	movf	___flmul@a+1,w
  4347     02C8  3194  247F  3181   	fcall	__Umul8_16
  4348     02CB  0871               	movf	?__Umul8_16+1,w
  4349     02CC  0020               	movlb	0	; select bank0
  4350     02CD  00B9               	movwf	___flmul@temp+1
  4351     02CE  0870               	movf	?__Umul8_16,w
  4352     02CF  00B8               	movwf	___flmul@temp
  4353     02D0                     l3557:
  4354     02D0  0838               	movf	___flmul@temp,w
  4355     02D1  07B4               	addwf	___flmul@prod,f
  4356     02D2  0839               	movf	___flmul@temp+1,w
  4357     02D3  3DB5               	addwfc	___flmul@prod+1,f
  4358     02D4  3000               	movlw	0
  4359     02D5  3DB6               	addwfc	___flmul@prod+2,f
  4360     02D6  3DB7               	addwfc	___flmul@prod+3,f
  4361     02D7  0822               	movf	___flmul@b+2,w
  4362     02D8  00F0               	movwf	__Umul8_16@multiplicand
  4363     02D9  0826               	movf	___flmul@a+2,w
  4364     02DA  3194  247F  3181   	fcall	__Umul8_16
  4365     02DD  0871               	movf	?__Umul8_16+1,w
  4366     02DE  0020               	movlb	0	; select bank0
  4367     02DF  00B9               	movwf	___flmul@temp+1
  4368     02E0  0870               	movf	?__Umul8_16,w
  4369     02E1  00B8               	movwf	___flmul@temp
  4370     02E2                     l3559:
  4371     02E2  0838               	movf	___flmul@temp,w
  4372     02E3  00A8               	movwf	??___flmul
  4373     02E4  0839               	movf	___flmul@temp+1,w
  4374     02E5  00A9               	movwf	??___flmul+1
  4375     02E6  01AA               	clrf	??___flmul+2
  4376     02E7  01AB               	clrf	??___flmul+3
  4377     02E8  3008               	movlw	8
  4378     02E9                     u4335:
  4379     02E9  35A8               	lslf	??___flmul,f
  4380     02EA  0DA9               	rlf	??___flmul+1,f
  4381     02EB  0DAA               	rlf	??___flmul+2,f
  4382     02EC  0DAB               	rlf	??___flmul+3,f
  4383     02ED                     u4330:
  4384     02ED  0B89               	decfsz	9,f
  4385     02EE  2AE9               	goto	u4335
  4386     02EF  0828               	movf	??___flmul,w
  4387     02F0  07B4               	addwf	___flmul@prod,f
  4388     02F1  0829               	movf	??___flmul+1,w
  4389     02F2  3DB5               	addwfc	___flmul@prod+1,f
  4390     02F3  082A               	movf	??___flmul+2,w
  4391     02F4  3DB6               	addwfc	___flmul@prod+2,f
  4392     02F5  082B               	movf	??___flmul+3,w
  4393     02F6  3DB7               	addwfc	___flmul@prod+3,f
  4394     02F7                     l3561:
  4395     02F7  082E               	movf	___flmul@grs,w
  4396     02F8  00A8               	movwf	??___flmul
  4397     02F9  082F               	movf	___flmul@grs+1,w
  4398     02FA  00A9               	movwf	??___flmul+1
  4399     02FB  0830               	movf	___flmul@grs+2,w
  4400     02FC  00AA               	movwf	??___flmul+2
  4401     02FD  0831               	movf	___flmul@grs+3,w
  4402     02FE  00AB               	movwf	??___flmul+3
  4403     02FF  3018               	movlw	24
  4404     0300                     u4345:
  4405     0300  36AB               	lsrf	??___flmul+3,f
  4406     0301  0CAA               	rrf	??___flmul+2,f
  4407     0302  0CA9               	rrf	??___flmul+1,f
  4408     0303  0CA8               	rrf	??___flmul,f
  4409     0304                     u4340:
  4410     0304  0B89               	decfsz	9,f
  4411     0305  2B00               	goto	u4345
  4412     0306  0828               	movf	??___flmul,w
  4413     0307  07B4               	addwf	___flmul@prod,f
  4414     0308  0829               	movf	??___flmul+1,w
  4415     0309  3DB5               	addwfc	___flmul@prod+1,f
  4416     030A  082A               	movf	??___flmul+2,w
  4417     030B  3DB6               	addwfc	___flmul@prod+2,f
  4418     030C  082B               	movf	??___flmul+3,w
  4419     030D  3DB7               	addwfc	___flmul@prod+3,f
  4420     030E                     l3563:
  4421     030E  3008               	movlw	8
  4422     030F                     u4355:
  4423     030F  35AE               	lslf	___flmul@grs,f
  4424     0310  0DAF               	rlf	___flmul@grs+1,f
  4425     0311  0DB0               	rlf	___flmul@grs+2,f
  4426     0312  0DB1               	rlf	___flmul@grs+3,f
  4427     0313  0B89               	decfsz	9,f
  4428     0314  2B0F               	goto	u4355
  4429     0315                     l3565:
  4430     0315  0833               	movf	___flmul@bexp,w
  4431     0316  0732               	addwf	___flmul@aexp,w
  4432     0317  00A8               	movwf	??___flmul
  4433     0318  01A9               	clrf	??___flmul+1
  4434     0319  0DA9               	rlf	??___flmul+1,f
  4435     031A  0828               	movf	??___flmul,w
  4436     031B  3E82               	addlw	130
  4437     031C  00B8               	movwf	___flmul@temp
  4438     031D  30FF               	movlw	255
  4439     031E  3D29               	addwfc	??___flmul+1,w
  4440     031F  00B9               	movwf	___flmul@temp+1
  4441     0320  2B38               	goto	l3577
  4442     0321                     l3567:
  4443     0321  3001               	movlw	1
  4444     0322                     u4365:
  4445     0322  35B4               	lslf	___flmul@prod,f
  4446     0323  0DB5               	rlf	___flmul@prod+1,f
  4447     0324  0DB6               	rlf	___flmul@prod+2,f
  4448     0325  0DB7               	rlf	___flmul@prod+3,f
  4449     0326  0B89               	decfsz	9,f
  4450     0327  2B22               	goto	u4365
  4451     0328                     l3569:
  4452     0328  1FB1               	btfss	___flmul@grs+3,7
  4453     0329  2B2B               	goto	u4371
  4454     032A  2B2C               	goto	u4370
  4455     032B                     u4371:
  4456     032B  2B2D               	goto	l3573
  4457     032C                     u4370:
  4458     032C                     l3571:
  4459     032C  1434               	bsf	___flmul@prod,0
  4460     032D                     l3573:
  4461     032D  3001               	movlw	1
  4462     032E                     u4385:
  4463     032E  35AE               	lslf	___flmul@grs,f
  4464     032F  0DAF               	rlf	___flmul@grs+1,f
  4465     0330  0DB0               	rlf	___flmul@grs+2,f
  4466     0331  0DB1               	rlf	___flmul@grs+3,f
  4467     0332  0B89               	decfsz	9,f
  4468     0333  2B2E               	goto	u4385
  4469     0334                     l3575:
  4470     0334  30FF               	movlw	255
  4471     0335  07B8               	addwf	___flmul@temp,f
  4472     0336  30FF               	movlw	255
  4473     0337  3DB9               	addwfc	___flmul@temp+1,f
  4474     0338                     l3577:
  4475     0338  1FB6               	btfss	___flmul@prod+2,7
  4476     0339  2B3B               	goto	u4391
  4477     033A  2B3C               	goto	u4390
  4478     033B                     u4391:
  4479     033B  2B21               	goto	l3567
  4480     033C                     u4390:
  4481     033C                     l3579:
  4482     033C  01B2               	clrf	___flmul@aexp
  4483     033D                     l3581:
  4484     033D  1FB1               	btfss	___flmul@grs+3,7
  4485     033E  2B40               	goto	u4401
  4486     033F  2B41               	goto	u4400
  4487     0340                     u4401:
  4488     0340  2B5D               	goto	l3589
  4489     0341                     u4400:
  4490     0341                     l3583:
  4491     0341  30FF               	movlw	255
  4492     0342  052E               	andwf	___flmul@grs,w
  4493     0343  00A8               	movwf	??___flmul
  4494     0344  30FF               	movlw	255
  4495     0345  052F               	andwf	___flmul@grs+1,w
  4496     0346  00A9               	movwf	??___flmul+1
  4497     0347  30FF               	movlw	255
  4498     0348  0530               	andwf	___flmul@grs+2,w
  4499     0349  00AA               	movwf	??___flmul+2
  4500     034A  307F               	movlw	127
  4501     034B  0531               	andwf	___flmul@grs+3,w
  4502     034C  00AB               	movwf	??___flmul+3
  4503     034D  082B               	movf	??___flmul+3,w
  4504     034E  042A               	iorwf	??___flmul+2,w
  4505     034F  0429               	iorwf	??___flmul+1,w
  4506     0350  0428               	iorwf	??___flmul,w
  4507     0351  1903               	skipnz
  4508     0352  2B54               	goto	u4411
  4509     0353  2B55               	goto	u4410
  4510     0354                     u4411:
  4511     0354  2B58               	goto	l858
  4512     0355                     u4410:
  4513     0355                     l3585:
  4514     0355  01B2               	clrf	___flmul@aexp
  4515     0356  0AB2               	incf	___flmul@aexp,f
  4516     0357  2B5D               	goto	l3589
  4517     0358                     l858:
  4518     0358  1C34               	btfss	___flmul@prod,0
  4519     0359  2B5B               	goto	u4421
  4520     035A  2B5C               	goto	u4420
  4521     035B                     u4421:
  4522     035B  2B5D               	goto	l3589
  4523     035C                     u4420:
  4524     035C  2B55               	goto	l3585
  4525     035D                     l3589:
  4526     035D  0832               	movf	___flmul@aexp,w
  4527     035E  1903               	btfsc	3,2
  4528     035F  2B61               	goto	u4431
  4529     0360  2B62               	goto	u4430
  4530     0361                     u4431:
  4531     0361  2B8A               	goto	l3599
  4532     0362                     u4430:
  4533     0362                     l3591:
  4534     0362  3001               	movlw	1
  4535     0363  07B4               	addwf	___flmul@prod,f
  4536     0364  3000               	movlw	0
  4537     0365  3DB5               	addwfc	___flmul@prod+1,f
  4538     0366  3000               	movlw	0
  4539     0367  3DB6               	addwfc	___flmul@prod+2,f
  4540     0368  3000               	movlw	0
  4541     0369  3DB7               	addwfc	___flmul@prod+3,f
  4542     036A                     l3593:
  4543     036A  1C37               	btfss	___flmul@prod+3,0
  4544     036B  2B6D               	goto	u4441
  4545     036C  2B6E               	goto	u4440
  4546     036D                     u4441:
  4547     036D  2B8A               	goto	l3599
  4548     036E                     u4440:
  4549     036E                     l3595:
  4550     036E  0834               	movf	___flmul@prod,w
  4551     036F  00A8               	movwf	??___flmul
  4552     0370  0835               	movf	___flmul@prod+1,w
  4553     0371  00A9               	movwf	??___flmul+1
  4554     0372  0836               	movf	___flmul@prod+2,w
  4555     0373  00AA               	movwf	??___flmul+2
  4556     0374  0837               	movf	___flmul@prod+3,w
  4557     0375  00AB               	movwf	??___flmul+3
  4558     0376  3001               	movlw	1
  4559     0377  00AC               	movwf	??___flmul+4
  4560     0378                     u4455:
  4561     0378  37AB               	asrf	??___flmul+3,f
  4562     0379  0CAA               	rrf	??___flmul+2,f
  4563     037A  0CA9               	rrf	??___flmul+1,f
  4564     037B  0CA8               	rrf	??___flmul,f
  4565     037C                     u4450:
  4566     037C  0BAC               	decfsz	??___flmul+4,f
  4567     037D  2B78               	goto	u4455
  4568     037E  082B               	movf	??___flmul+3,w
  4569     037F  00B7               	movwf	___flmul@prod+3
  4570     0380  082A               	movf	??___flmul+2,w
  4571     0381  00B6               	movwf	___flmul@prod+2
  4572     0382  0829               	movf	??___flmul+1,w
  4573     0383  00B5               	movwf	___flmul@prod+1
  4574     0384  0828               	movf	??___flmul,w
  4575     0385  00B4               	movwf	___flmul@prod
  4576     0386                     l3597:
  4577     0386  3001               	movlw	1
  4578     0387  07B8               	addwf	___flmul@temp,f
  4579     0388  3000               	movlw	0
  4580     0389  3DB9               	addwfc	___flmul@temp+1,f
  4581     038A                     l3599:
  4582     038A  0839               	movf	___flmul@temp+1,w
  4583     038B  3A80               	xorlw	128
  4584     038C  00A8               	movwf	??___flmul
  4585     038D  3080               	movlw	128
  4586     038E  0228               	subwf	??___flmul,w
  4587     038F  1D03               	skipz
  4588     0390  2B93               	goto	u4465
  4589     0391  30FF               	movlw	255
  4590     0392  0238               	subwf	___flmul@temp,w
  4591     0393                     u4465:
  4592     0393  1C03               	skipc
  4593     0394  2B96               	goto	u4461
  4594     0395  2B97               	goto	u4460
  4595     0396                     u4461:
  4596     0396  2BA1               	goto	l3603
  4597     0397                     u4460:
  4598     0397                     l3601:
  4599     0397  307F               	movlw	127
  4600     0398  0020               	movlb	0	; select bank0
  4601     0399  00B7               	movwf	___flmul@prod+3
  4602     039A  3080               	movlw	128
  4603     039B  00B6               	movwf	___flmul@prod+2
  4604     039C  3000               	movlw	0
  4605     039D  00B5               	movwf	___flmul@prod+1
  4606     039E  3000               	movlw	0
  4607     039F  00B4               	movwf	___flmul@prod
  4608     03A0  2BCC               	goto	l864
  4609     03A1                     l3603:
  4610     03A1  0020               	movlb	0	; select bank0
  4611     03A2  0839               	movf	___flmul@temp+1,w
  4612     03A3  3A80               	xorlw	128
  4613     03A4  00A8               	movwf	??___flmul
  4614     03A5  3080               	movlw	128
  4615     03A6  0228               	subwf	??___flmul,w
  4616     03A7  1D03               	skipz
  4617     03A8  2BAB               	goto	u4475
  4618     03A9  3001               	movlw	1
  4619     03AA  0238               	subwf	___flmul@temp,w
  4620     03AB                     u4475:
  4621     03AB  1803               	skipnc
  4622     03AC  2BAE               	goto	u4471
  4623     03AD  2BAF               	goto	u4470
  4624     03AE                     u4471:
  4625     03AE  2BBA               	goto	l3609
  4626     03AF                     u4470:
  4627     03AF                     l3605:
  4628     03AF  3000               	movlw	0
  4629     03B0  0020               	movlb	0	; select bank0
  4630     03B1  00B7               	movwf	___flmul@prod+3
  4631     03B2  3000               	movlw	0
  4632     03B3  00B6               	movwf	___flmul@prod+2
  4633     03B4  3000               	movlw	0
  4634     03B5  00B5               	movwf	___flmul@prod+1
  4635     03B6  3000               	movlw	0
  4636     03B7  00B4               	movwf	___flmul@prod
  4637     03B8                     l3607:
  4638     03B8  01AD               	clrf	___flmul@sign
  4639     03B9  2BCC               	goto	l864
  4640     03BA                     l3609:
  4641     03BA  0020               	movlb	0	; select bank0
  4642     03BB  0838               	movf	___flmul@temp,w
  4643     03BC  00B3               	movwf	___flmul@bexp
  4644     03BD  30FF               	movlw	255
  4645     03BE  05B4               	andwf	___flmul@prod,f
  4646     03BF  30FF               	movlw	255
  4647     03C0  05B5               	andwf	___flmul@prod+1,f
  4648     03C1  307F               	movlw	127
  4649     03C2  05B6               	andwf	___flmul@prod+2,f
  4650     03C3  3000               	movlw	0
  4651     03C4  05B7               	andwf	___flmul@prod+3,f
  4652     03C5                     l3611:
  4653     03C5  1C33               	btfss	___flmul@bexp,0
  4654     03C6  2BC8               	goto	u4481
  4655     03C7  2BC9               	goto	u4480
  4656     03C8                     u4481:
  4657     03C8  2BCA               	goto	l3615
  4658     03C9                     u4480:
  4659     03C9                     l3613:
  4660     03C9  17B6               	bsf	___flmul@prod+2,7
  4661     03CA                     l3615:
  4662     03CA  3633               	lsrf	___flmul@bexp,w
  4663     03CB  00B7               	movwf	___flmul@prod+3
  4664     03CC                     l864:
  4665     03CC  082D               	movf	___flmul@sign,w
  4666     03CD  00A8               	movwf	??___flmul
  4667     03CE  0828               	movf	??___flmul,w
  4668     03CF  04B7               	iorwf	___flmul@prod+3,f
  4669     03D0                     l3617:
  4670     03D0  0837               	movf	___flmul@prod+3,w
  4671     03D1  00A3               	movwf	?___flmul+3
  4672     03D2  0836               	movf	___flmul@prod+2,w
  4673     03D3  00A2               	movwf	?___flmul+2
  4674     03D4  0835               	movf	___flmul@prod+1,w
  4675     03D5  00A1               	movwf	?___flmul+1
  4676     03D6  0834               	movf	___flmul@prod,w
  4677     03D7  00A0               	movwf	?___flmul
  4678     03D8                     l852:
  4679     03D8  0008               	return
  4680     03D9                     __end_of___flmul:
  4681                           
  4682                           	psect	text7
  4683     147F                     __ptext7:	
  4684 ;; *************** function __Umul8_16 *****************
  4685 ;; Defined at:
  4686 ;;		line 4 in file "C:\Program Files\Microchip\xc8\v2.46\pic\sources\c99\common\Umul8_16.c"
  4687 ;; Parameters:    Size  Location     Type
  4688 ;;  multiplier      1    wreg     unsigned char 
  4689 ;;  multiplicand    1    0[COMMON] unsigned char 
  4690 ;; Auto vars:     Size  Location     Type
  4691 ;;  multiplier      1    8[COMMON] unsigned char 
  4692 ;;  word_mpld       2    6[COMMON] unsigned short 
  4693 ;;  product         2    4[COMMON] unsigned short 
  4694 ;; Return value:  Size  Location     Type
  4695 ;;                  2    0[COMMON] unsigned int 
  4696 ;; Registers used:
  4697 ;;		wreg, status,2, status,0
  4698 ;; Tracked objects:
  4699 ;;		On entry : 0/0
  4700 ;;		On exit  : 0/0
  4701 ;;		Unchanged: 0/0
  4702 ;; Data sizes:     COMMON   BANK0   BANK1   BANK2   BANK3   BANK4   BANK5   BANK6   BANK7   BANK8   BANK9  BANK10  BANK1
      +1  BANK12  BANK13  BANK14  BANK15  BANK16  BANK17  BANK18  BANK19  BANK20  BANK21  BANK22  BANK23  BANK24  BANK25
  4703 ;;      Params:         2       0       0       0       0       0       0       0       0       0       0       0       
      +0       0       0       0       0       0       0       0       0       0       0       0       0       0       0
  4704 ;;      Locals:         5       0       0       0       0       0       0       0       0       0       0       0       
      +0       0       0       0       0       0       0       0       0       0       0       0       0       0       0
  4705 ;;      Temps:          2       0       0       0       0       0       0       0       0       0       0       0       
      +0       0       0       0       0       0       0       0       0       0       0       0       0       0       0
  4706 ;;      Totals:         9       0       0       0       0       0       0       0       0       0       0       0       
      +0       0       0       0       0       0       0       0       0       0       0       0       0       0       0
  4707 ;;Total ram usage:        9 bytes
  4708 ;; Hardware stack levels used: 1
  4709 ;; This function calls:
  4710 ;;		Nothing
  4711 ;; This function is called by:
  4712 ;;		___flmul
  4713 ;; This function uses a non-reentrant model
  4714 ;;
  4715                           
  4716     147F                     __Umul8_16:	
  4717                           ;psect for function __Umul8_16
  4718                           
  4719                           
  4720                           ;incstack = 0
  4721                           ; Regs used in __Umul8_16: [wreg+status,2+status,0]
  4722                           ;__Umul8_16@multiplier stored from wreg
  4723     147F  00F8               	movwf	__Umul8_16@multiplier
  4724     1480                     l2887:
  4725     1480  01F4               	clrf	__Umul8_16@product
  4726     1481  01F5               	clrf	__Umul8_16@product+1
  4727     1482                     l2889:
  4728     1482  0870               	movf	__Umul8_16@multiplicand,w
  4729     1483  00F2               	movwf	??__Umul8_16
  4730     1484  01F3               	clrf	??__Umul8_16+1
  4731     1485  0872               	movf	??__Umul8_16,w
  4732     1486  00F6               	movwf	__Umul8_16@word_mpld
  4733     1487  0873               	movf	??__Umul8_16+1,w
  4734     1488  00F7               	movwf	__Umul8_16@word_mpld+1
  4735     1489                     l2891:
  4736     1489  1C78               	btfss	__Umul8_16@multiplier,0
  4737     148A  2C8C               	goto	u3421
  4738     148B  2C8D               	goto	u3420
  4739     148C                     u3421:
  4740     148C  2C91               	goto	l871
  4741     148D                     u3420:
  4742     148D                     l2893:
  4743     148D  0876               	movf	__Umul8_16@word_mpld,w
  4744     148E  07F4               	addwf	__Umul8_16@product,f
  4745     148F  0877               	movf	__Umul8_16@word_mpld+1,w
  4746     1490  3DF5               	addwfc	__Umul8_16@product+1,f
  4747     1491                     l871:
  4748     1491  3001               	movlw	1
  4749     1492                     u3435:
  4750     1492  35F6               	lslf	__Umul8_16@word_mpld,f
  4751     1493  0DF7               	rlf	__Umul8_16@word_mpld+1,f
  4752     1494  0B89               	decfsz	9,f
  4753     1495  2C92               	goto	u3435
  4754     1496  1003               	clrc
  4755     1497  0CF8               	rrf	__Umul8_16@multiplier,f
  4756     1498                     l2895:
  4757     1498  0878               	movf	__Umul8_16@multiplier,w
  4758     1499  1D03               	btfss	3,2
  4759     149A  2C9C               	goto	u3441
  4760     149B  2C9D               	goto	u3440
  4761     149C                     u3441:
  4762     149C  2C89               	goto	l2891
  4763     149D                     u3440:
  4764     149D                     l2897:
  4765     149D  0875               	movf	__Umul8_16@product+1,w
  4766     149E  00F1               	movwf	?__Umul8_16+1
  4767     149F  0874               	movf	__Umul8_16@product,w
  4768     14A0  00F0               	movwf	?__Umul8_16
  4769     14A1                     l873:
  4770     14A1  0008               	return
  4771     14A2                     __end_of__Umul8_16:
  4772                           
  4773                           	psect	text8
  4774     0E56                     __ptext8:	
  4775 ;; *************** function ___fldiv *****************
  4776 ;; Defined at:
  4777 ;;		line 8 in file "C:\Program Files\Microchip\xc8\v2.46\pic\sources\c99\common\sprcdiv.c"
  4778 ;; Parameters:    Size  Location     Type
  4779 ;;  a               4   26[BANK0 ] unsigned int 
  4780 ;;  b               4   30[BANK0 ] unsigned int 
  4781 ;; Auto vars:     Size  Location     Type
  4782 ;;  grs             4   46[BANK0 ] unsigned long 
  4783 ;;  rem             4   39[BANK0 ] unsigned long 
  4784 ;;  new_exp         2   44[BANK0 ] short 
  4785 ;;  aexp            1   51[BANK0 ] unsigned char 
  4786 ;;  bexp            1   50[BANK0 ] unsigned char 
  4787 ;;  sign            1   43[BANK0 ] unsigned char 
  4788 ;; Return value:  Size  Location     Type
  4789 ;;                  4   26[BANK0 ] unsigned char 
  4790 ;; Registers used:
  4791 ;;		wreg, status,2, status,0
  4792 ;; Tracked objects:
  4793 ;;		On entry : 0/0
  4794 ;;		On exit  : 0/0
  4795 ;;		Unchanged: 0/0
  4796 ;; Data sizes:     COMMON   BANK0   BANK1   BANK2   BANK3   BANK4   BANK5   BANK6   BANK7   BANK8   BANK9  BANK10  BANK1
      +1  BANK12  BANK13  BANK14  BANK15  BANK16  BANK17  BANK18  BANK19  BANK20  BANK21  BANK22  BANK23  BANK24  BANK25
  4797 ;;      Params:         0       8       0       0       0       0       0       0       0       0       0       0       
      +0       0       0       0       0       0       0       0       0       0       0       0       0       0       0
  4798 ;;      Locals:         0      13       0       0       0       0       0       0       0       0       0       0       
      +0       0       0       0       0       0       0       0       0       0       0       0       0       0       0
  4799 ;;      Temps:          0       5       0       0       0       0       0       0       0       0       0       0       
      +0       0       0       0       0       0       0       0       0       0       0       0       0       0       0
  4800 ;;      Totals:         0      26       0       0       0       0       0       0       0       0       0       0       
      +0       0       0       0       0       0       0       0       0       0       0       0       0       0       0
  4801 ;;Total ram usage:       26 bytes
  4802 ;; Hardware stack levels used: 1
  4803 ;; This function calls:
  4804 ;;		Nothing
  4805 ;; This function is called by:
  4806 ;;		_main
  4807 ;; This function uses a non-reentrant model
  4808 ;;
  4809                           
  4810     0E56                     ___fldiv:	
  4811                           ;psect for function ___fldiv
  4812                           
  4813     0E56                     l3341:	
  4814                           ;incstack = 0
  4815                           ; Regs used in ___fldiv: [wreg+status,2+status,0]
  4816                           
  4817     0E56  0020               	movlb	0	; select bank0
  4818     0E57  0841               	movf	___fldiv@b+3,w
  4819     0E58  3980               	andlw	128
  4820     0E59  00CB               	movwf	___fldiv@sign
  4821     0E5A                     l3343:
  4822     0E5A  3541               	lslf	___fldiv@b+3,w
  4823     0E5B  00D2               	movwf	___fldiv@bexp
  4824     0E5C                     l3345:
  4825     0E5C  1FC0               	btfss	___fldiv@b+2,7
  4826     0E5D  2E5F               	goto	u3941
  4827     0E5E  2E60               	goto	u3940
  4828     0E5F                     u3941:
  4829     0E5F  2E61               	goto	l3349
  4830     0E60                     u3940:
  4831     0E60                     l3347:
  4832     0E60  1452               	bsf	___fldiv@bexp,0
  4833     0E61                     l3349:
  4834     0E61  0852               	movf	___fldiv@bexp,w
  4835     0E62  1903               	btfsc	3,2
  4836     0E63  2E65               	goto	u3951
  4837     0E64  2E66               	goto	u3950
  4838     0E65                     u3951:
  4839     0E65  2E76               	goto	l3359
  4840     0E66                     u3950:
  4841     0E66                     l3351:
  4842     0E66  0A52               	incf	___fldiv@bexp,w
  4843     0E67  1D03               	btfss	3,2
  4844     0E68  2E6A               	goto	u3961
  4845     0E69  2E6B               	goto	u3960
  4846     0E6A                     u3961:
  4847     0E6A  2E73               	goto	l3355
  4848     0E6B                     u3960:
  4849     0E6B                     l3353:
  4850     0E6B  3000               	movlw	0
  4851     0E6C  00C1               	movwf	___fldiv@b+3
  4852     0E6D  3000               	movlw	0
  4853     0E6E  00C0               	movwf	___fldiv@b+2
  4854     0E6F  3000               	movlw	0
  4855     0E70  00BF               	movwf	___fldiv@b+1
  4856     0E71  3000               	movlw	0
  4857     0E72  00BE               	movwf	___fldiv@b
  4858     0E73                     l3355:
  4859     0E73  17C0               	bsf	___fldiv@b+2,7
  4860     0E74                     l3357:
  4861     0E74  01C1               	clrf	___fldiv@b+3
  4862     0E75  2E7E               	goto	l3361
  4863     0E76                     l3359:
  4864     0E76  3000               	movlw	0
  4865     0E77  00C1               	movwf	___fldiv@b+3
  4866     0E78  3000               	movlw	0
  4867     0E79  00C0               	movwf	___fldiv@b+2
  4868     0E7A  3000               	movlw	0
  4869     0E7B  00BF               	movwf	___fldiv@b+1
  4870     0E7C  3000               	movlw	0
  4871     0E7D  00BE               	movwf	___fldiv@b
  4872     0E7E                     l3361:
  4873     0E7E  083D               	movf	___fldiv@a+3,w
  4874     0E7F  3980               	andlw	128
  4875     0E80  00C2               	movwf	??___fldiv
  4876     0E81  0842               	movf	??___fldiv,w
  4877     0E82  06CB               	xorwf	___fldiv@sign,f
  4878     0E83                     l3363:
  4879     0E83  353D               	lslf	___fldiv@a+3,w
  4880     0E84  00D3               	movwf	___fldiv@aexp
  4881     0E85                     l3365:
  4882     0E85  1FBC               	btfss	___fldiv@a+2,7
  4883     0E86  2E88               	goto	u3971
  4884     0E87  2E89               	goto	u3970
  4885     0E88                     u3971:
  4886     0E88  2E8A               	goto	l3369
  4887     0E89                     u3970:
  4888     0E89                     l3367:
  4889     0E89  1453               	bsf	___fldiv@aexp,0
  4890     0E8A                     l3369:
  4891     0E8A  0853               	movf	___fldiv@aexp,w
  4892     0E8B  1903               	btfsc	3,2
  4893     0E8C  2E8E               	goto	u3981
  4894     0E8D  2E8F               	goto	u3980
  4895     0E8E                     u3981:
  4896     0E8E  2E9F               	goto	l3379
  4897     0E8F                     u3980:
  4898     0E8F                     l3371:
  4899     0E8F  0A53               	incf	___fldiv@aexp,w
  4900     0E90  1D03               	btfss	3,2
  4901     0E91  2E93               	goto	u3991
  4902     0E92  2E94               	goto	u3990
  4903     0E93                     u3991:
  4904     0E93  2E9C               	goto	l3375
  4905     0E94                     u3990:
  4906     0E94                     l3373:
  4907     0E94  3000               	movlw	0
  4908     0E95  00BD               	movwf	___fldiv@a+3
  4909     0E96  3000               	movlw	0
  4910     0E97  00BC               	movwf	___fldiv@a+2
  4911     0E98  3000               	movlw	0
  4912     0E99  00BB               	movwf	___fldiv@a+1
  4913     0E9A  3000               	movlw	0
  4914     0E9B  00BA               	movwf	___fldiv@a
  4915     0E9C                     l3375:
  4916     0E9C  17BC               	bsf	___fldiv@a+2,7
  4917     0E9D                     l3377:
  4918     0E9D  01BD               	clrf	___fldiv@a+3
  4919     0E9E  2EA7               	goto	l812
  4920     0E9F                     l3379:
  4921     0E9F  3000               	movlw	0
  4922     0EA0  00BD               	movwf	___fldiv@a+3
  4923     0EA1  3000               	movlw	0
  4924     0EA2  00BC               	movwf	___fldiv@a+2
  4925     0EA3  3000               	movlw	0
  4926     0EA4  00BB               	movwf	___fldiv@a+1
  4927     0EA5  3000               	movlw	0
  4928     0EA6  00BA               	movwf	___fldiv@a
  4929     0EA7                     l812:
  4930     0EA7  083D               	movf	___fldiv@a+3,w
  4931     0EA8  043C               	iorwf	___fldiv@a+2,w
  4932     0EA9  043B               	iorwf	___fldiv@a+1,w
  4933     0EAA  043A               	iorwf	___fldiv@a,w
  4934     0EAB  1D03               	skipz
  4935     0EAC  2EAE               	goto	u4001
  4936     0EAD  2EAF               	goto	u4000
  4937     0EAE                     u4001:
  4938     0EAE  2EC8               	goto	l3389
  4939     0EAF                     u4000:
  4940     0EAF                     l3381:
  4941     0EAF  3000               	movlw	0
  4942     0EB0  00C1               	movwf	___fldiv@b+3
  4943     0EB1  3000               	movlw	0
  4944     0EB2  00C0               	movwf	___fldiv@b+2
  4945     0EB3  3000               	movlw	0
  4946     0EB4  00BF               	movwf	___fldiv@b+1
  4947     0EB5  3000               	movlw	0
  4948     0EB6  00BE               	movwf	___fldiv@b
  4949     0EB7  3080               	movlw	128
  4950     0EB8  04C0               	iorwf	___fldiv@b+2,f
  4951     0EB9  307F               	movlw	127
  4952     0EBA  04C1               	iorwf	___fldiv@b+3,f
  4953     0EBB                     l3383:
  4954     0EBB  084B               	movf	___fldiv@sign,w
  4955     0EBC  00C2               	movwf	??___fldiv
  4956     0EBD  0842               	movf	??___fldiv,w
  4957     0EBE  04C1               	iorwf	___fldiv@b+3,f
  4958     0EBF                     l3385:
  4959     0EBF  0841               	movf	___fldiv@b+3,w
  4960     0EC0  00BD               	movwf	?___fldiv+3
  4961     0EC1  0840               	movf	___fldiv@b+2,w
  4962     0EC2  00BC               	movwf	?___fldiv+2
  4963     0EC3  083F               	movf	___fldiv@b+1,w
  4964     0EC4  00BB               	movwf	?___fldiv+1
  4965     0EC5  083E               	movf	___fldiv@b,w
  4966     0EC6  00BA               	movwf	?___fldiv
  4967     0EC7  2FFF               	goto	l814
  4968     0EC8                     l3389:
  4969     0EC8  0852               	movf	___fldiv@bexp,w
  4970     0EC9  1D03               	btfss	3,2
  4971     0ECA  2ECC               	goto	u4011
  4972     0ECB  2ECD               	goto	u4010
  4973     0ECC                     u4011:
  4974     0ECC  2ED6               	goto	l3395
  4975     0ECD                     u4010:
  4976     0ECD                     l3391:
  4977     0ECD  3000               	movlw	0
  4978     0ECE  00BD               	movwf	?___fldiv+3
  4979     0ECF  3000               	movlw	0
  4980     0ED0  00BC               	movwf	?___fldiv+2
  4981     0ED1  3000               	movlw	0
  4982     0ED2  00BB               	movwf	?___fldiv+1
  4983     0ED3  3000               	movlw	0
  4984     0ED4  00BA               	movwf	?___fldiv
  4985     0ED5  2FFF               	goto	l814
  4986     0ED6                     l3395:
  4987     0ED6  0852               	movf	___fldiv@bexp,w
  4988     0ED7  00C2               	movwf	??___fldiv
  4989     0ED8  01C3               	clrf	??___fldiv+1
  4990     0ED9  0843               	movf	??___fldiv+1,w
  4991     0EDA  00C5               	movwf	??___fldiv+3
  4992     0EDB  0853               	movf	___fldiv@aexp,w
  4993     0EDC  0242               	subwf	??___fldiv,w
  4994     0EDD  00C4               	movwf	??___fldiv+2
  4995     0EDE  1C03               	skipc
  4996     0EDF  03C5               	decf	??___fldiv+3,f
  4997     0EE0  0844               	movf	??___fldiv+2,w
  4998     0EE1  3E7F               	addlw	127
  4999     0EE2  00CC               	movwf	___fldiv@new_exp
  5000     0EE3  3000               	movlw	0
  5001     0EE4  3D45               	addwfc	??___fldiv+3,w
  5002     0EE5  00CD               	movwf	___fldiv@new_exp+1
  5003     0EE6                     l3397:
  5004     0EE6  0841               	movf	___fldiv@b+3,w
  5005     0EE7  00CA               	movwf	___fldiv@rem+3
  5006     0EE8  0840               	movf	___fldiv@b+2,w
  5007     0EE9  00C9               	movwf	___fldiv@rem+2
  5008     0EEA  083F               	movf	___fldiv@b+1,w
  5009     0EEB  00C8               	movwf	___fldiv@rem+1
  5010     0EEC  083E               	movf	___fldiv@b,w
  5011     0EED  00C7               	movwf	___fldiv@rem
  5012     0EEE                     l3399:
  5013     0EEE  3000               	movlw	0
  5014     0EEF  00C1               	movwf	___fldiv@b+3
  5015     0EF0  3000               	movlw	0
  5016     0EF1  00C0               	movwf	___fldiv@b+2
  5017     0EF2  3000               	movlw	0
  5018     0EF3  00BF               	movwf	___fldiv@b+1
  5019     0EF4  3000               	movlw	0
  5020     0EF5  00BE               	movwf	___fldiv@b
  5021     0EF6                     l3401:
  5022     0EF6  3000               	movlw	0
  5023     0EF7  00D1               	movwf	___fldiv@grs+3
  5024     0EF8  3000               	movlw	0
  5025     0EF9  00D0               	movwf	___fldiv@grs+2
  5026     0EFA  3000               	movlw	0
  5027     0EFB  00CF               	movwf	___fldiv@grs+1
  5028     0EFC  3000               	movlw	0
  5029     0EFD  00CE               	movwf	___fldiv@grs
  5030     0EFE                     l3403:
  5031     0EFE  01D3               	clrf	___fldiv@aexp
  5032     0EFF  2F3E               	goto	l3423
  5033     0F00                     l3405:
  5034     0F00  0853               	movf	___fldiv@aexp,w
  5035     0F01  1903               	btfsc	3,2
  5036     0F02  2F04               	goto	u4021
  5037     0F03  2F05               	goto	u4020
  5038     0F04                     u4021:
  5039     0F04  2F1F               	goto	l3415
  5040     0F05                     u4020:
  5041     0F05                     l3407:
  5042     0F05  3001               	movlw	1
  5043     0F06                     u4035:
  5044     0F06  35C7               	lslf	___fldiv@rem,f
  5045     0F07  0DC8               	rlf	___fldiv@rem+1,f
  5046     0F08  0DC9               	rlf	___fldiv@rem+2,f
  5047     0F09  0DCA               	rlf	___fldiv@rem+3,f
  5048     0F0A  0B89               	decfsz	9,f
  5049     0F0B  2F06               	goto	u4035
  5050     0F0C  3001               	movlw	1
  5051     0F0D                     u4045:
  5052     0F0D  35BE               	lslf	___fldiv@b,f
  5053     0F0E  0DBF               	rlf	___fldiv@b+1,f
  5054     0F0F  0DC0               	rlf	___fldiv@b+2,f
  5055     0F10  0DC1               	rlf	___fldiv@b+3,f
  5056     0F11  0B89               	decfsz	9,f
  5057     0F12  2F0D               	goto	u4045
  5058     0F13                     l3409:
  5059     0F13  1FD1               	btfss	___fldiv@grs+3,7
  5060     0F14  2F16               	goto	u4051
  5061     0F15  2F17               	goto	u4050
  5062     0F16                     u4051:
  5063     0F16  2F18               	goto	l3413
  5064     0F17                     u4050:
  5065     0F17                     l3411:
  5066     0F17  143E               	bsf	___fldiv@b,0
  5067     0F18                     l3413:
  5068     0F18  3001               	movlw	1
  5069     0F19                     u4065:
  5070     0F19  35CE               	lslf	___fldiv@grs,f
  5071     0F1A  0DCF               	rlf	___fldiv@grs+1,f
  5072     0F1B  0DD0               	rlf	___fldiv@grs+2,f
  5073     0F1C  0DD1               	rlf	___fldiv@grs+3,f
  5074     0F1D  0B89               	decfsz	9,f
  5075     0F1E  2F19               	goto	u4065
  5076     0F1F                     l3415:
  5077     0F1F  083D               	movf	___fldiv@a+3,w
  5078     0F20  024A               	subwf	___fldiv@rem+3,w
  5079     0F21  1D03               	skipz
  5080     0F22  2F2D               	goto	u4075
  5081     0F23  083C               	movf	___fldiv@a+2,w
  5082     0F24  0249               	subwf	___fldiv@rem+2,w
  5083     0F25  1D03               	skipz
  5084     0F26  2F2D               	goto	u4075
  5085     0F27  083B               	movf	___fldiv@a+1,w
  5086     0F28  0248               	subwf	___fldiv@rem+1,w
  5087     0F29  1D03               	skipz
  5088     0F2A  2F2D               	goto	u4075
  5089     0F2B  083A               	movf	___fldiv@a,w
  5090     0F2C  0247               	subwf	___fldiv@rem,w
  5091     0F2D                     u4075:
  5092     0F2D  1C03               	skipc
  5093     0F2E  2F30               	goto	u4071
  5094     0F2F  2F31               	goto	u4070
  5095     0F30                     u4071:
  5096     0F30  2F3A               	goto	l3421
  5097     0F31                     u4070:
  5098     0F31                     l3417:
  5099     0F31  1751               	bsf	___fldiv@grs+3,6
  5100     0F32                     l3419:
  5101     0F32  083A               	movf	___fldiv@a,w
  5102     0F33  02C7               	subwf	___fldiv@rem,f
  5103     0F34  083B               	movf	___fldiv@a+1,w
  5104     0F35  3BC8               	subwfb	___fldiv@rem+1,f
  5105     0F36  083C               	movf	___fldiv@a+2,w
  5106     0F37  3BC9               	subwfb	___fldiv@rem+2,f
  5107     0F38  083D               	movf	___fldiv@a+3,w
  5108     0F39  3BCA               	subwfb	___fldiv@rem+3,f
  5109     0F3A                     l3421:
  5110     0F3A  3001               	movlw	1
  5111     0F3B  00C2               	movwf	??___fldiv
  5112     0F3C  0842               	movf	??___fldiv,w
  5113     0F3D  07D3               	addwf	___fldiv@aexp,f
  5114     0F3E                     l3423:
  5115     0F3E  301A               	movlw	26
  5116     0F3F  0253               	subwf	___fldiv@aexp,w
  5117     0F40  1C03               	skipc
  5118     0F41  2F43               	goto	u4081
  5119     0F42  2F44               	goto	u4080
  5120     0F43                     u4081:
  5121     0F43  2F00               	goto	l3405
  5122     0F44                     u4080:
  5123     0F44                     l3425:
  5124     0F44  084A               	movf	___fldiv@rem+3,w
  5125     0F45  0449               	iorwf	___fldiv@rem+2,w
  5126     0F46  0448               	iorwf	___fldiv@rem+1,w
  5127     0F47  0447               	iorwf	___fldiv@rem,w
  5128     0F48  1903               	skipnz
  5129     0F49  2F4B               	goto	u4091
  5130     0F4A  2F4C               	goto	u4090
  5131     0F4B                     u4091:
  5132     0F4B  2F65               	goto	l3439
  5133     0F4C                     u4090:
  5134     0F4C                     l3427:
  5135     0F4C  144E               	bsf	___fldiv@grs,0
  5136     0F4D  2F65               	goto	l3439
  5137     0F4E                     l3429:
  5138     0F4E  3001               	movlw	1
  5139     0F4F                     u4105:
  5140     0F4F  35BE               	lslf	___fldiv@b,f
  5141     0F50  0DBF               	rlf	___fldiv@b+1,f
  5142     0F51  0DC0               	rlf	___fldiv@b+2,f
  5143     0F52  0DC1               	rlf	___fldiv@b+3,f
  5144     0F53  0B89               	decfsz	9,f
  5145     0F54  2F4F               	goto	u4105
  5146     0F55                     l3431:
  5147     0F55  1FD1               	btfss	___fldiv@grs+3,7
  5148     0F56  2F58               	goto	u4111
  5149     0F57  2F59               	goto	u4110
  5150     0F58                     u4111:
  5151     0F58  2F5A               	goto	l3435
  5152     0F59                     u4110:
  5153     0F59                     l3433:
  5154     0F59  143E               	bsf	___fldiv@b,0
  5155     0F5A                     l3435:
  5156     0F5A  3001               	movlw	1
  5157     0F5B                     u4125:
  5158     0F5B  35CE               	lslf	___fldiv@grs,f
  5159     0F5C  0DCF               	rlf	___fldiv@grs+1,f
  5160     0F5D  0DD0               	rlf	___fldiv@grs+2,f
  5161     0F5E  0DD1               	rlf	___fldiv@grs+3,f
  5162     0F5F  0B89               	decfsz	9,f
  5163     0F60  2F5B               	goto	u4125
  5164     0F61                     l3437:
  5165     0F61  30FF               	movlw	255
  5166     0F62  07CC               	addwf	___fldiv@new_exp,f
  5167     0F63  30FF               	movlw	255
  5168     0F64  3DCD               	addwfc	___fldiv@new_exp+1,f
  5169     0F65                     l3439:
  5170     0F65  1FC0               	btfss	___fldiv@b+2,7
  5171     0F66  2F68               	goto	u4131
  5172     0F67  2F69               	goto	u4130
  5173     0F68                     u4131:
  5174     0F68  2F4E               	goto	l3429
  5175     0F69                     u4130:
  5176     0F69                     l3441:
  5177     0F69  01D3               	clrf	___fldiv@aexp
  5178     0F6A                     l3443:
  5179     0F6A  1FD1               	btfss	___fldiv@grs+3,7
  5180     0F6B  2F6D               	goto	u4141
  5181     0F6C  2F6E               	goto	u4140
  5182     0F6D                     u4141:
  5183     0F6D  2F8A               	goto	l3451
  5184     0F6E                     u4140:
  5185     0F6E                     l3445:
  5186     0F6E  30FF               	movlw	255
  5187     0F6F  054E               	andwf	___fldiv@grs,w
  5188     0F70  00C2               	movwf	??___fldiv
  5189     0F71  30FF               	movlw	255
  5190     0F72  054F               	andwf	___fldiv@grs+1,w
  5191     0F73  00C3               	movwf	??___fldiv+1
  5192     0F74  30FF               	movlw	255
  5193     0F75  0550               	andwf	___fldiv@grs+2,w
  5194     0F76  00C4               	movwf	??___fldiv+2
  5195     0F77  307F               	movlw	127
  5196     0F78  0551               	andwf	___fldiv@grs+3,w
  5197     0F79  00C5               	movwf	??___fldiv+3
  5198     0F7A  0845               	movf	??___fldiv+3,w
  5199     0F7B  0444               	iorwf	??___fldiv+2,w
  5200     0F7C  0443               	iorwf	??___fldiv+1,w
  5201     0F7D  0442               	iorwf	??___fldiv,w
  5202     0F7E  1903               	skipnz
  5203     0F7F  2F81               	goto	u4151
  5204     0F80  2F82               	goto	u4150
  5205     0F81                     u4151:
  5206     0F81  2F85               	goto	l828
  5207     0F82                     u4150:
  5208     0F82                     l3447:
  5209     0F82  01D3               	clrf	___fldiv@aexp
  5210     0F83  0AD3               	incf	___fldiv@aexp,f
  5211     0F84  2F8A               	goto	l3451
  5212     0F85                     l828:
  5213     0F85  1C3E               	btfss	___fldiv@b,0
  5214     0F86  2F88               	goto	u4161
  5215     0F87  2F89               	goto	u4160
  5216     0F88                     u4161:
  5217     0F88  2F8A               	goto	l3451
  5218     0F89                     u4160:
  5219     0F89  2F82               	goto	l3447
  5220     0F8A                     l3451:
  5221     0F8A  0853               	movf	___fldiv@aexp,w
  5222     0F8B  1903               	btfsc	3,2
  5223     0F8C  2F8E               	goto	u4171
  5224     0F8D  2F8F               	goto	u4170
  5225     0F8E                     u4171:
  5226     0F8E  2FB7               	goto	l3461
  5227     0F8F                     u4170:
  5228     0F8F                     l3453:
  5229     0F8F  3001               	movlw	1
  5230     0F90  07BE               	addwf	___fldiv@b,f
  5231     0F91  3000               	movlw	0
  5232     0F92  3DBF               	addwfc	___fldiv@b+1,f
  5233     0F93  3000               	movlw	0
  5234     0F94  3DC0               	addwfc	___fldiv@b+2,f
  5235     0F95  3000               	movlw	0
  5236     0F96  3DC1               	addwfc	___fldiv@b+3,f
  5237     0F97                     l3455:
  5238     0F97  1C41               	btfss	___fldiv@b+3,0
  5239     0F98  2F9A               	goto	u4181
  5240     0F99  2F9B               	goto	u4180
  5241     0F9A                     u4181:
  5242     0F9A  2FB7               	goto	l3461
  5243     0F9B                     u4180:
  5244     0F9B                     l3457:
  5245     0F9B  083E               	movf	___fldiv@b,w
  5246     0F9C  00C2               	movwf	??___fldiv
  5247     0F9D  083F               	movf	___fldiv@b+1,w
  5248     0F9E  00C3               	movwf	??___fldiv+1
  5249     0F9F  0840               	movf	___fldiv@b+2,w
  5250     0FA0  00C4               	movwf	??___fldiv+2
  5251     0FA1  0841               	movf	___fldiv@b+3,w
  5252     0FA2  00C5               	movwf	??___fldiv+3
  5253     0FA3  3001               	movlw	1
  5254     0FA4  00C6               	movwf	??___fldiv+4
  5255     0FA5                     u4195:
  5256     0FA5  37C5               	asrf	??___fldiv+3,f
  5257     0FA6  0CC4               	rrf	??___fldiv+2,f
  5258     0FA7  0CC3               	rrf	??___fldiv+1,f
  5259     0FA8  0CC2               	rrf	??___fldiv,f
  5260     0FA9                     u4190:
  5261     0FA9  0BC6               	decfsz	??___fldiv+4,f
  5262     0FAA  2FA5               	goto	u4195
  5263     0FAB  0845               	movf	??___fldiv+3,w
  5264     0FAC  00C1               	movwf	___fldiv@b+3
  5265     0FAD  0844               	movf	??___fldiv+2,w
  5266     0FAE  00C0               	movwf	___fldiv@b+2
  5267     0FAF  0843               	movf	??___fldiv+1,w
  5268     0FB0  00BF               	movwf	___fldiv@b+1
  5269     0FB1  0842               	movf	??___fldiv,w
  5270     0FB2  00BE               	movwf	___fldiv@b
  5271     0FB3                     l3459:
  5272     0FB3  3001               	movlw	1
  5273     0FB4  07CC               	addwf	___fldiv@new_exp,f
  5274     0FB5  3000               	movlw	0
  5275     0FB6  3DCD               	addwfc	___fldiv@new_exp+1,f
  5276     0FB7                     l3461:
  5277     0FB7  084D               	movf	___fldiv@new_exp+1,w
  5278     0FB8  3A80               	xorlw	128
  5279     0FB9  00C2               	movwf	??___fldiv
  5280     0FBA  3080               	movlw	128
  5281     0FBB  0242               	subwf	??___fldiv,w
  5282     0FBC  1D03               	skipz
  5283     0FBD  2FC0               	goto	u4205
  5284     0FBE  30FF               	movlw	255
  5285     0FBF  024C               	subwf	___fldiv@new_exp,w
  5286     0FC0                     u4205:
  5287     0FC0  1C03               	skipc
  5288     0FC1  2FC3               	goto	u4201
  5289     0FC2  2FC4               	goto	u4200
  5290     0FC3                     u4201:
  5291     0FC3  2FD1               	goto	l833
  5292     0FC4                     u4200:
  5293     0FC4                     l3463:
  5294     0FC4  30FF               	movlw	255
  5295     0FC5  0020               	movlb	0	; select bank0
  5296     0FC6  00CC               	movwf	___fldiv@new_exp
  5297     0FC7  3000               	movlw	0
  5298     0FC8  00CD               	movwf	___fldiv@new_exp+1
  5299     0FC9  3000               	movlw	0
  5300     0FCA  00C1               	movwf	___fldiv@b+3
  5301     0FCB  3000               	movlw	0
  5302     0FCC  00C0               	movwf	___fldiv@b+2
  5303     0FCD  3000               	movlw	0
  5304     0FCE  00BF               	movwf	___fldiv@b+1
  5305     0FCF  3000               	movlw	0
  5306     0FD0  00BE               	movwf	___fldiv@b
  5307     0FD1                     l833:
  5308     0FD1  0020               	movlb	0	; select bank0
  5309     0FD2  084D               	movf	___fldiv@new_exp+1,w
  5310     0FD3  3A80               	xorlw	128
  5311     0FD4  00C2               	movwf	??___fldiv
  5312     0FD5  3080               	movlw	128
  5313     0FD6  0242               	subwf	??___fldiv,w
  5314     0FD7  1D03               	skipz
  5315     0FD8  2FDB               	goto	u4215
  5316     0FD9  3001               	movlw	1
  5317     0FDA  024C               	subwf	___fldiv@new_exp,w
  5318     0FDB                     u4215:
  5319     0FDB  1803               	skipnc
  5320     0FDC  2FDE               	goto	u4211
  5321     0FDD  2FDF               	goto	u4210
  5322     0FDE                     u4211:
  5323     0FDE  2FEB               	goto	l834
  5324     0FDF                     u4210:
  5325     0FDF                     l3465:
  5326     0FDF  0020               	movlb	0	; select bank0
  5327     0FE0  01CC               	clrf	___fldiv@new_exp
  5328     0FE1  01CD               	clrf	___fldiv@new_exp+1
  5329     0FE2                     l3467:
  5330     0FE2  3000               	movlw	0
  5331     0FE3  00C1               	movwf	___fldiv@b+3
  5332     0FE4  3000               	movlw	0
  5333     0FE5  00C0               	movwf	___fldiv@b+2
  5334     0FE6  3000               	movlw	0
  5335     0FE7  00BF               	movwf	___fldiv@b+1
  5336     0FE8  3000               	movlw	0
  5337     0FE9  00BE               	movwf	___fldiv@b
  5338     0FEA                     l3469:
  5339     0FEA  01CB               	clrf	___fldiv@sign
  5340     0FEB                     l834:
  5341     0FEB  0020               	movlb	0	; select bank0
  5342     0FEC  084C               	movf	___fldiv@new_exp,w
  5343     0FED  00D2               	movwf	___fldiv@bexp
  5344     0FEE                     l3471:
  5345     0FEE  1C52               	btfss	___fldiv@bexp,0
  5346     0FEF  2FF1               	goto	u4221
  5347     0FF0  2FF2               	goto	u4220
  5348     0FF1                     u4221:
  5349     0FF1  2FF4               	goto	l3475
  5350     0FF2                     u4220:
  5351     0FF2                     l3473:
  5352     0FF2  17C0               	bsf	___fldiv@b+2,7
  5353     0FF3  2FF8               	goto	l836
  5354     0FF4                     l3475:
  5355     0FF4  307F               	movlw	127
  5356     0FF5  00C2               	movwf	??___fldiv
  5357     0FF6  0842               	movf	??___fldiv,w
  5358     0FF7  05C0               	andwf	___fldiv@b+2,f
  5359     0FF8                     l836:
  5360     0FF8  3652               	lsrf	___fldiv@bexp,w
  5361     0FF9  00C1               	movwf	___fldiv@b+3
  5362     0FFA  084B               	movf	___fldiv@sign,w
  5363     0FFB  00C2               	movwf	??___fldiv
  5364     0FFC  0842               	movf	??___fldiv,w
  5365     0FFD  04C1               	iorwf	___fldiv@b+3,f
  5366     0FFE  2EBF               	goto	l3385
  5367     0FFF                     l814:
  5368     0FFF  0008               	return
  5369     1000                     __end_of___fldiv:
  5370                           
  5371                           	psect	text9
  5372     15E0                     __ptext9:	
  5373 ;; *************** function _OLED_SetOrientation *****************
  5374 ;; Defined at:
  5375 ;;		line 246 in file "OLED_SSD1306.c"
  5376 ;; Parameters:    Size  Location     Type
  5377 ;;  o               1    wreg     enum E6061
  5378 ;; Auto vars:     Size  Location     Type
  5379 ;;  o               1    9[COMMON] enum E6061
  5380 ;; Return value:  Size  Location     Type
  5381 ;;                  1    wreg      void 
  5382 ;; Registers used:
  5383 ;;		wreg, fsr0l, fsr0h, status,2, status,0, pclath, cstack
  5384 ;; Tracked objects:
  5385 ;;		On entry : 0/0
  5386 ;;		On exit  : 0/0
  5387 ;;		Unchanged: 0/0
  5388 ;; Data sizes:     COMMON   BANK0   BANK1   BANK2   BANK3   BANK4   BANK5   BANK6   BANK7   BANK8   BANK9  BANK10  BANK1
      +1  BANK12  BANK13  BANK14  BANK15  BANK16  BANK17  BANK18  BANK19  BANK20  BANK21  BANK22  BANK23  BANK24  BANK25
  5389 ;;      Params:         0       0       0       0       0       0       0       0       0       0       0       0       
      +0       0       0       0       0       0       0       0       0       0       0       0       0       0       0
  5390 ;;      Locals:         1       0       0       0       0       0       0       0       0       0       0       0       
      +0       0       0       0       0       0       0       0       0       0       0       0       0       0       0
  5391 ;;      Temps:          2       0       0       0       0       0       0       0       0       0       0       0       
      +0       0       0       0       0       0       0       0       0       0       0       0       0       0       0
  5392 ;;      Totals:         3       0       0       0       0       0       0       0       0       0       0       0       
      +0       0       0       0       0       0       0       0       0       0       0       0       0       0       0
  5393 ;;Total ram usage:        3 bytes
  5394 ;; Hardware stack levels used: 1
  5395 ;; Hardware stack levels required when called: 3
  5396 ;; This function calls:
  5397 ;;		_OLED_Command
  5398 ;; This function is called by:
  5399 ;;		_main
  5400 ;; This function uses a non-reentrant model
  5401 ;;
  5402                           
  5403     15E0                     _OLED_SetOrientation:	
  5404                           ;psect for function _OLED_SetOrientation
  5405                           
  5406                           
  5407                           ;incstack = 0
  5408                           ; Regs used in _OLED_SetOrientation: [wreg-fsr0h+status,2+status,0+pclath+cstack]
  5409                           ;OLED_SetOrientation@o stored from wreg
  5410     15E0  00F9               	movwf	OLED_SetOrientation@o
  5411     15E1                     l2911:
  5412                           
  5413                           ;OLED_SSD1306.c: 246: void OLED_SetOrientation(oled_orient_t o);OLED_SSD1306.c: 247: {;O
      +                          LED_SSD1306.c: 248:     (void)OLED_Command(0x2E);
  5414     15E1  302E               	movlw	46
  5415     15E2  3195  2544  3195   	fcall	_OLED_Command
  5416                           
  5417                           ;OLED_SSD1306.c: 250:     switch (o)
  5418     15E5  2E0A               	goto	l2923
  5419     15E6                     l2913:
  5420                           
  5421                           ;OLED_SSD1306.c: 254:             (void)OLED_Command(0xA0 | 0x01);
  5422     15E6  30A1               	movlw	161
  5423     15E7  3195  2544  3195   	fcall	_OLED_Command
  5424                           
  5425                           ;OLED_SSD1306.c: 255:             (void)OLED_Command(0xC8);
  5426     15EA  30C8               	movlw	200
  5427     15EB  3195  2544  3195   	fcall	_OLED_Command
  5428                           
  5429                           ;OLED_SSD1306.c: 256:             break;
  5430     15EE  2E20               	goto	l128
  5431     15EF                     l2915:
  5432                           
  5433                           ;OLED_SSD1306.c: 259:             (void)OLED_Command(0xA0 | 0x00);
  5434     15EF  30A0               	movlw	160
  5435     15F0  3195  2544  3195   	fcall	_OLED_Command
  5436                           
  5437                           ;OLED_SSD1306.c: 260:             (void)OLED_Command(0xC0);
  5438     15F3  30C0               	movlw	192
  5439     15F4  3195  2544  3195   	fcall	_OLED_Command
  5440                           
  5441                           ;OLED_SSD1306.c: 261:             break;
  5442     15F7  2E20               	goto	l128
  5443     15F8                     l2917:
  5444                           
  5445                           ;OLED_SSD1306.c: 264:             (void)OLED_Command(0xA0 | 0x00);
  5446     15F8  30A0               	movlw	160
  5447     15F9  3195  2544  3195   	fcall	_OLED_Command
  5448                           
  5449                           ;OLED_SSD1306.c: 265:             (void)OLED_Command(0xC8);
  5450     15FC  30C8               	movlw	200
  5451     15FD  3195  2544  3195   	fcall	_OLED_Command
  5452                           
  5453                           ;OLED_SSD1306.c: 266:             break;
  5454     1600  2E20               	goto	l128
  5455     1601                     l2919:
  5456                           
  5457                           ;OLED_SSD1306.c: 269:             (void)OLED_Command(0xA0 | 0x01);
  5458     1601  30A1               	movlw	161
  5459     1602  3195  2544  3195   	fcall	_OLED_Command
  5460                           
  5461                           ;OLED_SSD1306.c: 270:             (void)OLED_Command(0xC0);
  5462     1605  30C0               	movlw	192
  5463     1606  3195  2544  3195   	fcall	_OLED_Command
  5464                           
  5465                           ;OLED_SSD1306.c: 271:             break;
  5466     1609  2E20               	goto	l128
  5467     160A                     l2923:
  5468     160A  0879               	movf	OLED_SetOrientation@o,w
  5469     160B  00F7               	movwf	??_OLED_SetOrientation
  5470     160C  01F8               	clrf	??_OLED_SetOrientation+1
  5471                           
  5472                           ; Switch on 2 bytes has been partitioned into a top level switch of size 1, and 1 sub-sw
      +                          itches
  5473                           ; Switch size 1, requested type "simple"
  5474                           ; Number of cases is 1, Range of values is 0 to 0
  5475                           ; switch strategies available:
  5476                           ; Name         Instructions Cycles
  5477                           ; simple_byte            4     3 (average)
  5478                           ; direct_byte            8     6 (fixed)
  5479                           ; jumptable            260     6 (fixed)
  5480                           ;	Chosen strategy is simple_byte
  5481     160D  0878               	movf	??_OLED_SetOrientation+1,w
  5482     160E  3A00               	xorlw	0	; case 0
  5483     160F  1903               	skipnz
  5484     1610  2E12               	goto	l3829
  5485     1611  2DE6               	goto	l2913
  5486     1612                     l3829:
  5487                           
  5488                           ; Switch size 1, requested type "simple"
  5489                           ; Number of cases is 4, Range of values is 0 to 3
  5490                           ; switch strategies available:
  5491                           ; Name         Instructions Cycles
  5492                           ; simple_byte           13     7 (average)
  5493                           ; direct_byte           14     6 (fixed)
  5494                           ; jumptable            260     6 (fixed)
  5495                           ;	Chosen strategy is simple_byte
  5496     1612  0877               	movf	??_OLED_SetOrientation,w
  5497     1613  3A00               	xorlw	0	; case 0
  5498     1614  1903               	skipnz
  5499     1615  2DE6               	goto	l2913
  5500     1616  3A01               	xorlw	1	; case 1
  5501     1617  1903               	skipnz
  5502     1618  2DEF               	goto	l2915
  5503     1619  3A03               	xorlw	3	; case 2
  5504     161A  1903               	skipnz
  5505     161B  2DF8               	goto	l2917
  5506     161C  3A01               	xorlw	1	; case 3
  5507     161D  1903               	skipnz
  5508     161E  2E01               	goto	l2919
  5509     161F  2DE6               	goto	l2913
  5510     1620                     l128:
  5511     1620  0008               	return
  5512     1621                     __end_of_OLED_SetOrientation:
  5513                           
  5514                           	psect	text10
  5515     03D9                     __ptext10:	
  5516 ;; *************** function _OLED_Printf_Line *****************
  5517 ;; Defined at:
  5518 ;;		line 424 in file "OLED_SSD1306.c"
  5519 ;; Parameters:    Size  Location     Type
  5520 ;;  line            1    wreg     unsigned char 
  5521 ;;  fmt             2    6[BANK0 ] PTR const unsigned char 
  5522 ;;		 -> STR_1(11), 
  5523 ;; Auto vars:     Size  Location     Type
  5524 ;;  line            1   39[BANK1 ] unsigned char 
  5525 ;;  nibble          1   26[BANK1 ] unsigned char 
  5526 ;;  temp           11   33[BANK0 ] unsigned char [11]
  5527 ;;  val             4   33[BANK1 ] long 
  5528 ;;  i               1   30[BANK1 ] unsigned char 
  5529 ;;  temp           11   22[BANK0 ] unsigned char [11]
  5530 ;;  val             4   20[BANK1 ] unsigned long 
  5531 ;;  i               1   29[BANK1 ] unsigned char 
  5532 ;;  str             1   17[BANK1 ] PTR const unsigned char 
  5533 ;;		 -> ?_OLED_Printf_Line(1), 
  5534 ;;  temp            5   12[BANK1 ] unsigned char [5]
  5535 ;;  val             2   78[BANK0 ] unsigned short 
  5536 ;;  i               1   32[BANK1 ] unsigned char 
  5537 ;;  temp            6    6[BANK1 ] unsigned char [6]
  5538 ;;  val             2   24[BANK1 ] unsigned short 
  5539 ;;  i               1   31[BANK1 ] unsigned char 
  5540 ;;  temp            6    0[BANK1 ] unsigned char [6]
  5541 ;;  val             2   37[BANK1 ] short 
  5542 ;;  i               1   28[BANK1 ] unsigned char 
  5543 ;;  ch              1   27[BANK1 ] unsigned char 
  5544 ;;  p               1   19[BANK1 ] PTR const unsigned char 
  5545 ;;		 -> OLED_Printf_Line@buf(32), 
  5546 ;;  buf            32   44[BANK0 ] unsigned char [32]
  5547 ;;  src             2   41[BANK1 ] PTR const unsigned char 
  5548 ;;		 -> STR_1(11), 
  5549 ;;  dst             1   43[BANK1 ] PTR unsigned char 
  5550 ;;		 -> OLED_Printf_Line@buf(32), 
  5551 ;;  ap              1   40[BANK1 ] PTR void [1]
  5552 ;;		 -> ?_OLED_Printf_Line(1), 
  5553 ;;  col             1   18[BANK1 ] unsigned char 
  5554 ;; Return value:  Size  Location     Type
  5555 ;;                  1    wreg      void 
  5556 ;; Registers used:
  5557 ;;		wreg, fsr0l, fsr0h, fsr1l, fsr1h, status,2, status,0, pclath, cstack
  5558 ;; Tracked objects:
  5559 ;;		On entry : 0/0
  5560 ;;		On exit  : 0/0
  5561 ;;		Unchanged: 0/0
  5562 ;; Data sizes:     COMMON   BANK0   BANK1   BANK2   BANK3   BANK4   BANK5   BANK6   BANK7   BANK8   BANK9  BANK10  BANK1
      +1  BANK12  BANK13  BANK14  BANK15  BANK16  BANK17  BANK18  BANK19  BANK20  BANK21  BANK22  BANK23  BANK24  BANK25
  5563 ;;      Params:         0       4       0       0       0       0       0       0       0       0       0       0       
      +0       0       0       0       0       0       0       0       0       0       0       0       0       0       0
  5564 ;;      Locals:         0      58      44       0       0       0       0       0       0       0       0       0       
      +0       0       0       0       0       0       0       0       0       0       0       0       0       0       0
  5565 ;;      Temps:          0      12       0       0       0       0       0       0       0       0       0       0       
      +0       0       0       0       0       0       0       0       0       0       0       0       0       0       0
  5566 ;;      Totals:         0      74      44       0       0       0       0       0       0       0       0       0       
      +0       0       0       0       0       0       0       0       0       0       0       0       0       0       0
  5567 ;;Total ram usage:      118 bytes
  5568 ;; Hardware stack levels used: 1
  5569 ;; Hardware stack levels required when called: 5
  5570 ;; This function calls:
  5571 ;;		_OLED_UpdateLine
  5572 ;;		___aldiv
  5573 ;;		___almod
  5574 ;;		___awdiv
  5575 ;;		___awmod
  5576 ;;		___lldiv
  5577 ;;		___llmod
  5578 ;;		___lwdiv
  5579 ;;		___lwmod
  5580 ;;		_memcpy
  5581 ;;		_memset
  5582 ;;		_strcmp
  5583 ;;		_strcpy
  5584 ;; This function is called by:
  5585 ;;		_main
  5586 ;; This function uses a non-reentrant model
  5587 ;;
  5588                           
  5589     03D9                     _OLED_Printf_Line:	
  5590                           ;psect for function _OLED_Printf_Line
  5591                           
  5592                           
  5593                           ;incstack = 0
  5594                           ; Regs used in _OLED_Printf_Line: [wreg-fsr1h+status,2+status,0+pclath+cstack]
  5595                           ;OLED_Printf_Line@line stored from wreg
  5596     03D9  0021               	movlb	1	; select bank1
  5597     03DA  00C7               	movwf	OLED_Printf_Line@line^(0+128)
  5598     03DB                     l2985:
  5599                           
  5600                           ;OLED_SSD1306.c: 424: void OLED_Printf_Line(uint8_t line, const char* fmt, ...);OLED_SSD
      +                          1306.c: 425: {;OLED_SSD1306.c: 426:     static char last_text[8][32];;OLED_SSD1306.c: 42
      +                          7:     char buf[32];;OLED_SSD1306.c: 428:     char *dst = buf;
  5601     03DB  304C               	movlw	(low (OLED_Printf_Line@buf| 0))& (0+255)
  5602     03DC  00CB               	movwf	OLED_Printf_Line@dst^(0+128)
  5603                           
  5604                           ;OLED_SSD1306.c: 429:     const char *src = fmt;
  5605     03DD  0020               	movlb	0	; select bank0
  5606     03DE  0827               	movf	OLED_Printf_Line@fmt+1,w
  5607     03DF  0021               	movlb	1	; select bank1
  5608     03E0  00CA               	movwf	(OLED_Printf_Line@src+1)^(0+128)
  5609     03E1  0020               	movlb	0	; select bank0
  5610     03E2  0826               	movf	OLED_Printf_Line@fmt,w
  5611     03E3  0021               	movlb	1	; select bank1
  5612     03E4  00C9               	movwf	OLED_Printf_Line@src^(0+128)
  5613                           
  5614                           ;OLED_SSD1306.c: 431:     if (line >= (32 / 8)) return;
  5615     03E5  3004               	movlw	4
  5616     03E6  0247               	subwf	OLED_Printf_Line@line^(0+128),w
  5617     03E7  1C03               	skipc
  5618     03E8  2BEA               	goto	u3451
  5619     03E9  2BEB               	goto	u3450
  5620     03EA                     u3451:
  5621     03EA  2BEC               	goto	l2989
  5622     03EB                     u3450:
  5623     03EB  2FF1               	goto	l166
  5624     03EC                     l2989:
  5625                           
  5626                           ;OLED_SSD1306.c: 433:     va_list ap;;OLED_SSD1306.c: 434:     *ap = __va_start();
  5627     03EC  3028               	movlw	(low ((?_OLED_Printf_Line| 0+2)))& (0+255)
  5628     03ED  00C8               	movwf	OLED_Printf_Line@ap^(0+128)
  5629                           
  5630                           ;OLED_SSD1306.c: 437:     while (*src && (dst - buf) < 31) {
  5631     03EE  2F01               	goto	l3189
  5632     03EF                     l2991:
  5633                           
  5634                           ;OLED_SSD1306.c: 438:         if (*src == '%') {
  5635     03EF  0849               	movf	OLED_Printf_Line@src^(0+128),w
  5636     03F0  0084               	movwf	4
  5637     03F1  084A               	movf	(OLED_Printf_Line@src+1)^(0+128),w
  5638     03F2  0085               	movwf	5
  5639     03F3  0012               	moviw fsr0++
  5640     03F4  3A25               	xorlw	37
  5641     03F5  1D03               	btfss	3,2
  5642     03F6  2BF8               	goto	u3461
  5643     03F7  2BF9               	goto	u3460
  5644     03F8                     u3461:
  5645     03F8  2EEE               	goto	l3183
  5646     03F9                     u3460:
  5647     03F9                     l2993:
  5648                           
  5649                           ;OLED_SSD1306.c: 439:             src++;
  5650     03F9  3001               	movlw	1
  5651     03FA  07C9               	addwf	OLED_Printf_Line@src^(0+128),f
  5652     03FB  3000               	movlw	0
  5653     03FC  3DCA               	addwfc	(OLED_Printf_Line@src+1)^(0+128),f
  5654                           
  5655                           ;OLED_SSD1306.c: 440:             switch (*src) {
  5656     03FD  2ECE               	goto	l3179
  5657     03FE                     l2995:
  5658                           
  5659                           ;OLED_SSD1306.c: 442:                     int16_t val = (*(int *)__va_arg(*(int **)ap, (
      +                          int)0));
  5660     03FE  0848               	movf	OLED_Printf_Line@ap^(0+128),w
  5661     03FF  0086               	movwf	6
  5662     0400  0187               	clrf	7
  5663     0401  3F40               	moviw [0]fsr1
  5664     0402  00C5               	movwf	OLED_Printf_Line@val^(0+128)
  5665     0403  3F41               	moviw [1]fsr1
  5666     0404  00C6               	movwf	(OLED_Printf_Line@val+1)^(0+128)
  5667     0405                     l2997:
  5668     0405  3002               	movlw	2
  5669     0406  0020               	movlb	0	; select bank0
  5670     0407  00AA               	movwf	??_OLED_Printf_Line
  5671     0408  082A               	movf	??_OLED_Printf_Line,w
  5672     0409  0021               	movlb	1	; select bank1
  5673     040A  07C8               	addwf	OLED_Printf_Line@ap^(0+128),f
  5674     040B                     l2999:
  5675                           
  5676                           ;OLED_SSD1306.c: 443:                     if (val < 0) {
  5677     040B  1FC6               	btfss	(OLED_Printf_Line@val+1)^(0+128),7
  5678     040C  2C0E               	goto	u3471
  5679     040D  2C0F               	goto	u3470
  5680     040E                     u3471:
  5681     040E  2C1F               	goto	l3007
  5682     040F                     u3470:
  5683     040F                     l3001:
  5684                           
  5685                           ;OLED_SSD1306.c: 444:                         *dst++ = '-';
  5686     040F  084B               	movf	OLED_Printf_Line@dst^(0+128),w
  5687     0410  0086               	movwf	6
  5688     0411  0187               	clrf	7
  5689     0412  302D               	movlw	45
  5690     0413  0081               	movwf	1
  5691     0414                     l3003:
  5692     0414  3001               	movlw	1
  5693     0415  0020               	movlb	0	; select bank0
  5694     0416  00AA               	movwf	??_OLED_Printf_Line
  5695     0417  082A               	movf	??_OLED_Printf_Line,w
  5696     0418  0021               	movlb	1	; select bank1
  5697     0419  07CB               	addwf	OLED_Printf_Line@dst^(0+128),f
  5698     041A                     l3005:
  5699                           
  5700                           ;OLED_SSD1306.c: 445:                         val = -val;
  5701     041A  09C5               	comf	OLED_Printf_Line@val^(0+128),f
  5702     041B  09C6               	comf	(OLED_Printf_Line@val+1)^(0+128),f
  5703     041C  0AC5               	incf	OLED_Printf_Line@val^(0+128),f
  5704     041D  1903               	skipnz
  5705     041E  0AC6               	incf	(OLED_Printf_Line@val+1)^(0+128),f
  5706     041F                     l3007:
  5707                           
  5708                           ;OLED_SSD1306.c: 448:                     char temp[6];;OLED_SSD1306.c: 449:            
      +                                   uint8_t i = 0;
  5709     041F  01BC               	clrf	OLED_Printf_Line@i^(0+128)
  5710     0420                     l3009:
  5711                           
  5712                           ;OLED_SSD1306.c: 451:                         temp[i++] = '0' + (val % 10);
  5713     0420  083C               	movf	OLED_Printf_Line@i^(0+128),w
  5714     0421  3EA0               	addlw	(low (OLED_Printf_Line@temp| 0))& (0+255)
  5715     0422  0086               	movwf	6
  5716     0423  0187               	clrf	7
  5717     0424  300A               	movlw	10
  5718     0425  00F0               	movwf	___awmod@divisor
  5719     0426  3000               	movlw	0
  5720     0427  00F1               	movwf	___awmod@divisor+1
  5721     0428  0846               	movf	(OLED_Printf_Line@val+1)^(0+128),w
  5722     0429  00F3               	movwf	___awmod@dividend+1
  5723     042A  0845               	movf	OLED_Printf_Line@val^(0+128),w
  5724     042B  00F2               	movwf	___awmod@dividend
  5725     042C  3197  2753  3183   	fcall	___awmod
  5726     042F  0870               	movf	?___awmod,w
  5727     0430  3E30               	addlw	48
  5728     0431  0081               	movwf	1
  5729     0432                     l3011:
  5730     0432  3001               	movlw	1
  5731     0433  0020               	movlb	0	; select bank0
  5732     0434  00AA               	movwf	??_OLED_Printf_Line
  5733     0435  082A               	movf	??_OLED_Printf_Line,w
  5734     0436  0021               	movlb	1	; select bank1
  5735     0437  07BC               	addwf	OLED_Printf_Line@i^(0+128),f
  5736     0438                     l3013:
  5737                           
  5738                           ;OLED_SSD1306.c: 452:                         val /= 10;
  5739     0438  300A               	movlw	10
  5740     0439  00F0               	movwf	___awdiv@divisor
  5741     043A  3000               	movlw	0
  5742     043B  00F1               	movwf	___awdiv@divisor+1
  5743     043C  0846               	movf	(OLED_Printf_Line@val+1)^(0+128),w
  5744     043D  00F3               	movwf	___awdiv@dividend+1
  5745     043E  0845               	movf	OLED_Printf_Line@val^(0+128),w
  5746     043F  00F2               	movwf	___awdiv@dividend
  5747     0440  318B  2336  3183   	fcall	___awdiv
  5748     0443  0871               	movf	?___awdiv+1,w
  5749     0444  0021               	movlb	1	; select bank1
  5750     0445  00C6               	movwf	(OLED_Printf_Line@val+1)^(0+128)
  5751     0446  0870               	movf	?___awdiv,w
  5752     0447  00C5               	movwf	OLED_Printf_Line@val^(0+128)
  5753     0448                     l3015:
  5754                           
  5755                           ;OLED_SSD1306.c: 453:                     } while (val && i < 6);
  5756     0448  0845               	movf	OLED_Printf_Line@val^(0+128),w
  5757     0449  0446               	iorwf	(OLED_Printf_Line@val+1)^(0+128),w
  5758     044A  1903               	btfsc	3,2
  5759     044B  2C4D               	goto	u3481
  5760     044C  2C4E               	goto	u3480
  5761     044D                     u3481:
  5762     044D  2C64               	goto	l3023
  5763     044E                     u3480:
  5764     044E                     l3017:
  5765     044E  3006               	movlw	6
  5766     044F  023C               	subwf	OLED_Printf_Line@i^(0+128),w
  5767     0450  1C03               	skipc
  5768     0451  2C53               	goto	u3491
  5769     0452  2C54               	goto	u3490
  5770     0453                     u3491:
  5771     0453  2C20               	goto	l3009
  5772     0454                     u3490:
  5773     0454  2C64               	goto	l3023
  5774     0455                     l3019:
  5775     0455  084B               	movf	OLED_Printf_Line@dst^(0+128),w
  5776     0456  0086               	movwf	6
  5777     0457  0187               	clrf	7
  5778     0458  083C               	movf	OLED_Printf_Line@i^(0+128),w
  5779     0459  3EA0               	addlw	(low (OLED_Printf_Line@temp| 0))& (0+255)
  5780     045A  0084               	movwf	4
  5781     045B  0185               	clrf	5
  5782     045C  0800               	movf	0,w
  5783     045D  0081               	movwf	1
  5784     045E                     l3021:
  5785     045E  3001               	movlw	1
  5786     045F  0020               	movlb	0	; select bank0
  5787     0460  00AA               	movwf	??_OLED_Printf_Line
  5788     0461  082A               	movf	??_OLED_Printf_Line,w
  5789     0462  0021               	movlb	1	; select bank1
  5790     0463  07CB               	addwf	OLED_Printf_Line@dst^(0+128),f
  5791     0464                     l3023:
  5792     0464  3001               	movlw	1
  5793     0465  02BC               	subwf	OLED_Printf_Line@i^(0+128),f
  5794     0466  0A3C               	incf	OLED_Printf_Line@i^(0+128),w
  5795     0467  1D03               	btfss	3,2
  5796     0468  2C6A               	goto	u3501
  5797     0469  2C6B               	goto	u3500
  5798     046A                     u3501:
  5799     046A  2C55               	goto	l3019
  5800     046B                     u3500:
  5801     046B  2EE9               	goto	l3181
  5802     046C                     l3025:
  5803                           
  5804                           ;OLED_SSD1306.c: 458:                     src++;
  5805     046C  3001               	movlw	1
  5806     046D  07C9               	addwf	OLED_Printf_Line@src^(0+128),f
  5807     046E  3000               	movlw	0
  5808     046F  3DCA               	addwfc	(OLED_Printf_Line@src+1)^(0+128),f
  5809     0470                     l3027:
  5810                           
  5811                           ;OLED_SSD1306.c: 459:                     if (*src == 'u') {
  5812     0470  0849               	movf	OLED_Printf_Line@src^(0+128),w
  5813     0471  0084               	movwf	4
  5814     0472  084A               	movf	(OLED_Printf_Line@src+1)^(0+128),w
  5815     0473  0085               	movwf	5
  5816     0474  0012               	moviw fsr0++
  5817     0475  3A75               	xorlw	117
  5818     0476  1D03               	btfss	3,2
  5819     0477  2C79               	goto	u3511
  5820     0478  2C7A               	goto	u3510
  5821     0479                     u3511:
  5822     0479  2CEE               	goto	l3051
  5823     047A                     u3510:
  5824     047A                     l3029:
  5825                           
  5826                           ;OLED_SSD1306.c: 460:                         uint32_t val = (*(uint32_t *)__va_arg(*(ui
      +                          nt32_t **)ap, (uint32_t)0));
  5827     047A  0848               	movf	OLED_Printf_Line@ap^(0+128),w
  5828     047B  0086               	movwf	6
  5829     047C  0187               	clrf	7
  5830     047D  3F40               	moviw [0]fsr1
  5831     047E  00B4               	movwf	OLED_Printf_Line@val_350^(0+128)
  5832     047F  3F41               	moviw [1]fsr1
  5833     0480  00B5               	movwf	(OLED_Printf_Line@val_350+1)^(0+128)
  5834     0481  3F42               	moviw [2]fsr1
  5835     0482  00B6               	movwf	(OLED_Printf_Line@val_350+2)^(0+128)
  5836     0483  3F43               	moviw [3]fsr1
  5837     0484  00B7               	movwf	(OLED_Printf_Line@val_350+3)^(0+128)
  5838     0485                     l3031:
  5839     0485  3004               	movlw	4
  5840     0486  0020               	movlb	0	; select bank0
  5841     0487  00AA               	movwf	??_OLED_Printf_Line
  5842     0488  082A               	movf	??_OLED_Printf_Line,w
  5843     0489  0021               	movlb	1	; select bank1
  5844     048A  07C8               	addwf	OLED_Printf_Line@ap^(0+128),f
  5845     048B                     l3033:
  5846                           
  5847                           ;OLED_SSD1306.c: 461:                         char temp[11];;OLED_SSD1306.c: 462:       
      +                                            uint8_t i = 0;
  5848     048B  01BD               	clrf	OLED_Printf_Line@i_352^(0+128)
  5849     048C                     l3035:
  5850                           
  5851                           ;OLED_SSD1306.c: 464:                             temp[i++] = '0' + (val % 10);
  5852     048C  083D               	movf	OLED_Printf_Line@i_352^(0+128),w
  5853     048D  3E36               	addlw	(low (OLED_Printf_Line@temp_351| 0))& (0+255)
  5854     048E  0086               	movwf	6
  5855     048F  0187               	clrf	7
  5856     0490  3000               	movlw	0
  5857     0491  00F3               	movwf	___llmod@divisor+3
  5858     0492  3000               	movlw	0
  5859     0493  00F2               	movwf	___llmod@divisor+2
  5860     0494  3000               	movlw	0
  5861     0495  00F1               	movwf	___llmod@divisor+1
  5862     0496  300A               	movlw	10
  5863     0497  00F0               	movwf	___llmod@divisor
  5864     0498  0837               	movf	(OLED_Printf_Line@val_350+3)^(0+128),w
  5865     0499  00F7               	movwf	___llmod@dividend+3
  5866     049A  0836               	movf	(OLED_Printf_Line@val_350+2)^(0+128),w
  5867     049B  00F6               	movwf	___llmod@dividend+2
  5868     049C  0835               	movf	(OLED_Printf_Line@val_350+1)^(0+128),w
  5869     049D  00F5               	movwf	___llmod@dividend+1
  5870     049E  0834               	movf	OLED_Printf_Line@val_350^(0+128),w
  5871     049F  00F4               	movwf	___llmod@dividend
  5872     04A0  3196  2621  3183   	fcall	___llmod
  5873     04A3  0870               	movf	?___llmod,w
  5874     04A4  3E30               	addlw	48
  5875     04A5  0081               	movwf	1
  5876     04A6                     l3037:
  5877     04A6  3001               	movlw	1
  5878     04A7  0020               	movlb	0	; select bank0
  5879     04A8  00AA               	movwf	??_OLED_Printf_Line
  5880     04A9  082A               	movf	??_OLED_Printf_Line,w
  5881     04AA  0021               	movlb	1	; select bank1
  5882     04AB  07BD               	addwf	OLED_Printf_Line@i_352^(0+128),f
  5883     04AC                     l3039:
  5884                           
  5885                           ;OLED_SSD1306.c: 465:                             val /= 10;
  5886     04AC  3000               	movlw	0
  5887     04AD  00F3               	movwf	___lldiv@divisor+3
  5888     04AE  3000               	movlw	0
  5889     04AF  00F2               	movwf	___lldiv@divisor+2
  5890     04B0  3000               	movlw	0
  5891     04B1  00F1               	movwf	___lldiv@divisor+1
  5892     04B2  300A               	movlw	10
  5893     04B3  00F0               	movwf	___lldiv@divisor
  5894     04B4  0837               	movf	(OLED_Printf_Line@val_350+3)^(0+128),w
  5895     04B5  00F7               	movwf	___lldiv@dividend+3
  5896     04B6  0836               	movf	(OLED_Printf_Line@val_350+2)^(0+128),w
  5897     04B7  00F6               	movwf	___lldiv@dividend+2
  5898     04B8  0835               	movf	(OLED_Printf_Line@val_350+1)^(0+128),w
  5899     04B9  00F5               	movwf	___lldiv@dividend+1
  5900     04BA  0834               	movf	OLED_Printf_Line@val_350^(0+128),w
  5901     04BB  00F4               	movwf	___lldiv@dividend
  5902     04BC  3197  27A6  3183   	fcall	___lldiv
  5903     04BF  0873               	movf	?___lldiv+3,w
  5904     04C0  0021               	movlb	1	; select bank1
  5905     04C1  00B7               	movwf	(OLED_Printf_Line@val_350+3)^(0+128)
  5906     04C2  0872               	movf	?___lldiv+2,w
  5907     04C3  00B6               	movwf	(OLED_Printf_Line@val_350+2)^(0+128)
  5908     04C4  0871               	movf	?___lldiv+1,w
  5909     04C5  00B5               	movwf	(OLED_Printf_Line@val_350+1)^(0+128)
  5910     04C6  0870               	movf	?___lldiv,w
  5911     04C7  00B4               	movwf	OLED_Printf_Line@val_350^(0+128)
  5912     04C8                     l3041:
  5913                           
  5914                           ;OLED_SSD1306.c: 466:                         } while (val && i < 11);
  5915     04C8  0837               	movf	(OLED_Printf_Line@val_350+3)^(0+128),w
  5916     04C9  0436               	iorwf	(OLED_Printf_Line@val_350+2)^(0+128),w
  5917     04CA  0435               	iorwf	(OLED_Printf_Line@val_350+1)^(0+128),w
  5918     04CB  0434               	iorwf	OLED_Printf_Line@val_350^(0+128),w
  5919     04CC  1903               	skipnz
  5920     04CD  2CCF               	goto	u3521
  5921     04CE  2CD0               	goto	u3520
  5922     04CF                     u3521:
  5923     04CF  2CE6               	goto	l3049
  5924     04D0                     u3520:
  5925     04D0                     l3043:
  5926     04D0  300B               	movlw	11
  5927     04D1  023D               	subwf	OLED_Printf_Line@i_352^(0+128),w
  5928     04D2  1C03               	skipc
  5929     04D3  2CD5               	goto	u3531
  5930     04D4  2CD6               	goto	u3530
  5931     04D5                     u3531:
  5932     04D5  2C8C               	goto	l3035
  5933     04D6                     u3530:
  5934     04D6  2CE6               	goto	l3049
  5935     04D7                     l3045:
  5936     04D7  084B               	movf	OLED_Printf_Line@dst^(0+128),w
  5937     04D8  0086               	movwf	6
  5938     04D9  0187               	clrf	7
  5939     04DA  083D               	movf	OLED_Printf_Line@i_352^(0+128),w
  5940     04DB  3E36               	addlw	(low (OLED_Printf_Line@temp_351| 0))& (0+255)
  5941     04DC  0084               	movwf	4
  5942     04DD  0185               	clrf	5
  5943     04DE  0800               	movf	0,w
  5944     04DF  0081               	movwf	1
  5945     04E0                     l3047:
  5946     04E0  3001               	movlw	1
  5947     04E1  0020               	movlb	0	; select bank0
  5948     04E2  00AA               	movwf	??_OLED_Printf_Line
  5949     04E3  082A               	movf	??_OLED_Printf_Line,w
  5950     04E4  0021               	movlb	1	; select bank1
  5951     04E5  07CB               	addwf	OLED_Printf_Line@dst^(0+128),f
  5952     04E6                     l3049:
  5953     04E6  3001               	movlw	1
  5954     04E7  02BD               	subwf	OLED_Printf_Line@i_352^(0+128),f
  5955     04E8  0A3D               	incf	OLED_Printf_Line@i_352^(0+128),w
  5956     04E9  1D03               	btfss	3,2
  5957     04EA  2CEC               	goto	u3541
  5958     04EB  2CED               	goto	u3540
  5959     04EC                     u3541:
  5960     04EC  2CD7               	goto	l3045
  5961     04ED                     u3540:
  5962     04ED  2DAB               	goto	l3093
  5963     04EE                     l3051:
  5964     04EE  0849               	movf	OLED_Printf_Line@src^(0+128),w
  5965     04EF  0084               	movwf	4
  5966     04F0  084A               	movf	(OLED_Printf_Line@src+1)^(0+128),w
  5967     04F1  0085               	movwf	5
  5968     04F2  0012               	moviw fsr0++
  5969     04F3  3A64               	xorlw	100
  5970     04F4  1D03               	btfss	3,2
  5971     04F5  2CF7               	goto	u3551
  5972     04F6  2CF8               	goto	u3550
  5973     04F7                     u3551:
  5974     04F7  2D86               	goto	l3083
  5975     04F8                     u3550:
  5976     04F8                     l3053:
  5977                           
  5978                           ;OLED_SSD1306.c: 469:                         int32_t val = (*(int32_t *)__va_arg(*(int3
      +                          2_t **)ap, (int32_t)0));
  5979     04F8  0848               	movf	OLED_Printf_Line@ap^(0+128),w
  5980     04F9  0086               	movwf	6
  5981     04FA  0187               	clrf	7
  5982     04FB  3F40               	moviw [0]fsr1
  5983     04FC  00C1               	movwf	OLED_Printf_Line@val_353^(0+128)
  5984     04FD  3F41               	moviw [1]fsr1
  5985     04FE  00C2               	movwf	(OLED_Printf_Line@val_353+1)^(0+128)
  5986     04FF  3F42               	moviw [2]fsr1
  5987     0500  00C3               	movwf	(OLED_Printf_Line@val_353+2)^(0+128)
  5988     0501  3F43               	moviw [3]fsr1
  5989     0502  00C4               	movwf	(OLED_Printf_Line@val_353+3)^(0+128)
  5990     0503                     l3055:
  5991     0503  3004               	movlw	4
  5992     0504  0020               	movlb	0	; select bank0
  5993     0505  00AA               	movwf	??_OLED_Printf_Line
  5994     0506  082A               	movf	??_OLED_Printf_Line,w
  5995     0507  0021               	movlb	1	; select bank1
  5996     0508  07C8               	addwf	OLED_Printf_Line@ap^(0+128),f
  5997     0509                     l3057:
  5998                           
  5999                           ;OLED_SSD1306.c: 470:                         if (val < 0) {
  6000     0509  1FC4               	btfss	(OLED_Printf_Line@val_353+3)^(0+128),7
  6001     050A  2D0C               	goto	u3561
  6002     050B  2D0D               	goto	u3560
  6003     050C                     u3561:
  6004     050C  2D23               	goto	l3065
  6005     050D                     u3560:
  6006     050D                     l3059:
  6007                           
  6008                           ;OLED_SSD1306.c: 471:                             *dst++ = '-';
  6009     050D  084B               	movf	OLED_Printf_Line@dst^(0+128),w
  6010     050E  0086               	movwf	6
  6011     050F  0187               	clrf	7
  6012     0510  302D               	movlw	45
  6013     0511  0081               	movwf	1
  6014     0512                     l3061:
  6015     0512  3001               	movlw	1
  6016     0513  0020               	movlb	0	; select bank0
  6017     0514  00AA               	movwf	??_OLED_Printf_Line
  6018     0515  082A               	movf	??_OLED_Printf_Line,w
  6019     0516  0021               	movlb	1	; select bank1
  6020     0517  07CB               	addwf	OLED_Printf_Line@dst^(0+128),f
  6021     0518                     l3063:
  6022                           
  6023                           ;OLED_SSD1306.c: 472:                             val = -val;
  6024     0518  09C1               	comf	OLED_Printf_Line@val_353^(0+128),f
  6025     0519  09C2               	comf	(OLED_Printf_Line@val_353+1)^(0+128),f
  6026     051A  09C3               	comf	(OLED_Printf_Line@val_353+2)^(0+128),f
  6027     051B  09C4               	comf	(OLED_Printf_Line@val_353+3)^(0+128),f
  6028     051C  0AC1               	incf	OLED_Printf_Line@val_353^(0+128),f
  6029     051D  1903               	skipnz
  6030     051E  0AC2               	incf	(OLED_Printf_Line@val_353+1)^(0+128),f
  6031     051F  1903               	skipnz
  6032     0520  0AC3               	incf	(OLED_Printf_Line@val_353+2)^(0+128),f
  6033     0521  1903               	skipnz
  6034     0522  0AC4               	incf	(OLED_Printf_Line@val_353+3)^(0+128),f
  6035     0523                     l3065:
  6036                           
  6037                           ;OLED_SSD1306.c: 474:                         char temp[11];;OLED_SSD1306.c: 475:       
      +                                            uint8_t i = 0;
  6038     0523  01BE               	clrf	OLED_Printf_Line@i_355^(0+128)
  6039     0524                     l3067:
  6040                           
  6041                           ;OLED_SSD1306.c: 477:                             temp[i++] = '0' + (val % 10);
  6042     0524  083E               	movf	OLED_Printf_Line@i_355^(0+128),w
  6043     0525  3E41               	addlw	(low (OLED_Printf_Line@temp_354| 0))& (0+255)
  6044     0526  0086               	movwf	6
  6045     0527  0187               	clrf	7
  6046     0528  3000               	movlw	0
  6047     0529  00F3               	movwf	___almod@divisor+3
  6048     052A  3000               	movlw	0
  6049     052B  00F2               	movwf	___almod@divisor+2
  6050     052C  3000               	movlw	0
  6051     052D  00F1               	movwf	___almod@divisor+1
  6052     052E  300A               	movlw	10
  6053     052F  00F0               	movwf	___almod@divisor
  6054     0530  0844               	movf	(OLED_Printf_Line@val_353+3)^(0+128),w
  6055     0531  00F7               	movwf	___almod@dividend+3
  6056     0532  0843               	movf	(OLED_Printf_Line@val_353+2)^(0+128),w
  6057     0533  00F6               	movwf	___almod@dividend+2
  6058     0534  0842               	movf	(OLED_Printf_Line@val_353+1)^(0+128),w
  6059     0535  00F5               	movwf	___almod@dividend+1
  6060     0536  0841               	movf	OLED_Printf_Line@val_353^(0+128),w
  6061     0537  00F4               	movwf	___almod@dividend
  6062     0538  318D  254B  3183   	fcall	___almod
  6063     053B  0870               	movf	?___almod,w
  6064     053C  3E30               	addlw	48
  6065     053D  0081               	movwf	1
  6066     053E                     l3069:
  6067     053E  3001               	movlw	1
  6068     053F  0020               	movlb	0	; select bank0
  6069     0540  00AA               	movwf	??_OLED_Printf_Line
  6070     0541  082A               	movf	??_OLED_Printf_Line,w
  6071     0542  0021               	movlb	1	; select bank1
  6072     0543  07BE               	addwf	OLED_Printf_Line@i_355^(0+128),f
  6073     0544                     l3071:
  6074                           
  6075                           ;OLED_SSD1306.c: 478:                             val /= 10;
  6076     0544  3000               	movlw	0
  6077     0545  00F3               	movwf	___aldiv@divisor+3
  6078     0546  3000               	movlw	0
  6079     0547  00F2               	movwf	___aldiv@divisor+2
  6080     0548  3000               	movlw	0
  6081     0549  00F1               	movwf	___aldiv@divisor+1
  6082     054A  300A               	movlw	10
  6083     054B  00F0               	movwf	___aldiv@divisor
  6084     054C  0844               	movf	(OLED_Printf_Line@val_353+3)^(0+128),w
  6085     054D  00F7               	movwf	___aldiv@dividend+3
  6086     054E  0843               	movf	(OLED_Printf_Line@val_353+2)^(0+128),w
  6087     054F  00F6               	movwf	___aldiv@dividend+2
  6088     0550  0842               	movf	(OLED_Printf_Line@val_353+1)^(0+128),w
  6089     0551  00F5               	movwf	___aldiv@dividend+1
  6090     0552  0841               	movf	OLED_Printf_Line@val_353^(0+128),w
  6091     0553  00F4               	movwf	___aldiv@dividend
  6092     0554  318D  25C6  3183   	fcall	___aldiv
  6093     0557  0873               	movf	?___aldiv+3,w
  6094     0558  0021               	movlb	1	; select bank1
  6095     0559  00C4               	movwf	(OLED_Printf_Line@val_353+3)^(0+128)
  6096     055A  0872               	movf	?___aldiv+2,w
  6097     055B  00C3               	movwf	(OLED_Printf_Line@val_353+2)^(0+128)
  6098     055C  0871               	movf	?___aldiv+1,w
  6099     055D  00C2               	movwf	(OLED_Printf_Line@val_353+1)^(0+128)
  6100     055E  0870               	movf	?___aldiv,w
  6101     055F  00C1               	movwf	OLED_Printf_Line@val_353^(0+128)
  6102     0560                     l3073:
  6103                           
  6104                           ;OLED_SSD1306.c: 479:                         } while (val && i < 11);
  6105     0560  0844               	movf	(OLED_Printf_Line@val_353+3)^(0+128),w
  6106     0561  0443               	iorwf	(OLED_Printf_Line@val_353+2)^(0+128),w
  6107     0562  0442               	iorwf	(OLED_Printf_Line@val_353+1)^(0+128),w
  6108     0563  0441               	iorwf	OLED_Printf_Line@val_353^(0+128),w
  6109     0564  1903               	skipnz
  6110     0565  2D67               	goto	u3571
  6111     0566  2D68               	goto	u3570
  6112     0567                     u3571:
  6113     0567  2D7E               	goto	l3081
  6114     0568                     u3570:
  6115     0568                     l3075:
  6116     0568  300B               	movlw	11
  6117     0569  023E               	subwf	OLED_Printf_Line@i_355^(0+128),w
  6118     056A  1C03               	skipc
  6119     056B  2D6D               	goto	u3581
  6120     056C  2D6E               	goto	u3580
  6121     056D                     u3581:
  6122     056D  2D24               	goto	l3067
  6123     056E                     u3580:
  6124     056E  2D7E               	goto	l3081
  6125     056F                     l3077:
  6126     056F  084B               	movf	OLED_Printf_Line@dst^(0+128),w
  6127     0570  0086               	movwf	6
  6128     0571  0187               	clrf	7
  6129     0572  083E               	movf	OLED_Printf_Line@i_355^(0+128),w
  6130     0573  3E41               	addlw	(low (OLED_Printf_Line@temp_354| 0))& (0+255)
  6131     0574  0084               	movwf	4
  6132     0575  0185               	clrf	5
  6133     0576  0800               	movf	0,w
  6134     0577  0081               	movwf	1
  6135     0578                     l3079:
  6136     0578  3001               	movlw	1
  6137     0579  0020               	movlb	0	; select bank0
  6138     057A  00AA               	movwf	??_OLED_Printf_Line
  6139     057B  082A               	movf	??_OLED_Printf_Line,w
  6140     057C  0021               	movlb	1	; select bank1
  6141     057D  07CB               	addwf	OLED_Printf_Line@dst^(0+128),f
  6142     057E                     l3081:
  6143     057E  3001               	movlw	1
  6144     057F  02BE               	subwf	OLED_Printf_Line@i_355^(0+128),f
  6145     0580  0A3E               	incf	OLED_Printf_Line@i_355^(0+128),w
  6146     0581  1D03               	btfss	3,2
  6147     0582  2D84               	goto	u3591
  6148     0583  2D85               	goto	u3590
  6149     0584                     u3591:
  6150     0584  2D6F               	goto	l3077
  6151     0585                     u3590:
  6152     0585  2DAB               	goto	l3093
  6153     0586                     l3083:
  6154                           
  6155                           ;OLED_SSD1306.c: 483:                         *dst++ = '%';
  6156     0586  084B               	movf	OLED_Printf_Line@dst^(0+128),w
  6157     0587  0086               	movwf	6
  6158     0588  0187               	clrf	7
  6159     0589  3025               	movlw	37
  6160     058A  0081               	movwf	1
  6161     058B                     l3085:
  6162     058B  3001               	movlw	1
  6163     058C  0020               	movlb	0	; select bank0
  6164     058D  00AA               	movwf	??_OLED_Printf_Line
  6165     058E  082A               	movf	??_OLED_Printf_Line,w
  6166     058F  0021               	movlb	1	; select bank1
  6167     0590  07CB               	addwf	OLED_Printf_Line@dst^(0+128),f
  6168     0591                     l3087:
  6169                           
  6170                           ;OLED_SSD1306.c: 484:                         *dst++ = 'l';
  6171     0591  084B               	movf	OLED_Printf_Line@dst^(0+128),w
  6172     0592  0086               	movwf	6
  6173     0593  0187               	clrf	7
  6174     0594  306C               	movlw	108
  6175     0595  0081               	movwf	1
  6176     0596  3001               	movlw	1
  6177     0597  0020               	movlb	0	; select bank0
  6178     0598  00AA               	movwf	??_OLED_Printf_Line
  6179     0599  082A               	movf	??_OLED_Printf_Line,w
  6180     059A  0021               	movlb	1	; select bank1
  6181     059B  07CB               	addwf	OLED_Printf_Line@dst^(0+128),f
  6182     059C                     l3089:
  6183                           
  6184                           ;OLED_SSD1306.c: 485:                         *dst++ = *src;
  6185     059C  084B               	movf	OLED_Printf_Line@dst^(0+128),w
  6186     059D  0086               	movwf	6
  6187     059E  0187               	clrf	7
  6188     059F  0849               	movf	OLED_Printf_Line@src^(0+128),w
  6189     05A0  0084               	movwf	4
  6190     05A1  084A               	movf	(OLED_Printf_Line@src+1)^(0+128),w
  6191     05A2  0085               	movwf	5
  6192     05A3  0800               	movf	0,w	;code access
  6193     05A4  0081               	movwf	1
  6194     05A5                     l3091:
  6195     05A5  3001               	movlw	1
  6196     05A6  0020               	movlb	0	; select bank0
  6197     05A7  00AA               	movwf	??_OLED_Printf_Line
  6198     05A8  082A               	movf	??_OLED_Printf_Line,w
  6199     05A9  0021               	movlb	1	; select bank1
  6200     05AA  07CB               	addwf	OLED_Printf_Line@dst^(0+128),f
  6201     05AB                     l3093:
  6202                           
  6203                           ;OLED_SSD1306.c: 487:                     src++;
  6204     05AB  3001               	movlw	1
  6205     05AC  07C9               	addwf	OLED_Printf_Line@src^(0+128),f
  6206     05AD  3000               	movlw	0
  6207     05AE  3DCA               	addwfc	(OLED_Printf_Line@src+1)^(0+128),f
  6208                           
  6209                           ;OLED_SSD1306.c: 488:                     break;
  6210     05AF  2EE9               	goto	l3181
  6211     05B0                     l3095:
  6212                           
  6213                           ;OLED_SSD1306.c: 491:                     uint16_t val = (*(unsigned int *)__va_arg(*(un
      +                          signed int **)ap, (unsigned int)0));
  6214     05B0  0848               	movf	OLED_Printf_Line@ap^(0+128),w
  6215     05B1  0086               	movwf	6
  6216     05B2  0187               	clrf	7
  6217     05B3  3F40               	moviw [0]fsr1
  6218     05B4  00B8               	movwf	OLED_Printf_Line@val_356^(0+128)
  6219     05B5  3F41               	moviw [1]fsr1
  6220     05B6  00B9               	movwf	(OLED_Printf_Line@val_356+1)^(0+128)
  6221     05B7                     l3097:
  6222     05B7  3002               	movlw	2
  6223     05B8  0020               	movlb	0	; select bank0
  6224     05B9  00AA               	movwf	??_OLED_Printf_Line
  6225     05BA  082A               	movf	??_OLED_Printf_Line,w
  6226     05BB  0021               	movlb	1	; select bank1
  6227     05BC  07C8               	addwf	OLED_Printf_Line@ap^(0+128),f
  6228     05BD                     l3099:
  6229                           
  6230                           ;OLED_SSD1306.c: 492:                     char temp[6];;OLED_SSD1306.c: 493:            
      +                                   uint8_t i = 0;
  6231     05BD  01BF               	clrf	OLED_Printf_Line@i_358^(0+128)
  6232     05BE                     l3101:
  6233                           
  6234                           ;OLED_SSD1306.c: 495:                         temp[i++] = '0' + (val % 10);
  6235     05BE  083F               	movf	OLED_Printf_Line@i_358^(0+128),w
  6236     05BF  3EA6               	addlw	(low (OLED_Printf_Line@temp_357| 0))& (0+255)
  6237     05C0  0086               	movwf	6
  6238     05C1  0187               	clrf	7
  6239     05C2  300A               	movlw	10
  6240     05C3  00F0               	movwf	___lwmod@divisor
  6241     05C4  3000               	movlw	0
  6242     05C5  00F1               	movwf	___lwmod@divisor+1
  6243     05C6  0839               	movf	(OLED_Printf_Line@val_356+1)^(0+128),w
  6244     05C7  00F3               	movwf	___lwmod@dividend+1
  6245     05C8  0838               	movf	OLED_Printf_Line@val_356^(0+128),w
  6246     05C9  00F2               	movwf	___lwmod@dividend
  6247     05CA  3180  2004  3183   	fcall	___lwmod
  6248     05CD  0870               	movf	?___lwmod,w
  6249     05CE  3E30               	addlw	48
  6250     05CF  0081               	movwf	1
  6251     05D0                     l3103:
  6252     05D0  3001               	movlw	1
  6253     05D1  0020               	movlb	0	; select bank0
  6254     05D2  00AA               	movwf	??_OLED_Printf_Line
  6255     05D3  082A               	movf	??_OLED_Printf_Line,w
  6256     05D4  0021               	movlb	1	; select bank1
  6257     05D5  07BF               	addwf	OLED_Printf_Line@i_358^(0+128),f
  6258     05D6                     l3105:
  6259                           
  6260                           ;OLED_SSD1306.c: 496:                         val /= 10;
  6261     05D6  300A               	movlw	10
  6262     05D7  00F0               	movwf	___lwdiv@divisor
  6263     05D8  3000               	movlw	0
  6264     05D9  00F1               	movwf	___lwdiv@divisor+1
  6265     05DA  0839               	movf	(OLED_Printf_Line@val_356+1)^(0+128),w
  6266     05DB  00F3               	movwf	___lwdiv@dividend+1
  6267     05DC  0838               	movf	OLED_Printf_Line@val_356^(0+128),w
  6268     05DD  00F2               	movwf	___lwdiv@dividend
  6269     05DE  3195  25A4  3183   	fcall	___lwdiv
  6270     05E1  0871               	movf	?___lwdiv+1,w
  6271     05E2  0021               	movlb	1	; select bank1
  6272     05E3  00B9               	movwf	(OLED_Printf_Line@val_356+1)^(0+128)
  6273     05E4  0870               	movf	?___lwdiv,w
  6274     05E5  00B8               	movwf	OLED_Printf_Line@val_356^(0+128)
  6275     05E6                     l3107:
  6276                           
  6277                           ;OLED_SSD1306.c: 497:                     } while (val && i < 6);
  6278     05E6  0838               	movf	OLED_Printf_Line@val_356^(0+128),w
  6279     05E7  0439               	iorwf	(OLED_Printf_Line@val_356+1)^(0+128),w
  6280     05E8  1903               	btfsc	3,2
  6281     05E9  2DEB               	goto	u3601
  6282     05EA  2DEC               	goto	u3600
  6283     05EB                     u3601:
  6284     05EB  2E02               	goto	l3115
  6285     05EC                     u3600:
  6286     05EC                     l3109:
  6287     05EC  3006               	movlw	6
  6288     05ED  023F               	subwf	OLED_Printf_Line@i_358^(0+128),w
  6289     05EE  1C03               	skipc
  6290     05EF  2DF1               	goto	u3611
  6291     05F0  2DF2               	goto	u3610
  6292     05F1                     u3611:
  6293     05F1  2DBE               	goto	l3101
  6294     05F2                     u3610:
  6295     05F2  2E02               	goto	l3115
  6296     05F3                     l3111:
  6297     05F3  084B               	movf	OLED_Printf_Line@dst^(0+128),w
  6298     05F4  0086               	movwf	6
  6299     05F5  0187               	clrf	7
  6300     05F6  083F               	movf	OLED_Printf_Line@i_358^(0+128),w
  6301     05F7  3EA6               	addlw	(low (OLED_Printf_Line@temp_357| 0))& (0+255)
  6302     05F8  0084               	movwf	4
  6303     05F9  0185               	clrf	5
  6304     05FA  0800               	movf	0,w
  6305     05FB  0081               	movwf	1
  6306     05FC                     l3113:
  6307     05FC  3001               	movlw	1
  6308     05FD  0020               	movlb	0	; select bank0
  6309     05FE  00AA               	movwf	??_OLED_Printf_Line
  6310     05FF  082A               	movf	??_OLED_Printf_Line,w
  6311     0600  0021               	movlb	1	; select bank1
  6312     0601  07CB               	addwf	OLED_Printf_Line@dst^(0+128),f
  6313     0602                     l3115:
  6314     0602  3001               	movlw	1
  6315     0603  02BF               	subwf	OLED_Printf_Line@i_358^(0+128),f
  6316     0604  0A3F               	incf	OLED_Printf_Line@i_358^(0+128),w
  6317     0605  1D03               	btfss	3,2
  6318     0606  2E08               	goto	u3621
  6319     0607  2E09               	goto	u3620
  6320     0608                     u3621:
  6321     0608  2DF3               	goto	l3111
  6322     0609                     u3620:
  6323     0609  2EE9               	goto	l3181
  6324     060A                     l3117:
  6325                           
  6326                           ;OLED_SSD1306.c: 502:                     uint16_t val = (*(unsigned int *)__va_arg(*(un
      +                          signed int **)ap, (unsigned int)0));
  6327     060A  0848               	movf	OLED_Printf_Line@ap^(0+128),w
  6328     060B  0086               	movwf	6
  6329     060C  0187               	clrf	7
  6330     060D  3F40               	moviw [0]fsr1
  6331     060E  0020               	movlb	0	; select bank0
  6332     060F  00EE               	movwf	OLED_Printf_Line@val_359
  6333     0610  3F41               	moviw [1]fsr1
  6334     0611  00EF               	movwf	OLED_Printf_Line@val_359+1
  6335     0612                     l3119:
  6336     0612  3002               	movlw	2
  6337     0613  00AA               	movwf	??_OLED_Printf_Line
  6338     0614  082A               	movf	??_OLED_Printf_Line,w
  6339     0615  0021               	movlb	1	; select bank1
  6340     0616  07C8               	addwf	OLED_Printf_Line@ap^(0+128),f
  6341     0617                     l3121:
  6342                           
  6343                           ;OLED_SSD1306.c: 503:                     char temp[5];;OLED_SSD1306.c: 504:            
      +                                   uint8_t i = 0;
  6344     0617  01C0               	clrf	OLED_Printf_Line@i_361^(0+128)
  6345     0618                     l3123:
  6346                           
  6347                           ;OLED_SSD1306.c: 506:                         uint8_t nibble = val & 0xF;
  6348     0618  0020               	movlb	0	; select bank0
  6349     0619  086E               	movf	OLED_Printf_Line@val_359,w
  6350     061A  390F               	andlw	15
  6351     061B  0021               	movlb	1	; select bank1
  6352     061C  00BA               	movwf	OLED_Printf_Line@nibble^(0+128)
  6353     061D                     l3125:
  6354                           
  6355                           ;OLED_SSD1306.c: 507:                         temp[i++] = (nibble < 10) ? ('0' + nibble)
      +                           : ('A' + nibble - 10);
  6356     061D  300A               	movlw	10
  6357     061E  023A               	subwf	OLED_Printf_Line@nibble^(0+128),w
  6358     061F  1C03               	skipc
  6359     0620  2E22               	goto	u3631
  6360     0621  2E23               	goto	u3630
  6361     0622                     u3631:
  6362     0622  2E2C               	goto	l3129
  6363     0623                     u3630:
  6364     0623                     l3127:
  6365     0623  083A               	movf	OLED_Printf_Line@nibble^(0+128),w
  6366     0624  3E37               	addlw	55
  6367     0625  0020               	movlb	0	; select bank0
  6368     0626  00EC               	movwf	_OLED_Printf_Line$363
  6369     0627  3000               	movlw	0
  6370     0628  1803               	skipnc
  6371     0629  3001               	movlw	1
  6372     062A  00ED               	movwf	_OLED_Printf_Line$363+1
  6373     062B  2E34               	goto	l3131
  6374     062C                     l3129:
  6375     062C  083A               	movf	OLED_Printf_Line@nibble^(0+128),w
  6376     062D  3E30               	addlw	48
  6377     062E  0020               	movlb	0	; select bank0
  6378     062F  00EC               	movwf	_OLED_Printf_Line$363
  6379     0630  3000               	movlw	0
  6380     0631  1803               	skipnc
  6381     0632  3001               	movlw	1
  6382     0633  00ED               	movwf	_OLED_Printf_Line$363+1
  6383     0634                     l3131:
  6384     0634  0021               	movlb	1	; select bank1
  6385     0635  0840               	movf	OLED_Printf_Line@i_361^(0+128),w
  6386     0636  3EAC               	addlw	(low (OLED_Printf_Line@temp_360| 0))& (0+255)
  6387     0637  0086               	movwf	6
  6388     0638  0187               	clrf	7
  6389     0639  0020               	movlb	0	; select bank0
  6390     063A  086C               	movf	_OLED_Printf_Line$363,w
  6391     063B  0081               	movwf	1
  6392     063C                     l3133:
  6393     063C  3001               	movlw	1
  6394     063D  00AA               	movwf	??_OLED_Printf_Line
  6395     063E  082A               	movf	??_OLED_Printf_Line,w
  6396     063F  0021               	movlb	1	; select bank1
  6397     0640  07C0               	addwf	OLED_Printf_Line@i_361^(0+128),f
  6398     0641                     l3135:
  6399                           
  6400                           ;OLED_SSD1306.c: 508:                         val >>= 4;
  6401     0641  3004               	movlw	4
  6402     0642  0020               	movlb	0	; select bank0
  6403     0643                     u3645:
  6404     0643  36EF               	lsrf	OLED_Printf_Line@val_359+1,f
  6405     0644  0CEE               	rrf	OLED_Printf_Line@val_359,f
  6406     0645  0B89               	decfsz	9,f
  6407     0646  2E43               	goto	u3645
  6408     0647                     l3137:
  6409                           
  6410                           ;OLED_SSD1306.c: 509:                     } while (val && i < 5);
  6411     0647  086E               	movf	OLED_Printf_Line@val_359,w
  6412     0648  046F               	iorwf	OLED_Printf_Line@val_359+1,w
  6413     0649  1903               	btfsc	3,2
  6414     064A  2E4C               	goto	u3651
  6415     064B  2E4D               	goto	u3650
  6416     064C                     u3651:
  6417     064C  2E64               	goto	l3145
  6418     064D                     u3650:
  6419     064D                     l3139:
  6420     064D  3005               	movlw	5
  6421     064E  0021               	movlb	1	; select bank1
  6422     064F  0240               	subwf	OLED_Printf_Line@i_361^(0+128),w
  6423     0650  1C03               	skipc
  6424     0651  2E53               	goto	u3661
  6425     0652  2E54               	goto	u3660
  6426     0653                     u3661:
  6427     0653  2E18               	goto	l3123
  6428     0654                     u3660:
  6429     0654  2E64               	goto	l3145
  6430     0655                     l3141:
  6431     0655  084B               	movf	OLED_Printf_Line@dst^(0+128),w
  6432     0656  0086               	movwf	6
  6433     0657  0187               	clrf	7
  6434     0658  0840               	movf	OLED_Printf_Line@i_361^(0+128),w
  6435     0659  3EAC               	addlw	(low (OLED_Printf_Line@temp_360| 0))& (0+255)
  6436     065A  0084               	movwf	4
  6437     065B  0185               	clrf	5
  6438     065C  0800               	movf	0,w
  6439     065D  0081               	movwf	1
  6440     065E                     l3143:
  6441     065E  3001               	movlw	1
  6442     065F  0020               	movlb	0	; select bank0
  6443     0660  00AA               	movwf	??_OLED_Printf_Line
  6444     0661  082A               	movf	??_OLED_Printf_Line,w
  6445     0662  0021               	movlb	1	; select bank1
  6446     0663  07CB               	addwf	OLED_Printf_Line@dst^(0+128),f
  6447     0664                     l3145:
  6448     0664  3001               	movlw	1
  6449     0665  0021               	movlb	1	; select bank1
  6450     0666  02C0               	subwf	OLED_Printf_Line@i_361^(0+128),f
  6451     0667  0A40               	incf	OLED_Printf_Line@i_361^(0+128),w
  6452     0668  1D03               	btfss	3,2
  6453     0669  2E6B               	goto	u3671
  6454     066A  2E6C               	goto	u3670
  6455     066B                     u3671:
  6456     066B  2E55               	goto	l3141
  6457     066C                     u3670:
  6458     066C  2EE9               	goto	l3181
  6459     066D                     l3147:
  6460                           
  6461                           ;OLED_SSD1306.c: 514:                     const char *str = (*(const char* *)__va_arg(*(
      +                          const char* **)ap, (const char*)0));
  6462     066D  0848               	movf	OLED_Printf_Line@ap^(0+128),w
  6463     066E  0086               	movwf	6
  6464     066F  0187               	clrf	7
  6465     0670  0801               	movf	1,w
  6466     0671  00B1               	movwf	OLED_Printf_Line@str^(0+128)
  6467     0672                     l3149:
  6468     0672  3001               	movlw	1
  6469     0673  0020               	movlb	0	; select bank0
  6470     0674  00AA               	movwf	??_OLED_Printf_Line
  6471     0675  082A               	movf	??_OLED_Printf_Line,w
  6472     0676  0021               	movlb	1	; select bank1
  6473     0677  07C8               	addwf	OLED_Printf_Line@ap^(0+128),f
  6474                           
  6475                           ;OLED_SSD1306.c: 515:                     while (*str && (dst - buf) < 31) {
  6476     0678  2E8D               	goto	l3157
  6477     0679                     l3151:
  6478                           
  6479                           ;OLED_SSD1306.c: 516:                         *dst++ = *str++;
  6480     0679  084B               	movf	OLED_Printf_Line@dst^(0+128),w
  6481     067A  0086               	movwf	6
  6482     067B  0187               	clrf	7
  6483     067C  0831               	movf	OLED_Printf_Line@str^(0+128),w
  6484     067D  0084               	movwf	4
  6485     067E  0185               	clrf	5
  6486     067F  0800               	movf	0,w
  6487     0680  0081               	movwf	1
  6488     0681                     l3153:
  6489     0681  3001               	movlw	1
  6490     0682  0020               	movlb	0	; select bank0
  6491     0683  00AA               	movwf	??_OLED_Printf_Line
  6492     0684  082A               	movf	??_OLED_Printf_Line,w
  6493     0685  0021               	movlb	1	; select bank1
  6494     0686  07B1               	addwf	OLED_Printf_Line@str^(0+128),f
  6495     0687                     l3155:
  6496     0687  3001               	movlw	1
  6497     0688  0020               	movlb	0	; select bank0
  6498     0689  00AA               	movwf	??_OLED_Printf_Line
  6499     068A  082A               	movf	??_OLED_Printf_Line,w
  6500     068B  0021               	movlb	1	; select bank1
  6501     068C  07CB               	addwf	OLED_Printf_Line@dst^(0+128),f
  6502     068D                     l3157:
  6503                           
  6504                           ;OLED_SSD1306.c: 515:                     while (*str && (dst - buf) < 31) {
  6505     068D  0831               	movf	OLED_Printf_Line@str^(0+128),w
  6506     068E  0086               	movwf	6
  6507     068F  0187               	clrf	7
  6508     0690  0801               	movf	1,w
  6509     0691  1903               	btfsc	3,2
  6510     0692  2E94               	goto	u3681
  6511     0693  2E95               	goto	u3680
  6512     0694                     u3681:
  6513     0694  2EE9               	goto	l3181
  6514     0695                     u3680:
  6515     0695                     l3159:
  6516     0695  304C               	movlw	(low OLED_Printf_Line@buf)& (0+255)
  6517     0696  024B               	subwf	OLED_Printf_Line@dst^(0+128),w
  6518     0697  3A80               	xorlw	128
  6519     0698  3E61               	addlw	-159
  6520     0699  1C03               	skipc
  6521     069A  2E9C               	goto	u3691
  6522     069B  2E9D               	goto	u3690
  6523     069C                     u3691:
  6524     069C  2E79               	goto	l3151
  6525     069D                     u3690:
  6526     069D  2EE9               	goto	l3181
  6527     069E                     l3161:
  6528                           
  6529                           ;OLED_SSD1306.c: 521:                     *dst++ = (char)(*(int *)__va_arg(*(int **)ap, 
      +                          (int)0));
  6530     069E  084B               	movf	OLED_Printf_Line@dst^(0+128),w
  6531     069F  0086               	movwf	6
  6532     06A0  0187               	clrf	7
  6533     06A1  0848               	movf	OLED_Printf_Line@ap^(0+128),w
  6534     06A2  0084               	movwf	4
  6535     06A3  0185               	clrf	5
  6536     06A4  0800               	movf	0,w
  6537     06A5  0081               	movwf	1
  6538     06A6                     l3163:
  6539     06A6  3002               	movlw	2
  6540     06A7  0020               	movlb	0	; select bank0
  6541     06A8  00AA               	movwf	??_OLED_Printf_Line
  6542     06A9  082A               	movf	??_OLED_Printf_Line,w
  6543     06AA  0021               	movlb	1	; select bank1
  6544     06AB  07C8               	addwf	OLED_Printf_Line@ap^(0+128),f
  6545     06AC                     l3165:
  6546     06AC  3001               	movlw	1
  6547     06AD  0020               	movlb	0	; select bank0
  6548     06AE  00AA               	movwf	??_OLED_Printf_Line
  6549     06AF  082A               	movf	??_OLED_Printf_Line,w
  6550     06B0  0021               	movlb	1	; select bank1
  6551     06B1  07CB               	addwf	OLED_Printf_Line@dst^(0+128),f
  6552                           
  6553                           ;OLED_SSD1306.c: 522:                     break;
  6554     06B2  2EE9               	goto	l3181
  6555     06B3                     l3167:
  6556                           
  6557                           ;OLED_SSD1306.c: 525:                     *dst++ = '%';
  6558     06B3  084B               	movf	OLED_Printf_Line@dst^(0+128),w
  6559     06B4  0086               	movwf	6
  6560     06B5  0187               	clrf	7
  6561     06B6  3025               	movlw	37
  6562     06B7  0081               	movwf	1
  6563     06B8  2EAC               	goto	l3165
  6564     06B9                     l3171:
  6565                           
  6566                           ;OLED_SSD1306.c: 529:                     *dst++ = '%';
  6567     06B9  084B               	movf	OLED_Printf_Line@dst^(0+128),w
  6568     06BA  0086               	movwf	6
  6569     06BB  0187               	clrf	7
  6570     06BC  3025               	movlw	37
  6571     06BD  0081               	movwf	1
  6572     06BE                     l3173:
  6573     06BE  3001               	movlw	1
  6574     06BF  0020               	movlb	0	; select bank0
  6575     06C0  00AA               	movwf	??_OLED_Printf_Line
  6576     06C1  082A               	movf	??_OLED_Printf_Line,w
  6577     06C2  0021               	movlb	1	; select bank1
  6578     06C3  07CB               	addwf	OLED_Printf_Line@dst^(0+128),f
  6579     06C4                     l3175:
  6580                           
  6581                           ;OLED_SSD1306.c: 530:                     *dst++ = *src;
  6582     06C4  084B               	movf	OLED_Printf_Line@dst^(0+128),w
  6583     06C5  0086               	movwf	6
  6584     06C6  0187               	clrf	7
  6585     06C7  0849               	movf	OLED_Printf_Line@src^(0+128),w
  6586     06C8  0084               	movwf	4
  6587     06C9  084A               	movf	(OLED_Printf_Line@src+1)^(0+128),w
  6588     06CA  0085               	movwf	5
  6589     06CB  0800               	movf	0,w	;code access
  6590     06CC  0081               	movwf	1
  6591     06CD  2EAC               	goto	l3165
  6592     06CE                     l3179:
  6593     06CE  0849               	movf	OLED_Printf_Line@src^(0+128),w
  6594     06CF  0084               	movwf	4
  6595     06D0  084A               	movf	(OLED_Printf_Line@src+1)^(0+128),w
  6596     06D1  0085               	movwf	5
  6597     06D2  0800               	movf	0,w	;code access
  6598                           
  6599                           ; Switch size 1, requested type "simple"
  6600                           ; Number of cases is 7, Range of values is 37 to 120
  6601                           ; switch strategies available:
  6602                           ; Name         Instructions Cycles
  6603                           ; simple_byte           22    12 (average)
  6604                           ; direct_byte          177     9 (fixed)
  6605                           ; jumptable            263     9 (fixed)
  6606                           ;	Chosen strategy is simple_byte
  6607     06D3  3A25               	xorlw	37	; case 37
  6608     06D4  1903               	skipnz
  6609     06D5  2EB3               	goto	l3167
  6610     06D6  3A46               	xorlw	70	; case 99
  6611     06D7  1903               	skipnz
  6612     06D8  2E9E               	goto	l3161
  6613     06D9  3A07               	xorlw	7	; case 100
  6614     06DA  1903               	skipnz
  6615     06DB  2BFE               	goto	l2995
  6616     06DC  3A08               	xorlw	8	; case 108
  6617     06DD  1903               	skipnz
  6618     06DE  2C6C               	goto	l3025
  6619     06DF  3A1F               	xorlw	31	; case 115
  6620     06E0  1903               	skipnz
  6621     06E1  2E6D               	goto	l3147
  6622     06E2  3A06               	xorlw	6	; case 117
  6623     06E3  1903               	skipnz
  6624     06E4  2DB0               	goto	l3095
  6625     06E5  3A0D               	xorlw	13	; case 120
  6626     06E6  1903               	skipnz
  6627     06E7  2E0A               	goto	l3117
  6628     06E8  2EB9               	goto	l3171
  6629     06E9                     l3181:
  6630                           
  6631                           ;OLED_SSD1306.c: 532:             src++;
  6632     06E9  3001               	movlw	1
  6633     06EA  07C9               	addwf	OLED_Printf_Line@src^(0+128),f
  6634     06EB  3000               	movlw	0
  6635     06EC  3DCA               	addwfc	(OLED_Printf_Line@src+1)^(0+128),f
  6636                           
  6637                           ;OLED_SSD1306.c: 533:         } else {
  6638     06ED  2F01               	goto	l3189
  6639     06EE                     l3183:
  6640                           
  6641                           ;OLED_SSD1306.c: 534:             *dst++ = *src++;
  6642     06EE  084B               	movf	OLED_Printf_Line@dst^(0+128),w
  6643     06EF  0086               	movwf	6
  6644     06F0  0187               	clrf	7
  6645     06F1  0849               	movf	OLED_Printf_Line@src^(0+128),w
  6646     06F2  0084               	movwf	4
  6647     06F3  084A               	movf	(OLED_Printf_Line@src+1)^(0+128),w
  6648     06F4  0085               	movwf	5
  6649     06F5  0800               	movf	0,w	;code access
  6650     06F6  0081               	movwf	1
  6651     06F7                     l3185:
  6652     06F7  3001               	movlw	1
  6653     06F8  07C9               	addwf	OLED_Printf_Line@src^(0+128),f
  6654     06F9  3000               	movlw	0
  6655     06FA  3DCA               	addwfc	(OLED_Printf_Line@src+1)^(0+128),f
  6656     06FB                     l3187:
  6657     06FB  3001               	movlw	1
  6658     06FC  0020               	movlb	0	; select bank0
  6659     06FD  00AA               	movwf	??_OLED_Printf_Line
  6660     06FE  082A               	movf	??_OLED_Printf_Line,w
  6661     06FF  0021               	movlb	1	; select bank1
  6662     0700  07CB               	addwf	OLED_Printf_Line@dst^(0+128),f
  6663     0701                     l3189:
  6664                           
  6665                           ;OLED_SSD1306.c: 437:     while (*src && (dst - buf) < 31) {
  6666     0701  0849               	movf	OLED_Printf_Line@src^(0+128),w
  6667     0702  0084               	movwf	4
  6668     0703  084A               	movf	(OLED_Printf_Line@src+1)^(0+128),w
  6669     0704  0085               	movwf	5
  6670     0705  0012               	moviw fsr0++
  6671     0706  1903               	btfsc	3,2
  6672     0707  2F09               	goto	u3701
  6673     0708  2F0A               	goto	u3700
  6674     0709                     u3701:
  6675     0709  2F12               	goto	l3193
  6676     070A                     u3700:
  6677     070A                     l3191:
  6678     070A  304C               	movlw	(low OLED_Printf_Line@buf)& (0+255)
  6679     070B  024B               	subwf	OLED_Printf_Line@dst^(0+128),w
  6680     070C  3A80               	xorlw	128
  6681     070D  3E61               	addlw	-159
  6682     070E  1C03               	skipc
  6683     070F  2F11               	goto	u3711
  6684     0710  2F12               	goto	u3710
  6685     0711                     u3711:
  6686     0711  2BEF               	goto	l2991
  6687     0712                     u3710:
  6688     0712                     l3193:
  6689                           
  6690                           ;OLED_SSD1306.c: 537:     *dst = '\0';
  6691     0712  084B               	movf	OLED_Printf_Line@dst^(0+128),w
  6692     0713  0086               	movwf	6
  6693     0714  0187               	clrf	7
  6694     0715  0181               	clrf	1
  6695     0716                     l3195:
  6696                           
  6697                           ;OLED_SSD1306.c: 541:     if (strcmp(buf, last_text[line]) == 0) return;
  6698     0716  0847               	movf	OLED_Printf_Line@line^(0+128),w
  6699     0717  0020               	movlb	0	; select bank0
  6700     0718  00AA               	movwf	??_OLED_Printf_Line
  6701     0719  01AB               	clrf	??_OLED_Printf_Line+1
  6702     071A  3005               	movlw	5
  6703     071B                     u3725:
  6704     071B  35AA               	lslf	??_OLED_Printf_Line,f
  6705     071C  0DAB               	rlf	??_OLED_Printf_Line+1,f
  6706     071D  0B89               	decfsz	9,f
  6707     071E  2F1B               	goto	u3725
  6708     071F  30F0               	movlw	240
  6709     0720  00AC               	movwf	??_OLED_Printf_Line+2
  6710     0721  3026               	movlw	38
  6711     0722  00AD               	movwf	??_OLED_Printf_Line+3
  6712     0723  082A               	movf	??_OLED_Printf_Line,w
  6713     0724  072C               	addwf	??_OLED_Printf_Line+2,w
  6714     0725  00AE               	movwf	??_OLED_Printf_Line+4
  6715     0726  082B               	movf	??_OLED_Printf_Line+1,w
  6716     0727  3D2D               	addwfc	??_OLED_Printf_Line+3,w
  6717     0728  00AF               	movwf	??_OLED_Printf_Line+5
  6718     0729  082E               	movf	??_OLED_Printf_Line+4,w
  6719     072A  00F0               	movwf	strcmp@r
  6720     072B  082F               	movf	??_OLED_Printf_Line+5,w
  6721     072C  00F1               	movwf	strcmp@r+1
  6722     072D  304C               	movlw	(low (OLED_Printf_Line@buf| 0))& (0+255)
  6723     072E  3195  2517  3183   	fcall	_strcmp
  6724     0731  0870               	movf	?_strcmp,w
  6725     0732  0471               	iorwf	?_strcmp+1,w
  6726     0733  1D03               	btfss	3,2
  6727     0734  2F36               	goto	u3731
  6728     0735  2F37               	goto	u3730
  6729     0736                     u3731:
  6730     0736  2F38               	goto	l3199
  6731     0737                     u3730:
  6732     0737  2FF1               	goto	l166
  6733     0738                     l3199:
  6734                           
  6735                           ;OLED_SSD1306.c: 542:     strcpy(last_text[line], buf);
  6736     0738  0021               	movlb	1	; select bank1
  6737     0739  0847               	movf	OLED_Printf_Line@line^(0+128),w
  6738     073A  0020               	movlb	0	; select bank0
  6739     073B  00AA               	movwf	??_OLED_Printf_Line
  6740     073C  01AB               	clrf	??_OLED_Printf_Line+1
  6741     073D  3005               	movlw	5
  6742     073E                     u3745:
  6743     073E  35AA               	lslf	??_OLED_Printf_Line,f
  6744     073F  0DAB               	rlf	??_OLED_Printf_Line+1,f
  6745     0740  0B89               	decfsz	9,f
  6746     0741  2F3E               	goto	u3745
  6747     0742  30F0               	movlw	240
  6748     0743  00AC               	movwf	??_OLED_Printf_Line+2
  6749     0744  3026               	movlw	38
  6750     0745  00AD               	movwf	??_OLED_Printf_Line+3
  6751     0746  082A               	movf	??_OLED_Printf_Line,w
  6752     0747  072C               	addwf	??_OLED_Printf_Line+2,w
  6753     0748  00F0               	movwf	strcpy@dest
  6754     0749  082B               	movf	??_OLED_Printf_Line+1,w
  6755     074A  3D2D               	addwfc	??_OLED_Printf_Line+3,w
  6756     074B  00F1               	movwf	strcpy@dest+1
  6757     074C  304C               	movlw	(low (OLED_Printf_Line@buf| 0))& (0+255)
  6758     074D  00F2               	movwf	strcpy@src
  6759     074E  3193  23E5  3183   	fcall	_strcpy
  6760     0751                     l3201:
  6761                           
  6762                           ;OLED_SSD1306.c: 545:     memset(screen_buffer[line], 0, 128);
  6763     0751  0021               	movlb	1	; select bank1
  6764     0752  0847               	movf	OLED_Printf_Line@line^(0+128),w
  6765     0753  0020               	movlb	0	; select bank0
  6766     0754  00AA               	movwf	??_OLED_Printf_Line
  6767     0755  01AB               	clrf	??_OLED_Printf_Line+1
  6768     0756  3007               	movlw	7
  6769     0757                     u3755:
  6770     0757  35AA               	lslf	??_OLED_Printf_Line,f
  6771     0758  0DAB               	rlf	??_OLED_Printf_Line+1,f
  6772     0759  0B89               	decfsz	9,f
  6773     075A  2F57               	goto	u3755
  6774     075B  30F0               	movlw	240
  6775     075C  00AC               	movwf	??_OLED_Printf_Line+2
  6776     075D  3024               	movlw	36
  6777     075E  00AD               	movwf	??_OLED_Printf_Line+3
  6778     075F  082A               	movf	??_OLED_Printf_Line,w
  6779     0760  072C               	addwf	??_OLED_Printf_Line+2,w
  6780     0761  00F0               	movwf	memset@dest
  6781     0762  082B               	movf	??_OLED_Printf_Line+1,w
  6782     0763  3D2D               	addwfc	??_OLED_Printf_Line+3,w
  6783     0764  00F1               	movwf	memset@dest+1
  6784     0765  3000               	movlw	0
  6785     0766  00F2               	movwf	memset@c
  6786     0767  00F3               	movwf	memset@c+1
  6787     0768  3080               	movlw	128
  6788     0769  00F4               	movwf	memset@n
  6789     076A  3000               	movlw	0
  6790     076B  00F5               	movwf	memset@n+1
  6791     076C  3194  2400  3183   	fcall	_memset
  6792     076F                     l3203:
  6793                           
  6794                           ;OLED_SSD1306.c: 548:     uint8_t col = 0;
  6795     076F  0021               	movlb	1	; select bank1
  6796     0770  01B2               	clrf	OLED_Printf_Line@col^(0+128)
  6797     0771                     l3205:
  6798                           
  6799                           ;OLED_SSD1306.c: 549:     for (const char* p = buf; *p && (col + 8) <= 128; ++p)
  6800     0771  304C               	movlw	(low (OLED_Printf_Line@buf| 0))& (0+255)
  6801     0772  00B3               	movwf	OLED_Printf_Line@p^(0+128)
  6802     0773  2FCF               	goto	l3221
  6803     0774                     l3207:
  6804                           
  6805                           ;OLED_SSD1306.c: 550:     {;OLED_SSD1306.c: 551:         char ch = *p;
  6806     0774  0021               	movlb	1	; select bank1
  6807     0775  0833               	movf	OLED_Printf_Line@p^(0+128),w
  6808     0776  0086               	movwf	6
  6809     0777  0187               	clrf	7
  6810     0778  0801               	movf	1,w
  6811     0779  00BB               	movwf	OLED_Printf_Line@ch^(0+128)
  6812     077A                     l3209:
  6813                           
  6814                           ;OLED_SSD1306.c: 552:         if (ch < 32 || ch > 127) ch = ' ';
  6815     077A  3020               	movlw	32
  6816     077B  023B               	subwf	OLED_Printf_Line@ch^(0+128),w
  6817     077C  1C03               	skipc
  6818     077D  2F7F               	goto	u3761
  6819     077E  2F80               	goto	u3760
  6820     077F                     u3761:
  6821     077F  2F86               	goto	l3213
  6822     0780                     u3760:
  6823     0780                     l3211:
  6824     0780  3080               	movlw	128
  6825     0781  023B               	subwf	OLED_Printf_Line@ch^(0+128),w
  6826     0782  1C03               	skipc
  6827     0783  2F85               	goto	u3771
  6828     0784  2F86               	goto	u3770
  6829     0785                     u3771:
  6830     0785  2F88               	goto	l3215
  6831     0786                     u3770:
  6832     0786                     l3213:
  6833     0786  3020               	movlw	32
  6834     0787  00BB               	movwf	OLED_Printf_Line@ch^(0+128)
  6835     0788                     l3215:
  6836                           
  6837                           ;OLED_SSD1306.c: 554:         memcpy(&screen_buffer[line][col], &OledFont[(uint8_t)(ch -
      +                           32)][0], 8);
  6838     0788  0832               	movf	OLED_Printf_Line@col^(0+128),w
  6839     0789  0020               	movlb	0	; select bank0
  6840     078A  00AA               	movwf	??_OLED_Printf_Line
  6841     078B  01AB               	clrf	??_OLED_Printf_Line+1
  6842     078C  0021               	movlb	1	; select bank1
  6843     078D  0847               	movf	OLED_Printf_Line@line^(0+128),w
  6844     078E  0020               	movlb	0	; select bank0
  6845     078F  00AC               	movwf	??_OLED_Printf_Line+2
  6846     0790  01AD               	clrf	??_OLED_Printf_Line+3
  6847     0791  3007               	movlw	7
  6848     0792                     u3785:
  6849     0792  35AC               	lslf	??_OLED_Printf_Line+2,f
  6850     0793  0DAD               	rlf	??_OLED_Printf_Line+3,f
  6851     0794  0B89               	decfsz	9,f
  6852     0795  2F92               	goto	u3785
  6853     0796  30F0               	movlw	240
  6854     0797  00AE               	movwf	??_OLED_Printf_Line+4
  6855     0798  3024               	movlw	36
  6856     0799  00AF               	movwf	??_OLED_Printf_Line+5
  6857     079A  082C               	movf	??_OLED_Printf_Line+2,w
  6858     079B  072E               	addwf	??_OLED_Printf_Line+4,w
  6859     079C  00B0               	movwf	??_OLED_Printf_Line+6
  6860     079D  082D               	movf	??_OLED_Printf_Line+3,w
  6861     079E  3D2F               	addwfc	??_OLED_Printf_Line+5,w
  6862     079F  00B1               	movwf	??_OLED_Printf_Line+7
  6863     07A0  082A               	movf	??_OLED_Printf_Line,w
  6864     07A1  0730               	addwf	??_OLED_Printf_Line+6,w
  6865     07A2  00F0               	movwf	memcpy@d1
  6866     07A3  082B               	movf	??_OLED_Printf_Line+1,w
  6867     07A4  3D31               	addwfc	??_OLED_Printf_Line+7,w
  6868     07A5  00F1               	movwf	memcpy@d1+1
  6869     07A6  0021               	movlb	1	; select bank1
  6870     07A7  083B               	movf	OLED_Printf_Line@ch^(0+128),w
  6871     07A8  3EE0               	addlw	224
  6872     07A9  0020               	movlb	0	; select bank0
  6873     07AA  00B2               	movwf	??_OLED_Printf_Line+8
  6874     07AB  01B3               	clrf	??_OLED_Printf_Line+9
  6875     07AC  35B2               	lslf	??_OLED_Printf_Line+8,f
  6876     07AD  0DB3               	rlf	??_OLED_Printf_Line+9,f
  6877     07AE  35B2               	lslf	??_OLED_Printf_Line+8,f
  6878     07AF  0DB3               	rlf	??_OLED_Printf_Line+9,f
  6879     07B0  35B2               	lslf	??_OLED_Printf_Line+8,f
  6880     07B1  0DB3               	rlf	??_OLED_Printf_Line+9,f
  6881     07B2  3000               	movlw	low (_OledFont| (0+32768))
  6882     07B3  00B4               	movwf	??_OLED_Printf_Line+10
  6883     07B4  3088               	movlw	high (_OledFont| (0+32768))
  6884     07B5  00B5               	movwf	??_OLED_Printf_Line+11
  6885     07B6  0832               	movf	??_OLED_Printf_Line+8,w
  6886     07B7  0734               	addwf	??_OLED_Printf_Line+10,w
  6887     07B8  00F2               	movwf	memcpy@s1
  6888     07B9  0833               	movf	??_OLED_Printf_Line+9,w
  6889     07BA  3D35               	addwfc	??_OLED_Printf_Line+11,w
  6890     07BB  00F3               	movwf	memcpy@s1+1
  6891     07BC  3008               	movlw	8
  6892     07BD  00F4               	movwf	memcpy@n
  6893     07BE  3000               	movlw	0
  6894     07BF  00F5               	movwf	memcpy@n+1
  6895     07C0  318B  230C  3183   	fcall	_memcpy
  6896     07C3                     l3217:
  6897                           
  6898                           ;OLED_SSD1306.c: 555:         col += 8;
  6899     07C3  3008               	movlw	8
  6900     07C4  0020               	movlb	0	; select bank0
  6901     07C5  00AA               	movwf	??_OLED_Printf_Line
  6902     07C6  082A               	movf	??_OLED_Printf_Line,w
  6903     07C7  0021               	movlb	1	; select bank1
  6904     07C8  07B2               	addwf	OLED_Printf_Line@col^(0+128),f
  6905     07C9                     l3219:
  6906                           
  6907                           ;OLED_SSD1306.c: 556:     }
  6908     07C9  3001               	movlw	1
  6909     07CA  0020               	movlb	0	; select bank0
  6910     07CB  00AA               	movwf	??_OLED_Printf_Line
  6911     07CC  082A               	movf	??_OLED_Printf_Line,w
  6912     07CD  0021               	movlb	1	; select bank1
  6913     07CE  07B3               	addwf	OLED_Printf_Line@p^(0+128),f
  6914     07CF                     l3221:
  6915     07CF  0833               	movf	OLED_Printf_Line@p^(0+128),w
  6916     07D0  0086               	movwf	6
  6917     07D1  0187               	clrf	7
  6918     07D2  0801               	movf	1,w
  6919     07D3  1903               	btfsc	3,2
  6920     07D4  2FD6               	goto	u3791
  6921     07D5  2FD7               	goto	u3790
  6922     07D6                     u3791:
  6923     07D6  2FEC               	goto	l3225
  6924     07D7                     u3790:
  6925     07D7                     l3223:
  6926     07D7  0832               	movf	OLED_Printf_Line@col^(0+128),w
  6927     07D8  3E08               	addlw	8
  6928     07D9  0020               	movlb	0	; select bank0
  6929     07DA  00AA               	movwf	??_OLED_Printf_Line
  6930     07DB  3000               	movlw	0
  6931     07DC  1803               	skipnc
  6932     07DD  3001               	movlw	1
  6933     07DE  00AB               	movwf	??_OLED_Printf_Line+1
  6934     07DF  082B               	movf	??_OLED_Printf_Line+1,w
  6935     07E0  3A80               	xorlw	128
  6936     07E1  00AC               	movwf	??_OLED_Printf_Line+2
  6937     07E2  3080               	movlw	128
  6938     07E3  022C               	subwf	??_OLED_Printf_Line+2,w
  6939     07E4  1D03               	skipz
  6940     07E5  2FE8               	goto	u3805
  6941     07E6  3081               	movlw	129
  6942     07E7  022A               	subwf	??_OLED_Printf_Line,w
  6943     07E8                     u3805:
  6944     07E8  1C03               	skipc
  6945     07E9  2FEB               	goto	u3801
  6946     07EA  2FEC               	goto	u3800
  6947     07EB                     u3801:
  6948     07EB  2F74               	goto	l3207
  6949     07EC                     u3800:
  6950     07EC                     l3225:
  6951                           
  6952                           ;OLED_SSD1306.c: 558:     OLED_UpdateLine(line);
  6953     07EC  0021               	movlb	1	; select bank1
  6954     07ED  0847               	movf	OLED_Printf_Line@line^(0+128),w
  6955     07EE  3194  24EB  3183   	fcall	_OLED_UpdateLine
  6956     07F1                     l166:
  6957     07F1  0008               	return
  6958     07F2                     __end_of_OLED_Printf_Line:
  6959                           
  6960                           	psect	text11
  6961     13E5                     __ptext11:	
  6962 ;; *************** function _strcpy *****************
  6963 ;; Defined at:
  6964 ;;		line 3 in file "C:\Program Files\Microchip\xc8\v2.46\pic\sources\c99\common\strcpy.c"
  6965 ;; Parameters:    Size  Location     Type
  6966 ;;  dest            2    0[COMMON] PTR unsigned char 
  6967 ;;		 -> OLED_Printf_Line@last_text(256), 
  6968 ;;  src             1    2[COMMON] PTR const unsigned char 
  6969 ;;		 -> OLED_Printf_Line@buf(32), 
  6970 ;; Auto vars:     Size  Location     Type
  6971 ;;  d               2    5[COMMON] PTR unsigned char 
  6972 ;;		 -> OLED_Printf_Line@last_text(256), 
  6973 ;; Return value:  Size  Location     Type
  6974 ;;                  2    0[COMMON] PTR unsigned char 
  6975 ;; Registers used:
  6976 ;;		wreg, fsr0l, fsr0h, fsr1l, fsr1h, status,2, status,0
  6977 ;; Tracked objects:
  6978 ;;		On entry : 0/0
  6979 ;;		On exit  : 0/0
  6980 ;;		Unchanged: 0/0
  6981 ;; Data sizes:     COMMON   BANK0   BANK1   BANK2   BANK3   BANK4   BANK5   BANK6   BANK7   BANK8   BANK9  BANK10  BANK1
      +1  BANK12  BANK13  BANK14  BANK15  BANK16  BANK17  BANK18  BANK19  BANK20  BANK21  BANK22  BANK23  BANK24  BANK25
  6982 ;;      Params:         3       0       0       0       0       0       0       0       0       0       0       0       
      +0       0       0       0       0       0       0       0       0       0       0       0       0       0       0
  6983 ;;      Locals:         2       0       0       0       0       0       0       0       0       0       0       0       
      +0       0       0       0       0       0       0       0       0       0       0       0       0       0       0
  6984 ;;      Temps:          2       0       0       0       0       0       0       0       0       0       0       0       
      +0       0       0       0       0       0       0       0       0       0       0       0       0       0       0
  6985 ;;      Totals:         7       0       0       0       0       0       0       0       0       0       0       0       
      +0       0       0       0       0       0       0       0       0       0       0       0       0       0       0
  6986 ;;Total ram usage:        7 bytes
  6987 ;; Hardware stack levels used: 1
  6988 ;; This function calls:
  6989 ;;		Nothing
  6990 ;; This function is called by:
  6991 ;;		_OLED_Printf_Line
  6992 ;; This function uses a non-reentrant model
  6993 ;;
  6994                           
  6995     13E5                     _strcpy:	
  6996                           ;psect for function _strcpy
  6997                           
  6998     13E5                     l2613:	
  6999                           ;incstack = 0
  7000                           ; Regs used in _strcpy: [wreg-fsr1h+status,2+status,0]
  7001                           
  7002     13E5  0871               	movf	strcpy@dest+1,w
  7003     13E6  00F6               	movwf	strcpy@d+1
  7004     13E7  0870               	movf	strcpy@dest,w
  7005     13E8  00F5               	movwf	strcpy@d
  7006     13E9                     l2615:
  7007     13E9  0876               	movf	strcpy@d+1,w
  7008     13EA  00F4               	movwf	??_strcpy+1
  7009     13EB  0875               	movf	strcpy@d,w
  7010     13EC  00F3               	movwf	??_strcpy
  7011     13ED  0AF5               	incf	strcpy@d,f
  7012     13EE  1903               	skipnz
  7013     13EF  0AF6               	incf	strcpy@d+1,f
  7014     13F0  0873               	movf	??_strcpy,w
  7015     13F1  0086               	movwf	6
  7016     13F2  0874               	movf	??_strcpy+1,w
  7017     13F3  0087               	movwf	7
  7018     13F4  0872               	movf	strcpy@src,w
  7019     13F5  0084               	movwf	4
  7020     13F6  0185               	clrf	5
  7021     13F7  0AF2               	incf	strcpy@src,f
  7022     13F8  0800               	movf	0,w
  7023     13F9  3FC0               	movwi [0]fsr1
  7024     13FA  0889               	movf	9,f
  7025     13FB  1D03               	btfss	3,2
  7026     13FC  2BFE               	goto	u2761
  7027     13FD  2BFF               	goto	u2760
  7028     13FE                     u2761:
  7029     13FE  2BE9               	goto	l2615
  7030     13FF                     u2760:
  7031     13FF                     l937:
  7032     13FF  0008               	return
  7033     1400                     __end_of_strcpy:
  7034                           
  7035                           	psect	text12
  7036     1517                     __ptext12:	
  7037 ;; *************** function _strcmp *****************
  7038 ;; Defined at:
  7039 ;;		line 3 in file "C:\Program Files\Microchip\xc8\v2.46\pic\sources\c99\common\strcmp.c"
  7040 ;; Parameters:    Size  Location     Type
  7041 ;;  l               1    wreg     PTR const unsigned char 
  7042 ;;		 -> OLED_Printf_Line@buf(32), 
  7043 ;;  r               2    0[COMMON] PTR const unsigned char 
  7044 ;;		 -> OLED_Printf_Line@last_text(256), 
  7045 ;; Auto vars:     Size  Location     Type
  7046 ;;  l               1    3[COMMON] PTR const unsigned char 
  7047 ;;		 -> OLED_Printf_Line@buf(32), 
  7048 ;; Return value:  Size  Location     Type
  7049 ;;                  2    0[COMMON] int 
  7050 ;; Registers used:
  7051 ;;		wreg, fsr0l, fsr0h, fsr1l, fsr1h, status,2, status,0
  7052 ;; Tracked objects:
  7053 ;;		On entry : 0/0
  7054 ;;		On exit  : 0/0
  7055 ;;		Unchanged: 0/0
  7056 ;; Data sizes:     COMMON   BANK0   BANK1   BANK2   BANK3   BANK4   BANK5   BANK6   BANK7   BANK8   BANK9  BANK10  BANK1
      +1  BANK12  BANK13  BANK14  BANK15  BANK16  BANK17  BANK18  BANK19  BANK20  BANK21  BANK22  BANK23  BANK24  BANK25
  7057 ;;      Params:         2       0       0       0       0       0       0       0       0       0       0       0       
      +0       0       0       0       0       0       0       0       0       0       0       0       0       0       0
  7058 ;;      Locals:         1       0       0       0       0       0       0       0       0       0       0       0       
      +0       0       0       0       0       0       0       0       0       0       0       0       0       0       0
  7059 ;;      Temps:          1       0       0       0       0       0       0       0       0       0       0       0       
      +0       0       0       0       0       0       0       0       0       0       0       0       0       0       0
  7060 ;;      Totals:         4       0       0       0       0       0       0       0       0       0       0       0       
      +0       0       0       0       0       0       0       0       0       0       0       0       0       0       0
  7061 ;;Total ram usage:        4 bytes
  7062 ;; Hardware stack levels used: 1
  7063 ;; This function calls:
  7064 ;;		Nothing
  7065 ;; This function is called by:
  7066 ;;		_OLED_Printf_Line
  7067 ;; This function uses a non-reentrant model
  7068 ;;
  7069                           
  7070     1517                     _strcmp:	
  7071                           ;psect for function _strcmp
  7072                           
  7073                           
  7074                           ;incstack = 0
  7075                           ; Regs used in _strcmp: [wreg-fsr1h+status,2+status,0]
  7076                           ;strcmp@l stored from wreg
  7077     1517  00F3               	movwf	strcmp@l
  7078     1518                     l2601:
  7079     1518  2D21               	goto	l2605
  7080     1519                     l2603:
  7081     1519  3001               	movlw	1
  7082     151A  00F2               	movwf	??_strcmp
  7083     151B  0872               	movf	??_strcmp,w
  7084     151C  07F3               	addwf	strcmp@l,f
  7085     151D  3001               	movlw	1
  7086     151E  07F0               	addwf	strcmp@r,f
  7087     151F  3000               	movlw	0
  7088     1520  3DF1               	addwfc	strcmp@r+1,f
  7089     1521                     l2605:
  7090     1521  0870               	movf	strcmp@r,w
  7091     1522  0086               	movwf	6
  7092     1523  0871               	movf	strcmp@r+1,w
  7093     1524  0087               	movwf	7
  7094     1525  0873               	movf	strcmp@l,w
  7095     1526  0084               	movwf	4
  7096     1527  0185               	clrf	5
  7097     1528  0800               	movf	0,w
  7098     1529  0601               	xorwf	1,w
  7099     152A  1D03               	skipz
  7100     152B  2D2D               	goto	u2741
  7101     152C  2D2E               	goto	u2740
  7102     152D                     u2741:
  7103     152D  2D36               	goto	l2609
  7104     152E                     u2740:
  7105     152E                     l2607:
  7106     152E  0873               	movf	strcmp@l,w
  7107     152F  0086               	movwf	6
  7108     1530  0187               	clrf	7
  7109     1531  0801               	movf	1,w
  7110     1532  1D03               	btfss	3,2
  7111     1533  2D35               	goto	u2751
  7112     1534  2D36               	goto	u2750
  7113     1535                     u2751:
  7114     1535  2D19               	goto	l2603
  7115     1536                     u2750:
  7116     1536                     l2609:
  7117     1536  0873               	movf	strcmp@l,w
  7118     1537  0086               	movwf	6
  7119     1538  0187               	clrf	7
  7120     1539  0870               	movf	strcmp@r,w
  7121     153A  0084               	movwf	4
  7122     153B  0871               	movf	strcmp@r+1,w
  7123     153C  0085               	movwf	5
  7124     153D  0800               	movf	0,w
  7125     153E  0201               	subwf	1,w
  7126     153F  00F0               	movwf	?_strcmp
  7127     1540  01F1               	clrf	?_strcmp+1
  7128     1541  1C03               	skipc
  7129     1542  03F1               	decf	?_strcmp+1,f
  7130     1543                     l931:
  7131     1543  0008               	return
  7132     1544                     __end_of_strcmp:
  7133                           
  7134                           	psect	text13
  7135     0B0C                     __ptext13:	
  7136 ;; *************** function _memcpy *****************
  7137 ;; Defined at:
  7138 ;;		line 4 in file "C:\Program Files\Microchip\xc8\v2.46\pic\sources\c99\common\memcpy.c"
  7139 ;; Parameters:    Size  Location     Type
  7140 ;;  d1              2    0[COMMON] PTR void 
  7141 ;;		 -> screen_buffer(512), 
  7142 ;;  s1              2    2[COMMON] PTR const void 
  7143 ;;		 -> OledFont(768), 
  7144 ;;  n               2    4[COMMON] unsigned int 
  7145 ;; Auto vars:     Size  Location     Type
  7146 ;;  s               2    8[COMMON] PTR const unsigned char 
  7147 ;;		 -> OledFont(768), 
  7148 ;;  d               2    6[COMMON] PTR unsigned char 
  7149 ;;		 -> screen_buffer(512), 
  7150 ;;  tmp             1   10[COMMON] unsigned char 
  7151 ;; Return value:  Size  Location     Type
  7152 ;;                  2    0[COMMON] PTR void 
  7153 ;; Registers used:
  7154 ;;		wreg, fsr0l, fsr0h, fsr1l, fsr1h, status,2, status,0, pclath
  7155 ;; Tracked objects:
  7156 ;;		On entry : 0/0
  7157 ;;		On exit  : 0/0
  7158 ;;		Unchanged: 0/0
  7159 ;; Data sizes:     COMMON   BANK0   BANK1   BANK2   BANK3   BANK4   BANK5   BANK6   BANK7   BANK8   BANK9  BANK10  BANK1
      +1  BANK12  BANK13  BANK14  BANK15  BANK16  BANK17  BANK18  BANK19  BANK20  BANK21  BANK22  BANK23  BANK24  BANK25
  7160 ;;      Params:         6       0       0       0       0       0       0       0       0       0       0       0       
      +0       0       0       0       0       0       0       0       0       0       0       0       0       0       0
  7161 ;;      Locals:         5       0       0       0       0       0       0       0       0       0       0       0       
      +0       0       0       0       0       0       0       0       0       0       0       0       0       0       0
  7162 ;;      Temps:          0       0       0       0       0       0       0       0       0       0       0       0       
      +0       0       0       0       0       0       0       0       0       0       0       0       0       0       0
  7163 ;;      Totals:        11       0       0       0       0       0       0       0       0       0       0       0       
      +0       0       0       0       0       0       0       0       0       0       0       0       0       0       0
  7164 ;;Total ram usage:       11 bytes
  7165 ;; Hardware stack levels used: 1
  7166 ;; This function calls:
  7167 ;;		Nothing
  7168 ;; This function is called by:
  7169 ;;		_OLED_Printf_Line
  7170 ;; This function uses a non-reentrant model
  7171 ;;
  7172                           
  7173     0B0C                     _memcpy:	
  7174                           ;psect for function _memcpy
  7175                           
  7176     0B0C                     l2617:	
  7177                           ;incstack = 0
  7178                           ; Regs used in _memcpy: [wreg-fsr1h+status,2+status,0+pclath]
  7179                           
  7180     0B0C  0873               	movf	memcpy@s1+1,w
  7181     0B0D  00F9               	movwf	memcpy@s+1
  7182     0B0E  0872               	movf	memcpy@s1,w
  7183     0B0F  00F8               	movwf	memcpy@s
  7184     0B10  0871               	movf	memcpy@d1+1,w
  7185     0B11  00F7               	movwf	memcpy@d+1
  7186     0B12  0870               	movf	memcpy@d1,w
  7187     0B13  00F6               	movwf	memcpy@d
  7188     0B14  2B29               	goto	l2627
  7189     0B15                     l2619:
  7190     0B15  0878               	movf	memcpy@s,w
  7191     0B16  0084               	movwf	4
  7192     0B17  0879               	movf	memcpy@s+1,w
  7193     0B18  0085               	movwf	5
  7194     0B19  0800               	movf	0,w	;code access
  7195     0B1A  00FA               	movwf	memcpy@tmp
  7196     0B1B                     l2621:
  7197     0B1B  3001               	movlw	1
  7198     0B1C  07F8               	addwf	memcpy@s,f
  7199     0B1D  3000               	movlw	0
  7200     0B1E  3DF9               	addwfc	memcpy@s+1,f
  7201     0B1F                     l2623:
  7202     0B1F  0876               	movf	memcpy@d,w
  7203     0B20  0086               	movwf	6
  7204     0B21  0877               	movf	memcpy@d+1,w
  7205     0B22  0087               	movwf	7
  7206     0B23  087A               	movf	memcpy@tmp,w
  7207     0B24  0081               	movwf	1
  7208     0B25                     l2625:
  7209     0B25  3001               	movlw	1
  7210     0B26  07F6               	addwf	memcpy@d,f
  7211     0B27  3000               	movlw	0
  7212     0B28  3DF7               	addwfc	memcpy@d+1,f
  7213     0B29                     l2627:
  7214     0B29  3001               	movlw	1
  7215     0B2A  02F4               	subwf	memcpy@n,f
  7216     0B2B  3000               	movlw	0
  7217     0B2C  3BF5               	subwfb	memcpy@n+1,f
  7218     0B2D  0A74               	incf	memcpy@n,w
  7219     0B2E  1D03               	skipz
  7220     0B2F  2B34               	goto	u2771
  7221     0B30  0A75               	incf	memcpy@n+1,w
  7222     0B31  1D03               	btfss	3,2
  7223     0B32  2B34               	goto	u2771
  7224     0B33  2B35               	goto	u2770
  7225     0B34                     u2771:
  7226     0B34  2B15               	goto	l2619
  7227     0B35                     u2770:
  7228     0B35                     l917:
  7229     0B35  0008               	return
  7230     0B36                     __end_of_memcpy:
  7231                           
  7232                           	psect	text14
  7233     0004                     __ptext14:	
  7234 ;; *************** function ___lwmod *****************
  7235 ;; Defined at:
  7236 ;;		line 5 in file "C:\Program Files\Microchip\xc8\v2.46\pic\sources\c99\common\lwmod.c"
  7237 ;; Parameters:    Size  Location     Type
  7238 ;;  divisor         2    0[COMMON] unsigned int 
  7239 ;;  dividend        2    2[COMMON] unsigned int 
  7240 ;; Auto vars:     Size  Location     Type
  7241 ;;  counter         1    5[COMMON] unsigned char 
  7242 ;; Return value:  Size  Location     Type
  7243 ;;                  2    0[COMMON] unsigned int 
  7244 ;; Registers used:
  7245 ;;		wreg, status,2, status,0
  7246 ;; Tracked objects:
  7247 ;;		On entry : 0/0
  7248 ;;		On exit  : 0/0
  7249 ;;		Unchanged: 0/0
  7250 ;; Data sizes:     COMMON   BANK0   BANK1   BANK2   BANK3   BANK4   BANK5   BANK6   BANK7   BANK8   BANK9  BANK10  BANK1
      +1  BANK12  BANK13  BANK14  BANK15  BANK16  BANK17  BANK18  BANK19  BANK20  BANK21  BANK22  BANK23  BANK24  BANK25
  7251 ;;      Params:         4       0       0       0       0       0       0       0       0       0       0       0       
      +0       0       0       0       0       0       0       0       0       0       0       0       0       0       0
  7252 ;;      Locals:         1       0       0       0       0       0       0       0       0       0       0       0       
      +0       0       0       0       0       0       0       0       0       0       0       0       0       0       0
  7253 ;;      Temps:          1       0       0       0       0       0       0       0       0       0       0       0       
      +0       0       0       0       0       0       0       0       0       0       0       0       0       0       0
  7254 ;;      Totals:         6       0       0       0       0       0       0       0       0       0       0       0       
      +0       0       0       0       0       0       0       0       0       0       0       0       0       0       0
  7255 ;;Total ram usage:        6 bytes
  7256 ;; Hardware stack levels used: 1
  7257 ;; This function calls:
  7258 ;;		Nothing
  7259 ;; This function is called by:
  7260 ;;		_OLED_Printf_Line
  7261 ;; This function uses a non-reentrant model
  7262 ;;
  7263                           
  7264     0004                     ___lwmod:	
  7265                           ;psect for function ___lwmod
  7266                           
  7267     0004                     l2865:	
  7268                           ;incstack = 0
  7269                           ; Regs used in ___lwmod: [wreg+status,2+status,0]
  7270                           
  7271     0004  0870               	movf	___lwmod@divisor,w
  7272     0005  0471               	iorwf	___lwmod@divisor+1,w
  7273     0006  1903               	btfsc	3,2
  7274     0007  2809               	goto	u3361
  7275     0008  280A               	goto	u3360
  7276     0009                     u3361:
  7277     0009  2833               	goto	l2883
  7278     000A                     u3360:
  7279     000A                     l2867:
  7280     000A  01F5               	clrf	___lwmod@counter
  7281     000B  0AF5               	incf	___lwmod@counter,f
  7282     000C  2816               	goto	l2873
  7283     000D                     l2869:
  7284     000D  3001               	movlw	1
  7285     000E                     u3375:
  7286     000E  35F0               	lslf	___lwmod@divisor,f
  7287     000F  0DF1               	rlf	___lwmod@divisor+1,f
  7288     0010  0B89               	decfsz	9,f
  7289     0011  280E               	goto	u3375
  7290     0012                     l2871:
  7291     0012  3001               	movlw	1
  7292     0013  00F4               	movwf	??___lwmod
  7293     0014  0874               	movf	??___lwmod,w
  7294     0015  07F5               	addwf	___lwmod@counter,f
  7295     0016                     l2873:
  7296     0016  1FF1               	btfss	___lwmod@divisor+1,7
  7297     0017  2819               	goto	u3381
  7298     0018  281A               	goto	u3380
  7299     0019                     u3381:
  7300     0019  280D               	goto	l2869
  7301     001A                     u3380:
  7302     001A                     l2875:
  7303     001A  0871               	movf	___lwmod@divisor+1,w
  7304     001B  0273               	subwf	___lwmod@dividend+1,w
  7305     001C  1D03               	skipz
  7306     001D  2820               	goto	u3395
  7307     001E  0870               	movf	___lwmod@divisor,w
  7308     001F  0272               	subwf	___lwmod@dividend,w
  7309     0020                     u3395:
  7310     0020  1C03               	skipc
  7311     0021  2823               	goto	u3391
  7312     0022  2824               	goto	u3390
  7313     0023                     u3391:
  7314     0023  2828               	goto	l2879
  7315     0024                     u3390:
  7316     0024                     l2877:
  7317     0024  0870               	movf	___lwmod@divisor,w
  7318     0025  02F2               	subwf	___lwmod@dividend,f
  7319     0026  0871               	movf	___lwmod@divisor+1,w
  7320     0027  3BF3               	subwfb	___lwmod@dividend+1,f
  7321     0028                     l2879:
  7322     0028  3001               	movlw	1
  7323     0029                     u3405:
  7324     0029  36F1               	lsrf	___lwmod@divisor+1,f
  7325     002A  0CF0               	rrf	___lwmod@divisor,f
  7326     002B  0B89               	decfsz	9,f
  7327     002C  2829               	goto	u3405
  7328     002D                     l2881:
  7329     002D  3001               	movlw	1
  7330     002E  02F5               	subwf	___lwmod@counter,f
  7331     002F  1D03               	btfss	3,2
  7332     0030  2832               	goto	u3411
  7333     0031  2833               	goto	u3410
  7334     0032                     u3411:
  7335     0032  281A               	goto	l2875
  7336     0033                     u3410:
  7337     0033                     l2883:
  7338     0033  0873               	movf	___lwmod@dividend+1,w
  7339     0034  00F1               	movwf	?___lwmod+1
  7340     0035  0872               	movf	___lwmod@dividend,w
  7341     0036  00F0               	movwf	?___lwmod
  7342     0037                     l745:
  7343     0037  0008               	return
  7344     0038                     __end_of___lwmod:
  7345                           
  7346                           	psect	text15
  7347     15A4                     __ptext15:	
  7348 ;; *************** function ___lwdiv *****************
  7349 ;; Defined at:
  7350 ;;		line 5 in file "C:\Program Files\Microchip\xc8\v2.46\pic\sources\c99\common\lwdiv.c"
  7351 ;; Parameters:    Size  Location     Type
  7352 ;;  divisor         2    0[COMMON] unsigned int 
  7353 ;;  dividend        2    2[COMMON] unsigned int 
  7354 ;; Auto vars:     Size  Location     Type
  7355 ;;  quotient        2    5[COMMON] unsigned int 
  7356 ;;  counter         1    7[COMMON] unsigned char 
  7357 ;; Return value:  Size  Location     Type
  7358 ;;                  2    0[COMMON] unsigned int 
  7359 ;; Registers used:
  7360 ;;		wreg, status,2, status,0
  7361 ;; Tracked objects:
  7362 ;;		On entry : 0/0
  7363 ;;		On exit  : 0/0
  7364 ;;		Unchanged: 0/0
  7365 ;; Data sizes:     COMMON   BANK0   BANK1   BANK2   BANK3   BANK4   BANK5   BANK6   BANK7   BANK8   BANK9  BANK10  BANK1
      +1  BANK12  BANK13  BANK14  BANK15  BANK16  BANK17  BANK18  BANK19  BANK20  BANK21  BANK22  BANK23  BANK24  BANK25
  7366 ;;      Params:         4       0       0       0       0       0       0       0       0       0       0       0       
      +0       0       0       0       0       0       0       0       0       0       0       0       0       0       0
  7367 ;;      Locals:         3       0       0       0       0       0       0       0       0       0       0       0       
      +0       0       0       0       0       0       0       0       0       0       0       0       0       0       0
  7368 ;;      Temps:          1       0       0       0       0       0       0       0       0       0       0       0       
      +0       0       0       0       0       0       0       0       0       0       0       0       0       0       0
  7369 ;;      Totals:         8       0       0       0       0       0       0       0       0       0       0       0       
      +0       0       0       0       0       0       0       0       0       0       0       0       0       0       0
  7370 ;;Total ram usage:        8 bytes
  7371 ;; Hardware stack levels used: 1
  7372 ;; This function calls:
  7373 ;;		Nothing
  7374 ;; This function is called by:
  7375 ;;		_OLED_Printf_Line
  7376 ;; This function uses a non-reentrant model
  7377 ;;
  7378                           
  7379     15A4                     ___lwdiv:	
  7380                           ;psect for function ___lwdiv
  7381                           
  7382     15A4                     l2839:	
  7383                           ;incstack = 0
  7384                           ; Regs used in ___lwdiv: [wreg+status,2+status,0]
  7385                           
  7386     15A4  01F5               	clrf	___lwdiv@quotient
  7387     15A5  01F6               	clrf	___lwdiv@quotient+1
  7388     15A6                     l2841:
  7389     15A6  0870               	movf	___lwdiv@divisor,w
  7390     15A7  0471               	iorwf	___lwdiv@divisor+1,w
  7391     15A8  1903               	btfsc	3,2
  7392     15A9  2DAB               	goto	u3291
  7393     15AA  2DAC               	goto	u3290
  7394     15AB                     u3291:
  7395     15AB  2DDB               	goto	l2861
  7396     15AC                     u3290:
  7397     15AC                     l2843:
  7398     15AC  01F7               	clrf	___lwdiv@counter
  7399     15AD  0AF7               	incf	___lwdiv@counter,f
  7400     15AE  2DB8               	goto	l2849
  7401     15AF                     l2845:
  7402     15AF  3001               	movlw	1
  7403     15B0                     u3305:
  7404     15B0  35F0               	lslf	___lwdiv@divisor,f
  7405     15B1  0DF1               	rlf	___lwdiv@divisor+1,f
  7406     15B2  0B89               	decfsz	9,f
  7407     15B3  2DB0               	goto	u3305
  7408     15B4                     l2847:
  7409     15B4  3001               	movlw	1
  7410     15B5  00F4               	movwf	??___lwdiv
  7411     15B6  0874               	movf	??___lwdiv,w
  7412     15B7  07F7               	addwf	___lwdiv@counter,f
  7413     15B8                     l2849:
  7414     15B8  1FF1               	btfss	___lwdiv@divisor+1,7
  7415     15B9  2DBB               	goto	u3311
  7416     15BA  2DBC               	goto	u3310
  7417     15BB                     u3311:
  7418     15BB  2DAF               	goto	l2845
  7419     15BC                     u3310:
  7420     15BC                     l2851:
  7421     15BC  3001               	movlw	1
  7422     15BD                     u3325:
  7423     15BD  35F5               	lslf	___lwdiv@quotient,f
  7424     15BE  0DF6               	rlf	___lwdiv@quotient+1,f
  7425     15BF  0B89               	decfsz	9,f
  7426     15C0  2DBD               	goto	u3325
  7427     15C1  0871               	movf	___lwdiv@divisor+1,w
  7428     15C2  0273               	subwf	___lwdiv@dividend+1,w
  7429     15C3  1D03               	skipz
  7430     15C4  2DC7               	goto	u3335
  7431     15C5  0870               	movf	___lwdiv@divisor,w
  7432     15C6  0272               	subwf	___lwdiv@dividend,w
  7433     15C7                     u3335:
  7434     15C7  1C03               	skipc
  7435     15C8  2DCA               	goto	u3331
  7436     15C9  2DCB               	goto	u3330
  7437     15CA                     u3331:
  7438     15CA  2DD0               	goto	l2857
  7439     15CB                     u3330:
  7440     15CB                     l2853:
  7441     15CB  0870               	movf	___lwdiv@divisor,w
  7442     15CC  02F2               	subwf	___lwdiv@dividend,f
  7443     15CD  0871               	movf	___lwdiv@divisor+1,w
  7444     15CE  3BF3               	subwfb	___lwdiv@dividend+1,f
  7445     15CF                     l2855:
  7446     15CF  1475               	bsf	___lwdiv@quotient,0
  7447     15D0                     l2857:
  7448     15D0  3001               	movlw	1
  7449     15D1                     u3345:
  7450     15D1  36F1               	lsrf	___lwdiv@divisor+1,f
  7451     15D2  0CF0               	rrf	___lwdiv@divisor,f
  7452     15D3  0B89               	decfsz	9,f
  7453     15D4  2DD1               	goto	u3345
  7454     15D5                     l2859:
  7455     15D5  3001               	movlw	1
  7456     15D6  02F7               	subwf	___lwdiv@counter,f
  7457     15D7  1D03               	btfss	3,2
  7458     15D8  2DDA               	goto	u3351
  7459     15D9  2DDB               	goto	u3350
  7460     15DA                     u3351:
  7461     15DA  2DBC               	goto	l2851
  7462     15DB                     u3350:
  7463     15DB                     l2861:
  7464     15DB  0876               	movf	___lwdiv@quotient+1,w
  7465     15DC  00F1               	movwf	?___lwdiv+1
  7466     15DD  0875               	movf	___lwdiv@quotient,w
  7467     15DE  00F0               	movwf	?___lwdiv
  7468     15DF                     l735:
  7469     15DF  0008               	return
  7470     15E0                     __end_of___lwdiv:
  7471                           
  7472                           	psect	text16
  7473     1621                     __ptext16:	
  7474 ;; *************** function ___llmod *****************
  7475 ;; Defined at:
  7476 ;;		line 5 in file "C:\Program Files\Microchip\xc8\v2.46\pic\sources\c99\common\llmod.c"
  7477 ;; Parameters:    Size  Location     Type
  7478 ;;  divisor         4    0[COMMON] unsigned long 
  7479 ;;  dividend        4    4[COMMON] unsigned long 
  7480 ;; Auto vars:     Size  Location     Type
  7481 ;;  counter         1    9[COMMON] unsigned char 
  7482 ;; Return value:  Size  Location     Type
  7483 ;;                  4    0[COMMON] unsigned long 
  7484 ;; Registers used:
  7485 ;;		wreg, status,2, status,0
  7486 ;; Tracked objects:
  7487 ;;		On entry : 0/0
  7488 ;;		On exit  : 0/0
  7489 ;;		Unchanged: 0/0
  7490 ;; Data sizes:     COMMON   BANK0   BANK1   BANK2   BANK3   BANK4   BANK5   BANK6   BANK7   BANK8   BANK9  BANK10  BANK1
      +1  BANK12  BANK13  BANK14  BANK15  BANK16  BANK17  BANK18  BANK19  BANK20  BANK21  BANK22  BANK23  BANK24  BANK25
  7491 ;;      Params:         8       0       0       0       0       0       0       0       0       0       0       0       
      +0       0       0       0       0       0       0       0       0       0       0       0       0       0       0
  7492 ;;      Locals:         1       0       0       0       0       0       0       0       0       0       0       0       
      +0       0       0       0       0       0       0       0       0       0       0       0       0       0       0
  7493 ;;      Temps:          1       0       0       0       0       0       0       0       0       0       0       0       
      +0       0       0       0       0       0       0       0       0       0       0       0       0       0       0
  7494 ;;      Totals:        10       0       0       0       0       0       0       0       0       0       0       0       
      +0       0       0       0       0       0       0       0       0       0       0       0       0       0       0
  7495 ;;Total ram usage:       10 bytes
  7496 ;; Hardware stack levels used: 1
  7497 ;; This function calls:
  7498 ;;		Nothing
  7499 ;; This function is called by:
  7500 ;;		_OLED_Printf_Line
  7501 ;; This function uses a non-reentrant model
  7502 ;;
  7503                           
  7504     1621                     ___llmod:	
  7505                           ;psect for function ___llmod
  7506                           
  7507     1621                     l2819:	
  7508                           ;incstack = 0
  7509                           ; Regs used in ___llmod: [wreg+status,2+status,0]
  7510                           
  7511     1621  0873               	movf	___llmod@divisor+3,w
  7512     1622  0472               	iorwf	___llmod@divisor+2,w
  7513     1623  0471               	iorwf	___llmod@divisor+1,w
  7514     1624  0470               	iorwf	___llmod@divisor,w
  7515     1625  1903               	skipnz
  7516     1626  2E28               	goto	u3231
  7517     1627  2E29               	goto	u3230
  7518     1628                     u3231:
  7519     1628  2E62               	goto	l2835
  7520     1629                     u3230:
  7521     1629                     l2821:
  7522     1629  01F9               	clrf	___llmod@counter
  7523     162A  0AF9               	incf	___llmod@counter,f
  7524     162B  2E37               	goto	l2825
  7525     162C                     l2823:
  7526     162C  3001               	movlw	1
  7527     162D                     u3245:
  7528     162D  35F0               	lslf	___llmod@divisor,f
  7529     162E  0DF1               	rlf	___llmod@divisor+1,f
  7530     162F  0DF2               	rlf	___llmod@divisor+2,f
  7531     1630  0DF3               	rlf	___llmod@divisor+3,f
  7532     1631  0B89               	decfsz	9,f
  7533     1632  2E2D               	goto	u3245
  7534     1633  3001               	movlw	1
  7535     1634  00F8               	movwf	??___llmod
  7536     1635  0878               	movf	??___llmod,w
  7537     1636  07F9               	addwf	___llmod@counter,f
  7538     1637                     l2825:
  7539     1637  1FF3               	btfss	___llmod@divisor+3,7
  7540     1638  2E3A               	goto	u3251
  7541     1639  2E3B               	goto	u3250
  7542     163A                     u3251:
  7543     163A  2E2C               	goto	l2823
  7544     163B                     u3250:
  7545     163B                     l2827:
  7546     163B  0873               	movf	___llmod@divisor+3,w
  7547     163C  0277               	subwf	___llmod@dividend+3,w
  7548     163D  1D03               	skipz
  7549     163E  2E49               	goto	u3265
  7550     163F  0872               	movf	___llmod@divisor+2,w
  7551     1640  0276               	subwf	___llmod@dividend+2,w
  7552     1641  1D03               	skipz
  7553     1642  2E49               	goto	u3265
  7554     1643  0871               	movf	___llmod@divisor+1,w
  7555     1644  0275               	subwf	___llmod@dividend+1,w
  7556     1645  1D03               	skipz
  7557     1646  2E49               	goto	u3265
  7558     1647  0870               	movf	___llmod@divisor,w
  7559     1648  0274               	subwf	___llmod@dividend,w
  7560     1649                     u3265:
  7561     1649  1C03               	skipc
  7562     164A  2E4C               	goto	u3261
  7563     164B  2E4D               	goto	u3260
  7564     164C                     u3261:
  7565     164C  2E55               	goto	l2831
  7566     164D                     u3260:
  7567     164D                     l2829:
  7568     164D  0870               	movf	___llmod@divisor,w
  7569     164E  02F4               	subwf	___llmod@dividend,f
  7570     164F  0871               	movf	___llmod@divisor+1,w
  7571     1650  3BF5               	subwfb	___llmod@dividend+1,f
  7572     1651  0872               	movf	___llmod@divisor+2,w
  7573     1652  3BF6               	subwfb	___llmod@dividend+2,f
  7574     1653  0873               	movf	___llmod@divisor+3,w
  7575     1654  3BF7               	subwfb	___llmod@dividend+3,f
  7576     1655                     l2831:
  7577     1655  3001               	movlw	1
  7578     1656                     u3275:
  7579     1656  36F3               	lsrf	___llmod@divisor+3,f
  7580     1657  0CF2               	rrf	___llmod@divisor+2,f
  7581     1658  0CF1               	rrf	___llmod@divisor+1,f
  7582     1659  0CF0               	rrf	___llmod@divisor,f
  7583     165A  0B89               	decfsz	9,f
  7584     165B  2E56               	goto	u3275
  7585     165C                     l2833:
  7586     165C  3001               	movlw	1
  7587     165D  02F9               	subwf	___llmod@counter,f
  7588     165E  1D03               	btfss	3,2
  7589     165F  2E61               	goto	u3281
  7590     1660  2E62               	goto	u3280
  7591     1661                     u3281:
  7592     1661  2E3B               	goto	l2827
  7593     1662                     u3280:
  7594     1662                     l2835:
  7595     1662  0877               	movf	___llmod@dividend+3,w
  7596     1663  00F3               	movwf	?___llmod+3
  7597     1664  0876               	movf	___llmod@dividend+2,w
  7598     1665  00F2               	movwf	?___llmod+2
  7599     1666  0875               	movf	___llmod@dividend+1,w
  7600     1667  00F1               	movwf	?___llmod+1
  7601     1668  0874               	movf	___llmod@dividend,w
  7602     1669  00F0               	movwf	?___llmod
  7603     166A                     l685:
  7604     166A  0008               	return
  7605     166B                     __end_of___llmod:
  7606                           
  7607                           	psect	text17
  7608     1753                     __ptext17:	
  7609 ;; *************** function ___awmod *****************
  7610 ;; Defined at:
  7611 ;;		line 5 in file "C:\Program Files\Microchip\xc8\v2.46\pic\sources\c99\common\awmod.c"
  7612 ;; Parameters:    Size  Location     Type
  7613 ;;  divisor         2    0[COMMON] int 
  7614 ;;  dividend        2    2[COMMON] int 
  7615 ;; Auto vars:     Size  Location     Type
  7616 ;;  sign            1    6[COMMON] unsigned char 
  7617 ;;  counter         1    5[COMMON] unsigned char 
  7618 ;; Return value:  Size  Location     Type
  7619 ;;                  2    0[COMMON] int 
  7620 ;; Registers used:
  7621 ;;		wreg, status,2, status,0
  7622 ;; Tracked objects:
  7623 ;;		On entry : 0/0
  7624 ;;		On exit  : 0/0
  7625 ;;		Unchanged: 0/0
  7626 ;; Data sizes:     COMMON   BANK0   BANK1   BANK2   BANK3   BANK4   BANK5   BANK6   BANK7   BANK8   BANK9  BANK10  BANK1
      +1  BANK12  BANK13  BANK14  BANK15  BANK16  BANK17  BANK18  BANK19  BANK20  BANK21  BANK22  BANK23  BANK24  BANK25
  7627 ;;      Params:         4       0       0       0       0       0       0       0       0       0       0       0       
      +0       0       0       0       0       0       0       0       0       0       0       0       0       0       0
  7628 ;;      Locals:         2       0       0       0       0       0       0       0       0       0       0       0       
      +0       0       0       0       0       0       0       0       0       0       0       0       0       0       0
  7629 ;;      Temps:          1       0       0       0       0       0       0       0       0       0       0       0       
      +0       0       0       0       0       0       0       0       0       0       0       0       0       0       0
  7630 ;;      Totals:         7       0       0       0       0       0       0       0       0       0       0       0       
      +0       0       0       0       0       0       0       0       0       0       0       0       0       0       0
  7631 ;;Total ram usage:        7 bytes
  7632 ;; Hardware stack levels used: 1
  7633 ;; This function calls:
  7634 ;;		Nothing
  7635 ;; This function is called by:
  7636 ;;		_OLED_Printf_Line
  7637 ;; This function uses a non-reentrant model
  7638 ;;
  7639                           
  7640     1753                     ___awmod:	
  7641                           ;psect for function ___awmod
  7642                           
  7643     1753                     l2781:	
  7644                           ;incstack = 0
  7645                           ; Regs used in ___awmod: [wreg+status,2+status,0]
  7646                           
  7647     1753  01F6               	clrf	___awmod@sign
  7648     1754                     l2783:
  7649     1754  1FF3               	btfss	___awmod@dividend+1,7
  7650     1755  2F57               	goto	u3141
  7651     1756  2F58               	goto	u3140
  7652     1757                     u3141:
  7653     1757  2F5F               	goto	l2789
  7654     1758                     u3140:
  7655     1758                     l2785:
  7656     1758  09F2               	comf	___awmod@dividend,f
  7657     1759  09F3               	comf	___awmod@dividend+1,f
  7658     175A  0AF2               	incf	___awmod@dividend,f
  7659     175B  1903               	skipnz
  7660     175C  0AF3               	incf	___awmod@dividend+1,f
  7661     175D                     l2787:
  7662     175D  01F6               	clrf	___awmod@sign
  7663     175E  0AF6               	incf	___awmod@sign,f
  7664     175F                     l2789:
  7665     175F  1FF1               	btfss	___awmod@divisor+1,7
  7666     1760  2F62               	goto	u3151
  7667     1761  2F63               	goto	u3150
  7668     1762                     u3151:
  7669     1762  2F68               	goto	l2793
  7670     1763                     u3150:
  7671     1763                     l2791:
  7672     1763  09F0               	comf	___awmod@divisor,f
  7673     1764  09F1               	comf	___awmod@divisor+1,f
  7674     1765  0AF0               	incf	___awmod@divisor,f
  7675     1766  1903               	skipnz
  7676     1767  0AF1               	incf	___awmod@divisor+1,f
  7677     1768                     l2793:
  7678     1768  0870               	movf	___awmod@divisor,w
  7679     1769  0471               	iorwf	___awmod@divisor+1,w
  7680     176A  1903               	btfsc	3,2
  7681     176B  2F6D               	goto	u3161
  7682     176C  2F6E               	goto	u3160
  7683     176D                     u3161:
  7684     176D  2F97               	goto	l2811
  7685     176E                     u3160:
  7686     176E                     l2795:
  7687     176E  01F5               	clrf	___awmod@counter
  7688     176F  0AF5               	incf	___awmod@counter,f
  7689     1770  2F7A               	goto	l2801
  7690     1771                     l2797:
  7691     1771  3001               	movlw	1
  7692     1772                     u3175:
  7693     1772  35F0               	lslf	___awmod@divisor,f
  7694     1773  0DF1               	rlf	___awmod@divisor+1,f
  7695     1774  0B89               	decfsz	9,f
  7696     1775  2F72               	goto	u3175
  7697     1776                     l2799:
  7698     1776  3001               	movlw	1
  7699     1777  00F4               	movwf	??___awmod
  7700     1778  0874               	movf	??___awmod,w
  7701     1779  07F5               	addwf	___awmod@counter,f
  7702     177A                     l2801:
  7703     177A  1FF1               	btfss	___awmod@divisor+1,7
  7704     177B  2F7D               	goto	u3181
  7705     177C  2F7E               	goto	u3180
  7706     177D                     u3181:
  7707     177D  2F71               	goto	l2797
  7708     177E                     u3180:
  7709     177E                     l2803:
  7710     177E  0871               	movf	___awmod@divisor+1,w
  7711     177F  0273               	subwf	___awmod@dividend+1,w
  7712     1780  1D03               	skipz
  7713     1781  2F84               	goto	u3195
  7714     1782  0870               	movf	___awmod@divisor,w
  7715     1783  0272               	subwf	___awmod@dividend,w
  7716     1784                     u3195:
  7717     1784  1C03               	skipc
  7718     1785  2F87               	goto	u3191
  7719     1786  2F88               	goto	u3190
  7720     1787                     u3191:
  7721     1787  2F8C               	goto	l2807
  7722     1788                     u3190:
  7723     1788                     l2805:
  7724     1788  0870               	movf	___awmod@divisor,w
  7725     1789  02F2               	subwf	___awmod@dividend,f
  7726     178A  0871               	movf	___awmod@divisor+1,w
  7727     178B  3BF3               	subwfb	___awmod@dividend+1,f
  7728     178C                     l2807:
  7729     178C  3001               	movlw	1
  7730     178D                     u3205:
  7731     178D  36F1               	lsrf	___awmod@divisor+1,f
  7732     178E  0CF0               	rrf	___awmod@divisor,f
  7733     178F  0B89               	decfsz	9,f
  7734     1790  2F8D               	goto	u3205
  7735     1791                     l2809:
  7736     1791  3001               	movlw	1
  7737     1792  02F5               	subwf	___awmod@counter,f
  7738     1793  1D03               	btfss	3,2
  7739     1794  2F96               	goto	u3211
  7740     1795  2F97               	goto	u3210
  7741     1796                     u3211:
  7742     1796  2F7E               	goto	l2803
  7743     1797                     u3210:
  7744     1797                     l2811:
  7745     1797  0876               	movf	___awmod@sign,w
  7746     1798  1903               	btfsc	3,2
  7747     1799  2F9B               	goto	u3221
  7748     179A  2F9C               	goto	u3220
  7749     179B                     u3221:
  7750     179B  2FA1               	goto	l2815
  7751     179C                     u3220:
  7752     179C                     l2813:
  7753     179C  09F2               	comf	___awmod@dividend,f
  7754     179D  09F3               	comf	___awmod@dividend+1,f
  7755     179E  0AF2               	incf	___awmod@dividend,f
  7756     179F  1903               	skipnz
  7757     17A0  0AF3               	incf	___awmod@dividend+1,f
  7758     17A1                     l2815:
  7759     17A1  0873               	movf	___awmod@dividend+1,w
  7760     17A2  00F1               	movwf	?___awmod+1
  7761     17A3  0872               	movf	___awmod@dividend,w
  7762     17A4  00F0               	movwf	?___awmod
  7763     17A5                     l621:
  7764     17A5  0008               	return
  7765     17A6                     __end_of___awmod:
  7766                           
  7767                           	psect	text18
  7768     0B36                     __ptext18:	
  7769 ;; *************** function ___awdiv *****************
  7770 ;; Defined at:
  7771 ;;		line 5 in file "C:\Program Files\Microchip\xc8\v2.46\pic\sources\c99\common\awdiv.c"
  7772 ;; Parameters:    Size  Location     Type
  7773 ;;  divisor         2    0[COMMON] int 
  7774 ;;  dividend        2    2[COMMON] int 
  7775 ;; Auto vars:     Size  Location     Type
  7776 ;;  quotient        2    7[COMMON] int 
  7777 ;;  sign            1    6[COMMON] unsigned char 
  7778 ;;  counter         1    5[COMMON] unsigned char 
  7779 ;; Return value:  Size  Location     Type
  7780 ;;                  2    0[COMMON] int 
  7781 ;; Registers used:
  7782 ;;		wreg, status,2, status,0
  7783 ;; Tracked objects:
  7784 ;;		On entry : 0/0
  7785 ;;		On exit  : 0/0
  7786 ;;		Unchanged: 0/0
  7787 ;; Data sizes:     COMMON   BANK0   BANK1   BANK2   BANK3   BANK4   BANK5   BANK6   BANK7   BANK8   BANK9  BANK10  BANK1
      +1  BANK12  BANK13  BANK14  BANK15  BANK16  BANK17  BANK18  BANK19  BANK20  BANK21  BANK22  BANK23  BANK24  BANK25
  7788 ;;      Params:         4       0       0       0       0       0       0       0       0       0       0       0       
      +0       0       0       0       0       0       0       0       0       0       0       0       0       0       0
  7789 ;;      Locals:         4       0       0       0       0       0       0       0       0       0       0       0       
      +0       0       0       0       0       0       0       0       0       0       0       0       0       0       0
  7790 ;;      Temps:          1       0       0       0       0       0       0       0       0       0       0       0       
      +0       0       0       0       0       0       0       0       0       0       0       0       0       0       0
  7791 ;;      Totals:         9       0       0       0       0       0       0       0       0       0       0       0       
      +0       0       0       0       0       0       0       0       0       0       0       0       0       0       0
  7792 ;;Total ram usage:        9 bytes
  7793 ;; Hardware stack levels used: 1
  7794 ;; This function calls:
  7795 ;;		Nothing
  7796 ;; This function is called by:
  7797 ;;		_OLED_Printf_Line
  7798 ;;		_OLED_DrawBattery
  7799 ;; This function uses a non-reentrant model
  7800 ;;
  7801                           
  7802     0B36                     ___awdiv:	
  7803                           ;psect for function ___awdiv
  7804                           
  7805     0B36                     l2737:	
  7806                           ;incstack = 0
  7807                           ; Regs used in ___awdiv: [wreg+status,2+status,0]
  7808                           
  7809     0B36  01F6               	clrf	___awdiv@sign
  7810     0B37                     l2739:
  7811     0B37  1FF1               	btfss	___awdiv@divisor+1,7
  7812     0B38  2B3A               	goto	u3041
  7813     0B39  2B3B               	goto	u3040
  7814     0B3A                     u3041:
  7815     0B3A  2B42               	goto	l2745
  7816     0B3B                     u3040:
  7817     0B3B                     l2741:
  7818     0B3B  09F0               	comf	___awdiv@divisor,f
  7819     0B3C  09F1               	comf	___awdiv@divisor+1,f
  7820     0B3D  0AF0               	incf	___awdiv@divisor,f
  7821     0B3E  1903               	skipnz
  7822     0B3F  0AF1               	incf	___awdiv@divisor+1,f
  7823     0B40                     l2743:
  7824     0B40  01F6               	clrf	___awdiv@sign
  7825     0B41  0AF6               	incf	___awdiv@sign,f
  7826     0B42                     l2745:
  7827     0B42  1FF3               	btfss	___awdiv@dividend+1,7
  7828     0B43  2B45               	goto	u3051
  7829     0B44  2B46               	goto	u3050
  7830     0B45                     u3051:
  7831     0B45  2B4F               	goto	l2751
  7832     0B46                     u3050:
  7833     0B46                     l2747:
  7834     0B46  09F2               	comf	___awdiv@dividend,f
  7835     0B47  09F3               	comf	___awdiv@dividend+1,f
  7836     0B48  0AF2               	incf	___awdiv@dividend,f
  7837     0B49  1903               	skipnz
  7838     0B4A  0AF3               	incf	___awdiv@dividend+1,f
  7839     0B4B                     l2749:
  7840     0B4B  3001               	movlw	1
  7841     0B4C  00F4               	movwf	??___awdiv
  7842     0B4D  0874               	movf	??___awdiv,w
  7843     0B4E  06F6               	xorwf	___awdiv@sign,f
  7844     0B4F                     l2751:
  7845     0B4F  01F7               	clrf	___awdiv@quotient
  7846     0B50  01F8               	clrf	___awdiv@quotient+1
  7847     0B51                     l2753:
  7848     0B51  0870               	movf	___awdiv@divisor,w
  7849     0B52  0471               	iorwf	___awdiv@divisor+1,w
  7850     0B53  1903               	btfsc	3,2
  7851     0B54  2B56               	goto	u3061
  7852     0B55  2B57               	goto	u3060
  7853     0B56                     u3061:
  7854     0B56  2B86               	goto	l2773
  7855     0B57                     u3060:
  7856     0B57                     l2755:
  7857     0B57  01F5               	clrf	___awdiv@counter
  7858     0B58  0AF5               	incf	___awdiv@counter,f
  7859     0B59  2B63               	goto	l2761
  7860     0B5A                     l2757:
  7861     0B5A  3001               	movlw	1
  7862     0B5B                     u3075:
  7863     0B5B  35F0               	lslf	___awdiv@divisor,f
  7864     0B5C  0DF1               	rlf	___awdiv@divisor+1,f
  7865     0B5D  0B89               	decfsz	9,f
  7866     0B5E  2B5B               	goto	u3075
  7867     0B5F                     l2759:
  7868     0B5F  3001               	movlw	1
  7869     0B60  00F4               	movwf	??___awdiv
  7870     0B61  0874               	movf	??___awdiv,w
  7871     0B62  07F5               	addwf	___awdiv@counter,f
  7872     0B63                     l2761:
  7873     0B63  1FF1               	btfss	___awdiv@divisor+1,7
  7874     0B64  2B66               	goto	u3081
  7875     0B65  2B67               	goto	u3080
  7876     0B66                     u3081:
  7877     0B66  2B5A               	goto	l2757
  7878     0B67                     u3080:
  7879     0B67                     l2763:
  7880     0B67  3001               	movlw	1
  7881     0B68                     u3095:
  7882     0B68  35F7               	lslf	___awdiv@quotient,f
  7883     0B69  0DF8               	rlf	___awdiv@quotient+1,f
  7884     0B6A  0B89               	decfsz	9,f
  7885     0B6B  2B68               	goto	u3095
  7886     0B6C  0871               	movf	___awdiv@divisor+1,w
  7887     0B6D  0273               	subwf	___awdiv@dividend+1,w
  7888     0B6E  1D03               	skipz
  7889     0B6F  2B72               	goto	u3105
  7890     0B70  0870               	movf	___awdiv@divisor,w
  7891     0B71  0272               	subwf	___awdiv@dividend,w
  7892     0B72                     u3105:
  7893     0B72  1C03               	skipc
  7894     0B73  2B75               	goto	u3101
  7895     0B74  2B76               	goto	u3100
  7896     0B75                     u3101:
  7897     0B75  2B7B               	goto	l2769
  7898     0B76                     u3100:
  7899     0B76                     l2765:
  7900     0B76  0870               	movf	___awdiv@divisor,w
  7901     0B77  02F2               	subwf	___awdiv@dividend,f
  7902     0B78  0871               	movf	___awdiv@divisor+1,w
  7903     0B79  3BF3               	subwfb	___awdiv@dividend+1,f
  7904     0B7A                     l2767:
  7905     0B7A  1477               	bsf	___awdiv@quotient,0
  7906     0B7B                     l2769:
  7907     0B7B  3001               	movlw	1
  7908     0B7C                     u3115:
  7909     0B7C  36F1               	lsrf	___awdiv@divisor+1,f
  7910     0B7D  0CF0               	rrf	___awdiv@divisor,f
  7911     0B7E  0B89               	decfsz	9,f
  7912     0B7F  2B7C               	goto	u3115
  7913     0B80                     l2771:
  7914     0B80  3001               	movlw	1
  7915     0B81  02F5               	subwf	___awdiv@counter,f
  7916     0B82  1D03               	btfss	3,2
  7917     0B83  2B85               	goto	u3121
  7918     0B84  2B86               	goto	u3120
  7919     0B85                     u3121:
  7920     0B85  2B67               	goto	l2763
  7921     0B86                     u3120:
  7922     0B86                     l2773:
  7923     0B86  0876               	movf	___awdiv@sign,w
  7924     0B87  1903               	btfsc	3,2
  7925     0B88  2B8A               	goto	u3131
  7926     0B89  2B8B               	goto	u3130
  7927     0B8A                     u3131:
  7928     0B8A  2B90               	goto	l2777
  7929     0B8B                     u3130:
  7930     0B8B                     l2775:
  7931     0B8B  09F7               	comf	___awdiv@quotient,f
  7932     0B8C  09F8               	comf	___awdiv@quotient+1,f
  7933     0B8D  0AF7               	incf	___awdiv@quotient,f
  7934     0B8E  1903               	skipnz
  7935     0B8F  0AF8               	incf	___awdiv@quotient+1,f
  7936     0B90                     l2777:
  7937     0B90  0878               	movf	___awdiv@quotient+1,w
  7938     0B91  00F1               	movwf	?___awdiv+1
  7939     0B92  0877               	movf	___awdiv@quotient,w
  7940     0B93  00F0               	movwf	?___awdiv
  7941     0B94                     l608:
  7942     0B94  0008               	return
  7943     0B95                     __end_of___awdiv:
  7944                           
  7945                           	psect	text19
  7946     0D4B                     __ptext19:	
  7947 ;; *************** function ___almod *****************
  7948 ;; Defined at:
  7949 ;;		line 5 in file "C:\Program Files\Microchip\xc8\v2.46\pic\sources\c99\common\almod.c"
  7950 ;; Parameters:    Size  Location     Type
  7951 ;;  divisor         4    0[COMMON] long 
  7952 ;;  dividend        4    4[COMMON] long 
  7953 ;; Auto vars:     Size  Location     Type
  7954 ;;  sign            1   10[COMMON] unsigned char 
  7955 ;;  counter         1    9[COMMON] unsigned char 
  7956 ;; Return value:  Size  Location     Type
  7957 ;;                  4    0[COMMON] long 
  7958 ;; Registers used:
  7959 ;;		wreg, status,2, status,0
  7960 ;; Tracked objects:
  7961 ;;		On entry : 0/0
  7962 ;;		On exit  : 0/0
  7963 ;;		Unchanged: 0/0
  7964 ;; Data sizes:     COMMON   BANK0   BANK1   BANK2   BANK3   BANK4   BANK5   BANK6   BANK7   BANK8   BANK9  BANK10  BANK1
      +1  BANK12  BANK13  BANK14  BANK15  BANK16  BANK17  BANK18  BANK19  BANK20  BANK21  BANK22  BANK23  BANK24  BANK25
  7965 ;;      Params:         8       0       0       0       0       0       0       0       0       0       0       0       
      +0       0       0       0       0       0       0       0       0       0       0       0       0       0       0
  7966 ;;      Locals:         2       0       0       0       0       0       0       0       0       0       0       0       
      +0       0       0       0       0       0       0       0       0       0       0       0       0       0       0
  7967 ;;      Temps:          1       0       0       0       0       0       0       0       0       0       0       0       
      +0       0       0       0       0       0       0       0       0       0       0       0       0       0       0
  7968 ;;      Totals:        11       0       0       0       0       0       0       0       0       0       0       0       
      +0       0       0       0       0       0       0       0       0       0       0       0       0       0       0
  7969 ;;Total ram usage:       11 bytes
  7970 ;; Hardware stack levels used: 1
  7971 ;; This function calls:
  7972 ;;		Nothing
  7973 ;; This function is called by:
  7974 ;;		_OLED_Printf_Line
  7975 ;; This function uses a non-reentrant model
  7976 ;;
  7977                           
  7978     0D4B                     ___almod:	
  7979                           ;psect for function ___almod
  7980                           
  7981     0D4B                     l2705:	
  7982                           ;incstack = 0
  7983                           ; Regs used in ___almod: [wreg+status,2+status,0]
  7984                           
  7985     0D4B  01FA               	clrf	___almod@sign
  7986     0D4C                     l2707:
  7987     0D4C  1FF7               	btfss	___almod@dividend+3,7
  7988     0D4D  2D4F               	goto	u2951
  7989     0D4E  2D50               	goto	u2950
  7990     0D4F                     u2951:
  7991     0D4F  2D5D               	goto	l533
  7992     0D50                     u2950:
  7993     0D50                     l2709:
  7994     0D50  09F4               	comf	___almod@dividend,f
  7995     0D51  09F5               	comf	___almod@dividend+1,f
  7996     0D52  09F6               	comf	___almod@dividend+2,f
  7997     0D53  09F7               	comf	___almod@dividend+3,f
  7998     0D54  0AF4               	incf	___almod@dividend,f
  7999     0D55  1903               	skipnz
  8000     0D56  0AF5               	incf	___almod@dividend+1,f
  8001     0D57  1903               	skipnz
  8002     0D58  0AF6               	incf	___almod@dividend+2,f
  8003     0D59  1903               	skipnz
  8004     0D5A  0AF7               	incf	___almod@dividend+3,f
  8005     0D5B  01FA               	clrf	___almod@sign
  8006     0D5C  0AFA               	incf	___almod@sign,f
  8007     0D5D                     l533:
  8008     0D5D  1FF3               	btfss	___almod@divisor+3,7
  8009     0D5E  2D60               	goto	u2961
  8010     0D5F  2D61               	goto	u2960
  8011     0D60                     u2961:
  8012     0D60  2D6C               	goto	l2713
  8013     0D61                     u2960:
  8014     0D61                     l2711:
  8015     0D61  09F0               	comf	___almod@divisor,f
  8016     0D62  09F1               	comf	___almod@divisor+1,f
  8017     0D63  09F2               	comf	___almod@divisor+2,f
  8018     0D64  09F3               	comf	___almod@divisor+3,f
  8019     0D65  0AF0               	incf	___almod@divisor,f
  8020     0D66  1903               	skipnz
  8021     0D67  0AF1               	incf	___almod@divisor+1,f
  8022     0D68  1903               	skipnz
  8023     0D69  0AF2               	incf	___almod@divisor+2,f
  8024     0D6A  1903               	skipnz
  8025     0D6B  0AF3               	incf	___almod@divisor+3,f
  8026     0D6C                     l2713:
  8027     0D6C  0873               	movf	___almod@divisor+3,w
  8028     0D6D  0472               	iorwf	___almod@divisor+2,w
  8029     0D6E  0471               	iorwf	___almod@divisor+1,w
  8030     0D6F  0470               	iorwf	___almod@divisor,w
  8031     0D70  1903               	skipnz
  8032     0D71  2D73               	goto	u2971
  8033     0D72  2D74               	goto	u2970
  8034     0D73                     u2971:
  8035     0D73  2DAD               	goto	l2729
  8036     0D74                     u2970:
  8037     0D74                     l2715:
  8038     0D74  01F9               	clrf	___almod@counter
  8039     0D75  0AF9               	incf	___almod@counter,f
  8040     0D76  2D82               	goto	l2719
  8041     0D77                     l2717:
  8042     0D77  3001               	movlw	1
  8043     0D78                     u2985:
  8044     0D78  35F0               	lslf	___almod@divisor,f
  8045     0D79  0DF1               	rlf	___almod@divisor+1,f
  8046     0D7A  0DF2               	rlf	___almod@divisor+2,f
  8047     0D7B  0DF3               	rlf	___almod@divisor+3,f
  8048     0D7C  0B89               	decfsz	9,f
  8049     0D7D  2D78               	goto	u2985
  8050     0D7E  3001               	movlw	1
  8051     0D7F  00F8               	movwf	??___almod
  8052     0D80  0878               	movf	??___almod,w
  8053     0D81  07F9               	addwf	___almod@counter,f
  8054     0D82                     l2719:
  8055     0D82  1FF3               	btfss	___almod@divisor+3,7
  8056     0D83  2D85               	goto	u2991
  8057     0D84  2D86               	goto	u2990
  8058     0D85                     u2991:
  8059     0D85  2D77               	goto	l2717
  8060     0D86                     u2990:
  8061     0D86                     l2721:
  8062     0D86  0873               	movf	___almod@divisor+3,w
  8063     0D87  0277               	subwf	___almod@dividend+3,w
  8064     0D88  1D03               	skipz
  8065     0D89  2D94               	goto	u3005
  8066     0D8A  0872               	movf	___almod@divisor+2,w
  8067     0D8B  0276               	subwf	___almod@dividend+2,w
  8068     0D8C  1D03               	skipz
  8069     0D8D  2D94               	goto	u3005
  8070     0D8E  0871               	movf	___almod@divisor+1,w
  8071     0D8F  0275               	subwf	___almod@dividend+1,w
  8072     0D90  1D03               	skipz
  8073     0D91  2D94               	goto	u3005
  8074     0D92  0870               	movf	___almod@divisor,w
  8075     0D93  0274               	subwf	___almod@dividend,w
  8076     0D94                     u3005:
  8077     0D94  1C03               	skipc
  8078     0D95  2D97               	goto	u3001
  8079     0D96  2D98               	goto	u3000
  8080     0D97                     u3001:
  8081     0D97  2DA0               	goto	l2725
  8082     0D98                     u3000:
  8083     0D98                     l2723:
  8084     0D98  0870               	movf	___almod@divisor,w
  8085     0D99  02F4               	subwf	___almod@dividend,f
  8086     0D9A  0871               	movf	___almod@divisor+1,w
  8087     0D9B  3BF5               	subwfb	___almod@dividend+1,f
  8088     0D9C  0872               	movf	___almod@divisor+2,w
  8089     0D9D  3BF6               	subwfb	___almod@dividend+2,f
  8090     0D9E  0873               	movf	___almod@divisor+3,w
  8091     0D9F  3BF7               	subwfb	___almod@dividend+3,f
  8092     0DA0                     l2725:
  8093     0DA0  3001               	movlw	1
  8094     0DA1                     u3015:
  8095     0DA1  36F3               	lsrf	___almod@divisor+3,f
  8096     0DA2  0CF2               	rrf	___almod@divisor+2,f
  8097     0DA3  0CF1               	rrf	___almod@divisor+1,f
  8098     0DA4  0CF0               	rrf	___almod@divisor,f
  8099     0DA5  0B89               	decfsz	9,f
  8100     0DA6  2DA1               	goto	u3015
  8101     0DA7                     l2727:
  8102     0DA7  3001               	movlw	1
  8103     0DA8  02F9               	subwf	___almod@counter,f
  8104     0DA9  1D03               	btfss	3,2
  8105     0DAA  2DAC               	goto	u3021
  8106     0DAB  2DAD               	goto	u3020
  8107     0DAC                     u3021:
  8108     0DAC  2D86               	goto	l2721
  8109     0DAD                     u3020:
  8110     0DAD                     l2729:
  8111     0DAD  087A               	movf	___almod@sign,w
  8112     0DAE  1903               	btfsc	3,2
  8113     0DAF  2DB1               	goto	u3031
  8114     0DB0  2DB2               	goto	u3030
  8115     0DB1                     u3031:
  8116     0DB1  2DBD               	goto	l2733
  8117     0DB2                     u3030:
  8118     0DB2                     l2731:
  8119     0DB2  09F4               	comf	___almod@dividend,f
  8120     0DB3  09F5               	comf	___almod@dividend+1,f
  8121     0DB4  09F6               	comf	___almod@dividend+2,f
  8122     0DB5  09F7               	comf	___almod@dividend+3,f
  8123     0DB6  0AF4               	incf	___almod@dividend,f
  8124     0DB7  1903               	skipnz
  8125     0DB8  0AF5               	incf	___almod@dividend+1,f
  8126     0DB9  1903               	skipnz
  8127     0DBA  0AF6               	incf	___almod@dividend+2,f
  8128     0DBB  1903               	skipnz
  8129     0DBC  0AF7               	incf	___almod@dividend+3,f
  8130     0DBD                     l2733:
  8131     0DBD  0877               	movf	___almod@dividend+3,w
  8132     0DBE  00F3               	movwf	?___almod+3
  8133     0DBF  0876               	movf	___almod@dividend+2,w
  8134     0DC0  00F2               	movwf	?___almod+2
  8135     0DC1  0875               	movf	___almod@dividend+1,w
  8136     0DC2  00F1               	movwf	?___almod+1
  8137     0DC3  0874               	movf	___almod@dividend,w
  8138     0DC4  00F0               	movwf	?___almod
  8139     0DC5                     l543:
  8140     0DC5  0008               	return
  8141     0DC6                     __end_of___almod:
  8142                           
  8143                           	psect	text20
  8144     0DC6                     __ptext20:	
  8145 ;; *************** function ___aldiv *****************
  8146 ;; Defined at:
  8147 ;;		line 5 in file "C:\Program Files\Microchip\xc8\v2.46\pic\sources\c99\common\aldiv.c"
  8148 ;; Parameters:    Size  Location     Type
  8149 ;;  divisor         4    0[COMMON] long 
  8150 ;;  dividend        4    4[COMMON] long 
  8151 ;; Auto vars:     Size  Location     Type
  8152 ;;  quotient        4    2[BANK0 ] long 
  8153 ;;  sign            1    1[BANK0 ] unsigned char 
  8154 ;;  counter         1    0[BANK0 ] unsigned char 
  8155 ;; Return value:  Size  Location     Type
  8156 ;;                  4    0[COMMON] long 
  8157 ;; Registers used:
  8158 ;;		wreg, status,2, status,0
  8159 ;; Tracked objects:
  8160 ;;		On entry : 0/0
  8161 ;;		On exit  : 0/0
  8162 ;;		Unchanged: 0/0
  8163 ;; Data sizes:     COMMON   BANK0   BANK1   BANK2   BANK3   BANK4   BANK5   BANK6   BANK7   BANK8   BANK9  BANK10  BANK1
      +1  BANK12  BANK13  BANK14  BANK15  BANK16  BANK17  BANK18  BANK19  BANK20  BANK21  BANK22  BANK23  BANK24  BANK25
  8164 ;;      Params:         8       0       0       0       0       0       0       0       0       0       0       0       
      +0       0       0       0       0       0       0       0       0       0       0       0       0       0       0
  8165 ;;      Locals:         0       6       0       0       0       0       0       0       0       0       0       0       
      +0       0       0       0       0       0       0       0       0       0       0       0       0       0       0
  8166 ;;      Temps:          1       0       0       0       0       0       0       0       0       0       0       0       
      +0       0       0       0       0       0       0       0       0       0       0       0       0       0       0
  8167 ;;      Totals:         9       6       0       0       0       0       0       0       0       0       0       0       
      +0       0       0       0       0       0       0       0       0       0       0       0       0       0       0
  8168 ;;Total ram usage:       15 bytes
  8169 ;; Hardware stack levels used: 1
  8170 ;; This function calls:
  8171 ;;		Nothing
  8172 ;; This function is called by:
  8173 ;;		_OLED_Printf_Line
  8174 ;; This function uses a non-reentrant model
  8175 ;;
  8176                           
  8177     0DC6                     ___aldiv:	
  8178                           ;psect for function ___aldiv
  8179                           
  8180     0DC6                     l2665:	
  8181                           ;incstack = 0
  8182                           ; Regs used in ___aldiv: [wreg+status,2+status,0]
  8183                           
  8184     0DC6  0020               	movlb	0	; select bank0
  8185     0DC7  01A1               	clrf	___aldiv@sign
  8186     0DC8                     l2667:
  8187     0DC8  1FF3               	btfss	___aldiv@divisor+3,7
  8188     0DC9  2DCB               	goto	u2851
  8189     0DCA  2DCC               	goto	u2850
  8190     0DCB                     u2851:
  8191     0DCB  2DD9               	goto	l520
  8192     0DCC                     u2850:
  8193     0DCC                     l2669:
  8194     0DCC  09F0               	comf	___aldiv@divisor,f
  8195     0DCD  09F1               	comf	___aldiv@divisor+1,f
  8196     0DCE  09F2               	comf	___aldiv@divisor+2,f
  8197     0DCF  09F3               	comf	___aldiv@divisor+3,f
  8198     0DD0  0AF0               	incf	___aldiv@divisor,f
  8199     0DD1  1903               	skipnz
  8200     0DD2  0AF1               	incf	___aldiv@divisor+1,f
  8201     0DD3  1903               	skipnz
  8202     0DD4  0AF2               	incf	___aldiv@divisor+2,f
  8203     0DD5  1903               	skipnz
  8204     0DD6  0AF3               	incf	___aldiv@divisor+3,f
  8205     0DD7  01A1               	clrf	___aldiv@sign
  8206     0DD8  0AA1               	incf	___aldiv@sign,f
  8207     0DD9                     l520:
  8208     0DD9  1FF7               	btfss	___aldiv@dividend+3,7
  8209     0DDA  2DDC               	goto	u2861
  8210     0DDB  2DDD               	goto	u2860
  8211     0DDC                     u2861:
  8212     0DDC  2DEC               	goto	l2675
  8213     0DDD                     u2860:
  8214     0DDD                     l2671:
  8215     0DDD  09F4               	comf	___aldiv@dividend,f
  8216     0DDE  09F5               	comf	___aldiv@dividend+1,f
  8217     0DDF  09F6               	comf	___aldiv@dividend+2,f
  8218     0DE0  09F7               	comf	___aldiv@dividend+3,f
  8219     0DE1  0AF4               	incf	___aldiv@dividend,f
  8220     0DE2  1903               	skipnz
  8221     0DE3  0AF5               	incf	___aldiv@dividend+1,f
  8222     0DE4  1903               	skipnz
  8223     0DE5  0AF6               	incf	___aldiv@dividend+2,f
  8224     0DE6  1903               	skipnz
  8225     0DE7  0AF7               	incf	___aldiv@dividend+3,f
  8226     0DE8                     l2673:
  8227     0DE8  3001               	movlw	1
  8228     0DE9  00F8               	movwf	??___aldiv
  8229     0DEA  0878               	movf	??___aldiv,w
  8230     0DEB  06A1               	xorwf	___aldiv@sign,f
  8231     0DEC                     l2675:
  8232     0DEC  3000               	movlw	0
  8233     0DED  00A5               	movwf	___aldiv@quotient+3
  8234     0DEE  3000               	movlw	0
  8235     0DEF  00A4               	movwf	___aldiv@quotient+2
  8236     0DF0  3000               	movlw	0
  8237     0DF1  00A3               	movwf	___aldiv@quotient+1
  8238     0DF2  3000               	movlw	0
  8239     0DF3  00A2               	movwf	___aldiv@quotient
  8240     0DF4                     l2677:
  8241     0DF4  0873               	movf	___aldiv@divisor+3,w
  8242     0DF5  0472               	iorwf	___aldiv@divisor+2,w
  8243     0DF6  0471               	iorwf	___aldiv@divisor+1,w
  8244     0DF7  0470               	iorwf	___aldiv@divisor,w
  8245     0DF8  1903               	skipnz
  8246     0DF9  2DFB               	goto	u2871
  8247     0DFA  2DFC               	goto	u2870
  8248     0DFB                     u2871:
  8249     0DFB  2E3D               	goto	l2697
  8250     0DFC                     u2870:
  8251     0DFC                     l2679:
  8252     0DFC  01A0               	clrf	___aldiv@counter
  8253     0DFD  0AA0               	incf	___aldiv@counter,f
  8254     0DFE  2E0A               	goto	l2683
  8255     0DFF                     l2681:
  8256     0DFF  3001               	movlw	1
  8257     0E00                     u2885:
  8258     0E00  35F0               	lslf	___aldiv@divisor,f
  8259     0E01  0DF1               	rlf	___aldiv@divisor+1,f
  8260     0E02  0DF2               	rlf	___aldiv@divisor+2,f
  8261     0E03  0DF3               	rlf	___aldiv@divisor+3,f
  8262     0E04  0B89               	decfsz	9,f
  8263     0E05  2E00               	goto	u2885
  8264     0E06  3001               	movlw	1
  8265     0E07  00F8               	movwf	??___aldiv
  8266     0E08  0878               	movf	??___aldiv,w
  8267     0E09  07A0               	addwf	___aldiv@counter,f
  8268     0E0A                     l2683:
  8269     0E0A  1FF3               	btfss	___aldiv@divisor+3,7
  8270     0E0B  2E0D               	goto	u2891
  8271     0E0C  2E0E               	goto	u2890
  8272     0E0D                     u2891:
  8273     0E0D  2DFF               	goto	l2681
  8274     0E0E                     u2890:
  8275     0E0E                     l2685:
  8276     0E0E  3001               	movlw	1
  8277     0E0F                     u2905:
  8278     0E0F  35A2               	lslf	___aldiv@quotient,f
  8279     0E10  0DA3               	rlf	___aldiv@quotient+1,f
  8280     0E11  0DA4               	rlf	___aldiv@quotient+2,f
  8281     0E12  0DA5               	rlf	___aldiv@quotient+3,f
  8282     0E13  0B89               	decfsz	9,f
  8283     0E14  2E0F               	goto	u2905
  8284     0E15                     l2687:
  8285     0E15  0873               	movf	___aldiv@divisor+3,w
  8286     0E16  0277               	subwf	___aldiv@dividend+3,w
  8287     0E17  1D03               	skipz
  8288     0E18  2E23               	goto	u2915
  8289     0E19  0872               	movf	___aldiv@divisor+2,w
  8290     0E1A  0276               	subwf	___aldiv@dividend+2,w
  8291     0E1B  1D03               	skipz
  8292     0E1C  2E23               	goto	u2915
  8293     0E1D  0871               	movf	___aldiv@divisor+1,w
  8294     0E1E  0275               	subwf	___aldiv@dividend+1,w
  8295     0E1F  1D03               	skipz
  8296     0E20  2E23               	goto	u2915
  8297     0E21  0870               	movf	___aldiv@divisor,w
  8298     0E22  0274               	subwf	___aldiv@dividend,w
  8299     0E23                     u2915:
  8300     0E23  1C03               	skipc
  8301     0E24  2E26               	goto	u2911
  8302     0E25  2E27               	goto	u2910
  8303     0E26                     u2911:
  8304     0E26  2E30               	goto	l2693
  8305     0E27                     u2910:
  8306     0E27                     l2689:
  8307     0E27  0870               	movf	___aldiv@divisor,w
  8308     0E28  02F4               	subwf	___aldiv@dividend,f
  8309     0E29  0871               	movf	___aldiv@divisor+1,w
  8310     0E2A  3BF5               	subwfb	___aldiv@dividend+1,f
  8311     0E2B  0872               	movf	___aldiv@divisor+2,w
  8312     0E2C  3BF6               	subwfb	___aldiv@dividend+2,f
  8313     0E2D  0873               	movf	___aldiv@divisor+3,w
  8314     0E2E  3BF7               	subwfb	___aldiv@dividend+3,f
  8315     0E2F                     l2691:
  8316     0E2F  1422               	bsf	___aldiv@quotient,0
  8317     0E30                     l2693:
  8318     0E30  3001               	movlw	1
  8319     0E31                     u2925:
  8320     0E31  36F3               	lsrf	___aldiv@divisor+3,f
  8321     0E32  0CF2               	rrf	___aldiv@divisor+2,f
  8322     0E33  0CF1               	rrf	___aldiv@divisor+1,f
  8323     0E34  0CF0               	rrf	___aldiv@divisor,f
  8324     0E35  0B89               	decfsz	9,f
  8325     0E36  2E31               	goto	u2925
  8326     0E37                     l2695:
  8327     0E37  3001               	movlw	1
  8328     0E38  02A0               	subwf	___aldiv@counter,f
  8329     0E39  1D03               	btfss	3,2
  8330     0E3A  2E3C               	goto	u2931
  8331     0E3B  2E3D               	goto	u2930
  8332     0E3C                     u2931:
  8333     0E3C  2E0E               	goto	l2685
  8334     0E3D                     u2930:
  8335     0E3D                     l2697:
  8336     0E3D  0821               	movf	___aldiv@sign,w
  8337     0E3E  1903               	btfsc	3,2
  8338     0E3F  2E41               	goto	u2941
  8339     0E40  2E42               	goto	u2940
  8340     0E41                     u2941:
  8341     0E41  2E4D               	goto	l2701
  8342     0E42                     u2940:
  8343     0E42                     l2699:
  8344     0E42  09A2               	comf	___aldiv@quotient,f
  8345     0E43  09A3               	comf	___aldiv@quotient+1,f
  8346     0E44  09A4               	comf	___aldiv@quotient+2,f
  8347     0E45  09A5               	comf	___aldiv@quotient+3,f
  8348     0E46  0AA2               	incf	___aldiv@quotient,f
  8349     0E47  1903               	skipnz
  8350     0E48  0AA3               	incf	___aldiv@quotient+1,f
  8351     0E49  1903               	skipnz
  8352     0E4A  0AA4               	incf	___aldiv@quotient+2,f
  8353     0E4B  1903               	skipnz
  8354     0E4C  0AA5               	incf	___aldiv@quotient+3,f
  8355     0E4D                     l2701:
  8356     0E4D  0825               	movf	___aldiv@quotient+3,w
  8357     0E4E  00F3               	movwf	?___aldiv+3
  8358     0E4F  0824               	movf	___aldiv@quotient+2,w
  8359     0E50  00F2               	movwf	?___aldiv+2
  8360     0E51  0823               	movf	___aldiv@quotient+1,w
  8361     0E52  00F1               	movwf	?___aldiv+1
  8362     0E53  0822               	movf	___aldiv@quotient,w
  8363     0E54  00F0               	movwf	?___aldiv
  8364     0E55                     l530:
  8365     0E55  0008               	return
  8366     0E56                     __end_of___aldiv:
  8367                           
  8368                           	psect	text21
  8369     14EB                     __ptext21:	
  8370 ;; *************** function _OLED_UpdateLine *****************
  8371 ;; Defined at:
  8372 ;;		line 370 in file "OLED_SSD1306.c"
  8373 ;; Parameters:    Size  Location     Type
  8374 ;;  page            1    wreg     unsigned char 
  8375 ;; Auto vars:     Size  Location     Type
  8376 ;;  page            1   12[COMMON] unsigned char 
  8377 ;; Return value:  Size  Location     Type
  8378 ;;                  1    wreg      void 
  8379 ;; Registers used:
  8380 ;;		wreg, fsr0l, fsr0h, status,2, status,0, pclath, cstack
  8381 ;; Tracked objects:
  8382 ;;		On entry : 0/0
  8383 ;;		On exit  : 0/0
  8384 ;;		Unchanged: 0/0
  8385 ;; Data sizes:     COMMON   BANK0   BANK1   BANK2   BANK3   BANK4   BANK5   BANK6   BANK7   BANK8   BANK9  BANK10  BANK1
      +1  BANK12  BANK13  BANK14  BANK15  BANK16  BANK17  BANK18  BANK19  BANK20  BANK21  BANK22  BANK23  BANK24  BANK25
  8386 ;;      Params:         0       0       0       0       0       0       0       0       0       0       0       0       
      +0       0       0       0       0       0       0       0       0       0       0       0       0       0       0
  8387 ;;      Locals:         1       0       0       0       0       0       0       0       0       0       0       0       
      +0       0       0       0       0       0       0       0       0       0       0       0       0       0       0
  8388 ;;      Temps:          0       6       0       0       0       0       0       0       0       0       0       0       
      +0       0       0       0       0       0       0       0       0       0       0       0       0       0       0
  8389 ;;      Totals:         1       6       0       0       0       0       0       0       0       0       0       0       
      +0       0       0       0       0       0       0       0       0       0       0       0       0       0       0
  8390 ;;Total ram usage:        7 bytes
  8391 ;; Hardware stack levels used: 1
  8392 ;; Hardware stack levels required when called: 4
  8393 ;; This function calls:
  8394 ;;		_OLED_WriteData
  8395 ;;		_OLED_YX
  8396 ;; This function is called by:
  8397 ;;		_OLED_Printf_Line
  8398 ;; This function uses a non-reentrant model
  8399 ;;
  8400                           
  8401     14EB                     _OLED_UpdateLine:	
  8402                           ;psect for function _OLED_UpdateLine
  8403                           
  8404                           
  8405                           ;incstack = 0
  8406                           ; Regs used in _OLED_UpdateLine: [wreg-fsr0h+status,2+status,0+pclath+cstack]
  8407                           ;OLED_UpdateLine@page stored from wreg
  8408     14EB  00FC               	movwf	OLED_UpdateLine@page
  8409     14EC                     l2593:
  8410                           
  8411                           ;OLED_SSD1306.c: 370: void OLED_UpdateLine(uint8_t page);OLED_SSD1306.c: 371: {;OLED_SSD
      +                          1306.c: 372:     if (page >= (32 / 8)) return;
  8412     14EC  3004               	movlw	4
  8413     14ED  027C               	subwf	OLED_UpdateLine@page,w
  8414     14EE  1C03               	skipc
  8415     14EF  2CF1               	goto	u2721
  8416     14F0  2CF2               	goto	u2720
  8417     14F1                     u2721:
  8418     14F1  2CF3               	goto	l2597
  8419     14F2                     u2720:
  8420     14F2  2D16               	goto	l143
  8421     14F3                     l2597:
  8422                           
  8423                           ;OLED_SSD1306.c: 374:     OLED_YX(page, 0);
  8424     14F3  01F7               	clrf	OLED_YX@col_char
  8425     14F4  087C               	movf	OLED_UpdateLine@page,w
  8426     14F5  3194  243A  3194   	fcall	_OLED_YX
  8427     14F8                     l2599:
  8428                           
  8429                           ;OLED_SSD1306.c: 375:     (void)OLED_WriteData(screen_buffer[page], 128);
  8430     14F8  087C               	movf	OLED_UpdateLine@page,w
  8431     14F9  0020               	movlb	0	; select bank0
  8432     14FA  00A0               	movwf	??_OLED_UpdateLine
  8433     14FB  01A1               	clrf	??_OLED_UpdateLine+1
  8434     14FC  3007               	movlw	7
  8435     14FD                     u2735:
  8436     14FD  35A0               	lslf	??_OLED_UpdateLine,f
  8437     14FE  0DA1               	rlf	??_OLED_UpdateLine+1,f
  8438     14FF  0B89               	decfsz	9,f
  8439     1500  2CFD               	goto	u2735
  8440     1501  30F0               	movlw	240
  8441     1502  00A2               	movwf	??_OLED_UpdateLine+2
  8442     1503  3024               	movlw	36
  8443     1504  00A3               	movwf	??_OLED_UpdateLine+3
  8444     1505  0820               	movf	??_OLED_UpdateLine,w
  8445     1506  0722               	addwf	??_OLED_UpdateLine+2,w
  8446     1507  00A4               	movwf	??_OLED_UpdateLine+4
  8447     1508  0821               	movf	??_OLED_UpdateLine+1,w
  8448     1509  3D23               	addwfc	??_OLED_UpdateLine+3,w
  8449     150A  00A5               	movwf	??_OLED_UpdateLine+5
  8450     150B  0824               	movf	??_OLED_UpdateLine+4,w
  8451     150C  00F5               	movwf	OLED_WriteData@data
  8452     150D  0825               	movf	??_OLED_UpdateLine+5,w
  8453     150E  00F6               	movwf	OLED_WriteData@data+1
  8454     150F  3080               	movlw	128
  8455     1510  00F7               	movwf	OLED_WriteData@len
  8456     1511  3000               	movlw	0
  8457     1512  00F8               	movwf	OLED_WriteData@len+1
  8458     1513  3197  2703  3194   	fcall	_OLED_WriteData
  8459     1516                     l143:
  8460     1516  0008               	return
  8461     1517                     __end_of_OLED_UpdateLine:
  8462                           
  8463                           	psect	text22
  8464     0CD7                     __ptext22:	
  8465 ;; *************** function _OLED_Init *****************
  8466 ;; Defined at:
  8467 ;;		line 298 in file "OLED_SSD1306.c"
  8468 ;; Parameters:    Size  Location     Type
  8469 ;;		None
  8470 ;; Auto vars:     Size  Location     Type
  8471 ;;		None
  8472 ;; Return value:  Size  Location     Type
  8473 ;;                  1    wreg      void 
  8474 ;; Registers used:
  8475 ;;		wreg, fsr0l, fsr0h, fsr1l, fsr1h, status,2, status,0, pclath, cstack
  8476 ;; Tracked objects:
  8477 ;;		On entry : 0/0
  8478 ;;		On exit  : 0/0
  8479 ;;		Unchanged: 0/0
  8480 ;; Data sizes:     COMMON   BANK0   BANK1   BANK2   BANK3   BANK4   BANK5   BANK6   BANK7   BANK8   BANK9  BANK10  BANK1
      +1  BANK12  BANK13  BANK14  BANK15  BANK16  BANK17  BANK18  BANK19  BANK20  BANK21  BANK22  BANK23  BANK24  BANK25
  8481 ;;      Params:         0       0       0       0       0       0       0       0       0       0       0       0       
      +0       0       0       0       0       0       0       0       0       0       0       0       0       0       0
  8482 ;;      Locals:         0       0       0       0       0       0       0       0       0       0       0       0       
      +0       0       0       0       0       0       0       0       0       0       0       0       0       0       0
  8483 ;;      Temps:          1       0       0       0       0       0       0       0       0       0       0       0       
      +0       0       0       0       0       0       0       0       0       0       0       0       0       0       0
  8484 ;;      Totals:         1       0       0       0       0       0       0       0       0       0       0       0       
      +0       0       0       0       0       0       0       0       0       0       0       0       0       0       0
  8485 ;;Total ram usage:        1 bytes
  8486 ;; Hardware stack levels used: 1
  8487 ;; Hardware stack levels required when called: 5
  8488 ;; This function calls:
  8489 ;;		_OLED_Clear
  8490 ;;		_OLED_Command
  8491 ;; This function is called by:
  8492 ;;		_main
  8493 ;; This function uses a non-reentrant model
  8494 ;;
  8495                           
  8496     0CD7                     _OLED_Init:	
  8497                           ;psect for function _OLED_Init
  8498                           
  8499     0CD7                     l2929:	
  8500                           ;incstack = 0
  8501                           ; Regs used in _OLED_Init: [wreg-fsr1h+status,2+status,0+pclath+cstack]
  8502                           
  8503                           
  8504                           ;OLED_SSD1306.c: 300:     _delay((unsigned long)((10)*(32000000/4000.0)));
  8505     0CD7  3068               	movlw	104
  8506     0CD8  00FD               	movwf	??_OLED_Init
  8507     0CD9  30E4               	movlw	228
  8508     0CDA                     u4907:
  8509     0CDA  0B89               	decfsz	9,f
  8510     0CDB  2CDA               	goto	u4907
  8511     0CDC  0BFD               	decfsz	??_OLED_Init,f
  8512     0CDD  2CDA               	goto	u4907
  8513     0CDE  3200               	nop2
  8514     0CDF                     l2931:
  8515                           
  8516                           ;OLED_SSD1306.c: 302:     (void)OLED_Command(0xAE);
  8517     0CDF  30AE               	movlw	174
  8518     0CE0  3195  2544  318C   	fcall	_OLED_Command
  8519     0CE3                     l2933:
  8520                           
  8521                           ;OLED_SSD1306.c: 303:     (void)OLED_Command(0x2E);
  8522     0CE3  302E               	movlw	46
  8523     0CE4  3195  2544  318C   	fcall	_OLED_Command
  8524     0CE7                     l2935:
  8525                           
  8526                           ;OLED_SSD1306.c: 305:     (void)OLED_Command(0xD5);
  8527     0CE7  30D5               	movlw	213
  8528     0CE8  3195  2544  318C   	fcall	_OLED_Command
  8529     0CEB                     l2937:
  8530                           
  8531                           ;OLED_SSD1306.c: 306:     (void)OLED_Command(0x80);
  8532     0CEB  3080               	movlw	128
  8533     0CEC  3195  2544  318C   	fcall	_OLED_Command
  8534     0CEF                     l2939:
  8535                           
  8536                           ;OLED_SSD1306.c: 308:     (void)OLED_Command(0xA8);
  8537     0CEF  30A8               	movlw	168
  8538     0CF0  3195  2544  318C   	fcall	_OLED_Command
  8539     0CF3                     l2941:
  8540                           
  8541                           ;OLED_SSD1306.c: 312:     (void)OLED_Command(0x1F);
  8542     0CF3  301F               	movlw	31
  8543     0CF4  3195  2544  318C   	fcall	_OLED_Command
  8544     0CF7                     l2943:
  8545                           
  8546                           ;OLED_SSD1306.c: 315:     (void)OLED_Command(0xD3);
  8547     0CF7  30D3               	movlw	211
  8548     0CF8  3195  2544  318C   	fcall	_OLED_Command
  8549     0CFB                     l2945:
  8550                           
  8551                           ;OLED_SSD1306.c: 316:     (void)OLED_Command(0x00);
  8552     0CFB  3000               	movlw	0
  8553     0CFC  3195  2544  318C   	fcall	_OLED_Command
  8554     0CFF                     l2947:
  8555                           
  8556                           ;OLED_SSD1306.c: 318:     (void)OLED_Command(0x40 | 0x00);
  8557     0CFF  3040               	movlw	64
  8558     0D00  3195  2544  318C   	fcall	_OLED_Command
  8559     0D03                     l2949:
  8560                           
  8561                           ;OLED_SSD1306.c: 320:     (void)OLED_Command(0x8D);
  8562     0D03  308D               	movlw	141
  8563     0D04  3195  2544  318C   	fcall	_OLED_Command
  8564     0D07                     l2951:
  8565                           
  8566                           ;OLED_SSD1306.c: 321:     (void)OLED_Command(0x14);
  8567     0D07  3014               	movlw	20
  8568     0D08  3195  2544  318C   	fcall	_OLED_Command
  8569     0D0B                     l2953:
  8570                           
  8571                           ;OLED_SSD1306.c: 323:     (void)OLED_Command(0x20);
  8572     0D0B  3020               	movlw	32
  8573     0D0C  3195  2544  318C   	fcall	_OLED_Command
  8574     0D0F                     l2955:
  8575                           
  8576                           ;OLED_SSD1306.c: 324:     (void)OLED_Command(0x02);
  8577     0D0F  3002               	movlw	2
  8578     0D10  3195  2544  318C   	fcall	_OLED_Command
  8579     0D13                     l2957:
  8580                           
  8581                           ;OLED_SSD1306.c: 326:     (void)OLED_Command(0xA0 | 0x01);
  8582     0D13  30A1               	movlw	161
  8583     0D14  3195  2544  318C   	fcall	_OLED_Command
  8584     0D17                     l2959:
  8585                           
  8586                           ;OLED_SSD1306.c: 327:     (void)OLED_Command(0xC8);
  8587     0D17  30C8               	movlw	200
  8588     0D18  3195  2544  318C   	fcall	_OLED_Command
  8589     0D1B                     l2961:
  8590                           
  8591                           ;OLED_SSD1306.c: 329:     (void)OLED_Command(0xDA);
  8592     0D1B  30DA               	movlw	218
  8593     0D1C  3195  2544  318C   	fcall	_OLED_Command
  8594     0D1F                     l2963:
  8595                           
  8596                           ;OLED_SSD1306.c: 333:     (void)OLED_Command(0x02);
  8597     0D1F  3002               	movlw	2
  8598     0D20  3195  2544  318C   	fcall	_OLED_Command
  8599     0D23                     l2965:
  8600                           
  8601                           ;OLED_SSD1306.c: 336:     (void)OLED_Command(0x81);
  8602     0D23  3081               	movlw	129
  8603     0D24  3195  2544  318C   	fcall	_OLED_Command
  8604     0D27                     l2967:
  8605                           
  8606                           ;OLED_SSD1306.c: 337:     (void)OLED_Command(0x8F);
  8607     0D27  308F               	movlw	143
  8608     0D28  3195  2544  318C   	fcall	_OLED_Command
  8609     0D2B                     l2969:
  8610                           
  8611                           ;OLED_SSD1306.c: 339:     (void)OLED_Command(0xD9);
  8612     0D2B  30D9               	movlw	217
  8613     0D2C  3195  2544  318C   	fcall	_OLED_Command
  8614     0D2F                     l2971:
  8615                           
  8616                           ;OLED_SSD1306.c: 340:     (void)OLED_Command(0xF1);
  8617     0D2F  30F1               	movlw	241
  8618     0D30  3195  2544  318C   	fcall	_OLED_Command
  8619     0D33                     l2973:
  8620                           
  8621                           ;OLED_SSD1306.c: 342:     (void)OLED_Command(0xDB);
  8622     0D33  30DB               	movlw	219
  8623     0D34  3195  2544  318C   	fcall	_OLED_Command
  8624     0D37                     l2975:
  8625                           
  8626                           ;OLED_SSD1306.c: 343:     (void)OLED_Command(0x40);
  8627     0D37  3040               	movlw	64
  8628     0D38  3195  2544  318C   	fcall	_OLED_Command
  8629     0D3B                     l2977:
  8630                           
  8631                           ;OLED_SSD1306.c: 345:     (void)OLED_Command(0xA4);
  8632     0D3B  30A4               	movlw	164
  8633     0D3C  3195  2544  318C   	fcall	_OLED_Command
  8634     0D3F                     l2979:
  8635                           
  8636                           ;OLED_SSD1306.c: 346:     (void)OLED_Command(0xA6);
  8637     0D3F  30A6               	movlw	166
  8638     0D40  3195  2544  318C   	fcall	_OLED_Command
  8639     0D43                     l2981:
  8640                           
  8641                           ;OLED_SSD1306.c: 347:     (void)OLED_Command(0xAF);
  8642     0D43  30AF               	movlw	175
  8643     0D44  3195  2544  318C   	fcall	_OLED_Command
  8644     0D47                     l2983:
  8645                           
  8646                           ;OLED_SSD1306.c: 350:     OLED_Clear();
  8647     0D47  3196  26B6  318C   	fcall	_OLED_Clear
  8648     0D4A                     l134:
  8649     0D4A  0008               	return
  8650     0D4B                     __end_of_OLED_Init:
  8651                           
  8652                           	psect	text23
  8653     16B6                     __ptext23:	
  8654 ;; *************** function _OLED_Clear *****************
  8655 ;; Defined at:
  8656 ;;		line 356 in file "OLED_SSD1306.c"
  8657 ;; Parameters:    Size  Location     Type
  8658 ;;		None
  8659 ;; Auto vars:     Size  Location     Type
  8660 ;;  p               1   12[COMMON] unsigned char 
  8661 ;; Return value:  Size  Location     Type
  8662 ;;                  1    wreg      void 
  8663 ;; Registers used:
  8664 ;;		wreg, fsr0l, fsr0h, fsr1l, fsr1h, status,2, status,0, pclath, cstack
  8665 ;; Tracked objects:
  8666 ;;		On entry : 0/0
  8667 ;;		On exit  : 0/0
  8668 ;;		Unchanged: 0/0
  8669 ;; Data sizes:     COMMON   BANK0   BANK1   BANK2   BANK3   BANK4   BANK5   BANK6   BANK7   BANK8   BANK9  BANK10  BANK1
      +1  BANK12  BANK13  BANK14  BANK15  BANK16  BANK17  BANK18  BANK19  BANK20  BANK21  BANK22  BANK23  BANK24  BANK25
  8670 ;;      Params:         0       0       0       0       0       0       0       0       0       0       0       0       
      +0       0       0       0       0       0       0       0       0       0       0       0       0       0       0
  8671 ;;      Locals:         1       0       0       0       0       0       0       0       0       0       0       0       
      +0       0       0       0       0       0       0       0       0       0       0       0       0       0       0
  8672 ;;      Temps:          0       6       0       0       0       0       0       0       0       0       0       0       
      +0       0       0       0       0       0       0       0       0       0       0       0       0       0       0
  8673 ;;      Totals:         1       6       0       0       0       0       0       0       0       0       0       0       
      +0       0       0       0       0       0       0       0       0       0       0       0       0       0       0
  8674 ;;Total ram usage:        7 bytes
  8675 ;; Hardware stack levels used: 1
  8676 ;; Hardware stack levels required when called: 4
  8677 ;; This function calls:
  8678 ;;		_OLED_WriteData
  8679 ;;		_OLED_YX
  8680 ;;		_memset
  8681 ;; This function is called by:
  8682 ;;		_OLED_Init
  8683 ;;		_main
  8684 ;; This function uses a non-reentrant model
  8685 ;;
  8686                           
  8687     16B6                     _OLED_Clear:	
  8688                           ;psect for function _OLED_Clear
  8689                           
  8690     16B6                     l2577:	
  8691                           ;incstack = 0
  8692                           ; Regs used in _OLED_Clear: [wreg-fsr1h+status,2+status,0+pclath+cstack]
  8693                           
  8694                           
  8695                           ;OLED_SSD1306.c: 358:     for (uint8_t p = 0; p < (32 / 8); p++)
  8696     16B6  01FC               	clrf	OLED_Clear@p
  8697     16B7                     l2583:
  8698                           
  8699                           ;OLED_SSD1306.c: 359:     {;OLED_SSD1306.c: 360:         memset(screen_buffer[p], 0, 128
      +                          );
  8700     16B7  087C               	movf	OLED_Clear@p,w
  8701     16B8  0020               	movlb	0	; select bank0
  8702     16B9  00A0               	movwf	??_OLED_Clear
  8703     16BA  01A1               	clrf	??_OLED_Clear+1
  8704     16BB  3007               	movlw	7
  8705     16BC                     u2695:
  8706     16BC  35A0               	lslf	??_OLED_Clear,f
  8707     16BD  0DA1               	rlf	??_OLED_Clear+1,f
  8708     16BE  0B89               	decfsz	9,f
  8709     16BF  2EBC               	goto	u2695
  8710     16C0  30F0               	movlw	240
  8711     16C1  00A2               	movwf	??_OLED_Clear+2
  8712     16C2  3024               	movlw	36
  8713     16C3  00A3               	movwf	??_OLED_Clear+3
  8714     16C4  0820               	movf	??_OLED_Clear,w
  8715     16C5  0722               	addwf	??_OLED_Clear+2,w
  8716     16C6  00F0               	movwf	memset@dest
  8717     16C7  0821               	movf	??_OLED_Clear+1,w
  8718     16C8  3D23               	addwfc	??_OLED_Clear+3,w
  8719     16C9  00F1               	movwf	memset@dest+1
  8720     16CA  3000               	movlw	0
  8721     16CB  00F2               	movwf	memset@c
  8722     16CC  00F3               	movwf	memset@c+1
  8723     16CD  3080               	movlw	128
  8724     16CE  00F4               	movwf	memset@n
  8725     16CF  3000               	movlw	0
  8726     16D0  00F5               	movwf	memset@n+1
  8727     16D1  3194  2400  3196   	fcall	_memset
  8728     16D4                     l2585:
  8729                           
  8730                           ;OLED_SSD1306.c: 362:         OLED_YX(p, 0);
  8731     16D4  01F7               	clrf	OLED_YX@col_char
  8732     16D5  087C               	movf	OLED_Clear@p,w
  8733     16D6  3194  243A  3196   	fcall	_OLED_YX
  8734     16D9                     l2587:
  8735                           
  8736                           ;OLED_SSD1306.c: 363:         (void)OLED_WriteData(screen_buffer[p], 128);
  8737     16D9  087C               	movf	OLED_Clear@p,w
  8738     16DA  0020               	movlb	0	; select bank0
  8739     16DB  00A0               	movwf	??_OLED_Clear
  8740     16DC  01A1               	clrf	??_OLED_Clear+1
  8741     16DD  3007               	movlw	7
  8742     16DE                     u2705:
  8743     16DE  35A0               	lslf	??_OLED_Clear,f
  8744     16DF  0DA1               	rlf	??_OLED_Clear+1,f
  8745     16E0  0B89               	decfsz	9,f
  8746     16E1  2EDE               	goto	u2705
  8747     16E2  30F0               	movlw	240
  8748     16E3  00A2               	movwf	??_OLED_Clear+2
  8749     16E4  3024               	movlw	36
  8750     16E5  00A3               	movwf	??_OLED_Clear+3
  8751     16E6  0820               	movf	??_OLED_Clear,w
  8752     16E7  0722               	addwf	??_OLED_Clear+2,w
  8753     16E8  00A4               	movwf	??_OLED_Clear+4
  8754     16E9  0821               	movf	??_OLED_Clear+1,w
  8755     16EA  3D23               	addwfc	??_OLED_Clear+3,w
  8756     16EB  00A5               	movwf	??_OLED_Clear+5
  8757     16EC  0824               	movf	??_OLED_Clear+4,w
  8758     16ED  00F5               	movwf	OLED_WriteData@data
  8759     16EE  0825               	movf	??_OLED_Clear+5,w
  8760     16EF  00F6               	movwf	OLED_WriteData@data+1
  8761     16F0  3080               	movlw	128
  8762     16F1  00F7               	movwf	OLED_WriteData@len
  8763     16F2  3000               	movlw	0
  8764     16F3  00F8               	movwf	OLED_WriteData@len+1
  8765     16F4  3197  2703  3196   	fcall	_OLED_WriteData
  8766     16F7                     l2589:
  8767                           
  8768                           ;OLED_SSD1306.c: 364:     }
  8769     16F7  3001               	movlw	1
  8770     16F8  0020               	movlb	0	; select bank0
  8771     16F9  00A0               	movwf	??_OLED_Clear
  8772     16FA  0820               	movf	??_OLED_Clear,w
  8773     16FB  07FC               	addwf	OLED_Clear@p,f
  8774     16FC                     l2591:
  8775     16FC  3004               	movlw	4
  8776     16FD  027C               	subwf	OLED_Clear@p,w
  8777     16FE  1C03               	skipc
  8778     16FF  2F01               	goto	u2711
  8779     1700  2F02               	goto	u2710
  8780     1701                     u2711:
  8781     1701  2EB7               	goto	l2583
  8782     1702                     u2710:
  8783     1702                     l139:
  8784     1702  0008               	return
  8785     1703                     __end_of_OLED_Clear:
  8786                           
  8787                           	psect	text24
  8788     1400                     __ptext24:	
  8789 ;; *************** function _memset *****************
  8790 ;; Defined at:
  8791 ;;		line 3 in file "C:\Program Files\Microchip\xc8\v2.46\pic\sources\c99\common\memset.c"
  8792 ;; Parameters:    Size  Location     Type
  8793 ;;  dest            2    0[COMMON] PTR void 
  8794 ;;		 -> screen_buffer(512), 
  8795 ;;  c               2    2[COMMON] int 
  8796 ;;  n               2    4[COMMON] unsigned int 
  8797 ;; Auto vars:     Size  Location     Type
  8798 ;;  p               2    6[COMMON] PTR unsigned char 
  8799 ;;		 -> screen_buffer(512), 
  8800 ;; Return value:  Size  Location     Type
  8801 ;;                  2    0[COMMON] PTR void 
  8802 ;; Registers used:
  8803 ;;		wreg, fsr1l, fsr1h, status,2, status,0
  8804 ;; Tracked objects:
  8805 ;;		On entry : 0/0
  8806 ;;		On exit  : 0/0
  8807 ;;		Unchanged: 0/0
  8808 ;; Data sizes:     COMMON   BANK0   BANK1   BANK2   BANK3   BANK4   BANK5   BANK6   BANK7   BANK8   BANK9  BANK10  BANK1
      +1  BANK12  BANK13  BANK14  BANK15  BANK16  BANK17  BANK18  BANK19  BANK20  BANK21  BANK22  BANK23  BANK24  BANK25
  8809 ;;      Params:         6       0       0       0       0       0       0       0       0       0       0       0       
      +0       0       0       0       0       0       0       0       0       0       0       0       0       0       0
  8810 ;;      Locals:         2       0       0       0       0       0       0       0       0       0       0       0       
      +0       0       0       0       0       0       0       0       0       0       0       0       0       0       0
  8811 ;;      Temps:          0       0       0       0       0       0       0       0       0       0       0       0       
      +0       0       0       0       0       0       0       0       0       0       0       0       0       0       0
  8812 ;;      Totals:         8       0       0       0       0       0       0       0       0       0       0       0       
      +0       0       0       0       0       0       0       0       0       0       0       0       0       0       0
  8813 ;;Total ram usage:        8 bytes
  8814 ;; Hardware stack levels used: 1
  8815 ;; This function calls:
  8816 ;;		Nothing
  8817 ;; This function is called by:
  8818 ;;		_OLED_Clear
  8819 ;;		_OLED_Printf_Line
  8820 ;; This function uses a non-reentrant model
  8821 ;;
  8822                           
  8823     1400                     _memset:	
  8824                           ;psect for function _memset
  8825                           
  8826     1400                     l2567:	
  8827                           ;incstack = 0
  8828                           ; Regs used in _memset: [wreg+fsr1l+fsr1h+status,2+status,0]
  8829                           
  8830     1400  0871               	movf	memset@dest+1,w
  8831     1401  00F7               	movwf	memset@p+1
  8832     1402  0870               	movf	memset@dest,w
  8833     1403  00F6               	movwf	memset@p
  8834     1404  2C0F               	goto	l2573
  8835     1405                     l2569:
  8836     1405  0876               	movf	memset@p,w
  8837     1406  0086               	movwf	6
  8838     1407  0877               	movf	memset@p+1,w
  8839     1408  0087               	movwf	7
  8840     1409  0872               	movf	memset@c,w
  8841     140A  0081               	movwf	1
  8842     140B                     l2571:
  8843     140B  3001               	movlw	1
  8844     140C  07F6               	addwf	memset@p,f
  8845     140D  3000               	movlw	0
  8846     140E  3DF7               	addwfc	memset@p+1,f
  8847     140F                     l2573:
  8848     140F  3001               	movlw	1
  8849     1410  02F4               	subwf	memset@n,f
  8850     1411  3000               	movlw	0
  8851     1412  3BF5               	subwfb	memset@n+1,f
  8852     1413  0A74               	incf	memset@n,w
  8853     1414  1D03               	skipz
  8854     1415  2C1A               	goto	u2681
  8855     1416  0A75               	incf	memset@n+1,w
  8856     1417  1D03               	btfss	3,2
  8857     1418  2C1A               	goto	u2681
  8858     1419  2C1B               	goto	u2680
  8859     141A                     u2681:
  8860     141A  2C05               	goto	l2569
  8861     141B                     u2680:
  8862     141B                     l923:
  8863     141B  0008               	return
  8864     141C                     __end_of_memset:
  8865                           
  8866                           	psect	text25
  8867     143A                     __ptext25:	
  8868 ;; *************** function _OLED_YX *****************
  8869 ;; Defined at:
  8870 ;;		line 283 in file "OLED_SSD1306.c"
  8871 ;; Parameters:    Size  Location     Type
  8872 ;;  page            1    wreg     unsigned char 
  8873 ;;  col_char        1    7[COMMON] unsigned char 
  8874 ;; Auto vars:     Size  Location     Type
  8875 ;;  page            1    9[COMMON] unsigned char 
  8876 ;;  col             1   10[COMMON] unsigned char 
  8877 ;; Return value:  Size  Location     Type
  8878 ;;                  1    wreg      void 
  8879 ;; Registers used:
  8880 ;;		wreg, status,2, status,0, pclath, cstack
  8881 ;; Tracked objects:
  8882 ;;		On entry : 0/0
  8883 ;;		On exit  : 0/0
  8884 ;;		Unchanged: 0/0
  8885 ;; Data sizes:     COMMON   BANK0   BANK1   BANK2   BANK3   BANK4   BANK5   BANK6   BANK7   BANK8   BANK9  BANK10  BANK1
      +1  BANK12  BANK13  BANK14  BANK15  BANK16  BANK17  BANK18  BANK19  BANK20  BANK21  BANK22  BANK23  BANK24  BANK25
  8886 ;;      Params:         1       0       0       0       0       0       0       0       0       0       0       0       
      +0       0       0       0       0       0       0       0       0       0       0       0       0       0       0
  8887 ;;      Locals:         2       0       0       0       0       0       0       0       0       0       0       0       
      +0       0       0       0       0       0       0       0       0       0       0       0       0       0       0
  8888 ;;      Temps:          1       0       0       0       0       0       0       0       0       0       0       0       
      +0       0       0       0       0       0       0       0       0       0       0       0       0       0       0
  8889 ;;      Totals:         4       0       0       0       0       0       0       0       0       0       0       0       
      +0       0       0       0       0       0       0       0       0       0       0       0       0       0       0
  8890 ;;Total ram usage:        4 bytes
  8891 ;; Hardware stack levels used: 1
  8892 ;; Hardware stack levels required when called: 3
  8893 ;; This function calls:
  8894 ;;		_OLED_Command
  8895 ;; This function is called by:
  8896 ;;		_OLED_Clear
  8897 ;;		_OLED_UpdateLine
  8898 ;;		_OLED_WriteString
  8899 ;; This function uses a non-reentrant model
  8900 ;;
  8901                           
  8902     143A                     _OLED_YX:	
  8903                           ;psect for function _OLED_YX
  8904                           
  8905                           
  8906                           ;incstack = 0
  8907                           ; Regs used in _OLED_YX: [wreg+status,2+status,0+pclath+cstack]
  8908                           ;OLED_YX@page stored from wreg
  8909     143A  00F9               	movwf	OLED_YX@page
  8910     143B                     l2559:
  8911                           
  8912                           ;OLED_SSD1306.c: 283: void OLED_YX(uint8_t page, uint8_t col_char);OLED_SSD1306.c: 284: 
      +                          {;OLED_SSD1306.c: 285:     uint8_t col = (uint8_t)(col_char * 8);
  8913     143B  0877               	movf	OLED_YX@col_char,w
  8914     143C  00F8               	movwf	??_OLED_YX
  8915     143D  3002               	movlw	2
  8916     143E                     u2665:
  8917     143E  35F8               	lslf	??_OLED_YX,f
  8918     143F  3EFF               	addlw	-1
  8919     1440  1D03               	skipz
  8920     1441  2C3E               	goto	u2665
  8921     1442  3578               	lslf	??_OLED_YX,w
  8922     1443  00FA               	movwf	OLED_YX@col
  8923     1444                     l2561:
  8924                           
  8925                           ;OLED_SSD1306.c: 287:     (void)OLED_Command(0xB0 | (page & 0x07));
  8926     1444  0879               	movf	OLED_YX@page,w
  8927     1445  3907               	andlw	7
  8928     1446  38B0               	iorlw	176
  8929     1447  3195  2544  3194   	fcall	_OLED_Command
  8930     144A                     l2563:
  8931                           
  8932                           ;OLED_SSD1306.c: 288:     (void)OLED_Command(0x00 | (col & 0x0F));
  8933     144A  087A               	movf	OLED_YX@col,w
  8934     144B  390F               	andlw	15
  8935     144C  3195  2544  3194   	fcall	_OLED_Command
  8936     144F                     l2565:
  8937                           
  8938                           ;OLED_SSD1306.c: 289:     (void)OLED_Command(0x10 | ((col >> 4) & 0x0F));
  8939     144F  087A               	movf	OLED_YX@col,w
  8940     1450  00F8               	movwf	??_OLED_YX
  8941     1451  3004               	movlw	4
  8942     1452                     u2675:
  8943     1452  36F8               	lsrf	??_OLED_YX,f
  8944     1453  0B89               	decfsz	9,f
  8945     1454  2C52               	goto	u2675
  8946     1455  0878               	movf	??_OLED_YX,w
  8947     1456  390F               	andlw	15
  8948     1457  3810               	iorlw	16
  8949     1458  3195  2544  3194   	fcall	_OLED_Command
  8950     145B                     l131:
  8951     145B  0008               	return
  8952     145C                     __end_of_OLED_YX:
  8953                           
  8954                           	psect	text26
  8955     1544                     __ptext26:	
  8956 ;; *************** function _OLED_Command *****************
  8957 ;; Defined at:
  8958 ;;		line 190 in file "OLED_SSD1306.c"
  8959 ;; Parameters:    Size  Location     Type
  8960 ;;  cmd             1    wreg     unsigned char 
  8961 ;; Auto vars:     Size  Location     Type
  8962 ;;  cmd             1    5[COMMON] unsigned char 
  8963 ;;  st              1    6[COMMON] enum E6043
  8964 ;; Return value:  Size  Location     Type
  8965 ;;                  1    wreg      enum E6043
  8966 ;; Registers used:
  8967 ;;		wreg, status,2, status,0, pclath, cstack
  8968 ;; Tracked objects:
  8969 ;;		On entry : 0/0
  8970 ;;		On exit  : 0/0
  8971 ;;		Unchanged: 0/0
  8972 ;; Data sizes:     COMMON   BANK0   BANK1   BANK2   BANK3   BANK4   BANK5   BANK6   BANK7   BANK8   BANK9  BANK10  BANK1
      +1  BANK12  BANK13  BANK14  BANK15  BANK16  BANK17  BANK18  BANK19  BANK20  BANK21  BANK22  BANK23  BANK24  BANK25
  8973 ;;      Params:         0       0       0       0       0       0       0       0       0       0       0       0       
      +0       0       0       0       0       0       0       0       0       0       0       0       0       0       0
  8974 ;;      Locals:         2       0       0       0       0       0       0       0       0       0       0       0       
      +0       0       0       0       0       0       0       0       0       0       0       0       0       0       0
  8975 ;;      Temps:          0       0       0       0       0       0       0       0       0       0       0       0       
      +0       0       0       0       0       0       0       0       0       0       0       0       0       0       0
  8976 ;;      Totals:         2       0       0       0       0       0       0       0       0       0       0       0       
      +0       0       0       0       0       0       0       0       0       0       0       0       0       0       0
  8977 ;;Total ram usage:        2 bytes
  8978 ;; Hardware stack levels used: 1
  8979 ;; Hardware stack levels required when called: 2
  8980 ;; This function calls:
  8981 ;;		_I2C_Start
  8982 ;;		_I2C_Stop
  8983 ;;		_I2C_WriteByte
  8984 ;;		_SSD1306_CtrlW
  8985 ;; This function is called by:
  8986 ;;		_OLED_SetOrientation
  8987 ;;		_OLED_YX
  8988 ;;		_OLED_Init
  8989 ;;		_OLED_UpdatePartialLine
  8990 ;; This function uses a non-reentrant model
  8991 ;;
  8992                           
  8993     1544                     _OLED_Command:	
  8994                           ;psect for function _OLED_Command
  8995                           
  8996                           
  8997                           ;incstack = 0
  8998                           ; Regs used in _OLED_Command: [wreg+status,2+status,0+pclath+cstack]
  8999                           ;OLED_Command@cmd stored from wreg
  9000     1544  00F5               	movwf	OLED_Command@cmd
  9001     1545                     l2491:
  9002                           
  9003                           ;OLED_SSD1306.c: 190: static I2C_Status_t OLED_Command(uint8_t cmd);OLED_SSD1306.c: 191:
      +                           {;OLED_SSD1306.c: 192:     I2C_Status_t st;;OLED_SSD1306.c: 194:     st = I2C_Start();
  9004     1545  3194  24C6  3195   	fcall	_I2C_Start
  9005     1548  00F6               	movwf	OLED_Command@st
  9006     1549                     l2493:
  9007                           
  9008                           ;OLED_SSD1306.c: 195:     if (st != I2C_OK) return st;
  9009     1549  0876               	movf	OLED_Command@st,w
  9010     154A  1903               	btfsc	3,2
  9011     154B  2D4D               	goto	u2571
  9012     154C  2D4E               	goto	u2570
  9013     154D                     u2571:
  9014     154D  2D4F               	goto	l2497
  9015     154E                     u2570:
  9016     154E  2D71               	goto	l105
  9017     154F                     l2497:
  9018                           
  9019                           ;OLED_SSD1306.c: 197:     st = I2C_WriteByte(SSD1306_CtrlW());
  9020     154F  3193  23A9  3195   	fcall	_SSD1306_CtrlW
  9021     1552  3195  2572  3195   	fcall	_I2C_WriteByte
  9022     1555  00F6               	movwf	OLED_Command@st
  9023     1556                     l2499:
  9024                           
  9025                           ;OLED_SSD1306.c: 198:     if (st != I2C_OK) { I2C_Stop(); return st; }
  9026     1556  0876               	movf	OLED_Command@st,w
  9027     1557  1903               	btfsc	3,2
  9028     1558  2D5A               	goto	u2581
  9029     1559  2D5B               	goto	u2580
  9030     155A                     u2581:
  9031     155A  2D5F               	goto	l2505
  9032     155B                     u2580:
  9033     155B                     l2501:
  9034     155B  3194  245C  3195   	fcall	_I2C_Stop
  9035     155E  2D71               	goto	l105
  9036     155F                     l2505:
  9037                           
  9038                           ;OLED_SSD1306.c: 200:     st = I2C_WriteByte(0x00);
  9039     155F  3000               	movlw	0
  9040     1560  3195  2572  3195   	fcall	_I2C_WriteByte
  9041     1563  00F6               	movwf	OLED_Command@st
  9042     1564                     l2507:
  9043                           
  9044                           ;OLED_SSD1306.c: 201:     if (st != I2C_OK) { I2C_Stop(); return st; }
  9045     1564  0876               	movf	OLED_Command@st,w
  9046     1565  1903               	btfsc	3,2
  9047     1566  2D68               	goto	u2591
  9048     1567  2D69               	goto	u2590
  9049     1568                     u2591:
  9050     1568  2D6A               	goto	l2513
  9051     1569                     u2590:
  9052     1569  2D5B               	goto	l2501
  9053     156A                     l2513:
  9054     156A  0875               	movf	OLED_Command@cmd,w
  9055     156B  3195  2572  3195   	fcall	_I2C_WriteByte
  9056                           
  9057                           ;OLED_SSD1306.c: 204:     I2C_Stop();
  9058     156E  3194  245C  3195   	fcall	_I2C_Stop
  9059     1571                     l105:
  9060     1571  0008               	return
  9061     1572                     __end_of_OLED_Command:
  9062                           
  9063                           	psect	text27
  9064     1703                     __ptext27:	
  9065 ;; *************** function _OLED_WriteData *****************
  9066 ;; Defined at:
  9067 ;;		line 215 in file "OLED_SSD1306.c"
  9068 ;; Parameters:    Size  Location     Type
  9069 ;;  data            2    5[COMMON] PTR const unsigned char 
  9070 ;;		 -> OledFont(768), screen_buffer(512), 
  9071 ;;  len             2    7[COMMON] unsigned short 
  9072 ;; Auto vars:     Size  Location     Type
  9073 ;;  i               2    9[COMMON] unsigned short 
  9074 ;;  st              1   11[COMMON] enum E6043
  9075 ;; Return value:  Size  Location     Type
  9076 ;;                  1    wreg      enum E6043
  9077 ;; Registers used:
  9078 ;;		wreg, fsr0l, fsr0h, status,2, status,0, pclath, cstack
  9079 ;; Tracked objects:
  9080 ;;		On entry : 0/0
  9081 ;;		On exit  : 0/0
  9082 ;;		Unchanged: 0/0
  9083 ;; Data sizes:     COMMON   BANK0   BANK1   BANK2   BANK3   BANK4   BANK5   BANK6   BANK7   BANK8   BANK9  BANK10  BANK1
      +1  BANK12  BANK13  BANK14  BANK15  BANK16  BANK17  BANK18  BANK19  BANK20  BANK21  BANK22  BANK23  BANK24  BANK25
  9084 ;;      Params:         4       0       0       0       0       0       0       0       0       0       0       0       
      +0       0       0       0       0       0       0       0       0       0       0       0       0       0       0
  9085 ;;      Locals:         3       0       0       0       0       0       0       0       0       0       0       0       
      +0       0       0       0       0       0       0       0       0       0       0       0       0       0       0
  9086 ;;      Temps:          0       0       0       0       0       0       0       0       0       0       0       0       
      +0       0       0       0       0       0       0       0       0       0       0       0       0       0       0
  9087 ;;      Totals:         7       0       0       0       0       0       0       0       0       0       0       0       
      +0       0       0       0       0       0       0       0       0       0       0       0       0       0       0
  9088 ;;Total ram usage:        7 bytes
  9089 ;; Hardware stack levels used: 1
  9090 ;; Hardware stack levels required when called: 2
  9091 ;; This function calls:
  9092 ;;		_I2C_Start
  9093 ;;		_I2C_Stop
  9094 ;;		_I2C_WriteByte
  9095 ;;		_SSD1306_CtrlW
  9096 ;; This function is called by:
  9097 ;;		_OLED_Clear
  9098 ;;		_OLED_UpdateLine
  9099 ;;		_OLED_UpdatePartialLine
  9100 ;;		_OLED_WriteString
  9101 ;; This function uses a non-reentrant model
  9102 ;;
  9103                           
  9104     1703                     _OLED_WriteData:	
  9105                           ;psect for function _OLED_WriteData
  9106                           
  9107     1703                     l2517:	
  9108                           ;incstack = 0
  9109                           ; Regs used in _OLED_WriteData: [wreg-fsr0h+status,2+status,0+pclath+cstack]
  9110                           
  9111                           
  9112                           ;OLED_SSD1306.c: 215: static I2C_Status_t OLED_WriteData(const uint8_t* data, uint16_t l
      +                          en);OLED_SSD1306.c: 216: {;OLED_SSD1306.c: 217:     I2C_Status_t st;;OLED_SSD1306.c: 219
      +                          :     if (data == ((void*)0)) return I2C_TIMEOUT;
  9113     1703  0875               	movf	OLED_WriteData@data,w
  9114     1704  0476               	iorwf	OLED_WriteData@data+1,w
  9115     1705  1D03               	btfss	3,2
  9116     1706  2F08               	goto	u2601
  9117     1707  2F09               	goto	u2600
  9118     1708                     u2601:
  9119     1708  2F0A               	goto	l2521
  9120     1709                     u2600:
  9121     1709  2F52               	goto	l111
  9122     170A                     l2521:
  9123                           
  9124                           ;OLED_SSD1306.c: 221:     st = I2C_Start();
  9125     170A  3194  24C6  3197   	fcall	_I2C_Start
  9126     170D  00FB               	movwf	OLED_WriteData@st
  9127     170E                     l2523:
  9128                           
  9129                           ;OLED_SSD1306.c: 222:     if (st != I2C_OK) return st;
  9130     170E  087B               	movf	OLED_WriteData@st,w
  9131     170F  1903               	btfsc	3,2
  9132     1710  2F12               	goto	u2611
  9133     1711  2F13               	goto	u2610
  9134     1712                     u2611:
  9135     1712  2F14               	goto	l2527
  9136     1713                     u2610:
  9137     1713  2F52               	goto	l111
  9138     1714                     l2527:
  9139                           
  9140                           ;OLED_SSD1306.c: 224:     st = I2C_WriteByte(SSD1306_CtrlW());
  9141     1714  3193  23A9  3197   	fcall	_SSD1306_CtrlW
  9142     1717  3195  2572  3197   	fcall	_I2C_WriteByte
  9143     171A  00FB               	movwf	OLED_WriteData@st
  9144     171B                     l2529:
  9145                           
  9146                           ;OLED_SSD1306.c: 225:     if (st != I2C_OK) { I2C_Stop(); return st; }
  9147     171B  087B               	movf	OLED_WriteData@st,w
  9148     171C  1903               	btfsc	3,2
  9149     171D  2F1F               	goto	u2621
  9150     171E  2F20               	goto	u2620
  9151     171F                     u2621:
  9152     171F  2F24               	goto	l2535
  9153     1720                     u2620:
  9154     1720                     l2531:
  9155     1720  3194  245C  3197   	fcall	_I2C_Stop
  9156     1723  2F52               	goto	l111
  9157     1724                     l2535:
  9158                           
  9159                           ;OLED_SSD1306.c: 227:     st = I2C_WriteByte(0x40);
  9160     1724  3040               	movlw	64
  9161     1725  3195  2572  3197   	fcall	_I2C_WriteByte
  9162     1728  00FB               	movwf	OLED_WriteData@st
  9163     1729                     l2537:
  9164                           
  9165                           ;OLED_SSD1306.c: 228:     if (st != I2C_OK) { I2C_Stop(); return st; }
  9166     1729  087B               	movf	OLED_WriteData@st,w
  9167     172A  1903               	btfsc	3,2
  9168     172B  2F2D               	goto	u2631
  9169     172C  2F2E               	goto	u2630
  9170     172D                     u2631:
  9171     172D  2F2F               	goto	l2543
  9172     172E                     u2630:
  9173     172E  2F20               	goto	l2531
  9174     172F                     l2543:
  9175                           
  9176                           ;OLED_SSD1306.c: 230:     for (uint16_t i = 0; i < len; i++)
  9177     172F  01F9               	clrf	OLED_WriteData@i
  9178     1730  01FA               	clrf	OLED_WriteData@i+1
  9179     1731  2F47               	goto	l115
  9180     1732                     l2545:
  9181                           
  9182                           ;OLED_SSD1306.c: 231:     {;OLED_SSD1306.c: 232:         st = I2C_WriteByte(data[i]);
  9183     1732  0875               	movf	OLED_WriteData@data,w
  9184     1733  0779               	addwf	OLED_WriteData@i,w
  9185     1734  0084               	movwf	4
  9186     1735  0876               	movf	OLED_WriteData@data+1,w
  9187     1736  3D7A               	addwfc	OLED_WriteData@i+1,w
  9188     1737  0085               	movwf	5
  9189     1738  0800               	movf	0,w	;code access
  9190     1739  3195  2572  3197   	fcall	_I2C_WriteByte
  9191     173C  00FB               	movwf	OLED_WriteData@st
  9192     173D                     l2547:
  9193                           
  9194                           ;OLED_SSD1306.c: 233:         if (st != I2C_OK) { I2C_Stop(); return st; }
  9195     173D  087B               	movf	OLED_WriteData@st,w
  9196     173E  1903               	btfsc	3,2
  9197     173F  2F41               	goto	u2641
  9198     1740  2F42               	goto	u2640
  9199     1741                     u2641:
  9200     1741  2F43               	goto	l2553
  9201     1742                     u2640:
  9202     1742  2F20               	goto	l2531
  9203     1743                     l2553:
  9204                           
  9205                           ;OLED_SSD1306.c: 234:     }
  9206     1743  3001               	movlw	1
  9207     1744  07F9               	addwf	OLED_WriteData@i,f
  9208     1745  3000               	movlw	0
  9209     1746  3DFA               	addwfc	OLED_WriteData@i+1,f
  9210     1747                     l115:
  9211     1747  0878               	movf	OLED_WriteData@len+1,w
  9212     1748  027A               	subwf	OLED_WriteData@i+1,w
  9213     1749  1D03               	skipz
  9214     174A  2F4D               	goto	u2655
  9215     174B  0877               	movf	OLED_WriteData@len,w
  9216     174C  0279               	subwf	OLED_WriteData@i,w
  9217     174D                     u2655:
  9218     174D  1C03               	skipc
  9219     174E  2F50               	goto	u2651
  9220     174F  2F51               	goto	u2650
  9221     1750                     u2651:
  9222     1750  2F32               	goto	l2545
  9223     1751                     u2650:
  9224     1751  2F20               	goto	l2531
  9225     1752                     l111:
  9226     1752  0008               	return
  9227     1753                     __end_of_OLED_WriteData:
  9228                           
  9229                           	psect	text28
  9230     13A9                     __ptext28:	
  9231 ;; *************** function _SSD1306_CtrlW *****************
  9232 ;; Defined at:
  9233 ;;		line 182 in file "OLED_SSD1306.c"
  9234 ;; Parameters:    Size  Location     Type
  9235 ;;		None
  9236 ;; Auto vars:     Size  Location     Type
  9237 ;;		None
  9238 ;; Return value:  Size  Location     Type
  9239 ;;                  1    wreg      unsigned char 
  9240 ;; Registers used:
  9241 ;;		wreg
  9242 ;; Tracked objects:
  9243 ;;		On entry : 0/0
  9244 ;;		On exit  : 0/0
  9245 ;;		Unchanged: 0/0
  9246 ;; Data sizes:     COMMON   BANK0   BANK1   BANK2   BANK3   BANK4   BANK5   BANK6   BANK7   BANK8   BANK9  BANK10  BANK1
      +1  BANK12  BANK13  BANK14  BANK15  BANK16  BANK17  BANK18  BANK19  BANK20  BANK21  BANK22  BANK23  BANK24  BANK25
  9247 ;;      Params:         0       0       0       0       0       0       0       0       0       0       0       0       
      +0       0       0       0       0       0       0       0       0       0       0       0       0       0       0
  9248 ;;      Locals:         0       0       0       0       0       0       0       0       0       0       0       0       
      +0       0       0       0       0       0       0       0       0       0       0       0       0       0       0
  9249 ;;      Temps:          0       0       0       0       0       0       0       0       0       0       0       0       
      +0       0       0       0       0       0       0       0       0       0       0       0       0       0       0
  9250 ;;      Totals:         0       0       0       0       0       0       0       0       0       0       0       0       
      +0       0       0       0       0       0       0       0       0       0       0       0       0       0       0
  9251 ;;Total ram usage:        0 bytes
  9252 ;; Hardware stack levels used: 1
  9253 ;; This function calls:
  9254 ;;		Nothing
  9255 ;; This function is called by:
  9256 ;;		_OLED_Command
  9257 ;;		_OLED_WriteData
  9258 ;; This function uses a non-reentrant model
  9259 ;;
  9260                           
  9261     13A9                     _SSD1306_CtrlW:	
  9262                           ;psect for function _SSD1306_CtrlW
  9263                           
  9264     13A9                     l2487:	
  9265                           ;incstack = 0
  9266                           ; Regs used in _SSD1306_CtrlW: [wreg]
  9267                           
  9268     13A9  3078               	movlw	120
  9269     13AA                     l101:
  9270     13AA  0008               	return
  9271     13AB                     __end_of_SSD1306_CtrlW:
  9272                           
  9273                           	psect	text29
  9274     1572                     __ptext29:	
  9275 ;; *************** function _I2C_WriteByte *****************
  9276 ;; Defined at:
  9277 ;;		line 161 in file "I2C.c"
  9278 ;; Parameters:    Size  Location     Type
  9279 ;;  data            1    wreg     unsigned char 
  9280 ;; Auto vars:     Size  Location     Type
  9281 ;;  data            1    3[COMMON] unsigned char 
  9282 ;;  st              1    4[COMMON] enum E6036
  9283 ;; Return value:  Size  Location     Type
  9284 ;;                  1    wreg      enum E6036
  9285 ;; Registers used:
  9286 ;;		wreg, status,2, status,0, pclath, cstack
  9287 ;; Tracked objects:
  9288 ;;		On entry : 0/0
  9289 ;;		On exit  : 0/0
  9290 ;;		Unchanged: 0/0
  9291 ;; Data sizes:     COMMON   BANK0   BANK1   BANK2   BANK3   BANK4   BANK5   BANK6   BANK7   BANK8   BANK9  BANK10  BANK1
      +1  BANK12  BANK13  BANK14  BANK15  BANK16  BANK17  BANK18  BANK19  BANK20  BANK21  BANK22  BANK23  BANK24  BANK25
  9292 ;;      Params:         0       0       0       0       0       0       0       0       0       0       0       0       
      +0       0       0       0       0       0       0       0       0       0       0       0       0       0       0
  9293 ;;      Locals:         2       0       0       0       0       0       0       0       0       0       0       0       
      +0       0       0       0       0       0       0       0       0       0       0       0       0       0       0
  9294 ;;      Temps:          0       0       0       0       0       0       0       0       0       0       0       0       
      +0       0       0       0       0       0       0       0       0       0       0       0       0       0       0
  9295 ;;      Totals:         2       0       0       0       0       0       0       0       0       0       0       0       
      +0       0       0       0       0       0       0       0       0       0       0       0       0       0       0
  9296 ;;Total ram usage:        2 bytes
  9297 ;; Hardware stack levels used: 1
  9298 ;; Hardware stack levels required when called: 1
  9299 ;; This function calls:
  9300 ;;		_I2C_WaitIF
  9301 ;;		_I2C_WaitIdle
  9302 ;; This function is called by:
  9303 ;;		_OLED_Command
  9304 ;;		_OLED_WriteData
  9305 ;; This function uses a non-reentrant model
  9306 ;;
  9307                           
  9308     1572                     _I2C_WriteByte:	
  9309                           ;psect for function _I2C_WriteByte
  9310                           
  9311                           
  9312                           ;incstack = 0
  9313                           ; Regs used in _I2C_WriteByte: [wreg+status,2+status,0+pclath+cstack]
  9314                           ;I2C_WriteByte@data stored from wreg
  9315     1572  00F3               	movwf	I2C_WriteByte@data
  9316     1573                     l2459:
  9317                           
  9318                           ;I2C.c: 161: I2C_Status_t I2C_WriteByte(uint8_t data);I2C.c: 162: {;I2C.c: 163:     I2C_
      +                          Status_t st;;I2C.c: 165:     st = I2C_WaitIdle(50);
  9319     1573  3032               	movlw	50
  9320     1574  00F0               	movwf	I2C_WaitIdle@timeout_ms
  9321     1575  3000               	movlw	0
  9322     1576  00F1               	movwf	I2C_WaitIdle@timeout_ms+1
  9323     1577  3194  24A2  3195   	fcall	_I2C_WaitIdle
  9324     157A  00F4               	movwf	I2C_WriteByte@st
  9325     157B                     l2461:
  9326                           
  9327                           ;I2C.c: 166:     if (st != I2C_OK) return st;
  9328     157B  0874               	movf	I2C_WriteByte@st,w
  9329     157C  1903               	btfsc	3,2
  9330     157D  2D7F               	goto	u2541
  9331     157E  2D80               	goto	u2540
  9332     157F                     u2541:
  9333     157F  2D82               	goto	l60
  9334     1580                     u2540:
  9335     1580                     l2463:
  9336     1580  0874               	movf	I2C_WriteByte@st,w
  9337     1581  2DA3               	goto	l61
  9338     1582                     l60:
  9339                           
  9340                           ;I2C.c: 168:     PIR1bits.SSP1IF = 0;
  9341     1582  0020               	movlb	0	; select bank0
  9342     1583  1191               	bcf	17,3	;volatile
  9343     1584                     l2467:
  9344                           
  9345                           ;I2C.c: 169:     SSPBUF = data;
  9346     1584  0873               	movf	I2C_WriteByte@data,w
  9347     1585  0024               	movlb	4	; select bank4
  9348     1586  0091               	movwf	17	;volatile
  9349     1587                     l2469:
  9350                           
  9351                           ;I2C.c: 171:     st = I2C_WaitIF(50);
  9352     1587  3032               	movlw	50
  9353     1588  00F0               	movwf	I2C_WaitIF@timeout_ms
  9354     1589  3000               	movlw	0
  9355     158A  00F1               	movwf	I2C_WaitIF@timeout_ms+1
  9356     158B  3194  241C  3195   	fcall	_I2C_WaitIF
  9357     158E  00F4               	movwf	I2C_WriteByte@st
  9358     158F                     l2471:
  9359                           
  9360                           ;I2C.c: 172:     if (st != I2C_OK) return st;
  9361     158F  0874               	movf	I2C_WriteByte@st,w
  9362     1590  1903               	btfsc	3,2
  9363     1591  2D93               	goto	u2551
  9364     1592  2D94               	goto	u2550
  9365     1593                     u2551:
  9366     1593  2D95               	goto	l62
  9367     1594                     u2550:
  9368     1594  2D80               	goto	l2463
  9369     1595                     l62:
  9370                           
  9371                           ;I2C.c: 175:     if (PIR2bits.BCL1IF)
  9372     1595  0020               	movlb	0	; select bank0
  9373     1596  1D92               	btfss	18,3	;volatile
  9374     1597  2D99               	goto	u2561
  9375     1598  2D9A               	goto	u2560
  9376     1599                     u2561:
  9377     1599  2D9D               	goto	l63
  9378     159A                     u2560:
  9379     159A                     l2477:
  9380                           
  9381                           ;I2C.c: 176:     {;I2C.c: 177:         PIR2bits.BCL1IF = 0;
  9382     159A  1192               	bcf	18,3	;volatile
  9383     159B                     l2479:
  9384                           
  9385                           ;I2C.c: 178:         return I2C_BUS_COLLISION;
  9386     159B  3003               	movlw	3
  9387     159C  2DA3               	goto	l61
  9388     159D                     l63:	
  9389                           ;I2C.c: 179:     }
  9390                           
  9391                           
  9392                           ;I2C.c: 182:     PIR1bits.SSP1IF = 0;
  9393     159D  1191               	bcf	17,3	;volatile
  9394     159E                     l2483:
  9395                           
  9396                           ;I2C.c: 183:     return (SSPCON2bits.ACKSTAT == 0) ? I2C_OK : I2C_NAK;
  9397     159E  0024               	movlb	4	; select bank4
  9398     159F  0E16               	swapf	22,w	;volatile
  9399     15A0  0C89               	rrf	9,f
  9400     15A1  0C89               	rrf	9,f
  9401     15A2  3901               	andlw	1
  9402     15A3                     l61:
  9403     15A3  0008               	return
  9404     15A4                     __end_of_I2C_WriteByte:
  9405                           
  9406                           	psect	text30
  9407     145C                     __ptext30:	
  9408 ;; *************** function _I2C_Stop *****************
  9409 ;; Defined at:
  9410 ;;		line 138 in file "I2C.c"
  9411 ;; Parameters:    Size  Location     Type
  9412 ;;		None
  9413 ;; Auto vars:     Size  Location     Type
  9414 ;;  st              1    3[COMMON] enum E6036
  9415 ;; Return value:  Size  Location     Type
  9416 ;;                  1    wreg      enum E6036
  9417 ;; Registers used:
  9418 ;;		wreg, status,2, status,0, pclath, cstack
  9419 ;; Tracked objects:
  9420 ;;		On entry : 0/0
  9421 ;;		On exit  : 0/0
  9422 ;;		Unchanged: 0/0
  9423 ;; Data sizes:     COMMON   BANK0   BANK1   BANK2   BANK3   BANK4   BANK5   BANK6   BANK7   BANK8   BANK9  BANK10  BANK1
      +1  BANK12  BANK13  BANK14  BANK15  BANK16  BANK17  BANK18  BANK19  BANK20  BANK21  BANK22  BANK23  BANK24  BANK25
  9424 ;;      Params:         0       0       0       0       0       0       0       0       0       0       0       0       
      +0       0       0       0       0       0       0       0       0       0       0       0       0       0       0
  9425 ;;      Locals:         1       0       0       0       0       0       0       0       0       0       0       0       
      +0       0       0       0       0       0       0       0       0       0       0       0       0       0       0
  9426 ;;      Temps:          0       0       0       0       0       0       0       0       0       0       0       0       
      +0       0       0       0       0       0       0       0       0       0       0       0       0       0       0
  9427 ;;      Totals:         1       0       0       0       0       0       0       0       0       0       0       0       
      +0       0       0       0       0       0       0       0       0       0       0       0       0       0       0
  9428 ;;Total ram usage:        1 bytes
  9429 ;; Hardware stack levels used: 1
  9430 ;; Hardware stack levels required when called: 1
  9431 ;; This function calls:
  9432 ;;		_I2C_WaitIF
  9433 ;;		_I2C_WaitIdle
  9434 ;; This function is called by:
  9435 ;;		_OLED_Command
  9436 ;;		_OLED_WriteData
  9437 ;; This function uses a non-reentrant model
  9438 ;;
  9439                           
  9440     145C                     _I2C_Stop:	
  9441                           ;psect for function _I2C_Stop
  9442                           
  9443     145C                     l2447:	
  9444                           ;incstack = 0
  9445                           ; Regs used in _I2C_Stop: [wreg+status,2+status,0+pclath+cstack]
  9446                           
  9447                           
  9448                           ;I2C.c: 140:     I2C_Status_t st;;I2C.c: 142:     st = I2C_WaitIdle(50);
  9449     145C  3032               	movlw	50
  9450     145D  00F0               	movwf	I2C_WaitIdle@timeout_ms
  9451     145E  3000               	movlw	0
  9452     145F  00F1               	movwf	I2C_WaitIdle@timeout_ms+1
  9453     1460  3194  24A2  3194   	fcall	_I2C_WaitIdle
  9454     1463  00F3               	movwf	I2C_Stop@st
  9455     1464                     l2449:
  9456                           
  9457                           ;I2C.c: 143:     if (st != I2C_OK) return st;
  9458     1464  0873               	movf	I2C_Stop@st,w
  9459     1465  1903               	btfsc	3,2
  9460     1466  2C68               	goto	u2521
  9461     1467  2C69               	goto	u2520
  9462     1468                     u2521:
  9463     1468  2C6A               	goto	l55
  9464     1469                     u2520:
  9465     1469  2C7E               	goto	l56
  9466     146A                     l55:
  9467                           
  9468                           ;I2C.c: 145:     PIR1bits.SSP1IF = 0;
  9469     146A  0020               	movlb	0	; select bank0
  9470     146B  1191               	bcf	17,3	;volatile
  9471                           
  9472                           ;I2C.c: 146:     SSPCON2bits.PEN = 1;
  9473     146C  0024               	movlb	4	; select bank4
  9474     146D  1516               	bsf	22,2	;volatile
  9475     146E                     l2453:
  9476                           
  9477                           ;I2C.c: 148:     st = I2C_WaitIF(50);
  9478     146E  3032               	movlw	50
  9479     146F  00F0               	movwf	I2C_WaitIF@timeout_ms
  9480     1470  3000               	movlw	0
  9481     1471  00F1               	movwf	I2C_WaitIF@timeout_ms+1
  9482     1472  3194  241C  3194   	fcall	_I2C_WaitIF
  9483     1475  00F3               	movwf	I2C_Stop@st
  9484     1476                     l2455:
  9485                           
  9486                           ;I2C.c: 149:     if (st != I2C_OK) return st;
  9487     1476  0873               	movf	I2C_Stop@st,w
  9488     1477  1903               	btfsc	3,2
  9489     1478  2C7A               	goto	u2531
  9490     1479  2C7B               	goto	u2530
  9491     147A                     u2531:
  9492     147A  2C7C               	goto	l57
  9493     147B                     u2530:
  9494     147B  2C7E               	goto	l56
  9495     147C                     l57:
  9496                           
  9497                           ;I2C.c: 151:     PIR1bits.SSP1IF = 0;
  9498     147C  0020               	movlb	0	; select bank0
  9499     147D  1191               	bcf	17,3	;volatile
  9500     147E                     l56:	
  9501                           ;I2C.c: 152:     return I2C_OK;;	Return value of _I2C_Stop is never used
  9502                           
  9503     147E  0008               	return
  9504     147F                     __end_of_I2C_Stop:
  9505                           
  9506                           	psect	text31
  9507     14C6                     __ptext31:	
  9508 ;; *************** function _I2C_Start *****************
  9509 ;; Defined at:
  9510 ;;		line 98 in file "I2C.c"
  9511 ;; Parameters:    Size  Location     Type
  9512 ;;		None
  9513 ;; Auto vars:     Size  Location     Type
  9514 ;;  st              1    3[COMMON] enum E6036
  9515 ;; Return value:  Size  Location     Type
  9516 ;;                  1    wreg      enum E6036
  9517 ;; Registers used:
  9518 ;;		wreg, status,2, status,0, pclath, cstack
  9519 ;; Tracked objects:
  9520 ;;		On entry : 0/0
  9521 ;;		On exit  : 0/0
  9522 ;;		Unchanged: 0/0
  9523 ;; Data sizes:     COMMON   BANK0   BANK1   BANK2   BANK3   BANK4   BANK5   BANK6   BANK7   BANK8   BANK9  BANK10  BANK1
      +1  BANK12  BANK13  BANK14  BANK15  BANK16  BANK17  BANK18  BANK19  BANK20  BANK21  BANK22  BANK23  BANK24  BANK25
  9524 ;;      Params:         0       0       0       0       0       0       0       0       0       0       0       0       
      +0       0       0       0       0       0       0       0       0       0       0       0       0       0       0
  9525 ;;      Locals:         1       0       0       0       0       0       0       0       0       0       0       0       
      +0       0       0       0       0       0       0       0       0       0       0       0       0       0       0
  9526 ;;      Temps:          0       0       0       0       0       0       0       0       0       0       0       0       
      +0       0       0       0       0       0       0       0       0       0       0       0       0       0       0
  9527 ;;      Totals:         1       0       0       0       0       0       0       0       0       0       0       0       
      +0       0       0       0       0       0       0       0       0       0       0       0       0       0       0
  9528 ;;Total ram usage:        1 bytes
  9529 ;; Hardware stack levels used: 1
  9530 ;; Hardware stack levels required when called: 1
  9531 ;; This function calls:
  9532 ;;		_I2C_WaitIF
  9533 ;;		_I2C_WaitIdle
  9534 ;; This function is called by:
  9535 ;;		_OLED_Command
  9536 ;;		_OLED_WriteData
  9537 ;; This function uses a non-reentrant model
  9538 ;;
  9539                           
  9540     14C6                     _I2C_Start:	
  9541                           ;psect for function _I2C_Start
  9542                           
  9543     14C6                     l2427:	
  9544                           ;incstack = 0
  9545                           ; Regs used in _I2C_Start: [wreg+status,2+status,0+pclath+cstack]
  9546                           
  9547                           
  9548                           ;I2C.c: 100:     I2C_Status_t st;;I2C.c: 102:     st = I2C_WaitIdle(50);
  9549     14C6  3032               	movlw	50
  9550     14C7  00F0               	movwf	I2C_WaitIdle@timeout_ms
  9551     14C8  3000               	movlw	0
  9552     14C9  00F1               	movwf	I2C_WaitIdle@timeout_ms+1
  9553     14CA  3194  24A2  3194   	fcall	_I2C_WaitIdle
  9554     14CD  00F3               	movwf	I2C_Start@st
  9555     14CE                     l2429:
  9556                           
  9557                           ;I2C.c: 103:     if (st != I2C_OK) return st;
  9558     14CE  0873               	movf	I2C_Start@st,w
  9559     14CF  1903               	btfsc	3,2
  9560     14D0  2CD2               	goto	u2501
  9561     14D1  2CD3               	goto	u2500
  9562     14D2                     u2501:
  9563     14D2  2CD5               	goto	l45
  9564     14D3                     u2500:
  9565     14D3                     l2431:
  9566     14D3  0873               	movf	I2C_Start@st,w
  9567     14D4  2CEA               	goto	l46
  9568     14D5                     l45:
  9569                           
  9570                           ;I2C.c: 105:     PIR1bits.SSP1IF = 0;
  9571     14D5  0020               	movlb	0	; select bank0
  9572     14D6  1191               	bcf	17,3	;volatile
  9573                           
  9574                           ;I2C.c: 106:     SSPCON2bits.SEN = 1;
  9575     14D7  0024               	movlb	4	; select bank4
  9576     14D8  1416               	bsf	22,0	;volatile
  9577     14D9                     l2435:
  9578                           
  9579                           ;I2C.c: 108:     st = I2C_WaitIF(50);
  9580     14D9  3032               	movlw	50
  9581     14DA  00F0               	movwf	I2C_WaitIF@timeout_ms
  9582     14DB  3000               	movlw	0
  9583     14DC  00F1               	movwf	I2C_WaitIF@timeout_ms+1
  9584     14DD  3194  241C  3194   	fcall	_I2C_WaitIF
  9585     14E0  00F3               	movwf	I2C_Start@st
  9586     14E1                     l2437:
  9587                           
  9588                           ;I2C.c: 109:     if (st != I2C_OK) return st;
  9589     14E1  0873               	movf	I2C_Start@st,w
  9590     14E2  1903               	btfsc	3,2
  9591     14E3  2CE5               	goto	u2511
  9592     14E4  2CE6               	goto	u2510
  9593     14E5                     u2511:
  9594     14E5  2CE7               	goto	l47
  9595     14E6                     u2510:
  9596     14E6  2CD3               	goto	l2431
  9597     14E7                     l47:
  9598                           
  9599                           ;I2C.c: 111:     PIR1bits.SSP1IF = 0;
  9600     14E7  0020               	movlb	0	; select bank0
  9601     14E8  1191               	bcf	17,3	;volatile
  9602     14E9                     l2443:
  9603                           
  9604                           ;I2C.c: 112:     return I2C_OK;
  9605     14E9  3000               	movlw	0
  9606     14EA                     l46:
  9607     14EA  0008               	return
  9608     14EB                     __end_of_I2C_Start:
  9609                           
  9610                           	psect	text32
  9611     14A2                     __ptext32:	
  9612 ;; *************** function _I2C_WaitIdle *****************
  9613 ;; Defined at:
  9614 ;;		line 81 in file "I2C.c"
  9615 ;; Parameters:    Size  Location     Type
  9616 ;;  timeout_ms      2    0[COMMON] unsigned short 
  9617 ;; Auto vars:     Size  Location     Type
  9618 ;;		None
  9619 ;; Return value:  Size  Location     Type
  9620 ;;                  1    wreg      enum E6036
  9621 ;; Registers used:
  9622 ;;		wreg, status,2, status,0
  9623 ;; Tracked objects:
  9624 ;;		On entry : 0/0
  9625 ;;		On exit  : 0/0
  9626 ;;		Unchanged: 0/0
  9627 ;; Data sizes:     COMMON   BANK0   BANK1   BANK2   BANK3   BANK4   BANK5   BANK6   BANK7   BANK8   BANK9  BANK10  BANK1
      +1  BANK12  BANK13  BANK14  BANK15  BANK16  BANK17  BANK18  BANK19  BANK20  BANK21  BANK22  BANK23  BANK24  BANK25
  9628 ;;      Params:         2       0       0       0       0       0       0       0       0       0       0       0       
      +0       0       0       0       0       0       0       0       0       0       0       0       0       0       0
  9629 ;;      Locals:         0       0       0       0       0       0       0       0       0       0       0       0       
      +0       0       0       0       0       0       0       0       0       0       0       0       0       0       0
  9630 ;;      Temps:          1       0       0       0       0       0       0       0       0       0       0       0       
      +0       0       0       0       0       0       0       0       0       0       0       0       0       0       0
  9631 ;;      Totals:         3       0       0       0       0       0       0       0       0       0       0       0       
      +0       0       0       0       0       0       0       0       0       0       0       0       0       0       0
  9632 ;;Total ram usage:        3 bytes
  9633 ;; Hardware stack levels used: 1
  9634 ;; This function calls:
  9635 ;;		Nothing
  9636 ;; This function is called by:
  9637 ;;		_I2C_Start
  9638 ;;		_I2C_Stop
  9639 ;;		_I2C_WriteByte
  9640 ;;		_I2C_RepeatedStart
  9641 ;;		_I2C_ReadByte
  9642 ;; This function uses a non-reentrant model
  9643 ;;
  9644                           
  9645     14A2                     _I2C_WaitIdle:	
  9646                           ;psect for function _I2C_WaitIdle
  9647                           
  9648     14A2                     l2409:	
  9649                           ;incstack = 0
  9650                           ; Regs used in _I2C_WaitIdle: [wreg+status,2+status,0]
  9651                           
  9652                           
  9653                           ;I2C.c: 81: I2C_Status_t I2C_WaitIdle(uint16_t timeout_ms);I2C.c: 82: {;I2C.c: 83:     w
      +                          hile (timeout_ms--)
  9654     14A2  2CB8               	goto	l2421
  9655     14A3                     l2411:
  9656                           
  9657                           ;I2C.c: 84:     {;I2C.c: 87:         if ((SSPCON2 & 0x1F) == 0 && SSPSTATbits.R_nW == 0)
  9658     14A3  0024               	movlb	4	; select bank4
  9659     14A4  0816               	movf	22,w	;volatile
  9660     14A5  391F               	andlw	31
  9661     14A6  1D03               	btfss	3,2
  9662     14A7  2CA9               	goto	u2471
  9663     14A8  2CAA               	goto	u2470
  9664     14A9                     u2471:
  9665     14A9  2CB0               	goto	l2419
  9666     14AA                     u2470:
  9667     14AA                     l2413:
  9668     14AA  1914               	btfsc	20,2	;volatile
  9669     14AB  2CAD               	goto	u2481
  9670     14AC  2CAE               	goto	u2480
  9671     14AD                     u2481:
  9672     14AD  2CB0               	goto	l2419
  9673     14AE                     u2480:
  9674     14AE                     l2415:
  9675                           
  9676                           ;I2C.c: 88:             return I2C_OK;
  9677     14AE  3000               	movlw	0
  9678     14AF  2CC5               	goto	l41
  9679     14B0                     l2419:
  9680                           
  9681                           ;I2C.c: 90:         _delay((unsigned long)((1)*(32000000/4000.0)));
  9682     14B0  300B               	movlw	11
  9683     14B1  00F2               	movwf	??_I2C_WaitIdle
  9684     14B2  3062               	movlw	98
  9685     14B3                     u4917:
  9686     14B3  0B89               	decfsz	9,f
  9687     14B4  2CB3               	goto	u4917
  9688     14B5  0BF2               	decfsz	??_I2C_WaitIdle,f
  9689     14B6  2CB3               	goto	u4917
  9690     14B7  3200               	nop2
  9691     14B8                     l2421:
  9692                           
  9693                           ;I2C.c: 83:     while (timeout_ms--)
  9694     14B8  3001               	movlw	1
  9695     14B9  02F0               	subwf	I2C_WaitIdle@timeout_ms,f
  9696     14BA  3000               	movlw	0
  9697     14BB  3BF1               	subwfb	I2C_WaitIdle@timeout_ms+1,f
  9698     14BC  0A70               	incf	I2C_WaitIdle@timeout_ms,w
  9699     14BD  1D03               	skipz
  9700     14BE  2CC3               	goto	u2491
  9701     14BF  0A71               	incf	I2C_WaitIdle@timeout_ms+1,w
  9702     14C0  1D03               	btfss	3,2
  9703     14C1  2CC3               	goto	u2491
  9704     14C2  2CC4               	goto	u2490
  9705     14C3                     u2491:
  9706     14C3  2CA3               	goto	l2411
  9707     14C4                     u2490:
  9708     14C4                     l2423:
  9709                           
  9710                           ;I2C.c: 92:     return I2C_TIMEOUT;
  9711     14C4  3002               	movlw	2
  9712     14C5                     l41:
  9713     14C5  0008               	return
  9714     14C6                     __end_of_I2C_WaitIdle:
  9715                           
  9716                           	psect	text33
  9717     141C                     __ptext33:	
  9718 ;; *************** function _I2C_WaitIF *****************
  9719 ;; Defined at:
  9720 ;;		line 23 in file "I2C.c"
  9721 ;; Parameters:    Size  Location     Type
  9722 ;;  timeout_ms      2    0[COMMON] unsigned short 
  9723 ;; Auto vars:     Size  Location     Type
  9724 ;;		None
  9725 ;; Return value:  Size  Location     Type
  9726 ;;                  1    wreg      enum E6036
  9727 ;; Registers used:
  9728 ;;		wreg, status,2, status,0
  9729 ;; Tracked objects:
  9730 ;;		On entry : 0/0
  9731 ;;		On exit  : 0/0
  9732 ;;		Unchanged: 0/0
  9733 ;; Data sizes:     COMMON   BANK0   BANK1   BANK2   BANK3   BANK4   BANK5   BANK6   BANK7   BANK8   BANK9  BANK10  BANK1
      +1  BANK12  BANK13  BANK14  BANK15  BANK16  BANK17  BANK18  BANK19  BANK20  BANK21  BANK22  BANK23  BANK24  BANK25
  9734 ;;      Params:         2       0       0       0       0       0       0       0       0       0       0       0       
      +0       0       0       0       0       0       0       0       0       0       0       0       0       0       0
  9735 ;;      Locals:         0       0       0       0       0       0       0       0       0       0       0       0       
      +0       0       0       0       0       0       0       0       0       0       0       0       0       0       0
  9736 ;;      Temps:          1       0       0       0       0       0       0       0       0       0       0       0       
      +0       0       0       0       0       0       0       0       0       0       0       0       0       0       0
  9737 ;;      Totals:         3       0       0       0       0       0       0       0       0       0       0       0       
      +0       0       0       0       0       0       0       0       0       0       0       0       0       0       0
  9738 ;;Total ram usage:        3 bytes
  9739 ;; Hardware stack levels used: 1
  9740 ;; This function calls:
  9741 ;;		Nothing
  9742 ;; This function is called by:
  9743 ;;		_I2C_Start
  9744 ;;		_I2C_Stop
  9745 ;;		_I2C_WriteByte
  9746 ;;		_I2C_RepeatedStart
  9747 ;;		_I2C_ReadByte
  9748 ;; This function uses a non-reentrant model
  9749 ;;
  9750                           
  9751     141C                     _I2C_WaitIF:	
  9752                           ;psect for function _I2C_WaitIF
  9753                           
  9754     141C                     l2395:	
  9755                           ;incstack = 0
  9756                           ; Regs used in _I2C_WaitIF: [wreg+status,2+status,0]
  9757                           
  9758                           
  9759                           ;I2C.c: 23: static I2C_Status_t I2C_WaitIF(uint16_t timeout_ms);I2C.c: 24: {;I2C.c: 25: 
      +                              while (timeout_ms--)
  9760     141C  2C2C               	goto	l2403
  9761     141D                     l26:
  9762                           
  9763                           ;I2C.c: 26:     {;I2C.c: 27:         if (PIR1bits.SSP1IF)
  9764     141D  0020               	movlb	0	; select bank0
  9765     141E  1D91               	btfss	17,3	;volatile
  9766     141F  2C21               	goto	u2451
  9767     1420  2C22               	goto	u2450
  9768     1421                     u2451:
  9769     1421  2C24               	goto	l2401
  9770     1422                     u2450:
  9771     1422                     l2397:
  9772                           
  9773                           ;I2C.c: 28:             return I2C_OK;
  9774     1422  3000               	movlw	0
  9775     1423  2C39               	goto	l28
  9776     1424                     l2401:
  9777                           
  9778                           ;I2C.c: 30:         _delay((unsigned long)((1)*(32000000/4000.0)));
  9779     1424  300B               	movlw	11
  9780     1425  00F2               	movwf	??_I2C_WaitIF
  9781     1426  3062               	movlw	98
  9782     1427                     u4927:
  9783     1427  0B89               	decfsz	9,f
  9784     1428  2C27               	goto	u4927
  9785     1429  0BF2               	decfsz	??_I2C_WaitIF,f
  9786     142A  2C27               	goto	u4927
  9787     142B  3200               	nop2
  9788     142C                     l2403:
  9789                           
  9790                           ;I2C.c: 25:     while (timeout_ms--)
  9791     142C  3001               	movlw	1
  9792     142D  02F0               	subwf	I2C_WaitIF@timeout_ms,f
  9793     142E  3000               	movlw	0
  9794     142F  3BF1               	subwfb	I2C_WaitIF@timeout_ms+1,f
  9795     1430  0A70               	incf	I2C_WaitIF@timeout_ms,w
  9796     1431  1D03               	skipz
  9797     1432  2C37               	goto	u2461
  9798     1433  0A71               	incf	I2C_WaitIF@timeout_ms+1,w
  9799     1434  1D03               	btfss	3,2
  9800     1435  2C37               	goto	u2461
  9801     1436  2C38               	goto	u2460
  9802     1437                     u2461:
  9803     1437  2C1D               	goto	l26
  9804     1438                     u2460:
  9805     1438                     l2405:
  9806                           
  9807                           ;I2C.c: 32:     return I2C_TIMEOUT;
  9808     1438  3002               	movlw	2
  9809     1439                     l28:
  9810     1439  0008               	return
  9811     143A                     __end_of_I2C_WaitIF:
  9812                           
  9813                           	psect	text34
  9814     13D1                     __ptext34:	
  9815 ;; *************** function _I2C_Init *****************
  9816 ;; Defined at:
  9817 ;;		line 41 in file "I2C.c"
  9818 ;; Parameters:    Size  Location     Type
  9819 ;;		None
  9820 ;; Auto vars:     Size  Location     Type
  9821 ;;		None
  9822 ;; Return value:  Size  Location     Type
  9823 ;;                  1    wreg      void 
  9824 ;; Registers used:
  9825 ;;		wreg, status,2, status,0, pclath, cstack
  9826 ;; Tracked objects:
  9827 ;;		On entry : 0/0
  9828 ;;		On exit  : 0/0
  9829 ;;		Unchanged: 0/0
  9830 ;; Data sizes:     COMMON   BANK0   BANK1   BANK2   BANK3   BANK4   BANK5   BANK6   BANK7   BANK8   BANK9  BANK10  BANK1
      +1  BANK12  BANK13  BANK14  BANK15  BANK16  BANK17  BANK18  BANK19  BANK20  BANK21  BANK22  BANK23  BANK24  BANK25
  9831 ;;      Params:         0       0       0       0       0       0       0       0       0       0       0       0       
      +0       0       0       0       0       0       0       0       0       0       0       0       0       0       0
  9832 ;;      Locals:         0       0       0       0       0       0       0       0       0       0       0       0       
      +0       0       0       0       0       0       0       0       0       0       0       0       0       0       0
  9833 ;;      Temps:          1       0       0       0       0       0       0       0       0       0       0       0       
      +0       0       0       0       0       0       0       0       0       0       0       0       0       0       0
  9834 ;;      Totals:         1       0       0       0       0       0       0       0       0       0       0       0       
      +0       0       0       0       0       0       0       0       0       0       0       0       0       0       0
  9835 ;;Total ram usage:        1 bytes
  9836 ;; Hardware stack levels used: 1
  9837 ;; Hardware stack levels required when called: 1
  9838 ;; This function calls:
  9839 ;;		_I2C_ClearErrors
  9840 ;; This function is called by:
  9841 ;;		_main
  9842 ;; This function uses a non-reentrant model
  9843 ;;
  9844                           
  9845     13D1                     _I2C_Init:	
  9846                           ;psect for function _I2C_Init
  9847                           
  9848     13D1                     l2901:	
  9849                           ;incstack = 0
  9850                           ; Regs used in _I2C_Init: [wreg+status,2+status,0+pclath+cstack]
  9851                           
  9852                           
  9853                           ;I2C.c: 44:     SSPCONbits.SSPM = 0x08;
  9854     13D1  0024               	movlb	4	; select bank4
  9855     13D2  0815               	movf	21,w	;volatile
  9856     13D3  39F0               	andlw	-16
  9857     13D4  3808               	iorlw	8
  9858     13D5  0095               	movwf	21	;volatile
  9859     13D6                     l2903:
  9860                           
  9861                           ;I2C.c: 47:     SSPCONbits.SSPEN = 1;
  9862     13D6  1695               	bsf	21,5	;volatile
  9863     13D7                     l2905:
  9864                           
  9865                           ;I2C.c: 50:     SSPADD = 79;
  9866     13D7  304F               	movlw	79
  9867     13D8  0092               	movwf	18	;volatile
  9868     13D9                     l2907:
  9869                           
  9870                           ;I2C.c: 52:     I2C_ClearErrors();
  9871     13D9  3193  23AB  3193   	fcall	_I2C_ClearErrors
  9872     13DC                     l2909:
  9873                           
  9874                           ;I2C.c: 53:     _delay((unsigned long)((10)*(32000000/4000.0)));
  9875     13DC  3068               	movlw	104
  9876     13DD  00F0               	movwf	??_I2C_Init
  9877     13DE  30E4               	movlw	228
  9878     13DF                     u4937:
  9879     13DF  0B89               	decfsz	9,f
  9880     13E0  2BDF               	goto	u4937
  9881     13E1  0BF0               	decfsz	??_I2C_Init,f
  9882     13E2  2BDF               	goto	u4937
  9883     13E3  3200               	nop2
  9884     13E4                     l32:
  9885     13E4  0008               	return
  9886     13E5                     __end_of_I2C_Init:
  9887                           
  9888                           	psect	text35
  9889     13AB                     __ptext35:	
  9890 ;; *************** function _I2C_ClearErrors *****************
  9891 ;; Defined at:
  9892 ;;		line 62 in file "I2C.c"
  9893 ;; Parameters:    Size  Location     Type
  9894 ;;		None
  9895 ;; Auto vars:     Size  Location     Type
  9896 ;;		None
  9897 ;; Return value:  Size  Location     Type
  9898 ;;                  1    wreg      void 
  9899 ;; Registers used:
  9900 ;;		None
  9901 ;; Tracked objects:
  9902 ;;		On entry : 0/0
  9903 ;;		On exit  : 0/0
  9904 ;;		Unchanged: 0/0
  9905 ;; Data sizes:     COMMON   BANK0   BANK1   BANK2   BANK3   BANK4   BANK5   BANK6   BANK7   BANK8   BANK9  BANK10  BANK1
      +1  BANK12  BANK13  BANK14  BANK15  BANK16  BANK17  BANK18  BANK19  BANK20  BANK21  BANK22  BANK23  BANK24  BANK25
  9906 ;;      Params:         0       0       0       0       0       0       0       0       0       0       0       0       
      +0       0       0       0       0       0       0       0       0       0       0       0       0       0       0
  9907 ;;      Locals:         0       0       0       0       0       0       0       0       0       0       0       0       
      +0       0       0       0       0       0       0       0       0       0       0       0       0       0       0
  9908 ;;      Temps:          0       0       0       0       0       0       0       0       0       0       0       0       
      +0       0       0       0       0       0       0       0       0       0       0       0       0       0       0
  9909 ;;      Totals:         0       0       0       0       0       0       0       0       0       0       0       0       
      +0       0       0       0       0       0       0       0       0       0       0       0       0       0       0
  9910 ;;Total ram usage:        0 bytes
  9911 ;; Hardware stack levels used: 1
  9912 ;; This function calls:
  9913 ;;		Nothing
  9914 ;; This function is called by:
  9915 ;;		_I2C_Init
  9916 ;; This function uses a non-reentrant model
  9917 ;;
  9918                           
  9919     13AB                     _I2C_ClearErrors:	
  9920                           ;psect for function _I2C_ClearErrors
  9921                           
  9922     13AB                     l2575:	
  9923                           ;incstack = 0
  9924                           ; Regs used in _I2C_ClearErrors: []
  9925                           
  9926                           
  9927                           ;I2C.c: 65:     SSPCON1bits.SSPOV = 0;
  9928     13AB  0024               	movlb	4	; select bank4
  9929     13AC  1315               	bcf	21,6	;volatile
  9930                           
  9931                           ;I2C.c: 66:     SSPCON1bits.WCOL = 0;
  9932     13AD  1395               	bcf	21,7	;volatile
  9933                           
  9934                           ;I2C.c: 69:     PIR2bits.BCL1IF = 0;
  9935     13AE  0020               	movlb	0	; select bank0
  9936     13AF  1192               	bcf	18,3	;volatile
  9937                           
  9938                           ;I2C.c: 72:     PIR1bits.SSP1IF = 0;
  9939     13B0  1191               	bcf	17,3	;volatile
  9940     13B1                     l35:
  9941     13B1  0008               	return
  9942     13B2                     __end_of_I2C_ClearErrors:
  9943                           
  9944                           	psect	text36
  9945     0BFA                     __ptext36:	
  9946 ;; *************** function _ADC_Read_Averaged *****************
  9947 ;; Defined at:
  9948 ;;		line 99 in file "./ADC.h"
  9949 ;; Parameters:    Size  Location     Type
  9950 ;;  channel         1    wreg     enum E6091
  9951 ;;  samples         1    0[BANK0 ] unsigned char 
  9952 ;; Auto vars:     Size  Location     Type
  9953 ;;  channel         1    6[BANK0 ] enum E6091
  9954 ;;  i               1   11[BANK0 ] unsigned char 
  9955 ;;  sum             4    7[BANK0 ] unsigned long 
  9956 ;; Return value:  Size  Location     Type
  9957 ;;                  2    0[BANK0 ] unsigned short 
  9958 ;; Registers used:
  9959 ;;		wreg, status,2, status,0, pclath, cstack
  9960 ;; Tracked objects:
  9961 ;;		On entry : 0/0
  9962 ;;		On exit  : 0/0
  9963 ;;		Unchanged: 0/0
  9964 ;; Data sizes:     COMMON   BANK0   BANK1   BANK2   BANK3   BANK4   BANK5   BANK6   BANK7   BANK8   BANK9  BANK10  BANK1
      +1  BANK12  BANK13  BANK14  BANK15  BANK16  BANK17  BANK18  BANK19  BANK20  BANK21  BANK22  BANK23  BANK24  BANK25
  9965 ;;      Params:         0       2       0       0       0       0       0       0       0       0       0       0       
      +0       0       0       0       0       0       0       0       0       0       0       0       0       0       0
  9966 ;;      Locals:         0       6       0       0       0       0       0       0       0       0       0       0       
      +0       0       0       0       0       0       0       0       0       0       0       0       0       0       0
  9967 ;;      Temps:          0       4       0       0       0       0       0       0       0       0       0       0       
      +0       0       0       0       0       0       0       0       0       0       0       0       0       0       0
  9968 ;;      Totals:         0      12       0       0       0       0       0       0       0       0       0       0       
      +0       0       0       0       0       0       0       0       0       0       0       0       0       0       0
  9969 ;;Total ram usage:       12 bytes
  9970 ;; Hardware stack levels used: 1
  9971 ;; Hardware stack levels required when called: 1
  9972 ;; This function calls:
  9973 ;;		___lldiv
  9974 ;; This function is called by:
  9975 ;;		_main
  9976 ;; This function uses a non-reentrant model
  9977 ;;
  9978                           
  9979     0BFA                     _ADC_Read_Averaged:	
  9980                           ;psect for function _ADC_Read_Averaged
  9981                           
  9982                           
  9983                           ;incstack = 0
  9984                           ; Regs used in _ADC_Read_Averaged: [wreg+status,2+status,0+pclath+cstack]
  9985                           ;ADC_Read_Averaged@channel stored from wreg
  9986     0BFA  0020               	movlb	0	; select bank0
  9987     0BFB  00A6               	movwf	ADC_Read_Averaged@channel
  9988     0BFC                     l3233:
  9989                           
  9990                           ;./ADC.h: 99: uint16_t ADC_Read_Averaged(adc_channel_t channel, uint8_t samples);./ADC.h
      +                          : 100: {;./ADC.h: 101:     uint32_t sum = 0;
  9991     0BFC  3000               	movlw	0
  9992     0BFD  00AA               	movwf	ADC_Read_Averaged@sum+3
  9993     0BFE  3000               	movlw	0
  9994     0BFF  00A9               	movwf	ADC_Read_Averaged@sum+2
  9995     0C00  3000               	movlw	0
  9996     0C01  00A8               	movwf	ADC_Read_Averaged@sum+1
  9997     0C02  3000               	movlw	0
  9998     0C03  00A7               	movwf	ADC_Read_Averaged@sum
  9999     0C04                     l3235:
 10000                           
 10001                           ;./ADC.h: 104:     ADCON0bits.CHS = (uint8_t)channel;
 10002     0C04  0826               	movf	ADC_Read_Averaged@channel,w
 10003     0C05  00A2               	movwf	??_ADC_Read_Averaged
 10004     0C06  0DA2               	rlf	??_ADC_Read_Averaged,f
 10005     0C07  0DA2               	rlf	??_ADC_Read_Averaged,f
 10006     0C08  0021               	movlb	1	; select bank1
 10007     0C09  081D               	movf	29,w	;volatile
 10008     0C0A  0020               	movlb	0	; select bank0
 10009     0C0B  0622               	xorwf	??_ADC_Read_Averaged,w
 10010     0C0C  3983               	andlw	-125
 10011     0C0D  0622               	xorwf	??_ADC_Read_Averaged,w
 10012     0C0E  0021               	movlb	1	; select bank1
 10013     0C0F  009D               	movwf	29	;volatile
 10014     0C10                     l3237:
 10015                           
 10016                           ;./ADC.h: 105:     ADCON0bits.ADON = 1;
 10017     0C10  141D               	bsf	29,0	;volatile
 10018     0C11                     l3239:
 10019                           
 10020                           ;./ADC.h: 106:     _delay((unsigned long)((20)*(32000000/4000000.0)));
 10021     0C11  3035               	movlw	53
 10022     0C12                     u4947:
 10023     0C12  0B89               	decfsz	9,f
 10024     0C13  2C12               	goto	u4947
 10025     0C14  0000               	nop
 10026     0C15                     l3241:
 10027                           
 10028                           ;./ADC.h: 109:     for (uint8_t i = 0; i < samples; i++)
 10029     0C15  0020               	movlb	0	; select bank0
 10030     0C16  01AB               	clrf	ADC_Read_Averaged@i
 10031     0C17  2C43               	goto	l3249
 10032     0C18                     l370:
 10033                           
 10034                           ;./ADC.h: 110:     {;./ADC.h: 112:         ADCON0bits.GO = 1;
 10035     0C18  0021               	movlb	1	; select bank1
 10036     0C19  149D               	bsf	29,1	;volatile
 10037     0C1A                     l371:	
 10038                           ;./ADC.h: 113:         while (ADCON0bits.GO_nDONE);
 10039                           
 10040     0C1A  189D               	btfsc	29,1	;volatile
 10041     0C1B  2C1D               	goto	u3811
 10042     0C1C  2C1E               	goto	u3810
 10043     0C1D                     u3811:
 10044     0C1D  2C1A               	goto	l371
 10045     0C1E                     u3810:
 10046     0C1E                     l3243:
 10047                           
 10048                           ;./ADC.h: 115:         sum += (uint16_t)((ADRESH << 8) + ADRESL);
 10049     0C1E  081B               	movf	27,w	;volatile
 10050     0C1F  0020               	movlb	0	; select bank0
 10051     0C20  07A7               	addwf	ADC_Read_Averaged@sum,f
 10052     0C21  0021               	movlb	1	; select bank1
 10053     0C22  081C               	movf	28,w	;volatile
 10054     0C23  0020               	movlb	0	; select bank0
 10055     0C24  3DA8               	addwfc	ADC_Read_Averaged@sum+1,f
 10056     0C25  3000               	movlw	0
 10057     0C26  3DA9               	addwfc	ADC_Read_Averaged@sum+2,f
 10058     0C27  3DAA               	addwfc	ADC_Read_Averaged@sum+3,f
 10059                           
 10060                           ;./ADC.h: 118:         if (i < samples - 1) _delay((unsigned long)((5)*(32000000/4000000
      +                          .0)));
 10061     0C28  0820               	movf	ADC_Read_Averaged@samples,w
 10062     0C29  3EFF               	addlw	255
 10063     0C2A  00A2               	movwf	??_ADC_Read_Averaged
 10064     0C2B  30FF               	movlw	255
 10065     0C2C  1803               	skipnc
 10066     0C2D  3000               	movlw	0
 10067     0C2E  00A3               	movwf	??_ADC_Read_Averaged+1
 10068     0C2F  0823               	movf	??_ADC_Read_Averaged+1,w
 10069     0C30  3A80               	xorlw	128
 10070     0C31  3C80               	sublw	128
 10071     0C32  1D03               	skipz
 10072     0C33  2C36               	goto	u3825
 10073     0C34  0822               	movf	??_ADC_Read_Averaged,w
 10074     0C35  022B               	subwf	ADC_Read_Averaged@i,w
 10075     0C36                     u3825:
 10076     0C36  1803               	skipnc
 10077     0C37  2C39               	goto	u3821
 10078     0C38  2C3A               	goto	u3820
 10079     0C39                     u3821:
 10080     0C39  2C3E               	goto	l3247
 10081     0C3A                     u3820:
 10082     0C3A                     l3245:
 10083     0C3A  300D               	movlw	13
 10084     0C3B                     u4957:
 10085     0C3B  0B89               	decfsz	9,f
 10086     0C3C  2C3B               	goto	u4957
 10087     0C3D  0000               	nop
 10088     0C3E                     l3247:
 10089                           
 10090                           ;./ADC.h: 119:     }
 10091     0C3E  3001               	movlw	1
 10092     0C3F  0020               	movlb	0	; select bank0
 10093     0C40  00A2               	movwf	??_ADC_Read_Averaged
 10094     0C41  0822               	movf	??_ADC_Read_Averaged,w
 10095     0C42  07AB               	addwf	ADC_Read_Averaged@i,f
 10096     0C43                     l3249:
 10097     0C43  0820               	movf	ADC_Read_Averaged@samples,w
 10098     0C44  022B               	subwf	ADC_Read_Averaged@i,w
 10099     0C45  1C03               	skipc
 10100     0C46  2C48               	goto	u3831
 10101     0C47  2C49               	goto	u3830
 10102     0C48                     u3831:
 10103     0C48  2C18               	goto	l370
 10104     0C49                     u3830:
 10105     0C49                     l3251:
 10106                           
 10107                           ;./ADC.h: 121:     return (uint16_t)(sum / samples);
 10108     0C49  0820               	movf	ADC_Read_Averaged@samples,w
 10109     0C4A  00A2               	movwf	??_ADC_Read_Averaged
 10110     0C4B  01A3               	clrf	??_ADC_Read_Averaged+1
 10111     0C4C  01A4               	clrf	??_ADC_Read_Averaged+2
 10112     0C4D  01A5               	clrf	??_ADC_Read_Averaged+3
 10113     0C4E  0825               	movf	??_ADC_Read_Averaged+3,w
 10114     0C4F  00F3               	movwf	___lldiv@divisor+3
 10115     0C50  0824               	movf	??_ADC_Read_Averaged+2,w
 10116     0C51  00F2               	movwf	___lldiv@divisor+2
 10117     0C52  0823               	movf	??_ADC_Read_Averaged+1,w
 10118     0C53  00F1               	movwf	___lldiv@divisor+1
 10119     0C54  0822               	movf	??_ADC_Read_Averaged,w
 10120     0C55  00F0               	movwf	___lldiv@divisor
 10121     0C56  082A               	movf	ADC_Read_Averaged@sum+3,w
 10122     0C57  00F7               	movwf	___lldiv@dividend+3
 10123     0C58  0829               	movf	ADC_Read_Averaged@sum+2,w
 10124     0C59  00F6               	movwf	___lldiv@dividend+2
 10125     0C5A  0828               	movf	ADC_Read_Averaged@sum+1,w
 10126     0C5B  00F5               	movwf	___lldiv@dividend+1
 10127     0C5C  0827               	movf	ADC_Read_Averaged@sum,w
 10128     0C5D  00F4               	movwf	___lldiv@dividend
 10129     0C5E  3197  27A6  318B   	fcall	___lldiv
 10130     0C61  0871               	movf	?___lldiv+1,w
 10131     0C62  0020               	movlb	0	; select bank0
 10132     0C63  00A1               	movwf	?_ADC_Read_Averaged+1
 10133     0C64  0870               	movf	?___lldiv,w
 10134     0C65  00A0               	movwf	?_ADC_Read_Averaged
 10135     0C66                     l376:
 10136     0C66  0008               	return
 10137     0C67                     __end_of_ADC_Read_Averaged:
 10138                           
 10139                           	psect	text37
 10140     17A6                     __ptext37:	
 10141 ;; *************** function ___lldiv *****************
 10142 ;; Defined at:
 10143 ;;		line 5 in file "C:\Program Files\Microchip\xc8\v2.46\pic\sources\c99\common\__lldiv.c"
 10144 ;; Parameters:    Size  Location     Type
 10145 ;;  divisor         4    0[COMMON] unsigned long 
 10146 ;;  dividend        4    4[COMMON] unsigned long 
 10147 ;; Auto vars:     Size  Location     Type
 10148 ;;  quotient        4    9[COMMON] unsigned long 
 10149 ;;  counter         1   13[COMMON] unsigned char 
 10150 ;; Return value:  Size  Location     Type
 10151 ;;                  4    0[COMMON] unsigned long 
 10152 ;; Registers used:
 10153 ;;		wreg, status,2, status,0
 10154 ;; Tracked objects:
 10155 ;;		On entry : 0/0
 10156 ;;		On exit  : 0/0
 10157 ;;		Unchanged: 0/0
 10158 ;; Data sizes:     COMMON   BANK0   BANK1   BANK2   BANK3   BANK4   BANK5   BANK6   BANK7   BANK8   BANK9  BANK10  BANK1
      +1  BANK12  BANK13  BANK14  BANK15  BANK16  BANK17  BANK18  BANK19  BANK20  BANK21  BANK22  BANK23  BANK24  BANK25
 10159 ;;      Params:         8       0       0       0       0       0       0       0       0       0       0       0       
      +0       0       0       0       0       0       0       0       0       0       0       0       0       0       0
 10160 ;;      Locals:         5       0       0       0       0       0       0       0       0       0       0       0       
      +0       0       0       0       0       0       0       0       0       0       0       0       0       0       0
 10161 ;;      Temps:          1       0       0       0       0       0       0       0       0       0       0       0       
      +0       0       0       0       0       0       0       0       0       0       0       0       0       0       0
 10162 ;;      Totals:        14       0       0       0       0       0       0       0       0       0       0       0       
      +0       0       0       0       0       0       0       0       0       0       0       0       0       0       0
 10163 ;;Total ram usage:       14 bytes
 10164 ;; Hardware stack levels used: 1
 10165 ;; This function calls:
 10166 ;;		Nothing
 10167 ;; This function is called by:
 10168 ;;		_OLED_Printf_Line
 10169 ;;		_ADC_Read_Averaged
 10170 ;; This function uses a non-reentrant model
 10171 ;;
 10172                           
 10173     17A6                     ___lldiv:	
 10174                           ;psect for function ___lldiv
 10175                           
 10176     17A6                     l2641:	
 10177                           ;incstack = 0
 10178                           ; Regs used in ___lldiv: [wreg+status,2+status,0]
 10179                           
 10180     17A6  3000               	movlw	0
 10181     17A7  00FC               	movwf	___lldiv@quotient+3
 10182     17A8  3000               	movlw	0
 10183     17A9  00FB               	movwf	___lldiv@quotient+2
 10184     17AA  3000               	movlw	0
 10185     17AB  00FA               	movwf	___lldiv@quotient+1
 10186     17AC  3000               	movlw	0
 10187     17AD  00F9               	movwf	___lldiv@quotient
 10188     17AE  0873               	movf	___lldiv@divisor+3,w
 10189     17AF  0472               	iorwf	___lldiv@divisor+2,w
 10190     17B0  0471               	iorwf	___lldiv@divisor+1,w
 10191     17B1  0470               	iorwf	___lldiv@divisor,w
 10192     17B2  1903               	skipnz
 10193     17B3  2FB5               	goto	u2781
 10194     17B4  2FB6               	goto	u2780
 10195     17B5                     u2781:
 10196     17B5  2FF7               	goto	l2661
 10197     17B6                     u2780:
 10198     17B6                     l2643:
 10199     17B6  01FD               	clrf	___lldiv@counter
 10200     17B7  0AFD               	incf	___lldiv@counter,f
 10201     17B8  2FC4               	goto	l2647
 10202     17B9                     l2645:
 10203     17B9  3001               	movlw	1
 10204     17BA                     u2795:
 10205     17BA  35F0               	lslf	___lldiv@divisor,f
 10206     17BB  0DF1               	rlf	___lldiv@divisor+1,f
 10207     17BC  0DF2               	rlf	___lldiv@divisor+2,f
 10208     17BD  0DF3               	rlf	___lldiv@divisor+3,f
 10209     17BE  0B89               	decfsz	9,f
 10210     17BF  2FBA               	goto	u2795
 10211     17C0  3001               	movlw	1
 10212     17C1  00F8               	movwf	??___lldiv
 10213     17C2  0878               	movf	??___lldiv,w
 10214     17C3  07FD               	addwf	___lldiv@counter,f
 10215     17C4                     l2647:
 10216     17C4  1FF3               	btfss	___lldiv@divisor+3,7
 10217     17C5  2FC7               	goto	u2801
 10218     17C6  2FC8               	goto	u2800
 10219     17C7                     u2801:
 10220     17C7  2FB9               	goto	l2645
 10221     17C8                     u2800:
 10222     17C8                     l2649:
 10223     17C8  3001               	movlw	1
 10224     17C9                     u2815:
 10225     17C9  35F9               	lslf	___lldiv@quotient,f
 10226     17CA  0DFA               	rlf	___lldiv@quotient+1,f
 10227     17CB  0DFB               	rlf	___lldiv@quotient+2,f
 10228     17CC  0DFC               	rlf	___lldiv@quotient+3,f
 10229     17CD  0B89               	decfsz	9,f
 10230     17CE  2FC9               	goto	u2815
 10231     17CF                     l2651:
 10232     17CF  0873               	movf	___lldiv@divisor+3,w
 10233     17D0  0277               	subwf	___lldiv@dividend+3,w
 10234     17D1  1D03               	skipz
 10235     17D2  2FDD               	goto	u2825
 10236     17D3  0872               	movf	___lldiv@divisor+2,w
 10237     17D4  0276               	subwf	___lldiv@dividend+2,w
 10238     17D5  1D03               	skipz
 10239     17D6  2FDD               	goto	u2825
 10240     17D7  0871               	movf	___lldiv@divisor+1,w
 10241     17D8  0275               	subwf	___lldiv@dividend+1,w
 10242     17D9  1D03               	skipz
 10243     17DA  2FDD               	goto	u2825
 10244     17DB  0870               	movf	___lldiv@divisor,w
 10245     17DC  0274               	subwf	___lldiv@dividend,w
 10246     17DD                     u2825:
 10247     17DD  1C03               	skipc
 10248     17DE  2FE0               	goto	u2821
 10249     17DF  2FE1               	goto	u2820
 10250     17E0                     u2821:
 10251     17E0  2FEA               	goto	l2657
 10252     17E1                     u2820:
 10253     17E1                     l2653:
 10254     17E1  0870               	movf	___lldiv@divisor,w
 10255     17E2  02F4               	subwf	___lldiv@dividend,f
 10256     17E3  0871               	movf	___lldiv@divisor+1,w
 10257     17E4  3BF5               	subwfb	___lldiv@dividend+1,f
 10258     17E5  0872               	movf	___lldiv@divisor+2,w
 10259     17E6  3BF6               	subwfb	___lldiv@dividend+2,f
 10260     17E7  0873               	movf	___lldiv@divisor+3,w
 10261     17E8  3BF7               	subwfb	___lldiv@dividend+3,f
 10262     17E9                     l2655:
 10263     17E9  1479               	bsf	___lldiv@quotient,0
 10264     17EA                     l2657:
 10265     17EA  3001               	movlw	1
 10266     17EB                     u2835:
 10267     17EB  36F3               	lsrf	___lldiv@divisor+3,f
 10268     17EC  0CF2               	rrf	___lldiv@divisor+2,f
 10269     17ED  0CF1               	rrf	___lldiv@divisor+1,f
 10270     17EE  0CF0               	rrf	___lldiv@divisor,f
 10271     17EF  0B89               	decfsz	9,f
 10272     17F0  2FEB               	goto	u2835
 10273     17F1                     l2659:
 10274     17F1  3001               	movlw	1
 10275     17F2  02FD               	subwf	___lldiv@counter,f
 10276     17F3  1D03               	btfss	3,2
 10277     17F4  2FF6               	goto	u2841
 10278     17F5  2FF7               	goto	u2840
 10279     17F6                     u2841:
 10280     17F6  2FC8               	goto	l2649
 10281     17F7                     u2840:
 10282     17F7                     l2661:
 10283     17F7  087C               	movf	___lldiv@quotient+3,w
 10284     17F8  00F3               	movwf	?___lldiv+3
 10285     17F9  087B               	movf	___lldiv@quotient+2,w
 10286     17FA  00F2               	movwf	?___lldiv+2
 10287     17FB  087A               	movf	___lldiv@quotient+1,w
 10288     17FC  00F1               	movwf	?___lldiv+1
 10289     17FD  0879               	movf	___lldiv@quotient,w
 10290     17FE  00F0               	movwf	?___lldiv
 10291     17FF                     l491:
 10292     17FF  0008               	return
 10293     1800                     __end_of___lldiv:
 10294                           
 10295                           	psect	text38
 10296     13BB                     __ptext38:	
 10297 ;; *************** function _ADC_Init *****************
 10298 ;; Defined at:
 10299 ;;		line 76 in file "./ADC.h"
 10300 ;; Parameters:    Size  Location     Type
 10301 ;;		None
 10302 ;; Auto vars:     Size  Location     Type
 10303 ;;		None
 10304 ;; Return value:  Size  Location     Type
 10305 ;;                  1    wreg      void 
 10306 ;; Registers used:
 10307 ;;		wreg, status,2, status,0
 10308 ;; Tracked objects:
 10309 ;;		On entry : 0/0
 10310 ;;		On exit  : 0/0
 10311 ;;		Unchanged: 0/0
 10312 ;; Data sizes:     COMMON   BANK0   BANK1   BANK2   BANK3   BANK4   BANK5   BANK6   BANK7   BANK8   BANK9  BANK10  BANK1
      +1  BANK12  BANK13  BANK14  BANK15  BANK16  BANK17  BANK18  BANK19  BANK20  BANK21  BANK22  BANK23  BANK24  BANK25
 10313 ;;      Params:         0       0       0       0       0       0       0       0       0       0       0       0       
      +0       0       0       0       0       0       0       0       0       0       0       0       0       0       0
 10314 ;;      Locals:         0       0       0       0       0       0       0       0       0       0       0       0       
      +0       0       0       0       0       0       0       0       0       0       0       0       0       0       0
 10315 ;;      Temps:          0       0       0       0       0       0       0       0       0       0       0       0       
      +0       0       0       0       0       0       0       0       0       0       0       0       0       0       0
 10316 ;;      Totals:         0       0       0       0       0       0       0       0       0       0       0       0       
      +0       0       0       0       0       0       0       0       0       0       0       0       0       0       0
 10317 ;;Total ram usage:        0 bytes
 10318 ;; Hardware stack levels used: 1
 10319 ;; This function calls:
 10320 ;;		Nothing
 10321 ;; This function is called by:
 10322 ;;		_main
 10323 ;; This function uses a non-reentrant model
 10324 ;;
 10325                           
 10326     13BB                     _ADC_Init:	
 10327                           ;psect for function _ADC_Init
 10328                           
 10329     13BB                     l3227:	
 10330                           ;incstack = 0
 10331                           ; Regs used in _ADC_Init: [wreg+status,2+status,0]
 10332                           
 10333                           
 10334                           ;./ADC.h: 79:     ADCON1bits.ADCS = 0b010;
 10335     13BB  0021               	movlb	1	; select bank1
 10336     13BC  081E               	movf	30,w	;volatile
 10337     13BD  398F               	andlw	-113
 10338     13BE  3820               	iorlw	32
 10339     13BF  009E               	movwf	30	;volatile
 10340     13C0                     l3229:
 10341                           
 10342                           ;./ADC.h: 82:     ADCON1bits.ADFM = 1;
 10343     13C0  179E               	bsf	30,7	;volatile
 10344     13C1                     l3231:
 10345                           
 10346                           ;./ADC.h: 85:     ADCON1bits.ADNREF = 0;
 10347     13C1  111E               	bcf	30,2	;volatile
 10348                           
 10349                           ;./ADC.h: 88:     ADCON1bits.ADPREF = 0b00;
 10350     13C2  30FC               	movlw	-4
 10351     13C3  059E               	andwf	30,f	;volatile
 10352     13C4                     l366:
 10353     13C4  0008               	return
 10354     13C5                     __end_of_ADC_Init:
 10355     007E                     btemp	set	126	;btemp
 10356     007E                     wtemp0	set	126
 10357     24F0                     
 10358                           	psect	config
 10359                           
 10360                           ;Config register CONFIG1 @ 0x8007
 10361                           ;	Oscillator Selection Bits
 10362                           ;	FOSC = INTOSC, INTOSC oscillator: I/O function on CLKIN pin
 10363                           ;	Watchdog Timer Enable
 10364                           ;	WDTE = OFF, WDT disabled
 10365                           ;	Power-up Timer Enable
 10366                           ;	PWRTE = OFF, PWRT disabled
 10367                           ;	MCLR Pin Function Select
 10368                           ;	MCLRE = OFF, MCLR/VPP pin function is digital input if LVP bit is also 0.
 10369                           ;	Flash Program Memory Code Protection
 10370                           ;	CP = OFF, Program memory code protection is disabled
 10371                           ;	Brown-out Reset Enable
 10372                           ;	BOREN = OFF, Brown-out Reset disabled
 10373                           ;	Clock Out Enable
 10374                           ;	CLKOUTEN = OFF, CLKOUT function is disabled. I/O or oscillator function on the CLKOUT 
      +                          pin
 10375                           ;	Internal/External Switchover Mode
 10376                           ;	IESO = ON, Internal/External Switchover Mode is enabled
 10377                           ;	Fail-Safe Clock Monitor Enable
 10378                           ;	FCMEN = OFF, Fail-Safe Clock Monitor is disabled
 10379     8007                     	org	32775
 10380     8007  19A4               	dw	6564
 10381                           
 10382                           ;Config register CONFIG2 @ 0x8008
 10383                           ;	Flash Memory Self-Write Protection
 10384                           ;	WRT = OFF, Write protection off
 10385                           ;	Peripheral Pin Select one-way control
 10386                           ;	PPS1WAY = ON, The PPSLOCK bit cannot be cleared once it is set by software
 10387                           ;	Zero-cross detect disable
 10388                           ;	ZCDDIS = ON, ZCD disabled. ZCD can be enabled by setting the ZCDSEN bit of ZCDCON
 10389                           ;	Phase Lock Loop enable
 10390                           ;	PLLEN = OFF, 4x PLL is disabled
 10391                           ;	Stack Overflow/Underflow Reset Enable
 10392                           ;	STVREN = ON, Stack Overflow or Underflow will cause a Reset
 10393                           ;	Brown-out Reset Voltage Selection
 10394                           ;	BORV = LO, Brown-out Reset Voltage (Vbor), low trip point selected.
 10395                           ;	Low-Power Brown Out Reset
 10396                           ;	LPBOR = OFF, Low-Power BOR is disabled
 10397                           ;	In-Circuit Debugger Mode
 10398                           ;	DEBUG = 0x1, unprogrammed default
 10399                           ;	Low-Voltage Programming Enable
 10400                           ;	LVP = OFF, High-voltage on MCLR/VPP must be used for programming
 10401     8008                     	org	32776
 10402     8008  1EFF               	dw	7935

Data Sizes:
    Strings     11
    Constant    778
    Data        0
    BSS         0
    Persistent  32
    Stack       0

Auto Spaces:
    Space          Size  Autos    Used
    COMMON           14     14      14
    BANK0            80     80      80
    BANK1            80     56      56
    BANK2            80      0       0
    BANK3            80      0       0
    BANK4            80      0       0
    BANK5            80      0       0
    BANK6            80      0       0
    BANK7            80      0       0
    BANK8            80      0       0
    BANK9            80      0       0
    BANK10           80      0       0
    BANK11           80      0       0
    BANK12           80      0       0
    BANK13           80      0       0
    BANK14           80      0       0
    BANK15           64      0       0
    BANK16            0      0       0
    BANK17            0      0       0
    BANK18            0      0       0
    BANK19            0      0       0
    BANK20            0      0       0
    BANK21            0      0       0
    BANK22            0      0       0
    BANK23            0      0       0
    BANK24            0      0       0
    BANK25            0      0       0

Pointer List with Targets:

    memcpy@d	PTR unsigned char  size(2) Largest target is 512
		 -> screen_buffer(BIGRAM[512]), 

    memcpy@d1	PTR void  size(2) Largest target is 512
		 -> screen_buffer(BIGRAM[512]), 

    memcpy@s	PTR const unsigned char  size(2) Largest target is 768
		 -> OledFont(CODE[768]), 

    memcpy@s1	PTR const void  size(2) Largest target is 768
		 -> OledFont(CODE[768]), 

    memset@dest	PTR void  size(2) Largest target is 512
		 -> screen_buffer(BIGRAM[512]), 

    memset@p	PTR unsigned char  size(2) Largest target is 512
		 -> screen_buffer(BIGRAM[512]), 

    OLED_Printf_Line@ap	PTR void [1] size(1) Largest target is 1
		 -> ?_OLED_Printf_Line(BANK0[1]), 

    OLED_Printf_Line@dst	PTR unsigned char  size(1) Largest target is 32
		 -> OLED_Printf_Line@buf(BANK0[32]), 

    OLED_Printf_Line@fmt	PTR const unsigned char  size(2) Largest target is 11
		 -> STR_1(CODE[11]), 

    OLED_Printf_Line@p	PTR const unsigned char  size(1) Largest target is 32
		 -> OLED_Printf_Line@buf(BANK0[32]), 

    OLED_Printf_Line@src	PTR const unsigned char  size(2) Largest target is 11
		 -> STR_1(CODE[11]), 

    OLED_Printf_Line@str	PTR const unsigned char  size(1) Largest target is 1
		 -> ?_OLED_Printf_Line(BANK0[1]), 

    OLED_WriteData@data	PTR const unsigned char  size(2) Largest target is 768
		 -> OledFont(CODE[768]), screen_buffer(BIGRAM[512]), 

    sp__memcpy	PTR void  size(2) Largest target is 512
		 -> screen_buffer(BIGRAM[512]), 

    sp__memset	PTR void  size(2) Largest target is 512
		 -> screen_buffer(BIGRAM[512]), 

    sp__strcpy	PTR unsigned char  size(2) Largest target is 256
		 -> OLED_Printf_Line@last_text(BIGRAM[256]), 

    strcmp@l	PTR const unsigned char  size(1) Largest target is 32
		 -> OLED_Printf_Line@buf(BANK0[32]), 

    strcmp@r	PTR const unsigned char  size(2) Largest target is 256
		 -> OLED_Printf_Line@last_text(BIGRAM[256]), 

    strcpy@d	PTR unsigned char  size(2) Largest target is 256
		 -> OLED_Printf_Line@last_text(BIGRAM[256]), 

    strcpy@dest	PTR unsigned char  size(2) Largest target is 256
		 -> OLED_Printf_Line@last_text(BIGRAM[256]), 

    strcpy@src	PTR const unsigned char  size(1) Largest target is 32
		 -> OLED_Printf_Line@buf(BANK0[32]), 


Critical Paths under _main in COMMON

    _main->_OLED_Init
    _main->___xxtofl
    _initMain->_ADC_ConfigurePin
    ___flmul->___xxtofl
    ___fldiv->___xxtofl
    _OLED_SetOrientation->_OLED_Command
    _OLED_Printf_Line->___lldiv
    _OLED_UpdateLine->_OLED_WriteData
    _OLED_Init->_OLED_Clear
    _OLED_Clear->_OLED_WriteData
    _OLED_YX->_OLED_Command
    _OLED_Command->_I2C_WriteByte
    _OLED_WriteData->_I2C_WriteByte
    _I2C_WriteByte->_I2C_WaitIF
    _I2C_WriteByte->_I2C_WaitIdle
    _I2C_Stop->_I2C_WaitIF
    _I2C_Stop->_I2C_WaitIdle
    _I2C_Start->_I2C_WaitIF
    _I2C_Start->_I2C_WaitIdle
    _ADC_Read_Averaged->___lldiv

Critical Paths under _main in BANK0

    _main->_OLED_Printf_Line
    ___fldiv->___flmul
    _OLED_Printf_Line->_OLED_UpdateLine
    _OLED_Printf_Line->___aldiv
    _OLED_Init->_OLED_Clear

Critical Paths under _main in BANK1

    _main->_OLED_Printf_Line

Critical Paths under _main in BANK2

    None.

Critical Paths under _main in BANK3

    None.

Critical Paths under _main in BANK4

    None.

Critical Paths under _main in BANK5

    None.

Critical Paths under _main in BANK6

    None.

Critical Paths under _main in BANK7

    None.

Critical Paths under _main in BANK8

    None.

Critical Paths under _main in BANK9

    None.

Critical Paths under _main in BANK10

    None.

Critical Paths under _main in BANK11

    None.

Critical Paths under _main in BANK12

    None.

Critical Paths under _main in BANK13

    None.

Critical Paths under _main in BANK14

    None.

Critical Paths under _main in BANK15

    None.

Critical Paths under _main in BANK16

    None.

Critical Paths under _main in BANK17

    None.

Critical Paths under _main in BANK18

    None.

Critical Paths under _main in BANK19

    None.

Critical Paths under _main in BANK20

    None.

Critical Paths under _main in BANK21

    None.

Critical Paths under _main in BANK22

    None.

Critical Paths under _main in BANK23

    None.

Critical Paths under _main in BANK24

    None.

Critical Paths under _main in BANK25

    None.

Call Graph Tables:

 ---------------------------------------------------------------------------------
 (Depth) Function   	        Calls       Base Space   Used Autos Params    Refs
 ---------------------------------------------------------------------------------
 (0) _main                                                24    24      0   41285
                                             44 BANK1     12    12      0
                           _ADC_Init
                  _ADC_Read_Averaged
                           _I2C_Init
                         _OLED_Clear
                          _OLED_Init
                   _OLED_Printf_Line
                _OLED_SetOrientation
                            ___fldiv
                            ___flmul
                            ___fltol
                           ___xxtofl
                           _initMain
 ---------------------------------------------------------------------------------
 (1) _initMain                                             1     1      0      22
                                              3 COMMON     1     1      0
                   _ADC_ConfigurePin
                        _internal_32
 ---------------------------------------------------------------------------------
 (2) _internal_32                                          0     0      0       0
 ---------------------------------------------------------------------------------
 (2) _ADC_ConfigurePin                                     3     3      0      22
                                              0 COMMON     3     3      0
 ---------------------------------------------------------------------------------
 (1) ___xxtofl                                            14    10      4     398
                                              0 COMMON    14    10      4
 ---------------------------------------------------------------------------------
 (1) ___fltol                                             10     6      4     305
                                              0 COMMON    10     6      4
 ---------------------------------------------------------------------------------
 (1) ___flmul                                             26    18      8    2569
                                              0 BANK0     26    18      8
                          __Umul8_16
                           ___xxtofl (ARG)
 ---------------------------------------------------------------------------------
 (2) __Umul8_16                                            9     7      2     799
                                              0 COMMON     9     7      2
 ---------------------------------------------------------------------------------
 (1) ___fldiv                                             26    18      8    1273
                                             26 BANK0     26    18      8
                            ___flmul (ARG)
                           ___xxtofl (ARG)
 ---------------------------------------------------------------------------------
 (1) _OLED_SetOrientation                                  3     3      0    3038
                                              7 COMMON     3     3      0
                       _OLED_Command
 ---------------------------------------------------------------------------------
 (1) _OLED_Printf_Line                                   118   114      4   14429
                                              6 BANK0     74    70      4
                                              0 BANK1     44    44      0
                    _OLED_UpdateLine
                            ___aldiv
                            ___almod
                            ___awdiv
                            ___awmod
                            ___fltol (ARG)
                            ___lldiv
                            ___llmod
                            ___lwdiv
                            ___lwmod
                             _memcpy
                             _memset
                             _strcmp
                             _strcpy
 ---------------------------------------------------------------------------------
 (2) _strcpy                                               7     4      3     225
                                              0 COMMON     7     4      3
 ---------------------------------------------------------------------------------
 (2) _strcmp                                               4     2      2     221
                                              0 COMMON     4     2      2
 ---------------------------------------------------------------------------------
 (2) _memcpy                                              11     5      6     371
                                              0 COMMON    11     5      6
 ---------------------------------------------------------------------------------
 (2) ___lwmod                                              6     2      4     311
                                              0 COMMON     6     2      4
 ---------------------------------------------------------------------------------
 (2) ___lwdiv                                              8     4      4     314
                                              0 COMMON     8     4      4
 ---------------------------------------------------------------------------------
 (2) ___llmod                                             10     2      8     311
                                              0 COMMON    10     2      8
 ---------------------------------------------------------------------------------
 (2) ___awmod                                              7     3      4     448
                                              0 COMMON     7     3      4
 ---------------------------------------------------------------------------------
 (2) ___awdiv                                              9     5      4     604
                                              0 COMMON     9     5      4
 ---------------------------------------------------------------------------------
 (2) ___almod                                             11     3      8     448
                                              0 COMMON    11     3      8
 ---------------------------------------------------------------------------------
 (2) ___aldiv                                             15     7      8     452
                                              0 COMMON     9     1      8
                                              0 BANK0      6     6      0
 ---------------------------------------------------------------------------------
 (2) _OLED_UpdateLine                                      7     7      0    7135
                                             12 COMMON     1     1      0
                                              0 BANK0      6     6      0
                     _OLED_WriteData
                            _OLED_YX
 ---------------------------------------------------------------------------------
 (1) _OLED_Init                                            1     1      0   10749
                                             13 COMMON     1     1      0
                         _OLED_Clear
                       _OLED_Command
 ---------------------------------------------------------------------------------
 (2) _OLED_Clear                                           7     7      0    7733
                                             12 COMMON     1     1      0
                                              0 BANK0      6     6      0
                     _OLED_WriteData
                            _OLED_YX
                             _memset
 ---------------------------------------------------------------------------------
 (2) _memset                                               8     2      6     552
                                              0 COMMON     8     2      6
 ---------------------------------------------------------------------------------
 (3) _OLED_YX                                              4     3      1    3333
                                              7 COMMON     4     3      1
                       _OLED_Command
 ---------------------------------------------------------------------------------
 (2) _OLED_Command                                         2     2      0    3016
                                              5 COMMON     2     2      0
                          _I2C_Start
                           _I2C_Stop
                      _I2C_WriteByte
                      _SSD1306_CtrlW
 ---------------------------------------------------------------------------------
 (3) _OLED_WriteData                                       7     3      4    3736
                                              5 COMMON     7     3      4
                          _I2C_Start
                           _I2C_Stop
                      _I2C_WriteByte
                      _SSD1306_CtrlW
 ---------------------------------------------------------------------------------
 (3) _SSD1306_CtrlW                                        0     0      0       0
 ---------------------------------------------------------------------------------
 (3) _I2C_WriteByte                                        2     2      0     992
                                              3 COMMON     2     2      0
                         _I2C_WaitIF
                       _I2C_WaitIdle
 ---------------------------------------------------------------------------------
 (3) _I2C_Stop                                             1     1      0     938
                                              3 COMMON     1     1      0
                         _I2C_WaitIF
                       _I2C_WaitIdle
 ---------------------------------------------------------------------------------
 (3) _I2C_Start                                            1     1      0     970
                                              3 COMMON     1     1      0
                         _I2C_WaitIF
                       _I2C_WaitIdle
 ---------------------------------------------------------------------------------
 (4) _I2C_WaitIdle                                         3     1      2     402
                                              0 COMMON     3     1      2
 ---------------------------------------------------------------------------------
 (4) _I2C_WaitIF                                           3     1      2     478
                                              0 COMMON     3     1      2
 ---------------------------------------------------------------------------------
 (1) _I2C_Init                                             1     1      0       0
                                              0 COMMON     1     1      0
                    _I2C_ClearErrors
 ---------------------------------------------------------------------------------
 (2) _I2C_ClearErrors                                      0     0      0       0
 ---------------------------------------------------------------------------------
 (1) _ADC_Read_Averaged                                   12    10      2     700
                                              0 BANK0     12    10      2
                            ___lldiv
 ---------------------------------------------------------------------------------
 (2) ___lldiv                                             14     6      8     466
                                              0 COMMON    14     6      8
 ---------------------------------------------------------------------------------
 (1) _ADC_Init                                             0     0      0       0
 ---------------------------------------------------------------------------------
 Estimated maximum stack depth 4
 ---------------------------------------------------------------------------------

 Call Graph Graphs:

 _main (ROOT)
   _ADC_Init
   _ADC_Read_Averaged
     ___lldiv
   _I2C_Init
     _I2C_ClearErrors
   _OLED_Clear
     _OLED_WriteData
       _I2C_Start
         _I2C_WaitIF
         _I2C_WaitIdle
       _I2C_Stop
         _I2C_WaitIF
         _I2C_WaitIdle
       _I2C_WriteByte
         _I2C_WaitIF
         _I2C_WaitIdle
       _SSD1306_CtrlW
     _OLED_YX
       _OLED_Command
         _I2C_Start
         _I2C_Stop
         _I2C_WriteByte
         _SSD1306_CtrlW
     _memset
   _OLED_Init
     _OLED_Clear
     _OLED_Command
   _OLED_Printf_Line
     _OLED_UpdateLine
       _OLED_WriteData
       _OLED_YX
     ___aldiv
     ___almod
     ___awdiv
     ___awmod
     ___fltol (ARG)
     ___lldiv (ARG)
     ___llmod (ARG)
     ___lwdiv (ARG)
     ___lwmod (ARG)
     _memcpy (ARG)
     _memset (ARG)
     _strcmp (ARG)
     _strcpy (ARG)
   _OLED_SetOrientation
     _OLED_Command
   ___fldiv
     ___flmul (ARG)
       __Umul8_16
       ___xxtofl (ARG)
     ___xxtofl (ARG)
   ___flmul
   ___fltol
   ___xxtofl
   _initMain
     _ADC_ConfigurePin
     _internal_32

 Address spaces:
Name               Size   Autos  Total    Cost      Usage
BIGRAM             7F0      0       0       0        0.0%
NULL                 0      0       0       0        0.0%
CODE                 0      0       0       0        0.0%
BITCOMMON            E      0       0       1        0.0%
BITSFR0              0      0       0       1        0.0%
SFR0                 0      0       0       1        0.0%
COMMON               E      E       E       2      100.0%
BITSFR1              0      0       0       2        0.0%
SFR1                 0      0       0       2        0.0%
BITSFR2              0      0       0       3        0.0%
SFR2                 0      0       0       3        0.0%
STACK                0      0       0       3        0.0%
BITBANK0            50      0       0       4        0.0%
BITSFR3              0      0       0       4        0.0%
SFR3                 0      0       0       4        0.0%
BANK0               50     50      50       5      100.0%
BITSFR4              0      0       0       5        0.0%
SFR4                 0      0       0       5        0.0%
BITBANK1            50      0       0       6        0.0%
BITSFR5              0      0       0       6        0.0%
SFR5                 0      0       0       6        0.0%
BANK1               50     38      38       7       70.0%
BITSFR6              0      0       0       7        0.0%
SFR6                 0      0       0       7        0.0%
BITBANK2            50      0       0       8        0.0%
BITSFR7              0      0       0       8        0.0%
SFR7                 0      0       0       8        0.0%
BANK2               50      0       0       9        0.0%
BITSFR8              0      0       0       9        0.0%
SFR8                 0      0       0       9        0.0%
BITBANK3            50      0       0      10        0.0%
BITSFR9              0      0       0      10        0.0%
SFR9                 0      0       0      10        0.0%
BANK3               50      0       0      11        0.0%
BITSFR10             0      0       0      11        0.0%
SFR10                0      0       0      11        0.0%
BITBANK4            50      0       0      12        0.0%
BITSFR11             0      0       0      12        0.0%
SFR11                0      0       0      12        0.0%
BANK4               50      0       0      13        0.0%
BITSFR12             0      0       0      13        0.0%
SFR12                0      0       0      13        0.0%
BITSFR13             0      0       0      14        0.0%
SFR13                0      0       0      14        0.0%
ABS                  0      0       0      14        0.0%
BITBANK5            50      0       0      15        0.0%
BITSFR14             0      0       0      15        0.0%
SFR14                0      0       0      15        0.0%
BANK5               50      0       0      16        0.0%
BITSFR15             0      0       0      16        0.0%
SFR15                0      0       0      16        0.0%
BITBANK6            50      0       0      17        0.0%
BITSFR16             0      0       0      17        0.0%
SFR16                0      0       0      17        0.0%
BANK6               50      0       0      18        0.0%
BITSFR17             0      0       0      18        0.0%
SFR17                0      0       0      18        0.0%
BITBANK7            50      0       0      19        0.0%
BITSFR18             0      0       0      19        0.0%
SFR18                0      0       0      19        0.0%
BANK7               50      0       0      20        0.0%
BITSFR19             0      0       0      20        0.0%
SFR19                0      0       0      20        0.0%
BITBANK8            50      0       0      21        0.0%
BITSFR20             0      0       0      21        0.0%
SFR20                0      0       0      21        0.0%
BANK8               50      0       0      22        0.0%
BITSFR21             0      0       0      22        0.0%
SFR21                0      0       0      22        0.0%
BITBANK9            50      0       0      23        0.0%
BITSFR22             0      0       0      23        0.0%
SFR22                0      0       0      23        0.0%
BANK9               50      0       0      24        0.0%
BITSFR23             0      0       0      24        0.0%
SFR23                0      0       0      24        0.0%
BITBANK10           50      0       0      25        0.0%
BITSFR24             0      0       0      25        0.0%
SFR24                0      0       0      25        0.0%
BANK10              50      0       0      26        0.0%
BITSFR25             0      0       0      26        0.0%
SFR25                0      0       0      26        0.0%
BITBANK11           50      0       0      27        0.0%
BITSFR26             0      0       0      27        0.0%
SFR26                0      0       0      27        0.0%
BITSFR27             0      0       0      28        0.0%
SFR27                0      0       0      28        0.0%
DATA                 0      0       0      28        0.0%
BANK11              50      0       0      29        0.0%
BITSFR28             0      0       0      29        0.0%
SFR28                0      0       0      29        0.0%
BITBANK12           50      0       0      30        0.0%
BITSFR29             0      0       0      30        0.0%
SFR29                0      0       0      30        0.0%
BANK12              50      0       0      31        0.0%
BITSFR30             0      0       0      31        0.0%
SFR30                0      0       0      31        0.0%
BITBANK13           50      0       0      32        0.0%
BITSFR31             0      0       0      32        0.0%
SFR31                0      0       0      32        0.0%
BANK13              50      0       0      33        0.0%
BITBANK14           50      0       0      34        0.0%
BANK14              50      0       0      35        0.0%
BITBANK15           50      0       0      36        0.0%
BANK15              40      0       0      37        0.0%
BITBANK16           50      0       0      38        0.0%
BANK16               0      0       0      39        0.0%
BITBANK17           50      0       0      40        0.0%
BANK17               0      0       0      41        0.0%
BITBANK18           50      0       0      42        0.0%
BANK18               0      0       0      43        0.0%
BITBANK19           50      0       0      44        0.0%
BANK19               0      0       0      45        0.0%
BITBANK20           50      0       0      46        0.0%
BANK20               0      0       0      47        0.0%
BITBANK21           50      0       0      48        0.0%
BANK21               0      0       0      49        0.0%
BITBANK22           50      0       0      50        0.0%
BANK22               0      0       0      51        0.0%
BITBANK23           50      0       0      52        0.0%
BANK23               0      0       0      53        0.0%
BITBANK24           50      0       0      54        0.0%
BANK24               0      0       0      55        0.0%
BITBANK25           20      0       0      56        0.0%
BANK25               0      0       0      57        0.0%


Microchip Technology PIC Macro Assembler V2.46 build 20240104201356 
Symbol Table                                                                                   Fri Dec 26 02:18:42 2025

               ___fldiv@aexp 0053                 ___fldiv@bexp 0052                 ___fldiv@sign 004B  
           _ADC_ConfigurePin 0B95                  _SSPSTATbits 0214                           l32 13E4  
                         l41 14C5                           l26 141D                           l35 13B1  
                         l28 1439                           l60 1582                           l45 14D5  
                         l61 15A3                           l46 14EA                           l62 1595  
                         l47 14E7                           l55 146A                           l63 159D  
                         l56 147E                           l57 147C                 ___awdiv@sign 0076  
        __Umul8_16@word_mpld 0076    OLED_Printf_Line@last_text 26F0                          l101 13AA  
                        l111 1752                          l105 1571                          l115 1747  
                        l131 145B                          l134 0D4A                          l143 1516  
                        l128 1620                          l139 1702                          l166 07F1  
                        l351 0B97                          l520 0DD9                          l360 0BBF  
                        l361 0BC4                          l353 0B9C                          l273 13BA  
                        l370 0C18                          l530 0E55                          l362 0BC9  
                        l354 0BA1                          l371 0C1A                          l355 0BA6  
                        l363 0BF9                          l356 0BAB                          l533 0D5D  
                        l621 17A5                          l357 0BB0                          l366 13C4  
                        l358 0BB5                          l543 0DC5                          l359 0BBA  
                        l376 0C66                          l608 0B94                          l384 00F5  
                        l491 17FF                          l379 16B5                          l812 0EA7  
                        l814 0FFF                          l910 00B9                          l902 0093  
                        l735 15DF                          l656 0CC1                          l745 0037  
                        l833 0FD1                          l649 0CD6                          l834 0FEB  
                        l923 141B                          l931 1543                          l659 0CD6  
                        l836 0FF8                          l828 0F85                          l852 03D8  
                        l685 166A                          l917 0B35                          l909 00AD  
                        l871 1491                          l864 03CC                          l937 13FF  
                        l873 14A1                          l858 0358                          l896 005A  
                        l898 00E1                 ___awmod@sign 0076                          wreg 0009  
               ___flmul@aexp 0032                 ___flmul@bexp 0033                 ___flmul@sign 002D  
               ___flmul@temp 0038                 ___flmul@prod 0034                  main@celcius 00CE  
               ___fltol@exp1 0079                         l3001 040F                         l3011 0432  
                       l3003 0414                         l3101 05BE                         l3021 045E  
                       l3013 0438                         l3005 041A                         l3111 05F3  
                       l3103 05D0                         l3031 0485                         l3023 0464  
                       l3015 0448                         l3007 041F                         l2401 1424  
                       l3201 0751                         l3121 0617                         l3113 05FC  
                       l3105 05D6                         l3041 04C8                         l3033 048B  
                       l3025 046C                         l3017 044E                         l3009 0420  
                       l2403 142C                         l2411 14A3                         l3211 0780  
                       l3203 076F                         l3131 0634                         l3123 0618  
                       l3115 0602                         l3107 05E6                         l3043 04D0  
                       l3035 048C                         l3051 04EE                         l3027 0470  
                       l3019 0455                         l2405 1438                         l2413 14AA  
                       l2421 14B8                         l2501 155B                         l3213 0786  
                       l3221 07CF                         l3205 0771                         l3141 0655  
                       l3133 063C                         l3125 061D                         l3117 060A  
                       l3109 05EC                         l3061 0512                         l3053 04F8  
                       l3045 04D7                         l3037 04A6                         l3029 047A  
                       l3301 16AF                         l3231 13C1                         l2423 14C4  
                       l2415 14AE                         l2431 14D3                         l3223 07D7  
                       l3215 0788                         l3207 0774                         l3151 0679  
                       l3143 065E                         l3135 0641                         l3127 0623  
                       l3119 0612                         l3071 0544                         l3063 0518  
                       l3055 0503                         l3047 04E0                         l3039 04AC  
                       l3311 0C79                         l3303 16B1                         l3241 0C15  
                       l3233 0BFC                         l2409 14A2                         l2521 170A  
                       l2513 156A                         l2505 155F                         l2601 1518  
                       l3225 07EC                         l3217 07C3                         l3209 077A  
                       l3161 069E                         l3153 0681                         l3145 0664  
                       l3137 0647                         l3129 062C                         l3081 057E  
                       l3073 0560                         l3065 0523                         l3057 0509  
                       l3049 04E6                         l3401 0EF6                         l3321 0C99  
                       l3313 0C8A                         l3305 0C67                         l3227 13BB  
                       l3251 0C49                         l3243 0C1E                         l3235 0C04  
                       l2419 14B0                         l2443 14E9                         l2435 14D9  
                       l2427 14C6                         l2531 1720                         l2523 170E  
                       l2507 1564                         l2603 1519                         l3219 07C9  
                       l3171 06B9                         l3163 06A6                         l3155 0687  
                       l3147 066D                         l3139 064D                         l3091 05A5  
                       l3075 0568                         l3067 0524                         l3059 050D  
                       l3083 0586                         l3411 0F17                         l3403 0EFE  
                       l3315 0C8B                         l3307 0C70                         l3229 13C0  
                       l3245 0C3A                         l3237 0C10                         l2437 14E1  
                       l2429 14CE                         l2453 146E                         l2461 157B  
                       l2517 1703                         l2701 0E4D                         l2621 0B1B  
                       l2605 1521                         l2613 13E5                         l3173 06BE  
                       l3165 06AC                         l3157 068D                         l3149 0672  
                       l3085 058B                         l3077 056F                         l3069 053E  
                       l3093 05AB                         l3181 06E9                         l3421 0F3A  
                       l3413 0F18                         l3405 0F00                         l3341 0E56  
                       l3501 01CA                         l3317 0C93                         l3261 1678  
                       l3247 0C3E                         l3239 0C11                         l2455 1476  
                       l2447 145C                         l2471 158F                         l2463 1580  
                       l2543 172F                         l2535 1724                         l2527 1714  
                       l2711 0D61                         l2623 0B1F                         l2607 152E  
                       l2615 13E9                         l3191 070A                         l3175 06C4  
                       l3167 06B3                         l3159 0695                         l3095 05B0  
                       l3087 0591                         l3079 0578                         l3183 06EE  
                       l3431 0F55                         l3407 0F05                         l3415 0F1F  
                       l3423 0F3E                         l3351 0E66                         l3343 0E5A  
                       l3511 01DB                         l3503 01CC                         l3335 0CB8  
                       l3327 0CA1                         l3319 0C95                         l2631 0B96  
                       l3271 167F                         l3263 167A                         l3255 166B  
                       l2641 17A6                         l3249 0C43                         l2449 1464  
                       l2553 1743                         l2545 1732                         l2537 1729  
                       l2529 171B                         l2561 1444                         l2721 0D86  
                       l2713 0D6C                         l2705 0D4B                         l2801 177A  
                       l2625 0B25                         l2617 0B0C                         l2609 1536  
                       l3193 0712                         l3185 06F7                         l3097 05B7  
                       l3089 059C                         l3441 0F69                         l3433 0F59  
                       l3425 0F44                         l3417 0F31                         l3409 0F13  
                       l3361 0E7E                         l3353 0E6B                         l3345 0E5C  
                       l3601 0397                         l3521 01F7                         l3513 01E3  
                       l3505 01D0                         l3337 0CC6                         l3329 0CB1  
                       l3281 168F                         l3273 1682                         l3265 167B  
                       l3257 166E                         l2651 17CF                         l2643 17B6  
                       l2395 141C                         l2483 159E                         l2467 1584  
                       l2459 1573                         l2547 173D                         l2491 1545  
                       l2563 144A                         l2571 140B                         l2731 0DB2  
                       l2723 0D98                         l2715 0D74                         l2707 0D4C  
                       l2803 177E                         l2811 1797                         l2619 0B15  
                       l2627 0B29                         l3195 0716                         l3187 06FB  
                       l3099 05BD                         l3179 06CE                         l3451 0F8A  
                       l3443 0F6A                         l3435 0F5A                         l3427 0F4C  
                       l3419 0F32                         l3371 0E8F                         l3363 0E83  
                       l3355 0E73                         l3347 0E60                         l3611 03C5  
                       l3603 03A1                         l3531 0230                         l3515 01E5  
                       l3507 01D1                         l3339 0CCB                         l2635 0BCE  
                       l3291 16A5                         l3283 1694                         l3275 1684  
                       l3267 167C                         l3259 1676                         l2653 17E1  
                       l2645 17B9                         l2661 17F7                         l2901 13D1  
                       l2397 1422                         l2477 159A                         l2469 1587  
                       l2493 1549                         l2565 144F                         l2573 140F  
                       l2733 0DBD                         l2725 0DA0                         l2717 0D77  
                       l2709 0D50                         l2741 0B3B                         l2813 179C  
                       l2805 1788                         l2821 1629                         l3189 0701  
                       l3453 0F8F                         l3461 0FB7                         l3445 0F6E  
                       l3437 0F61                         l3429 0F4E                         l3381 0EAF  
                       l3373 0E94                         l3365 0E85                         l3357 0E74  
                       l3349 0E61                         l3613 03C9                         l3605 03AF  
                       l3541 0276                         l3533 023D                         l3525 0200  
                       l3517 01ED                         l3509 01D6                         l3621 0039  
                       l2629 13B2                         l3293 16A7                         l3285 1699  
                       l3277 1685                         l3269 167E                         l2655 17E9  
                       l2647 17C4                         l2575 13AB                         l2903 13D6  
                       l2479 159B                         l2487 13A9                         l2559 143B  
                       l2567 1400                         l2591 16FC                         l2583 16B7  
                       l2671 0DDD                         l2727 0DA7                         l2719 0D82  
                       l2751 0B4F                         l2743 0B40                         l2815 17A1  
                       l2807 178C                         l2831 1655                         l2823 162C  
                       l3199 0738                         l2911 15E1                         l3471 0FEE  
                       l3463 0FC4                         l3455 0F97                         l3447 0F82  
                       l3439 0F65                         l3391 0ECD                         l3383 0EBB  
                       l3375 0E9C                         l3367 0E89                         l3359 0E76  
                       l3615 03CA                         l3607 03B8                         l3551 02AC  
                       l3543 0281                         l3535 0255                         l3527 020B  
                       l3519 01F2                         l3623 003E                         l3295 16A8  
                       l3287 169D                         l3279 168A                         l2657 17EA  
                       l2649 17C8                         l2905 13D7                         l2497 154F  
                       l2569 1405                         l2585 16D4                         l2577 16B6  
                       l2593 14EC                         l2681 0DFF                         l2673 0DE8  
                       l2665 0DC6                         l2729 0DAD                         l2761 0B63  
                       l2753 0B51                         l2745 0B42                         l2737 0B36  
                       l2809 1791                         l2833 165C                         l2825 1637  
                       l2841 15A6                         l2913 15E6                         l3473 0FF2  
                       l3465 0FDF                         l3457 0F9B                         l3385 0EBF  
                       l3377 0E9D                         l3369 0E8A                         l3617 03D0  
                       l3609 03BA                         l3561 02F7                         l3553 02B3  
                       l3545 0288                         l3537 0262                         l3529 0218  
                       l3481 019E                         l3641 0084                         l3633 006B  
                       l3625 0042                         l3297 16AD                         l3289 16A2  
                       l2659 17F1                         l2907 13D9                         l2499 1556  
                       l2587 16D9                         l2931 0CDF                         l2691 0E2F  
                       l2683 0E0A                         l2675 0DEC                         l2667 0DC8  
                       l2771 0B80                         l2763 0B67                         l2755 0B57  
                       l2747 0B46                         l2739 0B37                         l2827 163B  
                       l2835 1662                         l2819 1621                         l2851 15BC  
                       l2843 15AC                         l2915 15EF                         l2923 160A  
                       l3475 0FF4                         l3467 0FE2                         l3459 0FB3  
                       l3395 0ED6                         l3379 0E9F                         l3571 032C  
                       l3563 030E                         l3555 02C5                         l3547 0293  
                       l3539 026F                         l3491 01AE                         l3483 01A2  
                       l3651 00B1                         l3643 008C                         l3635 006E  
                       l3627 0052                         l3299 16AE                         l2909 13DC  
                       l2589 16F7                         l2941 0CF3                         l2933 0CE3  
                       l2597 14F3                         l2693 0E30                         l2685 0E0E  
                       l2677 0DF4                         l2669 0DCC                         l2765 0B76  
                       l2757 0B5A                         l2773 0B86                         l2749 0B4B  
                       l2781 1753                         l2829 164D                         l2853 15CB  
                       l2845 15AF                         l2861 15DB                         l2917 15F8  
                       l3469 0FEA                         l3397 0EE6                         l3389 0EC8  
                       l3581 033D                         l3573 032D                         l3565 0315  
                       l3557 02D0                         l3549 029A                         l3493 01B3  
                       l3485 01A4                         l3661 00D9                         l3653 00BB  
                       l3645 009A                         l3637 0079                         l3629 0062  
                       l2951 0D07                         l2943 0CF7                         l2935 0CE7  
                       l2599 14F8                         l2695 0E37                         l2687 0E15  
                       l2679 0DFC                         l2775 0B8B                         l2767 0B7A  
                       l2759 0B5F                         l2791 1763                         l2783 1754  
                       l2855 15CF                         l2847 15B4                         l2839 15A4  
                       l2871 0012                         l2919 1601                         l3399 0EEE  
                       l3591 0362                         l3583 0341                         l3575 0334  
                       l3567 0321                         l3559 02E2                         l3495 01BB  
                       l3487 01A8                         l3655 00CF                         l3647 00A3  
                       l3639 0080                         l2961 0D1B                         l2953 0D0B  
                       l2945 0CFB                         l2937 0CEB                         l2929 0CD7  
                       l2689 0E27                         l2697 0E3D                         l2777 0B90  
                       l2769 0B7B                         l2793 1768                         l2785 1758  
                       l2857 15D0                         l2849 15B8                         l2881 002D  
                       l2873 0016                         l2865 0004                         l3593 036A  
                       l3585 0355                         l3569 0328                         l3577 0338  
                       l3497 01BD                         l3489 01A9                         l3657 00D4  
                       l3649 00A7                         l2971 0D2F                         l2963 0D1F  
                       l2955 0D0F                         l2947 0CFF                         l2939 0CEF  
                       l2699 0E42                         l2795 176E                         l2787 175D  
                       l2859 15D5                         l2875 001A                         l2867 000A  
                       l2883 0033                         l2891 1489                         l3595 036E  
                       l3579 033C                         l3499 01C5                         l3659 00D8  
                       l3827 0BD6                         l2981 0D43                         l2973 0D33  
                       l2965 0D23                         l2957 0D13                         l2949 0D03  
                       l2797 1771                         l2789 175F                         l2877 0024  
                       l2869 000D                         l3829 1612                         l2893 148D  
                       l3597 0386                         l3589 035D                         l3781 00EF  
                       l3773 00E2                         l2983 0D47                         l2975 0D37  
                       l2967 0D27                         l2959 0D17                         l2799 1776  
                       l2879 0028                         l2991 03EF                         l2895 1498  
                       l2887 1480                         l3599 038A                         l3783 0174  
                       l3775 00E5                         l2977 0D3B                         l2969 0D2B  
                       l2993 03F9                         l2985 03DB                         l2897 149D  
                       l2889 1482                         l3785 018E                         l3777 00E8  
                       l2979 0D3F                         l2995 03FE                         l3779 00EB  
                       l2997 0405                         l2989 03EC                         l2999 040B  
                       STR_1 0B00              __end_of_OLED_YX 145C                  ?_OLED_Clear 0070  
                       u3000 0D98                         u3001 0D97                         u3020 0DAD  
                       u3100 0B76                         u3021 0DAC                         u3005 0D94  
                       u3101 0B75                         u3030 0DB2                         u3031 0DB1  
                       u3015 0DA1                         u3120 0B86                         u3040 0B3B  
                       u4000 0EAF                         u3121 0B85                         u3105 0B72  
                       u3041 0B3A                         u4001 0EAE                         u3130 0B8B  
                       u3050 0B46                         u3210 1797                         u4010 0ECD  
                       u3131 0B8A                         u3115 0B7C                         u3051 0B45  
                       u3211 1796                         u4011 0ECC                         u2500 14D3  
                       u3060 0B57                         u3220 179C                         u3140 1758  
                       u4020 0F05                         u2501 14D2                         u3061 0B56  
                       u3221 179B                         u3205 178D                         u3141 1757  
                       u4021 0F04                         u2510 14E6                         u3150 1763  
                       u3230 1629                         u3310 15BC                         u4110 0F59  
                       u2511 14E5                         u3151 1762                         u3231 1628  
                       u3311 15BB                         u4111 0F58                         u2520 1469  
                       u2600 1709                         u3080 0B67                         u3160 176E  
                       u4200 0FC4                         u2521 1468                         u2601 1708  
                       u3081 0B66                         u3161 176D                         u3305 15B0  
                       u4201 0FC3                         u4105 0F4F                         u2450 1422  
                       u2530 147B                         u2610 1713                         u3250 163B  
                       u3330 15CB                         u3410 0033                         u4210 0FDF  
                       u4130 0F69                         u4050 0F17                         u2451 1421  
                       u2531 147A                         u2611 1712                         u3075 0B5B  
                       u3251 163A                         u3331 15CA                         u3411 0032  
                       u4211 0FDE                         u4131 0F68                         u4051 0F16  
                       u4035 0F06                         u2460 1438                         u2540 1580  
                       u2620 1720                         u3180 177E                         u3260 164D  
                       u3500 046B                         u4220 0FF2                         u4140 0F6E  
                       u3420 148D                         u4300 01F7                         u2461 1437  
                       u2541 157F                         u2621 171F                         u3181 177D  
                       u3261 164C                         u3245 162D                         u3325 15BD  
                       u3405 0029                         u3501 046A                         u4221 0FF1  
                       u4205 0FC0                         u4141 0F6D                         u4125 0F5B  
                       u4045 0F0D                         u3421 148C                         u4301 01F6  
                       u2470 14AA                         u2550 1594                         u2630 172E  
                       u2710 1702                         u3190 1788                         u3350 15DB  
                       u3510 047A                         u4150 0F82                         u4070 0F31  
                       u4230 01A8                         u2471 14A9                         u2551 1593  
                       u2631 172D                         u2711 1701                         u3095 0B68  
                       u3191 1787                         u3175 1772                         u3351 15DA  
                       u3335 15C7                         u3511 0479                         u4215 0FDB  
                       u4151 0F81                         u4071 0F30                         u4231 01A7  
                       u2800 17C8                         u2480 14AE                         u2560 159A  
                       u2640 1742                         u2720 14F2                         u3280 1662  
                       u3360 000A                         u3600 05EC                         u3520 04D0  
                       u4160 0F89                         u4080 0F44                         u3440 149D  
                       u4400 0341                         u4240 01AE                         u2801 17C7  
                       u2481 14AD                         u2561 1599                         u2641 1741  
                       u2705 16DE                         u2721 14F1                         u3281 1661  
                       u3265 1649                         u3345 15D1                         u3361 0009  
                       u3601 05EB                         u3521 04CF                         u4161 0F88  
                       u4081 0F43                         u4065 0F19                         u3441 149C  
                       u4401 0340                         u4241 01AD                         u2490 14C4  
                       u2650 1751                         u2570 154E                         u3290 15AC  
                       u3610 05F2                         u3530 04D6                         u3450 03EB  
                       u4170 0F8F                         u4090 0F4C                         u4410 0355  
                       u4330 02ED                         u4250 01B3                         u2491 14C3  
                       u2651 1750                         u2571 154D                         u3195 1784  
                       u3275 1656                         u3291 15AB                         u3611 05F1  
                       u3531 04D5                         u3451 03EA                         u4171 0F8E  
                       u4091 0F4B                         u4075 0F2D                         u3435 1492  
                       u4411 0354                         u4315 0270                         u4251 01B2  
                       u2820 17E1                         u2580 155B                         u3380 001A  
                       u2740 152E                         u3700 070A                         u3620 0609  
                       u3540 04ED                         u3460 03F9                         u4180 0F9B  
                       u4420 035C                         u4340 0304                         u4260 01D0  
                       u4500 0042                         u2821 17E0                         u2581 155A  
                       u3381 0019                         u2741 152D                         u3701 0709  
                       u3621 0608                         u3541 04EC                         u3461 03F8  
                       u4181 0F9A                         u4421 035B                         u4325 029B  
                       u4261 01CF                         u4501 0041                         u2590 1569  
                       u2910 0E27                         u3390 0024                         u2750 1536  
                       u3710 0712                         u3630 0623                         u3550 04F8  
                       u3470 040F                         u4190 0FA9                         u4430 0362  
                       u4270 01D6                         u4510 0062                         u2815 17C9  
                       u2655 174D                         u2591 1568                         u2735 14FD  
                       u2911 0E26                         u3391 0023                         u3375 000E  
                       u2751 1535                         u3711 0711                         u3631 0622  
                       u3551 04F7                         u3471 040E                         u4431 0361  
                       u4335 02E9                         u4271 01D5                         u4511 0061  
                       u2840 17F7                         u2680 141B                         u2760 13FF  
                       u3800 07EC                         u3560 050D                         u3480 044E  
                       u4440 036E                         u4280 01DB                         u4600 00C5  
                       u2841 17F6                         u2825 17DD                         u2665 143E  
                       u2681 141A                         u2905 0E0F                         u2761 13FE  
                       u3801 07EB                         u3561 050C                         u3481 044D  
                       u4441 036D                         u4345 0300                         u4281 01DA  
                       u3810 0C1E                         u2930 0E3D                         u2850 0DCC  
                       u2770 0B35                         u3730 0737                         u3650 064D  
                       u3570 0568                         u3490 0454                         u4450 037C  
                       u4370 032C                         u4290 01F2                         u4610 00D4  
                       u4530 007F                         u2835 17EB                         u3811 0C1D  
                       u2675 1452                         u2931 0E3C                         u2915 0E23  
                       u2851 0DCB                         u3395 0020                         u2771 0B34  
                       u3731 0736                         u3651 064C                         u3571 0567  
                       u3491 0453                         u4195 0FA5                         u4371 032B  
                       u4355 030F                         u4291 01F1                         u4611 00D3  
                       u4531 007E                         u2780 17B6                         u3820 0C3A  
                       u2940 0E42                         u2860 0DDD                         u3660 0654  
                       u3580 056E                         u4460 0397                         u3900 0CB7  
                       u4620 00D8                         u2781 17B5                         u3821 0C39  
                       u2941 0E41                         u2925 0E31                         u2861 0DDC  
                       u3805 07E8                         u3725 071B                         u3661 0653  
                       u3645 0643                         u3581 056D                         u4461 0396  
                       u4365 0322                         u3901 0CB6                         u4621 00D7  
                       u4605 00C1                         u4525 0073                         u3830 0C49  
                       u2870 0DFC                         u2950 0D50                         u3670 066C  
                       u3590 0585                         u4470 03AF                         u4390 033C  
                       u4550 0099                         u3831 0C48                         u2695 16BC  
                       u2871 0DFB                         u2951 0D4F                         u3671 066B  
                       u3591 0584                         u4471 03AE                         u4455 0378  
                       u4391 033B                         u4551 0098                         u2960 0D61  
                       u3760 0780                         u3680 0695                         u4480 03C9  
                       u3920 0CC6                         u3840 0C70                         u3825 0C36  
                       u2961 0D60                         u3761 077F                         u3745 073E  
                       u3681 0694                         u4481 03C8                         u4465 0393  
                       u4385 032E                         u3921 0CC5                         u3841 0C6F  
                       u4545 008D                         u2890 0E0E                         u2970 0D74  
                       u3770 0786                         u3690 069D                         u3930 0CCB  
                       u3850 0C86                         u4570 00A7                         u4490 003E  
                       u2795 17BA                         u2891 0E0D                         u2971 0D73  
                       u3771 0785                         u3755 0757                         u3691 069C  
                       u4475 03AB                         u3931 0CCA                         u3915 0CB9  
                       u4571 00A6                         u4491 003D                         u3940 0E60  
                       u3860 0C99                         u4580 00AD                         u2885 0E00  
                       u3941 0E5F                         u3861 0C98                         u4581 00AC  
                       u4565 009D                         u2990 0D86                         u3790 07D7  
                       u3950 0E66                         u3870 0CA0                         u4590 00B1  
                       u2991 0D85                         u3791 07D6                         u3951 0E65  
                       u3871 0C9F                         u3855 0C82                         u4591 00B0  
                       u3960 0E6B                         u2985 0D78                         u3785 0792  
                       u3961 0E6A                         u3970 0E89                         u3890 0CB0  
                       _SCS0 04C8                         u4907 0CDA                         u3971 0E88  
                       u3891 0CAF                         _SCS1 04C9                         u3980 0E8F  
                       u4917 14B3                         u3981 0E8E                         u3885 0CA2  
                       u3990 0E94                         u4927 1427                         u3991 0E93  
                       u4937 13DF                         u4947 0C12                         u4957 0C3B  
                       u4887 0194                         u4897 1671            OLED_Printf_Line@i 00BC  
          OLED_Printf_Line@p 00B3                         _main 00E2             __end_of_I2C_Init 13E5  
                       fsr0h 0005                         fsr1h 0007                         indf0 0000  
                       fsr0l 0004                         indf1 0001                         fsr1l 0006  
                       btemp 007E             __end_of_I2C_Stop 147F             __end_of_ADC_Init 13C5  
                       start 0002              ___fldiv@new_exp 004C                  main@voltage 00D2  
           ??_OLED_WriteData 0079                ___fltol@sign1 0078              __end_of___aldiv 0E56  
            __end_of___almod 0DC6                        ?_main 0070              __end_of___fldiv 1000  
            __end_of___awdiv 0B95              __end_of___awmod 17A6              __end_of___flmul 03D9  
            __end_of___fltol 0CD7              __end_of___lldiv 1800              ___awdiv@divisor 0070  
            __end_of___llmod 166B                        _IRCF0 04CB                        _IRCF1 04CC  
                      _IRCF2 04CD                        _IRCF3 04CE              __end_of___lwdiv 15E0  
            __end_of___lwmod 0038              ___awdiv@counter 0075           OLED_Printf_Line@ch 00BB  
         OLED_Printf_Line@ap 00C8            ??_OLED_UpdateLine 0020            __end_of_I2C_Start 14EB  
                _BatteryIcon 1800                 _I2C_WaitIdle 14A2         I2C_WaitIF@timeout_ms 0070  
                      status 0003         OLED_SetOrientation@o 0079                        wtemp0 007E  
               ?_internal_32 0070              __initialization 07F2                 __end_of_main 019E  
           __end_of_OledFont 0B00                       ??_main 00CC                    ??_OLED_YX 0078  
           ___llmod@dividend 0074                       _ADRESH 009C                       _ADRESL 009B  
           ___awdiv@dividend 0072                 ??_I2C_WaitIF 0072            __end_of_OLED_Init 0D4B  
              ?_OLED_Command 0070                       _SPLLEN 04CF                       _SSPADD 0212  
                     _SSPBUF 0211            ?_OLED_Printf_Line 0026             __end_of___xxtofl 00E2  
         ??_OLED_Printf_Line 002A                    ??___aldiv 0078                    ??___almod 0078  
    ADC_ConfigurePin@channel 0072                    ??___fldiv 0042                    ??___awdiv 0074  
                  ??___awmod 0074                    ??___flmul 0028                    ??___fltol 0074  
                  ??___lldiv 0078                    ??___llmod 0078          OLED_Printf_Line@col 00B2  
        OLED_Printf_Line@buf 004C                    ??___lwdiv 0074          OLED_Printf_Line@fmt 0026  
        OLED_Printf_Line@dst 00CB                    ??___lwmod 0074          OLED_Printf_Line@val 00C5  
        OLED_Printf_Line@src 00C9             __end_of_initMain 16B6          OLED_Printf_Line@str 00B1  
                     _memcpy 0B0C                       _memset 1400                  OLED_Clear@p 007C  
           ___awdiv@quotient 0077              ___awmod@divisor 0070              ___awmod@counter 0075  
                OLED_YX@page 0079           __end_of_I2C_WaitIF 143A                       _strcmp 1517  
                     _strcpy 13E5                    ?_I2C_Init 0070                    ?_I2C_Stop 0070  
                  ?_ADC_Init 0070     __end_of_ADC_ConfigurePin 0BFA               ??_OLED_Command 0075  
               ___xxtofl@arg 007A                 ___xxtofl@exp 0079              I2C_WriteByte@st 0074  
               ___xxtofl@val 0070      __end_of__initialization 07FD                   ___fltol@f1 0070  
             __pcstackCOMMON 0070                _I2C_WriteByte 1572                   ??_I2C_Init 0070  
                 ??_I2C_Stop 0073                   ??_ADC_Init 0070  __end_of_OLED_SetOrientation 1621  
               ??_OLED_Clear 0020            __end_of__Umul8_16 14A2                _SSD1306_CtrlW 13A9  
                 __pmaintext 00E2               ?_I2C_WriteByte 0070            _ADC_Read_Averaged 0BFA  
         ?_ADC_Read_Averaged 0020                      ?_memcpy 0070                      ?_memset 0070  
                 I2C_Stop@st 0073              _OLED_UpdateLine 14EB           __end_of_OLED_Clear 1703  
                    ?_strcmp 0070                      ?_strcpy 0070      OLED_Printf_Line@val_350 00B4  
    OLED_Printf_Line@val_353 00C1      OLED_Printf_Line@val_356 00B8      OLED_Printf_Line@val_359 006E  
                  ?___xxtofl 0070          ??_ADC_Read_Averaged 0022                      _OLED_YX 143A  
                    _PPSLOCK 0E0F                      _SSPCON2 0216       I2C_WaitIdle@timeout_ms 0070  
                  ?_initMain 0070                    _I2C_Start 14C6               ?_SSD1306_CtrlW 0070  
  __end_of_ADC_Read_Averaged 0C67                      ___aldiv 0DC6                      ___almod 0D4B  
                    ___fldiv 0E56                      ___awdiv 0B36                      ___awmod 1753  
                    ___flmul 019E                      ___fltol 0C67                      ___lldiv 17A6  
                    ___llmod 1621            ??_I2C_ClearErrors 0070                      ___lwdiv 15A4  
                    ___lwmod 0004         __end_of_OLED_Command 1572                      __ptext1 166B  
                    __ptext2 13B2                      __ptext3 0B95                      __ptext4 0038  
                    __ptext5 0C67                      __ptext6 019E                      __ptext7 147F  
                    __ptext8 0E56                      __ptext9 15E0         OLED_Printf_Line@line 00C7  
       OLED_Printf_Line@temp 00A0                   ??___xxtofl 0074             ___awmod@dividend 0072  
           ___aldiv@dividend 0074                      clrloop0 13C6         end_of_initialization 07FD  
                    memcpy@d 0076                      memcpy@n 0074                      memcpy@s 0078  
                 ??_initMain 0073                      memset@c 0072                      memset@n 0074  
                    memset@p 0076                    _OLED_Init 0CD7                   ?_I2C_Start 0070  
          OLED_WriteData@len 0077              ??_I2C_WriteByte 0073              ___lldiv@divisor 0070  
            ___lldiv@counter 007D      __end_of_OLED_UpdateLine 1517             ___aldiv@quotient 0022  
                    strcmp@l 0073                      strcmp@r 0070                      strcpy@d 0075  
        OLED_UpdateLine@page 007C                ___xxtofl@sign 0078                    _TRISAbits 008C  
                  _TRISBbits 008D                    _TRISCbits 008E              OLED_YX@col_char 0077  
                ___fldiv@grs 004E                  ___fldiv@rem 0047                    _RXPPSbits 0E24  
          ?_ADC_ConfigurePin 0070              OLED_Command@cmd 0075                  ___flmul@grs 002E  
            ??_SSD1306_CtrlW 0070           ??_ADC_ConfigurePin 0070                   ?_OLED_Init 0070  
             __end_of_memcpy 0B36               __end_of_memset 141C               __end_of_strcmp 1544  
             __end_of_strcpy 1400          start_initialization 07F2              ___llmod@divisor 0070  
                ??_I2C_Start 0073              ___llmod@counter 0079     ADC_Read_Averaged@channel 0026  
           ?_OLED_UpdateLine 0070                   OLED_YX@col 007A                    __Umul8_16 147F  
   ADC_Read_Averaged@samples 0020                     ??_memcpy 0076                     ??_memset 0076  
                 memset@dest 0070                     ??_strcmp 0072                     ??_strcpy 0073  
                  ___fldiv@a 003A                    ___fldiv@b 003E                  __pbssBIGRAM 24F0  
                  ___flmul@a 0024                    ___flmul@b 0020                    ___latbits 0003  
                   ?_OLED_YX 0077                __pcstackBANK0 0020                __pcstackBANK1 00A0  
              ?_I2C_WaitIdle 0070                 _OLED_Command 1544              _I2C_ClearErrors 13AB  
              ??_internal_32 0070                  ??_OLED_Init 007D                _screen_buffer 24F0  
           ___lwdiv@dividend 0072                     ?___aldiv 0070                     ?___almod 0070  
                   ?___fldiv 003A                     ?___awdiv 0070                     ?___awmod 0070  
                   ?___flmul 0020                     ?___fltol 0070                     ?___lldiv 0070  
                   ?___llmod 0070                   ?__Umul8_16 0070                     ?___lwdiv 0070  
                   ?___lwmod 0070       OLED_Printf_Line@nibble 00BA             _OLED_Printf_Line 03D9  
           ___almod@dividend 0074                  I2C_Start@st 0073                     _I2C_Init 13D1  
                   _I2C_Stop 145C                     _ADC_Init 13BB               _OLED_WriteData 1703  
           ___lwdiv@quotient 0075               ??_I2C_WaitIdle 0072              ___aldiv@divisor 0070  
            ___aldiv@counter 0020                    clear_ram0 13C5     OLED_Printf_Line@temp_351 0036  
   OLED_Printf_Line@temp_360 00AC     OLED_Printf_Line@temp_354 0041     OLED_Printf_Line@temp_357 00A6  
           OLED_WriteData@st 007B                     _PIR1bits 0011                     _PIR2bits 0012  
        __end_of_internal_32 13BB                   _ADCON0bits 009D                   _ADCON1bits 009E  
     __end_of_OLED_WriteData 1753               OLED_Command@st 0076      __end_of_I2C_ClearErrors 13B2  
                 _I2C_WaitIF 141C                     _OledFont 0800                    memcpy@tmp 007A  
      __end_of_I2C_WriteByte 15A4                  ??__Umul8_16 0072                   _ANSELAbits 018C  
                 _ANSELBbits 018D                   _ANSELCbits 018E              ?_OLED_WriteData 0075  
                   ___xxtofl 0038        OLED_Printf_Line@i_352 00BD        OLED_Printf_Line@i_361 00C0  
      OLED_Printf_Line@i_355 00BE        OLED_Printf_Line@i_358 00BF              ___lwdiv@divisor 0070  
            ___lwdiv@counter 0077                     __ptext10 03D9                     __ptext11 13E5  
                   __ptext20 0DC6                     __ptext12 1517                     __ptext21 14EB  
                   __ptext13 0B0C                     __ptext30 145C                     __ptext22 0CD7  
                   __ptext14 0004                     __ptext31 14C6                     __ptext23 16B6  
                   __ptext15 15A4                     __ptext32 14A2                     __ptext24 1400  
                   __ptext16 1621                     __ptext33 141C                     __ptext25 143A  
                   __ptext17 1753                     __ptext34 13D1                     __ptext26 1544  
                   __ptext18 0B36                     __ptext35 13AB                     __ptext27 1703  
                   __ptext19 0D4B                     __ptext36 0BFA                     __ptext28 13A9  
                   __ptext37 17A6                     __ptext29 1572                     __ptext38 13BB  
            ___almod@divisor 0070              ___almod@counter 0079                   strcpy@dest 0070  
                   _initMain 166B                _SSPDATPPSbits 0E21                  _internal_32 13B2  
      __end_of_SSD1306_CtrlW 13AB                   _RB2PPSbits 0E9A              OLED_WriteData@i 0079  
                 _RC4PPSbits 0EA4                     main@LM35 00D6                _SSPCLKPPSbits 0E20  
                 _RC5PPSbits 0EA5         __end_of_I2C_WaitIdle 14C6          _OLED_SetOrientation 15E0  
                   memcpy@d1 0070                     memcpy@s1 0072             ?_I2C_ClearErrors 0070  
                ?_I2C_WaitIF 0070                   _OLED_Clear 16B6         _OLED_Printf_Line$363 006C  
         OLED_WriteData@data 0075     __end_of_OLED_Printf_Line 07F2             ___lwmod@dividend 0072  
       ?_OLED_SetOrientation 0070             ___lldiv@dividend 0074                    strcpy@src 0072  
                _PPSLOCKbits 0E0F                __pstringtext1 1800                __pstringtext2 0800  
              __pstringtext3 0000       __Umul8_16@multiplicand 0070             ___lldiv@quotient 0079  
            ___lwmod@divisor 0070              ___lwmod@counter 0075                 ___aldiv@sign 0021  
                _SSPCON1bits 0215                  _SSPCON2bits 0216         ADC_Read_Averaged@sum 0027  
               ___almod@sign 007A        ??_OLED_SetOrientation 0077         __Umul8_16@multiplier 0078  
          I2C_WriteByte@data 0073                   _SSPCONbits 0215           ADC_Read_Averaged@i 002B  
        __end_of_BatteryIcon 180A            __Umul8_16@product 0074  
