

Microchip MPLAB XC8 Assembler V2.46 build 20240104201356 
                                                                                               Sat Feb 07 19:37:08 2026

Microchip MPLAB XC8 C Compiler v2.46 (Free license) build 20240104201356 Og1 
     1                           	processor	16F1718
     2                           	pagewidth 120
     3                           	opt	flic
     4                           	psect	stringtext1,global,class=STRCODE,delta=2,noexec
     5                           	psect	stringtext2,global,class=STRCODE,delta=2,noexec
     6                           	psect	stringtext3,global,class=STRCODE,delta=2,noexec
     7                           	psect	stringtext4,global,class=STRCODE,delta=2,noexec
     8                           	psect	stringtext5,global,class=STRCODE,delta=2,noexec
     9                           	psect	stringtext6,global,class=STRCODE,delta=2,noexec
    10                           	psect	stringtext7,global,class=STRCODE,delta=2,noexec
    11                           	psect	stringtext8,global,class=STRCODE,delta=2,noexec
    12                           	psect	stringtext9,global,class=STRCODE,delta=2,noexec
    13                           	psect	stringtext10,global,class=STRCODE,delta=2,noexec
    14                           	psect	stringtext11,global,class=STRCODE,delta=2,noexec
    15                           	psect	stringtext12,global,class=STRCODE,delta=2,noexec
    16                           	psect	stringtext13,global,class=STRCODE,delta=2,noexec
    17                           	psect	stringtext14,global,class=STRCODE,delta=2,noexec
    18                           	psect	stringtext15,global,class=STRCODE,delta=2,noexec
    19                           	psect	stringtext16,global,class=STRCODE,delta=2,noexec
    20                           	psect	stringtext17,global,class=STRCODE,delta=2,noexec
    21                           	psect	stringtext18,global,class=STRCODE,delta=2,noexec
    22                           	psect	stringtext19,global,class=STRCODE,delta=2,noexec
    23                           	psect	stringtext20,global,class=STRCODE,delta=2,noexec
    24                           	psect	stringtext21,global,class=STRCODE,delta=2,noexec
    25                           	psect	stringtext22,global,class=STRCODE,delta=2,noexec
    26                           	psect	stringtext23,global,class=STRCODE,delta=2,noexec
    27                           	psect	stringtext24,global,class=STRCODE,delta=2,noexec
    28                           	psect	stringtext25,global,class=STRCODE,delta=2,noexec
    29                           	psect	cinit,global,class=CODE,merge=1,delta=2
    30                           	psect	bssBANK1,global,class=BANK1,space=1,delta=1,noexec
    31                           	psect	bssBANK2,global,class=BANK2,space=1,delta=1,noexec
    32                           	psect	clrtext,global,class=CODE,delta=2
    33                           	psect	cstackBANK1,global,class=BANK1,space=1,delta=1,noexec
    34                           	psect	cstackCOMMON,global,class=COMMON,space=1,delta=1,noexec
    35                           	psect	cstackBANK0,global,class=BANK0,space=1,delta=1,noexec
    36                           	psect	maintext,global,class=CODE,merge=1,split=1,delta=2
    37                           	psect	text1,local,class=CODE,merge=1,delta=2
    38                           	psect	text2,local,class=CODE,merge=1,delta=2
    39                           	psect	text3,local,class=CODE,merge=1,delta=2
    40                           	psect	text4,local,class=CODE,merge=1,delta=2
    41                           	psect	text5,local,class=CODE,merge=1,delta=2
    42                           	psect	text6,local,class=CODE,merge=1,delta=2
    43                           	psect	text7,local,class=CODE,merge=1,delta=2
    44                           	psect	text8,local,class=CODE,merge=1,delta=2
    45                           	psect	text9,local,class=CODE,merge=1,delta=2
    46                           	psect	text10,local,class=CODE,merge=1,delta=2
    47                           	psect	text11,local,class=CODE,merge=1,delta=2
    48                           	psect	text12,local,class=CODE,merge=1,delta=2
    49                           	psect	text13,local,class=CODE,merge=1,delta=2
    50                           	psect	text14,local,class=CODE,merge=1,delta=2
    51                           	psect	text15,local,class=CODE,merge=1,delta=2
    52                           	psect	text16,local,class=CODE,merge=1,delta=2
    53                           	psect	text17,local,class=CODE,merge=1,delta=2
    54                           	psect	text18,local,class=CODE,merge=1,delta=2
    55                           	psect	text19,local,class=CODE,merge=1,delta=2
    56                           	psect	text20,local,class=CODE,merge=1,delta=2
    57                           	psect	text21,local,class=CODE,merge=1,delta=2
    58                           	psect	text22,local,class=CODE,merge=1,delta=2
    59                           	psect	text23,local,class=CODE,merge=1,delta=2
    60                           	psect	text24,local,class=CODE,merge=1,delta=2
    61                           	psect	text25,local,class=CODE,merge=1,delta=2,group=1
    62                           	psect	text26,local,class=CODE,merge=1,delta=2
    63                           	psect	text27,local,class=CODE,merge=1,delta=2
    64                           	psect	text28,local,class=CODE,merge=1,delta=2
    65                           	psect	text29,local,class=CODE,merge=1,delta=2,group=1
    66                           	psect	text30,local,class=CODE,merge=1,delta=2
    67                           	psect	text31,local,class=CODE,merge=1,delta=2
    68                           	psect	text32,local,class=CODE,merge=1,delta=2
    69                           	psect	text33,local,class=CODE,merge=1,delta=2
    70                           	psect	text34,local,class=CODE,merge=1,delta=2
    71                           	psect	text35,local,class=CODE,merge=1,delta=2
    72                           	psect	text36,local,class=CODE,merge=1,delta=2,group=1
    73                           	psect	intentry,global,class=CODE,delta=2
    74                           	psect	config,global,abs,ovrld,class=CONFIG,space=4,delta=2,noexec
    75                           	dabs	1,0x7E,2
    76     0000                     
    77                           ; Generated 07/09/2023 GMT
    78                           ; 
    79                           ; Copyright © 2023, Microchip Technology Inc. and its subsidiaries ("Microchip")
    80                           ; All rights reserved.
    81                           ; 
    82                           ; This software is developed by Microchip Technology Inc. and its subsidiaries ("Microch
      +                          ip").
    83                           ; 
    84                           ; Redistribution and use in source and binary forms, with or without modification, are
    85                           ; permitted provided that the following conditions are met:
    86                           ; 
    87                           ;     1. Redistributions of source code must retain the above copyright notice, this lis
      +                          t of
    88                           ;        conditions and the following disclaimer.
    89                           ; 
    90                           ;     2. Redistributions in binary form must reproduce the above copyright notice, this 
      +                          list
    91                           ;        of conditions and the following disclaimer in the documentation and/or other
    92                           ;        materials provided with the distribution. Publication is not required when
    93                           ;        this file is used in an embedded application.
    94                           ; 
    95                           ;     3. Microchip's name may not be used to endorse or promote products derived from th
      +                          is
    96                           ;        software without specific prior written permission.
    97                           ; 
    98                           ; THIS SOFTWARE IS PROVIDED BY MICROCHIP "AS IS" AND ANY EXPRESS OR IMPLIED WARRANTIES,
    99                           ; INCLUDING, BUT NOT LIMITED TO, THE IMPLIED WARRANTIES OF MERCHANTABILITY AND FITNESS F
      +                          OR
   100                           ; PURPOSE ARE DISCLAIMED.  IN NO EVENT SHALL MICROCHIP BE LIABLE FOR ANY DIRECT, INDIREC
      +                          T,
   101                           ; INCIDENTAL, SPECIAL, EXEMPLARY, OR CONSEQUENTIAL DAMAGES (INCLUDING BUT NOT LIMITED TO
   102                           ; PROCUREMENT OF SUBSTITUTE GOODS OR SERVICES; LOSS OF USE, DATA OR PROFITS; OR BUSINESS
   103                           ; INTERRUPTION) HOWSOEVER CAUSED AND ON ANY THEORY OF LIABILITY, WHETHER IN CONTRACT, ST
      +                          RICT
   104                           ; LIABILITY, OR TORT (INCLUDING NEGLIGENCE OR OTHERWISE) ARISING IN ANY WAY OUT OF THE U
      +                          SE OF
   105                           ; THIS SOFTWARE, EVEN IF ADVISED OF THE POSSIBILITY OF SUCH DAMAGE.
   106                           ; 
   107                           ; 
   108                           ; Code-generator required, PIC16F1718 Definitions
   109                           ; 
   110                           ; SFR Addresses
   111     0000                     	;# 
   112     0001                     	;# 
   113     0002                     	;# 
   114     0003                     	;# 
   115     0004                     	;# 
   116     0005                     	;# 
   117     0006                     	;# 
   118     0007                     	;# 
   119     0008                     	;# 
   120     0009                     	;# 
   121     000A                     	;# 
   122     000B                     	;# 
   123     000C                     	;# 
   124     000D                     	;# 
   125     000E                     	;# 
   126     0010                     	;# 
   127     0011                     	;# 
   128     0012                     	;# 
   129     0013                     	;# 
   130     0015                     	;# 
   131     0016                     	;# 
   132     0016                     	;# 
   133     0017                     	;# 
   134     0018                     	;# 
   135     0019                     	;# 
   136     001A                     	;# 
   137     001B                     	;# 
   138     001C                     	;# 
   139     008C                     	;# 
   140     008D                     	;# 
   141     008E                     	;# 
   142     0090                     	;# 
   143     0091                     	;# 
   144     0092                     	;# 
   145     0093                     	;# 
   146     0095                     	;# 
   147     0096                     	;# 
   148     0097                     	;# 
   149     0098                     	;# 
   150     0099                     	;# 
   151     009A                     	;# 
   152     009B                     	;# 
   153     009B                     	;# 
   154     009C                     	;# 
   155     009D                     	;# 
   156     009E                     	;# 
   157     009F                     	;# 
   158     010C                     	;# 
   159     010D                     	;# 
   160     010E                     	;# 
   161     0111                     	;# 
   162     0112                     	;# 
   163     0113                     	;# 
   164     0114                     	;# 
   165     0115                     	;# 
   166     0116                     	;# 
   167     0117                     	;# 
   168     0118                     	;# 
   169     0119                     	;# 
   170     011A                     	;# 
   171     011B                     	;# 
   172     011B                     	;# 
   173     011C                     	;# 
   174     018C                     	;# 
   175     018D                     	;# 
   176     018E                     	;# 
   177     0191                     	;# 
   178     0191                     	;# 
   179     0192                     	;# 
   180     0193                     	;# 
   181     0193                     	;# 
   182     0194                     	;# 
   183     0195                     	;# 
   184     0196                     	;# 
   185     0197                     	;# 
   186     0199                     	;# 
   187     0199                     	;# 
   188     0199                     	;# 
   189     019A                     	;# 
   190     019A                     	;# 
   191     019A                     	;# 
   192     019B                     	;# 
   193     019B                     	;# 
   194     019B                     	;# 
   195     019B                     	;# 
   196     019B                     	;# 
   197     019C                     	;# 
   198     019C                     	;# 
   199     019C                     	;# 
   200     019D                     	;# 
   201     019D                     	;# 
   202     019D                     	;# 
   203     019E                     	;# 
   204     019E                     	;# 
   205     019E                     	;# 
   206     019F                     	;# 
   207     019F                     	;# 
   208     019F                     	;# 
   209     019F                     	;# 
   210     019F                     	;# 
   211     020C                     	;# 
   212     020D                     	;# 
   213     020E                     	;# 
   214     0210                     	;# 
   215     0211                     	;# 
   216     0211                     	;# 
   217     0212                     	;# 
   218     0212                     	;# 
   219     0213                     	;# 
   220     0213                     	;# 
   221     0214                     	;# 
   222     0214                     	;# 
   223     0215                     	;# 
   224     0215                     	;# 
   225     0215                     	;# 
   226     0215                     	;# 
   227     0216                     	;# 
   228     0216                     	;# 
   229     0217                     	;# 
   230     0217                     	;# 
   231     028C                     	;# 
   232     028D                     	;# 
   233     028E                     	;# 
   234     0291                     	;# 
   235     0291                     	;# 
   236     0292                     	;# 
   237     0293                     	;# 
   238     0293                     	;# 
   239     0298                     	;# 
   240     0298                     	;# 
   241     0299                     	;# 
   242     029A                     	;# 
   243     029A                     	;# 
   244     029E                     	;# 
   245     030C                     	;# 
   246     030D                     	;# 
   247     030E                     	;# 
   248     038C                     	;# 
   249     038D                     	;# 
   250     038E                     	;# 
   251     0390                     	;# 
   252     0391                     	;# 
   253     0392                     	;# 
   254     0393                     	;# 
   255     0394                     	;# 
   256     0395                     	;# 
   257     0396                     	;# 
   258     0397                     	;# 
   259     0398                     	;# 
   260     0399                     	;# 
   261     039D                     	;# 
   262     039E                     	;# 
   263     039F                     	;# 
   264     0415                     	;# 
   265     0416                     	;# 
   266     0417                     	;# 
   267     041C                     	;# 
   268     041D                     	;# 
   269     041E                     	;# 
   270     0498                     	;# 
   271     0498                     	;# 
   272     0499                     	;# 
   273     049A                     	;# 
   274     049B                     	;# 
   275     049B                     	;# 
   276     049C                     	;# 
   277     049D                     	;# 
   278     049E                     	;# 
   279     049F                     	;# 
   280     0511                     	;# 
   281     0515                     	;# 
   282     0617                     	;# 
   283     0618                     	;# 
   284     0619                     	;# 
   285     0619                     	;# 
   286     061A                     	;# 
   287     061B                     	;# 
   288     061C                     	;# 
   289     061C                     	;# 
   290     0691                     	;# 
   291     0692                     	;# 
   292     0693                     	;# 
   293     0694                     	;# 
   294     0695                     	;# 
   295     0696                     	;# 
   296     0697                     	;# 
   297     0698                     	;# 
   298     0699                     	;# 
   299     069A                     	;# 
   300     069B                     	;# 
   301     069C                     	;# 
   302     069D                     	;# 
   303     069E                     	;# 
   304     069F                     	;# 
   305     0E0F                     	;# 
   306     0E10                     	;# 
   307     0E11                     	;# 
   308     0E12                     	;# 
   309     0E13                     	;# 
   310     0E14                     	;# 
   311     0E15                     	;# 
   312     0E17                     	;# 
   313     0E20                     	;# 
   314     0E21                     	;# 
   315     0E22                     	;# 
   316     0E24                     	;# 
   317     0E25                     	;# 
   318     0E28                     	;# 
   319     0E29                     	;# 
   320     0E2A                     	;# 
   321     0E2B                     	;# 
   322     0E90                     	;# 
   323     0E91                     	;# 
   324     0E92                     	;# 
   325     0E93                     	;# 
   326     0E94                     	;# 
   327     0E95                     	;# 
   328     0E96                     	;# 
   329     0E97                     	;# 
   330     0E98                     	;# 
   331     0E99                     	;# 
   332     0E9A                     	;# 
   333     0E9B                     	;# 
   334     0E9C                     	;# 
   335     0E9D                     	;# 
   336     0E9E                     	;# 
   337     0E9F                     	;# 
   338     0EA0                     	;# 
   339     0EA1                     	;# 
   340     0EA2                     	;# 
   341     0EA3                     	;# 
   342     0EA4                     	;# 
   343     0EA5                     	;# 
   344     0EA6                     	;# 
   345     0EA7                     	;# 
   346     0F0F                     	;# 
   347     0F10                     	;# 
   348     0F11                     	;# 
   349     0F12                     	;# 
   350     0F13                     	;# 
   351     0F14                     	;# 
   352     0F15                     	;# 
   353     0F16                     	;# 
   354     0F17                     	;# 
   355     0F18                     	;# 
   356     0F19                     	;# 
   357     0F1A                     	;# 
   358     0F1B                     	;# 
   359     0F1C                     	;# 
   360     0F1D                     	;# 
   361     0F1E                     	;# 
   362     0F1F                     	;# 
   363     0F20                     	;# 
   364     0F21                     	;# 
   365     0F22                     	;# 
   366     0F23                     	;# 
   367     0F24                     	;# 
   368     0F25                     	;# 
   369     0F26                     	;# 
   370     0F27                     	;# 
   371     0F28                     	;# 
   372     0F29                     	;# 
   373     0F2A                     	;# 
   374     0F2B                     	;# 
   375     0F2C                     	;# 
   376     0F2D                     	;# 
   377     0F2E                     	;# 
   378     0F2F                     	;# 
   379     0F30                     	;# 
   380     0F31                     	;# 
   381     0F32                     	;# 
   382     0F33                     	;# 
   383     0F34                     	;# 
   384     0F35                     	;# 
   385     0F36                     	;# 
   386     0F37                     	;# 
   387     0FE4                     	;# 
   388     0FE5                     	;# 
   389     0FE6                     	;# 
   390     0FE7                     	;# 
   391     0FE8                     	;# 
   392     0FE9                     	;# 
   393     0FEA                     	;# 
   394     0FEB                     	;# 
   395     0FED                     	;# 
   396     0FEE                     	;# 
   397     0FEF                     	;# 
   398     0000                     	;# 
   399     0001                     	;# 
   400     0002                     	;# 
   401     0003                     	;# 
   402     0004                     	;# 
   403     0005                     	;# 
   404     0006                     	;# 
   405     0007                     	;# 
   406     0008                     	;# 
   407     0009                     	;# 
   408     000A                     	;# 
   409     000B                     	;# 
   410     000C                     	;# 
   411     000D                     	;# 
   412     000E                     	;# 
   413     0010                     	;# 
   414     0011                     	;# 
   415     0012                     	;# 
   416     0013                     	;# 
   417     0015                     	;# 
   418     0016                     	;# 
   419     0016                     	;# 
   420     0017                     	;# 
   421     0018                     	;# 
   422     0019                     	;# 
   423     001A                     	;# 
   424     001B                     	;# 
   425     001C                     	;# 
   426     008C                     	;# 
   427     008D                     	;# 
   428     008E                     	;# 
   429     0090                     	;# 
   430     0091                     	;# 
   431     0092                     	;# 
   432     0093                     	;# 
   433     0095                     	;# 
   434     0096                     	;# 
   435     0097                     	;# 
   436     0098                     	;# 
   437     0099                     	;# 
   438     009A                     	;# 
   439     009B                     	;# 
   440     009B                     	;# 
   441     009C                     	;# 
   442     009D                     	;# 
   443     009E                     	;# 
   444     009F                     	;# 
   445     010C                     	;# 
   446     010D                     	;# 
   447     010E                     	;# 
   448     0111                     	;# 
   449     0112                     	;# 
   450     0113                     	;# 
   451     0114                     	;# 
   452     0115                     	;# 
   453     0116                     	;# 
   454     0117                     	;# 
   455     0118                     	;# 
   456     0119                     	;# 
   457     011A                     	;# 
   458     011B                     	;# 
   459     011B                     	;# 
   460     011C                     	;# 
   461     018C                     	;# 
   462     018D                     	;# 
   463     018E                     	;# 
   464     0191                     	;# 
   465     0191                     	;# 
   466     0192                     	;# 
   467     0193                     	;# 
   468     0193                     	;# 
   469     0194                     	;# 
   470     0195                     	;# 
   471     0196                     	;# 
   472     0197                     	;# 
   473     0199                     	;# 
   474     0199                     	;# 
   475     0199                     	;# 
   476     019A                     	;# 
   477     019A                     	;# 
   478     019A                     	;# 
   479     019B                     	;# 
   480     019B                     	;# 
   481     019B                     	;# 
   482     019B                     	;# 
   483     019B                     	;# 
   484     019C                     	;# 
   485     019C                     	;# 
   486     019C                     	;# 
   487     019D                     	;# 
   488     019D                     	;# 
   489     019D                     	;# 
   490     019E                     	;# 
   491     019E                     	;# 
   492     019E                     	;# 
   493     019F                     	;# 
   494     019F                     	;# 
   495     019F                     	;# 
   496     019F                     	;# 
   497     019F                     	;# 
   498     020C                     	;# 
   499     020D                     	;# 
   500     020E                     	;# 
   501     0210                     	;# 
   502     0211                     	;# 
   503     0211                     	;# 
   504     0212                     	;# 
   505     0212                     	;# 
   506     0213                     	;# 
   507     0213                     	;# 
   508     0214                     	;# 
   509     0214                     	;# 
   510     0215                     	;# 
   511     0215                     	;# 
   512     0215                     	;# 
   513     0215                     	;# 
   514     0216                     	;# 
   515     0216                     	;# 
   516     0217                     	;# 
   517     0217                     	;# 
   518     028C                     	;# 
   519     028D                     	;# 
   520     028E                     	;# 
   521     0291                     	;# 
   522     0291                     	;# 
   523     0292                     	;# 
   524     0293                     	;# 
   525     0293                     	;# 
   526     0298                     	;# 
   527     0298                     	;# 
   528     0299                     	;# 
   529     029A                     	;# 
   530     029A                     	;# 
   531     029E                     	;# 
   532     030C                     	;# 
   533     030D                     	;# 
   534     030E                     	;# 
   535     038C                     	;# 
   536     038D                     	;# 
   537     038E                     	;# 
   538     0390                     	;# 
   539     0391                     	;# 
   540     0392                     	;# 
   541     0393                     	;# 
   542     0394                     	;# 
   543     0395                     	;# 
   544     0396                     	;# 
   545     0397                     	;# 
   546     0398                     	;# 
   547     0399                     	;# 
   548     039D                     	;# 
   549     039E                     	;# 
   550     039F                     	;# 
   551     0415                     	;# 
   552     0416                     	;# 
   553     0417                     	;# 
   554     041C                     	;# 
   555     041D                     	;# 
   556     041E                     	;# 
   557     0498                     	;# 
   558     0498                     	;# 
   559     0499                     	;# 
   560     049A                     	;# 
   561     049B                     	;# 
   562     049B                     	;# 
   563     049C                     	;# 
   564     049D                     	;# 
   565     049E                     	;# 
   566     049F                     	;# 
   567     0511                     	;# 
   568     0515                     	;# 
   569     0617                     	;# 
   570     0618                     	;# 
   571     0619                     	;# 
   572     0619                     	;# 
   573     061A                     	;# 
   574     061B                     	;# 
   575     061C                     	;# 
   576     061C                     	;# 
   577     0691                     	;# 
   578     0692                     	;# 
   579     0693                     	;# 
   580     0694                     	;# 
   581     0695                     	;# 
   582     0696                     	;# 
   583     0697                     	;# 
   584     0698                     	;# 
   585     0699                     	;# 
   586     069A                     	;# 
   587     069B                     	;# 
   588     069C                     	;# 
   589     069D                     	;# 
   590     069E                     	;# 
   591     069F                     	;# 
   592     0E0F                     	;# 
   593     0E10                     	;# 
   594     0E11                     	;# 
   595     0E12                     	;# 
   596     0E13                     	;# 
   597     0E14                     	;# 
   598     0E15                     	;# 
   599     0E17                     	;# 
   600     0E20                     	;# 
   601     0E21                     	;# 
   602     0E22                     	;# 
   603     0E24                     	;# 
   604     0E25                     	;# 
   605     0E28                     	;# 
   606     0E29                     	;# 
   607     0E2A                     	;# 
   608     0E2B                     	;# 
   609     0E90                     	;# 
   610     0E91                     	;# 
   611     0E92                     	;# 
   612     0E93                     	;# 
   613     0E94                     	;# 
   614     0E95                     	;# 
   615     0E96                     	;# 
   616     0E97                     	;# 
   617     0E98                     	;# 
   618     0E99                     	;# 
   619     0E9A                     	;# 
   620     0E9B                     	;# 
   621     0E9C                     	;# 
   622     0E9D                     	;# 
   623     0E9E                     	;# 
   624     0E9F                     	;# 
   625     0EA0                     	;# 
   626     0EA1                     	;# 
   627     0EA2                     	;# 
   628     0EA3                     	;# 
   629     0EA4                     	;# 
   630     0EA5                     	;# 
   631     0EA6                     	;# 
   632     0EA7                     	;# 
   633     0F0F                     	;# 
   634     0F10                     	;# 
   635     0F11                     	;# 
   636     0F12                     	;# 
   637     0F13                     	;# 
   638     0F14                     	;# 
   639     0F15                     	;# 
   640     0F16                     	;# 
   641     0F17                     	;# 
   642     0F18                     	;# 
   643     0F19                     	;# 
   644     0F1A                     	;# 
   645     0F1B                     	;# 
   646     0F1C                     	;# 
   647     0F1D                     	;# 
   648     0F1E                     	;# 
   649     0F1F                     	;# 
   650     0F20                     	;# 
   651     0F21                     	;# 
   652     0F22                     	;# 
   653     0F23                     	;# 
   654     0F24                     	;# 
   655     0F25                     	;# 
   656     0F26                     	;# 
   657     0F27                     	;# 
   658     0F28                     	;# 
   659     0F29                     	;# 
   660     0F2A                     	;# 
   661     0F2B                     	;# 
   662     0F2C                     	;# 
   663     0F2D                     	;# 
   664     0F2E                     	;# 
   665     0F2F                     	;# 
   666     0F30                     	;# 
   667     0F31                     	;# 
   668     0F32                     	;# 
   669     0F33                     	;# 
   670     0F34                     	;# 
   671     0F35                     	;# 
   672     0F36                     	;# 
   673     0F37                     	;# 
   674     0FE4                     	;# 
   675     0FE5                     	;# 
   676     0FE6                     	;# 
   677     0FE7                     	;# 
   678     0FE8                     	;# 
   679     0FE9                     	;# 
   680     0FEA                     	;# 
   681     0FEB                     	;# 
   682     0FED                     	;# 
   683     0FEE                     	;# 
   684     0FEF                     	;# 
   685     0000                     	;# 
   686     0001                     	;# 
   687     0002                     	;# 
   688     0003                     	;# 
   689     0004                     	;# 
   690     0005                     	;# 
   691     0006                     	;# 
   692     0007                     	;# 
   693     0008                     	;# 
   694     0009                     	;# 
   695     000A                     	;# 
   696     000B                     	;# 
   697     000C                     	;# 
   698     000D                     	;# 
   699     000E                     	;# 
   700     0010                     	;# 
   701     0011                     	;# 
   702     0012                     	;# 
   703     0013                     	;# 
   704     0015                     	;# 
   705     0016                     	;# 
   706     0016                     	;# 
   707     0017                     	;# 
   708     0018                     	;# 
   709     0019                     	;# 
   710     001A                     	;# 
   711     001B                     	;# 
   712     001C                     	;# 
   713     008C                     	;# 
   714     008D                     	;# 
   715     008E                     	;# 
   716     0090                     	;# 
   717     0091                     	;# 
   718     0092                     	;# 
   719     0093                     	;# 
   720     0095                     	;# 
   721     0096                     	;# 
   722     0097                     	;# 
   723     0098                     	;# 
   724     0099                     	;# 
   725     009A                     	;# 
   726     009B                     	;# 
   727     009B                     	;# 
   728     009C                     	;# 
   729     009D                     	;# 
   730     009E                     	;# 
   731     009F                     	;# 
   732     010C                     	;# 
   733     010D                     	;# 
   734     010E                     	;# 
   735     0111                     	;# 
   736     0112                     	;# 
   737     0113                     	;# 
   738     0114                     	;# 
   739     0115                     	;# 
   740     0116                     	;# 
   741     0117                     	;# 
   742     0118                     	;# 
   743     0119                     	;# 
   744     011A                     	;# 
   745     011B                     	;# 
   746     011B                     	;# 
   747     011C                     	;# 
   748     018C                     	;# 
   749     018D                     	;# 
   750     018E                     	;# 
   751     0191                     	;# 
   752     0191                     	;# 
   753     0192                     	;# 
   754     0193                     	;# 
   755     0193                     	;# 
   756     0194                     	;# 
   757     0195                     	;# 
   758     0196                     	;# 
   759     0197                     	;# 
   760     0199                     	;# 
   761     0199                     	;# 
   762     0199                     	;# 
   763     019A                     	;# 
   764     019A                     	;# 
   765     019A                     	;# 
   766     019B                     	;# 
   767     019B                     	;# 
   768     019B                     	;# 
   769     019B                     	;# 
   770     019B                     	;# 
   771     019C                     	;# 
   772     019C                     	;# 
   773     019C                     	;# 
   774     019D                     	;# 
   775     019D                     	;# 
   776     019D                     	;# 
   777     019E                     	;# 
   778     019E                     	;# 
   779     019E                     	;# 
   780     019F                     	;# 
   781     019F                     	;# 
   782     019F                     	;# 
   783     019F                     	;# 
   784     019F                     	;# 
   785     020C                     	;# 
   786     020D                     	;# 
   787     020E                     	;# 
   788     0210                     	;# 
   789     0211                     	;# 
   790     0211                     	;# 
   791     0212                     	;# 
   792     0212                     	;# 
   793     0213                     	;# 
   794     0213                     	;# 
   795     0214                     	;# 
   796     0214                     	;# 
   797     0215                     	;# 
   798     0215                     	;# 
   799     0215                     	;# 
   800     0215                     	;# 
   801     0216                     	;# 
   802     0216                     	;# 
   803     0217                     	;# 
   804     0217                     	;# 
   805     028C                     	;# 
   806     028D                     	;# 
   807     028E                     	;# 
   808     0291                     	;# 
   809     0291                     	;# 
   810     0292                     	;# 
   811     0293                     	;# 
   812     0293                     	;# 
   813     0298                     	;# 
   814     0298                     	;# 
   815     0299                     	;# 
   816     029A                     	;# 
   817     029A                     	;# 
   818     029E                     	;# 
   819     030C                     	;# 
   820     030D                     	;# 
   821     030E                     	;# 
   822     038C                     	;# 
   823     038D                     	;# 
   824     038E                     	;# 
   825     0390                     	;# 
   826     0391                     	;# 
   827     0392                     	;# 
   828     0393                     	;# 
   829     0394                     	;# 
   830     0395                     	;# 
   831     0396                     	;# 
   832     0397                     	;# 
   833     0398                     	;# 
   834     0399                     	;# 
   835     039D                     	;# 
   836     039E                     	;# 
   837     039F                     	;# 
   838     0415                     	;# 
   839     0416                     	;# 
   840     0417                     	;# 
   841     041C                     	;# 
   842     041D                     	;# 
   843     041E                     	;# 
   844     0498                     	;# 
   845     0498                     	;# 
   846     0499                     	;# 
   847     049A                     	;# 
   848     049B                     	;# 
   849     049B                     	;# 
   850     049C                     	;# 
   851     049D                     	;# 
   852     049E                     	;# 
   853     049F                     	;# 
   854     0511                     	;# 
   855     0515                     	;# 
   856     0617                     	;# 
   857     0618                     	;# 
   858     0619                     	;# 
   859     0619                     	;# 
   860     061A                     	;# 
   861     061B                     	;# 
   862     061C                     	;# 
   863     061C                     	;# 
   864     0691                     	;# 
   865     0692                     	;# 
   866     0693                     	;# 
   867     0694                     	;# 
   868     0695                     	;# 
   869     0696                     	;# 
   870     0697                     	;# 
   871     0698                     	;# 
   872     0699                     	;# 
   873     069A                     	;# 
   874     069B                     	;# 
   875     069C                     	;# 
   876     069D                     	;# 
   877     069E                     	;# 
   878     069F                     	;# 
   879     0E0F                     	;# 
   880     0E10                     	;# 
   881     0E11                     	;# 
   882     0E12                     	;# 
   883     0E13                     	;# 
   884     0E14                     	;# 
   885     0E15                     	;# 
   886     0E17                     	;# 
   887     0E20                     	;# 
   888     0E21                     	;# 
   889     0E22                     	;# 
   890     0E24                     	;# 
   891     0E25                     	;# 
   892     0E28                     	;# 
   893     0E29                     	;# 
   894     0E2A                     	;# 
   895     0E2B                     	;# 
   896     0E90                     	;# 
   897     0E91                     	;# 
   898     0E92                     	;# 
   899     0E93                     	;# 
   900     0E94                     	;# 
   901     0E95                     	;# 
   902     0E96                     	;# 
   903     0E97                     	;# 
   904     0E98                     	;# 
   905     0E99                     	;# 
   906     0E9A                     	;# 
   907     0E9B                     	;# 
   908     0E9C                     	;# 
   909     0E9D                     	;# 
   910     0E9E                     	;# 
   911     0E9F                     	;# 
   912     0EA0                     	;# 
   913     0EA1                     	;# 
   914     0EA2                     	;# 
   915     0EA3                     	;# 
   916     0EA4                     	;# 
   917     0EA5                     	;# 
   918     0EA6                     	;# 
   919     0EA7                     	;# 
   920     0F0F                     	;# 
   921     0F10                     	;# 
   922     0F11                     	;# 
   923     0F12                     	;# 
   924     0F13                     	;# 
   925     0F14                     	;# 
   926     0F15                     	;# 
   927     0F16                     	;# 
   928     0F17                     	;# 
   929     0F18                     	;# 
   930     0F19                     	;# 
   931     0F1A                     	;# 
   932     0F1B                     	;# 
   933     0F1C                     	;# 
   934     0F1D                     	;# 
   935     0F1E                     	;# 
   936     0F1F                     	;# 
   937     0F20                     	;# 
   938     0F21                     	;# 
   939     0F22                     	;# 
   940     0F23                     	;# 
   941     0F24                     	;# 
   942     0F25                     	;# 
   943     0F26                     	;# 
   944     0F27                     	;# 
   945     0F28                     	;# 
   946     0F29                     	;# 
   947     0F2A                     	;# 
   948     0F2B                     	;# 
   949     0F2C                     	;# 
   950     0F2D                     	;# 
   951     0F2E                     	;# 
   952     0F2F                     	;# 
   953     0F30                     	;# 
   954     0F31                     	;# 
   955     0F32                     	;# 
   956     0F33                     	;# 
   957     0F34                     	;# 
   958     0F35                     	;# 
   959     0F36                     	;# 
   960     0F37                     	;# 
   961     0FE4                     	;# 
   962     0FE5                     	;# 
   963     0FE6                     	;# 
   964     0FE7                     	;# 
   965     0FE8                     	;# 
   966     0FE9                     	;# 
   967     0FEA                     	;# 
   968     0FEB                     	;# 
   969     0FED                     	;# 
   970     0FEE                     	;# 
   971     0FEF                     	;# 
   972     0000                     	;# 
   973     0001                     	;# 
   974     0002                     	;# 
   975     0003                     	;# 
   976     0004                     	;# 
   977     0005                     	;# 
   978     0006                     	;# 
   979     0007                     	;# 
   980     0008                     	;# 
   981     0009                     	;# 
   982     000A                     	;# 
   983     000B                     	;# 
   984     000C                     	;# 
   985     000D                     	;# 
   986     000E                     	;# 
   987     0010                     	;# 
   988     0011                     	;# 
   989     0012                     	;# 
   990     0013                     	;# 
   991     0015                     	;# 
   992     0016                     	;# 
   993     0016                     	;# 
   994     0017                     	;# 
   995     0018                     	;# 
   996     0019                     	;# 
   997     001A                     	;# 
   998     001B                     	;# 
   999     001C                     	;# 
  1000     008C                     	;# 
  1001     008D                     	;# 
  1002     008E                     	;# 
  1003     0090                     	;# 
  1004     0091                     	;# 
  1005     0092                     	;# 
  1006     0093                     	;# 
  1007     0095                     	;# 
  1008     0096                     	;# 
  1009     0097                     	;# 
  1010     0098                     	;# 
  1011     0099                     	;# 
  1012     009A                     	;# 
  1013     009B                     	;# 
  1014     009B                     	;# 
  1015     009C                     	;# 
  1016     009D                     	;# 
  1017     009E                     	;# 
  1018     009F                     	;# 
  1019     010C                     	;# 
  1020     010D                     	;# 
  1021     010E                     	;# 
  1022     0111                     	;# 
  1023     0112                     	;# 
  1024     0113                     	;# 
  1025     0114                     	;# 
  1026     0115                     	;# 
  1027     0116                     	;# 
  1028     0117                     	;# 
  1029     0118                     	;# 
  1030     0119                     	;# 
  1031     011A                     	;# 
  1032     011B                     	;# 
  1033     011B                     	;# 
  1034     011C                     	;# 
  1035     018C                     	;# 
  1036     018D                     	;# 
  1037     018E                     	;# 
  1038     0191                     	;# 
  1039     0191                     	;# 
  1040     0192                     	;# 
  1041     0193                     	;# 
  1042     0193                     	;# 
  1043     0194                     	;# 
  1044     0195                     	;# 
  1045     0196                     	;# 
  1046     0197                     	;# 
  1047     0199                     	;# 
  1048     0199                     	;# 
  1049     0199                     	;# 
  1050     019A                     	;# 
  1051     019A                     	;# 
  1052     019A                     	;# 
  1053     019B                     	;# 
  1054     019B                     	;# 
  1055     019B                     	;# 
  1056     019B                     	;# 
  1057     019B                     	;# 
  1058     019C                     	;# 
  1059     019C                     	;# 
  1060     019C                     	;# 
  1061     019D                     	;# 
  1062     019D                     	;# 
  1063     019D                     	;# 
  1064     019E                     	;# 
  1065     019E                     	;# 
  1066     019E                     	;# 
  1067     019F                     	;# 
  1068     019F                     	;# 
  1069     019F                     	;# 
  1070     019F                     	;# 
  1071     019F                     	;# 
  1072     020C                     	;# 
  1073     020D                     	;# 
  1074     020E                     	;# 
  1075     0210                     	;# 
  1076     0211                     	;# 
  1077     0211                     	;# 
  1078     0212                     	;# 
  1079     0212                     	;# 
  1080     0213                     	;# 
  1081     0213                     	;# 
  1082     0214                     	;# 
  1083     0214                     	;# 
  1084     0215                     	;# 
  1085     0215                     	;# 
  1086     0215                     	;# 
  1087     0215                     	;# 
  1088     0216                     	;# 
  1089     0216                     	;# 
  1090     0217                     	;# 
  1091     0217                     	;# 
  1092     028C                     	;# 
  1093     028D                     	;# 
  1094     028E                     	;# 
  1095     0291                     	;# 
  1096     0291                     	;# 
  1097     0292                     	;# 
  1098     0293                     	;# 
  1099     0293                     	;# 
  1100     0298                     	;# 
  1101     0298                     	;# 
  1102     0299                     	;# 
  1103     029A                     	;# 
  1104     029A                     	;# 
  1105     029E                     	;# 
  1106     030C                     	;# 
  1107     030D                     	;# 
  1108     030E                     	;# 
  1109     038C                     	;# 
  1110     038D                     	;# 
  1111     038E                     	;# 
  1112     0390                     	;# 
  1113     0391                     	;# 
  1114     0392                     	;# 
  1115     0393                     	;# 
  1116     0394                     	;# 
  1117     0395                     	;# 
  1118     0396                     	;# 
  1119     0397                     	;# 
  1120     0398                     	;# 
  1121     0399                     	;# 
  1122     039D                     	;# 
  1123     039E                     	;# 
  1124     039F                     	;# 
  1125     0415                     	;# 
  1126     0416                     	;# 
  1127     0417                     	;# 
  1128     041C                     	;# 
  1129     041D                     	;# 
  1130     041E                     	;# 
  1131     0498                     	;# 
  1132     0498                     	;# 
  1133     0499                     	;# 
  1134     049A                     	;# 
  1135     049B                     	;# 
  1136     049B                     	;# 
  1137     049C                     	;# 
  1138     049D                     	;# 
  1139     049E                     	;# 
  1140     049F                     	;# 
  1141     0511                     	;# 
  1142     0515                     	;# 
  1143     0617                     	;# 
  1144     0618                     	;# 
  1145     0619                     	;# 
  1146     0619                     	;# 
  1147     061A                     	;# 
  1148     061B                     	;# 
  1149     061C                     	;# 
  1150     061C                     	;# 
  1151     0691                     	;# 
  1152     0692                     	;# 
  1153     0693                     	;# 
  1154     0694                     	;# 
  1155     0695                     	;# 
  1156     0696                     	;# 
  1157     0697                     	;# 
  1158     0698                     	;# 
  1159     0699                     	;# 
  1160     069A                     	;# 
  1161     069B                     	;# 
  1162     069C                     	;# 
  1163     069D                     	;# 
  1164     069E                     	;# 
  1165     069F                     	;# 
  1166     0E0F                     	;# 
  1167     0E10                     	;# 
  1168     0E11                     	;# 
  1169     0E12                     	;# 
  1170     0E13                     	;# 
  1171     0E14                     	;# 
  1172     0E15                     	;# 
  1173     0E17                     	;# 
  1174     0E20                     	;# 
  1175     0E21                     	;# 
  1176     0E22                     	;# 
  1177     0E24                     	;# 
  1178     0E25                     	;# 
  1179     0E28                     	;# 
  1180     0E29                     	;# 
  1181     0E2A                     	;# 
  1182     0E2B                     	;# 
  1183     0E90                     	;# 
  1184     0E91                     	;# 
  1185     0E92                     	;# 
  1186     0E93                     	;# 
  1187     0E94                     	;# 
  1188     0E95                     	;# 
  1189     0E96                     	;# 
  1190     0E97                     	;# 
  1191     0E98                     	;# 
  1192     0E99                     	;# 
  1193     0E9A                     	;# 
  1194     0E9B                     	;# 
  1195     0E9C                     	;# 
  1196     0E9D                     	;# 
  1197     0E9E                     	;# 
  1198     0E9F                     	;# 
  1199     0EA0                     	;# 
  1200     0EA1                     	;# 
  1201     0EA2                     	;# 
  1202     0EA3                     	;# 
  1203     0EA4                     	;# 
  1204     0EA5                     	;# 
  1205     0EA6                     	;# 
  1206     0EA7                     	;# 
  1207     0F0F                     	;# 
  1208     0F10                     	;# 
  1209     0F11                     	;# 
  1210     0F12                     	;# 
  1211     0F13                     	;# 
  1212     0F14                     	;# 
  1213     0F15                     	;# 
  1214     0F16                     	;# 
  1215     0F17                     	;# 
  1216     0F18                     	;# 
  1217     0F19                     	;# 
  1218     0F1A                     	;# 
  1219     0F1B                     	;# 
  1220     0F1C                     	;# 
  1221     0F1D                     	;# 
  1222     0F1E                     	;# 
  1223     0F1F                     	;# 
  1224     0F20                     	;# 
  1225     0F21                     	;# 
  1226     0F22                     	;# 
  1227     0F23                     	;# 
  1228     0F24                     	;# 
  1229     0F25                     	;# 
  1230     0F26                     	;# 
  1231     0F27                     	;# 
  1232     0F28                     	;# 
  1233     0F29                     	;# 
  1234     0F2A                     	;# 
  1235     0F2B                     	;# 
  1236     0F2C                     	;# 
  1237     0F2D                     	;# 
  1238     0F2E                     	;# 
  1239     0F2F                     	;# 
  1240     0F30                     	;# 
  1241     0F31                     	;# 
  1242     0F32                     	;# 
  1243     0F33                     	;# 
  1244     0F34                     	;# 
  1245     0F35                     	;# 
  1246     0F36                     	;# 
  1247     0F37                     	;# 
  1248     0FE4                     	;# 
  1249     0FE5                     	;# 
  1250     0FE6                     	;# 
  1251     0FE7                     	;# 
  1252     0FE8                     	;# 
  1253     0FE9                     	;# 
  1254     0FEA                     	;# 
  1255     0FEB                     	;# 
  1256     0FED                     	;# 
  1257     0FEE                     	;# 
  1258     0FEF                     	;# 
  1259     000B                     _INTCONbits	set	11
  1260     0015                     _TMR0	set	21
  1261     0012                     _PIR2bits	set	18
  1262     0011                     _PIR1bits	set	17
  1263     008E                     _TRISCbits	set	142
  1264     008D                     _TRISBbits	set	141
  1265     0095                     _OPTION_REGbits	set	149
  1266     04CF                     _SPLLEN	set	1231
  1267     04CE                     _IRCF3	set	1230
  1268     04CD                     _IRCF2	set	1229
  1269     04CC                     _IRCF1	set	1228
  1270     04CB                     _IRCF0	set	1227
  1271     04C9                     _SCS1	set	1225
  1272     04C8                     _SCS0	set	1224
  1273     018E                     _ANSELCbits	set	398
  1274     018D                     _ANSELBbits	set	397
  1275     019A                     _TX1REG	set	410
  1276     0199                     _RC1REG	set	409
  1277     019D                     _RC1STAbits	set	413
  1278     019B                     _SPBRGL	set	411
  1279     0CF5                     _TXEN	set	3317
  1280     0CEC                     _CREN	set	3308
  1281     0CEF                     _SPEN	set	3311
  1282     0CF4                     _SYNC	set	3316
  1283     0CFB                     _BRG16	set	3323
  1284     0CF2                     _BRGH	set	3314
  1285     0211                     _SSPBUF	set	529
  1286     0216                     _SSPCON2bits	set	534
  1287     0214                     _SSPSTATbits	set	532
  1288     0216                     _SSPCON2	set	534
  1289     0215                     _SSPCON1bits	set	533
  1290     0212                     _SSPADD	set	530
  1291     0215                     _SSPCONbits	set	533
  1292     0E20                     _SSPCLKPPSbits	set	3616
  1293     0E21                     _SSPDATPPSbits	set	3617
  1294     0E24                     _RXPPSbits	set	3620
  1295     0E0F                     _PPSLOCKbits	set	3599
  1296     0E0F                     _PPSLOCK	set	3599
  1297     0EA5                     _RC5PPSbits	set	3749
  1298     0EA4                     _RC4PPSbits	set	3748
  1299     0E9A                     _RB2PPSbits	set	3738
  1300                           
  1301                           	psect	stringtext1
  1302     1800                     __pstringtext1:
  1303     1800                     STR_25:
  1304     1800  3443               	retlw	67	;'C'
  1305     1801  346F               	retlw	111	;'o'
  1306     1802  346E               	retlw	110	;'n'
  1307     1803  3474               	retlw	116	;'t'
  1308     1804  3469               	retlw	105	;'i'
  1309     1805  346E               	retlw	110	;'n'
  1310     1806  3475               	retlw	117	;'u'
  1311     1807  3469               	retlw	105	;'i'
  1312     1808  346E               	retlw	110	;'n'
  1313     1809  3467               	retlw	103	;'g'
  1314     180A  3420               	retlw	32	;' '
  1315     180B  3477               	retlw	119	;'w'
  1316     180C  3469               	retlw	105	;'i'
  1317     180D  3474               	retlw	116	;'t'
  1318     180E  3468               	retlw	104	;'h'
  1319     180F  346F               	retlw	111	;'o'
  1320     1810  3475               	retlw	117	;'u'
  1321     1811  3474               	retlw	116	;'t'
  1322     1812  3420               	retlw	32	;' '
  1323     1813  3463               	retlw	99	;'c'
  1324     1814  3461               	retlw	97	;'a'
  1325     1815  346C               	retlw	108	;'l'
  1326     1816  3469               	retlw	105	;'i'
  1327     1817  3462               	retlw	98	;'b'
  1328     1818  3472               	retlw	114	;'r'
  1329     1819  3461               	retlw	97	;'a'
  1330     181A  3474               	retlw	116	;'t'
  1331     181B  3469               	retlw	105	;'i'
  1332     181C  346F               	retlw	111	;'o'
  1333     181D  346E               	retlw	110	;'n'
  1334     181E  342E               	retlw	46	;'.'
  1335     181F  342E               	retlw	46	;'.'
  1336     1820  342E               	retlw	46	;'.'
  1337     1821  340D               	retlw	13
  1338     1822  340A               	retlw	10
  1339     1823  340D               	retlw	13
  1340     1824  340A               	retlw	10
  1341     1825  3400               	retlw	0
  1342                           
  1343                           	psect	stringtext2
  1344     1826                     __pstringtext2:
  1345     1826                     STR_13:
  1346     1826  3443               	retlw	67	;'C'
  1347     1827  3468               	retlw	104	;'h'
  1348     1828  3465               	retlw	101	;'e'
  1349     1829  3463               	retlw	99	;'c'
  1350     182A  346B               	retlw	107	;'k'
  1351     182B  3420               	retlw	32	;' '
  1352     182C  3477               	retlw	119	;'w'
  1353     182D  3469               	retlw	105	;'i'
  1354     182E  3472               	retlw	114	;'r'
  1355     182F  3469               	retlw	105	;'i'
  1356     1830  346E               	retlw	110	;'n'
  1357     1831  3467               	retlw	103	;'g'
  1358     1832  3420               	retlw	32	;' '
  1359     1833  3428               	retlw	40	;'('
  1360     1834  3453               	retlw	83	;'S'
  1361     1835  3444               	retlw	68	;'D'
  1362     1836  3441               	retlw	65	;'A'
  1363     1837  343D               	retlw	61	;'='
  1364     1838  3452               	retlw	82	;'R'
  1365     1839  3443               	retlw	67	;'C'
  1366     183A  3434               	retlw	52	;'4'
  1367     183B  342C               	retlw	44	;','
  1368     183C  3420               	retlw	32	;' '
  1369     183D  3453               	retlw	83	;'S'
  1370     183E  3443               	retlw	67	;'C'
  1371     183F  344C               	retlw	76	;'L'
  1372     1840  343D               	retlw	61	;'='
  1373     1841  3452               	retlw	82	;'R'
  1374     1842  3443               	retlw	67	;'C'
  1375     1843  3435               	retlw	53	;'5'
  1376     1844  3429               	retlw	41	;')'
  1377     1845  340D               	retlw	13
  1378     1846  340A               	retlw	10
  1379     1847  3400               	retlw	0
  1380                           
  1381                           	psect	stringtext3
  1382     1848                     __pstringtext3:
  1383     1848                     STR_10:
  1384     1848  342D               	retlw	45	;'-'
  1385     1849  342D               	retlw	45	;'-'
  1386     184A  342D               	retlw	45	;'-'
  1387     184B  342D               	retlw	45	;'-'
  1388     184C  342D               	retlw	45	;'-'
  1389     184D  342D               	retlw	45	;'-'
  1390     184E  342D               	retlw	45	;'-'
  1391     184F  342D               	retlw	45	;'-'
  1392     1850  342D               	retlw	45	;'-'
  1393     1851  342D               	retlw	45	;'-'
  1394     1852  342D               	retlw	45	;'-'
  1395     1853  342D               	retlw	45	;'-'
  1396     1854  342D               	retlw	45	;'-'
  1397     1855  342D               	retlw	45	;'-'
  1398     1856  342D               	retlw	45	;'-'
  1399     1857  342D               	retlw	45	;'-'
  1400     1858  342D               	retlw	45	;'-'
  1401     1859  342D               	retlw	45	;'-'
  1402     185A  342D               	retlw	45	;'-'
  1403     185B  342D               	retlw	45	;'-'
  1404     185C  342D               	retlw	45	;'-'
  1405     185D  342D               	retlw	45	;'-'
  1406     185E  342D               	retlw	45	;'-'
  1407     185F  342D               	retlw	45	;'-'
  1408     1860  342D               	retlw	45	;'-'
  1409     1861  342D               	retlw	45	;'-'
  1410     1862  342D               	retlw	45	;'-'
  1411     1863  342D               	retlw	45	;'-'
  1412     1864  342D               	retlw	45	;'-'
  1413     1865  342D               	retlw	45	;'-'
  1414     1866  340D               	retlw	13
  1415     1867  340A               	retlw	10
  1416     1868  3400               	retlw	0
  1417                           
  1418                           	psect	stringtext4
  1419     1869                     __pstringtext4:
  1420     1869                     STR_14:
  1421     1869  3448               	retlw	72	;'H'
  1422     186A  346F               	retlw	111	;'o'
  1423     186B  346C               	retlw	108	;'l'
  1424     186C  3464               	retlw	100	;'d'
  1425     186D  3420               	retlw	32	;' '
  1426     186E  3473               	retlw	115	;'s'
  1427     186F  3474               	retlw	116	;'t'
  1428     1870  3469               	retlw	105	;'i'
  1429     1871  346C               	retlw	108	;'l'
  1430     1872  346C               	retlw	108	;'l'
  1431     1873  3420               	retlw	32	;' '
  1432     1874  3466               	retlw	102	;'f'
  1433     1875  346F               	retlw	111	;'o'
  1434     1876  3472               	retlw	114	;'r'
  1435     1877  3420               	retlw	32	;' '
  1436     1878  3463               	retlw	99	;'c'
  1437     1879  3461               	retlw	97	;'a'
  1438     187A  346C               	retlw	108	;'l'
  1439     187B  3469               	retlw	105	;'i'
  1440     187C  3462               	retlw	98	;'b'
  1441     187D  3472               	retlw	114	;'r'
  1442     187E  3461               	retlw	97	;'a'
  1443     187F  3474               	retlw	116	;'t'
  1444     1880  3469               	retlw	105	;'i'
  1445     1881  346F               	retlw	111	;'o'
  1446     1882  346E               	retlw	110	;'n'
  1447     1883  342E               	retlw	46	;'.'
  1448     1884  342E               	retlw	46	;'.'
  1449     1885  342E               	retlw	46	;'.'
  1450     1886  340D               	retlw	13
  1451     1887  340A               	retlw	10
  1452     1888  3400               	retlw	0
  1453                           
  1454                           	psect	stringtext5
  1455     1889                     __pstringtext5:
  1456     1889                     STR_9:
  1457     1889  3444               	retlw	68	;'D'
  1458     188A  344C               	retlw	76	;'L'
  1459     188B  3450               	retlw	80	;'P'
  1460     188C  3446               	retlw	70	;'F'
  1461     188D  3420               	retlw	32	;' '
  1462     188E  347E               	retlw	126	;'~'
  1463     188F  3434               	retlw	52	;'4'
  1464     1890  3432               	retlw	50	;'2'
  1465     1891  3448               	retlw	72	;'H'
  1466     1892  347A               	retlw	122	;'z'
  1467     1893  342C               	retlw	44	;','
  1468     1894  3420               	retlw	32	;' '
  1469     1895  3431               	retlw	49	;'1'
  1470     1896  3430               	retlw	48	;'0'
  1471     1897  3430               	retlw	48	;'0'
  1472     1898  3448               	retlw	72	;'H'
  1473     1899  347A               	retlw	122	;'z'
  1474     189A  3420               	retlw	32	;' '
  1475     189B  3473               	retlw	115	;'s'
  1476     189C  3461               	retlw	97	;'a'
  1477     189D  346D               	retlw	109	;'m'
  1478     189E  3470               	retlw	112	;'p'
  1479     189F  346C               	retlw	108	;'l'
  1480     18A0  3465               	retlw	101	;'e'
  1481     18A1  3420               	retlw	32	;' '
  1482     18A2  3472               	retlw	114	;'r'
  1483     18A3  3461               	retlw	97	;'a'
  1484     18A4  3474               	retlw	116	;'t'
  1485     18A5  3465               	retlw	101	;'e'
  1486     18A6  340D               	retlw	13
  1487     18A7  340A               	retlw	10
  1488     18A8  3400               	retlw	0
  1489                           
  1490                           	psect	stringtext6
  1491     18A9                     __pstringtext6:
  1492     18A9                     STR_8:
  1493     18A9  3441               	retlw	65	;'A'
  1494     18AA  3463               	retlw	99	;'c'
  1495     18AB  3463               	retlw	99	;'c'
  1496     18AC  3465               	retlw	101	;'e'
  1497     18AD  346C               	retlw	108	;'l'
  1498     18AE  3420               	retlw	32	;' '
  1499     18AF  342B               	retlw	43	;'+'
  1500     18B0  342F               	retlw	47	;'/'
  1501     18B1  342D               	retlw	45	;'-'
  1502     18B2  3432               	retlw	50	;'2'
  1503     18B3  3467               	retlw	103	;'g'
  1504     18B4  342C               	retlw	44	;','
  1505     18B5  3420               	retlw	32	;' '
  1506     18B6  3447               	retlw	71	;'G'
  1507     18B7  3479               	retlw	121	;'y'
  1508     18B8  3472               	retlw	114	;'r'
  1509     18B9  346F               	retlw	111	;'o'
  1510     18BA  3420               	retlw	32	;' '
  1511     18BB  342B               	retlw	43	;'+'
  1512     18BC  342F               	retlw	47	;'/'
  1513     18BD  342D               	retlw	45	;'-'
  1514     18BE  3432               	retlw	50	;'2'
  1515     18BF  3435               	retlw	53	;'5'
  1516     18C0  3430               	retlw	48	;'0'
  1517     18C1  3464               	retlw	100	;'d'
  1518     18C2  3470               	retlw	112	;'p'
  1519     18C3  3473               	retlw	115	;'s'
  1520     18C4  340D               	retlw	13
  1521     18C5  340A               	retlw	10
  1522     18C6  3400               	retlw	0
  1523                           
  1524                           	psect	stringtext7
  1525     18C7                     __pstringtext7:
  1526     18C7                     STR_7:
  1527     18C7  340D               	retlw	13
  1528     18C8  340A               	retlw	10
  1529     18C9  344D               	retlw	77	;'M'
  1530     18CA  3450               	retlw	80	;'P'
  1531     18CB  3455               	retlw	85	;'U'
  1532     18CC  3436               	retlw	54	;'6'
  1533     18CD  3430               	retlw	48	;'0'
  1534     18CE  3435               	retlw	53	;'5'
  1535     18CF  3430               	retlw	48	;'0'
  1536     18D0  3420               	retlw	32	;' '
  1537     18D1  346F               	retlw	111	;'o'
  1538     18D2  346E               	retlw	110	;'n'
  1539     18D3  3420               	retlw	32	;' '
  1540     18D4  3450               	retlw	80	;'P'
  1541     18D5  3449               	retlw	73	;'I'
  1542     18D6  3443               	retlw	67	;'C'
  1543     18D7  3431               	retlw	49	;'1'
  1544     18D8  3436               	retlw	54	;'6'
  1545     18D9  3446               	retlw	70	;'F'
  1546     18DA  3431               	retlw	49	;'1'
  1547     18DB  3437               	retlw	55	;'7'
  1548     18DC  3431               	retlw	49	;'1'
  1549     18DD  3438               	retlw	56	;'8'
  1550     18DE  340D               	retlw	13
  1551     18DF  340A               	retlw	10
  1552     18E0  3400               	retlw	0
  1553                           
  1554                           	psect	stringtext8
  1555     18E1                     __pstringtext8:
  1556     18E1                     STR_12:
  1557     18E1  344D               	retlw	77	;'M'
  1558     18E2  3450               	retlw	80	;'P'
  1559     18E3  3455               	retlw	85	;'U'
  1560     18E4  3436               	retlw	54	;'6'
  1561     18E5  3430               	retlw	48	;'0'
  1562     18E6  3435               	retlw	53	;'5'
  1563     18E7  3430               	retlw	48	;'0'
  1564     18E8  3420               	retlw	32	;' '
  1565     18E9  3449               	retlw	73	;'I'
  1566     18EA  346E               	retlw	110	;'n'
  1567     18EB  3469               	retlw	105	;'i'
  1568     18EC  3474               	retlw	116	;'t'
  1569     18ED  3420               	retlw	32	;' '
  1570     18EE  3446               	retlw	70	;'F'
  1571     18EF  3441               	retlw	65	;'A'
  1572     18F0  3449               	retlw	73	;'I'
  1573     18F1  344C               	retlw	76	;'L'
  1574     18F2  3445               	retlw	69	;'E'
  1575     18F3  3444               	retlw	68	;'D'
  1576     18F4  3421               	retlw	33	;'!'
  1577     18F5  340D               	retlw	13
  1578     18F6  340A               	retlw	10
  1579     18F7  3400               	retlw	0
  1580                           
  1581                           	psect	stringtext9
  1582     18F8                     __pstringtext9:
  1583     18F8                     STR_24:
  1584     18F8  3443               	retlw	67	;'C'
  1585     18F9  3461               	retlw	97	;'a'
  1586     18FA  346C               	retlw	108	;'l'
  1587     18FB  3469               	retlw	105	;'i'
  1588     18FC  3462               	retlw	98	;'b'
  1589     18FD  3472               	retlw	114	;'r'
  1590     18FE  3461               	retlw	97	;'a'
  1591     18FF  3474               	retlw	116	;'t'
  1592     1900  3469               	retlw	105	;'i'
  1593     1901  346F               	retlw	111	;'o'
  1594     1902  346E               	retlw	110	;'n'
  1595     1903  3420               	retlw	32	;' '
  1596     1904  3446               	retlw	70	;'F'
  1597     1905  3441               	retlw	65	;'A'
  1598     1906  3449               	retlw	73	;'I'
  1599     1907  344C               	retlw	76	;'L'
  1600     1908  3445               	retlw	69	;'E'
  1601     1909  3444               	retlw	68	;'D'
  1602     190A  340D               	retlw	13
  1603     190B  340A               	retlw	10
  1604     190C  3400               	retlw	0
  1605                           
  1606                           	psect	stringtext10
  1607     190D                     __pstringtext10:
  1608     190D                     STR_26:
  1609     190D  3449               	retlw	73	;'I'
  1610     190E  3432               	retlw	50	;'2'
  1611     190F  3443               	retlw	67	;'C'
  1612     1910  3420               	retlw	32	;' '
  1613     1911  3473               	retlw	115	;'s'
  1614     1912  3474               	retlw	116	;'t'
  1615     1913  3461               	retlw	97	;'a'
  1616     1914  346C               	retlw	108	;'l'
  1617     1915  346C               	retlw	108	;'l'
  1618     1916  342C               	retlw	44	;','
  1619     1917  3420               	retlw	32	;' '
  1620     1918  3472               	retlw	114	;'r'
  1621     1919  3465               	retlw	101	;'e'
  1622     191A  342D               	retlw	45	;'-'
  1623     191B  3469               	retlw	105	;'i'
  1624     191C  346E               	retlw	110	;'n'
  1625     191D  3469               	retlw	105	;'i'
  1626     191E  3474               	retlw	116	;'t'
  1627     191F  340D               	retlw	13
  1628     1920  340A               	retlw	10
  1629     1921  3400               	retlw	0
  1630                           
  1631                           	psect	stringtext11
  1632     1922                     __pstringtext11:
  1633     1922                     STR_15:
  1634     1922  3443               	retlw	67	;'C'
  1635     1923  3461               	retlw	97	;'a'
  1636     1924  346C               	retlw	108	;'l'
  1637     1925  3469               	retlw	105	;'i'
  1638     1926  3462               	retlw	98	;'b'
  1639     1927  3472               	retlw	114	;'r'
  1640     1928  3461               	retlw	97	;'a'
  1641     1929  3474               	retlw	116	;'t'
  1642     192A  3469               	retlw	105	;'i'
  1643     192B  346F               	retlw	111	;'o'
  1644     192C  346E               	retlw	110	;'n'
  1645     192D  3420               	retlw	32	;' '
  1646     192E  3464               	retlw	100	;'d'
  1647     192F  346F               	retlw	111	;'o'
  1648     1930  346E               	retlw	110	;'n'
  1649     1931  3465               	retlw	101	;'e'
  1650     1932  340D               	retlw	13
  1651     1933  340A               	retlw	10
  1652     1934  3400               	retlw	0
  1653                           
  1654                           	psect	stringtext12
  1655     1935                     __pstringtext12:
  1656     1935                     STR_11:
  1657     1935  344D               	retlw	77	;'M'
  1658     1936  3450               	retlw	80	;'P'
  1659     1937  3455               	retlw	85	;'U'
  1660     1938  3436               	retlw	54	;'6'
  1661     1939  3430               	retlw	48	;'0'
  1662     193A  3435               	retlw	53	;'5'
  1663     193B  3430               	retlw	48	;'0'
  1664     193C  3420               	retlw	32	;' '
  1665     193D  3449               	retlw	73	;'I'
  1666     193E  346E               	retlw	110	;'n'
  1667     193F  3469               	retlw	105	;'i'
  1668     1940  3474               	retlw	116	;'t'
  1669     1941  3420               	retlw	32	;' '
  1670     1942  344F               	retlw	79	;'O'
  1671     1943  344B               	retlw	75	;'K'
  1672     1944  340D               	retlw	13
  1673     1945  340A               	retlw	10
  1674     1946  3400               	retlw	0
  1675                           
  1676                           	psect	stringtext13
  1677     1947                     __pstringtext13:
  1678     1947                     STR_30:
  1679     1947  3420               	retlw	32	;' '
  1680     1948  347C               	retlw	124	;'|'
  1681     1949  3420               	retlw	32	;' '
  1682     194A  3447               	retlw	71	;'G'
  1683     194B  3459               	retlw	89	;'Y'
  1684     194C  3420               	retlw	32	;' '
  1685     194D  346D               	retlw	109	;'m'
  1686     194E  3464               	retlw	100	;'d'
  1687     194F  3470               	retlw	112	;'p'
  1688     1950  3473               	retlw	115	;'s'
  1689     1951  343A               	retlw	58	;':'
  1690     1952  3420               	retlw	32	;' '
  1691     1953  3458               	retlw	88	;'X'
  1692     1954  343D               	retlw	61	;'='
  1693     1955  3400               	retlw	0
  1694                           
  1695                           	psect	stringtext14
  1696     1956                     __pstringtext14:
  1697     1956                     STR_20:
  1698     1956  3447               	retlw	71	;'G'
  1699     1957  346F               	retlw	111	;'o'
  1700     1958  3466               	retlw	102	;'f'
  1701     1959  3466               	retlw	102	;'f'
  1702     195A  3420               	retlw	32	;' '
  1703     195B  346D               	retlw	109	;'m'
  1704     195C  3464               	retlw	100	;'d'
  1705     195D  3470               	retlw	112	;'p'
  1706     195E  3473               	retlw	115	;'s'
  1707     195F  343A               	retlw	58	;':'
  1708     1960  3420               	retlw	32	;' '
  1709     1961  3458               	retlw	88	;'X'
  1710     1962  343D               	retlw	61	;'='
  1711     1963  3400               	retlw	0
  1712                           
  1713                           	psect	stringtext15
  1714     1964                     __pstringtext15:
  1715     1964                     STR_16:
  1716     1964  3441               	retlw	65	;'A'
  1717     1965  346F               	retlw	111	;'o'
  1718     1966  3466               	retlw	102	;'f'
  1719     1967  3466               	retlw	102	;'f'
  1720     1968  3420               	retlw	32	;' '
  1721     1969  346D               	retlw	109	;'m'
  1722     196A  3467               	retlw	103	;'g'
  1723     196B  343A               	retlw	58	;':'
  1724     196C  3420               	retlw	32	;' '
  1725     196D  3458               	retlw	88	;'X'
  1726     196E  343D               	retlw	61	;'='
  1727     196F  3400               	retlw	0
  1728                           
  1729                           	psect	stringtext16
  1730     1970                     __pstringtext16:
  1731     1970                     STR_2:
  1732     1970  3432               	retlw	50	;'2'
  1733     1971  3431               	retlw	49	;'1'
  1734     1972  3434               	retlw	52	;'4'
  1735     1973  3437               	retlw	55	;'7'
  1736     1974  3434               	retlw	52	;'4'
  1737     1975  3438               	retlw	56	;'8'
  1738     1976  3433               	retlw	51	;'3'
  1739     1977  3436               	retlw	54	;'6'
  1740     1978  3434               	retlw	52	;'4'
  1741     1979  3438               	retlw	56	;'8'
  1742     197A  3400               	retlw	0
  1743                           
  1744                           	psect	stringtext17
  1745     197B                     __pstringtext17:
  1746     197B                     STR_27:
  1747     197B  3441               	retlw	65	;'A'
  1748     197C  3443               	retlw	67	;'C'
  1749     197D  3443               	retlw	67	;'C'
  1750     197E  3420               	retlw	32	;' '
  1751     197F  346D               	retlw	109	;'m'
  1752     1980  3467               	retlw	103	;'g'
  1753     1981  343A               	retlw	58	;':'
  1754     1982  3420               	retlw	32	;' '
  1755     1983  3458               	retlw	88	;'X'
  1756     1984  343D               	retlw	61	;'='
  1757     1985  3400               	retlw	0
  1758                           
  1759                           	psect	stringtext18
  1760     1986                     __pstringtext18:
  1761     1986                     STR_33:
  1762     1986  3420               	retlw	32	;' '
  1763     1987  347C               	retlw	124	;'|'
  1764     1988  3420               	retlw	32	;' '
  1765     1989  3454               	retlw	84	;'T'
  1766     198A  343D               	retlw	61	;'='
  1767     198B  3400               	retlw	0
  1768                           
  1769                           	psect	stringtext19
  1770     198C                     __pstringtext19:
  1771     198C                     STR_17:
  1772     198C  3420               	retlw	32	;' '
  1773     198D  3459               	retlw	89	;'Y'
  1774     198E  343D               	retlw	61	;'='
  1775     198F  3400               	retlw	0
  1776                           
  1777                           	psect	stringtext20
  1778     1990                     __pstringtext20:
  1779     1990                     STR_18:
  1780     1990  3420               	retlw	32	;' '
  1781     1991  345A               	retlw	90	;'Z'
  1782     1992  343D               	retlw	61	;'='
  1783     1993  3400               	retlw	0
  1784                           
  1785                           	psect	stringtext21
  1786     1994                     __pstringtext21:
  1787     1994                     STR_1:
  1788     1994  342D               	retlw	45	;'-'
  1789     1995  3400               	retlw	0
  1790                           
  1791                           	psect	stringtext22
  1792     1996                     __pstringtext22:
  1793     1996                     STR_5:
  1794     1996  342E               	retlw	46	;'.'
  1795     1997  3400               	retlw	0
  1796                           
  1797                           	psect	stringtext23
  1798     1998                     __pstringtext23:
  1799     1998                     STR_3:
  1800     1998  3430               	retlw	48	;'0'
  1801     1999  3400               	retlw	0
  1802                           
  1803                           	psect	stringtext24
  1804     199A                     __pstringtext24:
  1805     199A                     STR_34:
  1806     199A  3443               	retlw	67	;'C'
  1807     199B  3400               	retlw	0
  1808                           
  1809                           	psect	stringtext25
  1810     0000                     __pstringtext25:
  1811     1823                     
  1812                           	psect	cinit
  1813     001B                     start_initialization:	
  1814                           ; #config settings
  1815                           
  1816     001B                     __initialization:
  1817                           
  1818                           ; Clear objects allocated to BANK1
  1819     001B  30A0               	movlw	low __pbssBANK1
  1820     001C  0084               	movwf	4
  1821     001D  3000               	movlw	high __pbssBANK1
  1822     001E  0085               	movwf	5
  1823     001F  3033               	movlw	51
  1824     0020  3195  2512  3180   	fcall	clear_ram0
  1825                           
  1826                           ; Clear objects allocated to BANK2
  1827     0023  3020               	movlw	low __pbssBANK2
  1828     0024  0084               	movwf	4
  1829     0025  3001               	movlw	high __pbssBANK2
  1830     0026  0085               	movwf	5
  1831     0027  3034               	movlw	52
  1832     0028  3195  2512  3180   	fcall	clear_ram0
  1833     002B                     end_of_initialization:	
  1834                           ;End of C runtime variable initialization code
  1835                           
  1836     002B                     __end_of__initialization:
  1837     002B  107E               	bcf	int$flags,0	;clear compiler interrupt flag (level 1)
  1838     002C  0020               	movlb	0
  1839     002D  3185  2D3D         	ljmp	_main	;jump to C main() function
  1840                           
  1841                           	psect	bssBANK1
  1842     00A0                     __pbssBANK1:
  1843     00A0                     _s_gy:
  1844     00A0                     	ds	4
  1845     00A4                     _s_gx:
  1846     00A4                     	ds	4
  1847     00A8                     _s_az:
  1848     00A8                     	ds	4
  1849     00AC                     _s_ay:
  1850     00AC                     	ds	4
  1851     00B0                     _s_ax:
  1852     00B0                     	ds	4
  1853     00B4                     _g_gz_off_mdps:
  1854     00B4                     	ds	4
  1855     00B8                     _g_gy_off_mdps:
  1856     00B8                     	ds	4
  1857     00BC                     _g_gx_off_mdps:
  1858     00BC                     	ds	4
  1859     00C0                     _g_az_off_mg:
  1860     00C0                     	ds	4
  1861     00C4                     _g_ay_off_mg:
  1862     00C4                     	ds	4
  1863     00C8                     _g_ax_off_mg:
  1864     00C8                     	ds	4
  1865     00CC                     _millis_counter:
  1866     00CC                     	ds	4
  1867     00D0                     UART_PrintInt32@F6188:
  1868     00D0                     	ds	2
  1869     00D2                     _filter_initialized:
  1870     00D2                     	ds	1
  1871                           
  1872                           	psect	bssBANK2
  1873     0120                     __pbssBANK2:
  1874     0120                     _gz_hist:
  1875     0120                     	ds	8
  1876     0128                     _gy_hist:
  1877     0128                     	ds	8
  1878     0130                     _gx_hist:
  1879     0130                     	ds	8
  1880     0138                     _az_hist:
  1881     0138                     	ds	8
  1882     0140                     _ay_hist:
  1883     0140                     	ds	8
  1884     0148                     _ax_hist:
  1885     0148                     	ds	8
  1886     0150                     _s_gz:
  1887     0150                     	ds	4
  1888                           
  1889                           	psect	clrtext
  1890     1512                     clear_ram0:	
  1891                           ;	Called with FSR0 containing the base address, and
  1892                           ;	WREG with the size to clear
  1893                           
  1894     1512  0064               	clrwdt	;clear the watchdog before getting into this loop
  1895     1513                     clrloop0:
  1896     1513  0180               	clrf	0	;clear RAM location pointed to by FSR
  1897     1514  3101               	addfsr 0,1
  1898     1515  0B89               	decfsz	9,f	;Have we reached the end of clearing yet?
  1899     1516  2D13               	goto	clrloop0	;have we reached the end yet?
  1900     1517  3400               	retlw	0	;all done for this memory range, return
  1901                           
  1902                           	psect	cstackBANK1
  1903     00D3                     __pcstackBANK1:
  1904     00D3                     ??_main:
  1905                           
  1906                           ; 1 bytes @ 0x0
  1907     00D3                     	ds	4
  1908     00D7                     main@last_print_ms:
  1909                           
  1910                           ; 4 bytes @ 0x4
  1911     00D7                     	ds	4
  1912     00DB                     main@read_errors:
  1913                           
  1914                           ; 2 bytes @ 0x8
  1915     00DB                     	ds	2
  1916     00DD                     main@now:
  1917                           
  1918                           ; 4 bytes @ 0xA
  1919     00DD                     	ds	4
  1920     00E1                     main@r:
  1921                           
  1922                           ; 14 bytes @ 0xE
  1923     00E1                     	ds	14
  1924                           
  1925                           	psect	cstackCOMMON
  1926     0070                     __pcstackCOMMON:
  1927     0070                     ?_I2C_ClearErrors:
  1928     0070                     ??_I2C_ClearErrors:	
  1929                           ; 1 bytes @ 0x0
  1930                           
  1931     0070                     ?_EUSART_Write:	
  1932                           ; 1 bytes @ 0x0
  1933                           
  1934     0070                     ??_EUSART_Write:	
  1935                           ; 1 bytes @ 0x0
  1936                           
  1937     0070                     ?_I2C_WaitIF:	
  1938                           ; 1 bytes @ 0x0
  1939                           
  1940     0070                     ?_I2C_Init:	
  1941                           ; 1 bytes @ 0x0
  1942                           
  1943     0070                     ??_I2C_Init:	
  1944                           ; 1 bytes @ 0x0
  1945                           
  1946     0070                     ?_I2C_WaitIdle:	
  1947                           ; 1 bytes @ 0x0
  1948                           
  1949     0070                     ?_I2C_Start:	
  1950                           ; 1 bytes @ 0x0
  1951                           
  1952     0070                     ?_I2C_RepeatedStart:	
  1953                           ; 1 bytes @ 0x0
  1954                           
  1955     0070                     ?_I2C_Stop:	
  1956                           ; 1 bytes @ 0x0
  1957                           
  1958     0070                     ?_I2C_WriteByte:	
  1959                           ; 1 bytes @ 0x0
  1960                           
  1961     0070                     ?_internal_32:	
  1962                           ; 1 bytes @ 0x0
  1963                           
  1964     0070                     ??_internal_32:	
  1965                           ; 1 bytes @ 0x0
  1966                           
  1967     0070                     ?_TMR0_Init:	
  1968                           ; 1 bytes @ 0x0
  1969                           
  1970     0070                     ??_TMR0_Init:	
  1971                           ; 1 bytes @ 0x0
  1972                           
  1973     0070                     ?_ISR:	
  1974                           ; 1 bytes @ 0x0
  1975                           
  1976     0070                     ??_ISR:	
  1977                           ; 1 bytes @ 0x0
  1978                           
  1979     0070                     ?_mpu_frame_sane:	
  1980                           ; 1 bytes @ 0x0
  1981                           
  1982     0070                     ?_mpu_read_raw:	
  1983                           ; 1 bytes @ 0x0
  1984                           
  1985     0070                     ?_mpu_init:	
  1986                           ; 1 bytes @ 0x0
  1987                           
  1988     0070                     ?_mpu_calibrate:	
  1989                           ; 1 bytes @ 0x0
  1990                           
  1991     0070                     ?_filter_step:	
  1992                           ; 1 bytes @ 0x0
  1993                           
  1994     0070                     ?_initMain:	
  1995                           ; 1 bytes @ 0x0
  1996                           
  1997     0070                     ??_initMain:	
  1998                           ; 1 bytes @ 0x0
  1999                           
  2000     0070                     ?_main:	
  2001                           ; 1 bytes @ 0x0
  2002                           
  2003     0070                     ?_millis:	
  2004                           ; 1 bytes @ 0x0
  2005                           
  2006     0070                     ?_median3:	
  2007                           ; 4 bytes @ 0x0
  2008                           
  2009     0070                     ?___lmul:	
  2010                           ; 4 bytes @ 0x0
  2011                           
  2012     0070                     ?___almod:	
  2013                           ; 4 bytes @ 0x0
  2014                           
  2015     0070                     EUSART_Write@txData:	
  2016                           ; 4 bytes @ 0x0
  2017                           
  2018     0070                     mpu_frame_sane@len:	
  2019                           ; 1 bytes @ 0x0
  2020                           
  2021     0070                     I2C_WaitIF@timeout_ms:	
  2022                           ; 1 bytes @ 0x0
  2023                           
  2024     0070                     I2C_WaitIdle@timeout_ms:	
  2025                           ; 2 bytes @ 0x0
  2026                           
  2027     0070                     median3@a:	
  2028                           ; 2 bytes @ 0x0
  2029                           
  2030     0070                     ___lmul@multiplier:	
  2031                           ; 4 bytes @ 0x0
  2032                           
  2033     0070                     ___almod@divisor:	
  2034                           ; 4 bytes @ 0x0
  2035                           
  2036                           
  2037                           ; 4 bytes @ 0x0
  2038     0070                     	ds	1
  2039     0071                     ?_EUSART_Write_Text:
  2040     0071                     ??_mpu_frame_sane:	
  2041                           ; 1 bytes @ 0x1
  2042                           
  2043     0071                     EUSART_Write_Text@text:	
  2044                           ; 1 bytes @ 0x1
  2045                           
  2046                           
  2047                           ; 2 bytes @ 0x1
  2048     0071                     	ds	1
  2049     0072                     ??_I2C_WaitIF:
  2050     0072                     ??_I2C_WaitIdle:	
  2051                           ; 1 bytes @ 0x2
  2052                           
  2053                           
  2054                           ; 1 bytes @ 0x2
  2055     0072                     	ds	1
  2056     0073                     ??_EUSART_Write_Text:
  2057     0073                     ??_I2C_Start:	
  2058                           ; 1 bytes @ 0x3
  2059                           
  2060     0073                     ??_I2C_RepeatedStart:	
  2061                           ; 1 bytes @ 0x3
  2062                           
  2063     0073                     ??_I2C_Stop:	
  2064                           ; 1 bytes @ 0x3
  2065                           
  2066     0073                     ??_I2C_WriteByte:	
  2067                           ; 1 bytes @ 0x3
  2068                           
  2069     0073                     ?_I2C_ReadByte:	
  2070                           ; 1 bytes @ 0x3
  2071                           
  2072     0073                     I2C_Start@st:	
  2073                           ; 1 bytes @ 0x3
  2074                           
  2075     0073                     I2C_RepeatedStart@st:	
  2076                           ; 1 bytes @ 0x3
  2077                           
  2078     0073                     I2C_Stop@st:	
  2079                           ; 1 bytes @ 0x3
  2080                           
  2081     0073                     I2C_WriteByte@data:	
  2082                           ; 1 bytes @ 0x3
  2083                           
  2084     0073                     I2C_ReadByte@ack:	
  2085                           ; 1 bytes @ 0x3
  2086                           
  2087                           
  2088                           ; 1 bytes @ 0x3
  2089     0073                     	ds	1
  2090     0074                     ??_I2C_ReadByte:
  2091     0074                     ??_millis:	
  2092                           ; 1 bytes @ 0x4
  2093                           
  2094     0074                     I2C_WriteByte@st:	
  2095                           ; 1 bytes @ 0x4
  2096                           
  2097     0074                     I2C_ReadByte@data:	
  2098                           ; 1 bytes @ 0x4
  2099                           
  2100     0074                     EUSART_Write_Text@i:	
  2101                           ; 1 bytes @ 0x4
  2102                           
  2103     0074                     millis@val:	
  2104                           ; 2 bytes @ 0x4
  2105                           
  2106     0074                     median3@b:	
  2107                           ; 4 bytes @ 0x4
  2108                           
  2109     0074                     ___lmul@multiplicand:	
  2110                           ; 4 bytes @ 0x4
  2111                           
  2112     0074                     ___almod@dividend:	
  2113                           ; 4 bytes @ 0x4
  2114                           
  2115                           
  2116                           ; 4 bytes @ 0x4
  2117     0074                     	ds	1
  2118     0075                     ?_i2c_write_bytes:
  2119     0075                     I2C_ReadByte@st:	
  2120                           ; 1 bytes @ 0x5
  2121                           
  2122     0075                     i2c_write_bytes@reg:	
  2123                           ; 1 bytes @ 0x5
  2124                           
  2125                           
  2126                           ; 1 bytes @ 0x5
  2127     0075                     	ds	1
  2128     0076                     ?_i2c_read_bytes:
  2129     0076                     i2c_write_bytes@src:	
  2130                           ; 1 bytes @ 0x6
  2131                           
  2132     0076                     i2c_read_bytes@reg:	
  2133                           ; 1 bytes @ 0x6
  2134                           
  2135     0076                     mpu_frame_sane@orv:	
  2136                           ; 1 bytes @ 0x6
  2137                           
  2138                           
  2139                           ; 1 bytes @ 0x6
  2140     0076                     	ds	1
  2141     0077                     i2c_write_bytes@len:
  2142     0077                     i2c_read_bytes@dst:	
  2143                           ; 1 bytes @ 0x7
  2144                           
  2145     0077                     mpu_frame_sane@andv:	
  2146                           ; 1 bytes @ 0x7
  2147                           
  2148                           
  2149                           ; 1 bytes @ 0x7
  2150     0077                     	ds	1
  2151     0078                     ??_i2c_write_bytes:
  2152     0078                     ??___lmul:	
  2153                           ; 1 bytes @ 0x8
  2154                           
  2155     0078                     ??___almod:	
  2156                           ; 1 bytes @ 0x8
  2157                           
  2158     0078                     i2c_read_bytes@len:	
  2159                           ; 1 bytes @ 0x8
  2160                           
  2161     0078                     mpu_frame_sane@traw:	
  2162                           ; 1 bytes @ 0x8
  2163                           
  2164     0078                     median3@c:	
  2165                           ; 2 bytes @ 0x8
  2166                           
  2167     0078                     ___lmul@product:	
  2168                           ; 4 bytes @ 0x8
  2169                           
  2170                           
  2171                           ; 4 bytes @ 0x8
  2172     0078                     	ds	1
  2173     0079                     ??_i2c_read_bytes:
  2174     0079                     i2c_write_bytes@addr7:	
  2175                           ; 1 bytes @ 0x9
  2176                           
  2177     0079                     ___almod@counter:	
  2178                           ; 1 bytes @ 0x9
  2179                           
  2180                           
  2181                           ; 1 bytes @ 0x9
  2182     0079                     	ds	1
  2183     007A                     i2c_write_bytes@i:
  2184     007A                     mpu_frame_sane@i:	
  2185                           ; 1 bytes @ 0xA
  2186                           
  2187     007A                     ___almod@sign:	
  2188                           ; 1 bytes @ 0xA
  2189                           
  2190                           
  2191                           ; 1 bytes @ 0xA
  2192     007A                     	ds	1
  2193     007B                     ?_mpu_write_reg:
  2194     007B                     i2c_read_bytes@ack:	
  2195                           ; 1 bytes @ 0xB
  2196                           
  2197     007B                     mpu_write_reg@val:	
  2198                           ; 1 bytes @ 0xB
  2199                           
  2200     007B                     mpu_frame_sane@b:	
  2201                           ; 1 bytes @ 0xB
  2202                           
  2203                           
  2204                           ; 1 bytes @ 0xB
  2205     007B                     	ds	1
  2206     007C                     ??_mpu_write_reg:
  2207     007C                     ??_median3:	
  2208                           ; 1 bytes @ 0xC
  2209                           
  2210     007C                     ??___aldiv:	
  2211                           ; 1 bytes @ 0xC
  2212                           
  2213     007C                     i2c_read_bytes@addr7:	
  2214                           ; 1 bytes @ 0xC
  2215                           
  2216     007C                     mpu_write_reg@reg:	
  2217                           ; 1 bytes @ 0xC
  2218                           
  2219                           
  2220                           ; 1 bytes @ 0xC
  2221     007C                     	ds	1
  2222     007D                     ??_UART_PrintInt32:
  2223     007D                     i2c_read_bytes@i:	
  2224                           ; 1 bytes @ 0xD
  2225                           
  2226                           
  2227                           ; 1 bytes @ 0xD
  2228     007D                     	ds	1
  2229     007E                     ??_mpu_read_reg:
  2230     007E                     ??_mpu_read_multi:	
  2231                           ; 1 bytes @ 0xE
  2232                           
  2233     007E                     ??_UART_PrintFixed100:	
  2234                           ; 1 bytes @ 0xE
  2235                           
  2236                           
  2237                           	psect	cstackBANK0
  2238     0020                     __pcstackBANK0:	
  2239                           ; 1 bytes @ 0xE
  2240                           
  2241     0020                     ?_mpu_read_reg:
  2242     0020                     ?_mpu_read_multi:	
  2243                           ; 1 bytes @ 0x0
  2244                           
  2245     0020                     ?___aldiv:	
  2246                           ; 1 bytes @ 0x0
  2247                           
  2248     0020                     mpu_read_reg@val:	
  2249                           ; 4 bytes @ 0x0
  2250                           
  2251     0020                     mpu_read_multi@buf:	
  2252                           ; 1 bytes @ 0x0
  2253                           
  2254     0020                     median3@t:	
  2255                           ; 1 bytes @ 0x0
  2256                           
  2257     0020                     ___aldiv@divisor:	
  2258                           ; 4 bytes @ 0x0
  2259                           
  2260                           
  2261                           ; 4 bytes @ 0x0
  2262     0020                     	ds	1
  2263     0021                     mpu_read_reg@reg:
  2264     0021                     mpu_read_multi@len:	
  2265                           ; 1 bytes @ 0x1
  2266                           
  2267                           
  2268                           ; 1 bytes @ 0x1
  2269     0021                     	ds	1
  2270     0022                     ?_mpu_wait_data_ready:
  2271     0022                     ??_mpu_init:	
  2272                           ; 1 bytes @ 0x2
  2273                           
  2274     0022                     mpu_read_multi@reg:	
  2275                           ; 1 bytes @ 0x2
  2276                           
  2277     0022                     mpu_wait_data_ready@timeout_ms:	
  2278                           ; 1 bytes @ 0x2
  2279                           
  2280                           
  2281                           ; 2 bytes @ 0x2
  2282     0022                     	ds	1
  2283     0023                     ??_mpu_read_raw:
  2284     0023                     mpu_init@who:	
  2285                           ; 1 bytes @ 0x3
  2286                           
  2287                           
  2288                           ; 1 bytes @ 0x3
  2289     0023                     	ds	1
  2290     0024                     ??_mpu_wait_data_ready:
  2291     0024                     median3@t_645:	
  2292                           ; 1 bytes @ 0x4
  2293                           
  2294     0024                     ___aldiv@dividend:	
  2295                           ; 4 bytes @ 0x4
  2296                           
  2297     0024                     mpu_read_raw@b:	
  2298                           ; 4 bytes @ 0x4
  2299                           
  2300                           
  2301                           ; 14 bytes @ 0x4
  2302     0024                     	ds	4
  2303     0028                     ___aldiv@counter:
  2304     0028                     median3@t_646:	
  2305                           ; 1 bytes @ 0x8
  2306                           
  2307                           
  2308                           ; 4 bytes @ 0x8
  2309     0028                     	ds	1
  2310     0029                     ___aldiv@sign:
  2311                           
  2312                           ; 1 bytes @ 0x9
  2313     0029                     	ds	1
  2314     002A                     ___aldiv@quotient:
  2315                           
  2316                           ; 4 bytes @ 0xA
  2317     002A                     	ds	2
  2318     002C                     mpu_wait_data_ready@start:
  2319                           
  2320                           ; 4 bytes @ 0xC
  2321     002C                     	ds	2
  2322     002E                     ?_EUSART_Initialize:
  2323     002E                     ?_UART_PrintInt32:	
  2324                           ; 1 bytes @ 0xE
  2325                           
  2326     002E                     ?_raw_to_mg:	
  2327                           ; 1 bytes @ 0xE
  2328                           
  2329     002E                     ?_raw_to_mdps:	
  2330                           ; 4 bytes @ 0xE
  2331                           
  2332     002E                     ?_temp_to_c_x100:	
  2333                           ; 4 bytes @ 0xE
  2334                           
  2335     002E                     raw_to_mg@r:	
  2336                           ; 4 bytes @ 0xE
  2337                           
  2338     002E                     raw_to_mdps@r:	
  2339                           ; 2 bytes @ 0xE
  2340                           
  2341     002E                     temp_to_c_x100@t:	
  2342                           ; 2 bytes @ 0xE
  2343                           
  2344     002E                     EUSART_Initialize@baudrate:	
  2345                           ; 2 bytes @ 0xE
  2346                           
  2347     002E                     UART_PrintInt32@val:	
  2348                           ; 4 bytes @ 0xE
  2349                           
  2350                           
  2351                           ; 4 bytes @ 0xE
  2352     002E                     	ds	2
  2353     0030                     mpu_wait_data_ready@st:
  2354                           
  2355                           ; 1 bytes @ 0x10
  2356     0030                     	ds	2
  2357     0032                     ??_EUSART_Initialize:
  2358     0032                     ??_raw_to_mg:	
  2359                           ; 1 bytes @ 0x12
  2360                           
  2361     0032                     ??_raw_to_mdps:	
  2362                           ; 1 bytes @ 0x12
  2363                           
  2364     0032                     ??_temp_to_c_x100:	
  2365                           ; 1 bytes @ 0x12
  2366                           
  2367     0032                     mpu_read_raw@attempt:	
  2368                           ; 1 bytes @ 0x12
  2369                           
  2370     0032                     UART_PrintInt32@buf:	
  2371                           ; 1 bytes @ 0x12
  2372                           
  2373                           
  2374                           ; 12 bytes @ 0x12
  2375     0032                     	ds	1
  2376     0033                     mpu_read_raw@o:
  2377                           
  2378                           ; 1 bytes @ 0x13
  2379     0033                     	ds	3
  2380     0036                     _raw_to_mg$633:
  2381     0036                     _raw_to_mdps$636:	
  2382                           ; 4 bytes @ 0x16
  2383                           
  2384     0036                     _temp_to_c_x100$639:	
  2385                           ; 4 bytes @ 0x16
  2386                           
  2387                           
  2388                           ; 4 bytes @ 0x16
  2389     0036                     	ds	4
  2390     003A                     ??_mpu_calibrate:
  2391     003A                     ??_filter_step:	
  2392                           ; 1 bytes @ 0x1A
  2393                           
  2394                           
  2395                           ; 1 bytes @ 0x1A
  2396     003A                     	ds	2
  2397     003C                     mpu_calibrate@sax:
  2398                           
  2399                           ; 4 bytes @ 0x1C
  2400     003C                     	ds	2
  2401     003E                     EUSART_Initialize@x:
  2402     003E                     UART_PrintInt32@c:	
  2403                           ; 2 bytes @ 0x1E
  2404                           
  2405                           
  2406                           ; 2 bytes @ 0x1E
  2407     003E                     	ds	1
  2408     003F                     filter_step@ax_m:
  2409                           
  2410                           ; 4 bytes @ 0x1F
  2411     003F                     	ds	1
  2412     0040                     UART_PrintInt32@i:
  2413     0040                     mpu_calibrate@say:	
  2414                           ; 1 bytes @ 0x20
  2415                           
  2416                           
  2417                           ; 4 bytes @ 0x20
  2418     0040                     	ds	1
  2419     0041                     ?_UART_PrintFixed100:
  2420     0041                     UART_PrintFixed100@val:	
  2421                           ; 1 bytes @ 0x21
  2422                           
  2423                           
  2424                           ; 4 bytes @ 0x21
  2425     0041                     	ds	2
  2426     0043                     filter_step@ay_m:
  2427                           
  2428                           ; 4 bytes @ 0x23
  2429     0043                     	ds	1
  2430     0044                     mpu_calibrate@saz:
  2431                           
  2432                           ; 4 bytes @ 0x24
  2433     0044                     	ds	1
  2434     0045                     _UART_PrintFixed100$1339:
  2435                           
  2436                           ; 4 bytes @ 0x25
  2437     0045                     	ds	2
  2438     0047                     filter_step@az_m:
  2439                           
  2440                           ; 4 bytes @ 0x27
  2441     0047                     	ds	1
  2442     0048                     mpu_calibrate@sgx:
  2443                           
  2444                           ; 4 bytes @ 0x28
  2445     0048                     	ds	1
  2446     0049                     UART_PrintFixed100@frac:
  2447                           
  2448                           ; 4 bytes @ 0x29
  2449     0049                     	ds	2
  2450     004B                     filter_step@gx_m:
  2451                           
  2452                           ; 4 bytes @ 0x2B
  2453     004B                     	ds	1
  2454     004C                     mpu_calibrate@sgy:
  2455                           
  2456                           ; 4 bytes @ 0x2C
  2457     004C                     	ds	3
  2458     004F                     filter_step@gy_m:
  2459                           
  2460                           ; 4 bytes @ 0x2F
  2461     004F                     	ds	1
  2462     0050                     mpu_calibrate@sgz:
  2463                           
  2464                           ; 4 bytes @ 0x30
  2465     0050                     	ds	3
  2466     0053                     filter_step@gz_m:
  2467                           
  2468                           ; 4 bytes @ 0x33
  2469     0053                     	ds	1
  2470     0054                     mpu_calibrate@i:
  2471                           
  2472                           ; 2 bytes @ 0x34
  2473     0054                     	ds	2
  2474     0056                     mpu_calibrate@good:
  2475                           
  2476                           ; 2 bytes @ 0x36
  2477     0056                     	ds	1
  2478     0057                     filter_step@ax:
  2479                           
  2480                           ; 4 bytes @ 0x37
  2481     0057                     	ds	1
  2482     0058                     mpu_calibrate@i_687:
  2483                           
  2484                           ; 1 bytes @ 0x38
  2485     0058                     	ds	1
  2486     0059                     mpu_calibrate@r:
  2487                           
  2488                           ; 14 bytes @ 0x39
  2489     0059                     	ds	2
  2490     005B                     filter_step@ay:
  2491                           
  2492                           ; 4 bytes @ 0x3B
  2493     005B                     	ds	4
  2494     005F                     filter_step@az:
  2495                           
  2496                           ; 4 bytes @ 0x3F
  2497     005F                     	ds	4
  2498     0063                     filter_step@gx:
  2499                           
  2500                           ; 4 bytes @ 0x43
  2501     0063                     	ds	4
  2502     0067                     filter_step@gy:
  2503                           
  2504                           ; 4 bytes @ 0x47
  2505     0067                     	ds	4
  2506     006B                     filter_step@gz:
  2507                           
  2508                           ; 4 bytes @ 0x4B
  2509     006B                     	ds	4
  2510     006F                     filter_step@r:
  2511                           
  2512                           ; 1 bytes @ 0x4F
  2513     006F                     	ds	1
  2514                           
  2515                           	psect	maintext
  2516     053D                     __pmaintext:	
  2517 ;;
  2518 ;;Main: autosize = 0, tempsize = 4, incstack = 0, save=0
  2519 ;;
  2520 ;; *************** function _main *****************
  2521 ;; Defined at:
  2522 ;;		line 493 in file "main.c"
  2523 ;; Parameters:    Size  Location     Type
  2524 ;;		None
  2525 ;; Auto vars:     Size  Location     Type
  2526 ;;  r              14   14[BANK1 ] struct .
  2527 ;;  now             4   10[BANK1 ] unsigned long 
  2528 ;;  last_print_m    4    4[BANK1 ] unsigned long 
  2529 ;;  read_errors     2    8[BANK1 ] unsigned short 
  2530 ;; Return value:  Size  Location     Type
  2531 ;;                  1    wreg      void 
  2532 ;; Registers used:
  2533 ;;		wreg, fsr0l, fsr0h, fsr1l, fsr1h, status,2, status,0, pclath, cstack
  2534 ;; Tracked objects:
  2535 ;;		On entry : B1F/0
  2536 ;;		On exit  : 0/0
  2537 ;;		Unchanged: 0/0
  2538 ;; Data sizes:     COMMON   BANK0   BANK1   BANK2   BANK3   BANK4   BANK5   BANK6   BANK7   BANK8   BANK9  BANK10  BANK1
      +1  BANK12  BANK13  BANK14  BANK15  BANK16  BANK17  BANK18  BANK19  BANK20  BANK21  BANK22  BANK23  BANK24  BANK25
  2539 ;;      Params:         0       0       0       0       0       0       0       0       0       0       0       0       
      +0       0       0       0       0       0       0       0       0       0       0       0       0       0       0
  2540 ;;      Locals:         0       0      24       0       0       0       0       0       0       0       0       0       
      +0       0       0       0       0       0       0       0       0       0       0       0       0       0       0
  2541 ;;      Temps:          0       0       4       0       0       0       0       0       0       0       0       0       
      +0       0       0       0       0       0       0       0       0       0       0       0       0       0       0
  2542 ;;      Totals:         0       0      28       0       0       0       0       0       0       0       0       0       
      +0       0       0       0       0       0       0       0       0       0       0       0       0       0       0
  2543 ;;Total ram usage:       28 bytes
  2544 ;; Hardware stack levels required when called: 7
  2545 ;; This function calls:
  2546 ;;		_EUSART_Initialize
  2547 ;;		_EUSART_Write_Text
  2548 ;;		_I2C_Init
  2549 ;;		_TMR0_Init
  2550 ;;		_UART_PrintFixed100
  2551 ;;		_UART_PrintInt32
  2552 ;;		_filter_step
  2553 ;;		_initMain
  2554 ;;		_millis
  2555 ;;		_mpu_calibrate
  2556 ;;		_mpu_init
  2557 ;;		_mpu_read_raw
  2558 ;;		_mpu_wait_data_ready
  2559 ;;		_temp_to_c_x100
  2560 ;; This function is called by:
  2561 ;;		Startup code after reset
  2562 ;; This function uses a non-reentrant model
  2563 ;;
  2564                           
  2565     053D                     _main:	
  2566                           ;psect for function _main
  2567                           
  2568     053D                     l2848:	
  2569                           ;incstack = 0
  2570                           ; Regs used in _main: [wreg-fsr1h+status,2+status,0+pclath+cstack]
  2571                           
  2572                           
  2573                           ;main.c: 495:     initMain();
  2574     053D  3196  26D5  3185   	fcall	_initMain
  2575                           
  2576                           ;main.c: 496:     TMR0_Init();
  2577     0540  3195  2532  3185   	fcall	_TMR0_Init
  2578                           
  2579                           ;main.c: 497:     EUSART_Initialize(19200);
  2580     0543  3000               	movlw	0
  2581     0544  0020               	movlb	0	; select bank0
  2582     0545  00B1               	movwf	EUSART_Initialize@baudrate+3
  2583     0546  3000               	movlw	0
  2584     0547  00B0               	movwf	EUSART_Initialize@baudrate+2
  2585     0548  304B               	movlw	75
  2586     0549  00AF               	movwf	EUSART_Initialize@baudrate+1
  2587     054A  3000               	movlw	0
  2588     054B  00AE               	movwf	EUSART_Initialize@baudrate
  2589     054C  3187  27AF  3185   	fcall	_EUSART_Initialize
  2590                           
  2591                           ;main.c: 498:     I2C_Init();
  2592     054F  3195  2554  3185   	fcall	_I2C_Init
  2593     0552                     l2850:
  2594                           
  2595                           ;main.c: 500:     EUSART_Write_Text("\r\nMPU6050 on PIC16F1718\r\n");
  2596     0552  30C7               	movlw	low (STR_7| (0+32768))
  2597     0553  00F1               	movwf	EUSART_Write_Text@text
  2598     0554  3098               	movlw	high (STR_7| (0+32768))
  2599     0555  00F2               	movwf	EUSART_Write_Text@text+1
  2600     0556  3195  25A4  3185   	fcall	_EUSART_Write_Text
  2601     0559                     l2852:
  2602                           
  2603                           ;main.c: 501:     EUSART_Write_Text("Accel +/-2g, Gyro +/-250dps\r\n");
  2604     0559  30A9               	movlw	low (STR_8| (0+32768))
  2605     055A  00F1               	movwf	EUSART_Write_Text@text
  2606     055B  3098               	movlw	high (STR_8| (0+32768))
  2607     055C  00F2               	movwf	EUSART_Write_Text@text+1
  2608     055D  3195  25A4  3185   	fcall	_EUSART_Write_Text
  2609     0560                     l2854:
  2610                           
  2611                           ;main.c: 502:     EUSART_Write_Text("DLPF ~42Hz, 100Hz sample rate\r\n");
  2612     0560  3089               	movlw	low (STR_9| (0+32768))
  2613     0561  00F1               	movwf	EUSART_Write_Text@text
  2614     0562  3098               	movlw	high (STR_9| (0+32768))
  2615     0563  00F2               	movwf	EUSART_Write_Text@text+1
  2616     0564  3195  25A4  3185   	fcall	_EUSART_Write_Text
  2617     0567                     l2856:
  2618                           
  2619                           ;main.c: 503:     EUSART_Write_Text("------------------------------\r\n");
  2620     0567  3048               	movlw	low (STR_10| (0+32768))
  2621     0568  00F1               	movwf	EUSART_Write_Text@text
  2622     0569  3098               	movlw	high (STR_10| (0+32768))
  2623     056A  00F2               	movwf	EUSART_Write_Text@text+1
  2624     056B  3195  25A4  3185   	fcall	_EUSART_Write_Text
  2625     056E                     l2858:
  2626                           
  2627                           ;main.c: 505:     if (mpu_init())
  2628     056E  3189  21D4  3185   	fcall	_mpu_init
  2629     0571  3A00               	xorlw	0
  2630     0572  1903               	skipnz
  2631     0573  2D75               	goto	u2731
  2632     0574  2D76               	goto	u2730
  2633     0575                     u2731:
  2634     0575  2D7E               	goto	l2862
  2635     0576                     u2730:
  2636     0576                     l2860:
  2637                           
  2638                           ;main.c: 506:     {;main.c: 507:         EUSART_Write_Text("MPU6050 Init OK\r\n");
  2639     0576  3035               	movlw	low (STR_11| (0+32768))
  2640     0577  00F1               	movwf	EUSART_Write_Text@text
  2641     0578  3099               	movlw	high (STR_11| (0+32768))
  2642     0579  00F2               	movwf	EUSART_Write_Text@text+1
  2643     057A  3195  25A4  3185   	fcall	_EUSART_Write_Text
  2644                           
  2645                           ;main.c: 508:     }
  2646     057D  2D8D               	goto	l2864
  2647     057E                     l2862:
  2648                           
  2649                           ;main.c: 510:     {;main.c: 511:         EUSART_Write_Text("MPU6050 Init FAILED!\r\n");
  2650     057E  30E1               	movlw	low (STR_12| (0+32768))
  2651     057F  00F1               	movwf	EUSART_Write_Text@text
  2652     0580  3098               	movlw	high (STR_12| (0+32768))
  2653     0581  00F2               	movwf	EUSART_Write_Text@text+1
  2654     0582  3195  25A4  3185   	fcall	_EUSART_Write_Text
  2655                           
  2656                           ;main.c: 512:         EUSART_Write_Text("Check wiring (SDA=RC4, SCL=RC5)\r\n");
  2657     0585  3026               	movlw	low (STR_13| (0+32768))
  2658     0586  00F1               	movwf	EUSART_Write_Text@text
  2659     0587  3098               	movlw	high (STR_13| (0+32768))
  2660     0588  00F2               	movwf	EUSART_Write_Text@text+1
  2661     0589  3195  25A4  3185   	fcall	_EUSART_Write_Text
  2662     058C                     l422:	
  2663                           ;main.c: 513:         while (1);
  2664                           
  2665     058C                     l423:
  2666     058C  2D8C               	goto	l422
  2667     058D                     l2864:
  2668                           
  2669                           ;main.c: 516:     EUSART_Write_Text("Hold still for calibration...\r\n");
  2670     058D  3069               	movlw	low (STR_14| (0+32768))
  2671     058E  00F1               	movwf	EUSART_Write_Text@text
  2672     058F  3098               	movlw	high (STR_14| (0+32768))
  2673     0590  00F2               	movwf	EUSART_Write_Text@text+1
  2674     0591  3195  25A4  3185   	fcall	_EUSART_Write_Text
  2675     0594                     l2866:
  2676                           
  2677                           ;main.c: 517:     if (mpu_calibrate())
  2678     0594  318D  258F  3185   	fcall	_mpu_calibrate
  2679     0597  3A00               	xorlw	0
  2680     0598  1903               	skipnz
  2681     0599  2D9B               	goto	u2741
  2682     059A  2D9C               	goto	u2740
  2683     059B                     u2741:
  2684     059B  2E4E               	goto	l2886
  2685     059C                     u2740:
  2686     059C                     l2868:
  2687                           
  2688                           ;main.c: 518:     {;main.c: 519:         EUSART_Write_Text("Calibration done\r\n");
  2689     059C  3022               	movlw	low (STR_15| (0+32768))
  2690     059D  00F1               	movwf	EUSART_Write_Text@text
  2691     059E  3099               	movlw	high (STR_15| (0+32768))
  2692     059F  00F2               	movwf	EUSART_Write_Text@text+1
  2693     05A0  3195  25A4  3185   	fcall	_EUSART_Write_Text
  2694                           
  2695                           ;main.c: 521:         EUSART_Write_Text("Aoff mg: X=");
  2696     05A3  3064               	movlw	low (STR_16| (0+32768))
  2697     05A4  00F1               	movwf	EUSART_Write_Text@text
  2698     05A5  3099               	movlw	high (STR_16| (0+32768))
  2699     05A6  00F2               	movwf	EUSART_Write_Text@text+1
  2700     05A7  3195  25A4  3185   	fcall	_EUSART_Write_Text
  2701     05AA                     l2870:
  2702                           
  2703                           ;main.c: 522:         UART_PrintInt32(g_ax_off_mg);
  2704     05AA  0021               	movlb	1	; select bank1
  2705     05AB  084B               	movf	(_g_ax_off_mg+3)^(0+128),w
  2706     05AC  0020               	movlb	0	; select bank0
  2707     05AD  00B1               	movwf	UART_PrintInt32@val+3
  2708     05AE  0021               	movlb	1	; select bank1
  2709     05AF  084A               	movf	(_g_ax_off_mg+2)^(0+128),w
  2710     05B0  0020               	movlb	0	; select bank0
  2711     05B1  00B0               	movwf	UART_PrintInt32@val+2
  2712     05B2  0021               	movlb	1	; select bank1
  2713     05B3  0849               	movf	(_g_ax_off_mg+1)^(0+128),w
  2714     05B4  0020               	movlb	0	; select bank0
  2715     05B5  00AF               	movwf	UART_PrintInt32@val+1
  2716     05B6  0021               	movlb	1	; select bank1
  2717     05B7  0848               	movf	_g_ax_off_mg^(0+128),w
  2718     05B8  0020               	movlb	0	; select bank0
  2719     05B9  00AE               	movwf	UART_PrintInt32@val
  2720     05BA  318C  24EB  3185   	fcall	_UART_PrintInt32
  2721     05BD                     l2872:
  2722                           
  2723                           ;main.c: 523:         EUSART_Write_Text(" Y=");
  2724     05BD  308C               	movlw	low (STR_17| (0+32768))
  2725     05BE  00F1               	movwf	EUSART_Write_Text@text
  2726     05BF  3099               	movlw	high (STR_17| (0+32768))
  2727     05C0  00F2               	movwf	EUSART_Write_Text@text+1
  2728     05C1  3195  25A4  3185   	fcall	_EUSART_Write_Text
  2729                           
  2730                           ;main.c: 524:         UART_PrintInt32(g_ay_off_mg);
  2731     05C4  0021               	movlb	1	; select bank1
  2732     05C5  0847               	movf	(_g_ay_off_mg+3)^(0+128),w
  2733     05C6  0020               	movlb	0	; select bank0
  2734     05C7  00B1               	movwf	UART_PrintInt32@val+3
  2735     05C8  0021               	movlb	1	; select bank1
  2736     05C9  0846               	movf	(_g_ay_off_mg+2)^(0+128),w
  2737     05CA  0020               	movlb	0	; select bank0
  2738     05CB  00B0               	movwf	UART_PrintInt32@val+2
  2739     05CC  0021               	movlb	1	; select bank1
  2740     05CD  0845               	movf	(_g_ay_off_mg+1)^(0+128),w
  2741     05CE  0020               	movlb	0	; select bank0
  2742     05CF  00AF               	movwf	UART_PrintInt32@val+1
  2743     05D0  0021               	movlb	1	; select bank1
  2744     05D1  0844               	movf	_g_ay_off_mg^(0+128),w
  2745     05D2  0020               	movlb	0	; select bank0
  2746     05D3  00AE               	movwf	UART_PrintInt32@val
  2747     05D4  318C  24EB  3185   	fcall	_UART_PrintInt32
  2748     05D7                     l2874:
  2749                           
  2750                           ;main.c: 525:         EUSART_Write_Text(" Z=");
  2751     05D7  3090               	movlw	low (STR_18| (0+32768))
  2752     05D8  00F1               	movwf	EUSART_Write_Text@text
  2753     05D9  3099               	movlw	high (STR_18| (0+32768))
  2754     05DA  00F2               	movwf	EUSART_Write_Text@text+1
  2755     05DB  3195  25A4  3185   	fcall	_EUSART_Write_Text
  2756     05DE                     l2876:
  2757                           
  2758                           ;main.c: 526:         UART_PrintInt32(g_az_off_mg);
  2759     05DE  0021               	movlb	1	; select bank1
  2760     05DF  0843               	movf	(_g_az_off_mg+3)^(0+128),w
  2761     05E0  0020               	movlb	0	; select bank0
  2762     05E1  00B1               	movwf	UART_PrintInt32@val+3
  2763     05E2  0021               	movlb	1	; select bank1
  2764     05E3  0842               	movf	(_g_az_off_mg+2)^(0+128),w
  2765     05E4  0020               	movlb	0	; select bank0
  2766     05E5  00B0               	movwf	UART_PrintInt32@val+2
  2767     05E6  0021               	movlb	1	; select bank1
  2768     05E7  0841               	movf	(_g_az_off_mg+1)^(0+128),w
  2769     05E8  0020               	movlb	0	; select bank0
  2770     05E9  00AF               	movwf	UART_PrintInt32@val+1
  2771     05EA  0021               	movlb	1	; select bank1
  2772     05EB  0840               	movf	_g_az_off_mg^(0+128),w
  2773     05EC  0020               	movlb	0	; select bank0
  2774     05ED  00AE               	movwf	UART_PrintInt32@val
  2775     05EE  318C  24EB  3185   	fcall	_UART_PrintInt32
  2776                           
  2777                           ;main.c: 527:         EUSART_Write_Text("\r\n");
  2778     05F1  3023               	movlw	low ((STR_25+35)| (0+32768))
  2779     05F2  00F1               	movwf	EUSART_Write_Text@text
  2780     05F3  3098               	movlw	high ((STR_25+35)| (0+32768))
  2781     05F4  00F2               	movwf	EUSART_Write_Text@text+1
  2782     05F5  3195  25A4  3185   	fcall	_EUSART_Write_Text
  2783                           
  2784                           ;main.c: 529:         EUSART_Write_Text("Goff mdps: X=");
  2785     05F8  3056               	movlw	low (STR_20| (0+32768))
  2786     05F9  00F1               	movwf	EUSART_Write_Text@text
  2787     05FA  3099               	movlw	high (STR_20| (0+32768))
  2788     05FB  00F2               	movwf	EUSART_Write_Text@text+1
  2789     05FC  3195  25A4  3185   	fcall	_EUSART_Write_Text
  2790     05FF                     l2878:
  2791                           
  2792                           ;main.c: 530:         UART_PrintInt32(g_gx_off_mdps);
  2793     05FF  0021               	movlb	1	; select bank1
  2794     0600  083F               	movf	(_g_gx_off_mdps+3)^(0+128),w
  2795     0601  0020               	movlb	0	; select bank0
  2796     0602  00B1               	movwf	UART_PrintInt32@val+3
  2797     0603  0021               	movlb	1	; select bank1
  2798     0604  083E               	movf	(_g_gx_off_mdps+2)^(0+128),w
  2799     0605  0020               	movlb	0	; select bank0
  2800     0606  00B0               	movwf	UART_PrintInt32@val+2
  2801     0607  0021               	movlb	1	; select bank1
  2802     0608  083D               	movf	(_g_gx_off_mdps+1)^(0+128),w
  2803     0609  0020               	movlb	0	; select bank0
  2804     060A  00AF               	movwf	UART_PrintInt32@val+1
  2805     060B  0021               	movlb	1	; select bank1
  2806     060C  083C               	movf	_g_gx_off_mdps^(0+128),w
  2807     060D  0020               	movlb	0	; select bank0
  2808     060E  00AE               	movwf	UART_PrintInt32@val
  2809     060F  318C  24EB  3185   	fcall	_UART_PrintInt32
  2810     0612                     l2880:
  2811                           
  2812                           ;main.c: 531:         EUSART_Write_Text(" Y=");
  2813     0612  308C               	movlw	low (STR_17| (0+32768))
  2814     0613  00F1               	movwf	EUSART_Write_Text@text
  2815     0614  3099               	movlw	high (STR_17| (0+32768))
  2816     0615  00F2               	movwf	EUSART_Write_Text@text+1
  2817     0616  3195  25A4  3185   	fcall	_EUSART_Write_Text
  2818                           
  2819                           ;main.c: 532:         UART_PrintInt32(g_gy_off_mdps);
  2820     0619  0021               	movlb	1	; select bank1
  2821     061A  083B               	movf	(_g_gy_off_mdps+3)^(0+128),w
  2822     061B  0020               	movlb	0	; select bank0
  2823     061C  00B1               	movwf	UART_PrintInt32@val+3
  2824     061D  0021               	movlb	1	; select bank1
  2825     061E  083A               	movf	(_g_gy_off_mdps+2)^(0+128),w
  2826     061F  0020               	movlb	0	; select bank0
  2827     0620  00B0               	movwf	UART_PrintInt32@val+2
  2828     0621  0021               	movlb	1	; select bank1
  2829     0622  0839               	movf	(_g_gy_off_mdps+1)^(0+128),w
  2830     0623  0020               	movlb	0	; select bank0
  2831     0624  00AF               	movwf	UART_PrintInt32@val+1
  2832     0625  0021               	movlb	1	; select bank1
  2833     0626  0838               	movf	_g_gy_off_mdps^(0+128),w
  2834     0627  0020               	movlb	0	; select bank0
  2835     0628  00AE               	movwf	UART_PrintInt32@val
  2836     0629  318C  24EB  3185   	fcall	_UART_PrintInt32
  2837     062C                     l2882:
  2838                           
  2839                           ;main.c: 533:         EUSART_Write_Text(" Z=");
  2840     062C  3090               	movlw	low (STR_18| (0+32768))
  2841     062D  00F1               	movwf	EUSART_Write_Text@text
  2842     062E  3099               	movlw	high (STR_18| (0+32768))
  2843     062F  00F2               	movwf	EUSART_Write_Text@text+1
  2844     0630  3195  25A4  3185   	fcall	_EUSART_Write_Text
  2845     0633                     l2884:
  2846                           
  2847                           ;main.c: 534:         UART_PrintInt32(g_gz_off_mdps);
  2848     0633  0021               	movlb	1	; select bank1
  2849     0634  0837               	movf	(_g_gz_off_mdps+3)^(0+128),w
  2850     0635  0020               	movlb	0	; select bank0
  2851     0636  00B1               	movwf	UART_PrintInt32@val+3
  2852     0637  0021               	movlb	1	; select bank1
  2853     0638  0836               	movf	(_g_gz_off_mdps+2)^(0+128),w
  2854     0639  0020               	movlb	0	; select bank0
  2855     063A  00B0               	movwf	UART_PrintInt32@val+2
  2856     063B  0021               	movlb	1	; select bank1
  2857     063C  0835               	movf	(_g_gz_off_mdps+1)^(0+128),w
  2858     063D  0020               	movlb	0	; select bank0
  2859     063E  00AF               	movwf	UART_PrintInt32@val+1
  2860     063F  0021               	movlb	1	; select bank1
  2861     0640  0834               	movf	_g_gz_off_mdps^(0+128),w
  2862     0641  0020               	movlb	0	; select bank0
  2863     0642  00AE               	movwf	UART_PrintInt32@val
  2864     0643  318C  24EB  3185   	fcall	_UART_PrintInt32
  2865                           
  2866                           ;main.c: 535:         EUSART_Write_Text("\r\n\r\n");
  2867     0646  3021               	movlw	low ((STR_25+33)| (0+32768))
  2868     0647  00F1               	movwf	EUSART_Write_Text@text
  2869     0648  3098               	movlw	high ((STR_25+33)| (0+32768))
  2870     0649  00F2               	movwf	EUSART_Write_Text@text+1
  2871     064A  3195  25A4  3185   	fcall	_EUSART_Write_Text
  2872                           
  2873                           ;main.c: 536:     }
  2874     064D  2E5C               	goto	l2888
  2875     064E                     l2886:
  2876                           
  2877                           ;main.c: 538:     {;main.c: 539:         EUSART_Write_Text("Calibration FAILED\r\n");
  2878     064E  30F8               	movlw	low (STR_24| (0+32768))
  2879     064F  00F1               	movwf	EUSART_Write_Text@text
  2880     0650  3098               	movlw	high (STR_24| (0+32768))
  2881     0651  00F2               	movwf	EUSART_Write_Text@text+1
  2882     0652  3195  25A4  3185   	fcall	_EUSART_Write_Text
  2883                           
  2884                           ;main.c: 540:         EUSART_Write_Text("Continuing without calibration...\r\n\r\n");
  2885     0655  3000               	movlw	low (STR_25| (0+32768))
  2886     0656  00F1               	movwf	EUSART_Write_Text@text
  2887     0657  3098               	movlw	high (STR_25| (0+32768))
  2888     0658  00F2               	movwf	EUSART_Write_Text@text+1
  2889     0659  3195  25A4  3185   	fcall	_EUSART_Write_Text
  2890     065C                     l2888:
  2891                           
  2892                           ;main.c: 543:     uint32_t last_print_ms = 0;
  2893     065C  3000               	movlw	0
  2894     065D  0021               	movlb	1	; select bank1
  2895     065E  00DA               	movwf	(main@last_print_ms+3)^(0+128)
  2896     065F  3000               	movlw	0
  2897     0660  00D9               	movwf	(main@last_print_ms+2)^(0+128)
  2898     0661  3000               	movlw	0
  2899     0662  00D8               	movwf	(main@last_print_ms+1)^(0+128)
  2900     0663  3000               	movlw	0
  2901     0664  00D7               	movwf	main@last_print_ms^(0+128)
  2902     0665                     l2890:
  2903                           
  2904                           ;main.c: 544:     uint16_t read_errors = 0;
  2905     0665  0021               	movlb	1	; select bank1
  2906     0666  01DB               	clrf	main@read_errors^(0+128)
  2907     0667  01DC               	clrf	(main@read_errors+1)^(0+128)
  2908     0668                     l2892:
  2909                           
  2910                           ;main.c: 547:     {;main.c: 549:         if (!mpu_wait_data_ready(20))
  2911     0668  3014               	movlw	20
  2912     0669  0020               	movlb	0	; select bank0
  2913     066A  00A2               	movwf	mpu_wait_data_ready@timeout_ms
  2914     066B  3000               	movlw	0
  2915     066C  00A3               	movwf	mpu_wait_data_ready@timeout_ms+1
  2916     066D  3188  2058  3185   	fcall	_mpu_wait_data_ready
  2917     0670  3A00               	xorlw	0
  2918     0671  1D03               	skipz
  2919     0672  2E74               	goto	u2751
  2920     0673  2E75               	goto	u2750
  2921     0674                     u2751:
  2922     0674  2E9A               	goto	l2906
  2923     0675                     u2750:
  2924     0675                     l2894:
  2925                           
  2926                           ;main.c: 550:         {;main.c: 551:             read_errors++;
  2927     0675  3001               	movlw	1
  2928     0676  0021               	movlb	1	; select bank1
  2929     0677  07DB               	addwf	main@read_errors^(0+128),f
  2930     0678  3000               	movlw	0
  2931     0679  3DDC               	addwfc	(main@read_errors+1)^(0+128),f
  2932                           
  2933                           ;main.c: 552:             if (read_errors > 10)
  2934     067A  3000               	movlw	0
  2935     067B  025C               	subwf	(main@read_errors+1)^(0+128),w
  2936     067C  300B               	movlw	11
  2937     067D  1903               	skipnz
  2938     067E  025B               	subwf	main@read_errors^(0+128),w
  2939     067F  1C03               	skipc
  2940     0680  2E82               	goto	u2761
  2941     0681  2E83               	goto	u2760
  2942     0682                     u2761:
  2943     0682  2E68               	goto	l2892
  2944     0683                     u2760:
  2945     0683                     l2896:
  2946                           
  2947                           ;main.c: 553:             {;main.c: 554:                 EUSART_Write_Text("I2C stall, r
      +                          e-init\r\n");
  2948     0683  300D               	movlw	low (STR_26| (0+32768))
  2949     0684  00F1               	movwf	EUSART_Write_Text@text
  2950     0685  3099               	movlw	high (STR_26| (0+32768))
  2951     0686  00F2               	movwf	EUSART_Write_Text@text+1
  2952     0687  3195  25A4  3185   	fcall	_EUSART_Write_Text
  2953     068A                     l2898:
  2954                           
  2955                           ;main.c: 555:                 I2C_Init();
  2956     068A  3195  2554  3185   	fcall	_I2C_Init
  2957     068D                     l2900:
  2958                           
  2959                           ;main.c: 556:                 _delay((unsigned long)((10)*(32000000/4000.0)));
  2960     068D  3068               	movlw	104
  2961     068E  0021               	movlb	1	; select bank1
  2962     068F  00D3               	movwf	??_main^(0+128)
  2963     0690  30E4               	movlw	228
  2964     0691                     u2797:
  2965     0691  0B89               	decfsz	9,f
  2966     0692  2E91               	goto	u2797
  2967     0693  0BD3               	decfsz	??_main^(0+128),f
  2968     0694  2E91               	goto	u2797
  2969     0695  0000               	nop
  2970     0696                     l2902:
  2971                           
  2972                           ;main.c: 557:                 mpu_init();
  2973     0696  3189  21D4  3185   	fcall	_mpu_init
  2974     0699  2E65               	goto	l2890
  2975     069A                     l2906:
  2976                           
  2977                           ;main.c: 563:         read_errors = 0;
  2978     069A  0021               	movlb	1	; select bank1
  2979     069B  01DB               	clrf	main@read_errors^(0+128)
  2980     069C  01DC               	clrf	(main@read_errors+1)^(0+128)
  2981     069D                     l2908:
  2982                           
  2983                           ;main.c: 565:         mpu_raw_t r;;main.c: 566:         if (!mpu_read_raw(&r))
  2984     069D  30E1               	movlw	(low (main@r| 0))& (0+255)
  2985     069E  3189  2169  3185   	fcall	_mpu_read_raw
  2986     06A1  3A00               	xorlw	0
  2987     06A2  1D03               	skipz
  2988     06A3  2EA5               	goto	u2771
  2989     06A4  2EA6               	goto	u2770
  2990     06A5                     u2771:
  2991     06A5  2EA7               	goto	l2912
  2992     06A6                     u2770:
  2993     06A6  2E68               	goto	l2892
  2994     06A7                     l2912:
  2995                           
  2996                           ;main.c: 569:         filter_step(&r);
  2997     06A7  30E1               	movlw	(low (main@r| 0))& (0+255)
  2998     06A8  3180  202F  3185   	fcall	_filter_step
  2999     06AB                     l2914:
  3000                           
  3001                           ;main.c: 572:         uint32_t now = millis();
  3002     06AB  3195  257C  3185   	fcall	_millis
  3003     06AE  0873               	movf	?_millis+3,w
  3004     06AF  0021               	movlb	1	; select bank1
  3005     06B0  00E0               	movwf	(main@now+3)^(0+128)
  3006     06B1  0872               	movf	?_millis+2,w
  3007     06B2  00DF               	movwf	(main@now+2)^(0+128)
  3008     06B3  0871               	movf	?_millis+1,w
  3009     06B4  00DE               	movwf	(main@now+1)^(0+128)
  3010     06B5  0870               	movf	?_millis,w
  3011     06B6  00DD               	movwf	main@now^(0+128)
  3012     06B7                     l2916:
  3013                           
  3014                           ;main.c: 573:         if ((now - last_print_ms) >= 100)
  3015     06B7  0857               	movf	main@last_print_ms^(0+128),w
  3016     06B8  025D               	subwf	main@now^(0+128),w
  3017     06B9  00D3               	movwf	??_main^(0+128)
  3018     06BA  0858               	movf	(main@last_print_ms+1)^(0+128),w
  3019     06BB  3B5E               	subwfb	(main@now+1)^(0+128),w
  3020     06BC  00D4               	movwf	(??_main^(0+128)+1)
  3021     06BD  0859               	movf	(main@last_print_ms+2)^(0+128),w
  3022     06BE  3B5F               	subwfb	(main@now+2)^(0+128),w
  3023     06BF  00D5               	movwf	(??_main^(0+128)+2)
  3024     06C0  085A               	movf	(main@last_print_ms+3)^(0+128),w
  3025     06C1  3B60               	subwfb	(main@now+3)^(0+128),w
  3026     06C2  00D6               	movwf	(??_main^(0+128)+3)
  3027     06C3  0856               	movf	(??_main^(0+128)+3),w
  3028     06C4  1D03               	btfss	3,2
  3029     06C5  2ED2               	goto	u2780
  3030     06C6  0855               	movf	(??_main^(0+128)+2),w
  3031     06C7  1D03               	btfss	3,2
  3032     06C8  2ED2               	goto	u2780
  3033     06C9  0854               	movf	(??_main^(0+128)+1),w
  3034     06CA  1D03               	btfss	3,2
  3035     06CB  2ED2               	goto	u2780
  3036     06CC  3064               	movlw	100
  3037     06CD  0253               	subwf	??_main^(0+128),w
  3038     06CE  1C03               	btfss	3,0
  3039     06CF  2ED1               	goto	u2781
  3040     06D0  2ED2               	goto	u2780
  3041     06D1                     u2781:
  3042     06D1  2FA3               	goto	l2952
  3043     06D2                     u2780:
  3044     06D2                     l2918:
  3045                           
  3046                           ;main.c: 574:         {;main.c: 575:             last_print_ms = now;
  3047     06D2  0021               	movlb	1	; select bank1
  3048     06D3  0860               	movf	(main@now+3)^(0+128),w
  3049     06D4  00DA               	movwf	(main@last_print_ms+3)^(0+128)
  3050     06D5  085F               	movf	(main@now+2)^(0+128),w
  3051     06D6  00D9               	movwf	(main@last_print_ms+2)^(0+128)
  3052     06D7  085E               	movf	(main@now+1)^(0+128),w
  3053     06D8  00D8               	movwf	(main@last_print_ms+1)^(0+128)
  3054     06D9  085D               	movf	main@now^(0+128),w
  3055     06DA  00D7               	movwf	main@last_print_ms^(0+128)
  3056     06DB                     l2920:
  3057                           
  3058                           ;main.c: 577:             EUSART_Write_Text("ACC mg: X=");
  3059     06DB  307B               	movlw	low (STR_27| (0+32768))
  3060     06DC  00F1               	movwf	EUSART_Write_Text@text
  3061     06DD  3099               	movlw	high (STR_27| (0+32768))
  3062     06DE  00F2               	movwf	EUSART_Write_Text@text+1
  3063     06DF  3195  25A4  3185   	fcall	_EUSART_Write_Text
  3064     06E2                     l2922:
  3065                           
  3066                           ;main.c: 578:             UART_PrintInt32(s_ax);
  3067     06E2  0021               	movlb	1	; select bank1
  3068     06E3  0833               	movf	(_s_ax+3)^(0+128),w
  3069     06E4  0020               	movlb	0	; select bank0
  3070     06E5  00B1               	movwf	UART_PrintInt32@val+3
  3071     06E6  0021               	movlb	1	; select bank1
  3072     06E7  0832               	movf	(_s_ax+2)^(0+128),w
  3073     06E8  0020               	movlb	0	; select bank0
  3074     06E9  00B0               	movwf	UART_PrintInt32@val+2
  3075     06EA  0021               	movlb	1	; select bank1
  3076     06EB  0831               	movf	(_s_ax+1)^(0+128),w
  3077     06EC  0020               	movlb	0	; select bank0
  3078     06ED  00AF               	movwf	UART_PrintInt32@val+1
  3079     06EE  0021               	movlb	1	; select bank1
  3080     06EF  0830               	movf	_s_ax^(0+128),w
  3081     06F0  0020               	movlb	0	; select bank0
  3082     06F1  00AE               	movwf	UART_PrintInt32@val
  3083     06F2  318C  24EB  3185   	fcall	_UART_PrintInt32
  3084     06F5                     l2924:
  3085                           
  3086                           ;main.c: 579:             EUSART_Write_Text(" Y=");
  3087     06F5  308C               	movlw	low (STR_17| (0+32768))
  3088     06F6  00F1               	movwf	EUSART_Write_Text@text
  3089     06F7  3099               	movlw	high (STR_17| (0+32768))
  3090     06F8  00F2               	movwf	EUSART_Write_Text@text+1
  3091     06F9  3195  25A4  3185   	fcall	_EUSART_Write_Text
  3092     06FC                     l2926:
  3093                           
  3094                           ;main.c: 580:             UART_PrintInt32(s_ay);
  3095     06FC  0021               	movlb	1	; select bank1
  3096     06FD  082F               	movf	(_s_ay+3)^(0+128),w
  3097     06FE  0020               	movlb	0	; select bank0
  3098     06FF  00B1               	movwf	UART_PrintInt32@val+3
  3099     0700  0021               	movlb	1	; select bank1
  3100     0701  082E               	movf	(_s_ay+2)^(0+128),w
  3101     0702  0020               	movlb	0	; select bank0
  3102     0703  00B0               	movwf	UART_PrintInt32@val+2
  3103     0704  0021               	movlb	1	; select bank1
  3104     0705  082D               	movf	(_s_ay+1)^(0+128),w
  3105     0706  0020               	movlb	0	; select bank0
  3106     0707  00AF               	movwf	UART_PrintInt32@val+1
  3107     0708  0021               	movlb	1	; select bank1
  3108     0709  082C               	movf	_s_ay^(0+128),w
  3109     070A  0020               	movlb	0	; select bank0
  3110     070B  00AE               	movwf	UART_PrintInt32@val
  3111     070C  318C  24EB  3185   	fcall	_UART_PrintInt32
  3112     070F                     l2928:
  3113                           
  3114                           ;main.c: 581:             EUSART_Write_Text(" Z=");
  3115     070F  3090               	movlw	low (STR_18| (0+32768))
  3116     0710  00F1               	movwf	EUSART_Write_Text@text
  3117     0711  3099               	movlw	high (STR_18| (0+32768))
  3118     0712  00F2               	movwf	EUSART_Write_Text@text+1
  3119     0713  3195  25A4  3185   	fcall	_EUSART_Write_Text
  3120     0716                     l2930:
  3121                           
  3122                           ;main.c: 582:             UART_PrintInt32(s_az);
  3123     0716  0021               	movlb	1	; select bank1
  3124     0717  082B               	movf	(_s_az+3)^(0+128),w
  3125     0718  0020               	movlb	0	; select bank0
  3126     0719  00B1               	movwf	UART_PrintInt32@val+3
  3127     071A  0021               	movlb	1	; select bank1
  3128     071B  082A               	movf	(_s_az+2)^(0+128),w
  3129     071C  0020               	movlb	0	; select bank0
  3130     071D  00B0               	movwf	UART_PrintInt32@val+2
  3131     071E  0021               	movlb	1	; select bank1
  3132     071F  0829               	movf	(_s_az+1)^(0+128),w
  3133     0720  0020               	movlb	0	; select bank0
  3134     0721  00AF               	movwf	UART_PrintInt32@val+1
  3135     0722  0021               	movlb	1	; select bank1
  3136     0723  0828               	movf	_s_az^(0+128),w
  3137     0724  0020               	movlb	0	; select bank0
  3138     0725  00AE               	movwf	UART_PrintInt32@val
  3139     0726  318C  24EB  3185   	fcall	_UART_PrintInt32
  3140     0729                     l2932:
  3141                           
  3142                           ;main.c: 584:             EUSART_Write_Text(" | GY mdps: X=");
  3143     0729  3047               	movlw	low (STR_30| (0+32768))
  3144     072A  00F1               	movwf	EUSART_Write_Text@text
  3145     072B  3099               	movlw	high (STR_30| (0+32768))
  3146     072C  00F2               	movwf	EUSART_Write_Text@text+1
  3147     072D  3195  25A4  3185   	fcall	_EUSART_Write_Text
  3148     0730                     l2934:
  3149                           
  3150                           ;main.c: 585:             UART_PrintInt32(s_gx);
  3151     0730  0021               	movlb	1	; select bank1
  3152     0731  0827               	movf	(_s_gx+3)^(0+128),w
  3153     0732  0020               	movlb	0	; select bank0
  3154     0733  00B1               	movwf	UART_PrintInt32@val+3
  3155     0734  0021               	movlb	1	; select bank1
  3156     0735  0826               	movf	(_s_gx+2)^(0+128),w
  3157     0736  0020               	movlb	0	; select bank0
  3158     0737  00B0               	movwf	UART_PrintInt32@val+2
  3159     0738  0021               	movlb	1	; select bank1
  3160     0739  0825               	movf	(_s_gx+1)^(0+128),w
  3161     073A  0020               	movlb	0	; select bank0
  3162     073B  00AF               	movwf	UART_PrintInt32@val+1
  3163     073C  0021               	movlb	1	; select bank1
  3164     073D  0824               	movf	_s_gx^(0+128),w
  3165     073E  0020               	movlb	0	; select bank0
  3166     073F  00AE               	movwf	UART_PrintInt32@val
  3167     0740  318C  24EB  3185   	fcall	_UART_PrintInt32
  3168     0743                     l2936:
  3169                           
  3170                           ;main.c: 586:             EUSART_Write_Text(" Y=");
  3171     0743  308C               	movlw	low (STR_17| (0+32768))
  3172     0744  00F1               	movwf	EUSART_Write_Text@text
  3173     0745  3099               	movlw	high (STR_17| (0+32768))
  3174     0746  00F2               	movwf	EUSART_Write_Text@text+1
  3175     0747  3195  25A4  3185   	fcall	_EUSART_Write_Text
  3176     074A                     l2938:
  3177                           
  3178                           ;main.c: 587:             UART_PrintInt32(s_gy);
  3179     074A  0021               	movlb	1	; select bank1
  3180     074B  0823               	movf	(_s_gy+3)^(0+128),w
  3181     074C  0020               	movlb	0	; select bank0
  3182     074D  00B1               	movwf	UART_PrintInt32@val+3
  3183     074E  0021               	movlb	1	; select bank1
  3184     074F  0822               	movf	(_s_gy+2)^(0+128),w
  3185     0750  0020               	movlb	0	; select bank0
  3186     0751  00B0               	movwf	UART_PrintInt32@val+2
  3187     0752  0021               	movlb	1	; select bank1
  3188     0753  0821               	movf	(_s_gy+1)^(0+128),w
  3189     0754  0020               	movlb	0	; select bank0
  3190     0755  00AF               	movwf	UART_PrintInt32@val+1
  3191     0756  0021               	movlb	1	; select bank1
  3192     0757  0820               	movf	_s_gy^(0+128),w
  3193     0758  0020               	movlb	0	; select bank0
  3194     0759  00AE               	movwf	UART_PrintInt32@val
  3195     075A  318C  24EB  3185   	fcall	_UART_PrintInt32
  3196     075D                     l2940:
  3197                           
  3198                           ;main.c: 588:             EUSART_Write_Text(" Z=");
  3199     075D  3090               	movlw	low (STR_18| (0+32768))
  3200     075E  00F1               	movwf	EUSART_Write_Text@text
  3201     075F  3099               	movlw	high (STR_18| (0+32768))
  3202     0760  00F2               	movwf	EUSART_Write_Text@text+1
  3203     0761  3195  25A4  3185   	fcall	_EUSART_Write_Text
  3204     0764                     l2942:
  3205                           
  3206                           ;main.c: 589:             UART_PrintInt32(s_gz);
  3207     0764  0022               	movlb	2	; select bank2
  3208     0765  0853               	movf	(_s_gz+3)^(0+256),w
  3209     0766  0020               	movlb	0	; select bank0
  3210     0767  00B1               	movwf	UART_PrintInt32@val+3
  3211     0768  0022               	movlb	2	; select bank2
  3212     0769  0852               	movf	(_s_gz+2)^(0+256),w
  3213     076A  0020               	movlb	0	; select bank0
  3214     076B  00B0               	movwf	UART_PrintInt32@val+2
  3215     076C  0022               	movlb	2	; select bank2
  3216     076D  0851               	movf	(_s_gz+1)^(0+256),w
  3217     076E  0020               	movlb	0	; select bank0
  3218     076F  00AF               	movwf	UART_PrintInt32@val+1
  3219     0770  0022               	movlb	2	; select bank2
  3220     0771  0850               	movf	_s_gz^(0+256),w
  3221     0772  0020               	movlb	0	; select bank0
  3222     0773  00AE               	movwf	UART_PrintInt32@val
  3223     0774  318C  24EB  3185   	fcall	_UART_PrintInt32
  3224     0777                     l2944:
  3225                           
  3226                           ;main.c: 591:             EUSART_Write_Text(" | T=");
  3227     0777  3086               	movlw	low (STR_33| (0+32768))
  3228     0778  00F1               	movwf	EUSART_Write_Text@text
  3229     0779  3099               	movlw	high (STR_33| (0+32768))
  3230     077A  00F2               	movwf	EUSART_Write_Text@text+1
  3231     077B  3195  25A4  3185   	fcall	_EUSART_Write_Text
  3232     077E                     l2946:
  3233                           
  3234                           ;main.c: 592:             UART_PrintFixed100(temp_to_c_x100(r.temp));
  3235     077E  0021               	movlb	1	; select bank1
  3236     077F  0868               	movf	((main@r+1)^(0+128)+6),w
  3237     0780  0020               	movlb	0	; select bank0
  3238     0781  00AF               	movwf	temp_to_c_x100@t+1
  3239     0782  0021               	movlb	1	; select bank1
  3240     0783  0867               	movf	(main@r^(0+128)+6),w
  3241     0784  0020               	movlb	0	; select bank0
  3242     0785  00AE               	movwf	temp_to_c_x100@t
  3243     0786  3188  20AD  3185   	fcall	_temp_to_c_x100
  3244     0789  0020               	movlb	0	; select bank0
  3245     078A  0831               	movf	?_temp_to_c_x100+3,w
  3246     078B  00C4               	movwf	UART_PrintFixed100@val+3
  3247     078C  0830               	movf	?_temp_to_c_x100+2,w
  3248     078D  00C3               	movwf	UART_PrintFixed100@val+2
  3249     078E  082F               	movf	?_temp_to_c_x100+1,w
  3250     078F  00C2               	movwf	UART_PrintFixed100@val+1
  3251     0790  082E               	movf	?_temp_to_c_x100,w
  3252     0791  00C1               	movwf	UART_PrintFixed100@val
  3253     0792  318B  233D  3185   	fcall	_UART_PrintFixed100
  3254     0795                     l2948:
  3255                           
  3256                           ;main.c: 593:             EUSART_Write_Text("C");
  3257     0795  309A               	movlw	low (STR_34| (0+32768))
  3258     0796  00F1               	movwf	EUSART_Write_Text@text
  3259     0797  3099               	movlw	high (STR_34| (0+32768))
  3260     0798  00F2               	movwf	EUSART_Write_Text@text+1
  3261     0799  3195  25A4  3185   	fcall	_EUSART_Write_Text
  3262     079C                     l2950:
  3263                           
  3264                           ;main.c: 595:             EUSART_Write_Text("\r\n");
  3265     079C  3023               	movlw	low ((STR_25+35)| (0+32768))
  3266     079D  00F1               	movwf	EUSART_Write_Text@text
  3267     079E  3098               	movlw	high ((STR_25+35)| (0+32768))
  3268     079F  00F2               	movwf	EUSART_Write_Text@text+1
  3269     07A0  3195  25A4  3185   	fcall	_EUSART_Write_Text
  3270     07A3                     l2952:
  3271                           
  3272                           ;main.c: 598:         _delay((unsigned long)((10)*(32000000/4000.0)));
  3273     07A3  3068               	movlw	104
  3274     07A4  0021               	movlb	1	; select bank1
  3275     07A5  00D3               	movwf	??_main^(0+128)
  3276     07A6  30E4               	movlw	228
  3277     07A7                     u2807:
  3278     07A7  0B89               	decfsz	9,f
  3279     07A8  2FA7               	goto	u2807
  3280     07A9  0BD3               	decfsz	??_main^(0+128),f
  3281     07AA  2FA7               	goto	u2807
  3282     07AB  0000               	nop
  3283     07AC  2E68               	goto	l2892
  3284     07AD  3180  2819         	ljmp	start
  3285     07AF                     __end_of_main:
  3286                           
  3287                           	psect	text1
  3288     08AD                     __ptext1:	
  3289 ;; *************** function _temp_to_c_x100 *****************
  3290 ;; Defined at:
  3291 ;;		line 265 in file "main.c"
  3292 ;; Parameters:    Size  Location     Type
  3293 ;;  t               2   14[BANK0 ] short 
  3294 ;; Auto vars:     Size  Location     Type
  3295 ;;		None
  3296 ;; Return value:  Size  Location     Type
  3297 ;;                  4   14[BANK0 ] long 
  3298 ;; Registers used:
  3299 ;;		wreg, status,2, status,0, pclath, cstack
  3300 ;; Tracked objects:
  3301 ;;		On entry : 0/0
  3302 ;;		On exit  : 0/0
  3303 ;;		Unchanged: 0/0
  3304 ;; Data sizes:     COMMON   BANK0   BANK1   BANK2   BANK3   BANK4   BANK5   BANK6   BANK7   BANK8   BANK9  BANK10  BANK1
      +1  BANK12  BANK13  BANK14  BANK15  BANK16  BANK17  BANK18  BANK19  BANK20  BANK21  BANK22  BANK23  BANK24  BANK25
  3305 ;;      Params:         0       4       0       0       0       0       0       0       0       0       0       0       
      +0       0       0       0       0       0       0       0       0       0       0       0       0       0       0
  3306 ;;      Locals:         0       4       0       0       0       0       0       0       0       0       0       0       
      +0       0       0       0       0       0       0       0       0       0       0       0       0       0       0
  3307 ;;      Temps:          0       4       0       0       0       0       0       0       0       0       0       0       
      +0       0       0       0       0       0       0       0       0       0       0       0       0       0       0
  3308 ;;      Totals:         0      12       0       0       0       0       0       0       0       0       0       0       
      +0       0       0       0       0       0       0       0       0       0       0       0       0       0       0
  3309 ;;Total ram usage:       12 bytes
  3310 ;; Hardware stack levels used: 1
  3311 ;; Hardware stack levels required when called: 2
  3312 ;; This function calls:
  3313 ;;		___aldiv
  3314 ;;		___lmul
  3315 ;; This function is called by:
  3316 ;;		_main
  3317 ;; This function uses a non-reentrant model
  3318 ;;
  3319                           
  3320     08AD                     _temp_to_c_x100:	
  3321                           ;psect for function _temp_to_c_x100
  3322                           
  3323     08AD                     l2618:	
  3324                           ;incstack = 0
  3325                           ; Regs used in _temp_to_c_x100: [wreg+status,2+status,0+pclath+cstack]
  3326                           
  3327                           
  3328                           ;main.c: 265: static int32_t temp_to_c_x100(int16_t t);main.c: 266: {;main.c: 267:     r
      +                          eturn ((int32_t)t * 100 + (t >= 0 ? 169 : -169)) / 340 + 3653;
  3329     08AD  0020               	movlb	0	; select bank0
  3330     08AE  1FAF               	btfss	temp_to_c_x100@t+1,7
  3331     08AF  28B1               	goto	u2381
  3332     08B0  28B2               	goto	u2380
  3333     08B1                     u2381:
  3334     08B1  28BB               	goto	l2622
  3335     08B2                     u2380:
  3336     08B2                     l2620:
  3337     08B2  30FF               	movlw	255
  3338     08B3  00B9               	movwf	_temp_to_c_x100$639+3
  3339     08B4  30FF               	movlw	255
  3340     08B5  00B8               	movwf	_temp_to_c_x100$639+2
  3341     08B6  30FF               	movlw	255
  3342     08B7  00B7               	movwf	_temp_to_c_x100$639+1
  3343     08B8  3057               	movlw	87
  3344     08B9  00B6               	movwf	_temp_to_c_x100$639
  3345     08BA  28C3               	goto	l2624
  3346     08BB                     l2622:
  3347     08BB  3000               	movlw	0
  3348     08BC  00B9               	movwf	_temp_to_c_x100$639+3
  3349     08BD  3000               	movlw	0
  3350     08BE  00B8               	movwf	_temp_to_c_x100$639+2
  3351     08BF  3000               	movlw	0
  3352     08C0  00B7               	movwf	_temp_to_c_x100$639+1
  3353     08C1  30A9               	movlw	169
  3354     08C2  00B6               	movwf	_temp_to_c_x100$639
  3355     08C3                     l2624:
  3356     08C3  3000               	movlw	0
  3357     08C4  00A3               	movwf	___aldiv@divisor+3
  3358     08C5  3000               	movlw	0
  3359     08C6  00A2               	movwf	___aldiv@divisor+2
  3360     08C7  3001               	movlw	1
  3361     08C8  00A1               	movwf	___aldiv@divisor+1
  3362     08C9  3054               	movlw	84
  3363     08CA  00A0               	movwf	___aldiv@divisor
  3364     08CB  082E               	movf	temp_to_c_x100@t,w
  3365     08CC  00F0               	movwf	___lmul@multiplier
  3366     08CD  082F               	movf	temp_to_c_x100@t+1,w
  3367     08CE  00F1               	movwf	___lmul@multiplier+1
  3368     08CF  0D89               	rlf	9,f
  3369     08D0  3B89               	subwfb	9,f
  3370     08D1  0989               	comf	9,f
  3371     08D2  00F2               	movwf	___lmul@multiplier+2
  3372     08D3  00F3               	movwf	___lmul@multiplier+3
  3373     08D4  3000               	movlw	0
  3374     08D5  00F7               	movwf	___lmul@multiplicand+3
  3375     08D6  3000               	movlw	0
  3376     08D7  00F6               	movwf	___lmul@multiplicand+2
  3377     08D8  3000               	movlw	0
  3378     08D9  00F5               	movwf	___lmul@multiplicand+1
  3379     08DA  3064               	movlw	100
  3380     08DB  00F4               	movwf	___lmul@multiplicand
  3381     08DC  3196  26A2  3188   	fcall	___lmul
  3382     08DF  0870               	movf	?___lmul,w
  3383     08E0  0020               	movlb	0	; select bank0
  3384     08E1  0736               	addwf	_temp_to_c_x100$639,w
  3385     08E2  00B2               	movwf	??_temp_to_c_x100
  3386     08E3  0871               	movf	?___lmul+1,w
  3387     08E4  3D37               	addwfc	_temp_to_c_x100$639+1,w
  3388     08E5  00B3               	movwf	??_temp_to_c_x100+1
  3389     08E6  0872               	movf	?___lmul+2,w
  3390     08E7  3D38               	addwfc	_temp_to_c_x100$639+2,w
  3391     08E8  00B4               	movwf	??_temp_to_c_x100+2
  3392     08E9  0873               	movf	?___lmul+3,w
  3393     08EA  3D39               	addwfc	_temp_to_c_x100$639+3,w
  3394     08EB  00B5               	movwf	??_temp_to_c_x100+3
  3395     08EC  0835               	movf	??_temp_to_c_x100+3,w
  3396     08ED  00A7               	movwf	___aldiv@dividend+3
  3397     08EE  0834               	movf	??_temp_to_c_x100+2,w
  3398     08EF  00A6               	movwf	___aldiv@dividend+2
  3399     08F0  0833               	movf	??_temp_to_c_x100+1,w
  3400     08F1  00A5               	movwf	___aldiv@dividend+1
  3401     08F2  0832               	movf	??_temp_to_c_x100,w
  3402     08F3  00A4               	movwf	___aldiv@dividend
  3403     08F4  318B  23C5  3188   	fcall	___aldiv
  3404     08F7  3045               	movlw	69
  3405     08F8  0020               	movlb	0	; select bank0
  3406     08F9  0720               	addwf	?___aldiv,w
  3407     08FA  00AE               	movwf	?_temp_to_c_x100
  3408     08FB  300E               	movlw	14
  3409     08FC  3D21               	addwfc	?___aldiv+1,w
  3410     08FD  00AF               	movwf	?_temp_to_c_x100+1
  3411     08FE  3000               	movlw	0
  3412     08FF  3D22               	addwfc	?___aldiv+2,w
  3413     0900  00B0               	movwf	?_temp_to_c_x100+2
  3414     0901  3000               	movlw	0
  3415     0902  3D23               	addwfc	?___aldiv+3,w
  3416     0903  00B1               	movwf	?_temp_to_c_x100+3
  3417     0904                     l322:
  3418     0904  0008               	return
  3419     0905                     __end_of_temp_to_c_x100:
  3420                           
  3421                           	psect	text2
  3422     09D4                     __ptext2:	
  3423 ;; *************** function _mpu_init *****************
  3424 ;; Defined at:
  3425 ;;		line 212 in file "main.c"
  3426 ;; Parameters:    Size  Location     Type
  3427 ;;		None
  3428 ;; Auto vars:     Size  Location     Type
  3429 ;;  who             1    3[BANK0 ] unsigned char 
  3430 ;; Return value:  Size  Location     Type
  3431 ;;                  1    wreg      _Bool 
  3432 ;; Registers used:
  3433 ;;		wreg, fsr1l, fsr1h, status,2, status,0, pclath, cstack
  3434 ;; Tracked objects:
  3435 ;;		On entry : 0/0
  3436 ;;		On exit  : 0/0
  3437 ;;		Unchanged: 0/0
  3438 ;; Data sizes:     COMMON   BANK0   BANK1   BANK2   BANK3   BANK4   BANK5   BANK6   BANK7   BANK8   BANK9  BANK10  BANK1
      +1  BANK12  BANK13  BANK14  BANK15  BANK16  BANK17  BANK18  BANK19  BANK20  BANK21  BANK22  BANK23  BANK24  BANK25
  3439 ;;      Params:         0       0       0       0       0       0       0       0       0       0       0       0       
      +0       0       0       0       0       0       0       0       0       0       0       0       0       0       0
  3440 ;;      Locals:         0       1       0       0       0       0       0       0       0       0       0       0       
      +0       0       0       0       0       0       0       0       0       0       0       0       0       0       0
  3441 ;;      Temps:          0       1       0       0       0       0       0       0       0       0       0       0       
      +0       0       0       0       0       0       0       0       0       0       0       0       0       0       0
  3442 ;;      Totals:         0       2       0       0       0       0       0       0       0       0       0       0       
      +0       0       0       0       0       0       0       0       0       0       0       0       0       0       0
  3443 ;;Total ram usage:        2 bytes
  3444 ;; Hardware stack levels used: 1
  3445 ;; Hardware stack levels required when called: 5
  3446 ;; This function calls:
  3447 ;;		_mpu_read_reg
  3448 ;;		_mpu_write_reg
  3449 ;; This function is called by:
  3450 ;;		_main
  3451 ;; This function uses a non-reentrant model
  3452 ;;
  3453                           
  3454     09D4                     _mpu_init:	
  3455                           ;psect for function _mpu_init
  3456                           
  3457     09D4                     l2566:	
  3458                           ;incstack = 0
  3459                           ; Regs used in _mpu_init: [wreg+fsr1l+fsr1h+status,2+status,0+pclath+cstack]
  3460                           
  3461                           
  3462                           ;main.c: 214:     uint8_t who = 0;
  3463     09D4  0020               	movlb	0	; select bank0
  3464     09D5  01A3               	clrf	mpu_init@who
  3465     09D6                     l2568:
  3466                           
  3467                           ;main.c: 216:     if (!mpu_read_reg(0x75, &who))
  3468     09D6  3023               	movlw	(low (mpu_init@who| 0))& (0+255)
  3469     09D7  00A0               	movwf	mpu_read_reg@val
  3470     09D8  3075               	movlw	117
  3471     09D9  3195  2590  3189   	fcall	_mpu_read_reg
  3472     09DC  3A00               	xorlw	0
  3473     09DD  1D03               	skipz
  3474     09DE  29E0               	goto	u2311
  3475     09DF  29E1               	goto	u2310
  3476     09E0                     u2311:
  3477     09E0  29E3               	goto	l2574
  3478     09E1                     u2310:
  3479     09E1                     l2570:
  3480                           
  3481                           ;main.c: 217:         return 0;
  3482     09E1  3000               	movlw	0
  3483     09E2  2A47               	goto	l295
  3484     09E3                     l2574:
  3485                           
  3486                           ;main.c: 219:     if ((who & 0x7E) != 0x68)
  3487     09E3  307E               	movlw	126
  3488     09E4  0020               	movlb	0	; select bank0
  3489     09E5  0523               	andwf	mpu_init@who,w
  3490     09E6  00A2               	movwf	??_mpu_init
  3491     09E7  3068               	movlw	104
  3492     09E8  0622               	xorwf	??_mpu_init,w
  3493     09E9  1903               	btfsc	3,2
  3494     09EA  29EC               	goto	u2321
  3495     09EB  29ED               	goto	u2320
  3496     09EC                     u2321:
  3497     09EC  29EE               	goto	l2580
  3498     09ED                     u2320:
  3499     09ED  29E1               	goto	l2570
  3500     09EE                     l2580:
  3501                           
  3502                           ;main.c: 223:     if (!mpu_write_reg(0x6B, 0x01)) return 0;
  3503     09EE  01FB               	clrf	mpu_write_reg@val
  3504     09EF  0AFB               	incf	mpu_write_reg@val,f
  3505     09F0  306B               	movlw	107
  3506     09F1  3195  2541  3189   	fcall	_mpu_write_reg
  3507     09F4  3A00               	xorlw	0
  3508     09F5  1D03               	skipz
  3509     09F6  29F8               	goto	u2331
  3510     09F7  29F9               	goto	u2330
  3511     09F8                     u2331:
  3512     09F8  29FA               	goto	l2586
  3513     09F9                     u2330:
  3514     09F9  29E1               	goto	l2570
  3515     09FA                     l2586:
  3516                           
  3517                           ;main.c: 224:     _delay((unsigned long)((5)*(32000000/4000.0)));
  3518     09FA  3034               	movlw	52
  3519     09FB  0020               	movlb	0	; select bank0
  3520     09FC  00A2               	movwf	??_mpu_init
  3521     09FD  30F1               	movlw	241
  3522     09FE                     u2817:
  3523     09FE  0B89               	decfsz	9,f
  3524     09FF  29FE               	goto	u2817
  3525     0A00  0BA2               	decfsz	??_mpu_init,f
  3526     0A01  29FE               	goto	u2817
  3527     0A02  3200               	nop2
  3528     0A03                     l2588:
  3529                           
  3530                           ;main.c: 227:     if (!mpu_write_reg(0x1A, 0x03)) return 0;
  3531     0A03  3003               	movlw	3
  3532     0A04  00FB               	movwf	mpu_write_reg@val
  3533     0A05  301A               	movlw	26
  3534     0A06  3195  2541  3189   	fcall	_mpu_write_reg
  3535     0A09  3A00               	xorlw	0
  3536     0A0A  1D03               	skipz
  3537     0A0B  2A0D               	goto	u2341
  3538     0A0C  2A0E               	goto	u2340
  3539     0A0D                     u2341:
  3540     0A0D  2A0F               	goto	l2594
  3541     0A0E                     u2340:
  3542     0A0E  29E1               	goto	l2570
  3543     0A0F                     l2594:
  3544                           
  3545                           ;main.c: 230:     if (!mpu_write_reg(0x19, 9)) return 0;
  3546     0A0F  3009               	movlw	9
  3547     0A10  00FB               	movwf	mpu_write_reg@val
  3548     0A11  3019               	movlw	25
  3549     0A12  3195  2541  3189   	fcall	_mpu_write_reg
  3550     0A15  3A00               	xorlw	0
  3551     0A16  1D03               	skipz
  3552     0A17  2A19               	goto	u2351
  3553     0A18  2A1A               	goto	u2350
  3554     0A19                     u2351:
  3555     0A19  2A1B               	goto	l2600
  3556     0A1A                     u2350:
  3557     0A1A  29E1               	goto	l2570
  3558     0A1B                     l2600:
  3559                           
  3560                           ;main.c: 233:     if (!mpu_write_reg(0x1B, 0x00)) return 0;
  3561     0A1B  01FB               	clrf	mpu_write_reg@val
  3562     0A1C  301B               	movlw	27
  3563     0A1D  3195  2541  3189   	fcall	_mpu_write_reg
  3564     0A20  3A00               	xorlw	0
  3565     0A21  1D03               	skipz
  3566     0A22  2A24               	goto	u2361
  3567     0A23  2A25               	goto	u2360
  3568     0A24                     u2361:
  3569     0A24  2A26               	goto	l2606
  3570     0A25                     u2360:
  3571     0A25  29E1               	goto	l2570
  3572     0A26                     l2606:
  3573                           
  3574                           ;main.c: 236:     if (!mpu_write_reg(0x1C, 0x00)) return 0;
  3575     0A26  01FB               	clrf	mpu_write_reg@val
  3576     0A27  301C               	movlw	28
  3577     0A28  3195  2541  3189   	fcall	_mpu_write_reg
  3578     0A2B  3A00               	xorlw	0
  3579     0A2C  1D03               	skipz
  3580     0A2D  2A2F               	goto	u2371
  3581     0A2E  2A30               	goto	u2370
  3582     0A2F                     u2371:
  3583     0A2F  2A31               	goto	l2612
  3584     0A30                     u2370:
  3585     0A30  29E1               	goto	l2570
  3586     0A31                     l2612:
  3587                           
  3588                           ;main.c: 239:     mpu_write_reg(0x6A, 0x00);
  3589     0A31  01FB               	clrf	mpu_write_reg@val
  3590     0A32  306A               	movlw	106
  3591     0A33  3195  2541  3189   	fcall	_mpu_write_reg
  3592                           
  3593                           ;main.c: 240:     mpu_write_reg(0x23, 0x00);
  3594     0A36  01FB               	clrf	mpu_write_reg@val
  3595     0A37  3023               	movlw	35
  3596     0A38  3195  2541  3189   	fcall	_mpu_write_reg
  3597                           
  3598                           ;main.c: 241:     mpu_write_reg(0x37, 0x00);
  3599     0A3B  01FB               	clrf	mpu_write_reg@val
  3600     0A3C  3037               	movlw	55
  3601     0A3D  3195  2541  3189   	fcall	_mpu_write_reg
  3602                           
  3603                           ;main.c: 242:     mpu_write_reg(0x38, 0x01);
  3604     0A40  01FB               	clrf	mpu_write_reg@val
  3605     0A41  0AFB               	incf	mpu_write_reg@val,f
  3606     0A42  3038               	movlw	56
  3607     0A43  3195  2541  3189   	fcall	_mpu_write_reg
  3608     0A46                     l2614:
  3609                           
  3610                           ;main.c: 244:     return 1;
  3611     0A46  3001               	movlw	1
  3612     0A47                     l295:
  3613     0A47  0008               	return
  3614     0A48                     __end_of_mpu_init:
  3615                           
  3616                           	psect	text3
  3617     0D8F                     __ptext3:	
  3618 ;; *************** function _mpu_calibrate *****************
  3619 ;; Defined at:
  3620 ;;		line 306 in file "main.c"
  3621 ;; Parameters:    Size  Location     Type
  3622 ;;		None
  3623 ;; Auto vars:     Size  Location     Type
  3624 ;;  r              14   57[BANK0 ] struct .
  3625 ;;  i               1   56[BANK0 ] unsigned char 
  3626 ;;  i               2   52[BANK0 ] unsigned short 
  3627 ;;  sgz             4   48[BANK0 ] long 
  3628 ;;  sgy             4   44[BANK0 ] long 
  3629 ;;  sgx             4   40[BANK0 ] long 
  3630 ;;  saz             4   36[BANK0 ] long 
  3631 ;;  say             4   32[BANK0 ] long 
  3632 ;;  sax             4   28[BANK0 ] long 
  3633 ;;  good            2   54[BANK0 ] unsigned short 
  3634 ;; Return value:  Size  Location     Type
  3635 ;;                  1    wreg      _Bool 
  3636 ;; Registers used:
  3637 ;;		wreg, fsr1l, fsr1h, status,2, status,0, pclath, cstack
  3638 ;; Tracked objects:
  3639 ;;		On entry : 0/0
  3640 ;;		On exit  : 0/0
  3641 ;;		Unchanged: 0/0
  3642 ;; Data sizes:     COMMON   BANK0   BANK1   BANK2   BANK3   BANK4   BANK5   BANK6   BANK7   BANK8   BANK9  BANK10  BANK1
      +1  BANK12  BANK13  BANK14  BANK15  BANK16  BANK17  BANK18  BANK19  BANK20  BANK21  BANK22  BANK23  BANK24  BANK25
  3643 ;;      Params:         0       0       0       0       0       0       0       0       0       0       0       0       
      +0       0       0       0       0       0       0       0       0       0       0       0       0       0       0
  3644 ;;      Locals:         0      43       0       0       0       0       0       0       0       0       0       0       
      +0       0       0       0       0       0       0       0       0       0       0       0       0       0       0
  3645 ;;      Temps:          0       2       0       0       0       0       0       0       0       0       0       0       
      +0       0       0       0       0       0       0       0       0       0       0       0       0       0       0
  3646 ;;      Totals:         0      45       0       0       0       0       0       0       0       0       0       0       
      +0       0       0       0       0       0       0       0       0       0       0       0       0       0       0
  3647 ;;Total ram usage:       45 bytes
  3648 ;; Hardware stack levels used: 1
  3649 ;; Hardware stack levels required when called: 6
  3650 ;; This function calls:
  3651 ;;		___aldiv
  3652 ;;		_mpu_read_raw
  3653 ;;		_mpu_wait_data_ready
  3654 ;;		_mpu_write_reg
  3655 ;;		_raw_to_mdps
  3656 ;;		_raw_to_mg
  3657 ;; This function is called by:
  3658 ;;		_main
  3659 ;; This function uses a non-reentrant model
  3660 ;;
  3661                           
  3662     0D8F                     _mpu_calibrate:	
  3663                           ;psect for function _mpu_calibrate
  3664                           
  3665     0D8F                     l2628:	
  3666                           ;incstack = 0
  3667                           ; Regs used in _mpu_calibrate: [wreg+fsr1l+fsr1h+status,2+status,0+pclath+cstack]
  3668                           
  3669                           
  3670                           ;main.c: 308:     int32_t sax = 0, say = 0, saz = 0;
  3671     0D8F  3000               	movlw	0
  3672     0D90  0020               	movlb	0	; select bank0
  3673     0D91  00BF               	movwf	mpu_calibrate@sax+3
  3674     0D92  3000               	movlw	0
  3675     0D93  00BE               	movwf	mpu_calibrate@sax+2
  3676     0D94  3000               	movlw	0
  3677     0D95  00BD               	movwf	mpu_calibrate@sax+1
  3678     0D96  3000               	movlw	0
  3679     0D97  00BC               	movwf	mpu_calibrate@sax
  3680     0D98  3000               	movlw	0
  3681     0D99  00C3               	movwf	mpu_calibrate@say+3
  3682     0D9A  3000               	movlw	0
  3683     0D9B  00C2               	movwf	mpu_calibrate@say+2
  3684     0D9C  3000               	movlw	0
  3685     0D9D  00C1               	movwf	mpu_calibrate@say+1
  3686     0D9E  3000               	movlw	0
  3687     0D9F  00C0               	movwf	mpu_calibrate@say
  3688     0DA0  3000               	movlw	0
  3689     0DA1  00C7               	movwf	mpu_calibrate@saz+3
  3690     0DA2  3000               	movlw	0
  3691     0DA3  00C6               	movwf	mpu_calibrate@saz+2
  3692     0DA4  3000               	movlw	0
  3693     0DA5  00C5               	movwf	mpu_calibrate@saz+1
  3694     0DA6  3000               	movlw	0
  3695     0DA7  00C4               	movwf	mpu_calibrate@saz
  3696                           
  3697                           ;main.c: 309:     int32_t sgx = 0, sgy = 0, sgz = 0;
  3698     0DA8  3000               	movlw	0
  3699     0DA9  00CB               	movwf	mpu_calibrate@sgx+3
  3700     0DAA  3000               	movlw	0
  3701     0DAB  00CA               	movwf	mpu_calibrate@sgx+2
  3702     0DAC  3000               	movlw	0
  3703     0DAD  00C9               	movwf	mpu_calibrate@sgx+1
  3704     0DAE  3000               	movlw	0
  3705     0DAF  00C8               	movwf	mpu_calibrate@sgx
  3706     0DB0  3000               	movlw	0
  3707     0DB1  00CF               	movwf	mpu_calibrate@sgy+3
  3708     0DB2  3000               	movlw	0
  3709     0DB3  00CE               	movwf	mpu_calibrate@sgy+2
  3710     0DB4  3000               	movlw	0
  3711     0DB5  00CD               	movwf	mpu_calibrate@sgy+1
  3712     0DB6  3000               	movlw	0
  3713     0DB7  00CC               	movwf	mpu_calibrate@sgy
  3714     0DB8  3000               	movlw	0
  3715     0DB9  00D3               	movwf	mpu_calibrate@sgz+3
  3716     0DBA  3000               	movlw	0
  3717     0DBB  00D2               	movwf	mpu_calibrate@sgz+2
  3718     0DBC  3000               	movlw	0
  3719     0DBD  00D1               	movwf	mpu_calibrate@sgz+1
  3720     0DBE  3000               	movlw	0
  3721     0DBF  00D0               	movwf	mpu_calibrate@sgz
  3722     0DC0                     l2630:
  3723                           
  3724                           ;main.c: 310:     uint16_t good = 0;
  3725     0DC0  01D6               	clrf	mpu_calibrate@good
  3726     0DC1  01D7               	clrf	mpu_calibrate@good+1
  3727     0DC2                     l2632:
  3728                           
  3729                           ;main.c: 313:     mpu_write_reg(0x1A, 0x06);
  3730     0DC2  3006               	movlw	6
  3731     0DC3  00FB               	movwf	mpu_write_reg@val
  3732     0DC4  301A               	movlw	26
  3733     0DC5  3195  2541  318D   	fcall	_mpu_write_reg
  3734     0DC8                     l2634:
  3735                           
  3736                           ;main.c: 314:     _delay((unsigned long)((50)*(32000000/4000.0)));
  3737     0DC8  3003               	movlw	3
  3738     0DC9  0020               	movlb	0	; select bank0
  3739     0DCA  00BB               	movwf	??_mpu_calibrate+1
  3740     0DCB  3008               	movlw	8
  3741     0DCC  00BA               	movwf	??_mpu_calibrate
  3742     0DCD  3077               	movlw	119
  3743     0DCE                     u2827:
  3744     0DCE  0B89               	decfsz	9,f
  3745     0DCF  2DCE               	goto	u2827
  3746     0DD0  0BBA               	decfsz	??_mpu_calibrate,f
  3747     0DD1  2DCE               	goto	u2827
  3748     0DD2  0BBB               	decfsz	??_mpu_calibrate+1,f
  3749     0DD3  2DCE               	goto	u2827
  3750     0DD4                     l2636:
  3751                           
  3752                           ;main.c: 316:     for (uint16_t i = 0; i < 200; i++)
  3753     0DD4  0020               	movlb	0	; select bank0
  3754     0DD5  01D4               	clrf	mpu_calibrate@i
  3755     0DD6  01D5               	clrf	mpu_calibrate@i+1
  3756     0DD7                     l2642:
  3757                           
  3758                           ;main.c: 317:     {;main.c: 318:         if (!mpu_wait_data_ready(20)) continue;
  3759     0DD7  3014               	movlw	20
  3760     0DD8  00A2               	movwf	mpu_wait_data_ready@timeout_ms
  3761     0DD9  3000               	movlw	0
  3762     0DDA  00A3               	movwf	mpu_wait_data_ready@timeout_ms+1
  3763     0DDB  3188  2058  318D   	fcall	_mpu_wait_data_ready
  3764     0DDE  3A00               	xorlw	0
  3765     0DDF  1D03               	skipz
  3766     0DE0  2DE2               	goto	u2391
  3767     0DE1  2DE3               	goto	u2390
  3768     0DE2                     u2391:
  3769     0DE2  2DE4               	goto	l2646
  3770     0DE3                     u2390:
  3771     0DE3  2E5B               	goto	l2654
  3772     0DE4                     l2646:
  3773                           
  3774                           ;main.c: 320:         mpu_raw_t r;;main.c: 321:         if (mpu_read_raw(&r))
  3775     0DE4  3059               	movlw	(low (mpu_calibrate@r| 0))& (0+255)
  3776     0DE5  3189  2169  318D   	fcall	_mpu_read_raw
  3777     0DE8  3A00               	xorlw	0
  3778     0DE9  1903               	skipnz
  3779     0DEA  2DEC               	goto	u2401
  3780     0DEB  2DED               	goto	u2400
  3781     0DEC                     u2401:
  3782     0DEC  2E52               	goto	l2652
  3783     0DED                     u2400:
  3784     0DED                     l2648:
  3785                           
  3786                           ;main.c: 322:         {;main.c: 323:             sax += raw_to_mg(r.ax);
  3787     0DED  0020               	movlb	0	; select bank0
  3788     0DEE  085A               	movf	mpu_calibrate@r+1,w
  3789     0DEF  00AF               	movwf	raw_to_mg@r+1
  3790     0DF0  0859               	movf	mpu_calibrate@r,w
  3791     0DF1  00AE               	movwf	raw_to_mg@r
  3792     0DF2  3188  2004  318D   	fcall	_raw_to_mg
  3793     0DF5  0020               	movlb	0	; select bank0
  3794     0DF6  082E               	movf	?_raw_to_mg,w
  3795     0DF7  07BC               	addwf	mpu_calibrate@sax,f
  3796     0DF8  082F               	movf	?_raw_to_mg+1,w
  3797     0DF9  3DBD               	addwfc	mpu_calibrate@sax+1,f
  3798     0DFA  0830               	movf	?_raw_to_mg+2,w
  3799     0DFB  3DBE               	addwfc	mpu_calibrate@sax+2,f
  3800     0DFC  0831               	movf	?_raw_to_mg+3,w
  3801     0DFD  3DBF               	addwfc	mpu_calibrate@sax+3,f
  3802                           
  3803                           ;main.c: 324:             say += raw_to_mg(r.ay);
  3804     0DFE  085C               	movf	mpu_calibrate@r+3,w
  3805     0DFF  00AF               	movwf	raw_to_mg@r+1
  3806     0E00  085B               	movf	mpu_calibrate@r+2,w
  3807     0E01  00AE               	movwf	raw_to_mg@r
  3808     0E02  3188  2004  318D   	fcall	_raw_to_mg
  3809     0E05  0020               	movlb	0	; select bank0
  3810     0E06  082E               	movf	?_raw_to_mg,w
  3811     0E07  07C0               	addwf	mpu_calibrate@say,f
  3812     0E08  082F               	movf	?_raw_to_mg+1,w
  3813     0E09  3DC1               	addwfc	mpu_calibrate@say+1,f
  3814     0E0A  0830               	movf	?_raw_to_mg+2,w
  3815     0E0B  3DC2               	addwfc	mpu_calibrate@say+2,f
  3816     0E0C  0831               	movf	?_raw_to_mg+3,w
  3817     0E0D  3DC3               	addwfc	mpu_calibrate@say+3,f
  3818                           
  3819                           ;main.c: 325:             saz += raw_to_mg(r.az);
  3820     0E0E  085E               	movf	mpu_calibrate@r+5,w
  3821     0E0F  00AF               	movwf	raw_to_mg@r+1
  3822     0E10  085D               	movf	mpu_calibrate@r+4,w
  3823     0E11  00AE               	movwf	raw_to_mg@r
  3824     0E12  3188  2004  318D   	fcall	_raw_to_mg
  3825     0E15  0020               	movlb	0	; select bank0
  3826     0E16  082E               	movf	?_raw_to_mg,w
  3827     0E17  07C4               	addwf	mpu_calibrate@saz,f
  3828     0E18  082F               	movf	?_raw_to_mg+1,w
  3829     0E19  3DC5               	addwfc	mpu_calibrate@saz+1,f
  3830     0E1A  0830               	movf	?_raw_to_mg+2,w
  3831     0E1B  3DC6               	addwfc	mpu_calibrate@saz+2,f
  3832     0E1C  0831               	movf	?_raw_to_mg+3,w
  3833     0E1D  3DC7               	addwfc	mpu_calibrate@saz+3,f
  3834                           
  3835                           ;main.c: 326:             sgx += raw_to_mdps(r.gx);
  3836     0E1E  0862               	movf	mpu_calibrate@r+9,w
  3837     0E1F  00AF               	movwf	raw_to_mdps@r+1
  3838     0E20  0861               	movf	mpu_calibrate@r+8,w
  3839     0E21  00AE               	movwf	raw_to_mdps@r
  3840     0E22  3197  27AC  318D   	fcall	_raw_to_mdps
  3841     0E25  0020               	movlb	0	; select bank0
  3842     0E26  082E               	movf	?_raw_to_mdps,w
  3843     0E27  07C8               	addwf	mpu_calibrate@sgx,f
  3844     0E28  082F               	movf	?_raw_to_mdps+1,w
  3845     0E29  3DC9               	addwfc	mpu_calibrate@sgx+1,f
  3846     0E2A  0830               	movf	?_raw_to_mdps+2,w
  3847     0E2B  3DCA               	addwfc	mpu_calibrate@sgx+2,f
  3848     0E2C  0831               	movf	?_raw_to_mdps+3,w
  3849     0E2D  3DCB               	addwfc	mpu_calibrate@sgx+3,f
  3850                           
  3851                           ;main.c: 327:             sgy += raw_to_mdps(r.gy);
  3852     0E2E  0864               	movf	mpu_calibrate@r+11,w
  3853     0E2F  00AF               	movwf	raw_to_mdps@r+1
  3854     0E30  0863               	movf	mpu_calibrate@r+10,w
  3855     0E31  00AE               	movwf	raw_to_mdps@r
  3856     0E32  3197  27AC  318D   	fcall	_raw_to_mdps
  3857     0E35  0020               	movlb	0	; select bank0
  3858     0E36  082E               	movf	?_raw_to_mdps,w
  3859     0E37  07CC               	addwf	mpu_calibrate@sgy,f
  3860     0E38  082F               	movf	?_raw_to_mdps+1,w
  3861     0E39  3DCD               	addwfc	mpu_calibrate@sgy+1,f
  3862     0E3A  0830               	movf	?_raw_to_mdps+2,w
  3863     0E3B  3DCE               	addwfc	mpu_calibrate@sgy+2,f
  3864     0E3C  0831               	movf	?_raw_to_mdps+3,w
  3865     0E3D  3DCF               	addwfc	mpu_calibrate@sgy+3,f
  3866                           
  3867                           ;main.c: 328:             sgz += raw_to_mdps(r.gz);
  3868     0E3E  0866               	movf	mpu_calibrate@r+13,w
  3869     0E3F  00AF               	movwf	raw_to_mdps@r+1
  3870     0E40  0865               	movf	mpu_calibrate@r+12,w
  3871     0E41  00AE               	movwf	raw_to_mdps@r
  3872     0E42  3197  27AC  318D   	fcall	_raw_to_mdps
  3873     0E45  0020               	movlb	0	; select bank0
  3874     0E46  082E               	movf	?_raw_to_mdps,w
  3875     0E47  07D0               	addwf	mpu_calibrate@sgz,f
  3876     0E48  082F               	movf	?_raw_to_mdps+1,w
  3877     0E49  3DD1               	addwfc	mpu_calibrate@sgz+1,f
  3878     0E4A  0830               	movf	?_raw_to_mdps+2,w
  3879     0E4B  3DD2               	addwfc	mpu_calibrate@sgz+2,f
  3880     0E4C  0831               	movf	?_raw_to_mdps+3,w
  3881     0E4D  3DD3               	addwfc	mpu_calibrate@sgz+3,f
  3882     0E4E                     l2650:
  3883                           
  3884                           ;main.c: 329:             good++;
  3885     0E4E  3001               	movlw	1
  3886     0E4F  07D6               	addwf	mpu_calibrate@good,f
  3887     0E50  3000               	movlw	0
  3888     0E51  3DD7               	addwfc	mpu_calibrate@good+1,f
  3889     0E52                     l2652:
  3890                           
  3891                           ;main.c: 331:         _delay((unsigned long)((5)*(32000000/4000.0)));
  3892     0E52  3034               	movlw	52
  3893     0E53  0020               	movlb	0	; select bank0
  3894     0E54  00BA               	movwf	??_mpu_calibrate
  3895     0E55  30F1               	movlw	241
  3896     0E56                     u2837:
  3897     0E56  0B89               	decfsz	9,f
  3898     0E57  2E56               	goto	u2837
  3899     0E58  0BBA               	decfsz	??_mpu_calibrate,f
  3900     0E59  2E56               	goto	u2837
  3901     0E5A  3200               	nop2
  3902     0E5B                     l2654:
  3903     0E5B  3001               	movlw	1
  3904     0E5C  0020               	movlb	0	; select bank0
  3905     0E5D  07D4               	addwf	mpu_calibrate@i,f
  3906     0E5E  3000               	movlw	0
  3907     0E5F  3DD5               	addwfc	mpu_calibrate@i+1,f
  3908     0E60                     l2656:
  3909     0E60  3000               	movlw	0
  3910     0E61  0255               	subwf	mpu_calibrate@i+1,w
  3911     0E62  30C8               	movlw	200
  3912     0E63  1903               	skipnz
  3913     0E64  0254               	subwf	mpu_calibrate@i,w
  3914     0E65  1C03               	skipc
  3915     0E66  2E68               	goto	u2411
  3916     0E67  2E69               	goto	u2410
  3917     0E68                     u2411:
  3918     0E68  2DD7               	goto	l2642
  3919     0E69                     u2410:
  3920     0E69                     l2658:
  3921                           
  3922                           ;main.c: 334:     if (good < 50) return 0;
  3923     0E69  3000               	movlw	0
  3924     0E6A  0257               	subwf	mpu_calibrate@good+1,w
  3925     0E6B  3032               	movlw	50
  3926     0E6C  1903               	skipnz
  3927     0E6D  0256               	subwf	mpu_calibrate@good,w
  3928     0E6E  1803               	skipnc
  3929     0E6F  2E71               	goto	u2421
  3930     0E70  2E72               	goto	u2420
  3931     0E71                     u2421:
  3932     0E71  2E74               	goto	l2664
  3933     0E72                     u2420:
  3934     0E72                     l2660:
  3935     0E72  3000               	movlw	0
  3936     0E73  2FFF               	goto	l375
  3937     0E74                     l2664:
  3938                           
  3939                           ;main.c: 336:     g_ax_off_mg = sax / (int32_t)good;
  3940     0E74  0856               	movf	mpu_calibrate@good,w
  3941     0E75  00A0               	movwf	___aldiv@divisor
  3942     0E76  0857               	movf	mpu_calibrate@good+1,w
  3943     0E77  00A1               	movwf	___aldiv@divisor+1
  3944     0E78  01A2               	clrf	___aldiv@divisor+2
  3945     0E79  01A3               	clrf	___aldiv@divisor+3
  3946     0E7A  083F               	movf	mpu_calibrate@sax+3,w
  3947     0E7B  00A7               	movwf	___aldiv@dividend+3
  3948     0E7C  083E               	movf	mpu_calibrate@sax+2,w
  3949     0E7D  00A6               	movwf	___aldiv@dividend+2
  3950     0E7E  083D               	movf	mpu_calibrate@sax+1,w
  3951     0E7F  00A5               	movwf	___aldiv@dividend+1
  3952     0E80  083C               	movf	mpu_calibrate@sax,w
  3953     0E81  00A4               	movwf	___aldiv@dividend
  3954     0E82  318B  23C5  318D   	fcall	___aldiv
  3955     0E85  0020               	movlb	0	; select bank0
  3956     0E86  0823               	movf	?___aldiv+3,w
  3957     0E87  0021               	movlb	1	; select bank1
  3958     0E88  00CB               	movwf	(_g_ax_off_mg+3)^(0+128)
  3959     0E89  0020               	movlb	0	; select bank0
  3960     0E8A  0822               	movf	?___aldiv+2,w
  3961     0E8B  0021               	movlb	1	; select bank1
  3962     0E8C  00CA               	movwf	(_g_ax_off_mg+2)^(0+128)
  3963     0E8D  0020               	movlb	0	; select bank0
  3964     0E8E  0821               	movf	?___aldiv+1,w
  3965     0E8F  0021               	movlb	1	; select bank1
  3966     0E90  00C9               	movwf	(_g_ax_off_mg+1)^(0+128)
  3967     0E91  0020               	movlb	0	; select bank0
  3968     0E92  0820               	movf	?___aldiv,w
  3969     0E93  0021               	movlb	1	; select bank1
  3970     0E94  00C8               	movwf	_g_ax_off_mg^(0+128)
  3971                           
  3972                           ;main.c: 337:     g_ay_off_mg = say / (int32_t)good;
  3973     0E95  0020               	movlb	0	; select bank0
  3974     0E96  0856               	movf	mpu_calibrate@good,w
  3975     0E97  00A0               	movwf	___aldiv@divisor
  3976     0E98  0857               	movf	mpu_calibrate@good+1,w
  3977     0E99  00A1               	movwf	___aldiv@divisor+1
  3978     0E9A  01A2               	clrf	___aldiv@divisor+2
  3979     0E9B  01A3               	clrf	___aldiv@divisor+3
  3980     0E9C  0843               	movf	mpu_calibrate@say+3,w
  3981     0E9D  00A7               	movwf	___aldiv@dividend+3
  3982     0E9E  0842               	movf	mpu_calibrate@say+2,w
  3983     0E9F  00A6               	movwf	___aldiv@dividend+2
  3984     0EA0  0841               	movf	mpu_calibrate@say+1,w
  3985     0EA1  00A5               	movwf	___aldiv@dividend+1
  3986     0EA2  0840               	movf	mpu_calibrate@say,w
  3987     0EA3  00A4               	movwf	___aldiv@dividend
  3988     0EA4  318B  23C5  318D   	fcall	___aldiv
  3989     0EA7  0020               	movlb	0	; select bank0
  3990     0EA8  0823               	movf	?___aldiv+3,w
  3991     0EA9  0021               	movlb	1	; select bank1
  3992     0EAA  00C7               	movwf	(_g_ay_off_mg+3)^(0+128)
  3993     0EAB  0020               	movlb	0	; select bank0
  3994     0EAC  0822               	movf	?___aldiv+2,w
  3995     0EAD  0021               	movlb	1	; select bank1
  3996     0EAE  00C6               	movwf	(_g_ay_off_mg+2)^(0+128)
  3997     0EAF  0020               	movlb	0	; select bank0
  3998     0EB0  0821               	movf	?___aldiv+1,w
  3999     0EB1  0021               	movlb	1	; select bank1
  4000     0EB2  00C5               	movwf	(_g_ay_off_mg+1)^(0+128)
  4001     0EB3  0020               	movlb	0	; select bank0
  4002     0EB4  0820               	movf	?___aldiv,w
  4003     0EB5  0021               	movlb	1	; select bank1
  4004     0EB6  00C4               	movwf	_g_ay_off_mg^(0+128)
  4005                           
  4006                           ;main.c: 338:     g_az_off_mg = saz / (int32_t)good - 1000;
  4007     0EB7  0020               	movlb	0	; select bank0
  4008     0EB8  0856               	movf	mpu_calibrate@good,w
  4009     0EB9  00A0               	movwf	___aldiv@divisor
  4010     0EBA  0857               	movf	mpu_calibrate@good+1,w
  4011     0EBB  00A1               	movwf	___aldiv@divisor+1
  4012     0EBC  01A2               	clrf	___aldiv@divisor+2
  4013     0EBD  01A3               	clrf	___aldiv@divisor+3
  4014     0EBE  0847               	movf	mpu_calibrate@saz+3,w
  4015     0EBF  00A7               	movwf	___aldiv@dividend+3
  4016     0EC0  0846               	movf	mpu_calibrate@saz+2,w
  4017     0EC1  00A6               	movwf	___aldiv@dividend+2
  4018     0EC2  0845               	movf	mpu_calibrate@saz+1,w
  4019     0EC3  00A5               	movwf	___aldiv@dividend+1
  4020     0EC4  0844               	movf	mpu_calibrate@saz,w
  4021     0EC5  00A4               	movwf	___aldiv@dividend
  4022     0EC6  318B  23C5  318D   	fcall	___aldiv
  4023     0EC9  3018               	movlw	24
  4024     0ECA  0020               	movlb	0	; select bank0
  4025     0ECB  0720               	addwf	?___aldiv,w
  4026     0ECC  0021               	movlb	1	; select bank1
  4027     0ECD  00C0               	movwf	_g_az_off_mg^(0+128)
  4028     0ECE  30FC               	movlw	252
  4029     0ECF  0020               	movlb	0	; select bank0
  4030     0ED0  3D21               	addwfc	?___aldiv+1,w
  4031     0ED1  0021               	movlb	1	; select bank1
  4032     0ED2  00C1               	movwf	(_g_az_off_mg+1)^(0+128)
  4033     0ED3  30FF               	movlw	255
  4034     0ED4  0020               	movlb	0	; select bank0
  4035     0ED5  3D22               	addwfc	?___aldiv+2,w
  4036     0ED6  0021               	movlb	1	; select bank1
  4037     0ED7  00C2               	movwf	(_g_az_off_mg+2)^(0+128)
  4038     0ED8  30FF               	movlw	255
  4039     0ED9  0020               	movlb	0	; select bank0
  4040     0EDA  3D23               	addwfc	?___aldiv+3,w
  4041     0EDB  0021               	movlb	1	; select bank1
  4042     0EDC  00C3               	movwf	(_g_az_off_mg+3)^(0+128)
  4043                           
  4044                           ;main.c: 340:     g_gx_off_mdps = sgx / (int32_t)good;
  4045     0EDD  0020               	movlb	0	; select bank0
  4046     0EDE  0856               	movf	mpu_calibrate@good,w
  4047     0EDF  00A0               	movwf	___aldiv@divisor
  4048     0EE0  0857               	movf	mpu_calibrate@good+1,w
  4049     0EE1  00A1               	movwf	___aldiv@divisor+1
  4050     0EE2  01A2               	clrf	___aldiv@divisor+2
  4051     0EE3  01A3               	clrf	___aldiv@divisor+3
  4052     0EE4  084B               	movf	mpu_calibrate@sgx+3,w
  4053     0EE5  00A7               	movwf	___aldiv@dividend+3
  4054     0EE6  084A               	movf	mpu_calibrate@sgx+2,w
  4055     0EE7  00A6               	movwf	___aldiv@dividend+2
  4056     0EE8  0849               	movf	mpu_calibrate@sgx+1,w
  4057     0EE9  00A5               	movwf	___aldiv@dividend+1
  4058     0EEA  0848               	movf	mpu_calibrate@sgx,w
  4059     0EEB  00A4               	movwf	___aldiv@dividend
  4060     0EEC  318B  23C5  318D   	fcall	___aldiv
  4061     0EEF  0020               	movlb	0	; select bank0
  4062     0EF0  0823               	movf	?___aldiv+3,w
  4063     0EF1  0021               	movlb	1	; select bank1
  4064     0EF2  00BF               	movwf	(_g_gx_off_mdps+3)^(0+128)
  4065     0EF3  0020               	movlb	0	; select bank0
  4066     0EF4  0822               	movf	?___aldiv+2,w
  4067     0EF5  0021               	movlb	1	; select bank1
  4068     0EF6  00BE               	movwf	(_g_gx_off_mdps+2)^(0+128)
  4069     0EF7  0020               	movlb	0	; select bank0
  4070     0EF8  0821               	movf	?___aldiv+1,w
  4071     0EF9  0021               	movlb	1	; select bank1
  4072     0EFA  00BD               	movwf	(_g_gx_off_mdps+1)^(0+128)
  4073     0EFB  0020               	movlb	0	; select bank0
  4074     0EFC  0820               	movf	?___aldiv,w
  4075     0EFD  0021               	movlb	1	; select bank1
  4076     0EFE  00BC               	movwf	_g_gx_off_mdps^(0+128)
  4077                           
  4078                           ;main.c: 341:     g_gy_off_mdps = sgy / (int32_t)good;
  4079     0EFF  0020               	movlb	0	; select bank0
  4080     0F00  0856               	movf	mpu_calibrate@good,w
  4081     0F01  00A0               	movwf	___aldiv@divisor
  4082     0F02  0857               	movf	mpu_calibrate@good+1,w
  4083     0F03  00A1               	movwf	___aldiv@divisor+1
  4084     0F04  01A2               	clrf	___aldiv@divisor+2
  4085     0F05  01A3               	clrf	___aldiv@divisor+3
  4086     0F06  084F               	movf	mpu_calibrate@sgy+3,w
  4087     0F07  00A7               	movwf	___aldiv@dividend+3
  4088     0F08  084E               	movf	mpu_calibrate@sgy+2,w
  4089     0F09  00A6               	movwf	___aldiv@dividend+2
  4090     0F0A  084D               	movf	mpu_calibrate@sgy+1,w
  4091     0F0B  00A5               	movwf	___aldiv@dividend+1
  4092     0F0C  084C               	movf	mpu_calibrate@sgy,w
  4093     0F0D  00A4               	movwf	___aldiv@dividend
  4094     0F0E  318B  23C5  318D   	fcall	___aldiv
  4095     0F11  0020               	movlb	0	; select bank0
  4096     0F12  0823               	movf	?___aldiv+3,w
  4097     0F13  0021               	movlb	1	; select bank1
  4098     0F14  00BB               	movwf	(_g_gy_off_mdps+3)^(0+128)
  4099     0F15  0020               	movlb	0	; select bank0
  4100     0F16  0822               	movf	?___aldiv+2,w
  4101     0F17  0021               	movlb	1	; select bank1
  4102     0F18  00BA               	movwf	(_g_gy_off_mdps+2)^(0+128)
  4103     0F19  0020               	movlb	0	; select bank0
  4104     0F1A  0821               	movf	?___aldiv+1,w
  4105     0F1B  0021               	movlb	1	; select bank1
  4106     0F1C  00B9               	movwf	(_g_gy_off_mdps+1)^(0+128)
  4107     0F1D  0020               	movlb	0	; select bank0
  4108     0F1E  0820               	movf	?___aldiv,w
  4109     0F1F  0021               	movlb	1	; select bank1
  4110     0F20  00B8               	movwf	_g_gy_off_mdps^(0+128)
  4111                           
  4112                           ;main.c: 342:     g_gz_off_mdps = sgz / (int32_t)good;
  4113     0F21  0020               	movlb	0	; select bank0
  4114     0F22  0856               	movf	mpu_calibrate@good,w
  4115     0F23  00A0               	movwf	___aldiv@divisor
  4116     0F24  0857               	movf	mpu_calibrate@good+1,w
  4117     0F25  00A1               	movwf	___aldiv@divisor+1
  4118     0F26  01A2               	clrf	___aldiv@divisor+2
  4119     0F27  01A3               	clrf	___aldiv@divisor+3
  4120     0F28  0853               	movf	mpu_calibrate@sgz+3,w
  4121     0F29  00A7               	movwf	___aldiv@dividend+3
  4122     0F2A  0852               	movf	mpu_calibrate@sgz+2,w
  4123     0F2B  00A6               	movwf	___aldiv@dividend+2
  4124     0F2C  0851               	movf	mpu_calibrate@sgz+1,w
  4125     0F2D  00A5               	movwf	___aldiv@dividend+1
  4126     0F2E  0850               	movf	mpu_calibrate@sgz,w
  4127     0F2F  00A4               	movwf	___aldiv@dividend
  4128     0F30  318B  23C5  318D   	fcall	___aldiv
  4129     0F33  0020               	movlb	0	; select bank0
  4130     0F34  0823               	movf	?___aldiv+3,w
  4131     0F35  0021               	movlb	1	; select bank1
  4132     0F36  00B7               	movwf	(_g_gz_off_mdps+3)^(0+128)
  4133     0F37  0020               	movlb	0	; select bank0
  4134     0F38  0822               	movf	?___aldiv+2,w
  4135     0F39  0021               	movlb	1	; select bank1
  4136     0F3A  00B6               	movwf	(_g_gz_off_mdps+2)^(0+128)
  4137     0F3B  0020               	movlb	0	; select bank0
  4138     0F3C  0821               	movf	?___aldiv+1,w
  4139     0F3D  0021               	movlb	1	; select bank1
  4140     0F3E  00B5               	movwf	(_g_gz_off_mdps+1)^(0+128)
  4141     0F3F  0020               	movlb	0	; select bank0
  4142     0F40  0820               	movf	?___aldiv,w
  4143     0F41  0021               	movlb	1	; select bank1
  4144     0F42  00B4               	movwf	_g_gz_off_mdps^(0+128)
  4145     0F43                     l2666:
  4146                           
  4147                           ;main.c: 345:     mpu_write_reg(0x1A, 0x03);
  4148     0F43  3003               	movlw	3
  4149     0F44  00FB               	movwf	mpu_write_reg@val
  4150     0F45  301A               	movlw	26
  4151     0F46  3195  2541  318D   	fcall	_mpu_write_reg
  4152     0F49                     l2668:
  4153                           
  4154                           ;main.c: 346:     _delay((unsigned long)((10)*(32000000/4000.0)));
  4155     0F49  3068               	movlw	104
  4156     0F4A  0020               	movlb	0	; select bank0
  4157     0F4B  00BA               	movwf	??_mpu_calibrate
  4158     0F4C  30E4               	movlw	228
  4159     0F4D                     u2847:
  4160     0F4D  0B89               	decfsz	9,f
  4161     0F4E  2F4D               	goto	u2847
  4162     0F4F  0BBA               	decfsz	??_mpu_calibrate,f
  4163     0F50  2F4D               	goto	u2847
  4164     0F51  0000               	nop
  4165     0F52                     l2670:
  4166                           
  4167                           ;main.c: 348:     s_ax = 0; s_ay = 0; s_az = 1000;
  4168     0F52  3000               	movlw	0
  4169     0F53  0021               	movlb	1	; select bank1
  4170     0F54  00B3               	movwf	(_s_ax+3)^(0+128)
  4171     0F55  3000               	movlw	0
  4172     0F56  00B2               	movwf	(_s_ax+2)^(0+128)
  4173     0F57  3000               	movlw	0
  4174     0F58  00B1               	movwf	(_s_ax+1)^(0+128)
  4175     0F59  3000               	movlw	0
  4176     0F5A  00B0               	movwf	_s_ax^(0+128)
  4177     0F5B                     l2672:
  4178     0F5B  3000               	movlw	0
  4179     0F5C  00AF               	movwf	(_s_ay+3)^(0+128)
  4180     0F5D  3000               	movlw	0
  4181     0F5E  00AE               	movwf	(_s_ay+2)^(0+128)
  4182     0F5F  3000               	movlw	0
  4183     0F60  00AD               	movwf	(_s_ay+1)^(0+128)
  4184     0F61  3000               	movlw	0
  4185     0F62  00AC               	movwf	_s_ay^(0+128)
  4186     0F63                     l2674:
  4187     0F63  3000               	movlw	0
  4188     0F64  00AB               	movwf	(_s_az+3)^(0+128)
  4189     0F65  3000               	movlw	0
  4190     0F66  00AA               	movwf	(_s_az+2)^(0+128)
  4191     0F67  3003               	movlw	3
  4192     0F68  00A9               	movwf	(_s_az+1)^(0+128)
  4193     0F69  30E8               	movlw	232
  4194     0F6A  00A8               	movwf	_s_az^(0+128)
  4195     0F6B                     l2676:
  4196                           
  4197                           ;main.c: 349:     s_gx = 0; s_gy = 0; s_gz = 0;
  4198     0F6B  3000               	movlw	0
  4199     0F6C  00A7               	movwf	(_s_gx+3)^(0+128)
  4200     0F6D  3000               	movlw	0
  4201     0F6E  00A6               	movwf	(_s_gx+2)^(0+128)
  4202     0F6F  3000               	movlw	0
  4203     0F70  00A5               	movwf	(_s_gx+1)^(0+128)
  4204     0F71  3000               	movlw	0
  4205     0F72  00A4               	movwf	_s_gx^(0+128)
  4206     0F73                     l2678:
  4207     0F73  3000               	movlw	0
  4208     0F74  00A3               	movwf	(_s_gy+3)^(0+128)
  4209     0F75  3000               	movlw	0
  4210     0F76  00A2               	movwf	(_s_gy+2)^(0+128)
  4211     0F77  3000               	movlw	0
  4212     0F78  00A1               	movwf	(_s_gy+1)^(0+128)
  4213     0F79  3000               	movlw	0
  4214     0F7A  00A0               	movwf	_s_gy^(0+128)
  4215     0F7B                     l2680:
  4216     0F7B  3000               	movlw	0
  4217     0F7C  0022               	movlb	2	; select bank2
  4218     0F7D  00D3               	movwf	(_s_gz+3)^(0+256)
  4219     0F7E  3000               	movlw	0
  4220     0F7F  00D2               	movwf	(_s_gz+2)^(0+256)
  4221     0F80  3000               	movlw	0
  4222     0F81  00D1               	movwf	(_s_gz+1)^(0+256)
  4223     0F82  3000               	movlw	0
  4224     0F83  00D0               	movwf	_s_gz^(0+256)
  4225     0F84                     l2682:
  4226                           
  4227                           ;main.c: 350:     filter_initialized = 0;
  4228     0F84  0021               	movlb	1	; select bank1
  4229     0F85  01D2               	clrf	_filter_initialized^(0+128)
  4230     0F86                     l2684:
  4231                           
  4232                           ;main.c: 352:     for (uint8_t i = 0; i < 2; i++)
  4233     0F86  0020               	movlb	0	; select bank0
  4234     0F87  01D8               	clrf	mpu_calibrate@i_687
  4235     0F88                     l2690:
  4236                           
  4237                           ;main.c: 353:     {;main.c: 354:         ax_hist[i] = 0; ay_hist[i] = 0; az_hist[i] = 0;
  4238     0F88  0858               	movf	mpu_calibrate@i_687,w
  4239     0F89  00BA               	movwf	??_mpu_calibrate
  4240     0F8A  3001               	movlw	1
  4241     0F8B                     u2435:
  4242     0F8B  35BA               	lslf	??_mpu_calibrate,f
  4243     0F8C  3EFF               	addlw	-1
  4244     0F8D  1D03               	skipz
  4245     0F8E  2F8B               	goto	u2435
  4246     0F8F  353A               	lslf	??_mpu_calibrate,w
  4247     0F90  3E48               	addlw	(low (_ax_hist| (0+256)))& (0+255)
  4248     0F91  0086               	movwf	6
  4249     0F92  3001               	movlw	1	; select bank2/3
  4250     0F93  0087               	movwf	7
  4251     0F94  3000               	movlw	0
  4252     0F95  3FC0               	movwi [0]fsr1
  4253     0F96  3000               	movlw	0
  4254     0F97  3FC1               	movwi [1]fsr1
  4255     0F98  3FC2               	movwi [2]fsr1
  4256     0F99  3FC3               	movwi [3]fsr1
  4257     0F9A  0858               	movf	mpu_calibrate@i_687,w
  4258     0F9B  00BA               	movwf	??_mpu_calibrate
  4259     0F9C  3001               	movlw	1
  4260     0F9D                     u2445:
  4261     0F9D  35BA               	lslf	??_mpu_calibrate,f
  4262     0F9E  3EFF               	addlw	-1
  4263     0F9F  1D03               	skipz
  4264     0FA0  2F9D               	goto	u2445
  4265     0FA1  353A               	lslf	??_mpu_calibrate,w
  4266     0FA2  3E40               	addlw	(low (_ay_hist| (0+256)))& (0+255)
  4267     0FA3  0086               	movwf	6
  4268     0FA4  3001               	movlw	1	; select bank2/3
  4269     0FA5  0087               	movwf	7
  4270     0FA6  3000               	movlw	0
  4271     0FA7  3FC0               	movwi [0]fsr1
  4272     0FA8  3000               	movlw	0
  4273     0FA9  3FC1               	movwi [1]fsr1
  4274     0FAA  3FC2               	movwi [2]fsr1
  4275     0FAB  3FC3               	movwi [3]fsr1
  4276     0FAC  0858               	movf	mpu_calibrate@i_687,w
  4277     0FAD  00BA               	movwf	??_mpu_calibrate
  4278     0FAE  3001               	movlw	1
  4279     0FAF                     u2455:
  4280     0FAF  35BA               	lslf	??_mpu_calibrate,f
  4281     0FB0  3EFF               	addlw	-1
  4282     0FB1  1D03               	skipz
  4283     0FB2  2FAF               	goto	u2455
  4284     0FB3  353A               	lslf	??_mpu_calibrate,w
  4285     0FB4  3E38               	addlw	(low (_az_hist| (0+256)))& (0+255)
  4286     0FB5  0086               	movwf	6
  4287     0FB6  3001               	movlw	1	; select bank2/3
  4288     0FB7  0087               	movwf	7
  4289     0FB8  3000               	movlw	0
  4290     0FB9  3FC0               	movwi [0]fsr1
  4291     0FBA  3000               	movlw	0
  4292     0FBB  3FC1               	movwi [1]fsr1
  4293     0FBC  3FC2               	movwi [2]fsr1
  4294     0FBD  3FC3               	movwi [3]fsr1
  4295                           
  4296                           ;main.c: 355:         gx_hist[i] = 0; gy_hist[i] = 0; gz_hist[i] = 0;
  4297     0FBE  0858               	movf	mpu_calibrate@i_687,w
  4298     0FBF  00BA               	movwf	??_mpu_calibrate
  4299     0FC0  3001               	movlw	1
  4300     0FC1                     u2465:
  4301     0FC1  35BA               	lslf	??_mpu_calibrate,f
  4302     0FC2  3EFF               	addlw	-1
  4303     0FC3  1D03               	skipz
  4304     0FC4  2FC1               	goto	u2465
  4305     0FC5  353A               	lslf	??_mpu_calibrate,w
  4306     0FC6  3E30               	addlw	(low (_gx_hist| (0+256)))& (0+255)
  4307     0FC7  0086               	movwf	6
  4308     0FC8  3001               	movlw	1	; select bank2/3
  4309     0FC9  0087               	movwf	7
  4310     0FCA  3000               	movlw	0
  4311     0FCB  3FC0               	movwi [0]fsr1
  4312     0FCC  3000               	movlw	0
  4313     0FCD  3FC1               	movwi [1]fsr1
  4314     0FCE  3FC2               	movwi [2]fsr1
  4315     0FCF  3FC3               	movwi [3]fsr1
  4316     0FD0  0858               	movf	mpu_calibrate@i_687,w
  4317     0FD1  00BA               	movwf	??_mpu_calibrate
  4318     0FD2  3001               	movlw	1
  4319     0FD3                     u2475:
  4320     0FD3  35BA               	lslf	??_mpu_calibrate,f
  4321     0FD4  3EFF               	addlw	-1
  4322     0FD5  1D03               	skipz
  4323     0FD6  2FD3               	goto	u2475
  4324     0FD7  353A               	lslf	??_mpu_calibrate,w
  4325     0FD8  3E28               	addlw	(low (_gy_hist| (0+256)))& (0+255)
  4326     0FD9  0086               	movwf	6
  4327     0FDA  3001               	movlw	1	; select bank2/3
  4328     0FDB  0087               	movwf	7
  4329     0FDC  3000               	movlw	0
  4330     0FDD  3FC0               	movwi [0]fsr1
  4331     0FDE  3000               	movlw	0
  4332     0FDF  3FC1               	movwi [1]fsr1
  4333     0FE0  3FC2               	movwi [2]fsr1
  4334     0FE1  3FC3               	movwi [3]fsr1
  4335     0FE2  0858               	movf	mpu_calibrate@i_687,w
  4336     0FE3  00BA               	movwf	??_mpu_calibrate
  4337     0FE4  3001               	movlw	1
  4338     0FE5                     u2485:
  4339     0FE5  35BA               	lslf	??_mpu_calibrate,f
  4340     0FE6  3EFF               	addlw	-1
  4341     0FE7  1D03               	skipz
  4342     0FE8  2FE5               	goto	u2485
  4343     0FE9  353A               	lslf	??_mpu_calibrate,w
  4344     0FEA  3E20               	addlw	(low (_gz_hist| (0+256)))& (0+255)
  4345     0FEB  0086               	movwf	6
  4346     0FEC  3001               	movlw	1	; select bank2/3
  4347     0FED  0087               	movwf	7
  4348     0FEE  3000               	movlw	0
  4349     0FEF  3FC0               	movwi [0]fsr1
  4350     0FF0  3000               	movlw	0
  4351     0FF1  3FC1               	movwi [1]fsr1
  4352     0FF2  3FC2               	movwi [2]fsr1
  4353     0FF3  3FC3               	movwi [3]fsr1
  4354     0FF4                     l2692:
  4355                           
  4356                           ;main.c: 356:     }
  4357     0FF4  3001               	movlw	1
  4358     0FF5  00BA               	movwf	??_mpu_calibrate
  4359     0FF6  083A               	movf	??_mpu_calibrate,w
  4360     0FF7  07D8               	addwf	mpu_calibrate@i_687,f
  4361     0FF8                     l2694:
  4362     0FF8  3002               	movlw	2
  4363     0FF9  0258               	subwf	mpu_calibrate@i_687,w
  4364     0FFA  1C03               	skipc
  4365     0FFB  2FFD               	goto	u2491
  4366     0FFC  2FFE               	goto	u2490
  4367     0FFD                     u2491:
  4368     0FFD  2F88               	goto	l2690
  4369     0FFE                     u2490:
  4370     0FFE                     l2696:
  4371                           
  4372                           ;main.c: 358:     return 1;
  4373     0FFE  3001               	movlw	1
  4374     0FFF                     l375:
  4375     0FFF  0008               	return
  4376     1000                     __end_of_mpu_calibrate:
  4377                           
  4378                           	psect	text4
  4379     1541                     __ptext4:	
  4380 ;; *************** function _mpu_write_reg *****************
  4381 ;; Defined at:
  4382 ;;		line 130 in file "main.c"
  4383 ;; Parameters:    Size  Location     Type
  4384 ;;  reg             1    wreg     unsigned char 
  4385 ;;  val             1   11[COMMON] unsigned char 
  4386 ;; Auto vars:     Size  Location     Type
  4387 ;;  reg             1   12[COMMON] unsigned char 
  4388 ;; Return value:  Size  Location     Type
  4389 ;;                  1    wreg      _Bool 
  4390 ;; Registers used:
  4391 ;;		wreg, fsr1l, fsr1h, status,2, status,0, pclath, cstack
  4392 ;; Tracked objects:
  4393 ;;		On entry : 0/0
  4394 ;;		On exit  : 0/0
  4395 ;;		Unchanged: 0/0
  4396 ;; Data sizes:     COMMON   BANK0   BANK1   BANK2   BANK3   BANK4   BANK5   BANK6   BANK7   BANK8   BANK9  BANK10  BANK1
      +1  BANK12  BANK13  BANK14  BANK15  BANK16  BANK17  BANK18  BANK19  BANK20  BANK21  BANK22  BANK23  BANK24  BANK25
  4397 ;;      Params:         1       0       0       0       0       0       0       0       0       0       0       0       
      +0       0       0       0       0       0       0       0       0       0       0       0       0       0       0
  4398 ;;      Locals:         1       0       0       0       0       0       0       0       0       0       0       0       
      +0       0       0       0       0       0       0       0       0       0       0       0       0       0       0
  4399 ;;      Temps:          0       0       0       0       0       0       0       0       0       0       0       0       
      +0       0       0       0       0       0       0       0       0       0       0       0       0       0       0
  4400 ;;      Totals:         2       0       0       0       0       0       0       0       0       0       0       0       
      +0       0       0       0       0       0       0       0       0       0       0       0       0       0       0
  4401 ;;Total ram usage:        2 bytes
  4402 ;; Hardware stack levels used: 1
  4403 ;; Hardware stack levels required when called: 4
  4404 ;; This function calls:
  4405 ;;		_i2c_write_bytes
  4406 ;; This function is called by:
  4407 ;;		_mpu_init
  4408 ;;		_mpu_calibrate
  4409 ;; This function uses a non-reentrant model
  4410 ;;
  4411                           
  4412     1541                     _mpu_write_reg:	
  4413                           ;psect for function _mpu_write_reg
  4414                           
  4415                           
  4416                           ;incstack = 0
  4417                           ; Regs used in _mpu_write_reg: [wreg+fsr1l+fsr1h+status,2+status,0+pclath+cstack]
  4418                           ;mpu_write_reg@reg stored from wreg
  4419     1541  00FC               	movwf	mpu_write_reg@reg
  4420     1542                     l2388:
  4421                           
  4422                           ;main.c: 130: static _Bool mpu_write_reg(uint8_t reg, uint8_t val);main.c: 131: {;main.c
      +                          : 132:     return (i2c_write_bytes(0x68, reg, &val, 1) == 0);
  4423     1542  087C               	movf	mpu_write_reg@reg,w
  4424     1543  00F5               	movwf	i2c_write_bytes@reg
  4425     1544  307B               	movlw	(low (mpu_write_reg@val| 0))& (0+255)
  4426     1545  00F6               	movwf	i2c_write_bytes@src
  4427     1546  01F7               	clrf	i2c_write_bytes@len
  4428     1547  0AF7               	incf	i2c_write_bytes@len,f
  4429     1548  3068               	movlw	104
  4430     1549  3197  2713  3195   	fcall	_i2c_write_bytes
  4431     154C  3A00               	xorlw	0
  4432     154D  1903               	skipnz
  4433     154E  2D50               	goto	u2111
  4434     154F  2D52               	goto	u2110
  4435     1550                     u2111:
  4436     1550  3001               	movlw	1
  4437     1551  2D53               	goto	u2120
  4438     1552                     u2110:
  4439     1552  3000               	movlw	0
  4440     1553                     u2120:
  4441     1553                     l260:
  4442     1553  0008               	return
  4443     1554                     __end_of_mpu_write_reg:
  4444                           
  4445                           	psect	text5
  4446     1713                     __ptext5:	
  4447 ;; *************** function _i2c_write_bytes *****************
  4448 ;; Defined at:
  4449 ;;		line 95 in file "main.c"
  4450 ;; Parameters:    Size  Location     Type
  4451 ;;  addr7           1    wreg     unsigned char 
  4452 ;;  reg             1    5[COMMON] unsigned char 
  4453 ;;  src             1    6[COMMON] PTR unsigned char 
  4454 ;;		 -> mpu_write_reg@val(1), 
  4455 ;;  len             1    7[COMMON] unsigned char 
  4456 ;; Auto vars:     Size  Location     Type
  4457 ;;  addr7           1    9[COMMON] unsigned char 
  4458 ;;  i               1   10[COMMON] unsigned char 
  4459 ;; Return value:  Size  Location     Type
  4460 ;;                  1    wreg      unsigned char 
  4461 ;; Registers used:
  4462 ;;		wreg, fsr1l, fsr1h, status,2, status,0, pclath, cstack
  4463 ;; Tracked objects:
  4464 ;;		On entry : 0/0
  4465 ;;		On exit  : 0/0
  4466 ;;		Unchanged: 0/0
  4467 ;; Data sizes:     COMMON   BANK0   BANK1   BANK2   BANK3   BANK4   BANK5   BANK6   BANK7   BANK8   BANK9  BANK10  BANK1
      +1  BANK12  BANK13  BANK14  BANK15  BANK16  BANK17  BANK18  BANK19  BANK20  BANK21  BANK22  BANK23  BANK24  BANK25
  4468 ;;      Params:         3       0       0       0       0       0       0       0       0       0       0       0       
      +0       0       0       0       0       0       0       0       0       0       0       0       0       0       0
  4469 ;;      Locals:         2       0       0       0       0       0       0       0       0       0       0       0       
      +0       0       0       0       0       0       0       0       0       0       0       0       0       0       0
  4470 ;;      Temps:          1       0       0       0       0       0       0       0       0       0       0       0       
      +0       0       0       0       0       0       0       0       0       0       0       0       0       0       0
  4471 ;;      Totals:         6       0       0       0       0       0       0       0       0       0       0       0       
      +0       0       0       0       0       0       0       0       0       0       0       0       0       0       0
  4472 ;;Total ram usage:        6 bytes
  4473 ;; Hardware stack levels used: 1
  4474 ;; Hardware stack levels required when called: 3
  4475 ;; This function calls:
  4476 ;;		_I2C_Start
  4477 ;;		_I2C_Stop
  4478 ;;		_I2C_WriteByte
  4479 ;; This function is called by:
  4480 ;;		_mpu_write_reg
  4481 ;; This function uses a non-reentrant model
  4482 ;;
  4483                           
  4484     1713                     _i2c_write_bytes:	
  4485                           ;psect for function _i2c_write_bytes
  4486                           
  4487                           
  4488                           ;incstack = 0
  4489                           ; Regs used in _i2c_write_bytes: [wreg+fsr1l+fsr1h+status,2+status,0+pclath+cstack]
  4490                           ;i2c_write_bytes@addr7 stored from wreg
  4491     1713  00F9               	movwf	i2c_write_bytes@addr7
  4492     1714                     l2214:
  4493                           
  4494                           ;main.c: 95: static uint8_t i2c_write_bytes(uint8_t addr7, uint8_t reg,;main.c: 96:     
      +                                                      uint8_t *src, uint8_t len);main.c: 97: {;main.c: 98:     if 
      +                          (I2C_Start() != I2C_OK) return 1;
  4495     1714  3196  264B  3197   	fcall	_I2C_Start
  4496     1717  3A00               	xorlw	0
  4497     1718  1903               	skipnz
  4498     1719  2F1B               	goto	u1741
  4499     171A  2F1C               	goto	u1740
  4500     171B                     u1741:
  4501     171B  2F1E               	goto	l2220
  4502     171C                     u1740:
  4503     171C                     l2216:
  4504     171C  3001               	movlw	1
  4505     171D  2F5E               	goto	l239
  4506     171E                     l2220:
  4507                           
  4508                           ;main.c: 99:     if (I2C_WriteByte(addr7 << 1) != I2C_OK) { I2C_Stop(); return 2; }
  4509     171E  3579               	lslf	i2c_write_bytes@addr7,w
  4510     171F  3196  2670  3197   	fcall	_I2C_WriteByte
  4511     1722  3A00               	xorlw	0
  4512     1723  1903               	skipnz
  4513     1724  2F26               	goto	u1751
  4514     1725  2F27               	goto	u1750
  4515     1726                     u1751:
  4516     1726  2F2C               	goto	l2228
  4517     1727                     u1750:
  4518     1727                     l2222:
  4519     1727  3195  25DF  3197   	fcall	_I2C_Stop
  4520     172A                     l2224:
  4521     172A  3002               	movlw	2
  4522     172B  2F5E               	goto	l239
  4523     172C                     l2228:
  4524                           
  4525                           ;main.c: 100:     if (I2C_WriteByte(reg) != I2C_OK) { I2C_Stop(); return 3; }
  4526     172C  0875               	movf	i2c_write_bytes@reg,w
  4527     172D  3196  2670  3197   	fcall	_I2C_WriteByte
  4528     1730  3A00               	xorlw	0
  4529     1731  1903               	skipnz
  4530     1732  2F34               	goto	u1761
  4531     1733  2F35               	goto	u1760
  4532     1734                     u1761:
  4533     1734  2F3A               	goto	l2236
  4534     1735                     u1760:
  4535     1735                     l2230:
  4536     1735  3195  25DF  3197   	fcall	_I2C_Stop
  4537     1738                     l2232:
  4538     1738  3003               	movlw	3
  4539     1739  2F5E               	goto	l239
  4540     173A                     l2236:
  4541                           
  4542                           ;main.c: 101:     for (uint8_t i = 0; i < len; i++)
  4543     173A  01FA               	clrf	i2c_write_bytes@i
  4544     173B  2F54               	goto	l2248
  4545     173C                     l2238:
  4546                           
  4547                           ;main.c: 102:     {;main.c: 103:         if (I2C_WriteByte(src[i]) != I2C_OK) { I2C_Stop
      +                          (); return 4; }
  4548     173C  087A               	movf	i2c_write_bytes@i,w
  4549     173D  0776               	addwf	i2c_write_bytes@src,w
  4550     173E  00F8               	movwf	??_i2c_write_bytes
  4551     173F  0878               	movf	??_i2c_write_bytes,w
  4552     1740  0086               	movwf	6
  4553     1741  0187               	clrf	7
  4554     1742  0801               	movf	1,w
  4555     1743  3196  2670  3197   	fcall	_I2C_WriteByte
  4556     1746  3A00               	xorlw	0
  4557     1747  1903               	skipnz
  4558     1748  2F4A               	goto	u1771
  4559     1749  2F4B               	goto	u1770
  4560     174A                     u1771:
  4561     174A  2F50               	goto	l2246
  4562     174B                     u1770:
  4563     174B                     l2240:
  4564     174B  3195  25DF  3197   	fcall	_I2C_Stop
  4565     174E                     l2242:
  4566     174E  3004               	movlw	4
  4567     174F  2F5E               	goto	l239
  4568     1750                     l2246:
  4569                           
  4570                           ;main.c: 104:     }
  4571     1750  3001               	movlw	1
  4572     1751  00F8               	movwf	??_i2c_write_bytes
  4573     1752  0878               	movf	??_i2c_write_bytes,w
  4574     1753  07FA               	addwf	i2c_write_bytes@i,f
  4575     1754                     l2248:
  4576     1754  0877               	movf	i2c_write_bytes@len,w
  4577     1755  027A               	subwf	i2c_write_bytes@i,w
  4578     1756  1C03               	skipc
  4579     1757  2F59               	goto	u1781
  4580     1758  2F5A               	goto	u1780
  4581     1759                     u1781:
  4582     1759  2F3C               	goto	l2238
  4583     175A                     u1780:
  4584     175A                     l2250:
  4585                           
  4586                           ;main.c: 105:     I2C_Stop();
  4587     175A  3195  25DF  3197   	fcall	_I2C_Stop
  4588     175D                     l2252:
  4589                           
  4590                           ;main.c: 106:     return 0;
  4591     175D  3000               	movlw	0
  4592     175E                     l239:
  4593     175E  0008               	return
  4594     175F                     __end_of_i2c_write_bytes:
  4595                           
  4596                           	psect	text6
  4597     0858                     __ptext6:	
  4598 ;; *************** function _mpu_wait_data_ready *****************
  4599 ;; Defined at:
  4600 ;;		line 194 in file "main.c"
  4601 ;; Parameters:    Size  Location     Type
  4602 ;;  timeout_ms      2    2[BANK0 ] unsigned short 
  4603 ;; Auto vars:     Size  Location     Type
  4604 ;;  start           4   12[BANK0 ] unsigned long 
  4605 ;;  st              1   16[BANK0 ] unsigned char 
  4606 ;; Return value:  Size  Location     Type
  4607 ;;                  1    wreg      _Bool 
  4608 ;; Registers used:
  4609 ;;		wreg, fsr1l, fsr1h, status,2, status,0, pclath, cstack
  4610 ;; Tracked objects:
  4611 ;;		On entry : 0/0
  4612 ;;		On exit  : 0/0
  4613 ;;		Unchanged: 0/0
  4614 ;; Data sizes:     COMMON   BANK0   BANK1   BANK2   BANK3   BANK4   BANK5   BANK6   BANK7   BANK8   BANK9  BANK10  BANK1
      +1  BANK12  BANK13  BANK14  BANK15  BANK16  BANK17  BANK18  BANK19  BANK20  BANK21  BANK22  BANK23  BANK24  BANK25
  4615 ;;      Params:         0       2       0       0       0       0       0       0       0       0       0       0       
      +0       0       0       0       0       0       0       0       0       0       0       0       0       0       0
  4616 ;;      Locals:         0       5       0       0       0       0       0       0       0       0       0       0       
      +0       0       0       0       0       0       0       0       0       0       0       0       0       0       0
  4617 ;;      Temps:          0       8       0       0       0       0       0       0       0       0       0       0       
      +0       0       0       0       0       0       0       0       0       0       0       0       0       0       0
  4618 ;;      Totals:         0      15       0       0       0       0       0       0       0       0       0       0       
      +0       0       0       0       0       0       0       0       0       0       0       0       0       0       0
  4619 ;;Total ram usage:       15 bytes
  4620 ;; Hardware stack levels used: 1
  4621 ;; Hardware stack levels required when called: 5
  4622 ;; This function calls:
  4623 ;;		_millis
  4624 ;;		_mpu_read_reg
  4625 ;; This function is called by:
  4626 ;;		_mpu_calibrate
  4627 ;;		_main
  4628 ;; This function uses a non-reentrant model
  4629 ;;
  4630                           
  4631     0858                     _mpu_wait_data_ready:	
  4632                           ;psect for function _mpu_wait_data_ready
  4633                           
  4634     0858                     l2430:	
  4635                           ;incstack = 0
  4636                           ; Regs used in _mpu_wait_data_ready: [wreg+fsr1l+fsr1h+status,2+status,0+pclath+cstack]
  4637                           
  4638                           
  4639                           ;main.c: 194: static _Bool mpu_wait_data_ready(uint16_t timeout_ms);main.c: 195: {;main.
      +                          c: 196:     uint8_t st = 0;
  4640     0858  0020               	movlb	0	; select bank0
  4641     0859  01B0               	clrf	mpu_wait_data_ready@st
  4642     085A                     l2432:
  4643                           
  4644                           ;main.c: 197:     uint32_t start = millis();
  4645     085A  3195  257C  3188   	fcall	_millis
  4646     085D  0873               	movf	?_millis+3,w
  4647     085E  0020               	movlb	0	; select bank0
  4648     085F  00AF               	movwf	mpu_wait_data_ready@start+3
  4649     0860  0872               	movf	?_millis+2,w
  4650     0861  00AE               	movwf	mpu_wait_data_ready@start+2
  4651     0862  0871               	movf	?_millis+1,w
  4652     0863  00AD               	movwf	mpu_wait_data_ready@start+1
  4653     0864  0870               	movf	?_millis,w
  4654     0865  00AC               	movwf	mpu_wait_data_ready@start
  4655                           
  4656                           ;main.c: 199:     while ((millis() - start) < timeout_ms)
  4657     0866  2882               	goto	l2444
  4658     0867                     l2434:
  4659                           
  4660                           ;main.c: 200:     {;main.c: 201:         if (mpu_read_reg(0x3A, &st) && (st & 0x01))
  4661     0867  3030               	movlw	(low (mpu_wait_data_ready@st| 0))& (0+255)
  4662     0868  00A0               	movwf	mpu_read_reg@val
  4663     0869  303A               	movlw	58
  4664     086A  3195  2590  3188   	fcall	_mpu_read_reg
  4665     086D  3A00               	xorlw	0
  4666     086E  1903               	skipnz
  4667     086F  2871               	goto	u2161
  4668     0870  2872               	goto	u2160
  4669     0871                     u2161:
  4670     0871  2879               	goto	l2442
  4671     0872                     u2160:
  4672     0872                     l2436:
  4673     0872  0020               	movlb	0	; select bank0
  4674     0873  1C30               	btfss	mpu_wait_data_ready@st,0
  4675     0874  2876               	goto	u2171
  4676     0875  2877               	goto	u2170
  4677     0876                     u2171:
  4678     0876  2879               	goto	l2442
  4679     0877                     u2170:
  4680     0877                     l2438:
  4681                           
  4682                           ;main.c: 202:             return 1;
  4683     0877  3001               	movlw	1
  4684     0878  28AC               	goto	l290
  4685     0879                     l2442:
  4686                           
  4687                           ;main.c: 203:         _delay((unsigned long)((1)*(32000000/4000.0)));
  4688     0879  300B               	movlw	11
  4689     087A  0020               	movlb	0	; select bank0
  4690     087B  00A4               	movwf	??_mpu_wait_data_ready
  4691     087C  3062               	movlw	98
  4692     087D                     u2857:
  4693     087D  0B89               	decfsz	9,f
  4694     087E  287D               	goto	u2857
  4695     087F  0BA4               	decfsz	??_mpu_wait_data_ready,f
  4696     0880  287D               	goto	u2857
  4697     0881  0000               	nop
  4698     0882                     l2444:
  4699                           
  4700                           ;main.c: 199:     while ((millis() - start) < timeout_ms)
  4701     0882  0020               	movlb	0	; select bank0
  4702     0883  0822               	movf	mpu_wait_data_ready@timeout_ms,w
  4703     0884  00A4               	movwf	??_mpu_wait_data_ready
  4704     0885  0823               	movf	mpu_wait_data_ready@timeout_ms+1,w
  4705     0886  00A5               	movwf	??_mpu_wait_data_ready+1
  4706     0887  01A6               	clrf	??_mpu_wait_data_ready+2
  4707     0888  01A7               	clrf	??_mpu_wait_data_ready+3
  4708     0889  3195  257C  3188   	fcall	_millis
  4709     088C  0020               	movlb	0	; select bank0
  4710     088D  082C               	movf	mpu_wait_data_ready@start,w
  4711     088E  0270               	subwf	?_millis,w
  4712     088F  00A8               	movwf	??_mpu_wait_data_ready+4
  4713     0890  082D               	movf	mpu_wait_data_ready@start+1,w
  4714     0891  3B71               	subwfb	?_millis+1,w
  4715     0892  00A9               	movwf	??_mpu_wait_data_ready+5
  4716     0893  082E               	movf	mpu_wait_data_ready@start+2,w
  4717     0894  3B72               	subwfb	?_millis+2,w
  4718     0895  00AA               	movwf	??_mpu_wait_data_ready+6
  4719     0896  082F               	movf	mpu_wait_data_ready@start+3,w
  4720     0897  3B73               	subwfb	?_millis+3,w
  4721     0898  00AB               	movwf	??_mpu_wait_data_ready+7
  4722     0899  0827               	movf	??_mpu_wait_data_ready+3,w
  4723     089A  022B               	subwf	??_mpu_wait_data_ready+7,w
  4724     089B  1D03               	skipz
  4725     089C  28A7               	goto	u2185
  4726     089D  0826               	movf	??_mpu_wait_data_ready+2,w
  4727     089E  022A               	subwf	??_mpu_wait_data_ready+6,w
  4728     089F  1D03               	skipz
  4729     08A0  28A7               	goto	u2185
  4730     08A1  0825               	movf	??_mpu_wait_data_ready+1,w
  4731     08A2  0229               	subwf	??_mpu_wait_data_ready+5,w
  4732     08A3  1D03               	skipz
  4733     08A4  28A7               	goto	u2185
  4734     08A5  0824               	movf	??_mpu_wait_data_ready,w
  4735     08A6  0228               	subwf	??_mpu_wait_data_ready+4,w
  4736     08A7                     u2185:
  4737     08A7  1C03               	skipc
  4738     08A8  28AA               	goto	u2181
  4739     08A9  28AB               	goto	u2180
  4740     08AA                     u2181:
  4741     08AA  2867               	goto	l2434
  4742     08AB                     u2180:
  4743     08AB                     l2446:
  4744                           
  4745                           ;main.c: 205:     return 0;
  4746     08AB  3000               	movlw	0
  4747     08AC                     l290:
  4748     08AC  0008               	return
  4749     08AD                     __end_of_mpu_wait_data_ready:
  4750                           
  4751                           	psect	text7
  4752     1590                     __ptext7:	
  4753 ;; *************** function _mpu_read_reg *****************
  4754 ;; Defined at:
  4755 ;;		line 135 in file "main.c"
  4756 ;; Parameters:    Size  Location     Type
  4757 ;;  reg             1    wreg     unsigned char 
  4758 ;;  val             1    0[BANK0 ] PTR unsigned char 
  4759 ;;		 -> mpu_init@who(1), mpu_wait_data_ready@st(1), 
  4760 ;; Auto vars:     Size  Location     Type
  4761 ;;  reg             1    1[BANK0 ] unsigned char 
  4762 ;; Return value:  Size  Location     Type
  4763 ;;                  1    wreg      _Bool 
  4764 ;; Registers used:
  4765 ;;		wreg, fsr1l, fsr1h, status,2, status,0, pclath, cstack
  4766 ;; Tracked objects:
  4767 ;;		On entry : 0/0
  4768 ;;		On exit  : 0/0
  4769 ;;		Unchanged: 0/0
  4770 ;; Data sizes:     COMMON   BANK0   BANK1   BANK2   BANK3   BANK4   BANK5   BANK6   BANK7   BANK8   BANK9  BANK10  BANK1
      +1  BANK12  BANK13  BANK14  BANK15  BANK16  BANK17  BANK18  BANK19  BANK20  BANK21  BANK22  BANK23  BANK24  BANK25
  4771 ;;      Params:         0       1       0       0       0       0       0       0       0       0       0       0       
      +0       0       0       0       0       0       0       0       0       0       0       0       0       0       0
  4772 ;;      Locals:         0       1       0       0       0       0       0       0       0       0       0       0       
      +0       0       0       0       0       0       0       0       0       0       0       0       0       0       0
  4773 ;;      Temps:          0       0       0       0       0       0       0       0       0       0       0       0       
      +0       0       0       0       0       0       0       0       0       0       0       0       0       0       0
  4774 ;;      Totals:         0       2       0       0       0       0       0       0       0       0       0       0       
      +0       0       0       0       0       0       0       0       0       0       0       0       0       0       0
  4775 ;;Total ram usage:        2 bytes
  4776 ;; Hardware stack levels used: 1
  4777 ;; Hardware stack levels required when called: 4
  4778 ;; This function calls:
  4779 ;;		_i2c_read_bytes
  4780 ;; This function is called by:
  4781 ;;		_mpu_wait_data_ready
  4782 ;;		_mpu_init
  4783 ;; This function uses a non-reentrant model
  4784 ;;
  4785                           
  4786     1590                     _mpu_read_reg:	
  4787                           ;psect for function _mpu_read_reg
  4788                           
  4789                           
  4790                           ;incstack = 0
  4791                           ; Regs used in _mpu_read_reg: [wreg+fsr1l+fsr1h+status,2+status,0+pclath+cstack]
  4792                           ;mpu_read_reg@reg stored from wreg
  4793     1590  0020               	movlb	0	; select bank0
  4794     1591  00A1               	movwf	mpu_read_reg@reg
  4795     1592                     l2256:
  4796                           
  4797                           ;main.c: 135: static _Bool mpu_read_reg(uint8_t reg, uint8_t *val);main.c: 136: {;main.c
      +                          : 137:     return (i2c_read_bytes(0x68, reg, val, 1) == 0);
  4798     1592  0821               	movf	mpu_read_reg@reg,w
  4799     1593  00F6               	movwf	i2c_read_bytes@reg
  4800     1594  0820               	movf	mpu_read_reg@val,w
  4801     1595  00F7               	movwf	i2c_read_bytes@dst
  4802     1596  01F8               	clrf	i2c_read_bytes@len
  4803     1597  0AF8               	incf	i2c_read_bytes@len,f
  4804     1598  3068               	movlw	104
  4805     1599  318A  2248  3195   	fcall	_i2c_read_bytes
  4806     159C  3A00               	xorlw	0
  4807     159D  1903               	skipnz
  4808     159E  2DA0               	goto	u1791
  4809     159F  2DA2               	goto	u1790
  4810     15A0                     u1791:
  4811     15A0  3001               	movlw	1
  4812     15A1  2DA3               	goto	u1800
  4813     15A2                     u1790:
  4814     15A2  3000               	movlw	0
  4815     15A3                     u1800:
  4816     15A3                     l263:
  4817     15A3  0008               	return
  4818     15A4                     __end_of_mpu_read_reg:
  4819                           
  4820                           	psect	text8
  4821     157C                     __ptext8:	
  4822 ;; *************** function _millis *****************
  4823 ;; Defined at:
  4824 ;;		line 82 in file "main.c"
  4825 ;; Parameters:    Size  Location     Type
  4826 ;;		None
  4827 ;; Auto vars:     Size  Location     Type
  4828 ;;  val             4    4[COMMON] unsigned long 
  4829 ;; Return value:  Size  Location     Type
  4830 ;;                  4    0[COMMON] unsigned long 
  4831 ;; Registers used:
  4832 ;;		wreg
  4833 ;; Tracked objects:
  4834 ;;		On entry : 0/0
  4835 ;;		On exit  : 0/0
  4836 ;;		Unchanged: 0/0
  4837 ;; Data sizes:     COMMON   BANK0   BANK1   BANK2   BANK3   BANK4   BANK5   BANK6   BANK7   BANK8   BANK9  BANK10  BANK1
      +1  BANK12  BANK13  BANK14  BANK15  BANK16  BANK17  BANK18  BANK19  BANK20  BANK21  BANK22  BANK23  BANK24  BANK25
  4838 ;;      Params:         4       0       0       0       0       0       0       0       0       0       0       0       
      +0       0       0       0       0       0       0       0       0       0       0       0       0       0       0
  4839 ;;      Locals:         4       0       0       0       0       0       0       0       0       0       0       0       
      +0       0       0       0       0       0       0       0       0       0       0       0       0       0       0
  4840 ;;      Temps:          0       0       0       0       0       0       0       0       0       0       0       0       
      +0       0       0       0       0       0       0       0       0       0       0       0       0       0       0
  4841 ;;      Totals:         8       0       0       0       0       0       0       0       0       0       0       0       
      +0       0       0       0       0       0       0       0       0       0       0       0       0       0       0
  4842 ;;Total ram usage:        8 bytes
  4843 ;; Hardware stack levels used: 1
  4844 ;; Hardware stack levels required when called: 1
  4845 ;; This function calls:
  4846 ;;		Nothing
  4847 ;; This function is called by:
  4848 ;;		_mpu_wait_data_ready
  4849 ;;		_main
  4850 ;; This function uses a non-reentrant model
  4851 ;;
  4852                           
  4853     157C                     _millis:	
  4854                           ;psect for function _millis
  4855                           
  4856     157C                     l2206:	
  4857                           ;incstack = 0
  4858                           ; Regs used in _millis: [wreg]
  4859                           
  4860                           
  4861                           ;main.c: 84:     uint32_t val;;main.c: 85:     INTCONbits.GIE = 0;
  4862     157C  138B               	bcf	11,7	;volatile
  4863     157D                     l2208:
  4864                           
  4865                           ;main.c: 86:     val = millis_counter;
  4866     157D  0021               	movlb	1	; select bank1
  4867     157E  084F               	movf	(_millis_counter+3)^(0+128),w	;volatile
  4868     157F  00F7               	movwf	millis@val+3
  4869     1580  084E               	movf	(_millis_counter+2)^(0+128),w	;volatile
  4870     1581  00F6               	movwf	millis@val+2
  4871     1582  084D               	movf	(_millis_counter+1)^(0+128),w	;volatile
  4872     1583  00F5               	movwf	millis@val+1
  4873     1584  084C               	movf	_millis_counter^(0+128),w	;volatile
  4874     1585  00F4               	movwf	millis@val
  4875     1586                     l2210:
  4876                           
  4877                           ;main.c: 87:     INTCONbits.GIE = 1;
  4878     1586  178B               	bsf	11,7	;volatile
  4879                           
  4880                           ;main.c: 88:     return val;
  4881     1587  0877               	movf	millis@val+3,w
  4882     1588  00F3               	movwf	?_millis+3
  4883     1589  0876               	movf	millis@val+2,w
  4884     158A  00F2               	movwf	?_millis+2
  4885     158B  0875               	movf	millis@val+1,w
  4886     158C  00F1               	movwf	?_millis+1
  4887     158D  0874               	movf	millis@val,w
  4888     158E  00F0               	movwf	?_millis
  4889     158F                     l235:
  4890     158F  0008               	return
  4891     1590                     __end_of_millis:
  4892                           
  4893                           	psect	text9
  4894     0969                     __ptext9:	
  4895 ;; *************** function _mpu_read_raw *****************
  4896 ;; Defined at:
  4897 ;;		line 172 in file "main.c"
  4898 ;; Parameters:    Size  Location     Type
  4899 ;;  o               1    wreg     PTR struct .
  4900 ;;		 -> main@r(14), mpu_calibrate@r(14), 
  4901 ;; Auto vars:     Size  Location     Type
  4902 ;;  o               1   19[BANK0 ] PTR struct .
  4903 ;;		 -> main@r(14), mpu_calibrate@r(14), 
  4904 ;;  attempt         1   18[BANK0 ] unsigned char 
  4905 ;;  b              14    4[BANK0 ] unsigned char [14]
  4906 ;; Return value:  Size  Location     Type
  4907 ;;                  1    wreg      _Bool 
  4908 ;; Registers used:
  4909 ;;		wreg, fsr1l, fsr1h, status,2, status,0, pclath, cstack
  4910 ;; Tracked objects:
  4911 ;;		On entry : 0/0
  4912 ;;		On exit  : 0/0
  4913 ;;		Unchanged: 0/0
  4914 ;; Data sizes:     COMMON   BANK0   BANK1   BANK2   BANK3   BANK4   BANK5   BANK6   BANK7   BANK8   BANK9  BANK10  BANK1
      +1  BANK12  BANK13  BANK14  BANK15  BANK16  BANK17  BANK18  BANK19  BANK20  BANK21  BANK22  BANK23  BANK24  BANK25
  4915 ;;      Params:         0       0       0       0       0       0       0       0       0       0       0       0       
      +0       0       0       0       0       0       0       0       0       0       0       0       0       0       0
  4916 ;;      Locals:         0      16       0       0       0       0       0       0       0       0       0       0       
      +0       0       0       0       0       0       0       0       0       0       0       0       0       0       0
  4917 ;;      Temps:          0       1       0       0       0       0       0       0       0       0       0       0       
      +0       0       0       0       0       0       0       0       0       0       0       0       0       0       0
  4918 ;;      Totals:         0      17       0       0       0       0       0       0       0       0       0       0       
      +0       0       0       0       0       0       0       0       0       0       0       0       0       0       0
  4919 ;;Total ram usage:       17 bytes
  4920 ;; Hardware stack levels used: 1
  4921 ;; Hardware stack levels required when called: 5
  4922 ;; This function calls:
  4923 ;;		_mpu_frame_sane
  4924 ;;		_mpu_read_multi
  4925 ;; This function is called by:
  4926 ;;		_mpu_calibrate
  4927 ;;		_main
  4928 ;; This function uses a non-reentrant model
  4929 ;;
  4930                           
  4931     0969                     _mpu_read_raw:	
  4932                           ;psect for function _mpu_read_raw
  4933                           
  4934                           
  4935                           ;incstack = 0
  4936                           ; Regs used in _mpu_read_raw: [wreg+fsr1l+fsr1h+status,2+status,0+pclath+cstack]
  4937                           ;mpu_read_raw@o stored from wreg
  4938     0969  0020               	movlb	0	; select bank0
  4939     096A  00B3               	movwf	mpu_read_raw@o
  4940     096B                     l2392:
  4941                           
  4942                           ;main.c: 172: static _Bool mpu_read_raw(mpu_raw_t *o);main.c: 173: {;main.c: 174:     ui
      +                          nt8_t b[14];;main.c: 176:     for (uint8_t attempt = 0; attempt < 3; attempt++)
  4943     096B  01B2               	clrf	mpu_read_raw@attempt
  4944     096C                     l2398:
  4945                           
  4946                           ;main.c: 177:     {;main.c: 178:         if (mpu_read_multi(0x3B, b, 14) && mpu_frame_sa
      +                          ne(b, 14))
  4947     096C  3024               	movlw	(low (mpu_read_raw@b| 0))& (0+255)
  4948     096D  00A0               	movwf	mpu_read_multi@buf
  4949     096E  300E               	movlw	14
  4950     096F  00A1               	movwf	mpu_read_multi@len
  4951     0970  303B               	movlw	59
  4952     0971  3195  2568  3189   	fcall	_mpu_read_multi
  4953     0974  3A00               	xorlw	0
  4954     0975  1903               	skipnz
  4955     0976  2978               	goto	u2131
  4956     0977  2979               	goto	u2130
  4957     0978                     u2131:
  4958     0978  29BE               	goto	l2420
  4959     0979                     u2130:
  4960     0979                     l2400:
  4961     0979  300E               	movlw	14
  4962     097A  00F0               	movwf	mpu_frame_sane@len
  4963     097B  3024               	movlw	(low (mpu_read_raw@b| 0))& (0+255)
  4964     097C  3189  2105  3189   	fcall	_mpu_frame_sane
  4965     097F  3A00               	xorlw	0
  4966     0980  1903               	skipnz
  4967     0981  2983               	goto	u2141
  4968     0982  2984               	goto	u2140
  4969     0983                     u2141:
  4970     0983  29BE               	goto	l2420
  4971     0984                     u2140:
  4972     0984                     l2402:
  4973                           
  4974                           ;main.c: 179:         {;main.c: 180:             o->ax = (int16_t)((uint16_t)b[0] << 8 |
      +                           b[1]);
  4975     0984  0020               	movlb	0	; select bank0
  4976     0985  0833               	movf	mpu_read_raw@o,w
  4977     0986  0086               	movwf	6
  4978     0987  0187               	clrf	7
  4979     0988  0825               	movf	mpu_read_raw@b+1,w
  4980     0989  3FC0               	movwi [0]fsr1
  4981     098A  0824               	movf	mpu_read_raw@b,w
  4982     098B  3FC1               	movwi [1]fsr1
  4983     098C                     l2404:
  4984                           
  4985                           ;main.c: 181:             o->ay = (int16_t)((uint16_t)b[2] << 8 | b[3]);
  4986     098C  0833               	movf	mpu_read_raw@o,w
  4987     098D  3E02               	addlw	2
  4988     098E  0086               	movwf	6
  4989     098F  0187               	clrf	7
  4990     0990  0827               	movf	mpu_read_raw@b+3,w
  4991     0991  3FC0               	movwi [0]fsr1
  4992     0992  0826               	movf	mpu_read_raw@b+2,w
  4993     0993  3FC1               	movwi [1]fsr1
  4994     0994                     l2406:
  4995                           
  4996                           ;main.c: 182:             o->az = (int16_t)((uint16_t)b[4] << 8 | b[5]);
  4997     0994  0833               	movf	mpu_read_raw@o,w
  4998     0995  3E04               	addlw	4
  4999     0996  0086               	movwf	6
  5000     0997  0187               	clrf	7
  5001     0998  0829               	movf	mpu_read_raw@b+5,w
  5002     0999  3FC0               	movwi [0]fsr1
  5003     099A  0828               	movf	mpu_read_raw@b+4,w
  5004     099B  3FC1               	movwi [1]fsr1
  5005     099C                     l2408:
  5006                           
  5007                           ;main.c: 183:             o->temp = (int16_t)((uint16_t)b[6] << 8 | b[7]);
  5008     099C  0833               	movf	mpu_read_raw@o,w
  5009     099D  3E06               	addlw	6
  5010     099E  0086               	movwf	6
  5011     099F  0187               	clrf	7
  5012     09A0  082B               	movf	mpu_read_raw@b+7,w
  5013     09A1  3FC0               	movwi [0]fsr1
  5014     09A2  082A               	movf	mpu_read_raw@b+6,w
  5015     09A3  3FC1               	movwi [1]fsr1
  5016     09A4                     l2410:
  5017                           
  5018                           ;main.c: 184:             o->gx = (int16_t)((uint16_t)b[8] << 8 | b[9]);
  5019     09A4  0833               	movf	mpu_read_raw@o,w
  5020     09A5  3E08               	addlw	8
  5021     09A6  0086               	movwf	6
  5022     09A7  0187               	clrf	7
  5023     09A8  082D               	movf	mpu_read_raw@b+9,w
  5024     09A9  3FC0               	movwi [0]fsr1
  5025     09AA  082C               	movf	mpu_read_raw@b+8,w
  5026     09AB  3FC1               	movwi [1]fsr1
  5027     09AC                     l2412:
  5028                           
  5029                           ;main.c: 185:             o->gy = (int16_t)((uint16_t)b[10] << 8 | b[11]);
  5030     09AC  0833               	movf	mpu_read_raw@o,w
  5031     09AD  3E0A               	addlw	10
  5032     09AE  0086               	movwf	6
  5033     09AF  0187               	clrf	7
  5034     09B0  082F               	movf	mpu_read_raw@b+11,w
  5035     09B1  3FC0               	movwi [0]fsr1
  5036     09B2  082E               	movf	mpu_read_raw@b+10,w
  5037     09B3  3FC1               	movwi [1]fsr1
  5038     09B4                     l2414:
  5039                           
  5040                           ;main.c: 186:             o->gz = (int16_t)((uint16_t)b[12] << 8 | b[13]);
  5041     09B4  0833               	movf	mpu_read_raw@o,w
  5042     09B5  3E0C               	addlw	12
  5043     09B6  0086               	movwf	6
  5044     09B7  0187               	clrf	7
  5045     09B8  0831               	movf	mpu_read_raw@b+13,w
  5046     09B9  3FC0               	movwi [0]fsr1
  5047     09BA  0830               	movf	mpu_read_raw@b+12,w
  5048     09BB  3FC1               	movwi [1]fsr1
  5049     09BC                     l2416:
  5050                           
  5051                           ;main.c: 187:             return 1;
  5052     09BC  3001               	movlw	1
  5053     09BD  29D3               	goto	l284
  5054     09BE                     l2420:
  5055                           
  5056                           ;main.c: 189:         _delay((unsigned long)((1)*(32000000/4000.0)));
  5057     09BE  300B               	movlw	11
  5058     09BF  0020               	movlb	0	; select bank0
  5059     09C0  00A3               	movwf	??_mpu_read_raw
  5060     09C1  3062               	movlw	98
  5061     09C2                     u2867:
  5062     09C2  0B89               	decfsz	9,f
  5063     09C3  29C2               	goto	u2867
  5064     09C4  0BA3               	decfsz	??_mpu_read_raw,f
  5065     09C5  29C2               	goto	u2867
  5066     09C6  0000               	nop
  5067     09C7                     l2422:
  5068                           
  5069                           ;main.c: 190:     }
  5070     09C7  3001               	movlw	1
  5071     09C8  0020               	movlb	0	; select bank0
  5072     09C9  00A3               	movwf	??_mpu_read_raw
  5073     09CA  0823               	movf	??_mpu_read_raw,w
  5074     09CB  07B2               	addwf	mpu_read_raw@attempt,f
  5075     09CC                     l2424:
  5076     09CC  3003               	movlw	3
  5077     09CD  0232               	subwf	mpu_read_raw@attempt,w
  5078     09CE  1C03               	skipc
  5079     09CF  29D1               	goto	u2151
  5080     09D0  29D2               	goto	u2150
  5081     09D1                     u2151:
  5082     09D1  296C               	goto	l2398
  5083     09D2                     u2150:
  5084     09D2                     l2426:
  5085                           
  5086                           ;main.c: 191:     return 0;
  5087     09D2  3000               	movlw	0
  5088     09D3                     l284:
  5089     09D3  0008               	return
  5090     09D4                     __end_of_mpu_read_raw:
  5091                           
  5092                           	psect	text10
  5093     1568                     __ptext10:	
  5094 ;; *************** function _mpu_read_multi *****************
  5095 ;; Defined at:
  5096 ;;		line 140 in file "main.c"
  5097 ;; Parameters:    Size  Location     Type
  5098 ;;  reg             1    wreg     unsigned char 
  5099 ;;  buf             1    0[BANK0 ] PTR unsigned char 
  5100 ;;		 -> mpu_read_raw@b(14), 
  5101 ;;  len             1    1[BANK0 ] unsigned char 
  5102 ;; Auto vars:     Size  Location     Type
  5103 ;;  reg             1    2[BANK0 ] unsigned char 
  5104 ;; Return value:  Size  Location     Type
  5105 ;;                  1    wreg      _Bool 
  5106 ;; Registers used:
  5107 ;;		wreg, fsr1l, fsr1h, status,2, status,0, pclath, cstack
  5108 ;; Tracked objects:
  5109 ;;		On entry : 0/0
  5110 ;;		On exit  : 0/0
  5111 ;;		Unchanged: 0/0
  5112 ;; Data sizes:     COMMON   BANK0   BANK1   BANK2   BANK3   BANK4   BANK5   BANK6   BANK7   BANK8   BANK9  BANK10  BANK1
      +1  BANK12  BANK13  BANK14  BANK15  BANK16  BANK17  BANK18  BANK19  BANK20  BANK21  BANK22  BANK23  BANK24  BANK25
  5113 ;;      Params:         0       2       0       0       0       0       0       0       0       0       0       0       
      +0       0       0       0       0       0       0       0       0       0       0       0       0       0       0
  5114 ;;      Locals:         0       1       0       0       0       0       0       0       0       0       0       0       
      +0       0       0       0       0       0       0       0       0       0       0       0       0       0       0
  5115 ;;      Temps:          0       0       0       0       0       0       0       0       0       0       0       0       
      +0       0       0       0       0       0       0       0       0       0       0       0       0       0       0
  5116 ;;      Totals:         0       3       0       0       0       0       0       0       0       0       0       0       
      +0       0       0       0       0       0       0       0       0       0       0       0       0       0       0
  5117 ;;Total ram usage:        3 bytes
  5118 ;; Hardware stack levels used: 1
  5119 ;; Hardware stack levels required when called: 4
  5120 ;; This function calls:
  5121 ;;		_i2c_read_bytes
  5122 ;; This function is called by:
  5123 ;;		_mpu_read_raw
  5124 ;; This function uses a non-reentrant model
  5125 ;;
  5126                           
  5127     1568                     _mpu_read_multi:	
  5128                           ;psect for function _mpu_read_multi
  5129                           
  5130                           
  5131                           ;incstack = 0
  5132                           ; Regs used in _mpu_read_multi: [wreg+fsr1l+fsr1h+status,2+status,0+pclath+cstack]
  5133                           ;mpu_read_multi@reg stored from wreg
  5134     1568  0020               	movlb	0	; select bank0
  5135     1569  00A2               	movwf	mpu_read_multi@reg
  5136     156A                     l2260:
  5137                           
  5138                           ;main.c: 140: static _Bool mpu_read_multi(uint8_t reg, uint8_t *buf, uint8_t len);main.c
      +                          : 141: {;main.c: 142:     return (i2c_read_bytes(0x68, reg, buf, len) == 0);
  5139     156A  0822               	movf	mpu_read_multi@reg,w
  5140     156B  00F6               	movwf	i2c_read_bytes@reg
  5141     156C  0820               	movf	mpu_read_multi@buf,w
  5142     156D  00F7               	movwf	i2c_read_bytes@dst
  5143     156E  0821               	movf	mpu_read_multi@len,w
  5144     156F  00F8               	movwf	i2c_read_bytes@len
  5145     1570  3068               	movlw	104
  5146     1571  318A  2248  3195   	fcall	_i2c_read_bytes
  5147     1574  3A00               	xorlw	0
  5148     1575  1903               	skipnz
  5149     1576  2D78               	goto	u1811
  5150     1577  2D7A               	goto	u1810
  5151     1578                     u1811:
  5152     1578  3001               	movlw	1
  5153     1579  2D7B               	goto	u1820
  5154     157A                     u1810:
  5155     157A  3000               	movlw	0
  5156     157B                     u1820:
  5157     157B                     l266:
  5158     157B  0008               	return
  5159     157C                     __end_of_mpu_read_multi:
  5160                           
  5161                           	psect	text11
  5162     0A48                     __ptext11:	
  5163 ;; *************** function _i2c_read_bytes *****************
  5164 ;; Defined at:
  5165 ;;		line 109 in file "main.c"
  5166 ;; Parameters:    Size  Location     Type
  5167 ;;  addr7           1    wreg     unsigned char 
  5168 ;;  reg             1    6[COMMON] unsigned char 
  5169 ;;  dst             1    7[COMMON] PTR unsigned char 
  5170 ;;		 -> mpu_init@who(1), mpu_wait_data_ready@st(1), mpu_read_raw@b(14), 
  5171 ;;  len             1    8[COMMON] unsigned char 
  5172 ;; Auto vars:     Size  Location     Type
  5173 ;;  addr7           1   12[COMMON] unsigned char 
  5174 ;;  ack             1   11[COMMON] _Bool 
  5175 ;;  i               1   13[COMMON] unsigned char 
  5176 ;; Return value:  Size  Location     Type
  5177 ;;                  1    wreg      unsigned char 
  5178 ;; Registers used:
  5179 ;;		wreg, fsr1l, fsr1h, status,2, status,0, pclath, cstack
  5180 ;; Tracked objects:
  5181 ;;		On entry : 0/0
  5182 ;;		On exit  : 0/0
  5183 ;;		Unchanged: 0/0
  5184 ;; Data sizes:     COMMON   BANK0   BANK1   BANK2   BANK3   BANK4   BANK5   BANK6   BANK7   BANK8   BANK9  BANK10  BANK1
      +1  BANK12  BANK13  BANK14  BANK15  BANK16  BANK17  BANK18  BANK19  BANK20  BANK21  BANK22  BANK23  BANK24  BANK25
  5185 ;;      Params:         3       0       0       0       0       0       0       0       0       0       0       0       
      +0       0       0       0       0       0       0       0       0       0       0       0       0       0       0
  5186 ;;      Locals:         3       0       0       0       0       0       0       0       0       0       0       0       
      +0       0       0       0       0       0       0       0       0       0       0       0       0       0       0
  5187 ;;      Temps:          2       0       0       0       0       0       0       0       0       0       0       0       
      +0       0       0       0       0       0       0       0       0       0       0       0       0       0       0
  5188 ;;      Totals:         8       0       0       0       0       0       0       0       0       0       0       0       
      +0       0       0       0       0       0       0       0       0       0       0       0       0       0       0
  5189 ;;Total ram usage:        8 bytes
  5190 ;; Hardware stack levels used: 1
  5191 ;; Hardware stack levels required when called: 3
  5192 ;; This function calls:
  5193 ;;		_I2C_ReadByte
  5194 ;;		_I2C_RepeatedStart
  5195 ;;		_I2C_Start
  5196 ;;		_I2C_Stop
  5197 ;;		_I2C_WriteByte
  5198 ;; This function is called by:
  5199 ;;		_mpu_read_reg
  5200 ;;		_mpu_read_multi
  5201 ;; This function uses a non-reentrant model
  5202 ;;
  5203                           
  5204     0A48                     _i2c_read_bytes:	
  5205                           ;psect for function _i2c_read_bytes
  5206                           
  5207                           
  5208                           ;incstack = 0
  5209                           ; Regs used in _i2c_read_bytes: [wreg+fsr1l+fsr1h+status,2+status,0+pclath+cstack]
  5210                           ;i2c_read_bytes@addr7 stored from wreg
  5211     0A48  00FC               	movwf	i2c_read_bytes@addr7
  5212     0A49                     l2138:
  5213                           
  5214                           ;main.c: 109: static uint8_t i2c_read_bytes(uint8_t addr7, uint8_t reg,;main.c: 110:    
      +                                                      uint8_t *dst, uint8_t len);main.c: 111: {;main.c: 112:     i
      +                          f (I2C_Start() != I2C_OK) return 1;
  5215     0A49  3196  264B  318A   	fcall	_I2C_Start
  5216     0A4C  3A00               	xorlw	0
  5217     0A4D  1903               	skipnz
  5218     0A4E  2A50               	goto	u1641
  5219     0A4F  2A51               	goto	u1640
  5220     0A50                     u1641:
  5221     0A50  2A53               	goto	l2144
  5222     0A51                     u1640:
  5223     0A51                     l2140:
  5224     0A51  3001               	movlw	1
  5225     0A52  2AC1               	goto	l249
  5226     0A53                     l2144:
  5227                           
  5228                           ;main.c: 113:     if (I2C_WriteByte(addr7 << 1) != I2C_OK) { I2C_Stop(); return 2; }
  5229     0A53  357C               	lslf	i2c_read_bytes@addr7,w
  5230     0A54  3196  2670  318A   	fcall	_I2C_WriteByte
  5231     0A57  3A00               	xorlw	0
  5232     0A58  1903               	skipnz
  5233     0A59  2A5B               	goto	u1651
  5234     0A5A  2A5C               	goto	u1650
  5235     0A5B                     u1651:
  5236     0A5B  2A61               	goto	l2152
  5237     0A5C                     u1650:
  5238     0A5C                     l2146:
  5239     0A5C  3195  25DF  318A   	fcall	_I2C_Stop
  5240     0A5F                     l2148:
  5241     0A5F  3002               	movlw	2
  5242     0A60  2AC1               	goto	l249
  5243     0A61                     l2152:
  5244                           
  5245                           ;main.c: 114:     if (I2C_WriteByte(reg) != I2C_OK) { I2C_Stop(); return 3; }
  5246     0A61  0876               	movf	i2c_read_bytes@reg,w
  5247     0A62  3196  2670  318A   	fcall	_I2C_WriteByte
  5248     0A65  3A00               	xorlw	0
  5249     0A66  1903               	skipnz
  5250     0A67  2A69               	goto	u1661
  5251     0A68  2A6A               	goto	u1660
  5252     0A69                     u1661:
  5253     0A69  2A6F               	goto	l2160
  5254     0A6A                     u1660:
  5255     0A6A                     l2154:
  5256     0A6A  3195  25DF  318A   	fcall	_I2C_Stop
  5257     0A6D                     l2156:
  5258     0A6D  3003               	movlw	3
  5259     0A6E  2AC1               	goto	l249
  5260     0A6F                     l2160:
  5261                           
  5262                           ;main.c: 115:     if (I2C_RepeatedStart() != I2C_OK) { I2C_Stop(); return 4; }
  5263     0A6F  3196  2626  318A   	fcall	_I2C_RepeatedStart
  5264     0A72  3A00               	xorlw	0
  5265     0A73  1903               	skipnz
  5266     0A74  2A76               	goto	u1671
  5267     0A75  2A77               	goto	u1670
  5268     0A76                     u1671:
  5269     0A76  2A7C               	goto	l2168
  5270     0A77                     u1670:
  5271     0A77                     l2162:
  5272     0A77  3195  25DF  318A   	fcall	_I2C_Stop
  5273     0A7A                     l2164:
  5274     0A7A  3004               	movlw	4
  5275     0A7B  2AC1               	goto	l249
  5276     0A7C                     l2168:
  5277                           
  5278                           ;main.c: 116:     if (I2C_WriteByte((addr7 << 1) | 1) != I2C_OK) { I2C_Stop(); return 5;
      +                           }
  5279     0A7C  1403               	setc
  5280     0A7D  0D7C               	rlf	i2c_read_bytes@addr7,w
  5281     0A7E  3196  2670  318A   	fcall	_I2C_WriteByte
  5282     0A81  3A00               	xorlw	0
  5283     0A82  1903               	skipnz
  5284     0A83  2A85               	goto	u1681
  5285     0A84  2A86               	goto	u1680
  5286     0A85                     u1681:
  5287     0A85  2A8B               	goto	l2176
  5288     0A86                     u1680:
  5289     0A86                     l2170:
  5290     0A86  3195  25DF  318A   	fcall	_I2C_Stop
  5291     0A89                     l2172:
  5292     0A89  3005               	movlw	5
  5293     0A8A  2AC1               	goto	l249
  5294     0A8B                     l2176:
  5295                           
  5296                           ;main.c: 117:     for (uint8_t i = 0; i < len; i++)
  5297     0A8B  01FD               	clrf	i2c_read_bytes@i
  5298     0A8C  2AB7               	goto	l2190
  5299     0A8D                     l2178:
  5300                           
  5301                           ;main.c: 118:     {;main.c: 119:         _Bool ack = (i < (len - 1));
  5302     0A8D  0878               	movf	i2c_read_bytes@len,w
  5303     0A8E  3EFF               	addlw	255
  5304     0A8F  00F9               	movwf	??_i2c_read_bytes
  5305     0A90  30FF               	movlw	255
  5306     0A91  1803               	skipnc
  5307     0A92  3000               	movlw	0
  5308     0A93  00FA               	movwf	??_i2c_read_bytes+1
  5309     0A94  087A               	movf	??_i2c_read_bytes+1,w
  5310     0A95  3A80               	xorlw	128
  5311     0A96  3C80               	sublw	128
  5312     0A97  1D03               	skipz
  5313     0A98  2A9B               	goto	u1695
  5314     0A99  0879               	movf	??_i2c_read_bytes,w
  5315     0A9A  027D               	subwf	i2c_read_bytes@i,w
  5316     0A9B                     u1695:
  5317     0A9B  1C03               	skipc
  5318     0A9C  2A9E               	goto	u1691
  5319     0A9D  2AA0               	goto	u1690
  5320     0A9E                     u1691:
  5321     0A9E  3001               	movlw	1
  5322     0A9F  2AA1               	goto	u1700
  5323     0AA0                     u1690:
  5324     0AA0  3000               	movlw	0
  5325     0AA1                     u1700:
  5326     0AA1  00FB               	movwf	i2c_read_bytes@ack
  5327     0AA2                     l2180:
  5328                           
  5329                           ;main.c: 120:         if (I2C_ReadByte(&dst[i], ack) != I2C_OK) { I2C_Stop(); return 6; 
      +                          }
  5330     0AA2  087B               	movf	i2c_read_bytes@ack,w
  5331     0AA3  00F3               	movwf	I2C_ReadByte@ack
  5332     0AA4  0877               	movf	i2c_read_bytes@dst,w
  5333     0AA5  077D               	addwf	i2c_read_bytes@i,w
  5334     0AA6  3197  275F  318A   	fcall	_I2C_ReadByte
  5335     0AA9  3A00               	xorlw	0
  5336     0AAA  1903               	skipnz
  5337     0AAB  2AAD               	goto	u1711
  5338     0AAC  2AAE               	goto	u1710
  5339     0AAD                     u1711:
  5340     0AAD  2AB3               	goto	l2188
  5341     0AAE                     u1710:
  5342     0AAE                     l2182:
  5343     0AAE  3195  25DF  318A   	fcall	_I2C_Stop
  5344     0AB1                     l2184:
  5345     0AB1  3006               	movlw	6
  5346     0AB2  2AC1               	goto	l249
  5347     0AB3                     l2188:
  5348                           
  5349                           ;main.c: 121:     }
  5350     0AB3  3001               	movlw	1
  5351     0AB4  00F9               	movwf	??_i2c_read_bytes
  5352     0AB5  0879               	movf	??_i2c_read_bytes,w
  5353     0AB6  07FD               	addwf	i2c_read_bytes@i,f
  5354     0AB7                     l2190:
  5355     0AB7  0878               	movf	i2c_read_bytes@len,w
  5356     0AB8  027D               	subwf	i2c_read_bytes@i,w
  5357     0AB9  1C03               	skipc
  5358     0ABA  2ABC               	goto	u1721
  5359     0ABB  2ABD               	goto	u1720
  5360     0ABC                     u1721:
  5361     0ABC  2A8D               	goto	l2178
  5362     0ABD                     u1720:
  5363     0ABD                     l2192:
  5364                           
  5365                           ;main.c: 122:     I2C_Stop();
  5366     0ABD  3195  25DF  318A   	fcall	_I2C_Stop
  5367     0AC0                     l2194:
  5368                           
  5369                           ;main.c: 123:     return 0;
  5370     0AC0  3000               	movlw	0
  5371     0AC1                     l249:
  5372     0AC1  0008               	return
  5373     0AC2                     __end_of_i2c_read_bytes:
  5374                           
  5375                           	psect	text12
  5376     1670                     __ptext12:	
  5377 ;; *************** function _I2C_WriteByte *****************
  5378 ;; Defined at:
  5379 ;;		line 161 in file "I2C.c"
  5380 ;; Parameters:    Size  Location     Type
  5381 ;;  data            1    wreg     unsigned char 
  5382 ;; Auto vars:     Size  Location     Type
  5383 ;;  data            1    3[COMMON] unsigned char 
  5384 ;;  st              1    4[COMMON] enum E6036
  5385 ;; Return value:  Size  Location     Type
  5386 ;;                  1    wreg      enum E6036
  5387 ;; Registers used:
  5388 ;;		wreg, status,2, status,0, pclath, cstack
  5389 ;; Tracked objects:
  5390 ;;		On entry : 0/0
  5391 ;;		On exit  : 0/0
  5392 ;;		Unchanged: 0/0
  5393 ;; Data sizes:     COMMON   BANK0   BANK1   BANK2   BANK3   BANK4   BANK5   BANK6   BANK7   BANK8   BANK9  BANK10  BANK1
      +1  BANK12  BANK13  BANK14  BANK15  BANK16  BANK17  BANK18  BANK19  BANK20  BANK21  BANK22  BANK23  BANK24  BANK25
  5394 ;;      Params:         0       0       0       0       0       0       0       0       0       0       0       0       
      +0       0       0       0       0       0       0       0       0       0       0       0       0       0       0
  5395 ;;      Locals:         2       0       0       0       0       0       0       0       0       0       0       0       
      +0       0       0       0       0       0       0       0       0       0       0       0       0       0       0
  5396 ;;      Temps:          0       0       0       0       0       0       0       0       0       0       0       0       
      +0       0       0       0       0       0       0       0       0       0       0       0       0       0       0
  5397 ;;      Totals:         2       0       0       0       0       0       0       0       0       0       0       0       
      +0       0       0       0       0       0       0       0       0       0       0       0       0       0       0
  5398 ;;Total ram usage:        2 bytes
  5399 ;; Hardware stack levels used: 1
  5400 ;; Hardware stack levels required when called: 2
  5401 ;; This function calls:
  5402 ;;		_I2C_WaitIF
  5403 ;;		_I2C_WaitIdle
  5404 ;; This function is called by:
  5405 ;;		_i2c_write_bytes
  5406 ;;		_i2c_read_bytes
  5407 ;; This function uses a non-reentrant model
  5408 ;;
  5409                           
  5410     1670                     _I2C_WriteByte:	
  5411                           ;psect for function _I2C_WriteByte
  5412                           
  5413                           
  5414                           ;incstack = 0
  5415                           ; Regs used in _I2C_WriteByte: [wreg+status,2+status,0+pclath+cstack]
  5416                           ;I2C_WriteByte@data stored from wreg
  5417     1670  00F3               	movwf	I2C_WriteByte@data
  5418     1671                     l2064:
  5419                           
  5420                           ;I2C.c: 161: I2C_Status_t I2C_WriteByte(uint8_t data);I2C.c: 162: {;I2C.c: 163:     I2C_
      +                          Status_t st;;I2C.c: 165:     st = I2C_WaitIdle(50);
  5421     1671  3032               	movlw	50
  5422     1672  00F0               	movwf	I2C_WaitIdle@timeout_ms
  5423     1673  3000               	movlw	0
  5424     1674  00F1               	movwf	I2C_WaitIdle@timeout_ms+1
  5425     1675  3196  2602  3196   	fcall	_I2C_WaitIdle
  5426     1678  00F4               	movwf	I2C_WriteByte@st
  5427     1679                     l2066:
  5428                           
  5429                           ;I2C.c: 166:     if (st != I2C_OK) return st;
  5430     1679  0874               	movf	I2C_WriteByte@st,w
  5431     167A  1903               	btfsc	3,2
  5432     167B  2E7D               	goto	u1541
  5433     167C  2E7E               	goto	u1540
  5434     167D                     u1541:
  5435     167D  2E80               	goto	l126
  5436     167E                     u1540:
  5437     167E                     l2068:
  5438     167E  0874               	movf	I2C_WriteByte@st,w
  5439     167F  2EA1               	goto	l127
  5440     1680                     l126:
  5441                           
  5442                           ;I2C.c: 168:     PIR1bits.SSP1IF = 0;
  5443     1680  0020               	movlb	0	; select bank0
  5444     1681  1191               	bcf	17,3	;volatile
  5445     1682                     l2072:
  5446                           
  5447                           ;I2C.c: 169:     SSPBUF = data;
  5448     1682  0873               	movf	I2C_WriteByte@data,w
  5449     1683  0024               	movlb	4	; select bank4
  5450     1684  0091               	movwf	17	;volatile
  5451     1685                     l2074:
  5452                           
  5453                           ;I2C.c: 171:     st = I2C_WaitIF(50);
  5454     1685  3032               	movlw	50
  5455     1686  00F0               	movwf	I2C_WaitIF@timeout_ms
  5456     1687  3000               	movlw	0
  5457     1688  00F1               	movwf	I2C_WaitIF@timeout_ms+1
  5458     1689  3195  25C1  3196   	fcall	_I2C_WaitIF
  5459     168C  00F4               	movwf	I2C_WriteByte@st
  5460     168D                     l2076:
  5461                           
  5462                           ;I2C.c: 172:     if (st != I2C_OK) return st;
  5463     168D  0874               	movf	I2C_WriteByte@st,w
  5464     168E  1903               	btfsc	3,2
  5465     168F  2E91               	goto	u1551
  5466     1690  2E92               	goto	u1550
  5467     1691                     u1551:
  5468     1691  2E93               	goto	l128
  5469     1692                     u1550:
  5470     1692  2E7E               	goto	l2068
  5471     1693                     l128:
  5472                           
  5473                           ;I2C.c: 175:     if (PIR2bits.BCL1IF)
  5474     1693  0020               	movlb	0	; select bank0
  5475     1694  1D92               	btfss	18,3	;volatile
  5476     1695  2E97               	goto	u1561
  5477     1696  2E98               	goto	u1560
  5478     1697                     u1561:
  5479     1697  2E9B               	goto	l129
  5480     1698                     u1560:
  5481     1698                     l2082:
  5482                           
  5483                           ;I2C.c: 176:     {;I2C.c: 177:         PIR2bits.BCL1IF = 0;
  5484     1698  1192               	bcf	18,3	;volatile
  5485     1699                     l2084:
  5486                           
  5487                           ;I2C.c: 178:         return I2C_BUS_COLLISION;
  5488     1699  3003               	movlw	3
  5489     169A  2EA1               	goto	l127
  5490     169B                     l129:	
  5491                           ;I2C.c: 179:     }
  5492                           
  5493                           
  5494                           ;I2C.c: 182:     PIR1bits.SSP1IF = 0;
  5495     169B  1191               	bcf	17,3	;volatile
  5496     169C                     l2088:
  5497                           
  5498                           ;I2C.c: 183:     return (SSPCON2bits.ACKSTAT == 0) ? I2C_OK : I2C_NAK;
  5499     169C  0024               	movlb	4	; select bank4
  5500     169D  0E16               	swapf	22,w	;volatile
  5501     169E  0C89               	rrf	9,f
  5502     169F  0C89               	rrf	9,f
  5503     16A0  3901               	andlw	1
  5504     16A1                     l127:
  5505     16A1  0008               	return
  5506     16A2                     __end_of_I2C_WriteByte:
  5507                           
  5508                           	psect	text13
  5509     15DF                     __ptext13:	
  5510 ;; *************** function _I2C_Stop *****************
  5511 ;; Defined at:
  5512 ;;		line 138 in file "I2C.c"
  5513 ;; Parameters:    Size  Location     Type
  5514 ;;		None
  5515 ;; Auto vars:     Size  Location     Type
  5516 ;;  st              1    3[COMMON] enum E6036
  5517 ;; Return value:  Size  Location     Type
  5518 ;;                  1    wreg      enum E6036
  5519 ;; Registers used:
  5520 ;;		wreg, status,2, status,0, pclath, cstack
  5521 ;; Tracked objects:
  5522 ;;		On entry : 0/0
  5523 ;;		On exit  : 0/0
  5524 ;;		Unchanged: 0/0
  5525 ;; Data sizes:     COMMON   BANK0   BANK1   BANK2   BANK3   BANK4   BANK5   BANK6   BANK7   BANK8   BANK9  BANK10  BANK1
      +1  BANK12  BANK13  BANK14  BANK15  BANK16  BANK17  BANK18  BANK19  BANK20  BANK21  BANK22  BANK23  BANK24  BANK25
  5526 ;;      Params:         0       0       0       0       0       0       0       0       0       0       0       0       
      +0       0       0       0       0       0       0       0       0       0       0       0       0       0       0
  5527 ;;      Locals:         1       0       0       0       0       0       0       0       0       0       0       0       
      +0       0       0       0       0       0       0       0       0       0       0       0       0       0       0
  5528 ;;      Temps:          0       0       0       0       0       0       0       0       0       0       0       0       
      +0       0       0       0       0       0       0       0       0       0       0       0       0       0       0
  5529 ;;      Totals:         1       0       0       0       0       0       0       0       0       0       0       0       
      +0       0       0       0       0       0       0       0       0       0       0       0       0       0       0
  5530 ;;Total ram usage:        1 bytes
  5531 ;; Hardware stack levels used: 1
  5532 ;; Hardware stack levels required when called: 2
  5533 ;; This function calls:
  5534 ;;		_I2C_WaitIF
  5535 ;;		_I2C_WaitIdle
  5536 ;; This function is called by:
  5537 ;;		_i2c_write_bytes
  5538 ;;		_i2c_read_bytes
  5539 ;; This function uses a non-reentrant model
  5540 ;;
  5541                           
  5542     15DF                     _I2C_Stop:	
  5543                           ;psect for function _I2C_Stop
  5544                           
  5545     15DF                     l2052:	
  5546                           ;incstack = 0
  5547                           ; Regs used in _I2C_Stop: [wreg+status,2+status,0+pclath+cstack]
  5548                           
  5549                           
  5550                           ;I2C.c: 140:     I2C_Status_t st;;I2C.c: 142:     st = I2C_WaitIdle(50);
  5551     15DF  3032               	movlw	50
  5552     15E0  00F0               	movwf	I2C_WaitIdle@timeout_ms
  5553     15E1  3000               	movlw	0
  5554     15E2  00F1               	movwf	I2C_WaitIdle@timeout_ms+1
  5555     15E3  3196  2602  3195   	fcall	_I2C_WaitIdle
  5556     15E6  00F3               	movwf	I2C_Stop@st
  5557     15E7                     l2054:
  5558                           
  5559                           ;I2C.c: 143:     if (st != I2C_OK) return st;
  5560     15E7  0873               	movf	I2C_Stop@st,w
  5561     15E8  1903               	btfsc	3,2
  5562     15E9  2DEB               	goto	u1521
  5563     15EA  2DEC               	goto	u1520
  5564     15EB                     u1521:
  5565     15EB  2DED               	goto	l121
  5566     15EC                     u1520:
  5567     15EC  2E01               	goto	l122
  5568     15ED                     l121:
  5569                           
  5570                           ;I2C.c: 145:     PIR1bits.SSP1IF = 0;
  5571     15ED  0020               	movlb	0	; select bank0
  5572     15EE  1191               	bcf	17,3	;volatile
  5573                           
  5574                           ;I2C.c: 146:     SSPCON2bits.PEN = 1;
  5575     15EF  0024               	movlb	4	; select bank4
  5576     15F0  1516               	bsf	22,2	;volatile
  5577     15F1                     l2058:
  5578                           
  5579                           ;I2C.c: 148:     st = I2C_WaitIF(50);
  5580     15F1  3032               	movlw	50
  5581     15F2  00F0               	movwf	I2C_WaitIF@timeout_ms
  5582     15F3  3000               	movlw	0
  5583     15F4  00F1               	movwf	I2C_WaitIF@timeout_ms+1
  5584     15F5  3195  25C1  3195   	fcall	_I2C_WaitIF
  5585     15F8  00F3               	movwf	I2C_Stop@st
  5586     15F9                     l2060:
  5587                           
  5588                           ;I2C.c: 149:     if (st != I2C_OK) return st;
  5589     15F9  0873               	movf	I2C_Stop@st,w
  5590     15FA  1903               	btfsc	3,2
  5591     15FB  2DFD               	goto	u1531
  5592     15FC  2DFE               	goto	u1530
  5593     15FD                     u1531:
  5594     15FD  2DFF               	goto	l123
  5595     15FE                     u1530:
  5596     15FE  2E01               	goto	l122
  5597     15FF                     l123:
  5598                           
  5599                           ;I2C.c: 151:     PIR1bits.SSP1IF = 0;
  5600     15FF  0020               	movlb	0	; select bank0
  5601     1600  1191               	bcf	17,3	;volatile
  5602     1601                     l122:	
  5603                           ;I2C.c: 152:     return I2C_OK;;	Return value of _I2C_Stop is never used
  5604                           
  5605     1601  0008               	return
  5606     1602                     __end_of_I2C_Stop:
  5607                           
  5608                           	psect	text14
  5609     164B                     __ptext14:	
  5610 ;; *************** function _I2C_Start *****************
  5611 ;; Defined at:
  5612 ;;		line 98 in file "I2C.c"
  5613 ;; Parameters:    Size  Location     Type
  5614 ;;		None
  5615 ;; Auto vars:     Size  Location     Type
  5616 ;;  st              1    3[COMMON] enum E6036
  5617 ;; Return value:  Size  Location     Type
  5618 ;;                  1    wreg      enum E6036
  5619 ;; Registers used:
  5620 ;;		wreg, status,2, status,0, pclath, cstack
  5621 ;; Tracked objects:
  5622 ;;		On entry : 0/0
  5623 ;;		On exit  : 0/0
  5624 ;;		Unchanged: 0/0
  5625 ;; Data sizes:     COMMON   BANK0   BANK1   BANK2   BANK3   BANK4   BANK5   BANK6   BANK7   BANK8   BANK9  BANK10  BANK1
      +1  BANK12  BANK13  BANK14  BANK15  BANK16  BANK17  BANK18  BANK19  BANK20  BANK21  BANK22  BANK23  BANK24  BANK25
  5626 ;;      Params:         0       0       0       0       0       0       0       0       0       0       0       0       
      +0       0       0       0       0       0       0       0       0       0       0       0       0       0       0
  5627 ;;      Locals:         1       0       0       0       0       0       0       0       0       0       0       0       
      +0       0       0       0       0       0       0       0       0       0       0       0       0       0       0
  5628 ;;      Temps:          0       0       0       0       0       0       0       0       0       0       0       0       
      +0       0       0       0       0       0       0       0       0       0       0       0       0       0       0
  5629 ;;      Totals:         1       0       0       0       0       0       0       0       0       0       0       0       
      +0       0       0       0       0       0       0       0       0       0       0       0       0       0       0
  5630 ;;Total ram usage:        1 bytes
  5631 ;; Hardware stack levels used: 1
  5632 ;; Hardware stack levels required when called: 2
  5633 ;; This function calls:
  5634 ;;		_I2C_WaitIF
  5635 ;;		_I2C_WaitIdle
  5636 ;; This function is called by:
  5637 ;;		_i2c_write_bytes
  5638 ;;		_i2c_read_bytes
  5639 ;; This function uses a non-reentrant model
  5640 ;;
  5641                           
  5642     164B                     _I2C_Start:	
  5643                           ;psect for function _I2C_Start
  5644                           
  5645     164B                     l2012:	
  5646                           ;incstack = 0
  5647                           ; Regs used in _I2C_Start: [wreg+status,2+status,0+pclath+cstack]
  5648                           
  5649                           
  5650                           ;I2C.c: 100:     I2C_Status_t st;;I2C.c: 102:     st = I2C_WaitIdle(50);
  5651     164B  3032               	movlw	50
  5652     164C  00F0               	movwf	I2C_WaitIdle@timeout_ms
  5653     164D  3000               	movlw	0
  5654     164E  00F1               	movwf	I2C_WaitIdle@timeout_ms+1
  5655     164F  3196  2602  3196   	fcall	_I2C_WaitIdle
  5656     1652  00F3               	movwf	I2C_Start@st
  5657     1653                     l2014:
  5658                           
  5659                           ;I2C.c: 103:     if (st != I2C_OK) return st;
  5660     1653  0873               	movf	I2C_Start@st,w
  5661     1654  1903               	btfsc	3,2
  5662     1655  2E57               	goto	u1481
  5663     1656  2E58               	goto	u1480
  5664     1657                     u1481:
  5665     1657  2E5A               	goto	l111
  5666     1658                     u1480:
  5667     1658                     l2016:
  5668     1658  0873               	movf	I2C_Start@st,w
  5669     1659  2E6F               	goto	l112
  5670     165A                     l111:
  5671                           
  5672                           ;I2C.c: 105:     PIR1bits.SSP1IF = 0;
  5673     165A  0020               	movlb	0	; select bank0
  5674     165B  1191               	bcf	17,3	;volatile
  5675                           
  5676                           ;I2C.c: 106:     SSPCON2bits.SEN = 1;
  5677     165C  0024               	movlb	4	; select bank4
  5678     165D  1416               	bsf	22,0	;volatile
  5679     165E                     l2020:
  5680                           
  5681                           ;I2C.c: 108:     st = I2C_WaitIF(50);
  5682     165E  3032               	movlw	50
  5683     165F  00F0               	movwf	I2C_WaitIF@timeout_ms
  5684     1660  3000               	movlw	0
  5685     1661  00F1               	movwf	I2C_WaitIF@timeout_ms+1
  5686     1662  3195  25C1  3196   	fcall	_I2C_WaitIF
  5687     1665  00F3               	movwf	I2C_Start@st
  5688     1666                     l2022:
  5689                           
  5690                           ;I2C.c: 109:     if (st != I2C_OK) return st;
  5691     1666  0873               	movf	I2C_Start@st,w
  5692     1667  1903               	btfsc	3,2
  5693     1668  2E6A               	goto	u1491
  5694     1669  2E6B               	goto	u1490
  5695     166A                     u1491:
  5696     166A  2E6C               	goto	l113
  5697     166B                     u1490:
  5698     166B  2E58               	goto	l2016
  5699     166C                     l113:
  5700                           
  5701                           ;I2C.c: 111:     PIR1bits.SSP1IF = 0;
  5702     166C  0020               	movlb	0	; select bank0
  5703     166D  1191               	bcf	17,3	;volatile
  5704     166E                     l2028:
  5705                           
  5706                           ;I2C.c: 112:     return I2C_OK;
  5707     166E  3000               	movlw	0
  5708     166F                     l112:
  5709     166F  0008               	return
  5710     1670                     __end_of_I2C_Start:
  5711                           
  5712                           	psect	text15
  5713     1626                     __ptext15:	
  5714 ;; *************** function _I2C_RepeatedStart *****************
  5715 ;; Defined at:
  5716 ;;		line 118 in file "I2C.c"
  5717 ;; Parameters:    Size  Location     Type
  5718 ;;		None
  5719 ;; Auto vars:     Size  Location     Type
  5720 ;;  st              1    3[COMMON] enum E6036
  5721 ;; Return value:  Size  Location     Type
  5722 ;;                  1    wreg      enum E6036
  5723 ;; Registers used:
  5724 ;;		wreg, status,2, status,0, pclath, cstack
  5725 ;; Tracked objects:
  5726 ;;		On entry : 0/0
  5727 ;;		On exit  : 0/0
  5728 ;;		Unchanged: 0/0
  5729 ;; Data sizes:     COMMON   BANK0   BANK1   BANK2   BANK3   BANK4   BANK5   BANK6   BANK7   BANK8   BANK9  BANK10  BANK1
      +1  BANK12  BANK13  BANK14  BANK15  BANK16  BANK17  BANK18  BANK19  BANK20  BANK21  BANK22  BANK23  BANK24  BANK25
  5730 ;;      Params:         0       0       0       0       0       0       0       0       0       0       0       0       
      +0       0       0       0       0       0       0       0       0       0       0       0       0       0       0
  5731 ;;      Locals:         1       0       0       0       0       0       0       0       0       0       0       0       
      +0       0       0       0       0       0       0       0       0       0       0       0       0       0       0
  5732 ;;      Temps:          0       0       0       0       0       0       0       0       0       0       0       0       
      +0       0       0       0       0       0       0       0       0       0       0       0       0       0       0
  5733 ;;      Totals:         1       0       0       0       0       0       0       0       0       0       0       0       
      +0       0       0       0       0       0       0       0       0       0       0       0       0       0       0
  5734 ;;Total ram usage:        1 bytes
  5735 ;; Hardware stack levels used: 1
  5736 ;; Hardware stack levels required when called: 2
  5737 ;; This function calls:
  5738 ;;		_I2C_WaitIF
  5739 ;;		_I2C_WaitIdle
  5740 ;; This function is called by:
  5741 ;;		_i2c_read_bytes
  5742 ;; This function uses a non-reentrant model
  5743 ;;
  5744                           
  5745     1626                     _I2C_RepeatedStart:	
  5746                           ;psect for function _I2C_RepeatedStart
  5747                           
  5748     1626                     l2032:	
  5749                           ;incstack = 0
  5750                           ; Regs used in _I2C_RepeatedStart: [wreg+status,2+status,0+pclath+cstack]
  5751                           
  5752                           
  5753                           ;I2C.c: 120:     I2C_Status_t st;;I2C.c: 122:     st = I2C_WaitIdle(50);
  5754     1626  3032               	movlw	50
  5755     1627  00F0               	movwf	I2C_WaitIdle@timeout_ms
  5756     1628  3000               	movlw	0
  5757     1629  00F1               	movwf	I2C_WaitIdle@timeout_ms+1
  5758     162A  3196  2602  3196   	fcall	_I2C_WaitIdle
  5759     162D  00F3               	movwf	I2C_RepeatedStart@st
  5760     162E                     l2034:
  5761                           
  5762                           ;I2C.c: 123:     if (st != I2C_OK) return st;
  5763     162E  0873               	movf	I2C_RepeatedStart@st,w
  5764     162F  1903               	btfsc	3,2
  5765     1630  2E32               	goto	u1501
  5766     1631  2E33               	goto	u1500
  5767     1632                     u1501:
  5768     1632  2E35               	goto	l116
  5769     1633                     u1500:
  5770     1633                     l2036:
  5771     1633  0873               	movf	I2C_RepeatedStart@st,w
  5772     1634  2E4A               	goto	l117
  5773     1635                     l116:
  5774                           
  5775                           ;I2C.c: 125:     PIR1bits.SSP1IF = 0;
  5776     1635  0020               	movlb	0	; select bank0
  5777     1636  1191               	bcf	17,3	;volatile
  5778                           
  5779                           ;I2C.c: 126:     SSPCON2bits.RSEN = 1;
  5780     1637  0024               	movlb	4	; select bank4
  5781     1638  1496               	bsf	22,1	;volatile
  5782     1639                     l2040:
  5783                           
  5784                           ;I2C.c: 128:     st = I2C_WaitIF(50);
  5785     1639  3032               	movlw	50
  5786     163A  00F0               	movwf	I2C_WaitIF@timeout_ms
  5787     163B  3000               	movlw	0
  5788     163C  00F1               	movwf	I2C_WaitIF@timeout_ms+1
  5789     163D  3195  25C1  3196   	fcall	_I2C_WaitIF
  5790     1640  00F3               	movwf	I2C_RepeatedStart@st
  5791     1641                     l2042:
  5792                           
  5793                           ;I2C.c: 129:     if (st != I2C_OK) return st;
  5794     1641  0873               	movf	I2C_RepeatedStart@st,w
  5795     1642  1903               	btfsc	3,2
  5796     1643  2E45               	goto	u1511
  5797     1644  2E46               	goto	u1510
  5798     1645                     u1511:
  5799     1645  2E47               	goto	l118
  5800     1646                     u1510:
  5801     1646  2E33               	goto	l2036
  5802     1647                     l118:
  5803                           
  5804                           ;I2C.c: 131:     PIR1bits.SSP1IF = 0;
  5805     1647  0020               	movlb	0	; select bank0
  5806     1648  1191               	bcf	17,3	;volatile
  5807     1649                     l2048:
  5808                           
  5809                           ;I2C.c: 132:     return I2C_OK;
  5810     1649  3000               	movlw	0
  5811     164A                     l117:
  5812     164A  0008               	return
  5813     164B                     __end_of_I2C_RepeatedStart:
  5814                           
  5815                           	psect	text16
  5816     175F                     __ptext16:	
  5817 ;; *************** function _I2C_ReadByte *****************
  5818 ;; Defined at:
  5819 ;;		line 192 in file "I2C.c"
  5820 ;; Parameters:    Size  Location     Type
  5821 ;;  data            1    wreg     PTR unsigned char 
  5822 ;;		 -> mpu_init@who(1), mpu_wait_data_ready@st(1), mpu_read_raw@b(14), 
  5823 ;;  ack             1    3[COMMON] _Bool 
  5824 ;; Auto vars:     Size  Location     Type
  5825 ;;  data            1    4[COMMON] PTR unsigned char 
  5826 ;;		 -> mpu_init@who(1), mpu_wait_data_ready@st(1), mpu_read_raw@b(14), 
  5827 ;;  st              1    5[COMMON] enum E6036
  5828 ;; Return value:  Size  Location     Type
  5829 ;;                  1    wreg      enum E6036
  5830 ;; Registers used:
  5831 ;;		wreg, fsr1l, fsr1h, status,2, status,0, pclath, cstack
  5832 ;; Tracked objects:
  5833 ;;		On entry : 0/0
  5834 ;;		On exit  : 0/0
  5835 ;;		Unchanged: 0/0
  5836 ;; Data sizes:     COMMON   BANK0   BANK1   BANK2   BANK3   BANK4   BANK5   BANK6   BANK7   BANK8   BANK9  BANK10  BANK1
      +1  BANK12  BANK13  BANK14  BANK15  BANK16  BANK17  BANK18  BANK19  BANK20  BANK21  BANK22  BANK23  BANK24  BANK25
  5837 ;;      Params:         1       0       0       0       0       0       0       0       0       0       0       0       
      +0       0       0       0       0       0       0       0       0       0       0       0       0       0       0
  5838 ;;      Locals:         2       0       0       0       0       0       0       0       0       0       0       0       
      +0       0       0       0       0       0       0       0       0       0       0       0       0       0       0
  5839 ;;      Temps:          0       0       0       0       0       0       0       0       0       0       0       0       
      +0       0       0       0       0       0       0       0       0       0       0       0       0       0       0
  5840 ;;      Totals:         3       0       0       0       0       0       0       0       0       0       0       0       
      +0       0       0       0       0       0       0       0       0       0       0       0       0       0       0
  5841 ;;Total ram usage:        3 bytes
  5842 ;; Hardware stack levels used: 1
  5843 ;; Hardware stack levels required when called: 2
  5844 ;; This function calls:
  5845 ;;		_I2C_WaitIF
  5846 ;;		_I2C_WaitIdle
  5847 ;; This function is called by:
  5848 ;;		_i2c_read_bytes
  5849 ;; This function uses a non-reentrant model
  5850 ;;
  5851                           
  5852     175F                     _I2C_ReadByte:	
  5853                           ;psect for function _I2C_ReadByte
  5854                           
  5855                           
  5856                           ;incstack = 0
  5857                           ; Regs used in _I2C_ReadByte: [wreg+fsr1l+fsr1h+status,2+status,0+pclath+cstack]
  5858                           ;I2C_ReadByte@data stored from wreg
  5859     175F  00F4               	movwf	I2C_ReadByte@data
  5860     1760                     l2092:
  5861                           
  5862                           ;I2C.c: 192: I2C_Status_t I2C_ReadByte(uint8_t *data, _Bool ack);I2C.c: 193: {;I2C.c: 19
      +                          4:     I2C_Status_t st;;I2C.c: 196:     if (data == ((void*)0)) return I2C_TIMEOUT;
  5863     1760  0874               	movf	I2C_ReadByte@data,w
  5864     1761  1D03               	btfss	3,2
  5865     1762  2F64               	goto	u1571
  5866     1763  2F65               	goto	u1570
  5867     1764                     u1571:
  5868     1764  2F67               	goto	l2098
  5869     1765                     u1570:
  5870     1765                     l2094:
  5871     1765  3002               	movlw	2
  5872     1766  2FAB               	goto	l133
  5873     1767                     l2098:
  5874                           
  5875                           ;I2C.c: 198:     st = I2C_WaitIdle(50);
  5876     1767  3032               	movlw	50
  5877     1768  00F0               	movwf	I2C_WaitIdle@timeout_ms
  5878     1769  3000               	movlw	0
  5879     176A  00F1               	movwf	I2C_WaitIdle@timeout_ms+1
  5880     176B  3196  2602  3197   	fcall	_I2C_WaitIdle
  5881     176E  00F5               	movwf	I2C_ReadByte@st
  5882     176F                     l2100:
  5883                           
  5884                           ;I2C.c: 199:     if (st != I2C_OK) return st;
  5885     176F  0875               	movf	I2C_ReadByte@st,w
  5886     1770  1903               	btfsc	3,2
  5887     1771  2F73               	goto	u1581
  5888     1772  2F74               	goto	u1580
  5889     1773                     u1581:
  5890     1773  2F76               	goto	l134
  5891     1774                     u1580:
  5892     1774                     l2102:
  5893     1774  0875               	movf	I2C_ReadByte@st,w
  5894     1775  2FAB               	goto	l133
  5895     1776                     l134:
  5896                           
  5897                           ;I2C.c: 202:     PIR1bits.SSP1IF = 0;
  5898     1776  0020               	movlb	0	; select bank0
  5899     1777  1191               	bcf	17,3	;volatile
  5900                           
  5901                           ;I2C.c: 203:     SSPCON2bits.RCEN = 1;
  5902     1778  0024               	movlb	4	; select bank4
  5903     1779  1596               	bsf	22,3	;volatile
  5904     177A                     l2106:
  5905                           
  5906                           ;I2C.c: 205:     st = I2C_WaitIF(50);
  5907     177A  3032               	movlw	50
  5908     177B  00F0               	movwf	I2C_WaitIF@timeout_ms
  5909     177C  3000               	movlw	0
  5910     177D  00F1               	movwf	I2C_WaitIF@timeout_ms+1
  5911     177E  3195  25C1  3197   	fcall	_I2C_WaitIF
  5912     1781  00F5               	movwf	I2C_ReadByte@st
  5913     1782                     l2108:
  5914                           
  5915                           ;I2C.c: 206:     if (st != I2C_OK) return st;
  5916     1782  0875               	movf	I2C_ReadByte@st,w
  5917     1783  1903               	btfsc	3,2
  5918     1784  2F86               	goto	u1591
  5919     1785  2F87               	goto	u1590
  5920     1786                     u1591:
  5921     1786  2F88               	goto	l2114
  5922     1787                     u1590:
  5923     1787  2F74               	goto	l2102
  5924     1788                     l2114:
  5925                           
  5926                           ;I2C.c: 208:     *data = SSPBUF;
  5927     1788  0874               	movf	I2C_ReadByte@data,w
  5928     1789  0086               	movwf	6
  5929     178A  0187               	clrf	7
  5930     178B  0024               	movlb	4	; select bank4
  5931     178C  0811               	movf	17,w	;volatile
  5932     178D  0081               	movwf	1
  5933     178E                     l2116:
  5934                           
  5935                           ;I2C.c: 211:     PIR1bits.SSP1IF = 0;
  5936     178E  0020               	movlb	0	; select bank0
  5937     178F  1191               	bcf	17,3	;volatile
  5938     1790                     l2118:
  5939                           
  5940                           ;I2C.c: 212:     SSPCON2bits.ACKDT = (ack ? 0 : 1);
  5941     1790  0873               	movf	I2C_ReadByte@ack,w
  5942     1791  1903               	btfsc	3,2
  5943     1792  2F94               	goto	u1601
  5944     1793  2F97               	goto	u1600
  5945     1794                     u1601:
  5946     1794  0024               	movlb	4	; select bank4
  5947     1795  1696               	bsf	22,5	;volatile
  5948     1796  2F99               	goto	u1614
  5949     1797                     u1600:
  5950     1797  0024               	movlb	4	; select bank4
  5951     1798  1296               	bcf	22,5	;volatile
  5952     1799                     u1614:
  5953     1799                     l2120:
  5954                           
  5955                           ;I2C.c: 213:     SSPCON2bits.ACKEN = 1;
  5956     1799  1616               	bsf	22,4	;volatile
  5957     179A                     l2122:
  5958                           
  5959                           ;I2C.c: 215:     st = I2C_WaitIF(50);
  5960     179A  3032               	movlw	50
  5961     179B  00F0               	movwf	I2C_WaitIF@timeout_ms
  5962     179C  3000               	movlw	0
  5963     179D  00F1               	movwf	I2C_WaitIF@timeout_ms+1
  5964     179E  3195  25C1  3197   	fcall	_I2C_WaitIF
  5965     17A1  00F5               	movwf	I2C_ReadByte@st
  5966     17A2                     l2124:
  5967                           
  5968                           ;I2C.c: 216:     if (st != I2C_OK) return st;
  5969     17A2  0875               	movf	I2C_ReadByte@st,w
  5970     17A3  1903               	btfsc	3,2
  5971     17A4  2FA6               	goto	u1621
  5972     17A5  2FA7               	goto	u1620
  5973     17A6                     u1621:
  5974     17A6  2FA8               	goto	l136
  5975     17A7                     u1620:
  5976     17A7  2F74               	goto	l2102
  5977     17A8                     l136:
  5978                           
  5979                           ;I2C.c: 218:     PIR1bits.SSP1IF = 0;
  5980     17A8  0020               	movlb	0	; select bank0
  5981     17A9  1191               	bcf	17,3	;volatile
  5982     17AA                     l2130:
  5983                           
  5984                           ;I2C.c: 219:     return I2C_OK;
  5985     17AA  3000               	movlw	0
  5986     17AB                     l133:
  5987     17AB  0008               	return
  5988     17AC                     __end_of_I2C_ReadByte:
  5989                           
  5990                           	psect	text17
  5991     1602                     __ptext17:	
  5992 ;; *************** function _I2C_WaitIdle *****************
  5993 ;; Defined at:
  5994 ;;		line 81 in file "I2C.c"
  5995 ;; Parameters:    Size  Location     Type
  5996 ;;  timeout_ms      2    0[COMMON] unsigned short 
  5997 ;; Auto vars:     Size  Location     Type
  5998 ;;		None
  5999 ;; Return value:  Size  Location     Type
  6000 ;;                  1    wreg      enum E6036
  6001 ;; Registers used:
  6002 ;;		wreg, status,2, status,0
  6003 ;; Tracked objects:
  6004 ;;		On entry : 0/0
  6005 ;;		On exit  : 0/0
  6006 ;;		Unchanged: 0/0
  6007 ;; Data sizes:     COMMON   BANK0   BANK1   BANK2   BANK3   BANK4   BANK5   BANK6   BANK7   BANK8   BANK9  BANK10  BANK1
      +1  BANK12  BANK13  BANK14  BANK15  BANK16  BANK17  BANK18  BANK19  BANK20  BANK21  BANK22  BANK23  BANK24  BANK25
  6008 ;;      Params:         2       0       0       0       0       0       0       0       0       0       0       0       
      +0       0       0       0       0       0       0       0       0       0       0       0       0       0       0
  6009 ;;      Locals:         0       0       0       0       0       0       0       0       0       0       0       0       
      +0       0       0       0       0       0       0       0       0       0       0       0       0       0       0
  6010 ;;      Temps:          1       0       0       0       0       0       0       0       0       0       0       0       
      +0       0       0       0       0       0       0       0       0       0       0       0       0       0       0
  6011 ;;      Totals:         3       0       0       0       0       0       0       0       0       0       0       0       
      +0       0       0       0       0       0       0       0       0       0       0       0       0       0       0
  6012 ;;Total ram usage:        3 bytes
  6013 ;; Hardware stack levels used: 1
  6014 ;; Hardware stack levels required when called: 1
  6015 ;; This function calls:
  6016 ;;		Nothing
  6017 ;; This function is called by:
  6018 ;;		_I2C_Start
  6019 ;;		_I2C_RepeatedStart
  6020 ;;		_I2C_Stop
  6021 ;;		_I2C_WriteByte
  6022 ;;		_I2C_ReadByte
  6023 ;; This function uses a non-reentrant model
  6024 ;;
  6025                           
  6026     1602                     _I2C_WaitIdle:	
  6027                           ;psect for function _I2C_WaitIdle
  6028                           
  6029     1602                     l1994:	
  6030                           ;incstack = 0
  6031                           ; Regs used in _I2C_WaitIdle: [wreg+status,2+status,0]
  6032                           
  6033                           
  6034                           ;I2C.c: 81: I2C_Status_t I2C_WaitIdle(uint16_t timeout_ms);I2C.c: 82: {;I2C.c: 83:     w
      +                          hile (timeout_ms--)
  6035     1602  2E18               	goto	l2006
  6036     1603                     l1996:
  6037                           
  6038                           ;I2C.c: 84:     {;I2C.c: 87:         if ((SSPCON2 & 0x1F) == 0 && SSPSTATbits.R_nW == 0)
  6039     1603  0024               	movlb	4	; select bank4
  6040     1604  0816               	movf	22,w	;volatile
  6041     1605  391F               	andlw	31
  6042     1606  1D03               	btfss	3,2
  6043     1607  2E09               	goto	u1451
  6044     1608  2E0A               	goto	u1450
  6045     1609                     u1451:
  6046     1609  2E10               	goto	l2004
  6047     160A                     u1450:
  6048     160A                     l1998:
  6049     160A  1914               	btfsc	20,2	;volatile
  6050     160B  2E0D               	goto	u1461
  6051     160C  2E0E               	goto	u1460
  6052     160D                     u1461:
  6053     160D  2E10               	goto	l2004
  6054     160E                     u1460:
  6055     160E                     l2000:
  6056                           
  6057                           ;I2C.c: 88:             return I2C_OK;
  6058     160E  3000               	movlw	0
  6059     160F  2E25               	goto	l107
  6060     1610                     l2004:
  6061                           
  6062                           ;I2C.c: 90:         _delay((unsigned long)((1)*(32000000/4000.0)));
  6063     1610  300B               	movlw	11
  6064     1611  00F2               	movwf	??_I2C_WaitIdle
  6065     1612  3062               	movlw	98
  6066     1613                     u2877:
  6067     1613  0B89               	decfsz	9,f
  6068     1614  2E13               	goto	u2877
  6069     1615  0BF2               	decfsz	??_I2C_WaitIdle,f
  6070     1616  2E13               	goto	u2877
  6071     1617  3200               	nop2
  6072     1618                     l2006:
  6073                           
  6074                           ;I2C.c: 83:     while (timeout_ms--)
  6075     1618  3001               	movlw	1
  6076     1619  02F0               	subwf	I2C_WaitIdle@timeout_ms,f
  6077     161A  3000               	movlw	0
  6078     161B  3BF1               	subwfb	I2C_WaitIdle@timeout_ms+1,f
  6079     161C  0A70               	incf	I2C_WaitIdle@timeout_ms,w
  6080     161D  1D03               	skipz
  6081     161E  2E23               	goto	u1471
  6082     161F  0A71               	incf	I2C_WaitIdle@timeout_ms+1,w
  6083     1620  1D03               	btfss	3,2
  6084     1621  2E23               	goto	u1471
  6085     1622  2E24               	goto	u1470
  6086     1623                     u1471:
  6087     1623  2E03               	goto	l1996
  6088     1624                     u1470:
  6089     1624                     l2008:
  6090                           
  6091                           ;I2C.c: 92:     return I2C_TIMEOUT;
  6092     1624  3002               	movlw	2
  6093     1625                     l107:
  6094     1625  0008               	return
  6095     1626                     __end_of_I2C_WaitIdle:
  6096                           
  6097                           	psect	text18
  6098     15C1                     __ptext18:	
  6099 ;; *************** function _I2C_WaitIF *****************
  6100 ;; Defined at:
  6101 ;;		line 23 in file "I2C.c"
  6102 ;; Parameters:    Size  Location     Type
  6103 ;;  timeout_ms      2    0[COMMON] unsigned short 
  6104 ;; Auto vars:     Size  Location     Type
  6105 ;;		None
  6106 ;; Return value:  Size  Location     Type
  6107 ;;                  1    wreg      enum E6036
  6108 ;; Registers used:
  6109 ;;		wreg, status,2, status,0
  6110 ;; Tracked objects:
  6111 ;;		On entry : 0/0
  6112 ;;		On exit  : 0/0
  6113 ;;		Unchanged: 0/0
  6114 ;; Data sizes:     COMMON   BANK0   BANK1   BANK2   BANK3   BANK4   BANK5   BANK6   BANK7   BANK8   BANK9  BANK10  BANK1
      +1  BANK12  BANK13  BANK14  BANK15  BANK16  BANK17  BANK18  BANK19  BANK20  BANK21  BANK22  BANK23  BANK24  BANK25
  6115 ;;      Params:         2       0       0       0       0       0       0       0       0       0       0       0       
      +0       0       0       0       0       0       0       0       0       0       0       0       0       0       0
  6116 ;;      Locals:         0       0       0       0       0       0       0       0       0       0       0       0       
      +0       0       0       0       0       0       0       0       0       0       0       0       0       0       0
  6117 ;;      Temps:          1       0       0       0       0       0       0       0       0       0       0       0       
      +0       0       0       0       0       0       0       0       0       0       0       0       0       0       0
  6118 ;;      Totals:         3       0       0       0       0       0       0       0       0       0       0       0       
      +0       0       0       0       0       0       0       0       0       0       0       0       0       0       0
  6119 ;;Total ram usage:        3 bytes
  6120 ;; Hardware stack levels used: 1
  6121 ;; Hardware stack levels required when called: 1
  6122 ;; This function calls:
  6123 ;;		Nothing
  6124 ;; This function is called by:
  6125 ;;		_I2C_Start
  6126 ;;		_I2C_RepeatedStart
  6127 ;;		_I2C_Stop
  6128 ;;		_I2C_WriteByte
  6129 ;;		_I2C_ReadByte
  6130 ;; This function uses a non-reentrant model
  6131 ;;
  6132                           
  6133     15C1                     _I2C_WaitIF:	
  6134                           ;psect for function _I2C_WaitIF
  6135                           
  6136     15C1                     l1980:	
  6137                           ;incstack = 0
  6138                           ; Regs used in _I2C_WaitIF: [wreg+status,2+status,0]
  6139                           
  6140                           
  6141                           ;I2C.c: 23: static I2C_Status_t I2C_WaitIF(uint16_t timeout_ms);I2C.c: 24: {;I2C.c: 25: 
      +                              while (timeout_ms--)
  6142     15C1  2DD1               	goto	l1988
  6143     15C2                     l92:
  6144                           
  6145                           ;I2C.c: 26:     {;I2C.c: 27:         if (PIR1bits.SSP1IF)
  6146     15C2  0020               	movlb	0	; select bank0
  6147     15C3  1D91               	btfss	17,3	;volatile
  6148     15C4  2DC6               	goto	u1431
  6149     15C5  2DC7               	goto	u1430
  6150     15C6                     u1431:
  6151     15C6  2DC9               	goto	l1986
  6152     15C7                     u1430:
  6153     15C7                     l1982:
  6154                           
  6155                           ;I2C.c: 28:             return I2C_OK;
  6156     15C7  3000               	movlw	0
  6157     15C8  2DDE               	goto	l94
  6158     15C9                     l1986:
  6159                           
  6160                           ;I2C.c: 30:         _delay((unsigned long)((1)*(32000000/4000.0)));
  6161     15C9  300B               	movlw	11
  6162     15CA  00F2               	movwf	??_I2C_WaitIF
  6163     15CB  3062               	movlw	98
  6164     15CC                     u2887:
  6165     15CC  0B89               	decfsz	9,f
  6166     15CD  2DCC               	goto	u2887
  6167     15CE  0BF2               	decfsz	??_I2C_WaitIF,f
  6168     15CF  2DCC               	goto	u2887
  6169     15D0  3200               	nop2
  6170     15D1                     l1988:
  6171                           
  6172                           ;I2C.c: 25:     while (timeout_ms--)
  6173     15D1  3001               	movlw	1
  6174     15D2  02F0               	subwf	I2C_WaitIF@timeout_ms,f
  6175     15D3  3000               	movlw	0
  6176     15D4  3BF1               	subwfb	I2C_WaitIF@timeout_ms+1,f
  6177     15D5  0A70               	incf	I2C_WaitIF@timeout_ms,w
  6178     15D6  1D03               	skipz
  6179     15D7  2DDC               	goto	u1441
  6180     15D8  0A71               	incf	I2C_WaitIF@timeout_ms+1,w
  6181     15D9  1D03               	btfss	3,2
  6182     15DA  2DDC               	goto	u1441
  6183     15DB  2DDD               	goto	u1440
  6184     15DC                     u1441:
  6185     15DC  2DC2               	goto	l92
  6186     15DD                     u1440:
  6187     15DD                     l1990:
  6188                           
  6189                           ;I2C.c: 32:     return I2C_TIMEOUT;
  6190     15DD  3002               	movlw	2
  6191     15DE                     l94:
  6192     15DE  0008               	return
  6193     15DF                     __end_of_I2C_WaitIF:
  6194                           
  6195                           	psect	text19
  6196     0905                     __ptext19:	
  6197 ;; *************** function _mpu_frame_sane *****************
  6198 ;; Defined at:
  6199 ;;		line 156 in file "main.c"
  6200 ;; Parameters:    Size  Location     Type
  6201 ;;  b               1    wreg     PTR const unsigned char 
  6202 ;;		 -> mpu_read_raw@b(14), 
  6203 ;;  len             1    0[COMMON] unsigned char 
  6204 ;; Auto vars:     Size  Location     Type
  6205 ;;  b               1   11[COMMON] PTR const unsigned char 
  6206 ;;		 -> mpu_read_raw@b(14), 
  6207 ;;  i               1   10[COMMON] unsigned char 
  6208 ;;  traw            2    8[COMMON] short 
  6209 ;;  andv            1    7[COMMON] unsigned char 
  6210 ;;  orv             1    6[COMMON] unsigned char 
  6211 ;; Return value:  Size  Location     Type
  6212 ;;                  1    wreg      _Bool 
  6213 ;; Registers used:
  6214 ;;		wreg, fsr1l, fsr1h, status,2, status,0
  6215 ;; Tracked objects:
  6216 ;;		On entry : 0/0
  6217 ;;		On exit  : 0/0
  6218 ;;		Unchanged: 0/0
  6219 ;; Data sizes:     COMMON   BANK0   BANK1   BANK2   BANK3   BANK4   BANK5   BANK6   BANK7   BANK8   BANK9  BANK10  BANK1
      +1  BANK12  BANK13  BANK14  BANK15  BANK16  BANK17  BANK18  BANK19  BANK20  BANK21  BANK22  BANK23  BANK24  BANK25
  6220 ;;      Params:         1       0       0       0       0       0       0       0       0       0       0       0       
      +0       0       0       0       0       0       0       0       0       0       0       0       0       0       0
  6221 ;;      Locals:         6       0       0       0       0       0       0       0       0       0       0       0       
      +0       0       0       0       0       0       0       0       0       0       0       0       0       0       0
  6222 ;;      Temps:          5       0       0       0       0       0       0       0       0       0       0       0       
      +0       0       0       0       0       0       0       0       0       0       0       0       0       0       0
  6223 ;;      Totals:        12       0       0       0       0       0       0       0       0       0       0       0       
      +0       0       0       0       0       0       0       0       0       0       0       0       0       0       0
  6224 ;;Total ram usage:       12 bytes
  6225 ;; Hardware stack levels used: 1
  6226 ;; Hardware stack levels required when called: 1
  6227 ;; This function calls:
  6228 ;;		Nothing
  6229 ;; This function is called by:
  6230 ;;		_mpu_read_raw
  6231 ;; This function uses a non-reentrant model
  6232 ;;
  6233                           
  6234     0905                     _mpu_frame_sane:	
  6235                           ;psect for function _mpu_frame_sane
  6236                           
  6237                           
  6238                           ;incstack = 0
  6239                           ; Regs used in _mpu_frame_sane: [wreg+fsr1l+fsr1h+status,2+status,0]
  6240                           ;mpu_frame_sane@b stored from wreg
  6241     0905  00FB               	movwf	mpu_frame_sane@b
  6242     0906                     l2264:
  6243                           
  6244                           ;main.c: 156: static _Bool mpu_frame_sane(const uint8_t *b, uint8_t len);main.c: 157: {;
      +                          main.c: 158:     uint8_t orv = 0, andv = 0xFF;
  6245     0906  01F6               	clrf	mpu_frame_sane@orv
  6246     0907                     l2266:
  6247     0907  30FF               	movlw	255
  6248     0908  00F7               	movwf	mpu_frame_sane@andv
  6249     0909                     l2268:
  6250                           
  6251                           ;main.c: 159:     for (uint8_t i = 0; i < len; i++)
  6252     0909  01FA               	clrf	mpu_frame_sane@i
  6253     090A  2923               	goto	l2274
  6254     090B                     l2270:
  6255                           
  6256                           ;main.c: 160:     {;main.c: 161:         orv |= b[i];
  6257     090B  087A               	movf	mpu_frame_sane@i,w
  6258     090C  077B               	addwf	mpu_frame_sane@b,w
  6259     090D  00F1               	movwf	??_mpu_frame_sane
  6260     090E  0871               	movf	??_mpu_frame_sane,w
  6261     090F  0086               	movwf	6
  6262     0910  0187               	clrf	7
  6263     0911  0801               	movf	1,w
  6264     0912  00F2               	movwf	??_mpu_frame_sane+1
  6265     0913  0872               	movf	??_mpu_frame_sane+1,w
  6266     0914  04F6               	iorwf	mpu_frame_sane@orv,f
  6267                           
  6268                           ;main.c: 162:         andv &= b[i];
  6269     0915  087A               	movf	mpu_frame_sane@i,w
  6270     0916  077B               	addwf	mpu_frame_sane@b,w
  6271     0917  00F1               	movwf	??_mpu_frame_sane
  6272     0918  0871               	movf	??_mpu_frame_sane,w
  6273     0919  0086               	movwf	6
  6274     091A  0187               	clrf	7
  6275     091B  0801               	movf	1,w
  6276     091C  00F2               	movwf	??_mpu_frame_sane+1
  6277     091D  0872               	movf	??_mpu_frame_sane+1,w
  6278     091E  05F7               	andwf	mpu_frame_sane@andv,f
  6279     091F                     l2272:
  6280                           
  6281                           ;main.c: 163:     }
  6282     091F  3001               	movlw	1
  6283     0920  00F1               	movwf	??_mpu_frame_sane
  6284     0921  0871               	movf	??_mpu_frame_sane,w
  6285     0922  07FA               	addwf	mpu_frame_sane@i,f
  6286     0923                     l2274:
  6287     0923  0870               	movf	mpu_frame_sane@len,w
  6288     0924  027A               	subwf	mpu_frame_sane@i,w
  6289     0925  1C03               	skipc
  6290     0926  2928               	goto	u1831
  6291     0927  2929               	goto	u1830
  6292     0928                     u1831:
  6293     0928  290B               	goto	l2270
  6294     0929                     u1830:
  6295     0929                     l2276:
  6296                           
  6297                           ;main.c: 164:     if (orv == 0x00 || andv == 0xFF) return 0;
  6298     0929  0876               	movf	mpu_frame_sane@orv,w
  6299     092A  1903               	btfsc	3,2
  6300     092B  292D               	goto	u1841
  6301     092C  292E               	goto	u1840
  6302     092D                     u1841:
  6303     092D  2933               	goto	l2280
  6304     092E                     u1840:
  6305     092E                     l2278:
  6306     092E  0A77               	incf	mpu_frame_sane@andv,w
  6307     092F  1D03               	btfss	3,2
  6308     0930  2932               	goto	u1851
  6309     0931  2933               	goto	u1850
  6310     0932                     u1851:
  6311     0932  2935               	goto	l2284
  6312     0933                     u1850:
  6313     0933                     l2280:
  6314     0933  3000               	movlw	0
  6315     0934  2968               	goto	l275
  6316     0935                     l2284:
  6317                           
  6318                           ;main.c: 166:     int16_t traw = (int16_t)((uint16_t)b[6] << 8 | b[7]);
  6319     0935  087B               	movf	mpu_frame_sane@b,w
  6320     0936  3E07               	addlw	7
  6321     0937  0086               	movwf	6
  6322     0938  0187               	clrf	7
  6323     0939  0801               	movf	1,w
  6324     093A  00F1               	movwf	??_mpu_frame_sane
  6325     093B  01F2               	clrf	??_mpu_frame_sane+1
  6326     093C  087B               	movf	mpu_frame_sane@b,w
  6327     093D  3E06               	addlw	6
  6328     093E  0086               	movwf	6
  6329     093F  0187               	clrf	7
  6330     0940  0801               	movf	1,w
  6331     0941  00F3               	movwf	??_mpu_frame_sane+2
  6332     0942  01F4               	clrf	??_mpu_frame_sane+3
  6333     0943  0873               	movf	??_mpu_frame_sane+2,w
  6334     0944  00F4               	movwf	??_mpu_frame_sane+3
  6335     0945  01F3               	clrf	??_mpu_frame_sane+2
  6336     0946  0871               	movf	??_mpu_frame_sane,w
  6337     0947  0473               	iorwf	??_mpu_frame_sane+2,w
  6338     0948  00F8               	movwf	mpu_frame_sane@traw
  6339     0949  0872               	movf	??_mpu_frame_sane+1,w
  6340     094A  0474               	iorwf	??_mpu_frame_sane+3,w
  6341     094B  00F9               	movwf	mpu_frame_sane@traw+1
  6342     094C                     l2286:
  6343                           
  6344                           ;main.c: 167:     if (traw < -15000 || traw > 15000) return 0;
  6345     094C  0879               	movf	mpu_frame_sane@traw+1,w
  6346     094D  3A80               	xorlw	128
  6347     094E  00F1               	movwf	??_mpu_frame_sane
  6348     094F  3045               	movlw	69
  6349     0950  0271               	subwf	??_mpu_frame_sane,w
  6350     0951  1D03               	skipz
  6351     0952  2955               	goto	u1865
  6352     0953  3068               	movlw	104
  6353     0954  0278               	subwf	mpu_frame_sane@traw,w
  6354     0955                     u1865:
  6355     0955  1C03               	skipc
  6356     0956  2958               	goto	u1861
  6357     0957  2959               	goto	u1860
  6358     0958                     u1861:
  6359     0958  2933               	goto	l2280
  6360     0959                     u1860:
  6361     0959                     l2288:
  6362     0959  0879               	movf	mpu_frame_sane@traw+1,w
  6363     095A  3A80               	xorlw	128
  6364     095B  00F1               	movwf	??_mpu_frame_sane
  6365     095C  30BA               	movlw	186
  6366     095D  0271               	subwf	??_mpu_frame_sane,w
  6367     095E  1D03               	skipz
  6368     095F  2962               	goto	u1875
  6369     0960  3099               	movlw	153
  6370     0961  0278               	subwf	mpu_frame_sane@traw,w
  6371     0962                     u1875:
  6372     0962  1C03               	skipc
  6373     0963  2965               	goto	u1871
  6374     0964  2966               	goto	u1870
  6375     0965                     u1871:
  6376     0965  2967               	goto	l2294
  6377     0966                     u1870:
  6378     0966  2933               	goto	l2280
  6379     0967                     l2294:
  6380                           
  6381                           ;main.c: 169:     return 1;
  6382     0967  3001               	movlw	1
  6383     0968                     l275:
  6384     0968  0008               	return
  6385     0969                     __end_of_mpu_frame_sane:
  6386                           
  6387                           	psect	text20
  6388     16D5                     __ptext20:	
  6389 ;; *************** function _initMain *****************
  6390 ;; Defined at:
  6391 ;;		line 460 in file "main.c"
  6392 ;; Parameters:    Size  Location     Type
  6393 ;;		None
  6394 ;; Auto vars:     Size  Location     Type
  6395 ;;		None
  6396 ;; Return value:  Size  Location     Type
  6397 ;;                  1    wreg      void 
  6398 ;; Registers used:
  6399 ;;		wreg, status,2, status,0, pclath, cstack
  6400 ;; Tracked objects:
  6401 ;;		On entry : 0/0
  6402 ;;		On exit  : 0/0
  6403 ;;		Unchanged: 0/0
  6404 ;; Data sizes:     COMMON   BANK0   BANK1   BANK2   BANK3   BANK4   BANK5   BANK6   BANK7   BANK8   BANK9  BANK10  BANK1
      +1  BANK12  BANK13  BANK14  BANK15  BANK16  BANK17  BANK18  BANK19  BANK20  BANK21  BANK22  BANK23  BANK24  BANK25
  6405 ;;      Params:         0       0       0       0       0       0       0       0       0       0       0       0       
      +0       0       0       0       0       0       0       0       0       0       0       0       0       0       0
  6406 ;;      Locals:         0       0       0       0       0       0       0       0       0       0       0       0       
      +0       0       0       0       0       0       0       0       0       0       0       0       0       0       0
  6407 ;;      Temps:          1       0       0       0       0       0       0       0       0       0       0       0       
      +0       0       0       0       0       0       0       0       0       0       0       0       0       0       0
  6408 ;;      Totals:         1       0       0       0       0       0       0       0       0       0       0       0       
      +0       0       0       0       0       0       0       0       0       0       0       0       0       0       0
  6409 ;;Total ram usage:        1 bytes
  6410 ;; Hardware stack levels used: 1
  6411 ;; Hardware stack levels required when called: 2
  6412 ;; This function calls:
  6413 ;;		_internal_32
  6414 ;; This function is called by:
  6415 ;;		_main
  6416 ;; This function uses a non-reentrant model
  6417 ;;
  6418                           
  6419     16D5                     _initMain:	
  6420                           ;psect for function _initMain
  6421                           
  6422     16D5                     l2790:	
  6423                           ;incstack = 0
  6424                           ; Regs used in _initMain: [wreg+status,2+status,0+pclath+cstack]
  6425                           
  6426                           
  6427                           ;main.c: 462:     internal_32();
  6428     16D5  3195  251F  3196   	fcall	_internal_32
  6429     16D8                     l2792:
  6430                           
  6431                           ;main.c: 463:     _delay((unsigned long)((10)*(32000000/4000.0)));
  6432     16D8  3068               	movlw	104
  6433     16D9  00F0               	movwf	??_initMain
  6434     16DA  30E4               	movlw	228
  6435     16DB                     u2897:
  6436     16DB  0B89               	decfsz	9,f
  6437     16DC  2EDB               	goto	u2897
  6438     16DD  0BF0               	decfsz	??_initMain,f
  6439     16DE  2EDB               	goto	u2897
  6440     16DF  3200               	nop2
  6441     16E0                     l2794:
  6442                           
  6443                           ;main.c: 465:     TRISBbits.TRISB2 = 0;
  6444     16E0  0021               	movlb	1	; select bank1
  6445     16E1  110D               	bcf	13,2	;volatile
  6446     16E2                     l2796:
  6447                           
  6448                           ;main.c: 466:     ANSELBbits.ANSB2 = 0;
  6449     16E2  0023               	movlb	3	; select bank3
  6450     16E3  110D               	bcf	13,2	;volatile
  6451     16E4                     l2798:
  6452                           
  6453                           ;main.c: 468:     ANSELCbits.ANSC4 = 0;
  6454     16E4  120E               	bcf	14,4	;volatile
  6455     16E5                     l2800:
  6456                           
  6457                           ;main.c: 469:     ANSELCbits.ANSC5 = 0;
  6458     16E5  128E               	bcf	14,5	;volatile
  6459     16E6                     l2802:
  6460                           
  6461                           ;main.c: 470:     TRISCbits.TRISC4 = 1;
  6462     16E6  0021               	movlb	1	; select bank1
  6463     16E7  160E               	bsf	14,4	;volatile
  6464     16E8                     l2804:
  6465                           
  6466                           ;main.c: 471:     TRISCbits.TRISC5 = 1;
  6467     16E8  168E               	bsf	14,5	;volatile
  6468     16E9                     l2806:
  6469                           
  6470                           ;main.c: 473:     PPSLOCK = 0x55;
  6471     16E9  3055               	movlw	85
  6472     16EA  003C               	movlb	28	; select bank28
  6473     16EB  008F               	movwf	15	;volsfr
  6474     16EC                     l2808:
  6475                           
  6476                           ;main.c: 474:     PPSLOCK = 0xAA;
  6477     16EC  30AA               	movlw	170
  6478     16ED  008F               	movwf	15	;volsfr
  6479     16EE                     l2810:
  6480                           
  6481                           ;main.c: 475:     PPSLOCKbits.PPSLOCKED = 0x00;
  6482     16EE  100F               	bcf	15,0	;volsfr
  6483     16EF                     l2812:
  6484                           
  6485                           ;main.c: 477:     RB2PPSbits.RB2PPS = 0x14;
  6486     16EF  003D               	movlb	29	; select bank29
  6487     16F0  081A               	movf	26,w	;volatile
  6488     16F1  39E0               	andlw	-32
  6489     16F2  3814               	iorlw	20
  6490     16F3  009A               	movwf	26	;volatile
  6491     16F4                     l2814:
  6492                           
  6493                           ;main.c: 478:     RXPPSbits.RXPPS = 0x0B;
  6494     16F4  003C               	movlb	28	; select bank28
  6495     16F5  0824               	movf	36,w	;volatile
  6496     16F6  39E0               	andlw	-32
  6497     16F7  380B               	iorlw	11
  6498     16F8  00A4               	movwf	36	;volatile
  6499     16F9                     l2816:
  6500                           
  6501                           ;main.c: 479:     RC4PPSbits.RC4PPS = 0x0011;
  6502     16F9  003D               	movlb	29	; select bank29
  6503     16FA  0824               	movf	36,w	;volatile
  6504     16FB  39E0               	andlw	-32
  6505     16FC  3811               	iorlw	17
  6506     16FD  00A4               	movwf	36	;volatile
  6507     16FE                     l2818:
  6508                           
  6509                           ;main.c: 480:     SSPDATPPSbits.SSPDATPPS = 0x0014;
  6510     16FE  003C               	movlb	28	; select bank28
  6511     16FF  0821               	movf	33,w	;volatile
  6512     1700  39E0               	andlw	-32
  6513     1701  3814               	iorlw	20
  6514     1702  00A1               	movwf	33	;volatile
  6515     1703                     l2820:
  6516                           
  6517                           ;main.c: 481:     SSPCLKPPSbits.SSPCLKPPS = 0x0015;
  6518     1703  0820               	movf	32,w	;volatile
  6519     1704  39E0               	andlw	-32
  6520     1705  3815               	iorlw	21
  6521     1706  00A0               	movwf	32	;volatile
  6522     1707                     l2822:
  6523                           
  6524                           ;main.c: 482:     RC5PPSbits.RC5PPS = 0x0010;
  6525     1707  003D               	movlb	29	; select bank29
  6526     1708  0825               	movf	37,w	;volatile
  6527     1709  39E0               	andlw	-32
  6528     170A  3810               	iorlw	16
  6529     170B  00A5               	movwf	37	;volatile
  6530     170C                     l2824:
  6531                           
  6532                           ;main.c: 484:     PPSLOCK = 0x55;
  6533     170C  3055               	movlw	85
  6534     170D  003C               	movlb	28	; select bank28
  6535     170E  008F               	movwf	15	;volsfr
  6536     170F                     l2826:
  6537                           
  6538                           ;main.c: 485:     PPSLOCK = 0xAA;
  6539     170F  30AA               	movlw	170
  6540     1710  008F               	movwf	15	;volsfr
  6541     1711                     l2828:
  6542                           
  6543                           ;main.c: 486:     PPSLOCKbits.PPSLOCKED = 0x01;
  6544     1711  140F               	bsf	15,0	;volsfr
  6545     1712                     l415:
  6546     1712  0008               	return
  6547     1713                     __end_of_initMain:
  6548                           
  6549                           	psect	text21
  6550     151F                     __ptext21:	
  6551 ;; *************** function _internal_32 *****************
  6552 ;; Defined at:
  6553 ;;		line 36 in file "PIC16F1718_Internal.c"
  6554 ;; Parameters:    Size  Location     Type
  6555 ;;		None
  6556 ;; Auto vars:     Size  Location     Type
  6557 ;;		None
  6558 ;; Return value:  Size  Location     Type
  6559 ;;                  1    wreg      void 
  6560 ;; Registers used:
  6561 ;;		None
  6562 ;; Tracked objects:
  6563 ;;		On entry : 0/0
  6564 ;;		On exit  : 0/0
  6565 ;;		Unchanged: 0/0
  6566 ;; Data sizes:     COMMON   BANK0   BANK1   BANK2   BANK3   BANK4   BANK5   BANK6   BANK7   BANK8   BANK9  BANK10  BANK1
      +1  BANK12  BANK13  BANK14  BANK15  BANK16  BANK17  BANK18  BANK19  BANK20  BANK21  BANK22  BANK23  BANK24  BANK25
  6567 ;;      Params:         0       0       0       0       0       0       0       0       0       0       0       0       
      +0       0       0       0       0       0       0       0       0       0       0       0       0       0       0
  6568 ;;      Locals:         0       0       0       0       0       0       0       0       0       0       0       0       
      +0       0       0       0       0       0       0       0       0       0       0       0       0       0       0
  6569 ;;      Temps:          0       0       0       0       0       0       0       0       0       0       0       0       
      +0       0       0       0       0       0       0       0       0       0       0       0       0       0       0
  6570 ;;      Totals:         0       0       0       0       0       0       0       0       0       0       0       0       
      +0       0       0       0       0       0       0       0       0       0       0       0       0       0       0
  6571 ;;Total ram usage:        0 bytes
  6572 ;; Hardware stack levels used: 1
  6573 ;; Hardware stack levels required when called: 1
  6574 ;; This function calls:
  6575 ;;		Nothing
  6576 ;; This function is called by:
  6577 ;;		_initMain
  6578 ;; This function uses a non-reentrant model
  6579 ;;
  6580                           
  6581     151F                     _internal_32:	
  6582                           ;psect for function _internal_32
  6583                           
  6584     151F                     l2386:	
  6585                           ;incstack = 0
  6586                           ; Regs used in _internal_32: []
  6587                           
  6588                           
  6589                           ;PIC16F1718_Internal.c: 38:     SCS0 = 0;
  6590     151F  0021               	movlb	1	; select bank1
  6591     1520  1019               	bcf	25,0	;volatile
  6592                           
  6593                           ;PIC16F1718_Internal.c: 39:     SCS1 = 0;
  6594     1521  1099               	bcf	25,1	;volatile
  6595                           
  6596                           ;PIC16F1718_Internal.c: 42:     IRCF0 = 0;
  6597     1522  1199               	bcf	25,3	;volatile
  6598                           
  6599                           ;PIC16F1718_Internal.c: 43:     IRCF1 = 1;
  6600     1523  1619               	bsf	25,4	;volatile
  6601                           
  6602                           ;PIC16F1718_Internal.c: 44:     IRCF2 = 1;
  6603     1524  1699               	bsf	25,5	;volatile
  6604                           
  6605                           ;PIC16F1718_Internal.c: 45:     IRCF3 = 1;
  6606     1525  1719               	bsf	25,6	;volatile
  6607                           
  6608                           ;PIC16F1718_Internal.c: 48:     SPLLEN = 1;
  6609     1526  1799               	bsf	25,7	;volatile
  6610     1527                     l153:
  6611     1527  0008               	return
  6612     1528                     __end_of_internal_32:
  6613                           
  6614                           	psect	text22
  6615     002F                     __ptext22:	
  6616 ;; *************** function _filter_step *****************
  6617 ;; Defined at:
  6618 ;;		line 365 in file "main.c"
  6619 ;; Parameters:    Size  Location     Type
  6620 ;;  r               1    wreg     PTR const struct .
  6621 ;;		 -> main@r(14), 
  6622 ;; Auto vars:     Size  Location     Type
  6623 ;;  r               1   79[BANK0 ] PTR const struct .
  6624 ;;		 -> main@r(14), 
  6625 ;;  gz              4   75[BANK0 ] long 
  6626 ;;  gy              4   71[BANK0 ] long 
  6627 ;;  gx              4   67[BANK0 ] long 
  6628 ;;  az              4   63[BANK0 ] long 
  6629 ;;  ay              4   59[BANK0 ] long 
  6630 ;;  ax              4   55[BANK0 ] long 
  6631 ;;  gz_m            4   51[BANK0 ] long 
  6632 ;;  gy_m            4   47[BANK0 ] long 
  6633 ;;  gx_m            4   43[BANK0 ] long 
  6634 ;;  az_m            4   39[BANK0 ] long 
  6635 ;;  ay_m            4   35[BANK0 ] long 
  6636 ;;  ax_m            4   31[BANK0 ] long 
  6637 ;; Return value:  Size  Location     Type
  6638 ;;                  1    wreg      void 
  6639 ;; Registers used:
  6640 ;;		wreg, fsr1l, fsr1h, status,2, status,0, pclath, cstack
  6641 ;; Tracked objects:
  6642 ;;		On entry : 0/0
  6643 ;;		On exit  : 0/0
  6644 ;;		Unchanged: 0/0
  6645 ;; Data sizes:     COMMON   BANK0   BANK1   BANK2   BANK3   BANK4   BANK5   BANK6   BANK7   BANK8   BANK9  BANK10  BANK1
      +1  BANK12  BANK13  BANK14  BANK15  BANK16  BANK17  BANK18  BANK19  BANK20  BANK21  BANK22  BANK23  BANK24  BANK25
  6646 ;;      Params:         0       0       0       0       0       0       0       0       0       0       0       0       
      +0       0       0       0       0       0       0       0       0       0       0       0       0       0       0
  6647 ;;      Locals:         0      49       0       0       0       0       0       0       0       0       0       0       
      +0       0       0       0       0       0       0       0       0       0       0       0       0       0       0
  6648 ;;      Temps:          0       5       0       0       0       0       0       0       0       0       0       0       
      +0       0       0       0       0       0       0       0       0       0       0       0       0       0       0
  6649 ;;      Totals:         0      54       0       0       0       0       0       0       0       0       0       0       
      +0       0       0       0       0       0       0       0       0       0       0       0       0       0       0
  6650 ;;Total ram usage:       54 bytes
  6651 ;; Hardware stack levels used: 1
  6652 ;; Hardware stack levels required when called: 3
  6653 ;; This function calls:
  6654 ;;		_median3
  6655 ;;		_raw_to_mdps
  6656 ;;		_raw_to_mg
  6657 ;; This function is called by:
  6658 ;;		_main
  6659 ;; This function uses a non-reentrant model
  6660 ;;
  6661                           
  6662     002F                     _filter_step:	
  6663                           ;psect for function _filter_step
  6664                           
  6665                           
  6666                           ;incstack = 0
  6667                           ; Regs used in _filter_step: [wreg+fsr1l+fsr1h+status,2+status,0+pclath+cstack]
  6668                           ;filter_step@r stored from wreg
  6669     002F  0020               	movlb	0	; select bank0
  6670     0030  00EF               	movwf	filter_step@r
  6671     0031                     l2700:
  6672                           
  6673                           ;main.c: 365: static void filter_step(const mpu_raw_t *r);main.c: 366: {;main.c: 367:   
      +                            int32_t ax = raw_to_mg(r->ax) - g_ax_off_mg;
  6674     0031  086F               	movf	filter_step@r,w
  6675     0032  0086               	movwf	6
  6676     0033  0187               	clrf	7
  6677     0034  3F40               	moviw [0]fsr1
  6678     0035  00AE               	movwf	raw_to_mg@r
  6679     0036  3F41               	moviw [1]fsr1
  6680     0037  00AF               	movwf	raw_to_mg@r+1
  6681     0038  3188  2004  3180   	fcall	_raw_to_mg
  6682     003B  0021               	movlb	1	; select bank1
  6683     003C  0848               	movf	_g_ax_off_mg^(0+128),w
  6684     003D  0020               	movlb	0	; select bank0
  6685     003E  022E               	subwf	?_raw_to_mg,w
  6686     003F  00BA               	movwf	??_filter_step
  6687     0040  0021               	movlb	1	; select bank1
  6688     0041  0849               	movf	(_g_ax_off_mg+1)^(0+128),w
  6689     0042  0020               	movlb	0	; select bank0
  6690     0043  3B2F               	subwfb	?_raw_to_mg+1,w
  6691     0044  00BB               	movwf	??_filter_step+1
  6692     0045  0021               	movlb	1	; select bank1
  6693     0046  084A               	movf	(_g_ax_off_mg+2)^(0+128),w
  6694     0047  0020               	movlb	0	; select bank0
  6695     0048  3B30               	subwfb	?_raw_to_mg+2,w
  6696     0049  00BC               	movwf	??_filter_step+2
  6697     004A  0021               	movlb	1	; select bank1
  6698     004B  084B               	movf	(_g_ax_off_mg+3)^(0+128),w
  6699     004C  0020               	movlb	0	; select bank0
  6700     004D  3B31               	subwfb	?_raw_to_mg+3,w
  6701     004E  00BD               	movwf	??_filter_step+3
  6702     004F  083D               	movf	??_filter_step+3,w
  6703     0050  00DA               	movwf	filter_step@ax+3
  6704     0051  083C               	movf	??_filter_step+2,w
  6705     0052  00D9               	movwf	filter_step@ax+2
  6706     0053  083B               	movf	??_filter_step+1,w
  6707     0054  00D8               	movwf	filter_step@ax+1
  6708     0055  083A               	movf	??_filter_step,w
  6709     0056  00D7               	movwf	filter_step@ax
  6710                           
  6711                           ;main.c: 368:     int32_t ay = raw_to_mg(r->ay) - g_ay_off_mg;
  6712     0057  086F               	movf	filter_step@r,w
  6713     0058  3E02               	addlw	2
  6714     0059  0086               	movwf	6
  6715     005A  0187               	clrf	7
  6716     005B  3F40               	moviw [0]fsr1
  6717     005C  00AE               	movwf	raw_to_mg@r
  6718     005D  3F41               	moviw [1]fsr1
  6719     005E  00AF               	movwf	raw_to_mg@r+1
  6720     005F  3188  2004  3180   	fcall	_raw_to_mg
  6721     0062  0021               	movlb	1	; select bank1
  6722     0063  0844               	movf	_g_ay_off_mg^(0+128),w
  6723     0064  0020               	movlb	0	; select bank0
  6724     0065  022E               	subwf	?_raw_to_mg,w
  6725     0066  00BA               	movwf	??_filter_step
  6726     0067  0021               	movlb	1	; select bank1
  6727     0068  0845               	movf	(_g_ay_off_mg+1)^(0+128),w
  6728     0069  0020               	movlb	0	; select bank0
  6729     006A  3B2F               	subwfb	?_raw_to_mg+1,w
  6730     006B  00BB               	movwf	??_filter_step+1
  6731     006C  0021               	movlb	1	; select bank1
  6732     006D  0846               	movf	(_g_ay_off_mg+2)^(0+128),w
  6733     006E  0020               	movlb	0	; select bank0
  6734     006F  3B30               	subwfb	?_raw_to_mg+2,w
  6735     0070  00BC               	movwf	??_filter_step+2
  6736     0071  0021               	movlb	1	; select bank1
  6737     0072  0847               	movf	(_g_ay_off_mg+3)^(0+128),w
  6738     0073  0020               	movlb	0	; select bank0
  6739     0074  3B31               	subwfb	?_raw_to_mg+3,w
  6740     0075  00BD               	movwf	??_filter_step+3
  6741     0076  083D               	movf	??_filter_step+3,w
  6742     0077  00DE               	movwf	filter_step@ay+3
  6743     0078  083C               	movf	??_filter_step+2,w
  6744     0079  00DD               	movwf	filter_step@ay+2
  6745     007A  083B               	movf	??_filter_step+1,w
  6746     007B  00DC               	movwf	filter_step@ay+1
  6747     007C  083A               	movf	??_filter_step,w
  6748     007D  00DB               	movwf	filter_step@ay
  6749                           
  6750                           ;main.c: 369:     int32_t az = raw_to_mg(r->az) - g_az_off_mg;
  6751     007E  086F               	movf	filter_step@r,w
  6752     007F  3E04               	addlw	4
  6753     0080  0086               	movwf	6
  6754     0081  0187               	clrf	7
  6755     0082  3F40               	moviw [0]fsr1
  6756     0083  00AE               	movwf	raw_to_mg@r
  6757     0084  3F41               	moviw [1]fsr1
  6758     0085  00AF               	movwf	raw_to_mg@r+1
  6759     0086  3188  2004  3180   	fcall	_raw_to_mg
  6760     0089  0021               	movlb	1	; select bank1
  6761     008A  0840               	movf	_g_az_off_mg^(0+128),w
  6762     008B  0020               	movlb	0	; select bank0
  6763     008C  022E               	subwf	?_raw_to_mg,w
  6764     008D  00BA               	movwf	??_filter_step
  6765     008E  0021               	movlb	1	; select bank1
  6766     008F  0841               	movf	(_g_az_off_mg+1)^(0+128),w
  6767     0090  0020               	movlb	0	; select bank0
  6768     0091  3B2F               	subwfb	?_raw_to_mg+1,w
  6769     0092  00BB               	movwf	??_filter_step+1
  6770     0093  0021               	movlb	1	; select bank1
  6771     0094  0842               	movf	(_g_az_off_mg+2)^(0+128),w
  6772     0095  0020               	movlb	0	; select bank0
  6773     0096  3B30               	subwfb	?_raw_to_mg+2,w
  6774     0097  00BC               	movwf	??_filter_step+2
  6775     0098  0021               	movlb	1	; select bank1
  6776     0099  0843               	movf	(_g_az_off_mg+3)^(0+128),w
  6777     009A  0020               	movlb	0	; select bank0
  6778     009B  3B31               	subwfb	?_raw_to_mg+3,w
  6779     009C  00BD               	movwf	??_filter_step+3
  6780     009D  083D               	movf	??_filter_step+3,w
  6781     009E  00E2               	movwf	filter_step@az+3
  6782     009F  083C               	movf	??_filter_step+2,w
  6783     00A0  00E1               	movwf	filter_step@az+2
  6784     00A1  083B               	movf	??_filter_step+1,w
  6785     00A2  00E0               	movwf	filter_step@az+1
  6786     00A3  083A               	movf	??_filter_step,w
  6787     00A4  00DF               	movwf	filter_step@az
  6788                           
  6789                           ;main.c: 370:     int32_t gx = raw_to_mdps(r->gx) - g_gx_off_mdps;
  6790     00A5  086F               	movf	filter_step@r,w
  6791     00A6  3E08               	addlw	8
  6792     00A7  0086               	movwf	6
  6793     00A8  0187               	clrf	7
  6794     00A9  3F40               	moviw [0]fsr1
  6795     00AA  00AE               	movwf	raw_to_mdps@r
  6796     00AB  3F41               	moviw [1]fsr1
  6797     00AC  00AF               	movwf	raw_to_mdps@r+1
  6798     00AD  3197  27AC  3180   	fcall	_raw_to_mdps
  6799     00B0  0021               	movlb	1	; select bank1
  6800     00B1  083C               	movf	_g_gx_off_mdps^(0+128),w
  6801     00B2  0020               	movlb	0	; select bank0
  6802     00B3  022E               	subwf	?_raw_to_mdps,w
  6803     00B4  00BA               	movwf	??_filter_step
  6804     00B5  0021               	movlb	1	; select bank1
  6805     00B6  083D               	movf	(_g_gx_off_mdps+1)^(0+128),w
  6806     00B7  0020               	movlb	0	; select bank0
  6807     00B8  3B2F               	subwfb	?_raw_to_mdps+1,w
  6808     00B9  00BB               	movwf	??_filter_step+1
  6809     00BA  0021               	movlb	1	; select bank1
  6810     00BB  083E               	movf	(_g_gx_off_mdps+2)^(0+128),w
  6811     00BC  0020               	movlb	0	; select bank0
  6812     00BD  3B30               	subwfb	?_raw_to_mdps+2,w
  6813     00BE  00BC               	movwf	??_filter_step+2
  6814     00BF  0021               	movlb	1	; select bank1
  6815     00C0  083F               	movf	(_g_gx_off_mdps+3)^(0+128),w
  6816     00C1  0020               	movlb	0	; select bank0
  6817     00C2  3B31               	subwfb	?_raw_to_mdps+3,w
  6818     00C3  00BD               	movwf	??_filter_step+3
  6819     00C4  083D               	movf	??_filter_step+3,w
  6820     00C5  00E6               	movwf	filter_step@gx+3
  6821     00C6  083C               	movf	??_filter_step+2,w
  6822     00C7  00E5               	movwf	filter_step@gx+2
  6823     00C8  083B               	movf	??_filter_step+1,w
  6824     00C9  00E4               	movwf	filter_step@gx+1
  6825     00CA  083A               	movf	??_filter_step,w
  6826     00CB  00E3               	movwf	filter_step@gx
  6827                           
  6828                           ;main.c: 371:     int32_t gy = raw_to_mdps(r->gy) - g_gy_off_mdps;
  6829     00CC  086F               	movf	filter_step@r,w
  6830     00CD  3E0A               	addlw	10
  6831     00CE  0086               	movwf	6
  6832     00CF  0187               	clrf	7
  6833     00D0  3F40               	moviw [0]fsr1
  6834     00D1  00AE               	movwf	raw_to_mdps@r
  6835     00D2  3F41               	moviw [1]fsr1
  6836     00D3  00AF               	movwf	raw_to_mdps@r+1
  6837     00D4  3197  27AC  3180   	fcall	_raw_to_mdps
  6838     00D7  0021               	movlb	1	; select bank1
  6839     00D8  0838               	movf	_g_gy_off_mdps^(0+128),w
  6840     00D9  0020               	movlb	0	; select bank0
  6841     00DA  022E               	subwf	?_raw_to_mdps,w
  6842     00DB  00BA               	movwf	??_filter_step
  6843     00DC  0021               	movlb	1	; select bank1
  6844     00DD  0839               	movf	(_g_gy_off_mdps+1)^(0+128),w
  6845     00DE  0020               	movlb	0	; select bank0
  6846     00DF  3B2F               	subwfb	?_raw_to_mdps+1,w
  6847     00E0  00BB               	movwf	??_filter_step+1
  6848     00E1  0021               	movlb	1	; select bank1
  6849     00E2  083A               	movf	(_g_gy_off_mdps+2)^(0+128),w
  6850     00E3  0020               	movlb	0	; select bank0
  6851     00E4  3B30               	subwfb	?_raw_to_mdps+2,w
  6852     00E5  00BC               	movwf	??_filter_step+2
  6853     00E6  0021               	movlb	1	; select bank1
  6854     00E7  083B               	movf	(_g_gy_off_mdps+3)^(0+128),w
  6855     00E8  0020               	movlb	0	; select bank0
  6856     00E9  3B31               	subwfb	?_raw_to_mdps+3,w
  6857     00EA  00BD               	movwf	??_filter_step+3
  6858     00EB  083D               	movf	??_filter_step+3,w
  6859     00EC  00EA               	movwf	filter_step@gy+3
  6860     00ED  083C               	movf	??_filter_step+2,w
  6861     00EE  00E9               	movwf	filter_step@gy+2
  6862     00EF  083B               	movf	??_filter_step+1,w
  6863     00F0  00E8               	movwf	filter_step@gy+1
  6864     00F1  083A               	movf	??_filter_step,w
  6865     00F2  00E7               	movwf	filter_step@gy
  6866                           
  6867                           ;main.c: 372:     int32_t gz = raw_to_mdps(r->gz) - g_gz_off_mdps;
  6868     00F3  086F               	movf	filter_step@r,w
  6869     00F4  3E0C               	addlw	12
  6870     00F5  0086               	movwf	6
  6871     00F6  0187               	clrf	7
  6872     00F7  3F40               	moviw [0]fsr1
  6873     00F8  00AE               	movwf	raw_to_mdps@r
  6874     00F9  3F41               	moviw [1]fsr1
  6875     00FA  00AF               	movwf	raw_to_mdps@r+1
  6876     00FB  3197  27AC  3180   	fcall	_raw_to_mdps
  6877     00FE  0021               	movlb	1	; select bank1
  6878     00FF  0834               	movf	_g_gz_off_mdps^(0+128),w
  6879     0100  0020               	movlb	0	; select bank0
  6880     0101  022E               	subwf	?_raw_to_mdps,w
  6881     0102  00BA               	movwf	??_filter_step
  6882     0103  0021               	movlb	1	; select bank1
  6883     0104  0835               	movf	(_g_gz_off_mdps+1)^(0+128),w
  6884     0105  0020               	movlb	0	; select bank0
  6885     0106  3B2F               	subwfb	?_raw_to_mdps+1,w
  6886     0107  00BB               	movwf	??_filter_step+1
  6887     0108  0021               	movlb	1	; select bank1
  6888     0109  0836               	movf	(_g_gz_off_mdps+2)^(0+128),w
  6889     010A  0020               	movlb	0	; select bank0
  6890     010B  3B30               	subwfb	?_raw_to_mdps+2,w
  6891     010C  00BC               	movwf	??_filter_step+2
  6892     010D  0021               	movlb	1	; select bank1
  6893     010E  0837               	movf	(_g_gz_off_mdps+3)^(0+128),w
  6894     010F  0020               	movlb	0	; select bank0
  6895     0110  3B31               	subwfb	?_raw_to_mdps+3,w
  6896     0111  00BD               	movwf	??_filter_step+3
  6897     0112  083D               	movf	??_filter_step+3,w
  6898     0113  00EE               	movwf	filter_step@gz+3
  6899     0114  083C               	movf	??_filter_step+2,w
  6900     0115  00ED               	movwf	filter_step@gz+2
  6901     0116  083B               	movf	??_filter_step+1,w
  6902     0117  00EC               	movwf	filter_step@gz+1
  6903     0118  083A               	movf	??_filter_step,w
  6904     0119  00EB               	movwf	filter_step@gz
  6905     011A                     l2702:
  6906                           
  6907                           ;main.c: 375:     if (ax < -4000) ax = -4000; if (ax > 4000) ax = 4000;
  6908     011A  1FDA               	btfss	filter_step@ax+3,7
  6909     011B  2927               	goto	u2501
  6910     011C  3060               	movlw	96
  6911     011D  0257               	subwf	filter_step@ax,w
  6912     011E  30F0               	movlw	240
  6913     011F  3B58               	subwfb	filter_step@ax+1,w
  6914     0120  30FF               	movlw	255
  6915     0121  3B59               	subwfb	filter_step@ax+2,w
  6916     0122  30FF               	movlw	255
  6917     0123  3B5A               	subwfb	filter_step@ax+3,w
  6918     0124  1803               	btfsc	3,0
  6919     0125  2927               	goto	u2501
  6920     0126  2928               	goto	u2500
  6921     0127                     u2501:
  6922     0127  2931               	goto	l2706
  6923     0128                     u2500:
  6924     0128                     l2704:
  6925     0128  30FF               	movlw	255
  6926     0129  0020               	movlb	0	; select bank0
  6927     012A  00DA               	movwf	filter_step@ax+3
  6928     012B  30FF               	movlw	255
  6929     012C  00D9               	movwf	filter_step@ax+2
  6930     012D  30F0               	movlw	240
  6931     012E  00D8               	movwf	filter_step@ax+1
  6932     012F  3060               	movlw	96
  6933     0130  00D7               	movwf	filter_step@ax
  6934     0131                     l2706:
  6935     0131  0020               	movlb	0	; select bank0
  6936     0132  1BDA               	btfsc	filter_step@ax+3,7
  6937     0133  2941               	goto	u2511
  6938     0134  085A               	movf	filter_step@ax+3,w
  6939     0135  1D03               	btfss	3,2
  6940     0136  2942               	goto	u2510
  6941     0137  0859               	movf	filter_step@ax+2,w
  6942     0138  1D03               	btfss	3,2
  6943     0139  2942               	goto	u2510
  6944     013A  30A1               	movlw	161
  6945     013B  0257               	subwf	filter_step@ax,w
  6946     013C  300F               	movlw	15
  6947     013D  3B58               	subwfb	filter_step@ax+1,w
  6948     013E  1C03               	btfss	3,0
  6949     013F  2941               	goto	u2511
  6950     0140  2942               	goto	u2510
  6951     0141                     u2511:
  6952     0141  294B               	goto	l2710
  6953     0142                     u2510:
  6954     0142                     l2708:
  6955     0142  3000               	movlw	0
  6956     0143  0020               	movlb	0	; select bank0
  6957     0144  00DA               	movwf	filter_step@ax+3
  6958     0145  3000               	movlw	0
  6959     0146  00D9               	movwf	filter_step@ax+2
  6960     0147  300F               	movlw	15
  6961     0148  00D8               	movwf	filter_step@ax+1
  6962     0149  30A0               	movlw	160
  6963     014A  00D7               	movwf	filter_step@ax
  6964     014B                     l2710:
  6965                           
  6966                           ;main.c: 376:     if (ay < -4000) ay = -4000; if (ay > 4000) ay = 4000;
  6967     014B  0020               	movlb	0	; select bank0
  6968     014C  1FDE               	btfss	filter_step@ay+3,7
  6969     014D  2959               	goto	u2521
  6970     014E  3060               	movlw	96
  6971     014F  025B               	subwf	filter_step@ay,w
  6972     0150  30F0               	movlw	240
  6973     0151  3B5C               	subwfb	filter_step@ay+1,w
  6974     0152  30FF               	movlw	255
  6975     0153  3B5D               	subwfb	filter_step@ay+2,w
  6976     0154  30FF               	movlw	255
  6977     0155  3B5E               	subwfb	filter_step@ay+3,w
  6978     0156  1803               	btfsc	3,0
  6979     0157  2959               	goto	u2521
  6980     0158  295A               	goto	u2520
  6981     0159                     u2521:
  6982     0159  2963               	goto	l2714
  6983     015A                     u2520:
  6984     015A                     l2712:
  6985     015A  30FF               	movlw	255
  6986     015B  0020               	movlb	0	; select bank0
  6987     015C  00DE               	movwf	filter_step@ay+3
  6988     015D  30FF               	movlw	255
  6989     015E  00DD               	movwf	filter_step@ay+2
  6990     015F  30F0               	movlw	240
  6991     0160  00DC               	movwf	filter_step@ay+1
  6992     0161  3060               	movlw	96
  6993     0162  00DB               	movwf	filter_step@ay
  6994     0163                     l2714:
  6995     0163  0020               	movlb	0	; select bank0
  6996     0164  1BDE               	btfsc	filter_step@ay+3,7
  6997     0165  2973               	goto	u2531
  6998     0166  085E               	movf	filter_step@ay+3,w
  6999     0167  1D03               	btfss	3,2
  7000     0168  2974               	goto	u2530
  7001     0169  085D               	movf	filter_step@ay+2,w
  7002     016A  1D03               	btfss	3,2
  7003     016B  2974               	goto	u2530
  7004     016C  30A1               	movlw	161
  7005     016D  025B               	subwf	filter_step@ay,w
  7006     016E  300F               	movlw	15
  7007     016F  3B5C               	subwfb	filter_step@ay+1,w
  7008     0170  1C03               	btfss	3,0
  7009     0171  2973               	goto	u2531
  7010     0172  2974               	goto	u2530
  7011     0173                     u2531:
  7012     0173  297D               	goto	l2718
  7013     0174                     u2530:
  7014     0174                     l2716:
  7015     0174  3000               	movlw	0
  7016     0175  0020               	movlb	0	; select bank0
  7017     0176  00DE               	movwf	filter_step@ay+3
  7018     0177  3000               	movlw	0
  7019     0178  00DD               	movwf	filter_step@ay+2
  7020     0179  300F               	movlw	15
  7021     017A  00DC               	movwf	filter_step@ay+1
  7022     017B  30A0               	movlw	160
  7023     017C  00DB               	movwf	filter_step@ay
  7024     017D                     l2718:
  7025                           
  7026                           ;main.c: 377:     if (az < -4000) az = -4000; if (az > 4000) az = 4000;
  7027     017D  0020               	movlb	0	; select bank0
  7028     017E  1FE2               	btfss	filter_step@az+3,7
  7029     017F  298B               	goto	u2541
  7030     0180  3060               	movlw	96
  7031     0181  025F               	subwf	filter_step@az,w
  7032     0182  30F0               	movlw	240
  7033     0183  3B60               	subwfb	filter_step@az+1,w
  7034     0184  30FF               	movlw	255
  7035     0185  3B61               	subwfb	filter_step@az+2,w
  7036     0186  30FF               	movlw	255
  7037     0187  3B62               	subwfb	filter_step@az+3,w
  7038     0188  1803               	btfsc	3,0
  7039     0189  298B               	goto	u2541
  7040     018A  298C               	goto	u2540
  7041     018B                     u2541:
  7042     018B  2995               	goto	l2722
  7043     018C                     u2540:
  7044     018C                     l2720:
  7045     018C  30FF               	movlw	255
  7046     018D  0020               	movlb	0	; select bank0
  7047     018E  00E2               	movwf	filter_step@az+3
  7048     018F  30FF               	movlw	255
  7049     0190  00E1               	movwf	filter_step@az+2
  7050     0191  30F0               	movlw	240
  7051     0192  00E0               	movwf	filter_step@az+1
  7052     0193  3060               	movlw	96
  7053     0194  00DF               	movwf	filter_step@az
  7054     0195                     l2722:
  7055     0195  0020               	movlb	0	; select bank0
  7056     0196  1BE2               	btfsc	filter_step@az+3,7
  7057     0197  29A5               	goto	u2551
  7058     0198  0862               	movf	filter_step@az+3,w
  7059     0199  1D03               	btfss	3,2
  7060     019A  29A6               	goto	u2550
  7061     019B  0861               	movf	filter_step@az+2,w
  7062     019C  1D03               	btfss	3,2
  7063     019D  29A6               	goto	u2550
  7064     019E  30A1               	movlw	161
  7065     019F  025F               	subwf	filter_step@az,w
  7066     01A0  300F               	movlw	15
  7067     01A1  3B60               	subwfb	filter_step@az+1,w
  7068     01A2  1C03               	btfss	3,0
  7069     01A3  29A5               	goto	u2551
  7070     01A4  29A6               	goto	u2550
  7071     01A5                     u2551:
  7072     01A5  29AF               	goto	l2726
  7073     01A6                     u2550:
  7074     01A6                     l2724:
  7075     01A6  3000               	movlw	0
  7076     01A7  0020               	movlb	0	; select bank0
  7077     01A8  00E2               	movwf	filter_step@az+3
  7078     01A9  3000               	movlw	0
  7079     01AA  00E1               	movwf	filter_step@az+2
  7080     01AB  300F               	movlw	15
  7081     01AC  00E0               	movwf	filter_step@az+1
  7082     01AD  30A0               	movlw	160
  7083     01AE  00DF               	movwf	filter_step@az
  7084     01AF                     l2726:
  7085                           
  7086                           ;main.c: 378:     if (gx < -250000) gx = -250000; if (gx > 250000) gx = 250000;
  7087     01AF  0020               	movlb	0	; select bank0
  7088     01B0  1FE6               	btfss	filter_step@gx+3,7
  7089     01B1  29BD               	goto	u2561
  7090     01B2  3070               	movlw	112
  7091     01B3  0263               	subwf	filter_step@gx,w
  7092     01B4  302F               	movlw	47
  7093     01B5  3B64               	subwfb	filter_step@gx+1,w
  7094     01B6  30FC               	movlw	252
  7095     01B7  3B65               	subwfb	filter_step@gx+2,w
  7096     01B8  30FF               	movlw	255
  7097     01B9  3B66               	subwfb	filter_step@gx+3,w
  7098     01BA  1803               	btfsc	3,0
  7099     01BB  29BD               	goto	u2561
  7100     01BC  29BE               	goto	u2560
  7101     01BD                     u2561:
  7102     01BD  29C7               	goto	l2730
  7103     01BE                     u2560:
  7104     01BE                     l2728:
  7105     01BE  30FF               	movlw	255
  7106     01BF  0020               	movlb	0	; select bank0
  7107     01C0  00E6               	movwf	filter_step@gx+3
  7108     01C1  30FC               	movlw	252
  7109     01C2  00E5               	movwf	filter_step@gx+2
  7110     01C3  302F               	movlw	47
  7111     01C4  00E4               	movwf	filter_step@gx+1
  7112     01C5  3070               	movlw	112
  7113     01C6  00E3               	movwf	filter_step@gx
  7114     01C7                     l2730:
  7115     01C7  0020               	movlb	0	; select bank0
  7116     01C8  1BE6               	btfsc	filter_step@gx+3,7
  7117     01C9  29D6               	goto	u2571
  7118     01CA  0866               	movf	filter_step@gx+3,w
  7119     01CB  1D03               	btfss	3,2
  7120     01CC  29D7               	goto	u2570
  7121     01CD  3091               	movlw	145
  7122     01CE  0263               	subwf	filter_step@gx,w
  7123     01CF  30D0               	movlw	208
  7124     01D0  3B64               	subwfb	filter_step@gx+1,w
  7125     01D1  3003               	movlw	3
  7126     01D2  3B65               	subwfb	filter_step@gx+2,w
  7127     01D3  1C03               	btfss	3,0
  7128     01D4  29D6               	goto	u2571
  7129     01D5  29D7               	goto	u2570
  7130     01D6                     u2571:
  7131     01D6  29E0               	goto	l2734
  7132     01D7                     u2570:
  7133     01D7                     l2732:
  7134     01D7  3000               	movlw	0
  7135     01D8  0020               	movlb	0	; select bank0
  7136     01D9  00E6               	movwf	filter_step@gx+3
  7137     01DA  3003               	movlw	3
  7138     01DB  00E5               	movwf	filter_step@gx+2
  7139     01DC  30D0               	movlw	208
  7140     01DD  00E4               	movwf	filter_step@gx+1
  7141     01DE  3090               	movlw	144
  7142     01DF  00E3               	movwf	filter_step@gx
  7143     01E0                     l2734:
  7144                           
  7145                           ;main.c: 379:     if (gy < -250000) gy = -250000; if (gy > 250000) gy = 250000;
  7146     01E0  0020               	movlb	0	; select bank0
  7147     01E1  1FEA               	btfss	filter_step@gy+3,7
  7148     01E2  29EE               	goto	u2581
  7149     01E3  3070               	movlw	112
  7150     01E4  0267               	subwf	filter_step@gy,w
  7151     01E5  302F               	movlw	47
  7152     01E6  3B68               	subwfb	filter_step@gy+1,w
  7153     01E7  30FC               	movlw	252
  7154     01E8  3B69               	subwfb	filter_step@gy+2,w
  7155     01E9  30FF               	movlw	255
  7156     01EA  3B6A               	subwfb	filter_step@gy+3,w
  7157     01EB  1803               	btfsc	3,0
  7158     01EC  29EE               	goto	u2581
  7159     01ED  29EF               	goto	u2580
  7160     01EE                     u2581:
  7161     01EE  29F8               	goto	l2738
  7162     01EF                     u2580:
  7163     01EF                     l2736:
  7164     01EF  30FF               	movlw	255
  7165     01F0  0020               	movlb	0	; select bank0
  7166     01F1  00EA               	movwf	filter_step@gy+3
  7167     01F2  30FC               	movlw	252
  7168     01F3  00E9               	movwf	filter_step@gy+2
  7169     01F4  302F               	movlw	47
  7170     01F5  00E8               	movwf	filter_step@gy+1
  7171     01F6  3070               	movlw	112
  7172     01F7  00E7               	movwf	filter_step@gy
  7173     01F8                     l2738:
  7174     01F8  0020               	movlb	0	; select bank0
  7175     01F9  1BEA               	btfsc	filter_step@gy+3,7
  7176     01FA  2A07               	goto	u2591
  7177     01FB  086A               	movf	filter_step@gy+3,w
  7178     01FC  1D03               	btfss	3,2
  7179     01FD  2A08               	goto	u2590
  7180     01FE  3091               	movlw	145
  7181     01FF  0267               	subwf	filter_step@gy,w
  7182     0200  30D0               	movlw	208
  7183     0201  3B68               	subwfb	filter_step@gy+1,w
  7184     0202  3003               	movlw	3
  7185     0203  3B69               	subwfb	filter_step@gy+2,w
  7186     0204  1C03               	btfss	3,0
  7187     0205  2A07               	goto	u2591
  7188     0206  2A08               	goto	u2590
  7189     0207                     u2591:
  7190     0207  2A11               	goto	l2742
  7191     0208                     u2590:
  7192     0208                     l2740:
  7193     0208  3000               	movlw	0
  7194     0209  0020               	movlb	0	; select bank0
  7195     020A  00EA               	movwf	filter_step@gy+3
  7196     020B  3003               	movlw	3
  7197     020C  00E9               	movwf	filter_step@gy+2
  7198     020D  30D0               	movlw	208
  7199     020E  00E8               	movwf	filter_step@gy+1
  7200     020F  3090               	movlw	144
  7201     0210  00E7               	movwf	filter_step@gy
  7202     0211                     l2742:
  7203                           
  7204                           ;main.c: 380:     if (gz < -250000) gz = -250000; if (gz > 250000) gz = 250000;
  7205     0211  0020               	movlb	0	; select bank0
  7206     0212  1FEE               	btfss	filter_step@gz+3,7
  7207     0213  2A1F               	goto	u2601
  7208     0214  3070               	movlw	112
  7209     0215  026B               	subwf	filter_step@gz,w
  7210     0216  302F               	movlw	47
  7211     0217  3B6C               	subwfb	filter_step@gz+1,w
  7212     0218  30FC               	movlw	252
  7213     0219  3B6D               	subwfb	filter_step@gz+2,w
  7214     021A  30FF               	movlw	255
  7215     021B  3B6E               	subwfb	filter_step@gz+3,w
  7216     021C  1803               	btfsc	3,0
  7217     021D  2A1F               	goto	u2601
  7218     021E  2A20               	goto	u2600
  7219     021F                     u2601:
  7220     021F  2A29               	goto	l2746
  7221     0220                     u2600:
  7222     0220                     l2744:
  7223     0220  30FF               	movlw	255
  7224     0221  0020               	movlb	0	; select bank0
  7225     0222  00EE               	movwf	filter_step@gz+3
  7226     0223  30FC               	movlw	252
  7227     0224  00ED               	movwf	filter_step@gz+2
  7228     0225  302F               	movlw	47
  7229     0226  00EC               	movwf	filter_step@gz+1
  7230     0227  3070               	movlw	112
  7231     0228  00EB               	movwf	filter_step@gz
  7232     0229                     l2746:
  7233     0229  0020               	movlb	0	; select bank0
  7234     022A  1BEE               	btfsc	filter_step@gz+3,7
  7235     022B  2A38               	goto	u2611
  7236     022C  086E               	movf	filter_step@gz+3,w
  7237     022D  1D03               	btfss	3,2
  7238     022E  2A39               	goto	u2610
  7239     022F  3091               	movlw	145
  7240     0230  026B               	subwf	filter_step@gz,w
  7241     0231  30D0               	movlw	208
  7242     0232  3B6C               	subwfb	filter_step@gz+1,w
  7243     0233  3003               	movlw	3
  7244     0234  3B6D               	subwfb	filter_step@gz+2,w
  7245     0235  1C03               	btfss	3,0
  7246     0236  2A38               	goto	u2611
  7247     0237  2A39               	goto	u2610
  7248     0238                     u2611:
  7249     0238  2A42               	goto	l2750
  7250     0239                     u2610:
  7251     0239                     l2748:
  7252     0239  3000               	movlw	0
  7253     023A  0020               	movlb	0	; select bank0
  7254     023B  00EE               	movwf	filter_step@gz+3
  7255     023C  3003               	movlw	3
  7256     023D  00ED               	movwf	filter_step@gz+2
  7257     023E  30D0               	movlw	208
  7258     023F  00EC               	movwf	filter_step@gz+1
  7259     0240  3090               	movlw	144
  7260     0241  00EB               	movwf	filter_step@gz
  7261     0242                     l2750:
  7262                           
  7263                           ;main.c: 383:     int32_t ax_m = median3(ax_hist[0], ax_hist[1], ax);
  7264     0242  0022               	movlb	2	; select bank2
  7265     0243  084B               	movf	(_ax_hist+3)^(0+256),w
  7266     0244  00F3               	movwf	median3@a+3
  7267     0245  084A               	movf	(_ax_hist+2)^(0+256),w
  7268     0246  00F2               	movwf	median3@a+2
  7269     0247  0849               	movf	(_ax_hist+1)^(0+256),w
  7270     0248  00F1               	movwf	median3@a+1
  7271     0249  0848               	movf	_ax_hist^(0+256),w
  7272     024A  00F0               	movwf	median3@a
  7273     024B  3004               	movlw	4
  7274     024C  3E48               	addlw	(low (_ax_hist| (0+256)))& (0+255)
  7275     024D  0086               	movwf	6
  7276     024E  3001               	movlw	1	; select bank2/3
  7277     024F  0087               	movwf	7
  7278     0250  3F40               	moviw [0]fsr1
  7279     0251  00F4               	movwf	median3@b
  7280     0252  3F41               	moviw [1]fsr1
  7281     0253  00F5               	movwf	median3@b+1
  7282     0254  3F42               	moviw [2]fsr1
  7283     0255  00F6               	movwf	median3@b+2
  7284     0256  3F43               	moviw [3]fsr1
  7285     0257  00F7               	movwf	median3@b+3
  7286     0258  0020               	movlb	0	; select bank0
  7287     0259  085A               	movf	filter_step@ax+3,w
  7288     025A  00FB               	movwf	median3@c+3
  7289     025B  0859               	movf	filter_step@ax+2,w
  7290     025C  00FA               	movwf	median3@c+2
  7291     025D  0858               	movf	filter_step@ax+1,w
  7292     025E  00F9               	movwf	median3@c+1
  7293     025F  0857               	movf	filter_step@ax,w
  7294     0260  00F8               	movwf	median3@c
  7295     0261  318C  2455  3180   	fcall	_median3
  7296     0264  0873               	movf	?_median3+3,w
  7297     0265  0020               	movlb	0	; select bank0
  7298     0266  00C2               	movwf	filter_step@ax_m+3
  7299     0267  0872               	movf	?_median3+2,w
  7300     0268  00C1               	movwf	filter_step@ax_m+2
  7301     0269  0871               	movf	?_median3+1,w
  7302     026A  00C0               	movwf	filter_step@ax_m+1
  7303     026B  0870               	movf	?_median3,w
  7304     026C  00BF               	movwf	filter_step@ax_m
  7305     026D                     l2752:
  7306                           
  7307                           ;main.c: 384:     int32_t ay_m = median3(ay_hist[0], ay_hist[1], ay);
  7308     026D  0022               	movlb	2	; select bank2
  7309     026E  0843               	movf	(_ay_hist+3)^(0+256),w
  7310     026F  00F3               	movwf	median3@a+3
  7311     0270  0842               	movf	(_ay_hist+2)^(0+256),w
  7312     0271  00F2               	movwf	median3@a+2
  7313     0272  0841               	movf	(_ay_hist+1)^(0+256),w
  7314     0273  00F1               	movwf	median3@a+1
  7315     0274  0840               	movf	_ay_hist^(0+256),w
  7316     0275  00F0               	movwf	median3@a
  7317     0276  3004               	movlw	4
  7318     0277  3E40               	addlw	(low (_ay_hist| (0+256)))& (0+255)
  7319     0278  0086               	movwf	6
  7320     0279  3001               	movlw	1	; select bank2/3
  7321     027A  0087               	movwf	7
  7322     027B  3F40               	moviw [0]fsr1
  7323     027C  00F4               	movwf	median3@b
  7324     027D  3F41               	moviw [1]fsr1
  7325     027E  00F5               	movwf	median3@b+1
  7326     027F  3F42               	moviw [2]fsr1
  7327     0280  00F6               	movwf	median3@b+2
  7328     0281  3F43               	moviw [3]fsr1
  7329     0282  00F7               	movwf	median3@b+3
  7330     0283  0020               	movlb	0	; select bank0
  7331     0284  085E               	movf	filter_step@ay+3,w
  7332     0285  00FB               	movwf	median3@c+3
  7333     0286  085D               	movf	filter_step@ay+2,w
  7334     0287  00FA               	movwf	median3@c+2
  7335     0288  085C               	movf	filter_step@ay+1,w
  7336     0289  00F9               	movwf	median3@c+1
  7337     028A  085B               	movf	filter_step@ay,w
  7338     028B  00F8               	movwf	median3@c
  7339     028C  318C  2455  3180   	fcall	_median3
  7340     028F  0873               	movf	?_median3+3,w
  7341     0290  0020               	movlb	0	; select bank0
  7342     0291  00C6               	movwf	filter_step@ay_m+3
  7343     0292  0872               	movf	?_median3+2,w
  7344     0293  00C5               	movwf	filter_step@ay_m+2
  7345     0294  0871               	movf	?_median3+1,w
  7346     0295  00C4               	movwf	filter_step@ay_m+1
  7347     0296  0870               	movf	?_median3,w
  7348     0297  00C3               	movwf	filter_step@ay_m
  7349     0298                     l2754:
  7350                           
  7351                           ;main.c: 385:     int32_t az_m = median3(az_hist[0], az_hist[1], az);
  7352     0298  0022               	movlb	2	; select bank2
  7353     0299  083B               	movf	(_az_hist+3)^(0+256),w
  7354     029A  00F3               	movwf	median3@a+3
  7355     029B  083A               	movf	(_az_hist+2)^(0+256),w
  7356     029C  00F2               	movwf	median3@a+2
  7357     029D  0839               	movf	(_az_hist+1)^(0+256),w
  7358     029E  00F1               	movwf	median3@a+1
  7359     029F  0838               	movf	_az_hist^(0+256),w
  7360     02A0  00F0               	movwf	median3@a
  7361     02A1  3004               	movlw	4
  7362     02A2  3E38               	addlw	(low (_az_hist| (0+256)))& (0+255)
  7363     02A3  0086               	movwf	6
  7364     02A4  3001               	movlw	1	; select bank2/3
  7365     02A5  0087               	movwf	7
  7366     02A6  3F40               	moviw [0]fsr1
  7367     02A7  00F4               	movwf	median3@b
  7368     02A8  3F41               	moviw [1]fsr1
  7369     02A9  00F5               	movwf	median3@b+1
  7370     02AA  3F42               	moviw [2]fsr1
  7371     02AB  00F6               	movwf	median3@b+2
  7372     02AC  3F43               	moviw [3]fsr1
  7373     02AD  00F7               	movwf	median3@b+3
  7374     02AE  0020               	movlb	0	; select bank0
  7375     02AF  0862               	movf	filter_step@az+3,w
  7376     02B0  00FB               	movwf	median3@c+3
  7377     02B1  0861               	movf	filter_step@az+2,w
  7378     02B2  00FA               	movwf	median3@c+2
  7379     02B3  0860               	movf	filter_step@az+1,w
  7380     02B4  00F9               	movwf	median3@c+1
  7381     02B5  085F               	movf	filter_step@az,w
  7382     02B6  00F8               	movwf	median3@c
  7383     02B7  318C  2455  3180   	fcall	_median3
  7384     02BA  0873               	movf	?_median3+3,w
  7385     02BB  0020               	movlb	0	; select bank0
  7386     02BC  00CA               	movwf	filter_step@az_m+3
  7387     02BD  0872               	movf	?_median3+2,w
  7388     02BE  00C9               	movwf	filter_step@az_m+2
  7389     02BF  0871               	movf	?_median3+1,w
  7390     02C0  00C8               	movwf	filter_step@az_m+1
  7391     02C1  0870               	movf	?_median3,w
  7392     02C2  00C7               	movwf	filter_step@az_m
  7393     02C3                     l2756:
  7394                           
  7395                           ;main.c: 386:     int32_t gx_m = median3(gx_hist[0], gx_hist[1], gx);
  7396     02C3  0022               	movlb	2	; select bank2
  7397     02C4  0833               	movf	(_gx_hist+3)^(0+256),w
  7398     02C5  00F3               	movwf	median3@a+3
  7399     02C6  0832               	movf	(_gx_hist+2)^(0+256),w
  7400     02C7  00F2               	movwf	median3@a+2
  7401     02C8  0831               	movf	(_gx_hist+1)^(0+256),w
  7402     02C9  00F1               	movwf	median3@a+1
  7403     02CA  0830               	movf	_gx_hist^(0+256),w
  7404     02CB  00F0               	movwf	median3@a
  7405     02CC  3004               	movlw	4
  7406     02CD  3E30               	addlw	(low (_gx_hist| (0+256)))& (0+255)
  7407     02CE  0086               	movwf	6
  7408     02CF  3001               	movlw	1	; select bank2/3
  7409     02D0  0087               	movwf	7
  7410     02D1  3F40               	moviw [0]fsr1
  7411     02D2  00F4               	movwf	median3@b
  7412     02D3  3F41               	moviw [1]fsr1
  7413     02D4  00F5               	movwf	median3@b+1
  7414     02D5  3F42               	moviw [2]fsr1
  7415     02D6  00F6               	movwf	median3@b+2
  7416     02D7  3F43               	moviw [3]fsr1
  7417     02D8  00F7               	movwf	median3@b+3
  7418     02D9  0020               	movlb	0	; select bank0
  7419     02DA  0866               	movf	filter_step@gx+3,w
  7420     02DB  00FB               	movwf	median3@c+3
  7421     02DC  0865               	movf	filter_step@gx+2,w
  7422     02DD  00FA               	movwf	median3@c+2
  7423     02DE  0864               	movf	filter_step@gx+1,w
  7424     02DF  00F9               	movwf	median3@c+1
  7425     02E0  0863               	movf	filter_step@gx,w
  7426     02E1  00F8               	movwf	median3@c
  7427     02E2  318C  2455  3180   	fcall	_median3
  7428     02E5  0873               	movf	?_median3+3,w
  7429     02E6  0020               	movlb	0	; select bank0
  7430     02E7  00CE               	movwf	filter_step@gx_m+3
  7431     02E8  0872               	movf	?_median3+2,w
  7432     02E9  00CD               	movwf	filter_step@gx_m+2
  7433     02EA  0871               	movf	?_median3+1,w
  7434     02EB  00CC               	movwf	filter_step@gx_m+1
  7435     02EC  0870               	movf	?_median3,w
  7436     02ED  00CB               	movwf	filter_step@gx_m
  7437     02EE                     l2758:
  7438                           
  7439                           ;main.c: 387:     int32_t gy_m = median3(gy_hist[0], gy_hist[1], gy);
  7440     02EE  0022               	movlb	2	; select bank2
  7441     02EF  082B               	movf	(_gy_hist+3)^(0+256),w
  7442     02F0  00F3               	movwf	median3@a+3
  7443     02F1  082A               	movf	(_gy_hist+2)^(0+256),w
  7444     02F2  00F2               	movwf	median3@a+2
  7445     02F3  0829               	movf	(_gy_hist+1)^(0+256),w
  7446     02F4  00F1               	movwf	median3@a+1
  7447     02F5  0828               	movf	_gy_hist^(0+256),w
  7448     02F6  00F0               	movwf	median3@a
  7449     02F7  3004               	movlw	4
  7450     02F8  3E28               	addlw	(low (_gy_hist| (0+256)))& (0+255)
  7451     02F9  0086               	movwf	6
  7452     02FA  3001               	movlw	1	; select bank2/3
  7453     02FB  0087               	movwf	7
  7454     02FC  3F40               	moviw [0]fsr1
  7455     02FD  00F4               	movwf	median3@b
  7456     02FE  3F41               	moviw [1]fsr1
  7457     02FF  00F5               	movwf	median3@b+1
  7458     0300  3F42               	moviw [2]fsr1
  7459     0301  00F6               	movwf	median3@b+2
  7460     0302  3F43               	moviw [3]fsr1
  7461     0303  00F7               	movwf	median3@b+3
  7462     0304  0020               	movlb	0	; select bank0
  7463     0305  086A               	movf	filter_step@gy+3,w
  7464     0306  00FB               	movwf	median3@c+3
  7465     0307  0869               	movf	filter_step@gy+2,w
  7466     0308  00FA               	movwf	median3@c+2
  7467     0309  0868               	movf	filter_step@gy+1,w
  7468     030A  00F9               	movwf	median3@c+1
  7469     030B  0867               	movf	filter_step@gy,w
  7470     030C  00F8               	movwf	median3@c
  7471     030D  318C  2455  3180   	fcall	_median3
  7472     0310  0873               	movf	?_median3+3,w
  7473     0311  0020               	movlb	0	; select bank0
  7474     0312  00D2               	movwf	filter_step@gy_m+3
  7475     0313  0872               	movf	?_median3+2,w
  7476     0314  00D1               	movwf	filter_step@gy_m+2
  7477     0315  0871               	movf	?_median3+1,w
  7478     0316  00D0               	movwf	filter_step@gy_m+1
  7479     0317  0870               	movf	?_median3,w
  7480     0318  00CF               	movwf	filter_step@gy_m
  7481     0319                     l2760:
  7482                           
  7483                           ;main.c: 388:     int32_t gz_m = median3(gz_hist[0], gz_hist[1], gz);
  7484     0319  0022               	movlb	2	; select bank2
  7485     031A  0823               	movf	(_gz_hist+3)^(0+256),w
  7486     031B  00F3               	movwf	median3@a+3
  7487     031C  0822               	movf	(_gz_hist+2)^(0+256),w
  7488     031D  00F2               	movwf	median3@a+2
  7489     031E  0821               	movf	(_gz_hist+1)^(0+256),w
  7490     031F  00F1               	movwf	median3@a+1
  7491     0320  0820               	movf	_gz_hist^(0+256),w
  7492     0321  00F0               	movwf	median3@a
  7493     0322  3004               	movlw	4
  7494     0323  3E20               	addlw	(low (_gz_hist| (0+256)))& (0+255)
  7495     0324  0086               	movwf	6
  7496     0325  3001               	movlw	1	; select bank2/3
  7497     0326  0087               	movwf	7
  7498     0327  3F40               	moviw [0]fsr1
  7499     0328  00F4               	movwf	median3@b
  7500     0329  3F41               	moviw [1]fsr1
  7501     032A  00F5               	movwf	median3@b+1
  7502     032B  3F42               	moviw [2]fsr1
  7503     032C  00F6               	movwf	median3@b+2
  7504     032D  3F43               	moviw [3]fsr1
  7505     032E  00F7               	movwf	median3@b+3
  7506     032F  0020               	movlb	0	; select bank0
  7507     0330  086E               	movf	filter_step@gz+3,w
  7508     0331  00FB               	movwf	median3@c+3
  7509     0332  086D               	movf	filter_step@gz+2,w
  7510     0333  00FA               	movwf	median3@c+2
  7511     0334  086C               	movf	filter_step@gz+1,w
  7512     0335  00F9               	movwf	median3@c+1
  7513     0336  086B               	movf	filter_step@gz,w
  7514     0337  00F8               	movwf	median3@c
  7515     0338  318C  2455  3180   	fcall	_median3
  7516     033B  0873               	movf	?_median3+3,w
  7517     033C  0020               	movlb	0	; select bank0
  7518     033D  00D6               	movwf	filter_step@gz_m+3
  7519     033E  0872               	movf	?_median3+2,w
  7520     033F  00D5               	movwf	filter_step@gz_m+2
  7521     0340  0871               	movf	?_median3+1,w
  7522     0341  00D4               	movwf	filter_step@gz_m+1
  7523     0342  0870               	movf	?_median3,w
  7524     0343  00D3               	movwf	filter_step@gz_m
  7525                           
  7526                           ;main.c: 390:     ax_hist[1] = ax_hist[0]; ax_hist[0] = ax;
  7527     0344  0022               	movlb	2	; select bank2
  7528     0345  084B               	movf	(_ax_hist+3)^(0+256),w
  7529     0346  00CF               	movwf	((_ax_hist+3)^(0+256)+4)
  7530     0347  084A               	movf	(_ax_hist+2)^(0+256),w
  7531     0348  00CE               	movwf	((_ax_hist+2)^(0+256)+4)
  7532     0349  0849               	movf	(_ax_hist+1)^(0+256),w
  7533     034A  00CD               	movwf	((_ax_hist+1)^(0+256)+4)
  7534     034B  0848               	movf	_ax_hist^(0+256),w
  7535     034C  00CC               	movwf	(_ax_hist^(0+256)+4)
  7536     034D  0020               	movlb	0	; select bank0
  7537     034E  085A               	movf	filter_step@ax+3,w
  7538     034F  0022               	movlb	2	; select bank2
  7539     0350  00CB               	movwf	(_ax_hist+3)^(0+256)
  7540     0351  0020               	movlb	0	; select bank0
  7541     0352  0859               	movf	filter_step@ax+2,w
  7542     0353  0022               	movlb	2	; select bank2
  7543     0354  00CA               	movwf	(_ax_hist+2)^(0+256)
  7544     0355  0020               	movlb	0	; select bank0
  7545     0356  0858               	movf	filter_step@ax+1,w
  7546     0357  0022               	movlb	2	; select bank2
  7547     0358  00C9               	movwf	(_ax_hist+1)^(0+256)
  7548     0359  0020               	movlb	0	; select bank0
  7549     035A  0857               	movf	filter_step@ax,w
  7550     035B  0022               	movlb	2	; select bank2
  7551     035C  00C8               	movwf	_ax_hist^(0+256)
  7552                           
  7553                           ;main.c: 391:     ay_hist[1] = ay_hist[0]; ay_hist[0] = ay;
  7554     035D  0843               	movf	(_ay_hist+3)^(0+256),w
  7555     035E  00C7               	movwf	((_ay_hist+3)^(0+256)+4)
  7556     035F  0842               	movf	(_ay_hist+2)^(0+256),w
  7557     0360  00C6               	movwf	((_ay_hist+2)^(0+256)+4)
  7558     0361  0841               	movf	(_ay_hist+1)^(0+256),w
  7559     0362  00C5               	movwf	((_ay_hist+1)^(0+256)+4)
  7560     0363  0840               	movf	_ay_hist^(0+256),w
  7561     0364  00C4               	movwf	(_ay_hist^(0+256)+4)
  7562     0365  0020               	movlb	0	; select bank0
  7563     0366  085E               	movf	filter_step@ay+3,w
  7564     0367  0022               	movlb	2	; select bank2
  7565     0368  00C3               	movwf	(_ay_hist+3)^(0+256)
  7566     0369  0020               	movlb	0	; select bank0
  7567     036A  085D               	movf	filter_step@ay+2,w
  7568     036B  0022               	movlb	2	; select bank2
  7569     036C  00C2               	movwf	(_ay_hist+2)^(0+256)
  7570     036D  0020               	movlb	0	; select bank0
  7571     036E  085C               	movf	filter_step@ay+1,w
  7572     036F  0022               	movlb	2	; select bank2
  7573     0370  00C1               	movwf	(_ay_hist+1)^(0+256)
  7574     0371  0020               	movlb	0	; select bank0
  7575     0372  085B               	movf	filter_step@ay,w
  7576     0373  0022               	movlb	2	; select bank2
  7577     0374  00C0               	movwf	_ay_hist^(0+256)
  7578                           
  7579                           ;main.c: 392:     az_hist[1] = az_hist[0]; az_hist[0] = az;
  7580     0375  083B               	movf	(_az_hist+3)^(0+256),w
  7581     0376  00BF               	movwf	((_az_hist+3)^(0+256)+4)
  7582     0377  083A               	movf	(_az_hist+2)^(0+256),w
  7583     0378  00BE               	movwf	((_az_hist+2)^(0+256)+4)
  7584     0379  0839               	movf	(_az_hist+1)^(0+256),w
  7585     037A  00BD               	movwf	((_az_hist+1)^(0+256)+4)
  7586     037B  0838               	movf	_az_hist^(0+256),w
  7587     037C  00BC               	movwf	(_az_hist^(0+256)+4)
  7588     037D  0020               	movlb	0	; select bank0
  7589     037E  0862               	movf	filter_step@az+3,w
  7590     037F  0022               	movlb	2	; select bank2
  7591     0380  00BB               	movwf	(_az_hist+3)^(0+256)
  7592     0381  0020               	movlb	0	; select bank0
  7593     0382  0861               	movf	filter_step@az+2,w
  7594     0383  0022               	movlb	2	; select bank2
  7595     0384  00BA               	movwf	(_az_hist+2)^(0+256)
  7596     0385  0020               	movlb	0	; select bank0
  7597     0386  0860               	movf	filter_step@az+1,w
  7598     0387  0022               	movlb	2	; select bank2
  7599     0388  00B9               	movwf	(_az_hist+1)^(0+256)
  7600     0389  0020               	movlb	0	; select bank0
  7601     038A  085F               	movf	filter_step@az,w
  7602     038B  0022               	movlb	2	; select bank2
  7603     038C  00B8               	movwf	_az_hist^(0+256)
  7604                           
  7605                           ;main.c: 393:     gx_hist[1] = gx_hist[0]; gx_hist[0] = gx;
  7606     038D  0833               	movf	(_gx_hist+3)^(0+256),w
  7607     038E  00B7               	movwf	((_gx_hist+3)^(0+256)+4)
  7608     038F  0832               	movf	(_gx_hist+2)^(0+256),w
  7609     0390  00B6               	movwf	((_gx_hist+2)^(0+256)+4)
  7610     0391  0831               	movf	(_gx_hist+1)^(0+256),w
  7611     0392  00B5               	movwf	((_gx_hist+1)^(0+256)+4)
  7612     0393  0830               	movf	_gx_hist^(0+256),w
  7613     0394  00B4               	movwf	(_gx_hist^(0+256)+4)
  7614     0395  0020               	movlb	0	; select bank0
  7615     0396  0866               	movf	filter_step@gx+3,w
  7616     0397  0022               	movlb	2	; select bank2
  7617     0398  00B3               	movwf	(_gx_hist+3)^(0+256)
  7618     0399  0020               	movlb	0	; select bank0
  7619     039A  0865               	movf	filter_step@gx+2,w
  7620     039B  0022               	movlb	2	; select bank2
  7621     039C  00B2               	movwf	(_gx_hist+2)^(0+256)
  7622     039D  0020               	movlb	0	; select bank0
  7623     039E  0864               	movf	filter_step@gx+1,w
  7624     039F  0022               	movlb	2	; select bank2
  7625     03A0  00B1               	movwf	(_gx_hist+1)^(0+256)
  7626     03A1  0020               	movlb	0	; select bank0
  7627     03A2  0863               	movf	filter_step@gx,w
  7628     03A3  0022               	movlb	2	; select bank2
  7629     03A4  00B0               	movwf	_gx_hist^(0+256)
  7630                           
  7631                           ;main.c: 394:     gy_hist[1] = gy_hist[0]; gy_hist[0] = gy;
  7632     03A5  082B               	movf	(_gy_hist+3)^(0+256),w
  7633     03A6  00AF               	movwf	((_gy_hist+3)^(0+256)+4)
  7634     03A7  082A               	movf	(_gy_hist+2)^(0+256),w
  7635     03A8  00AE               	movwf	((_gy_hist+2)^(0+256)+4)
  7636     03A9  0829               	movf	(_gy_hist+1)^(0+256),w
  7637     03AA  00AD               	movwf	((_gy_hist+1)^(0+256)+4)
  7638     03AB  0828               	movf	_gy_hist^(0+256),w
  7639     03AC  00AC               	movwf	(_gy_hist^(0+256)+4)
  7640     03AD  0020               	movlb	0	; select bank0
  7641     03AE  086A               	movf	filter_step@gy+3,w
  7642     03AF  0022               	movlb	2	; select bank2
  7643     03B0  00AB               	movwf	(_gy_hist+3)^(0+256)
  7644     03B1  0020               	movlb	0	; select bank0
  7645     03B2  0869               	movf	filter_step@gy+2,w
  7646     03B3  0022               	movlb	2	; select bank2
  7647     03B4  00AA               	movwf	(_gy_hist+2)^(0+256)
  7648     03B5  0020               	movlb	0	; select bank0
  7649     03B6  0868               	movf	filter_step@gy+1,w
  7650     03B7  0022               	movlb	2	; select bank2
  7651     03B8  00A9               	movwf	(_gy_hist+1)^(0+256)
  7652     03B9  0020               	movlb	0	; select bank0
  7653     03BA  0867               	movf	filter_step@gy,w
  7654     03BB  0022               	movlb	2	; select bank2
  7655     03BC  00A8               	movwf	_gy_hist^(0+256)
  7656                           
  7657                           ;main.c: 395:     gz_hist[1] = gz_hist[0]; gz_hist[0] = gz;
  7658     03BD  0823               	movf	(_gz_hist+3)^(0+256),w
  7659     03BE  00A7               	movwf	((_gz_hist+3)^(0+256)+4)
  7660     03BF  0822               	movf	(_gz_hist+2)^(0+256),w
  7661     03C0  00A6               	movwf	((_gz_hist+2)^(0+256)+4)
  7662     03C1  0821               	movf	(_gz_hist+1)^(0+256),w
  7663     03C2  00A5               	movwf	((_gz_hist+1)^(0+256)+4)
  7664     03C3  0820               	movf	_gz_hist^(0+256),w
  7665     03C4  00A4               	movwf	(_gz_hist^(0+256)+4)
  7666     03C5  0020               	movlb	0	; select bank0
  7667     03C6  086E               	movf	filter_step@gz+3,w
  7668     03C7  0022               	movlb	2	; select bank2
  7669     03C8  00A3               	movwf	(_gz_hist+3)^(0+256)
  7670     03C9  0020               	movlb	0	; select bank0
  7671     03CA  086D               	movf	filter_step@gz+2,w
  7672     03CB  0022               	movlb	2	; select bank2
  7673     03CC  00A2               	movwf	(_gz_hist+2)^(0+256)
  7674     03CD  0020               	movlb	0	; select bank0
  7675     03CE  086C               	movf	filter_step@gz+1,w
  7676     03CF  0022               	movlb	2	; select bank2
  7677     03D0  00A1               	movwf	(_gz_hist+1)^(0+256)
  7678     03D1  0020               	movlb	0	; select bank0
  7679     03D2  086B               	movf	filter_step@gz,w
  7680     03D3  0022               	movlb	2	; select bank2
  7681     03D4  00A0               	movwf	_gz_hist^(0+256)
  7682     03D5                     l2762:
  7683                           
  7684                           ;main.c: 398:     if (!filter_initialized)
  7685     03D5  0021               	movlb	1	; select bank1
  7686     03D6  0852               	movf	_filter_initialized^(0+128),w
  7687     03D7  1D03               	btfss	3,2
  7688     03D8  2BDA               	goto	u2621
  7689     03D9  2BDB               	goto	u2620
  7690     03DA                     u2621:
  7691     03DA  2C3F               	goto	l2768
  7692     03DB                     u2620:
  7693     03DB                     l2764:
  7694                           
  7695                           ;main.c: 399:     {;main.c: 400:         s_ax = ax_m; s_ay = ay_m; s_az = az_m;
  7696     03DB  0020               	movlb	0	; select bank0
  7697     03DC  0842               	movf	filter_step@ax_m+3,w
  7698     03DD  0021               	movlb	1	; select bank1
  7699     03DE  00B3               	movwf	(_s_ax+3)^(0+128)
  7700     03DF  0020               	movlb	0	; select bank0
  7701     03E0  0841               	movf	filter_step@ax_m+2,w
  7702     03E1  0021               	movlb	1	; select bank1
  7703     03E2  00B2               	movwf	(_s_ax+2)^(0+128)
  7704     03E3  0020               	movlb	0	; select bank0
  7705     03E4  0840               	movf	filter_step@ax_m+1,w
  7706     03E5  0021               	movlb	1	; select bank1
  7707     03E6  00B1               	movwf	(_s_ax+1)^(0+128)
  7708     03E7  0020               	movlb	0	; select bank0
  7709     03E8  083F               	movf	filter_step@ax_m,w
  7710     03E9  0021               	movlb	1	; select bank1
  7711     03EA  00B0               	movwf	_s_ax^(0+128)
  7712     03EB  0020               	movlb	0	; select bank0
  7713     03EC  0846               	movf	filter_step@ay_m+3,w
  7714     03ED  0021               	movlb	1	; select bank1
  7715     03EE  00AF               	movwf	(_s_ay+3)^(0+128)
  7716     03EF  0020               	movlb	0	; select bank0
  7717     03F0  0845               	movf	filter_step@ay_m+2,w
  7718     03F1  0021               	movlb	1	; select bank1
  7719     03F2  00AE               	movwf	(_s_ay+2)^(0+128)
  7720     03F3  0020               	movlb	0	; select bank0
  7721     03F4  0844               	movf	filter_step@ay_m+1,w
  7722     03F5  0021               	movlb	1	; select bank1
  7723     03F6  00AD               	movwf	(_s_ay+1)^(0+128)
  7724     03F7  0020               	movlb	0	; select bank0
  7725     03F8  0843               	movf	filter_step@ay_m,w
  7726     03F9  0021               	movlb	1	; select bank1
  7727     03FA  00AC               	movwf	_s_ay^(0+128)
  7728     03FB  0020               	movlb	0	; select bank0
  7729     03FC  084A               	movf	filter_step@az_m+3,w
  7730     03FD  0021               	movlb	1	; select bank1
  7731     03FE  00AB               	movwf	(_s_az+3)^(0+128)
  7732     03FF  0020               	movlb	0	; select bank0
  7733     0400  0849               	movf	filter_step@az_m+2,w
  7734     0401  0021               	movlb	1	; select bank1
  7735     0402  00AA               	movwf	(_s_az+2)^(0+128)
  7736     0403  0020               	movlb	0	; select bank0
  7737     0404  0848               	movf	filter_step@az_m+1,w
  7738     0405  0021               	movlb	1	; select bank1
  7739     0406  00A9               	movwf	(_s_az+1)^(0+128)
  7740     0407  0020               	movlb	0	; select bank0
  7741     0408  0847               	movf	filter_step@az_m,w
  7742     0409  0021               	movlb	1	; select bank1
  7743     040A  00A8               	movwf	_s_az^(0+128)
  7744                           
  7745                           ;main.c: 401:         s_gx = gx_m; s_gy = gy_m; s_gz = gz_m;
  7746     040B  0020               	movlb	0	; select bank0
  7747     040C  084E               	movf	filter_step@gx_m+3,w
  7748     040D  0021               	movlb	1	; select bank1
  7749     040E  00A7               	movwf	(_s_gx+3)^(0+128)
  7750     040F  0020               	movlb	0	; select bank0
  7751     0410  084D               	movf	filter_step@gx_m+2,w
  7752     0411  0021               	movlb	1	; select bank1
  7753     0412  00A6               	movwf	(_s_gx+2)^(0+128)
  7754     0413  0020               	movlb	0	; select bank0
  7755     0414  084C               	movf	filter_step@gx_m+1,w
  7756     0415  0021               	movlb	1	; select bank1
  7757     0416  00A5               	movwf	(_s_gx+1)^(0+128)
  7758     0417  0020               	movlb	0	; select bank0
  7759     0418  084B               	movf	filter_step@gx_m,w
  7760     0419  0021               	movlb	1	; select bank1
  7761     041A  00A4               	movwf	_s_gx^(0+128)
  7762     041B  0020               	movlb	0	; select bank0
  7763     041C  0852               	movf	filter_step@gy_m+3,w
  7764     041D  0021               	movlb	1	; select bank1
  7765     041E  00A3               	movwf	(_s_gy+3)^(0+128)
  7766     041F  0020               	movlb	0	; select bank0
  7767     0420  0851               	movf	filter_step@gy_m+2,w
  7768     0421  0021               	movlb	1	; select bank1
  7769     0422  00A2               	movwf	(_s_gy+2)^(0+128)
  7770     0423  0020               	movlb	0	; select bank0
  7771     0424  0850               	movf	filter_step@gy_m+1,w
  7772     0425  0021               	movlb	1	; select bank1
  7773     0426  00A1               	movwf	(_s_gy+1)^(0+128)
  7774     0427  0020               	movlb	0	; select bank0
  7775     0428  084F               	movf	filter_step@gy_m,w
  7776     0429  0021               	movlb	1	; select bank1
  7777     042A  00A0               	movwf	_s_gy^(0+128)
  7778     042B  0020               	movlb	0	; select bank0
  7779     042C  0856               	movf	filter_step@gz_m+3,w
  7780     042D  0022               	movlb	2	; select bank2
  7781     042E  00D3               	movwf	(_s_gz+3)^(0+256)
  7782     042F  0020               	movlb	0	; select bank0
  7783     0430  0855               	movf	filter_step@gz_m+2,w
  7784     0431  0022               	movlb	2	; select bank2
  7785     0432  00D2               	movwf	(_s_gz+2)^(0+256)
  7786     0433  0020               	movlb	0	; select bank0
  7787     0434  0854               	movf	filter_step@gz_m+1,w
  7788     0435  0022               	movlb	2	; select bank2
  7789     0436  00D1               	movwf	(_s_gz+1)^(0+256)
  7790     0437  0020               	movlb	0	; select bank0
  7791     0438  0853               	movf	filter_step@gz_m,w
  7792     0439  0022               	movlb	2	; select bank2
  7793     043A  00D0               	movwf	_s_gz^(0+256)
  7794     043B                     l2766:
  7795                           
  7796                           ;main.c: 402:         filter_initialized = 1;
  7797     043B  0021               	movlb	1	; select bank1
  7798     043C  01D2               	clrf	_filter_initialized^(0+128)
  7799     043D  0AD2               	incf	_filter_initialized^(0+128),f
  7800                           
  7801                           ;main.c: 403:     }
  7802     043E  2D3C               	goto	l394
  7803     043F                     l2768:
  7804                           
  7805                           ;main.c: 405:     {;main.c: 406:         s_ax += (ax_m - s_ax) >> 3;
  7806     043F  0830               	movf	_s_ax^(0+128),w
  7807     0440  0020               	movlb	0	; select bank0
  7808     0441  023F               	subwf	filter_step@ax_m,w
  7809     0442  00BA               	movwf	??_filter_step
  7810     0443  0021               	movlb	1	; select bank1
  7811     0444  0831               	movf	(_s_ax+1)^(0+128),w
  7812     0445  0020               	movlb	0	; select bank0
  7813     0446  3B40               	subwfb	filter_step@ax_m+1,w
  7814     0447  00BB               	movwf	??_filter_step+1
  7815     0448  0021               	movlb	1	; select bank1
  7816     0449  0832               	movf	(_s_ax+2)^(0+128),w
  7817     044A  0020               	movlb	0	; select bank0
  7818     044B  3B41               	subwfb	filter_step@ax_m+2,w
  7819     044C  00BC               	movwf	??_filter_step+2
  7820     044D  0021               	movlb	1	; select bank1
  7821     044E  0833               	movf	(_s_ax+3)^(0+128),w
  7822     044F  0020               	movlb	0	; select bank0
  7823     0450  3B42               	subwfb	filter_step@ax_m+3,w
  7824     0451  00BD               	movwf	??_filter_step+3
  7825     0452  3003               	movlw	3
  7826     0453  00BE               	movwf	??_filter_step+4
  7827     0454                     u2635:
  7828     0454  37BD               	asrf	??_filter_step+3,f
  7829     0455  0CBC               	rrf	??_filter_step+2,f
  7830     0456  0CBB               	rrf	??_filter_step+1,f
  7831     0457  0CBA               	rrf	??_filter_step,f
  7832     0458                     u2630:
  7833     0458  0BBE               	decfsz	??_filter_step+4,f
  7834     0459  2C54               	goto	u2635
  7835     045A  083A               	movf	??_filter_step,w
  7836     045B  0021               	movlb	1	; select bank1
  7837     045C  07B0               	addwf	_s_ax^(0+128),f
  7838     045D  0020               	movlb	0	; select bank0
  7839     045E  083B               	movf	??_filter_step+1,w
  7840     045F  0021               	movlb	1	; select bank1
  7841     0460  3DB1               	addwfc	(_s_ax+1)^(0+128),f
  7842     0461  0020               	movlb	0	; select bank0
  7843     0462  083C               	movf	??_filter_step+2,w
  7844     0463  0021               	movlb	1	; select bank1
  7845     0464  3DB2               	addwfc	(_s_ax+2)^(0+128),f
  7846     0465  0020               	movlb	0	; select bank0
  7847     0466  083D               	movf	??_filter_step+3,w
  7848     0467  0021               	movlb	1	; select bank1
  7849     0468  3DB3               	addwfc	(_s_ax+3)^(0+128),f
  7850                           
  7851                           ;main.c: 407:         s_ay += (ay_m - s_ay) >> 3;
  7852     0469  082C               	movf	_s_ay^(0+128),w
  7853     046A  0020               	movlb	0	; select bank0
  7854     046B  0243               	subwf	filter_step@ay_m,w
  7855     046C  00BA               	movwf	??_filter_step
  7856     046D  0021               	movlb	1	; select bank1
  7857     046E  082D               	movf	(_s_ay+1)^(0+128),w
  7858     046F  0020               	movlb	0	; select bank0
  7859     0470  3B44               	subwfb	filter_step@ay_m+1,w
  7860     0471  00BB               	movwf	??_filter_step+1
  7861     0472  0021               	movlb	1	; select bank1
  7862     0473  082E               	movf	(_s_ay+2)^(0+128),w
  7863     0474  0020               	movlb	0	; select bank0
  7864     0475  3B45               	subwfb	filter_step@ay_m+2,w
  7865     0476  00BC               	movwf	??_filter_step+2
  7866     0477  0021               	movlb	1	; select bank1
  7867     0478  082F               	movf	(_s_ay+3)^(0+128),w
  7868     0479  0020               	movlb	0	; select bank0
  7869     047A  3B46               	subwfb	filter_step@ay_m+3,w
  7870     047B  00BD               	movwf	??_filter_step+3
  7871     047C  3003               	movlw	3
  7872     047D  00BE               	movwf	??_filter_step+4
  7873     047E                     u2645:
  7874     047E  37BD               	asrf	??_filter_step+3,f
  7875     047F  0CBC               	rrf	??_filter_step+2,f
  7876     0480  0CBB               	rrf	??_filter_step+1,f
  7877     0481  0CBA               	rrf	??_filter_step,f
  7878     0482                     u2640:
  7879     0482  0BBE               	decfsz	??_filter_step+4,f
  7880     0483  2C7E               	goto	u2645
  7881     0484  083A               	movf	??_filter_step,w
  7882     0485  0021               	movlb	1	; select bank1
  7883     0486  07AC               	addwf	_s_ay^(0+128),f
  7884     0487  0020               	movlb	0	; select bank0
  7885     0488  083B               	movf	??_filter_step+1,w
  7886     0489  0021               	movlb	1	; select bank1
  7887     048A  3DAD               	addwfc	(_s_ay+1)^(0+128),f
  7888     048B  0020               	movlb	0	; select bank0
  7889     048C  083C               	movf	??_filter_step+2,w
  7890     048D  0021               	movlb	1	; select bank1
  7891     048E  3DAE               	addwfc	(_s_ay+2)^(0+128),f
  7892     048F  0020               	movlb	0	; select bank0
  7893     0490  083D               	movf	??_filter_step+3,w
  7894     0491  0021               	movlb	1	; select bank1
  7895     0492  3DAF               	addwfc	(_s_ay+3)^(0+128),f
  7896                           
  7897                           ;main.c: 408:         s_az += (az_m - s_az) >> 3;
  7898     0493  0828               	movf	_s_az^(0+128),w
  7899     0494  0020               	movlb	0	; select bank0
  7900     0495  0247               	subwf	filter_step@az_m,w
  7901     0496  00BA               	movwf	??_filter_step
  7902     0497  0021               	movlb	1	; select bank1
  7903     0498  0829               	movf	(_s_az+1)^(0+128),w
  7904     0499  0020               	movlb	0	; select bank0
  7905     049A  3B48               	subwfb	filter_step@az_m+1,w
  7906     049B  00BB               	movwf	??_filter_step+1
  7907     049C  0021               	movlb	1	; select bank1
  7908     049D  082A               	movf	(_s_az+2)^(0+128),w
  7909     049E  0020               	movlb	0	; select bank0
  7910     049F  3B49               	subwfb	filter_step@az_m+2,w
  7911     04A0  00BC               	movwf	??_filter_step+2
  7912     04A1  0021               	movlb	1	; select bank1
  7913     04A2  082B               	movf	(_s_az+3)^(0+128),w
  7914     04A3  0020               	movlb	0	; select bank0
  7915     04A4  3B4A               	subwfb	filter_step@az_m+3,w
  7916     04A5  00BD               	movwf	??_filter_step+3
  7917     04A6  3003               	movlw	3
  7918     04A7  00BE               	movwf	??_filter_step+4
  7919     04A8                     u2655:
  7920     04A8  37BD               	asrf	??_filter_step+3,f
  7921     04A9  0CBC               	rrf	??_filter_step+2,f
  7922     04AA  0CBB               	rrf	??_filter_step+1,f
  7923     04AB  0CBA               	rrf	??_filter_step,f
  7924     04AC                     u2650:
  7925     04AC  0BBE               	decfsz	??_filter_step+4,f
  7926     04AD  2CA8               	goto	u2655
  7927     04AE  083A               	movf	??_filter_step,w
  7928     04AF  0021               	movlb	1	; select bank1
  7929     04B0  07A8               	addwf	_s_az^(0+128),f
  7930     04B1  0020               	movlb	0	; select bank0
  7931     04B2  083B               	movf	??_filter_step+1,w
  7932     04B3  0021               	movlb	1	; select bank1
  7933     04B4  3DA9               	addwfc	(_s_az+1)^(0+128),f
  7934     04B5  0020               	movlb	0	; select bank0
  7935     04B6  083C               	movf	??_filter_step+2,w
  7936     04B7  0021               	movlb	1	; select bank1
  7937     04B8  3DAA               	addwfc	(_s_az+2)^(0+128),f
  7938     04B9  0020               	movlb	0	; select bank0
  7939     04BA  083D               	movf	??_filter_step+3,w
  7940     04BB  0021               	movlb	1	; select bank1
  7941     04BC  3DAB               	addwfc	(_s_az+3)^(0+128),f
  7942                           
  7943                           ;main.c: 409:         s_gx += (gx_m - s_gx) >> 2;
  7944     04BD  0824               	movf	_s_gx^(0+128),w
  7945     04BE  0020               	movlb	0	; select bank0
  7946     04BF  024B               	subwf	filter_step@gx_m,w
  7947     04C0  00BA               	movwf	??_filter_step
  7948     04C1  0021               	movlb	1	; select bank1
  7949     04C2  0825               	movf	(_s_gx+1)^(0+128),w
  7950     04C3  0020               	movlb	0	; select bank0
  7951     04C4  3B4C               	subwfb	filter_step@gx_m+1,w
  7952     04C5  00BB               	movwf	??_filter_step+1
  7953     04C6  0021               	movlb	1	; select bank1
  7954     04C7  0826               	movf	(_s_gx+2)^(0+128),w
  7955     04C8  0020               	movlb	0	; select bank0
  7956     04C9  3B4D               	subwfb	filter_step@gx_m+2,w
  7957     04CA  00BC               	movwf	??_filter_step+2
  7958     04CB  0021               	movlb	1	; select bank1
  7959     04CC  0827               	movf	(_s_gx+3)^(0+128),w
  7960     04CD  0020               	movlb	0	; select bank0
  7961     04CE  3B4E               	subwfb	filter_step@gx_m+3,w
  7962     04CF  00BD               	movwf	??_filter_step+3
  7963     04D0  3002               	movlw	2
  7964     04D1  00BE               	movwf	??_filter_step+4
  7965     04D2                     u2665:
  7966     04D2  37BD               	asrf	??_filter_step+3,f
  7967     04D3  0CBC               	rrf	??_filter_step+2,f
  7968     04D4  0CBB               	rrf	??_filter_step+1,f
  7969     04D5  0CBA               	rrf	??_filter_step,f
  7970     04D6                     u2660:
  7971     04D6  0BBE               	decfsz	??_filter_step+4,f
  7972     04D7  2CD2               	goto	u2665
  7973     04D8  083A               	movf	??_filter_step,w
  7974     04D9  0021               	movlb	1	; select bank1
  7975     04DA  07A4               	addwf	_s_gx^(0+128),f
  7976     04DB  0020               	movlb	0	; select bank0
  7977     04DC  083B               	movf	??_filter_step+1,w
  7978     04DD  0021               	movlb	1	; select bank1
  7979     04DE  3DA5               	addwfc	(_s_gx+1)^(0+128),f
  7980     04DF  0020               	movlb	0	; select bank0
  7981     04E0  083C               	movf	??_filter_step+2,w
  7982     04E1  0021               	movlb	1	; select bank1
  7983     04E2  3DA6               	addwfc	(_s_gx+2)^(0+128),f
  7984     04E3  0020               	movlb	0	; select bank0
  7985     04E4  083D               	movf	??_filter_step+3,w
  7986     04E5  0021               	movlb	1	; select bank1
  7987     04E6  3DA7               	addwfc	(_s_gx+3)^(0+128),f
  7988                           
  7989                           ;main.c: 410:         s_gy += (gy_m - s_gy) >> 2;
  7990     04E7  0820               	movf	_s_gy^(0+128),w
  7991     04E8  0020               	movlb	0	; select bank0
  7992     04E9  024F               	subwf	filter_step@gy_m,w
  7993     04EA  00BA               	movwf	??_filter_step
  7994     04EB  0021               	movlb	1	; select bank1
  7995     04EC  0821               	movf	(_s_gy+1)^(0+128),w
  7996     04ED  0020               	movlb	0	; select bank0
  7997     04EE  3B50               	subwfb	filter_step@gy_m+1,w
  7998     04EF  00BB               	movwf	??_filter_step+1
  7999     04F0  0021               	movlb	1	; select bank1
  8000     04F1  0822               	movf	(_s_gy+2)^(0+128),w
  8001     04F2  0020               	movlb	0	; select bank0
  8002     04F3  3B51               	subwfb	filter_step@gy_m+2,w
  8003     04F4  00BC               	movwf	??_filter_step+2
  8004     04F5  0021               	movlb	1	; select bank1
  8005     04F6  0823               	movf	(_s_gy+3)^(0+128),w
  8006     04F7  0020               	movlb	0	; select bank0
  8007     04F8  3B52               	subwfb	filter_step@gy_m+3,w
  8008     04F9  00BD               	movwf	??_filter_step+3
  8009     04FA  3002               	movlw	2
  8010     04FB  00BE               	movwf	??_filter_step+4
  8011     04FC                     u2675:
  8012     04FC  37BD               	asrf	??_filter_step+3,f
  8013     04FD  0CBC               	rrf	??_filter_step+2,f
  8014     04FE  0CBB               	rrf	??_filter_step+1,f
  8015     04FF  0CBA               	rrf	??_filter_step,f
  8016     0500                     u2670:
  8017     0500  0BBE               	decfsz	??_filter_step+4,f
  8018     0501  2CFC               	goto	u2675
  8019     0502  083A               	movf	??_filter_step,w
  8020     0503  0021               	movlb	1	; select bank1
  8021     0504  07A0               	addwf	_s_gy^(0+128),f
  8022     0505  0020               	movlb	0	; select bank0
  8023     0506  083B               	movf	??_filter_step+1,w
  8024     0507  0021               	movlb	1	; select bank1
  8025     0508  3DA1               	addwfc	(_s_gy+1)^(0+128),f
  8026     0509  0020               	movlb	0	; select bank0
  8027     050A  083C               	movf	??_filter_step+2,w
  8028     050B  0021               	movlb	1	; select bank1
  8029     050C  3DA2               	addwfc	(_s_gy+2)^(0+128),f
  8030     050D  0020               	movlb	0	; select bank0
  8031     050E  083D               	movf	??_filter_step+3,w
  8032     050F  0021               	movlb	1	; select bank1
  8033     0510  3DA3               	addwfc	(_s_gy+3)^(0+128),f
  8034                           
  8035                           ;main.c: 411:         s_gz += (gz_m - s_gz) >> 2;
  8036     0511  0022               	movlb	2	; select bank2
  8037     0512  0850               	movf	_s_gz^(0+256),w
  8038     0513  0020               	movlb	0	; select bank0
  8039     0514  0253               	subwf	filter_step@gz_m,w
  8040     0515  00BA               	movwf	??_filter_step
  8041     0516  0022               	movlb	2	; select bank2
  8042     0517  0851               	movf	(_s_gz+1)^(0+256),w
  8043     0518  0020               	movlb	0	; select bank0
  8044     0519  3B54               	subwfb	filter_step@gz_m+1,w
  8045     051A  00BB               	movwf	??_filter_step+1
  8046     051B  0022               	movlb	2	; select bank2
  8047     051C  0852               	movf	(_s_gz+2)^(0+256),w
  8048     051D  0020               	movlb	0	; select bank0
  8049     051E  3B55               	subwfb	filter_step@gz_m+2,w
  8050     051F  00BC               	movwf	??_filter_step+2
  8051     0520  0022               	movlb	2	; select bank2
  8052     0521  0853               	movf	(_s_gz+3)^(0+256),w
  8053     0522  0020               	movlb	0	; select bank0
  8054     0523  3B56               	subwfb	filter_step@gz_m+3,w
  8055     0524  00BD               	movwf	??_filter_step+3
  8056     0525  3002               	movlw	2
  8057     0526  00BE               	movwf	??_filter_step+4
  8058     0527                     u2685:
  8059     0527  37BD               	asrf	??_filter_step+3,f
  8060     0528  0CBC               	rrf	??_filter_step+2,f
  8061     0529  0CBB               	rrf	??_filter_step+1,f
  8062     052A  0CBA               	rrf	??_filter_step,f
  8063     052B                     u2680:
  8064     052B  0BBE               	decfsz	??_filter_step+4,f
  8065     052C  2D27               	goto	u2685
  8066     052D  083A               	movf	??_filter_step,w
  8067     052E  0022               	movlb	2	; select bank2
  8068     052F  07D0               	addwf	_s_gz^(0+256),f
  8069     0530  0020               	movlb	0	; select bank0
  8070     0531  083B               	movf	??_filter_step+1,w
  8071     0532  0022               	movlb	2	; select bank2
  8072     0533  3DD1               	addwfc	(_s_gz+1)^(0+256),f
  8073     0534  0020               	movlb	0	; select bank0
  8074     0535  083C               	movf	??_filter_step+2,w
  8075     0536  0022               	movlb	2	; select bank2
  8076     0537  3DD2               	addwfc	(_s_gz+2)^(0+256),f
  8077     0538  0020               	movlb	0	; select bank0
  8078     0539  083D               	movf	??_filter_step+3,w
  8079     053A  0022               	movlb	2	; select bank2
  8080     053B  3DD3               	addwfc	(_s_gz+3)^(0+256),f
  8081     053C                     l394:
  8082     053C  0008               	return
  8083     053D                     __end_of_filter_step:
  8084                           
  8085                           	psect	text23
  8086     0804                     __ptext23:	
  8087 ;; *************** function _raw_to_mg *****************
  8088 ;; Defined at:
  8089 ;;		line 255 in file "main.c"
  8090 ;; Parameters:    Size  Location     Type
  8091 ;;  r               2   14[BANK0 ] short 
  8092 ;; Auto vars:     Size  Location     Type
  8093 ;;		None
  8094 ;; Return value:  Size  Location     Type
  8095 ;;                  4   14[BANK0 ] long 
  8096 ;; Registers used:
  8097 ;;		wreg, status,2, status,0, pclath, cstack
  8098 ;; Tracked objects:
  8099 ;;		On entry : 0/0
  8100 ;;		On exit  : 0/0
  8101 ;;		Unchanged: 0/0
  8102 ;; Data sizes:     COMMON   BANK0   BANK1   BANK2   BANK3   BANK4   BANK5   BANK6   BANK7   BANK8   BANK9  BANK10  BANK1
      +1  BANK12  BANK13  BANK14  BANK15  BANK16  BANK17  BANK18  BANK19  BANK20  BANK21  BANK22  BANK23  BANK24  BANK25
  8103 ;;      Params:         0       4       0       0       0       0       0       0       0       0       0       0       
      +0       0       0       0       0       0       0       0       0       0       0       0       0       0       0
  8104 ;;      Locals:         0       4       0       0       0       0       0       0       0       0       0       0       
      +0       0       0       0       0       0       0       0       0       0       0       0       0       0       0
  8105 ;;      Temps:          0       4       0       0       0       0       0       0       0       0       0       0       
      +0       0       0       0       0       0       0       0       0       0       0       0       0       0       0
  8106 ;;      Totals:         0      12       0       0       0       0       0       0       0       0       0       0       
      +0       0       0       0       0       0       0       0       0       0       0       0       0       0       0
  8107 ;;Total ram usage:       12 bytes
  8108 ;; Hardware stack levels used: 1
  8109 ;; Hardware stack levels required when called: 2
  8110 ;; This function calls:
  8111 ;;		___aldiv
  8112 ;;		___lmul
  8113 ;; This function is called by:
  8114 ;;		_mpu_calibrate
  8115 ;;		_filter_step
  8116 ;; This function uses a non-reentrant model
  8117 ;;
  8118                           
  8119     0804                     _raw_to_mg:	
  8120                           ;psect for function _raw_to_mg
  8121                           
  8122     0804                     l2450:	
  8123                           ;incstack = 0
  8124                           ; Regs used in _raw_to_mg: [wreg+status,2+status,0+pclath+cstack]
  8125                           
  8126                           
  8127                           ;main.c: 255: static int32_t raw_to_mg(int16_t r);main.c: 256: {;main.c: 257:     return
      +                           ((int32_t)r * 1000 + (r >= 0 ? 8192 : -8192)) / 16384;
  8128     0804  0020               	movlb	0	; select bank0
  8129     0805  1FAF               	btfss	raw_to_mg@r+1,7
  8130     0806  2808               	goto	u2191
  8131     0807  2809               	goto	u2190
  8132     0808                     u2191:
  8133     0808  2812               	goto	l2454
  8134     0809                     u2190:
  8135     0809                     l2452:
  8136     0809  30FF               	movlw	255
  8137     080A  00B9               	movwf	_raw_to_mg$633+3
  8138     080B  30FF               	movlw	255
  8139     080C  00B8               	movwf	_raw_to_mg$633+2
  8140     080D  30E0               	movlw	224
  8141     080E  00B7               	movwf	_raw_to_mg$633+1
  8142     080F  3000               	movlw	0
  8143     0810  00B6               	movwf	_raw_to_mg$633
  8144     0811  281A               	goto	l2456
  8145     0812                     l2454:
  8146     0812  3000               	movlw	0
  8147     0813  00B9               	movwf	_raw_to_mg$633+3
  8148     0814  3000               	movlw	0
  8149     0815  00B8               	movwf	_raw_to_mg$633+2
  8150     0816  3020               	movlw	32
  8151     0817  00B7               	movwf	_raw_to_mg$633+1
  8152     0818  3000               	movlw	0
  8153     0819  00B6               	movwf	_raw_to_mg$633
  8154     081A                     l2456:
  8155     081A  3000               	movlw	0
  8156     081B  00A3               	movwf	___aldiv@divisor+3
  8157     081C  3000               	movlw	0
  8158     081D  00A2               	movwf	___aldiv@divisor+2
  8159     081E  3040               	movlw	64
  8160     081F  00A1               	movwf	___aldiv@divisor+1
  8161     0820  3000               	movlw	0
  8162     0821  00A0               	movwf	___aldiv@divisor
  8163     0822  082E               	movf	raw_to_mg@r,w
  8164     0823  00F0               	movwf	___lmul@multiplier
  8165     0824  082F               	movf	raw_to_mg@r+1,w
  8166     0825  00F1               	movwf	___lmul@multiplier+1
  8167     0826  0D89               	rlf	9,f
  8168     0827  3B89               	subwfb	9,f
  8169     0828  0989               	comf	9,f
  8170     0829  00F2               	movwf	___lmul@multiplier+2
  8171     082A  00F3               	movwf	___lmul@multiplier+3
  8172     082B  3000               	movlw	0
  8173     082C  00F7               	movwf	___lmul@multiplicand+3
  8174     082D  3000               	movlw	0
  8175     082E  00F6               	movwf	___lmul@multiplicand+2
  8176     082F  3003               	movlw	3
  8177     0830  00F5               	movwf	___lmul@multiplicand+1
  8178     0831  30E8               	movlw	232
  8179     0832  00F4               	movwf	___lmul@multiplicand
  8180     0833  3196  26A2  3188   	fcall	___lmul
  8181     0836  0870               	movf	?___lmul,w
  8182     0837  0020               	movlb	0	; select bank0
  8183     0838  0736               	addwf	_raw_to_mg$633,w
  8184     0839  00B2               	movwf	??_raw_to_mg
  8185     083A  0871               	movf	?___lmul+1,w
  8186     083B  3D37               	addwfc	_raw_to_mg$633+1,w
  8187     083C  00B3               	movwf	??_raw_to_mg+1
  8188     083D  0872               	movf	?___lmul+2,w
  8189     083E  3D38               	addwfc	_raw_to_mg$633+2,w
  8190     083F  00B4               	movwf	??_raw_to_mg+2
  8191     0840  0873               	movf	?___lmul+3,w
  8192     0841  3D39               	addwfc	_raw_to_mg$633+3,w
  8193     0842  00B5               	movwf	??_raw_to_mg+3
  8194     0843  0835               	movf	??_raw_to_mg+3,w
  8195     0844  00A7               	movwf	___aldiv@dividend+3
  8196     0845  0834               	movf	??_raw_to_mg+2,w
  8197     0846  00A6               	movwf	___aldiv@dividend+2
  8198     0847  0833               	movf	??_raw_to_mg+1,w
  8199     0848  00A5               	movwf	___aldiv@dividend+1
  8200     0849  0832               	movf	??_raw_to_mg,w
  8201     084A  00A4               	movwf	___aldiv@dividend
  8202     084B  318B  23C5  3188   	fcall	___aldiv
  8203     084E  0020               	movlb	0	; select bank0
  8204     084F  0823               	movf	?___aldiv+3,w
  8205     0850  00B1               	movwf	?_raw_to_mg+3
  8206     0851  0822               	movf	?___aldiv+2,w
  8207     0852  00B0               	movwf	?_raw_to_mg+2
  8208     0853  0821               	movf	?___aldiv+1,w
  8209     0854  00AF               	movwf	?_raw_to_mg+1
  8210     0855  0820               	movf	?___aldiv,w
  8211     0856  00AE               	movwf	?_raw_to_mg
  8212     0857                     l308:
  8213     0857  0008               	return
  8214     0858                     __end_of_raw_to_mg:
  8215                           
  8216                           	psect	text24
  8217     17AC                     __ptext24:	
  8218 ;; *************** function _raw_to_mdps *****************
  8219 ;; Defined at:
  8220 ;;		line 260 in file "main.c"
  8221 ;; Parameters:    Size  Location     Type
  8222 ;;  r               2   14[BANK0 ] short 
  8223 ;; Auto vars:     Size  Location     Type
  8224 ;;		None
  8225 ;; Return value:  Size  Location     Type
  8226 ;;                  4   14[BANK0 ] long 
  8227 ;; Registers used:
  8228 ;;		wreg, status,2, status,0, pclath, cstack
  8229 ;; Tracked objects:
  8230 ;;		On entry : 0/0
  8231 ;;		On exit  : 0/0
  8232 ;;		Unchanged: 0/0
  8233 ;; Data sizes:     COMMON   BANK0   BANK1   BANK2   BANK3   BANK4   BANK5   BANK6   BANK7   BANK8   BANK9  BANK10  BANK1
      +1  BANK12  BANK13  BANK14  BANK15  BANK16  BANK17  BANK18  BANK19  BANK20  BANK21  BANK22  BANK23  BANK24  BANK25
  8234 ;;      Params:         0       4       0       0       0       0       0       0       0       0       0       0       
      +0       0       0       0       0       0       0       0       0       0       0       0       0       0       0
  8235 ;;      Locals:         0       4       0       0       0       0       0       0       0       0       0       0       
      +0       0       0       0       0       0       0       0       0       0       0       0       0       0       0
  8236 ;;      Temps:          0       4       0       0       0       0       0       0       0       0       0       0       
      +0       0       0       0       0       0       0       0       0       0       0       0       0       0       0
  8237 ;;      Totals:         0      12       0       0       0       0       0       0       0       0       0       0       
      +0       0       0       0       0       0       0       0       0       0       0       0       0       0       0
  8238 ;;Total ram usage:       12 bytes
  8239 ;; Hardware stack levels used: 1
  8240 ;; Hardware stack levels required when called: 2
  8241 ;; This function calls:
  8242 ;;		___aldiv
  8243 ;;		___lmul
  8244 ;; This function is called by:
  8245 ;;		_mpu_calibrate
  8246 ;;		_filter_step
  8247 ;; This function uses a non-reentrant model
  8248 ;;
  8249                           
  8250     17AC                     _raw_to_mdps:	
  8251                           ;psect for function _raw_to_mdps
  8252                           
  8253     17AC                     l2460:	
  8254                           ;incstack = 0
  8255                           ; Regs used in _raw_to_mdps: [wreg+status,2+status,0+pclath+cstack]
  8256                           
  8257                           
  8258                           ;main.c: 260: static int32_t raw_to_mdps(int16_t r);main.c: 261: {;main.c: 262:     retu
      +                          rn ((int32_t)r * 1000 + (r >= 0 ? 65 : -65)) / 131;
  8259     17AC  0020               	movlb	0	; select bank0
  8260     17AD  1FAF               	btfss	raw_to_mdps@r+1,7
  8261     17AE  2FB0               	goto	u2201
  8262     17AF  2FB1               	goto	u2200
  8263     17B0                     u2201:
  8264     17B0  2FBA               	goto	l2464
  8265     17B1                     u2200:
  8266     17B1                     l2462:
  8267     17B1  30FF               	movlw	255
  8268     17B2  00B9               	movwf	_raw_to_mdps$636+3
  8269     17B3  30FF               	movlw	255
  8270     17B4  00B8               	movwf	_raw_to_mdps$636+2
  8271     17B5  30FF               	movlw	255
  8272     17B6  00B7               	movwf	_raw_to_mdps$636+1
  8273     17B7  30BF               	movlw	191
  8274     17B8  00B6               	movwf	_raw_to_mdps$636
  8275     17B9  2FC2               	goto	l2466
  8276     17BA                     l2464:
  8277     17BA  3000               	movlw	0
  8278     17BB  00B9               	movwf	_raw_to_mdps$636+3
  8279     17BC  3000               	movlw	0
  8280     17BD  00B8               	movwf	_raw_to_mdps$636+2
  8281     17BE  3000               	movlw	0
  8282     17BF  00B7               	movwf	_raw_to_mdps$636+1
  8283     17C0  3041               	movlw	65
  8284     17C1  00B6               	movwf	_raw_to_mdps$636
  8285     17C2                     l2466:
  8286     17C2  3000               	movlw	0
  8287     17C3  00A3               	movwf	___aldiv@divisor+3
  8288     17C4  3000               	movlw	0
  8289     17C5  00A2               	movwf	___aldiv@divisor+2
  8290     17C6  3000               	movlw	0
  8291     17C7  00A1               	movwf	___aldiv@divisor+1
  8292     17C8  3083               	movlw	131
  8293     17C9  00A0               	movwf	___aldiv@divisor
  8294     17CA  082E               	movf	raw_to_mdps@r,w
  8295     17CB  00F0               	movwf	___lmul@multiplier
  8296     17CC  082F               	movf	raw_to_mdps@r+1,w
  8297     17CD  00F1               	movwf	___lmul@multiplier+1
  8298     17CE  0D89               	rlf	9,f
  8299     17CF  3B89               	subwfb	9,f
  8300     17D0  0989               	comf	9,f
  8301     17D1  00F2               	movwf	___lmul@multiplier+2
  8302     17D2  00F3               	movwf	___lmul@multiplier+3
  8303     17D3  3000               	movlw	0
  8304     17D4  00F7               	movwf	___lmul@multiplicand+3
  8305     17D5  3000               	movlw	0
  8306     17D6  00F6               	movwf	___lmul@multiplicand+2
  8307     17D7  3003               	movlw	3
  8308     17D8  00F5               	movwf	___lmul@multiplicand+1
  8309     17D9  30E8               	movlw	232
  8310     17DA  00F4               	movwf	___lmul@multiplicand
  8311     17DB  3196  26A2  3197   	fcall	___lmul
  8312     17DE  0870               	movf	?___lmul,w
  8313     17DF  0020               	movlb	0	; select bank0
  8314     17E0  0736               	addwf	_raw_to_mdps$636,w
  8315     17E1  00B2               	movwf	??_raw_to_mdps
  8316     17E2  0871               	movf	?___lmul+1,w
  8317     17E3  3D37               	addwfc	_raw_to_mdps$636+1,w
  8318     17E4  00B3               	movwf	??_raw_to_mdps+1
  8319     17E5  0872               	movf	?___lmul+2,w
  8320     17E6  3D38               	addwfc	_raw_to_mdps$636+2,w
  8321     17E7  00B4               	movwf	??_raw_to_mdps+2
  8322     17E8  0873               	movf	?___lmul+3,w
  8323     17E9  3D39               	addwfc	_raw_to_mdps$636+3,w
  8324     17EA  00B5               	movwf	??_raw_to_mdps+3
  8325     17EB  0835               	movf	??_raw_to_mdps+3,w
  8326     17EC  00A7               	movwf	___aldiv@dividend+3
  8327     17ED  0834               	movf	??_raw_to_mdps+2,w
  8328     17EE  00A6               	movwf	___aldiv@dividend+2
  8329     17EF  0833               	movf	??_raw_to_mdps+1,w
  8330     17F0  00A5               	movwf	___aldiv@dividend+1
  8331     17F1  0832               	movf	??_raw_to_mdps,w
  8332     17F2  00A4               	movwf	___aldiv@dividend
  8333     17F3  318B  23C5  3197   	fcall	___aldiv
  8334     17F6  0020               	movlb	0	; select bank0
  8335     17F7  0823               	movf	?___aldiv+3,w
  8336     17F8  00B1               	movwf	?_raw_to_mdps+3
  8337     17F9  0822               	movf	?___aldiv+2,w
  8338     17FA  00B0               	movwf	?_raw_to_mdps+2
  8339     17FB  0821               	movf	?___aldiv+1,w
  8340     17FC  00AF               	movwf	?_raw_to_mdps+1
  8341     17FD  0820               	movf	?___aldiv,w
  8342     17FE  00AE               	movwf	?_raw_to_mdps
  8343     17FF                     l315:
  8344     17FF  0008               	return
  8345     1800                     __end_of_raw_to_mdps:
  8346                           
  8347                           	psect	text25
  8348     16A2                     __ptext25:	
  8349 ;; *************** function ___lmul *****************
  8350 ;; Defined at:
  8351 ;;		line 15 in file "C:\Program Files\Microchip\xc8\v2.46\pic\sources\c99\common\Umul32.c"
  8352 ;; Parameters:    Size  Location     Type
  8353 ;;  multiplier      4    0[COMMON] unsigned long 
  8354 ;;  multiplicand    4    4[COMMON] unsigned long 
  8355 ;; Auto vars:     Size  Location     Type
  8356 ;;  product         4    8[COMMON] unsigned long 
  8357 ;; Return value:  Size  Location     Type
  8358 ;;                  4    0[COMMON] unsigned long 
  8359 ;; Registers used:
  8360 ;;		wreg, status,2, status,0
  8361 ;; Tracked objects:
  8362 ;;		On entry : 0/0
  8363 ;;		On exit  : 0/0
  8364 ;;		Unchanged: 0/0
  8365 ;; Data sizes:     COMMON   BANK0   BANK1   BANK2   BANK3   BANK4   BANK5   BANK6   BANK7   BANK8   BANK9  BANK10  BANK1
      +1  BANK12  BANK13  BANK14  BANK15  BANK16  BANK17  BANK18  BANK19  BANK20  BANK21  BANK22  BANK23  BANK24  BANK25
  8366 ;;      Params:         8       0       0       0       0       0       0       0       0       0       0       0       
      +0       0       0       0       0       0       0       0       0       0       0       0       0       0       0
  8367 ;;      Locals:         4       0       0       0       0       0       0       0       0       0       0       0       
      +0       0       0       0       0       0       0       0       0       0       0       0       0       0       0
  8368 ;;      Temps:          0       0       0       0       0       0       0       0       0       0       0       0       
      +0       0       0       0       0       0       0       0       0       0       0       0       0       0       0
  8369 ;;      Totals:        12       0       0       0       0       0       0       0       0       0       0       0       
      +0       0       0       0       0       0       0       0       0       0       0       0       0       0       0
  8370 ;;Total ram usage:       12 bytes
  8371 ;; Hardware stack levels used: 1
  8372 ;; Hardware stack levels required when called: 1
  8373 ;; This function calls:
  8374 ;;		Nothing
  8375 ;; This function is called by:
  8376 ;;		_raw_to_mg
  8377 ;;		_raw_to_mdps
  8378 ;;		_temp_to_c_x100
  8379 ;; This function uses a non-reentrant model
  8380 ;;
  8381                           
  8382     16A2                     ___lmul:	
  8383                           ;psect for function ___lmul
  8384                           
  8385     16A2                     l2298:	
  8386                           ;incstack = 0
  8387                           ; Regs used in ___lmul: [wreg+status,2+status,0]
  8388                           
  8389     16A2  3000               	movlw	0
  8390     16A3  00FB               	movwf	___lmul@product+3
  8391     16A4  3000               	movlw	0
  8392     16A5  00FA               	movwf	___lmul@product+2
  8393     16A6  3000               	movlw	0
  8394     16A7  00F9               	movwf	___lmul@product+1
  8395     16A8  3000               	movlw	0
  8396     16A9  00F8               	movwf	___lmul@product
  8397     16AA                     l2300:
  8398     16AA  1C70               	btfss	___lmul@multiplier,0
  8399     16AB  2EAD               	goto	u1881
  8400     16AC  2EAE               	goto	u1880
  8401     16AD                     u1881:
  8402     16AD  2EB6               	goto	l2304
  8403     16AE                     u1880:
  8404     16AE                     l2302:
  8405     16AE  0874               	movf	___lmul@multiplicand,w
  8406     16AF  07F8               	addwf	___lmul@product,f
  8407     16B0  0875               	movf	___lmul@multiplicand+1,w
  8408     16B1  3DF9               	addwfc	___lmul@product+1,f
  8409     16B2  0876               	movf	___lmul@multiplicand+2,w
  8410     16B3  3DFA               	addwfc	___lmul@product+2,f
  8411     16B4  0877               	movf	___lmul@multiplicand+3,w
  8412     16B5  3DFB               	addwfc	___lmul@product+3,f
  8413     16B6                     l2304:
  8414     16B6  3001               	movlw	1
  8415     16B7                     u1895:
  8416     16B7  35F4               	lslf	___lmul@multiplicand,f
  8417     16B8  0DF5               	rlf	___lmul@multiplicand+1,f
  8418     16B9  0DF6               	rlf	___lmul@multiplicand+2,f
  8419     16BA  0DF7               	rlf	___lmul@multiplicand+3,f
  8420     16BB  0B89               	decfsz	9,f
  8421     16BC  2EB7               	goto	u1895
  8422     16BD                     l2306:
  8423     16BD  3001               	movlw	1
  8424     16BE                     u1905:
  8425     16BE  36F3               	lsrf	___lmul@multiplier+3,f
  8426     16BF  0CF2               	rrf	___lmul@multiplier+2,f
  8427     16C0  0CF1               	rrf	___lmul@multiplier+1,f
  8428     16C1  0CF0               	rrf	___lmul@multiplier,f
  8429     16C2  0B89               	decfsz	9,f
  8430     16C3  2EBE               	goto	u1905
  8431     16C4  0873               	movf	___lmul@multiplier+3,w
  8432     16C5  0472               	iorwf	___lmul@multiplier+2,w
  8433     16C6  0471               	iorwf	___lmul@multiplier+1,w
  8434     16C7  0470               	iorwf	___lmul@multiplier,w
  8435     16C8  1D03               	skipz
  8436     16C9  2ECB               	goto	u1911
  8437     16CA  2ECC               	goto	u1910
  8438     16CB                     u1911:
  8439     16CB  2EAA               	goto	l2300
  8440     16CC                     u1910:
  8441     16CC                     l2308:
  8442     16CC  087B               	movf	___lmul@product+3,w
  8443     16CD  00F3               	movwf	?___lmul+3
  8444     16CE  087A               	movf	___lmul@product+2,w
  8445     16CF  00F2               	movwf	?___lmul+2
  8446     16D0  0879               	movf	___lmul@product+1,w
  8447     16D1  00F1               	movwf	?___lmul+1
  8448     16D2  0878               	movf	___lmul@product,w
  8449     16D3  00F0               	movwf	?___lmul
  8450     16D4                     l516:
  8451     16D4  0008               	return
  8452     16D5                     __end_of___lmul:
  8453                           
  8454                           	psect	text26
  8455     0C55                     __ptext26:	
  8456 ;; *************** function _median3 *****************
  8457 ;; Defined at:
  8458 ;;		line 274 in file "main.c"
  8459 ;; Parameters:    Size  Location     Type
  8460 ;;  a               4    0[COMMON] long 
  8461 ;;  b               4    4[COMMON] long 
  8462 ;;  c               4    8[COMMON] long 
  8463 ;; Auto vars:     Size  Location     Type
  8464 ;;  t               4    8[BANK0 ] long 
  8465 ;;  t               4    4[BANK0 ] long 
  8466 ;;  t               4    0[BANK0 ] long 
  8467 ;; Return value:  Size  Location     Type
  8468 ;;                  4    0[COMMON] long 
  8469 ;; Registers used:
  8470 ;;		wreg
  8471 ;; Tracked objects:
  8472 ;;		On entry : 0/0
  8473 ;;		On exit  : 0/0
  8474 ;;		Unchanged: 0/0
  8475 ;; Data sizes:     COMMON   BANK0   BANK1   BANK2   BANK3   BANK4   BANK5   BANK6   BANK7   BANK8   BANK9  BANK10  BANK1
      +1  BANK12  BANK13  BANK14  BANK15  BANK16  BANK17  BANK18  BANK19  BANK20  BANK21  BANK22  BANK23  BANK24  BANK25
  8476 ;;      Params:        12       0       0       0       0       0       0       0       0       0       0       0       
      +0       0       0       0       0       0       0       0       0       0       0       0       0       0       0
  8477 ;;      Locals:         0      12       0       0       0       0       0       0       0       0       0       0       
      +0       0       0       0       0       0       0       0       0       0       0       0       0       0       0
  8478 ;;      Temps:          1       0       0       0       0       0       0       0       0       0       0       0       
      +0       0       0       0       0       0       0       0       0       0       0       0       0       0       0
  8479 ;;      Totals:        13      12       0       0       0       0       0       0       0       0       0       0       
      +0       0       0       0       0       0       0       0       0       0       0       0       0       0       0
  8480 ;;Total ram usage:       25 bytes
  8481 ;; Hardware stack levels used: 1
  8482 ;; Hardware stack levels required when called: 1
  8483 ;; This function calls:
  8484 ;;		Nothing
  8485 ;; This function is called by:
  8486 ;;		_filter_step
  8487 ;; This function uses a non-reentrant model
  8488 ;;
  8489                           
  8490     0C55                     _median3:	
  8491                           ;psect for function _median3
  8492                           
  8493     0C55                     l2470:	
  8494                           ;incstack = 0
  8495                           ; Regs used in _median3: [wreg]
  8496                           
  8497                           
  8498                           ;main.c: 274: static int32_t median3(int32_t a, int32_t b, int32_t c);main.c: 275: {;mai
      +                          n.c: 276:     if (a > b) { int32_t t = a; a = b; b = t; }
  8499     0C55  0877               	movf	median3@b+3,w
  8500     0C56  3A80               	xorlw	128
  8501     0C57  00FC               	movwf	??_median3
  8502     0C58  0873               	movf	median3@a+3,w
  8503     0C59  3A80               	xorlw	128
  8504     0C5A  027C               	subwf	??_median3,w
  8505     0C5B  1D03               	skipz
  8506     0C5C  2C67               	goto	u2213
  8507     0C5D  0872               	movf	median3@a+2,w
  8508     0C5E  0276               	subwf	median3@b+2,w
  8509     0C5F  1D03               	skipz
  8510     0C60  2C67               	goto	u2213
  8511     0C61  0871               	movf	median3@a+1,w
  8512     0C62  0275               	subwf	median3@b+1,w
  8513     0C63  1D03               	skipz
  8514     0C64  2C67               	goto	u2213
  8515     0C65  0870               	movf	median3@a,w
  8516     0C66  0274               	subwf	median3@b,w
  8517     0C67                     u2213:
  8518     0C67  1803               	skipnc
  8519     0C68  2C6A               	goto	u2211
  8520     0C69  2C6B               	goto	u2210
  8521     0C6A                     u2211:
  8522     0C6A  2C84               	goto	l325
  8523     0C6B                     u2210:
  8524     0C6B                     l2472:
  8525     0C6B  0873               	movf	median3@a+3,w
  8526     0C6C  0020               	movlb	0	; select bank0
  8527     0C6D  00A3               	movwf	median3@t+3
  8528     0C6E  0872               	movf	median3@a+2,w
  8529     0C6F  00A2               	movwf	median3@t+2
  8530     0C70  0871               	movf	median3@a+1,w
  8531     0C71  00A1               	movwf	median3@t+1
  8532     0C72  0870               	movf	median3@a,w
  8533     0C73  00A0               	movwf	median3@t
  8534     0C74  0877               	movf	median3@b+3,w
  8535     0C75  00F3               	movwf	median3@a+3
  8536     0C76  0876               	movf	median3@b+2,w
  8537     0C77  00F2               	movwf	median3@a+2
  8538     0C78  0875               	movf	median3@b+1,w
  8539     0C79  00F1               	movwf	median3@a+1
  8540     0C7A  0874               	movf	median3@b,w
  8541     0C7B  00F0               	movwf	median3@a
  8542     0C7C  0823               	movf	median3@t+3,w
  8543     0C7D  00F7               	movwf	median3@b+3
  8544     0C7E  0822               	movf	median3@t+2,w
  8545     0C7F  00F6               	movwf	median3@b+2
  8546     0C80  0821               	movf	median3@t+1,w
  8547     0C81  00F5               	movwf	median3@b+1
  8548     0C82  0820               	movf	median3@t,w
  8549     0C83  00F4               	movwf	median3@b
  8550     0C84                     l325:
  8551                           
  8552                           ;main.c: 277:     if (b > c) { int32_t t = b; b = c; c = t; }
  8553     0C84  087B               	movf	median3@c+3,w
  8554     0C85  3A80               	xorlw	128
  8555     0C86  00FC               	movwf	??_median3
  8556     0C87  0877               	movf	median3@b+3,w
  8557     0C88  3A80               	xorlw	128
  8558     0C89  027C               	subwf	??_median3,w
  8559     0C8A  1D03               	skipz
  8560     0C8B  2C96               	goto	u2223
  8561     0C8C  0876               	movf	median3@b+2,w
  8562     0C8D  027A               	subwf	median3@c+2,w
  8563     0C8E  1D03               	skipz
  8564     0C8F  2C96               	goto	u2223
  8565     0C90  0875               	movf	median3@b+1,w
  8566     0C91  0279               	subwf	median3@c+1,w
  8567     0C92  1D03               	skipz
  8568     0C93  2C96               	goto	u2223
  8569     0C94  0874               	movf	median3@b,w
  8570     0C95  0278               	subwf	median3@c,w
  8571     0C96                     u2223:
  8572     0C96  1803               	skipnc
  8573     0C97  2C99               	goto	u2221
  8574     0C98  2C9A               	goto	u2220
  8575     0C99                     u2221:
  8576     0C99  2CB3               	goto	l326
  8577     0C9A                     u2220:
  8578     0C9A                     l2474:
  8579     0C9A  0877               	movf	median3@b+3,w
  8580     0C9B  0020               	movlb	0	; select bank0
  8581     0C9C  00A7               	movwf	median3@t_645+3
  8582     0C9D  0876               	movf	median3@b+2,w
  8583     0C9E  00A6               	movwf	median3@t_645+2
  8584     0C9F  0875               	movf	median3@b+1,w
  8585     0CA0  00A5               	movwf	median3@t_645+1
  8586     0CA1  0874               	movf	median3@b,w
  8587     0CA2  00A4               	movwf	median3@t_645
  8588     0CA3  087B               	movf	median3@c+3,w
  8589     0CA4  00F7               	movwf	median3@b+3
  8590     0CA5  087A               	movf	median3@c+2,w
  8591     0CA6  00F6               	movwf	median3@b+2
  8592     0CA7  0879               	movf	median3@c+1,w
  8593     0CA8  00F5               	movwf	median3@b+1
  8594     0CA9  0878               	movf	median3@c,w
  8595     0CAA  00F4               	movwf	median3@b
  8596     0CAB  0827               	movf	median3@t_645+3,w
  8597     0CAC  00FB               	movwf	median3@c+3
  8598     0CAD  0826               	movf	median3@t_645+2,w
  8599     0CAE  00FA               	movwf	median3@c+2
  8600     0CAF  0825               	movf	median3@t_645+1,w
  8601     0CB0  00F9               	movwf	median3@c+1
  8602     0CB1  0824               	movf	median3@t_645,w
  8603     0CB2  00F8               	movwf	median3@c
  8604     0CB3                     l326:
  8605                           
  8606                           ;main.c: 278:     if (a > b) { int32_t t = a; a = b; b = t; }
  8607     0CB3  0877               	movf	median3@b+3,w
  8608     0CB4  3A80               	xorlw	128
  8609     0CB5  00FC               	movwf	??_median3
  8610     0CB6  0873               	movf	median3@a+3,w
  8611     0CB7  3A80               	xorlw	128
  8612     0CB8  027C               	subwf	??_median3,w
  8613     0CB9  1D03               	skipz
  8614     0CBA  2CC5               	goto	u2233
  8615     0CBB  0872               	movf	median3@a+2,w
  8616     0CBC  0276               	subwf	median3@b+2,w
  8617     0CBD  1D03               	skipz
  8618     0CBE  2CC5               	goto	u2233
  8619     0CBF  0871               	movf	median3@a+1,w
  8620     0CC0  0275               	subwf	median3@b+1,w
  8621     0CC1  1D03               	skipz
  8622     0CC2  2CC5               	goto	u2233
  8623     0CC3  0870               	movf	median3@a,w
  8624     0CC4  0274               	subwf	median3@b,w
  8625     0CC5                     u2233:
  8626     0CC5  1803               	skipnc
  8627     0CC6  2CC8               	goto	u2231
  8628     0CC7  2CC9               	goto	u2230
  8629     0CC8                     u2231:
  8630     0CC8  2CE2               	goto	l327
  8631     0CC9                     u2230:
  8632     0CC9                     l2476:
  8633     0CC9  0873               	movf	median3@a+3,w
  8634     0CCA  0020               	movlb	0	; select bank0
  8635     0CCB  00AB               	movwf	median3@t_646+3
  8636     0CCC  0872               	movf	median3@a+2,w
  8637     0CCD  00AA               	movwf	median3@t_646+2
  8638     0CCE  0871               	movf	median3@a+1,w
  8639     0CCF  00A9               	movwf	median3@t_646+1
  8640     0CD0  0870               	movf	median3@a,w
  8641     0CD1  00A8               	movwf	median3@t_646
  8642     0CD2  0877               	movf	median3@b+3,w
  8643     0CD3  00F3               	movwf	median3@a+3
  8644     0CD4  0876               	movf	median3@b+2,w
  8645     0CD5  00F2               	movwf	median3@a+2
  8646     0CD6  0875               	movf	median3@b+1,w
  8647     0CD7  00F1               	movwf	median3@a+1
  8648     0CD8  0874               	movf	median3@b,w
  8649     0CD9  00F0               	movwf	median3@a
  8650     0CDA  082B               	movf	median3@t_646+3,w
  8651     0CDB  00F7               	movwf	median3@b+3
  8652     0CDC  082A               	movf	median3@t_646+2,w
  8653     0CDD  00F6               	movwf	median3@b+2
  8654     0CDE  0829               	movf	median3@t_646+1,w
  8655     0CDF  00F5               	movwf	median3@b+1
  8656     0CE0  0828               	movf	median3@t_646,w
  8657     0CE1  00F4               	movwf	median3@b
  8658     0CE2                     l327:
  8659                           
  8660                           ;main.c: 279:     return b;
  8661     0CE2  0877               	movf	median3@b+3,w
  8662     0CE3  00F3               	movwf	?_median3+3
  8663     0CE4  0876               	movf	median3@b+2,w
  8664     0CE5  00F2               	movwf	?_median3+2
  8665     0CE6  0875               	movf	median3@b+1,w
  8666     0CE7  00F1               	movwf	?_median3+1
  8667     0CE8  0874               	movf	median3@b,w
  8668     0CE9  00F0               	movwf	?_median3
  8669     0CEA                     l328:
  8670     0CEA  0008               	return
  8671     0CEB                     __end_of_median3:
  8672                           
  8673                           	psect	text27
  8674     0B3D                     __ptext27:	
  8675 ;; *************** function _UART_PrintFixed100 *****************
  8676 ;; Defined at:
  8677 ;;		line 445 in file "main.c"
  8678 ;; Parameters:    Size  Location     Type
  8679 ;;  val             4   33[BANK0 ] long 
  8680 ;; Auto vars:     Size  Location     Type
  8681 ;;  frac            4   41[BANK0 ] long 
  8682 ;; Return value:  Size  Location     Type
  8683 ;;                  1    wreg      void 
  8684 ;; Registers used:
  8685 ;;		wreg, fsr0l, fsr0h, fsr1l, fsr1h, status,2, status,0, pclath, cstack
  8686 ;; Tracked objects:
  8687 ;;		On entry : 0/0
  8688 ;;		On exit  : 0/0
  8689 ;;		Unchanged: 0/0
  8690 ;; Data sizes:     COMMON   BANK0   BANK1   BANK2   BANK3   BANK4   BANK5   BANK6   BANK7   BANK8   BANK9  BANK10  BANK1
      +1  BANK12  BANK13  BANK14  BANK15  BANK16  BANK17  BANK18  BANK19  BANK20  BANK21  BANK22  BANK23  BANK24  BANK25
  8691 ;;      Params:         0       4       0       0       0       0       0       0       0       0       0       0       
      +0       0       0       0       0       0       0       0       0       0       0       0       0       0       0
  8692 ;;      Locals:         0       8       0       0       0       0       0       0       0       0       0       0       
      +0       0       0       0       0       0       0       0       0       0       0       0       0       0       0
  8693 ;;      Temps:          0       0       0       0       0       0       0       0       0       0       0       0       
      +0       0       0       0       0       0       0       0       0       0       0       0       0       0       0
  8694 ;;      Totals:         0      12       0       0       0       0       0       0       0       0       0       0       
      +0       0       0       0       0       0       0       0       0       0       0       0       0       0       0
  8695 ;;Total ram usage:       12 bytes
  8696 ;; Hardware stack levels used: 1
  8697 ;; Hardware stack levels required when called: 4
  8698 ;; This function calls:
  8699 ;;		_EUSART_Write_Text
  8700 ;;		_UART_PrintInt32
  8701 ;;		___aldiv
  8702 ;;		___almod
  8703 ;; This function is called by:
  8704 ;;		_main
  8705 ;; This function uses a non-reentrant model
  8706 ;;
  8707                           
  8708     0B3D                     _UART_PrintFixed100:	
  8709                           ;psect for function _UART_PrintFixed100
  8710                           
  8711     0B3D                     l2770:	
  8712                           ;incstack = 0
  8713                           ; Regs used in _UART_PrintFixed100: [wreg-fsr1h+status,2+status,0+pclath+cstack]
  8714                           
  8715                           
  8716                           ;main.c: 445: static void UART_PrintFixed100(int32_t val);main.c: 446: {;main.c: 447:   
      +                            if (val < 0) { EUSART_Write_Text("-"); val = -val; }
  8717     0B3D  0020               	movlb	0	; select bank0
  8718     0B3E  1FC4               	btfss	UART_PrintFixed100@val+3,7
  8719     0B3F  2B41               	goto	u2691
  8720     0B40  2B42               	goto	u2690
  8721     0B41                     u2691:
  8722     0B41  2B55               	goto	l2776
  8723     0B42                     u2690:
  8724     0B42                     l2772:
  8725     0B42  3094               	movlw	low (STR_1| (0+32768))
  8726     0B43  00F1               	movwf	EUSART_Write_Text@text
  8727     0B44  3099               	movlw	high (STR_1| (0+32768))
  8728     0B45  00F2               	movwf	EUSART_Write_Text@text+1
  8729     0B46  3195  25A4  318B   	fcall	_EUSART_Write_Text
  8730     0B49                     l2774:
  8731     0B49  0020               	movlb	0	; select bank0
  8732     0B4A  09C1               	comf	UART_PrintFixed100@val,f
  8733     0B4B  09C2               	comf	UART_PrintFixed100@val+1,f
  8734     0B4C  09C3               	comf	UART_PrintFixed100@val+2,f
  8735     0B4D  09C4               	comf	UART_PrintFixed100@val+3,f
  8736     0B4E  0AC1               	incf	UART_PrintFixed100@val,f
  8737     0B4F  1903               	skipnz
  8738     0B50  0AC2               	incf	UART_PrintFixed100@val+1,f
  8739     0B51  1903               	skipnz
  8740     0B52  0AC3               	incf	UART_PrintFixed100@val+2,f
  8741     0B53  1903               	skipnz
  8742     0B54  0AC4               	incf	UART_PrintFixed100@val+3,f
  8743     0B55                     l2776:
  8744                           
  8745                           ;main.c: 449:     UART_PrintInt32(val / 100);
  8746     0B55  3000               	movlw	0
  8747     0B56  00A3               	movwf	___aldiv@divisor+3
  8748     0B57  3000               	movlw	0
  8749     0B58  00A2               	movwf	___aldiv@divisor+2
  8750     0B59  3000               	movlw	0
  8751     0B5A  00A1               	movwf	___aldiv@divisor+1
  8752     0B5B  3064               	movlw	100
  8753     0B5C  00A0               	movwf	___aldiv@divisor
  8754     0B5D  0844               	movf	UART_PrintFixed100@val+3,w
  8755     0B5E  00A7               	movwf	___aldiv@dividend+3
  8756     0B5F  0843               	movf	UART_PrintFixed100@val+2,w
  8757     0B60  00A6               	movwf	___aldiv@dividend+2
  8758     0B61  0842               	movf	UART_PrintFixed100@val+1,w
  8759     0B62  00A5               	movwf	___aldiv@dividend+1
  8760     0B63  0841               	movf	UART_PrintFixed100@val,w
  8761     0B64  00A4               	movwf	___aldiv@dividend
  8762     0B65  318B  23C5  318B   	fcall	___aldiv
  8763     0B68  0020               	movlb	0	; select bank0
  8764     0B69  0823               	movf	?___aldiv+3,w
  8765     0B6A  00C8               	movwf	_UART_PrintFixed100$1339+3
  8766     0B6B  0822               	movf	?___aldiv+2,w
  8767     0B6C  00C7               	movwf	_UART_PrintFixed100$1339+2
  8768     0B6D  0821               	movf	?___aldiv+1,w
  8769     0B6E  00C6               	movwf	_UART_PrintFixed100$1339+1
  8770     0B6F  0820               	movf	?___aldiv,w
  8771     0B70  00C5               	movwf	_UART_PrintFixed100$1339
  8772     0B71                     l2778:
  8773                           
  8774                           ;main.c: 449:     UART_PrintInt32(val / 100);
  8775     0B71  0848               	movf	_UART_PrintFixed100$1339+3,w
  8776     0B72  00B1               	movwf	UART_PrintInt32@val+3
  8777     0B73  0847               	movf	_UART_PrintFixed100$1339+2,w
  8778     0B74  00B0               	movwf	UART_PrintInt32@val+2
  8779     0B75  0846               	movf	_UART_PrintFixed100$1339+1,w
  8780     0B76  00AF               	movwf	UART_PrintInt32@val+1
  8781     0B77  0845               	movf	_UART_PrintFixed100$1339,w
  8782     0B78  00AE               	movwf	UART_PrintInt32@val
  8783     0B79  318C  24EB  318B   	fcall	_UART_PrintInt32
  8784     0B7C                     l2780:
  8785                           
  8786                           ;main.c: 450:     EUSART_Write_Text(".");
  8787     0B7C  3096               	movlw	low (STR_5| (0+32768))
  8788     0B7D  00F1               	movwf	EUSART_Write_Text@text
  8789     0B7E  3099               	movlw	high (STR_5| (0+32768))
  8790     0B7F  00F2               	movwf	EUSART_Write_Text@text+1
  8791     0B80  3195  25A4  318B   	fcall	_EUSART_Write_Text
  8792     0B83                     l2782:
  8793                           
  8794                           ;main.c: 451:     int32_t frac = val % 100;
  8795     0B83  3000               	movlw	0
  8796     0B84  00F3               	movwf	___almod@divisor+3
  8797     0B85  3000               	movlw	0
  8798     0B86  00F2               	movwf	___almod@divisor+2
  8799     0B87  3000               	movlw	0
  8800     0B88  00F1               	movwf	___almod@divisor+1
  8801     0B89  3064               	movlw	100
  8802     0B8A  00F0               	movwf	___almod@divisor
  8803     0B8B  0020               	movlb	0	; select bank0
  8804     0B8C  0844               	movf	UART_PrintFixed100@val+3,w
  8805     0B8D  00F7               	movwf	___almod@dividend+3
  8806     0B8E  0843               	movf	UART_PrintFixed100@val+2,w
  8807     0B8F  00F6               	movwf	___almod@dividend+2
  8808     0B90  0842               	movf	UART_PrintFixed100@val+1,w
  8809     0B91  00F5               	movwf	___almod@dividend+1
  8810     0B92  0841               	movf	UART_PrintFixed100@val,w
  8811     0B93  00F4               	movwf	___almod@dividend
  8812     0B94  318A  22C2  318B   	fcall	___almod
  8813     0B97  0873               	movf	?___almod+3,w
  8814     0B98  0020               	movlb	0	; select bank0
  8815     0B99  00CC               	movwf	UART_PrintFixed100@frac+3
  8816     0B9A  0872               	movf	?___almod+2,w
  8817     0B9B  00CB               	movwf	UART_PrintFixed100@frac+2
  8818     0B9C  0871               	movf	?___almod+1,w
  8819     0B9D  00CA               	movwf	UART_PrintFixed100@frac+1
  8820     0B9E  0870               	movf	?___almod,w
  8821     0B9F  00C9               	movwf	UART_PrintFixed100@frac
  8822     0BA0                     l2784:
  8823                           
  8824                           ;main.c: 452:     if (frac < 10) EUSART_Write_Text("0");
  8825     0BA0  1BCC               	btfsc	UART_PrintFixed100@frac+3,7
  8826     0BA1  2BB1               	goto	u2700
  8827     0BA2  084C               	movf	UART_PrintFixed100@frac+3,w
  8828     0BA3  1D03               	btfss	3,2
  8829     0BA4  2BB0               	goto	u2701
  8830     0BA5  084B               	movf	UART_PrintFixed100@frac+2,w
  8831     0BA6  1D03               	btfss	3,2
  8832     0BA7  2BB0               	goto	u2701
  8833     0BA8  084A               	movf	UART_PrintFixed100@frac+1,w
  8834     0BA9  1D03               	btfss	3,2
  8835     0BAA  2BB0               	goto	u2701
  8836     0BAB  300A               	movlw	10
  8837     0BAC  0249               	subwf	UART_PrintFixed100@frac,w
  8838     0BAD  1803               	btfsc	3,0
  8839     0BAE  2BB0               	goto	u2701
  8840     0BAF  2BB1               	goto	u2700
  8841     0BB0                     u2701:
  8842     0BB0  2BB8               	goto	l2788
  8843     0BB1                     u2700:
  8844     0BB1                     l2786:
  8845     0BB1  3098               	movlw	low (STR_3| (0+32768))
  8846     0BB2  00F1               	movwf	EUSART_Write_Text@text
  8847     0BB3  3099               	movlw	high (STR_3| (0+32768))
  8848     0BB4  00F2               	movwf	EUSART_Write_Text@text+1
  8849     0BB5  3195  25A4  318B   	fcall	_EUSART_Write_Text
  8850     0BB8                     l2788:
  8851                           
  8852                           ;main.c: 453:     UART_PrintInt32(frac);
  8853     0BB8  0020               	movlb	0	; select bank0
  8854     0BB9  084C               	movf	UART_PrintFixed100@frac+3,w
  8855     0BBA  00B1               	movwf	UART_PrintInt32@val+3
  8856     0BBB  084B               	movf	UART_PrintFixed100@frac+2,w
  8857     0BBC  00B0               	movwf	UART_PrintInt32@val+2
  8858     0BBD  084A               	movf	UART_PrintFixed100@frac+1,w
  8859     0BBE  00AF               	movwf	UART_PrintInt32@val+1
  8860     0BBF  0849               	movf	UART_PrintFixed100@frac,w
  8861     0BC0  00AE               	movwf	UART_PrintInt32@val
  8862     0BC1  318C  24EB  318B   	fcall	_UART_PrintInt32
  8863     0BC4                     l412:
  8864     0BC4  0008               	return
  8865     0BC5                     __end_of_UART_PrintFixed100:
  8866                           
  8867                           	psect	text28
  8868     0CEB                     __ptext28:	
  8869 ;; *************** function _UART_PrintInt32 *****************
  8870 ;; Defined at:
  8871 ;;		line 419 in file "main.c"
  8872 ;; Parameters:    Size  Location     Type
  8873 ;;  val             4   14[BANK0 ] long 
  8874 ;; Auto vars:     Size  Location     Type
  8875 ;;  c               2   30[BANK0 ] unsigned char [2]
  8876 ;;  buf            12   18[BANK0 ] unsigned char [12]
  8877 ;;  i               1   32[BANK0 ] char 
  8878 ;; Return value:  Size  Location     Type
  8879 ;;                  1    wreg      void 
  8880 ;; Registers used:
  8881 ;;		wreg, fsr0l, fsr0h, fsr1l, fsr1h, status,2, status,0, pclath, cstack
  8882 ;; Tracked objects:
  8883 ;;		On entry : 0/0
  8884 ;;		On exit  : 0/0
  8885 ;;		Unchanged: 0/0
  8886 ;; Data sizes:     COMMON   BANK0   BANK1   BANK2   BANK3   BANK4   BANK5   BANK6   BANK7   BANK8   BANK9  BANK10  BANK1
      +1  BANK12  BANK13  BANK14  BANK15  BANK16  BANK17  BANK18  BANK19  BANK20  BANK21  BANK22  BANK23  BANK24  BANK25
  8887 ;;      Params:         0       4       0       0       0       0       0       0       0       0       0       0       
      +0       0       0       0       0       0       0       0       0       0       0       0       0       0       0
  8888 ;;      Locals:         0      15       0       0       0       0       0       0       0       0       0       0       
      +0       0       0       0       0       0       0       0       0       0       0       0       0       0       0
  8889 ;;      Temps:          1       0       0       0       0       0       0       0       0       0       0       0       
      +0       0       0       0       0       0       0       0       0       0       0       0       0       0       0
  8890 ;;      Totals:         1      19       0       0       0       0       0       0       0       0       0       0       
      +0       0       0       0       0       0       0       0       0       0       0       0       0       0       0
  8891 ;;Total ram usage:       20 bytes
  8892 ;; Hardware stack levels used: 1
  8893 ;; Hardware stack levels required when called: 3
  8894 ;; This function calls:
  8895 ;;		_EUSART_Write_Text
  8896 ;;		___aldiv
  8897 ;;		___almod
  8898 ;; This function is called by:
  8899 ;;		_UART_PrintFixed100
  8900 ;;		_main
  8901 ;; This function uses a non-reentrant model
  8902 ;;
  8903                           
  8904     0CEB                     _UART_PrintInt32:	
  8905                           ;psect for function _UART_PrintInt32
  8906                           
  8907     0CEB                     l2480:	
  8908                           ;incstack = 0
  8909                           ; Regs used in _UART_PrintInt32: [wreg-fsr1h+status,2+status,0+pclath+cstack]
  8910                           
  8911                           
  8912                           ;main.c: 419: static void UART_PrintInt32(int32_t val);main.c: 420: {;main.c: 421:     c
      +                          har buf[12];;main.c: 422:     int8_t i = 0;
  8913     0CEB  0020               	movlb	0	; select bank0
  8914     0CEC  01C0               	clrf	UART_PrintInt32@i
  8915     0CED                     l2482:
  8916                           
  8917                           ;main.c: 424:     if (val < 0)
  8918     0CED  1FB1               	btfss	UART_PrintInt32@val+3,7
  8919     0CEE  2CF0               	goto	u2241
  8920     0CEF  2CF1               	goto	u2240
  8921     0CF0                     u2241:
  8922     0CF0  2D16               	goto	l2492
  8923     0CF1                     u2240:
  8924     0CF1                     l2484:
  8925                           
  8926                           ;main.c: 425:     {;main.c: 426:         EUSART_Write_Text("-");
  8927     0CF1  3094               	movlw	low (STR_1| (0+32768))
  8928     0CF2  00F1               	movwf	EUSART_Write_Text@text
  8929     0CF3  3099               	movlw	high (STR_1| (0+32768))
  8930     0CF4  00F2               	movwf	EUSART_Write_Text@text+1
  8931     0CF5  3195  25A4  318C   	fcall	_EUSART_Write_Text
  8932     0CF8                     l2486:
  8933                           
  8934                           ;main.c: 427:         if (val == (-2147483647L - 1))
  8935     0CF8  3080               	movlw	128
  8936     0CF9  0020               	movlb	0	; select bank0
  8937     0CFA  0631               	xorwf	UART_PrintInt32@val+3,w
  8938     0CFB  042E               	iorwf	UART_PrintInt32@val,w
  8939     0CFC  042F               	iorwf	UART_PrintInt32@val+1,w
  8940     0CFD  0430               	iorwf	UART_PrintInt32@val+2,w
  8941     0CFE  1D03               	btfss	3,2
  8942     0CFF  2D01               	goto	u2251
  8943     0D00  2D02               	goto	u2250
  8944     0D01                     u2251:
  8945     0D01  2D0A               	goto	l398
  8946     0D02                     u2250:
  8947     0D02                     l2488:
  8948                           
  8949                           ;main.c: 428:         {;main.c: 429:             EUSART_Write_Text("2147483648");
  8950     0D02  3070               	movlw	low (STR_2| (0+32768))
  8951     0D03  00F1               	movwf	EUSART_Write_Text@text
  8952     0D04  3099               	movlw	high (STR_2| (0+32768))
  8953     0D05  00F2               	movwf	EUSART_Write_Text@text+1
  8954     0D06  3195  25A4  318C   	fcall	_EUSART_Write_Text
  8955     0D09  2D8E               	goto	l399
  8956     0D0A                     l398:	
  8957                           ;main.c: 431:         }
  8958                           
  8959                           
  8960                           ;main.c: 432:         val = -val;
  8961     0D0A  0020               	movlb	0	; select bank0
  8962     0D0B  09AE               	comf	UART_PrintInt32@val,f
  8963     0D0C  09AF               	comf	UART_PrintInt32@val+1,f
  8964     0D0D  09B0               	comf	UART_PrintInt32@val+2,f
  8965     0D0E  09B1               	comf	UART_PrintInt32@val+3,f
  8966     0D0F  0AAE               	incf	UART_PrintInt32@val,f
  8967     0D10  1903               	skipnz
  8968     0D11  0AAF               	incf	UART_PrintInt32@val+1,f
  8969     0D12  1903               	skipnz
  8970     0D13  0AB0               	incf	UART_PrintInt32@val+2,f
  8971     0D14  1903               	skipnz
  8972     0D15  0AB1               	incf	UART_PrintInt32@val+3,f
  8973     0D16                     l2492:
  8974                           
  8975                           ;main.c: 435:     if (val == 0) { EUSART_Write_Text("0"); return; }
  8976     0D16  0831               	movf	UART_PrintInt32@val+3,w
  8977     0D17  0430               	iorwf	UART_PrintInt32@val+2,w
  8978     0D18  042F               	iorwf	UART_PrintInt32@val+1,w
  8979     0D19  042E               	iorwf	UART_PrintInt32@val,w
  8980     0D1A  1D03               	skipz
  8981     0D1B  2D1D               	goto	u2261
  8982     0D1C  2D1E               	goto	u2260
  8983     0D1D                     u2261:
  8984     0D1D  2D62               	goto	l2504
  8985     0D1E                     u2260:
  8986     0D1E                     l2494:
  8987     0D1E  3098               	movlw	low (STR_3| (0+32768))
  8988     0D1F  00F1               	movwf	EUSART_Write_Text@text
  8989     0D20  3099               	movlw	high (STR_3| (0+32768))
  8990     0D21  00F2               	movwf	EUSART_Write_Text@text+1
  8991     0D22  3195  25A4  318C   	fcall	_EUSART_Write_Text
  8992     0D25  2D8E               	goto	l399
  8993     0D26                     l2498:
  8994     0D26  0020               	movlb	0	; select bank0
  8995     0D27  0840               	movf	UART_PrintInt32@i,w
  8996     0D28  3E32               	addlw	(low (UART_PrintInt32@buf| 0))& (0+255)
  8997     0D29  0086               	movwf	6
  8998     0D2A  0187               	clrf	7
  8999     0D2B  3000               	movlw	0
  9000     0D2C  00F3               	movwf	___almod@divisor+3
  9001     0D2D  3000               	movlw	0
  9002     0D2E  00F2               	movwf	___almod@divisor+2
  9003     0D2F  3000               	movlw	0
  9004     0D30  00F1               	movwf	___almod@divisor+1
  9005     0D31  300A               	movlw	10
  9006     0D32  00F0               	movwf	___almod@divisor
  9007     0D33  0831               	movf	UART_PrintInt32@val+3,w
  9008     0D34  00F7               	movwf	___almod@dividend+3
  9009     0D35  0830               	movf	UART_PrintInt32@val+2,w
  9010     0D36  00F6               	movwf	___almod@dividend+2
  9011     0D37  082F               	movf	UART_PrintInt32@val+1,w
  9012     0D38  00F5               	movwf	___almod@dividend+1
  9013     0D39  082E               	movf	UART_PrintInt32@val,w
  9014     0D3A  00F4               	movwf	___almod@dividend
  9015     0D3B  318A  22C2  318C   	fcall	___almod
  9016     0D3E  0870               	movf	?___almod,w
  9017     0D3F  3E30               	addlw	48
  9018     0D40  0081               	movwf	1
  9019     0D41                     l2500:
  9020     0D41  3001               	movlw	1
  9021     0D42  00FD               	movwf	??_UART_PrintInt32
  9022     0D43  087D               	movf	??_UART_PrintInt32,w
  9023     0D44  0020               	movlb	0	; select bank0
  9024     0D45  07C0               	addwf	UART_PrintInt32@i,f
  9025     0D46                     l2502:
  9026     0D46  3000               	movlw	0
  9027     0D47  00A3               	movwf	___aldiv@divisor+3
  9028     0D48  3000               	movlw	0
  9029     0D49  00A2               	movwf	___aldiv@divisor+2
  9030     0D4A  3000               	movlw	0
  9031     0D4B  00A1               	movwf	___aldiv@divisor+1
  9032     0D4C  300A               	movlw	10
  9033     0D4D  00A0               	movwf	___aldiv@divisor
  9034     0D4E  0831               	movf	UART_PrintInt32@val+3,w
  9035     0D4F  00A7               	movwf	___aldiv@dividend+3
  9036     0D50  0830               	movf	UART_PrintInt32@val+2,w
  9037     0D51  00A6               	movwf	___aldiv@dividend+2
  9038     0D52  082F               	movf	UART_PrintInt32@val+1,w
  9039     0D53  00A5               	movwf	___aldiv@dividend+1
  9040     0D54  082E               	movf	UART_PrintInt32@val,w
  9041     0D55  00A4               	movwf	___aldiv@dividend
  9042     0D56  318B  23C5  318C   	fcall	___aldiv
  9043     0D59  0020               	movlb	0	; select bank0
  9044     0D5A  0823               	movf	?___aldiv+3,w
  9045     0D5B  00B1               	movwf	UART_PrintInt32@val+3
  9046     0D5C  0822               	movf	?___aldiv+2,w
  9047     0D5D  00B0               	movwf	UART_PrintInt32@val+2
  9048     0D5E  0821               	movf	?___aldiv+1,w
  9049     0D5F  00AF               	movwf	UART_PrintInt32@val+1
  9050     0D60  0820               	movf	?___aldiv,w
  9051     0D61  00AE               	movwf	UART_PrintInt32@val
  9052     0D62                     l2504:
  9053     0D62  1BB1               	btfsc	UART_PrintInt32@val+3,7
  9054     0D63  2D73               	goto	u2270
  9055     0D64  0831               	movf	UART_PrintInt32@val+3,w
  9056     0D65  1D03               	btfss	3,2
  9057     0D66  2D72               	goto	u2271
  9058     0D67  0830               	movf	UART_PrintInt32@val+2,w
  9059     0D68  1D03               	btfss	3,2
  9060     0D69  2D72               	goto	u2271
  9061     0D6A  082F               	movf	UART_PrintInt32@val+1,w
  9062     0D6B  1D03               	btfss	3,2
  9063     0D6C  2D72               	goto	u2271
  9064     0D6D  3001               	movlw	1
  9065     0D6E  022E               	subwf	UART_PrintInt32@val,w
  9066     0D6F  1803               	btfsc	3,0
  9067     0D70  2D72               	goto	u2271
  9068     0D71  2D73               	goto	u2270
  9069     0D72                     u2271:
  9070     0D72  2D26               	goto	l2498
  9071     0D73                     u2270:
  9072     0D73                     l2506:
  9073                           
  9074                           ;main.c: 438:     for (i--; i >= 0; i--)
  9075     0D73  30FF               	movlw	255
  9076     0D74  00FD               	movwf	??_UART_PrintInt32
  9077     0D75  087D               	movf	??_UART_PrintInt32,w
  9078     0D76  0020               	movlb	0	; select bank0
  9079     0D77  07C0               	addwf	UART_PrintInt32@i,f
  9080     0D78                     l2508:
  9081     0D78  1FC0               	btfss	UART_PrintInt32@i,7
  9082     0D79  2D7B               	goto	u2281
  9083     0D7A  2D7C               	goto	u2280
  9084     0D7B                     u2281:
  9085     0D7B  2D7D               	goto	l2512
  9086     0D7C                     u2280:
  9087     0D7C  2D8E               	goto	l399
  9088     0D7D                     l2512:
  9089                           
  9090                           ;main.c: 439:     {;main.c: 440:         char c[2] = { buf[i], '\0' };
  9091     0D7D  01BE               	clrf	UART_PrintInt32@c
  9092     0D7E  01BF               	clrf	UART_PrintInt32@c+1
  9093     0D7F                     l2514:
  9094     0D7F  0840               	movf	UART_PrintInt32@i,w
  9095     0D80  3E32               	addlw	(low (UART_PrintInt32@buf| 0))& (0+255)
  9096     0D81  0086               	movwf	6
  9097     0D82  0187               	clrf	7
  9098     0D83  0801               	movf	1,w
  9099     0D84  00BE               	movwf	UART_PrintInt32@c
  9100     0D85                     l2516:
  9101     0D85  01BF               	clrf	UART_PrintInt32@c+1
  9102     0D86                     l2518:
  9103                           
  9104                           ;main.c: 441:         EUSART_Write_Text(c);
  9105     0D86  303E               	movlw	low UART_PrintInt32@c
  9106     0D87  00F1               	movwf	EUSART_Write_Text@text
  9107     0D88  3000               	movlw	high UART_PrintInt32@c
  9108     0D89  00F2               	movwf	EUSART_Write_Text@text+1
  9109     0D8A  3195  25A4  318C   	fcall	_EUSART_Write_Text
  9110     0D8D  2D73               	goto	l2506
  9111     0D8E                     l399:
  9112     0D8E  0008               	return
  9113     0D8F                     __end_of_UART_PrintInt32:
  9114                           
  9115                           	psect	text29
  9116     0AC2                     __ptext29:	
  9117 ;; *************** function ___almod *****************
  9118 ;; Defined at:
  9119 ;;		line 5 in file "C:\Program Files\Microchip\xc8\v2.46\pic\sources\c99\common\almod.c"
  9120 ;; Parameters:    Size  Location     Type
  9121 ;;  divisor         4    0[COMMON] long 
  9122 ;;  dividend        4    4[COMMON] long 
  9123 ;; Auto vars:     Size  Location     Type
  9124 ;;  sign            1   10[COMMON] unsigned char 
  9125 ;;  counter         1    9[COMMON] unsigned char 
  9126 ;; Return value:  Size  Location     Type
  9127 ;;                  4    0[COMMON] long 
  9128 ;; Registers used:
  9129 ;;		wreg, status,2, status,0
  9130 ;; Tracked objects:
  9131 ;;		On entry : 0/0
  9132 ;;		On exit  : 0/0
  9133 ;;		Unchanged: 0/0
  9134 ;; Data sizes:     COMMON   BANK0   BANK1   BANK2   BANK3   BANK4   BANK5   BANK6   BANK7   BANK8   BANK9  BANK10  BANK1
      +1  BANK12  BANK13  BANK14  BANK15  BANK16  BANK17  BANK18  BANK19  BANK20  BANK21  BANK22  BANK23  BANK24  BANK25
  9135 ;;      Params:         8       0       0       0       0       0       0       0       0       0       0       0       
      +0       0       0       0       0       0       0       0       0       0       0       0       0       0       0
  9136 ;;      Locals:         2       0       0       0       0       0       0       0       0       0       0       0       
      +0       0       0       0       0       0       0       0       0       0       0       0       0       0       0
  9137 ;;      Temps:          1       0       0       0       0       0       0       0       0       0       0       0       
      +0       0       0       0       0       0       0       0       0       0       0       0       0       0       0
  9138 ;;      Totals:        11       0       0       0       0       0       0       0       0       0       0       0       
      +0       0       0       0       0       0       0       0       0       0       0       0       0       0       0
  9139 ;;Total ram usage:       11 bytes
  9140 ;; Hardware stack levels used: 1
  9141 ;; Hardware stack levels required when called: 1
  9142 ;; This function calls:
  9143 ;;		Nothing
  9144 ;; This function is called by:
  9145 ;;		_UART_PrintInt32
  9146 ;;		_UART_PrintFixed100
  9147 ;; This function uses a non-reentrant model
  9148 ;;
  9149                           
  9150     0AC2                     ___almod:	
  9151                           ;psect for function ___almod
  9152                           
  9153     0AC2                     l2352:	
  9154                           ;incstack = 0
  9155                           ; Regs used in ___almod: [wreg+status,2+status,0]
  9156                           
  9157     0AC2  01FA               	clrf	___almod@sign
  9158     0AC3                     l2354:
  9159     0AC3  1FF7               	btfss	___almod@dividend+3,7
  9160     0AC4  2AC6               	goto	u2021
  9161     0AC5  2AC7               	goto	u2020
  9162     0AC6                     u2021:
  9163     0AC6  2AD4               	goto	l580
  9164     0AC7                     u2020:
  9165     0AC7                     l2356:
  9166     0AC7  09F4               	comf	___almod@dividend,f
  9167     0AC8  09F5               	comf	___almod@dividend+1,f
  9168     0AC9  09F6               	comf	___almod@dividend+2,f
  9169     0ACA  09F7               	comf	___almod@dividend+3,f
  9170     0ACB  0AF4               	incf	___almod@dividend,f
  9171     0ACC  1903               	skipnz
  9172     0ACD  0AF5               	incf	___almod@dividend+1,f
  9173     0ACE  1903               	skipnz
  9174     0ACF  0AF6               	incf	___almod@dividend+2,f
  9175     0AD0  1903               	skipnz
  9176     0AD1  0AF7               	incf	___almod@dividend+3,f
  9177     0AD2  01FA               	clrf	___almod@sign
  9178     0AD3  0AFA               	incf	___almod@sign,f
  9179     0AD4                     l580:
  9180     0AD4  1FF3               	btfss	___almod@divisor+3,7
  9181     0AD5  2AD7               	goto	u2031
  9182     0AD6  2AD8               	goto	u2030
  9183     0AD7                     u2031:
  9184     0AD7  2AE3               	goto	l2360
  9185     0AD8                     u2030:
  9186     0AD8                     l2358:
  9187     0AD8  09F0               	comf	___almod@divisor,f
  9188     0AD9  09F1               	comf	___almod@divisor+1,f
  9189     0ADA  09F2               	comf	___almod@divisor+2,f
  9190     0ADB  09F3               	comf	___almod@divisor+3,f
  9191     0ADC  0AF0               	incf	___almod@divisor,f
  9192     0ADD  1903               	skipnz
  9193     0ADE  0AF1               	incf	___almod@divisor+1,f
  9194     0ADF  1903               	skipnz
  9195     0AE0  0AF2               	incf	___almod@divisor+2,f
  9196     0AE1  1903               	skipnz
  9197     0AE2  0AF3               	incf	___almod@divisor+3,f
  9198     0AE3                     l2360:
  9199     0AE3  0873               	movf	___almod@divisor+3,w
  9200     0AE4  0472               	iorwf	___almod@divisor+2,w
  9201     0AE5  0471               	iorwf	___almod@divisor+1,w
  9202     0AE6  0470               	iorwf	___almod@divisor,w
  9203     0AE7  1903               	skipnz
  9204     0AE8  2AEA               	goto	u2041
  9205     0AE9  2AEB               	goto	u2040
  9206     0AEA                     u2041:
  9207     0AEA  2B24               	goto	l2376
  9208     0AEB                     u2040:
  9209     0AEB                     l2362:
  9210     0AEB  01F9               	clrf	___almod@counter
  9211     0AEC  0AF9               	incf	___almod@counter,f
  9212     0AED  2AF9               	goto	l2366
  9213     0AEE                     l2364:
  9214     0AEE  3001               	movlw	1
  9215     0AEF                     u2055:
  9216     0AEF  35F0               	lslf	___almod@divisor,f
  9217     0AF0  0DF1               	rlf	___almod@divisor+1,f
  9218     0AF1  0DF2               	rlf	___almod@divisor+2,f
  9219     0AF2  0DF3               	rlf	___almod@divisor+3,f
  9220     0AF3  0B89               	decfsz	9,f
  9221     0AF4  2AEF               	goto	u2055
  9222     0AF5  3001               	movlw	1
  9223     0AF6  00F8               	movwf	??___almod
  9224     0AF7  0878               	movf	??___almod,w
  9225     0AF8  07F9               	addwf	___almod@counter,f
  9226     0AF9                     l2366:
  9227     0AF9  1FF3               	btfss	___almod@divisor+3,7
  9228     0AFA  2AFC               	goto	u2061
  9229     0AFB  2AFD               	goto	u2060
  9230     0AFC                     u2061:
  9231     0AFC  2AEE               	goto	l2364
  9232     0AFD                     u2060:
  9233     0AFD                     l2368:
  9234     0AFD  0873               	movf	___almod@divisor+3,w
  9235     0AFE  0277               	subwf	___almod@dividend+3,w
  9236     0AFF  1D03               	skipz
  9237     0B00  2B0B               	goto	u2075
  9238     0B01  0872               	movf	___almod@divisor+2,w
  9239     0B02  0276               	subwf	___almod@dividend+2,w
  9240     0B03  1D03               	skipz
  9241     0B04  2B0B               	goto	u2075
  9242     0B05  0871               	movf	___almod@divisor+1,w
  9243     0B06  0275               	subwf	___almod@dividend+1,w
  9244     0B07  1D03               	skipz
  9245     0B08  2B0B               	goto	u2075
  9246     0B09  0870               	movf	___almod@divisor,w
  9247     0B0A  0274               	subwf	___almod@dividend,w
  9248     0B0B                     u2075:
  9249     0B0B  1C03               	skipc
  9250     0B0C  2B0E               	goto	u2071
  9251     0B0D  2B0F               	goto	u2070
  9252     0B0E                     u2071:
  9253     0B0E  2B17               	goto	l2372
  9254     0B0F                     u2070:
  9255     0B0F                     l2370:
  9256     0B0F  0870               	movf	___almod@divisor,w
  9257     0B10  02F4               	subwf	___almod@dividend,f
  9258     0B11  0871               	movf	___almod@divisor+1,w
  9259     0B12  3BF5               	subwfb	___almod@dividend+1,f
  9260     0B13  0872               	movf	___almod@divisor+2,w
  9261     0B14  3BF6               	subwfb	___almod@dividend+2,f
  9262     0B15  0873               	movf	___almod@divisor+3,w
  9263     0B16  3BF7               	subwfb	___almod@dividend+3,f
  9264     0B17                     l2372:
  9265     0B17  3001               	movlw	1
  9266     0B18                     u2085:
  9267     0B18  36F3               	lsrf	___almod@divisor+3,f
  9268     0B19  0CF2               	rrf	___almod@divisor+2,f
  9269     0B1A  0CF1               	rrf	___almod@divisor+1,f
  9270     0B1B  0CF0               	rrf	___almod@divisor,f
  9271     0B1C  0B89               	decfsz	9,f
  9272     0B1D  2B18               	goto	u2085
  9273     0B1E                     l2374:
  9274     0B1E  3001               	movlw	1
  9275     0B1F  02F9               	subwf	___almod@counter,f
  9276     0B20  1D03               	btfss	3,2
  9277     0B21  2B23               	goto	u2091
  9278     0B22  2B24               	goto	u2090
  9279     0B23                     u2091:
  9280     0B23  2AFD               	goto	l2368
  9281     0B24                     u2090:
  9282     0B24                     l2376:
  9283     0B24  087A               	movf	___almod@sign,w
  9284     0B25  1903               	btfsc	3,2
  9285     0B26  2B28               	goto	u2101
  9286     0B27  2B29               	goto	u2100
  9287     0B28                     u2101:
  9288     0B28  2B34               	goto	l2380
  9289     0B29                     u2100:
  9290     0B29                     l2378:
  9291     0B29  09F4               	comf	___almod@dividend,f
  9292     0B2A  09F5               	comf	___almod@dividend+1,f
  9293     0B2B  09F6               	comf	___almod@dividend+2,f
  9294     0B2C  09F7               	comf	___almod@dividend+3,f
  9295     0B2D  0AF4               	incf	___almod@dividend,f
  9296     0B2E  1903               	skipnz
  9297     0B2F  0AF5               	incf	___almod@dividend+1,f
  9298     0B30  1903               	skipnz
  9299     0B31  0AF6               	incf	___almod@dividend+2,f
  9300     0B32  1903               	skipnz
  9301     0B33  0AF7               	incf	___almod@dividend+3,f
  9302     0B34                     l2380:
  9303     0B34  0877               	movf	___almod@dividend+3,w
  9304     0B35  00F3               	movwf	?___almod+3
  9305     0B36  0876               	movf	___almod@dividend+2,w
  9306     0B37  00F2               	movwf	?___almod+2
  9307     0B38  0875               	movf	___almod@dividend+1,w
  9308     0B39  00F1               	movwf	?___almod+1
  9309     0B3A  0874               	movf	___almod@dividend,w
  9310     0B3B  00F0               	movwf	?___almod
  9311     0B3C                     l590:
  9312     0B3C  0008               	return
  9313     0B3D                     __end_of___almod:
  9314                           
  9315                           	psect	text30
  9316     15A4                     __ptext30:	
  9317 ;; *************** function _EUSART_Write_Text *****************
  9318 ;; Defined at:
  9319 ;;		line 127 in file "EUSART.c"
  9320 ;; Parameters:    Size  Location     Type
  9321 ;;  text            2    1[COMMON] PTR unsigned char 
  9322 ;;		 -> STR_35(3), STR_34(2), STR_33(6), STR_32(4), 
  9323 ;;		 -> STR_31(4), STR_30(15), STR_29(4), STR_28(4), 
  9324 ;;		 -> STR_27(11), STR_26(21), STR_25(38), STR_24(21), 
  9325 ;;		 -> STR_23(5), STR_22(4), STR_21(4), STR_20(14), 
  9326 ;;		 -> STR_19(3), STR_18(4), STR_17(4), STR_16(12), 
  9327 ;;		 -> STR_15(19), STR_14(32), STR_13(34), STR_12(23), 
  9328 ;;		 -> STR_11(18), STR_10(33), STR_9(32), STR_8(30), 
  9329 ;;		 -> STR_7(26), STR_6(2), STR_5(2), STR_4(2), 
  9330 ;;		 -> UART_PrintInt32@c(2), STR_3(2), STR_2(11), STR_1(2), 
  9331 ;; Auto vars:     Size  Location     Type
  9332 ;;  i               2    4[COMMON] int 
  9333 ;; Return value:  Size  Location     Type
  9334 ;;                  1    wreg      void 
  9335 ;; Registers used:
  9336 ;;		wreg, fsr0l, fsr0h, status,2, status,0, pclath, cstack
  9337 ;; Tracked objects:
  9338 ;;		On entry : 0/0
  9339 ;;		On exit  : 0/0
  9340 ;;		Unchanged: 0/0
  9341 ;; Data sizes:     COMMON   BANK0   BANK1   BANK2   BANK3   BANK4   BANK5   BANK6   BANK7   BANK8   BANK9  BANK10  BANK1
      +1  BANK12  BANK13  BANK14  BANK15  BANK16  BANK17  BANK18  BANK19  BANK20  BANK21  BANK22  BANK23  BANK24  BANK25
  9342 ;;      Params:         2       0       0       0       0       0       0       0       0       0       0       0       
      +0       0       0       0       0       0       0       0       0       0       0       0       0       0       0
  9343 ;;      Locals:         2       0       0       0       0       0       0       0       0       0       0       0       
      +0       0       0       0       0       0       0       0       0       0       0       0       0       0       0
  9344 ;;      Temps:          1       0       0       0       0       0       0       0       0       0       0       0       
      +0       0       0       0       0       0       0       0       0       0       0       0       0       0       0
  9345 ;;      Totals:         5       0       0       0       0       0       0       0       0       0       0       0       
      +0       0       0       0       0       0       0       0       0       0       0       0       0       0       0
  9346 ;;Total ram usage:        5 bytes
  9347 ;; Hardware stack levels used: 1
  9348 ;; Hardware stack levels required when called: 2
  9349 ;; This function calls:
  9350 ;;		_EUSART_Write
  9351 ;; This function is called by:
  9352 ;;		_UART_PrintInt32
  9353 ;;		_UART_PrintFixed100
  9354 ;;		_main
  9355 ;; This function uses a non-reentrant model
  9356 ;;
  9357                           
  9358     15A4                     _EUSART_Write_Text:	
  9359                           ;psect for function _EUSART_Write_Text
  9360                           
  9361     15A4                     l2198:	
  9362                           ;incstack = 0
  9363                           ; Regs used in _EUSART_Write_Text: [wreg-fsr0h+status,2+status,0+pclath+cstack]
  9364                           
  9365                           
  9366                           ;EUSART.c: 127: void EUSART_Write_Text(char *text);EUSART.c: 128: {;EUSART.c: 129:   int
      +                           i;;EUSART.c: 130:   for(i=0;text[i]!='\0';i++)
  9367     15A4  01F4               	clrf	EUSART_Write_Text@i
  9368     15A5  01F5               	clrf	EUSART_Write_Text@i+1
  9369     15A6  2DB5               	goto	l2204
  9370     15A7                     l2200:
  9371                           
  9372                           ;EUSART.c: 131:    EUSART_Write(text[i]);
  9373     15A7  0871               	movf	EUSART_Write_Text@text,w
  9374     15A8  0774               	addwf	EUSART_Write_Text@i,w
  9375     15A9  0084               	movwf	4
  9376     15AA  0872               	movf	EUSART_Write_Text@text+1,w
  9377     15AB  3D75               	addwfc	EUSART_Write_Text@i+1,w
  9378     15AC  0085               	movwf	5
  9379     15AD  0800               	movf	0,w	;code access
  9380     15AE  3195  2528  3195   	fcall	_EUSART_Write
  9381     15B1                     l2202:
  9382     15B1  3001               	movlw	1
  9383     15B2  07F4               	addwf	EUSART_Write_Text@i,f
  9384     15B3  3000               	movlw	0
  9385     15B4  3DF5               	addwfc	EUSART_Write_Text@i+1,f
  9386     15B5                     l2204:
  9387     15B5  0871               	movf	EUSART_Write_Text@text,w
  9388     15B6  0774               	addwf	EUSART_Write_Text@i,w
  9389     15B7  0084               	movwf	4
  9390     15B8  0872               	movf	EUSART_Write_Text@text+1,w
  9391     15B9  3D75               	addwfc	EUSART_Write_Text@i+1,w
  9392     15BA  0085               	movwf	5
  9393     15BB  0012               	moviw fsr0++
  9394     15BC  1D03               	btfss	3,2
  9395     15BD  2DBF               	goto	u1731
  9396     15BE  2DC0               	goto	u1730
  9397     15BF                     u1731:
  9398     15BF  2DA7               	goto	l2200
  9399     15C0                     u1730:
  9400     15C0                     l50:
  9401     15C0  0008               	return
  9402     15C1                     __end_of_EUSART_Write_Text:
  9403                           
  9404                           	psect	text31
  9405     1528                     __ptext31:	
  9406 ;; *************** function _EUSART_Write *****************
  9407 ;; Defined at:
  9408 ;;		line 108 in file "EUSART.c"
  9409 ;; Parameters:    Size  Location     Type
  9410 ;;  txData          1    wreg     unsigned char 
  9411 ;; Auto vars:     Size  Location     Type
  9412 ;;  txData          1    0[COMMON] unsigned char 
  9413 ;; Return value:  Size  Location     Type
  9414 ;;                  1    wreg      void 
  9415 ;; Registers used:
  9416 ;;		wreg
  9417 ;; Tracked objects:
  9418 ;;		On entry : 0/0
  9419 ;;		On exit  : 0/0
  9420 ;;		Unchanged: 0/0
  9421 ;; Data sizes:     COMMON   BANK0   BANK1   BANK2   BANK3   BANK4   BANK5   BANK6   BANK7   BANK8   BANK9  BANK10  BANK1
      +1  BANK12  BANK13  BANK14  BANK15  BANK16  BANK17  BANK18  BANK19  BANK20  BANK21  BANK22  BANK23  BANK24  BANK25
  9422 ;;      Params:         0       0       0       0       0       0       0       0       0       0       0       0       
      +0       0       0       0       0       0       0       0       0       0       0       0       0       0       0
  9423 ;;      Locals:         1       0       0       0       0       0       0       0       0       0       0       0       
      +0       0       0       0       0       0       0       0       0       0       0       0       0       0       0
  9424 ;;      Temps:          0       0       0       0       0       0       0       0       0       0       0       0       
      +0       0       0       0       0       0       0       0       0       0       0       0       0       0       0
  9425 ;;      Totals:         1       0       0       0       0       0       0       0       0       0       0       0       
      +0       0       0       0       0       0       0       0       0       0       0       0       0       0       0
  9426 ;;Total ram usage:        1 bytes
  9427 ;; Hardware stack levels used: 1
  9428 ;; Hardware stack levels required when called: 1
  9429 ;; This function calls:
  9430 ;;		Nothing
  9431 ;; This function is called by:
  9432 ;;		_EUSART_Write_Text
  9433 ;;		_EUSART_Write_Integer
  9434 ;; This function uses a non-reentrant model
  9435 ;;
  9436                           
  9437     1528                     _EUSART_Write:	
  9438                           ;psect for function _EUSART_Write
  9439                           
  9440                           
  9441                           ;incstack = 0
  9442                           ; Regs used in _EUSART_Write: [wreg]
  9443                           ;EUSART_Write@txData stored from wreg
  9444     1528  00F0               	movwf	EUSART_Write@txData
  9445     1529                     l2134:
  9446     1529                     l41:	
  9447                           ;EUSART.c: 111:     {;EUSART.c: 112:     }
  9448                           
  9449                           
  9450                           ;EUSART.c: 110:     while(0 == PIR1bits.TXIF)
  9451     1529  0020               	movlb	0	; select bank0
  9452     152A  1E11               	btfss	17,4	;volatile
  9453     152B  2D2D               	goto	u1631
  9454     152C  2D2E               	goto	u1630
  9455     152D                     u1631:
  9456     152D  2D29               	goto	l41
  9457     152E                     u1630:
  9458     152E                     l2136:
  9459                           
  9460                           ;EUSART.c: 114:     TX1REG = txData;
  9461     152E  0870               	movf	EUSART_Write@txData,w
  9462     152F  0023               	movlb	3	; select bank3
  9463     1530  009A               	movwf	26	;volatile
  9464     1531                     l44:
  9465     1531  0008               	return
  9466     1532                     __end_of_EUSART_Write:
  9467                           
  9468                           	psect	text32
  9469     1532                     __ptext32:	
  9470 ;; *************** function _TMR0_Init *****************
  9471 ;; Defined at:
  9472 ;;		line 60 in file "main.c"
  9473 ;; Parameters:    Size  Location     Type
  9474 ;;		None
  9475 ;; Auto vars:     Size  Location     Type
  9476 ;;		None
  9477 ;; Return value:  Size  Location     Type
  9478 ;;                  1    wreg      void 
  9479 ;; Registers used:
  9480 ;;		wreg, status,2, status,0
  9481 ;; Tracked objects:
  9482 ;;		On entry : 0/0
  9483 ;;		On exit  : 0/0
  9484 ;;		Unchanged: 0/0
  9485 ;; Data sizes:     COMMON   BANK0   BANK1   BANK2   BANK3   BANK4   BANK5   BANK6   BANK7   BANK8   BANK9  BANK10  BANK1
      +1  BANK12  BANK13  BANK14  BANK15  BANK16  BANK17  BANK18  BANK19  BANK20  BANK21  BANK22  BANK23  BANK24  BANK25
  9486 ;;      Params:         0       0       0       0       0       0       0       0       0       0       0       0       
      +0       0       0       0       0       0       0       0       0       0       0       0       0       0       0
  9487 ;;      Locals:         0       0       0       0       0       0       0       0       0       0       0       0       
      +0       0       0       0       0       0       0       0       0       0       0       0       0       0       0
  9488 ;;      Temps:          0       0       0       0       0       0       0       0       0       0       0       0       
      +0       0       0       0       0       0       0       0       0       0       0       0       0       0       0
  9489 ;;      Totals:         0       0       0       0       0       0       0       0       0       0       0       0       
      +0       0       0       0       0       0       0       0       0       0       0       0       0       0       0
  9490 ;;Total ram usage:        0 bytes
  9491 ;; Hardware stack levels used: 1
  9492 ;; Hardware stack levels required when called: 1
  9493 ;; This function calls:
  9494 ;;		Nothing
  9495 ;; This function is called by:
  9496 ;;		_main
  9497 ;; This function uses a non-reentrant model
  9498 ;;
  9499                           
  9500     1532                     _TMR0_Init:	
  9501                           ;psect for function _TMR0_Init
  9502                           
  9503     1532                     l2552:	
  9504                           ;incstack = 0
  9505                           ; Regs used in _TMR0_Init: [wreg+status,2+status,0]
  9506                           
  9507                           
  9508                           ;main.c: 62:     OPTION_REGbits.TMR0CS = 0;
  9509     1532  0021               	movlb	1	; select bank1
  9510     1533  1295               	bcf	21,5	;volatile
  9511                           
  9512                           ;main.c: 63:     OPTION_REGbits.PSA = 0;
  9513     1534  1195               	bcf	21,3	;volatile
  9514     1535                     l2554:
  9515                           
  9516                           ;main.c: 64:     OPTION_REGbits.PS = 0b100;
  9517     1535  0815               	movf	21,w	;volatile
  9518     1536  39F8               	andlw	-8
  9519     1537  3804               	iorlw	4
  9520     1538  0095               	movwf	21	;volatile
  9521     1539                     l2556:
  9522                           
  9523                           ;main.c: 65:     TMR0 = 6;
  9524     1539  3006               	movlw	6
  9525     153A  0020               	movlb	0	; select bank0
  9526     153B  0095               	movwf	21	;volatile
  9527     153C                     l2558:
  9528                           
  9529                           ;main.c: 66:     INTCONbits.TMR0IF = 0;
  9530     153C  110B               	bcf	11,2	;volatile
  9531     153D                     l2560:
  9532                           
  9533                           ;main.c: 67:     INTCONbits.TMR0IE = 1;
  9534     153D  168B               	bsf	11,5	;volatile
  9535     153E                     l2562:
  9536                           
  9537                           ;main.c: 68:     INTCONbits.GIE = 1;
  9538     153E  178B               	bsf	11,7	;volatile
  9539     153F                     l2564:
  9540                           
  9541                           ;main.c: 69:     INTCONbits.PEIE = 1;
  9542     153F  170B               	bsf	11,6	;volatile
  9543     1540                     l226:
  9544     1540  0008               	return
  9545     1541                     __end_of_TMR0_Init:
  9546                           
  9547                           	psect	text33
  9548     1554                     __ptext33:	
  9549 ;; *************** function _I2C_Init *****************
  9550 ;; Defined at:
  9551 ;;		line 41 in file "I2C.c"
  9552 ;; Parameters:    Size  Location     Type
  9553 ;;		None
  9554 ;; Auto vars:     Size  Location     Type
  9555 ;;		None
  9556 ;; Return value:  Size  Location     Type
  9557 ;;                  1    wreg      void 
  9558 ;; Registers used:
  9559 ;;		wreg, status,2, status,0, pclath, cstack
  9560 ;; Tracked objects:
  9561 ;;		On entry : 0/0
  9562 ;;		On exit  : 0/0
  9563 ;;		Unchanged: 0/0
  9564 ;; Data sizes:     COMMON   BANK0   BANK1   BANK2   BANK3   BANK4   BANK5   BANK6   BANK7   BANK8   BANK9  BANK10  BANK1
      +1  BANK12  BANK13  BANK14  BANK15  BANK16  BANK17  BANK18  BANK19  BANK20  BANK21  BANK22  BANK23  BANK24  BANK25
  9565 ;;      Params:         0       0       0       0       0       0       0       0       0       0       0       0       
      +0       0       0       0       0       0       0       0       0       0       0       0       0       0       0
  9566 ;;      Locals:         0       0       0       0       0       0       0       0       0       0       0       0       
      +0       0       0       0       0       0       0       0       0       0       0       0       0       0       0
  9567 ;;      Temps:          1       0       0       0       0       0       0       0       0       0       0       0       
      +0       0       0       0       0       0       0       0       0       0       0       0       0       0       0
  9568 ;;      Totals:         1       0       0       0       0       0       0       0       0       0       0       0       
      +0       0       0       0       0       0       0       0       0       0       0       0       0       0       0
  9569 ;;Total ram usage:        1 bytes
  9570 ;; Hardware stack levels used: 1
  9571 ;; Hardware stack levels required when called: 2
  9572 ;; This function calls:
  9573 ;;		_I2C_ClearErrors
  9574 ;; This function is called by:
  9575 ;;		_main
  9576 ;; This function uses a non-reentrant model
  9577 ;;
  9578                           
  9579     1554                     _I2C_Init:	
  9580                           ;psect for function _I2C_Init
  9581                           
  9582     1554                     l2542:	
  9583                           ;incstack = 0
  9584                           ; Regs used in _I2C_Init: [wreg+status,2+status,0+pclath+cstack]
  9585                           
  9586                           
  9587                           ;I2C.c: 44:     SSPCONbits.SSPM = 0x08;
  9588     1554  0024               	movlb	4	; select bank4
  9589     1555  0815               	movf	21,w	;volatile
  9590     1556  39F0               	andlw	-16
  9591     1557  3808               	iorlw	8
  9592     1558  0095               	movwf	21	;volatile
  9593     1559                     l2544:
  9594                           
  9595                           ;I2C.c: 47:     SSPCONbits.SSPEN = 1;
  9596     1559  1695               	bsf	21,5	;volatile
  9597     155A                     l2546:
  9598                           
  9599                           ;I2C.c: 50:     SSPADD = 79;
  9600     155A  304F               	movlw	79
  9601     155B  0092               	movwf	18	;volatile
  9602     155C                     l2548:
  9603                           
  9604                           ;I2C.c: 52:     I2C_ClearErrors();
  9605     155C  3195  2518  3195   	fcall	_I2C_ClearErrors
  9606     155F                     l2550:
  9607                           
  9608                           ;I2C.c: 53:     _delay((unsigned long)((10)*(32000000/4000.0)));
  9609     155F  3068               	movlw	104
  9610     1560  00F0               	movwf	??_I2C_Init
  9611     1561  30E4               	movlw	228
  9612     1562                     u2907:
  9613     1562  0B89               	decfsz	9,f
  9614     1563  2D62               	goto	u2907
  9615     1564  0BF0               	decfsz	??_I2C_Init,f
  9616     1565  2D62               	goto	u2907
  9617     1566  3200               	nop2
  9618     1567                     l98:
  9619     1567  0008               	return
  9620     1568                     __end_of_I2C_Init:
  9621                           
  9622                           	psect	text34
  9623     1518                     __ptext34:	
  9624 ;; *************** function _I2C_ClearErrors *****************
  9625 ;; Defined at:
  9626 ;;		line 62 in file "I2C.c"
  9627 ;; Parameters:    Size  Location     Type
  9628 ;;		None
  9629 ;; Auto vars:     Size  Location     Type
  9630 ;;		None
  9631 ;; Return value:  Size  Location     Type
  9632 ;;                  1    wreg      void 
  9633 ;; Registers used:
  9634 ;;		None
  9635 ;; Tracked objects:
  9636 ;;		On entry : 0/0
  9637 ;;		On exit  : 0/0
  9638 ;;		Unchanged: 0/0
  9639 ;; Data sizes:     COMMON   BANK0   BANK1   BANK2   BANK3   BANK4   BANK5   BANK6   BANK7   BANK8   BANK9  BANK10  BANK1
      +1  BANK12  BANK13  BANK14  BANK15  BANK16  BANK17  BANK18  BANK19  BANK20  BANK21  BANK22  BANK23  BANK24  BANK25
  9640 ;;      Params:         0       0       0       0       0       0       0       0       0       0       0       0       
      +0       0       0       0       0       0       0       0       0       0       0       0       0       0       0
  9641 ;;      Locals:         0       0       0       0       0       0       0       0       0       0       0       0       
      +0       0       0       0       0       0       0       0       0       0       0       0       0       0       0
  9642 ;;      Temps:          0       0       0       0       0       0       0       0       0       0       0       0       
      +0       0       0       0       0       0       0       0       0       0       0       0       0       0       0
  9643 ;;      Totals:         0       0       0       0       0       0       0       0       0       0       0       0       
      +0       0       0       0       0       0       0       0       0       0       0       0       0       0       0
  9644 ;;Total ram usage:        0 bytes
  9645 ;; Hardware stack levels used: 1
  9646 ;; Hardware stack levels required when called: 1
  9647 ;; This function calls:
  9648 ;;		Nothing
  9649 ;; This function is called by:
  9650 ;;		_I2C_Init
  9651 ;; This function uses a non-reentrant model
  9652 ;;
  9653                           
  9654     1518                     _I2C_ClearErrors:	
  9655                           ;psect for function _I2C_ClearErrors
  9656                           
  9657     1518                     l2384:	
  9658                           ;incstack = 0
  9659                           ; Regs used in _I2C_ClearErrors: []
  9660                           
  9661                           
  9662                           ;I2C.c: 65:     SSPCON1bits.SSPOV = 0;
  9663     1518  0024               	movlb	4	; select bank4
  9664     1519  1315               	bcf	21,6	;volatile
  9665                           
  9666                           ;I2C.c: 66:     SSPCON1bits.WCOL = 0;
  9667     151A  1395               	bcf	21,7	;volatile
  9668                           
  9669                           ;I2C.c: 69:     PIR2bits.BCL1IF = 0;
  9670     151B  0020               	movlb	0	; select bank0
  9671     151C  1192               	bcf	18,3	;volatile
  9672                           
  9673                           ;I2C.c: 72:     PIR1bits.SSP1IF = 0;
  9674     151D  1191               	bcf	17,3	;volatile
  9675     151E                     l101:
  9676     151E  0008               	return
  9677     151F                     __end_of_I2C_ClearErrors:
  9678                           
  9679                           	psect	text35
  9680     07AF                     __ptext35:	
  9681 ;; *************** function _EUSART_Initialize *****************
  9682 ;; Defined at:
  9683 ;;		line 36 in file "EUSART.c"
  9684 ;; Parameters:    Size  Location     Type
  9685 ;;  baudrate        4   14[BANK0 ] const long 
  9686 ;; Auto vars:     Size  Location     Type
  9687 ;;  x               2   30[BANK0 ] unsigned int 
  9688 ;; Return value:  Size  Location     Type
  9689 ;;                  1    wreg      unsigned char 
  9690 ;; Registers used:
  9691 ;;		wreg, status,2, status,0, pclath, cstack
  9692 ;; Tracked objects:
  9693 ;;		On entry : 0/0
  9694 ;;		On exit  : 0/0
  9695 ;;		Unchanged: 0/0
  9696 ;; Data sizes:     COMMON   BANK0   BANK1   BANK2   BANK3   BANK4   BANK5   BANK6   BANK7   BANK8   BANK9  BANK10  BANK1
      +1  BANK12  BANK13  BANK14  BANK15  BANK16  BANK17  BANK18  BANK19  BANK20  BANK21  BANK22  BANK23  BANK24  BANK25
  9697 ;;      Params:         0       4       0       0       0       0       0       0       0       0       0       0       
      +0       0       0       0       0       0       0       0       0       0       0       0       0       0       0
  9698 ;;      Locals:         0       2       0       0       0       0       0       0       0       0       0       0       
      +0       0       0       0       0       0       0       0       0       0       0       0       0       0       0
  9699 ;;      Temps:          0      12       0       0       0       0       0       0       0       0       0       0       
      +0       0       0       0       0       0       0       0       0       0       0       0       0       0       0
  9700 ;;      Totals:         0      18       0       0       0       0       0       0       0       0       0       0       
      +0       0       0       0       0       0       0       0       0       0       0       0       0       0       0
  9701 ;;Total ram usage:       18 bytes
  9702 ;; Hardware stack levels used: 1
  9703 ;; Hardware stack levels required when called: 2
  9704 ;; This function calls:
  9705 ;;		___aldiv
  9706 ;; This function is called by:
  9707 ;;		_main
  9708 ;; This function uses a non-reentrant model
  9709 ;;
  9710                           
  9711     07AF                     _EUSART_Initialize:	
  9712                           ;psect for function _EUSART_Initialize
  9713                           
  9714     07AF                     l2524:	
  9715                           ;incstack = 0
  9716                           ; Regs used in _EUSART_Initialize: [wreg+status,2+status,0+pclath+cstack]
  9717                           
  9718                           
  9719                           ;EUSART.c: 36: char EUSART_Initialize(const long int baudrate);EUSART.c: 37: {;EUSART.c:
      +                           38:     unsigned int x;;EUSART.c: 39:  x = (32000000 - baudrate*64)/(baudrate*64);
  9720     07AF  0020               	movlb	0	; select bank0
  9721     07B0  082E               	movf	EUSART_Initialize@baudrate,w
  9722     07B1  00B2               	movwf	??_EUSART_Initialize
  9723     07B2  082F               	movf	EUSART_Initialize@baudrate+1,w
  9724     07B3  00B3               	movwf	??_EUSART_Initialize+1
  9725     07B4  0830               	movf	EUSART_Initialize@baudrate+2,w
  9726     07B5  00B4               	movwf	??_EUSART_Initialize+2
  9727     07B6  0831               	movf	EUSART_Initialize@baudrate+3,w
  9728     07B7  00B5               	movwf	??_EUSART_Initialize+3
  9729     07B8  3006               	movlw	6
  9730     07B9                     u2295:
  9731     07B9  35B2               	lslf	??_EUSART_Initialize,f
  9732     07BA  0DB3               	rlf	??_EUSART_Initialize+1,f
  9733     07BB  0DB4               	rlf	??_EUSART_Initialize+2,f
  9734     07BC  0DB5               	rlf	??_EUSART_Initialize+3,f
  9735     07BD                     u2290:
  9736     07BD  0B89               	decfsz	9,f
  9737     07BE  2FB9               	goto	u2295
  9738     07BF  0835               	movf	??_EUSART_Initialize+3,w
  9739     07C0  00A3               	movwf	___aldiv@divisor+3
  9740     07C1  0834               	movf	??_EUSART_Initialize+2,w
  9741     07C2  00A2               	movwf	___aldiv@divisor+2
  9742     07C3  0833               	movf	??_EUSART_Initialize+1,w
  9743     07C4  00A1               	movwf	___aldiv@divisor+1
  9744     07C5  0832               	movf	??_EUSART_Initialize,w
  9745     07C6  00A0               	movwf	___aldiv@divisor
  9746     07C7  082E               	movf	EUSART_Initialize@baudrate,w
  9747     07C8  00B6               	movwf	??_EUSART_Initialize+4
  9748     07C9  082F               	movf	EUSART_Initialize@baudrate+1,w
  9749     07CA  00B7               	movwf	??_EUSART_Initialize+5
  9750     07CB  0830               	movf	EUSART_Initialize@baudrate+2,w
  9751     07CC  00B8               	movwf	??_EUSART_Initialize+6
  9752     07CD  0831               	movf	EUSART_Initialize@baudrate+3,w
  9753     07CE  00B9               	movwf	??_EUSART_Initialize+7
  9754     07CF  3006               	movlw	6
  9755     07D0                     u2305:
  9756     07D0  35B6               	lslf	??_EUSART_Initialize+4,f
  9757     07D1  0DB7               	rlf	??_EUSART_Initialize+5,f
  9758     07D2  0DB8               	rlf	??_EUSART_Initialize+6,f
  9759     07D3  0DB9               	rlf	??_EUSART_Initialize+7,f
  9760     07D4                     u2300:
  9761     07D4  0B89               	decfsz	9,f
  9762     07D5  2FD0               	goto	u2305
  9763     07D6  3000               	movlw	0
  9764     07D7  00BA               	movwf	??_EUSART_Initialize+8
  9765     07D8  3048               	movlw	72
  9766     07D9  00BB               	movwf	??_EUSART_Initialize+9
  9767     07DA  30E8               	movlw	232
  9768     07DB  00BC               	movwf	??_EUSART_Initialize+10
  9769     07DC  3001               	movlw	1
  9770     07DD  00BD               	movwf	??_EUSART_Initialize+11
  9771     07DE  0836               	movf	??_EUSART_Initialize+4,w
  9772     07DF  02BA               	subwf	??_EUSART_Initialize+8,f
  9773     07E0  0837               	movf	??_EUSART_Initialize+5,w
  9774     07E1  3BBB               	subwfb	??_EUSART_Initialize+9,f
  9775     07E2  0838               	movf	??_EUSART_Initialize+6,w
  9776     07E3  3BBC               	subwfb	??_EUSART_Initialize+10,f
  9777     07E4  0839               	movf	??_EUSART_Initialize+7,w
  9778     07E5  3BBD               	subwfb	??_EUSART_Initialize+11,f
  9779     07E6  083D               	movf	??_EUSART_Initialize+11,w
  9780     07E7  00A7               	movwf	___aldiv@dividend+3
  9781     07E8  083C               	movf	??_EUSART_Initialize+10,w
  9782     07E9  00A6               	movwf	___aldiv@dividend+2
  9783     07EA  083B               	movf	??_EUSART_Initialize+9,w
  9784     07EB  00A5               	movwf	___aldiv@dividend+1
  9785     07EC  083A               	movf	??_EUSART_Initialize+8,w
  9786     07ED  00A4               	movwf	___aldiv@dividend
  9787     07EE  318B  23C5  3187   	fcall	___aldiv
  9788     07F1  0020               	movlb	0	; select bank0
  9789     07F2  0821               	movf	?___aldiv+1,w
  9790     07F3  00BF               	movwf	EUSART_Initialize@x+1
  9791     07F4  0820               	movf	?___aldiv,w
  9792     07F5  00BE               	movwf	EUSART_Initialize@x
  9793     07F6                     l2526:
  9794                           
  9795                           ;EUSART.c: 41:  SPBRGL = x;
  9796     07F6  083E               	movf	EUSART_Initialize@x,w
  9797     07F7  0023               	movlb	3	; select bank3
  9798     07F8  009B               	movwf	27	;volatile
  9799     07F9                     l2528:
  9800                           
  9801                           ;EUSART.c: 42:     BRGH = 0;
  9802     07F9  111E               	bcf	30,2	;volatile
  9803     07FA                     l2530:
  9804                           
  9805                           ;EUSART.c: 43:     BRG16 = 0;
  9806     07FA  119F               	bcf	31,3	;volatile
  9807     07FB                     l2532:
  9808                           
  9809                           ;EUSART.c: 44:     SYNC = 0;
  9810     07FB  121E               	bcf	30,4	;volatile
  9811     07FC                     l2534:
  9812                           
  9813                           ;EUSART.c: 45:     SPEN = 1;
  9814     07FC  179D               	bsf	29,7	;volatile
  9815     07FD                     l2536:
  9816                           
  9817                           ;EUSART.c: 46:     CREN = 1;
  9818     07FD  161D               	bsf	29,4	;volatile
  9819     07FE                     l2538:
  9820                           
  9821                           ;EUSART.c: 47:     TXEN = 1;
  9822     07FE  169E               	bsf	30,5	;volatile
  9823     07FF                     l25:
  9824     07FF  0008               	return
  9825     0800                     __end_of_EUSART_Initialize:
  9826                           
  9827                           	psect	text36
  9828     0BC5                     __ptext36:	
  9829 ;; *************** function ___aldiv *****************
  9830 ;; Defined at:
  9831 ;;		line 5 in file "C:\Program Files\Microchip\xc8\v2.46\pic\sources\c99\common\aldiv.c"
  9832 ;; Parameters:    Size  Location     Type
  9833 ;;  divisor         4    0[BANK0 ] long 
  9834 ;;  dividend        4    4[BANK0 ] long 
  9835 ;; Auto vars:     Size  Location     Type
  9836 ;;  quotient        4   10[BANK0 ] long 
  9837 ;;  sign            1    9[BANK0 ] unsigned char 
  9838 ;;  counter         1    8[BANK0 ] unsigned char 
  9839 ;; Return value:  Size  Location     Type
  9840 ;;                  4    0[BANK0 ] long 
  9841 ;; Registers used:
  9842 ;;		wreg, status,2, status,0
  9843 ;; Tracked objects:
  9844 ;;		On entry : 0/0
  9845 ;;		On exit  : 0/0
  9846 ;;		Unchanged: 0/0
  9847 ;; Data sizes:     COMMON   BANK0   BANK1   BANK2   BANK3   BANK4   BANK5   BANK6   BANK7   BANK8   BANK9  BANK10  BANK1
      +1  BANK12  BANK13  BANK14  BANK15  BANK16  BANK17  BANK18  BANK19  BANK20  BANK21  BANK22  BANK23  BANK24  BANK25
  9848 ;;      Params:         0       8       0       0       0       0       0       0       0       0       0       0       
      +0       0       0       0       0       0       0       0       0       0       0       0       0       0       0
  9849 ;;      Locals:         0       6       0       0       0       0       0       0       0       0       0       0       
      +0       0       0       0       0       0       0       0       0       0       0       0       0       0       0
  9850 ;;      Temps:          1       0       0       0       0       0       0       0       0       0       0       0       
      +0       0       0       0       0       0       0       0       0       0       0       0       0       0       0
  9851 ;;      Totals:         1      14       0       0       0       0       0       0       0       0       0       0       
      +0       0       0       0       0       0       0       0       0       0       0       0       0       0       0
  9852 ;;Total ram usage:       15 bytes
  9853 ;; Hardware stack levels used: 1
  9854 ;; Hardware stack levels required when called: 1
  9855 ;; This function calls:
  9856 ;;		Nothing
  9857 ;; This function is called by:
  9858 ;;		_EUSART_Initialize
  9859 ;;		_raw_to_mg
  9860 ;;		_raw_to_mdps
  9861 ;;		_temp_to_c_x100
  9862 ;;		_mpu_calibrate
  9863 ;;		_UART_PrintInt32
  9864 ;;		_UART_PrintFixed100
  9865 ;; This function uses a non-reentrant model
  9866 ;;
  9867                           
  9868     0BC5                     ___aldiv:	
  9869                           ;psect for function ___aldiv
  9870                           
  9871     0BC5                     l2312:	
  9872                           ;incstack = 0
  9873                           ; Regs used in ___aldiv: [wreg+status,2+status,0]
  9874                           
  9875     0BC5  0020               	movlb	0	; select bank0
  9876     0BC6  01A9               	clrf	___aldiv@sign
  9877     0BC7                     l2314:
  9878     0BC7  1FA3               	btfss	___aldiv@divisor+3,7
  9879     0BC8  2BCA               	goto	u1921
  9880     0BC9  2BCB               	goto	u1920
  9881     0BCA                     u1921:
  9882     0BCA  2BD8               	goto	l567
  9883     0BCB                     u1920:
  9884     0BCB                     l2316:
  9885     0BCB  09A0               	comf	___aldiv@divisor,f
  9886     0BCC  09A1               	comf	___aldiv@divisor+1,f
  9887     0BCD  09A2               	comf	___aldiv@divisor+2,f
  9888     0BCE  09A3               	comf	___aldiv@divisor+3,f
  9889     0BCF  0AA0               	incf	___aldiv@divisor,f
  9890     0BD0  1903               	skipnz
  9891     0BD1  0AA1               	incf	___aldiv@divisor+1,f
  9892     0BD2  1903               	skipnz
  9893     0BD3  0AA2               	incf	___aldiv@divisor+2,f
  9894     0BD4  1903               	skipnz
  9895     0BD5  0AA3               	incf	___aldiv@divisor+3,f
  9896     0BD6  01A9               	clrf	___aldiv@sign
  9897     0BD7  0AA9               	incf	___aldiv@sign,f
  9898     0BD8                     l567:
  9899     0BD8  1FA7               	btfss	___aldiv@dividend+3,7
  9900     0BD9  2BDB               	goto	u1931
  9901     0BDA  2BDC               	goto	u1930
  9902     0BDB                     u1931:
  9903     0BDB  2BEB               	goto	l2322
  9904     0BDC                     u1930:
  9905     0BDC                     l2318:
  9906     0BDC  09A4               	comf	___aldiv@dividend,f
  9907     0BDD  09A5               	comf	___aldiv@dividend+1,f
  9908     0BDE  09A6               	comf	___aldiv@dividend+2,f
  9909     0BDF  09A7               	comf	___aldiv@dividend+3,f
  9910     0BE0  0AA4               	incf	___aldiv@dividend,f
  9911     0BE1  1903               	skipnz
  9912     0BE2  0AA5               	incf	___aldiv@dividend+1,f
  9913     0BE3  1903               	skipnz
  9914     0BE4  0AA6               	incf	___aldiv@dividend+2,f
  9915     0BE5  1903               	skipnz
  9916     0BE6  0AA7               	incf	___aldiv@dividend+3,f
  9917     0BE7                     l2320:
  9918     0BE7  3001               	movlw	1
  9919     0BE8  00FC               	movwf	??___aldiv
  9920     0BE9  087C               	movf	??___aldiv,w
  9921     0BEA  06A9               	xorwf	___aldiv@sign,f
  9922     0BEB                     l2322:
  9923     0BEB  3000               	movlw	0
  9924     0BEC  00AD               	movwf	___aldiv@quotient+3
  9925     0BED  3000               	movlw	0
  9926     0BEE  00AC               	movwf	___aldiv@quotient+2
  9927     0BEF  3000               	movlw	0
  9928     0BF0  00AB               	movwf	___aldiv@quotient+1
  9929     0BF1  3000               	movlw	0
  9930     0BF2  00AA               	movwf	___aldiv@quotient
  9931     0BF3                     l2324:
  9932     0BF3  0823               	movf	___aldiv@divisor+3,w
  9933     0BF4  0422               	iorwf	___aldiv@divisor+2,w
  9934     0BF5  0421               	iorwf	___aldiv@divisor+1,w
  9935     0BF6  0420               	iorwf	___aldiv@divisor,w
  9936     0BF7  1903               	skipnz
  9937     0BF8  2BFA               	goto	u1941
  9938     0BF9  2BFB               	goto	u1940
  9939     0BFA                     u1941:
  9940     0BFA  2C3C               	goto	l2344
  9941     0BFB                     u1940:
  9942     0BFB                     l2326:
  9943     0BFB  01A8               	clrf	___aldiv@counter
  9944     0BFC  0AA8               	incf	___aldiv@counter,f
  9945     0BFD  2C09               	goto	l2330
  9946     0BFE                     l2328:
  9947     0BFE  3001               	movlw	1
  9948     0BFF                     u1955:
  9949     0BFF  35A0               	lslf	___aldiv@divisor,f
  9950     0C00  0DA1               	rlf	___aldiv@divisor+1,f
  9951     0C01  0DA2               	rlf	___aldiv@divisor+2,f
  9952     0C02  0DA3               	rlf	___aldiv@divisor+3,f
  9953     0C03  0B89               	decfsz	9,f
  9954     0C04  2BFF               	goto	u1955
  9955     0C05  3001               	movlw	1
  9956     0C06  00FC               	movwf	??___aldiv
  9957     0C07  087C               	movf	??___aldiv,w
  9958     0C08  07A8               	addwf	___aldiv@counter,f
  9959     0C09                     l2330:
  9960     0C09  1FA3               	btfss	___aldiv@divisor+3,7
  9961     0C0A  2C0C               	goto	u1961
  9962     0C0B  2C0D               	goto	u1960
  9963     0C0C                     u1961:
  9964     0C0C  2BFE               	goto	l2328
  9965     0C0D                     u1960:
  9966     0C0D                     l2332:
  9967     0C0D  3001               	movlw	1
  9968     0C0E                     u1975:
  9969     0C0E  35AA               	lslf	___aldiv@quotient,f
  9970     0C0F  0DAB               	rlf	___aldiv@quotient+1,f
  9971     0C10  0DAC               	rlf	___aldiv@quotient+2,f
  9972     0C11  0DAD               	rlf	___aldiv@quotient+3,f
  9973     0C12  0B89               	decfsz	9,f
  9974     0C13  2C0E               	goto	u1975
  9975     0C14                     l2334:
  9976     0C14  0823               	movf	___aldiv@divisor+3,w
  9977     0C15  0227               	subwf	___aldiv@dividend+3,w
  9978     0C16  1D03               	skipz
  9979     0C17  2C22               	goto	u1985
  9980     0C18  0822               	movf	___aldiv@divisor+2,w
  9981     0C19  0226               	subwf	___aldiv@dividend+2,w
  9982     0C1A  1D03               	skipz
  9983     0C1B  2C22               	goto	u1985
  9984     0C1C  0821               	movf	___aldiv@divisor+1,w
  9985     0C1D  0225               	subwf	___aldiv@dividend+1,w
  9986     0C1E  1D03               	skipz
  9987     0C1F  2C22               	goto	u1985
  9988     0C20  0820               	movf	___aldiv@divisor,w
  9989     0C21  0224               	subwf	___aldiv@dividend,w
  9990     0C22                     u1985:
  9991     0C22  1C03               	skipc
  9992     0C23  2C25               	goto	u1981
  9993     0C24  2C26               	goto	u1980
  9994     0C25                     u1981:
  9995     0C25  2C2F               	goto	l2340
  9996     0C26                     u1980:
  9997     0C26                     l2336:
  9998     0C26  0820               	movf	___aldiv@divisor,w
  9999     0C27  02A4               	subwf	___aldiv@dividend,f
 10000     0C28  0821               	movf	___aldiv@divisor+1,w
 10001     0C29  3BA5               	subwfb	___aldiv@dividend+1,f
 10002     0C2A  0822               	movf	___aldiv@divisor+2,w
 10003     0C2B  3BA6               	subwfb	___aldiv@dividend+2,f
 10004     0C2C  0823               	movf	___aldiv@divisor+3,w
 10005     0C2D  3BA7               	subwfb	___aldiv@dividend+3,f
 10006     0C2E                     l2338:
 10007     0C2E  142A               	bsf	___aldiv@quotient,0
 10008     0C2F                     l2340:
 10009     0C2F  3001               	movlw	1
 10010     0C30                     u1995:
 10011     0C30  36A3               	lsrf	___aldiv@divisor+3,f
 10012     0C31  0CA2               	rrf	___aldiv@divisor+2,f
 10013     0C32  0CA1               	rrf	___aldiv@divisor+1,f
 10014     0C33  0CA0               	rrf	___aldiv@divisor,f
 10015     0C34  0B89               	decfsz	9,f
 10016     0C35  2C30               	goto	u1995
 10017     0C36                     l2342:
 10018     0C36  3001               	movlw	1
 10019     0C37  02A8               	subwf	___aldiv@counter,f
 10020     0C38  1D03               	btfss	3,2
 10021     0C39  2C3B               	goto	u2001
 10022     0C3A  2C3C               	goto	u2000
 10023     0C3B                     u2001:
 10024     0C3B  2C0D               	goto	l2332
 10025     0C3C                     u2000:
 10026     0C3C                     l2344:
 10027     0C3C  0829               	movf	___aldiv@sign,w
 10028     0C3D  1903               	btfsc	3,2
 10029     0C3E  2C40               	goto	u2011
 10030     0C3F  2C41               	goto	u2010
 10031     0C40                     u2011:
 10032     0C40  2C4C               	goto	l2348
 10033     0C41                     u2010:
 10034     0C41                     l2346:
 10035     0C41  09AA               	comf	___aldiv@quotient,f
 10036     0C42  09AB               	comf	___aldiv@quotient+1,f
 10037     0C43  09AC               	comf	___aldiv@quotient+2,f
 10038     0C44  09AD               	comf	___aldiv@quotient+3,f
 10039     0C45  0AAA               	incf	___aldiv@quotient,f
 10040     0C46  1903               	skipnz
 10041     0C47  0AAB               	incf	___aldiv@quotient+1,f
 10042     0C48  1903               	skipnz
 10043     0C49  0AAC               	incf	___aldiv@quotient+2,f
 10044     0C4A  1903               	skipnz
 10045     0C4B  0AAD               	incf	___aldiv@quotient+3,f
 10046     0C4C                     l2348:
 10047     0C4C  082D               	movf	___aldiv@quotient+3,w
 10048     0C4D  00A3               	movwf	?___aldiv+3
 10049     0C4E  082C               	movf	___aldiv@quotient+2,w
 10050     0C4F  00A2               	movwf	?___aldiv+2
 10051     0C50  082B               	movf	___aldiv@quotient+1,w
 10052     0C51  00A1               	movwf	?___aldiv+1
 10053     0C52  082A               	movf	___aldiv@quotient,w
 10054     0C53  00A0               	movwf	?___aldiv
 10055     0C54                     l577:
 10056     0C54  0008               	return
 10057     0C55                     __end_of___aldiv:
 10058                           
 10059                           	psect	intentry
 10060     0004                     __pintentry:	
 10061 ;; *************** function _ISR *****************
 10062 ;; Defined at:
 10063 ;;		line 72 in file "main.c"
 10064 ;; Parameters:    Size  Location     Type
 10065 ;;		None
 10066 ;; Auto vars:     Size  Location     Type
 10067 ;;		None
 10068 ;; Return value:  Size  Location     Type
 10069 ;;                  1    wreg      void 
 10070 ;; Registers used:
 10071 ;;		wreg
 10072 ;; Tracked objects:
 10073 ;;		On entry : 0/0
 10074 ;;		On exit  : 0/0
 10075 ;;		Unchanged: 0/0
 10076 ;; Data sizes:     COMMON   BANK0   BANK1   BANK2   BANK3   BANK4   BANK5   BANK6   BANK7   BANK8   BANK9  BANK10  BANK1
      +1  BANK12  BANK13  BANK14  BANK15  BANK16  BANK17  BANK18  BANK19  BANK20  BANK21  BANK22  BANK23  BANK24  BANK25
 10077 ;;      Params:         0       0       0       0       0       0       0       0       0       0       0       0       
      +0       0       0       0       0       0       0       0       0       0       0       0       0       0       0
 10078 ;;      Locals:         0       0       0       0       0       0       0       0       0       0       0       0       
      +0       0       0       0       0       0       0       0       0       0       0       0       0       0       0
 10079 ;;      Temps:          0       0       0       0       0       0       0       0       0       0       0       0       
      +0       0       0       0       0       0       0       0       0       0       0       0       0       0       0
 10080 ;;      Totals:         0       0       0       0       0       0       0       0       0       0       0       0       
      +0       0       0       0       0       0       0       0       0       0       0       0       0       0       0
 10081 ;;Total ram usage:        0 bytes
 10082 ;; Hardware stack levels used: 1
 10083 ;; This function calls:
 10084 ;;		Nothing
 10085 ;; This function is called by:
 10086 ;;		Interrupt level 1
 10087 ;; This function uses a non-reentrant model
 10088 ;;
 10089                           
 10090     0004                     _ISR:
 10091                           
 10092                           ;incstack = 0
 10093     0004  147E               	bsf	int$flags,0	;set compiler interrupt flag (level 1)
 10094                           
 10095                           ; Regs used in _ISR: [wreg]
 10096     0005  3180               	pagesel	$
 10097     0006                     i1l2842:
 10098                           
 10099                           ;main.c: 74:     if (INTCONbits.TMR0IF)
 10100     0006  1D0B               	btfss	11,2	;volatile
 10101     0007  2809               	goto	u272_21
 10102     0008  280A               	goto	u272_20
 10103     0009                     u272_21:
 10104     0009  2817               	goto	i1l232
 10105     000A                     u272_20:
 10106     000A                     i1l2844:
 10107                           
 10108                           ;main.c: 75:     {;main.c: 76:         TMR0 = 6;
 10109     000A  3006               	movlw	6
 10110     000B  0020               	movlb	0	; select bank0
 10111     000C  0095               	movwf	21	;volatile
 10112     000D                     i1l2846:
 10113                           
 10114                           ;main.c: 77:         INTCONbits.TMR0IF = 0;
 10115     000D  110B               	bcf	11,2	;volatile
 10116                           
 10117                           ;main.c: 78:         millis_counter++;
 10118     000E  3001               	movlw	1
 10119     000F  0021               	movlb	1	; select bank1
 10120     0010  07CC               	addwf	_millis_counter^(0+128),f	;volatile
 10121     0011  3000               	movlw	0
 10122     0012  3DCD               	addwfc	(_millis_counter+1)^(0+128),f	;volatile
 10123     0013  3000               	movlw	0
 10124     0014  3DCE               	addwfc	(_millis_counter+2)^(0+128),f	;volatile
 10125     0015  3000               	movlw	0
 10126     0016  3DCF               	addwfc	(_millis_counter+3)^(0+128),f	;volatile
 10127     0017                     i1l232:
 10128     0017  107E               	bcf	int$flags,0	;clear compiler interrupt flag (level 1)
 10129     0018  0009               	retfie
 10130     0019                     __end_of_ISR:
 10131     007E                     btemp	set	126	;btemp
 10132     007E                     int$flags	set	126
 10133     007E                     wtemp0	set	126
 10134                           
 10135                           	psect	config
 10136                           
 10137                           ;Config register CONFIG1 @ 0x8007
 10138                           ;	Oscillator Selection Bits
 10139                           ;	FOSC = INTOSC, INTOSC oscillator: I/O function on CLKIN pin
 10140                           ;	Watchdog Timer Enable
 10141                           ;	WDTE = OFF, WDT disabled
 10142                           ;	Power-up Timer Enable
 10143                           ;	PWRTE = OFF, PWRT disabled
 10144                           ;	MCLR Pin Function Select
 10145                           ;	MCLRE = OFF, MCLR/VPP pin function is digital input if LVP bit is also 0.
 10146                           ;	Flash Program Memory Code Protection
 10147                           ;	CP = OFF, Program memory code protection is disabled
 10148                           ;	Brown-out Reset Enable
 10149                           ;	BOREN = OFF, Brown-out Reset disabled
 10150                           ;	Clock Out Enable
 10151                           ;	CLKOUTEN = OFF, CLKOUT function is disabled. I/O or oscillator function on the CLKOUT 
      +                          pin
 10152                           ;	Internal/External Switchover Mode
 10153                           ;	IESO = ON, Internal/External Switchover Mode is enabled
 10154                           ;	Fail-Safe Clock Monitor Enable
 10155                           ;	FCMEN = OFF, Fail-Safe Clock Monitor is disabled
 10156     8007                     	org	32775
 10157     8007  19A4               	dw	6564
 10158                           
 10159                           ;Config register CONFIG2 @ 0x8008
 10160                           ;	Flash Memory Self-Write Protection
 10161                           ;	WRT = OFF, Write protection off
 10162                           ;	Peripheral Pin Select one-way control
 10163                           ;	PPS1WAY = ON, The PPSLOCK bit cannot be cleared once it is set by software
 10164                           ;	Zero-cross detect disable
 10165                           ;	ZCDDIS = ON, ZCD disabled. ZCD can be enabled by setting the ZCDSEN bit of ZCDCON
 10166                           ;	Phase Lock Loop enable
 10167                           ;	PLLEN = OFF, 4x PLL is disabled
 10168                           ;	Stack Overflow/Underflow Reset Enable
 10169                           ;	STVREN = ON, Stack Overflow or Underflow will cause a Reset
 10170                           ;	Brown-out Reset Voltage Selection
 10171                           ;	BORV = LO, Brown-out Reset Voltage (Vbor), low trip point selected.
 10172                           ;	Low-Power Brown Out Reset
 10173                           ;	LPBOR = OFF, Low-Power BOR is disabled
 10174                           ;	In-Circuit Debugger Mode
 10175                           ;	DEBUG = 0x1, unprogrammed default
 10176                           ;	Low-Voltage Programming Enable
 10177                           ;	LVP = OFF, High-voltage on MCLR/VPP must be used for programming
 10178     8008                     	org	32776
 10179     8008  1EFF               	dw	7935

Data Sizes:
    Strings     412
    Constant    0
    Data        0
    BSS         103
    Persistent  32
    Stack       0

Auto Spaces:
    Space          Size  Autos    Used
    COMMON           14     14      14
    BANK0            80     80      80
    BANK1            80     28      79
    BANK2            80      0      52
    BANK3            80      0       0
    BANK4            80      0       0
    BANK5            80      0       0
    BANK6            80      0       0
    BANK7            80      0       0
    BANK8            80      0       0
    BANK9            80      0       0
    BANK10           80      0       0
    BANK11           80      0       0
    BANK12           80      0       0
    BANK13           80      0       0
    BANK14           80      0       0
    BANK15           80      0       0
    BANK16           80      0       0
    BANK17           80      0       0
    BANK18           80      0       0
    BANK19           80      0       0
    BANK20           80      0       0
    BANK21           80      0       0
    BANK22           80      0       0
    BANK23           80      0       0
    BANK24           80      0       0
    BANK25           32      0       0

Pointer List with Targets:

    EUSART_Write_Text@text	PTR unsigned char  size(2) Largest target is 38
		 -> STR_1(CODE[2]), STR_10(CODE[33]), STR_11(CODE[18]), STR_12(CODE[23]), 
		 -> STR_13(CODE[34]), STR_14(CODE[32]), STR_15(CODE[19]), STR_16(CODE[12]), 
		 -> STR_17(CODE[4]), STR_18(CODE[4]), STR_19(CODE[3]), STR_2(CODE[11]), 
		 -> STR_20(CODE[14]), STR_21(CODE[4]), STR_22(CODE[4]), STR_23(CODE[5]), 
		 -> STR_24(CODE[21]), STR_25(CODE[38]), STR_26(CODE[21]), STR_27(CODE[11]), 
		 -> STR_28(CODE[4]), STR_29(CODE[4]), STR_3(CODE[2]), STR_30(CODE[15]), 
		 -> STR_31(CODE[4]), STR_32(CODE[4]), STR_33(CODE[6]), STR_34(CODE[2]), 
		 -> STR_35(CODE[3]), STR_4(CODE[2]), STR_5(CODE[2]), STR_6(CODE[2]), 
		 -> STR_7(CODE[26]), STR_8(CODE[30]), STR_9(CODE[32]), UART_PrintInt32@c(BANK0[2]), 

    filter_step@r	PTR const struct . size(1) Largest target is 14
		 -> main@r(BANK1[14]), 

    i2c_read_bytes@dst	PTR unsigned char  size(1) Largest target is 14
		 -> mpu_init@who(BANK0[1]), mpu_read_raw@b(BANK0[14]), mpu_wait_data_ready@st(BANK0[1]), 

    I2C_ReadByte@data	PTR unsigned char  size(1) Largest target is 14
		 -> mpu_init@who(BANK0[1]), mpu_read_raw@b(BANK0[14]), mpu_wait_data_ready@st(BANK0[1]), 

    i2c_write_bytes@src	PTR unsigned char  size(1) Largest target is 1
		 -> mpu_write_reg@val(COMMON[1]), 

    mpu_frame_sane@b	PTR const unsigned char  size(1) Largest target is 14
		 -> mpu_read_raw@b(BANK0[14]), 

    mpu_read_multi@buf	PTR unsigned char  size(1) Largest target is 14
		 -> mpu_read_raw@b(BANK0[14]), 

    mpu_read_raw@o	PTR struct . size(1) Largest target is 14
		 -> main@r(BANK1[14]), mpu_calibrate@r(BANK0[14]), 

    mpu_read_reg@val	PTR unsigned char  size(1) Largest target is 1
		 -> mpu_init@who(BANK0[1]), mpu_wait_data_ready@st(BANK0[1]), 


Critical Paths under _main in COMMON

    _main->_UART_PrintInt32
    _temp_to_c_x100->___aldiv
    _mpu_write_reg->_i2c_write_bytes
    _i2c_write_bytes->_I2C_WriteByte
    _mpu_read_reg->_i2c_read_bytes
    _mpu_read_multi->_i2c_read_bytes
    _i2c_read_bytes->_I2C_ReadByte
    _I2C_WriteByte->_I2C_WaitIF
    _I2C_WriteByte->_I2C_WaitIdle
    _I2C_Stop->_I2C_WaitIF
    _I2C_Stop->_I2C_WaitIdle
    _I2C_Start->_I2C_WaitIF
    _I2C_Start->_I2C_WaitIdle
    _I2C_RepeatedStart->_I2C_WaitIF
    _I2C_RepeatedStart->_I2C_WaitIdle
    _I2C_ReadByte->_I2C_WaitIF
    _I2C_ReadByte->_I2C_WaitIdle
    _filter_step->_median3
    _raw_to_mg->___aldiv
    _raw_to_mdps->___aldiv
    _UART_PrintFixed100->_UART_PrintInt32
    _UART_PrintInt32->___aldiv
    _EUSART_Write_Text->_EUSART_Write
    _EUSART_Initialize->___aldiv
    ___aldiv->___lmul

Critical Paths under _ISR in COMMON

    None.

Critical Paths under _main in BANK0

    _main->_filter_step
    _temp_to_c_x100->___aldiv
    _mpu_init->_mpu_read_reg
    _mpu_calibrate->_raw_to_mdps
    _mpu_calibrate->_raw_to_mg
    _mpu_wait_data_ready->_mpu_read_reg
    _mpu_read_raw->_mpu_read_multi
    _filter_step->_raw_to_mdps
    _filter_step->_raw_to_mg
    _raw_to_mg->___aldiv
    _raw_to_mdps->___aldiv
    _UART_PrintFixed100->_UART_PrintInt32
    _UART_PrintInt32->___aldiv
    _EUSART_Initialize->___aldiv

Critical Paths under _ISR in BANK0

    None.

Critical Paths under _main in BANK1

    None.

Critical Paths under _ISR in BANK1

    None.

Critical Paths under _main in BANK2

    None.

Critical Paths under _ISR in BANK2

    None.

Critical Paths under _main in BANK3

    None.

Critical Paths under _ISR in BANK3

    None.

Critical Paths under _main in BANK4

    None.

Critical Paths under _ISR in BANK4

    None.

Critical Paths under _main in BANK5

    None.

Critical Paths under _ISR in BANK5

    None.

Critical Paths under _main in BANK6

    None.

Critical Paths under _ISR in BANK6

    None.

Critical Paths under _main in BANK7

    None.

Critical Paths under _ISR in BANK7

    None.

Critical Paths under _main in BANK8

    None.

Critical Paths under _ISR in BANK8

    None.

Critical Paths under _main in BANK9

    None.

Critical Paths under _ISR in BANK9

    None.

Critical Paths under _main in BANK10

    None.

Critical Paths under _ISR in BANK10

    None.

Critical Paths under _main in BANK11

    None.

Critical Paths under _ISR in BANK11

    None.

Critical Paths under _main in BANK12

    None.

Critical Paths under _ISR in BANK12

    None.

Critical Paths under _main in BANK13

    None.

Critical Paths under _ISR in BANK13

    None.

Critical Paths under _main in BANK14

    None.

Critical Paths under _ISR in BANK14

    None.

Critical Paths under _main in BANK15

    None.

Critical Paths under _ISR in BANK15

    None.

Critical Paths under _main in BANK16

    None.

Critical Paths under _ISR in BANK16

    None.

Critical Paths under _main in BANK17

    None.

Critical Paths under _ISR in BANK17

    None.

Critical Paths under _main in BANK18

    None.

Critical Paths under _ISR in BANK18

    None.

Critical Paths under _main in BANK19

    None.

Critical Paths under _ISR in BANK19

    None.

Critical Paths under _main in BANK20

    None.

Critical Paths under _ISR in BANK20

    None.

Critical Paths under _main in BANK21

    None.

Critical Paths under _ISR in BANK21

    None.

Critical Paths under _main in BANK22

    None.

Critical Paths under _ISR in BANK22

    None.

Critical Paths under _main in BANK23

    None.

Critical Paths under _ISR in BANK23

    None.

Critical Paths under _main in BANK24

    None.

Critical Paths under _ISR in BANK24

    None.

Critical Paths under _main in BANK25

    None.

Critical Paths under _ISR in BANK25

    None.

Call Graph Tables:

 ---------------------------------------------------------------------------------
 (Depth) Function   	        Calls       Base Space   Used Autos Params    Refs
 ---------------------------------------------------------------------------------
 (0) _main                                                28    28      0   86838
                                              0 BANK1     28    28      0
                  _EUSART_Initialize
                  _EUSART_Write_Text
                           _I2C_Init
                          _TMR0_Init
                 _UART_PrintFixed100
                    _UART_PrintInt32
                        _filter_step
                           _initMain
                             _millis
                      _mpu_calibrate
                           _mpu_init
                       _mpu_read_raw
                _mpu_wait_data_ready
                     _temp_to_c_x100
 ---------------------------------------------------------------------------------
 (1) _temp_to_c_x100                                      12     8      4    2816
                                             14 BANK0     12     8      4
                            ___aldiv
                             ___lmul
 ---------------------------------------------------------------------------------
 (1) _mpu_init                                             2     2      0   10125
                                              2 BANK0      2     2      0
                       _mpu_read_reg
                      _mpu_write_reg
 ---------------------------------------------------------------------------------
 (1) _mpu_calibrate                                       45    45      0   26532
                                             26 BANK0     45    45      0
                            ___aldiv
                       _mpu_read_raw
                _mpu_wait_data_ready
                      _mpu_write_reg
                        _raw_to_mdps
                          _raw_to_mg
 ---------------------------------------------------------------------------------
 (2) _mpu_write_reg                                        2     1      1    4143
                                             11 COMMON     2     1      1
                    _i2c_write_bytes
 ---------------------------------------------------------------------------------
 (3) _i2c_write_bytes                                      6     3      3    3262
                                              5 COMMON     6     3      3
                          _I2C_Start
                           _I2C_Stop
                      _I2C_WriteByte
 ---------------------------------------------------------------------------------
 (1) _mpu_wait_data_ready                                 15    13      2    6202
                                              2 BANK0     15    13      2
                             _millis
                       _mpu_read_reg
 ---------------------------------------------------------------------------------
 (2) _mpu_read_reg                                         2     1      1    5935
                                              0 BANK0      2     1      1
                     _i2c_read_bytes
 ---------------------------------------------------------------------------------
 (2) _millis                                               8     4      4      23
                                              0 COMMON     8     4      4
 ---------------------------------------------------------------------------------
 (1) _mpu_read_raw                                        17    17      0    6974
                                              3 BANK0     17    17      0
                     _mpu_frame_sane
                     _mpu_read_multi
 ---------------------------------------------------------------------------------
 (2) _mpu_read_multi                                       3     1      2    5957
                                              0 BANK0      3     1      2
                     _i2c_read_bytes
 ---------------------------------------------------------------------------------
 (3) _i2c_read_bytes                                       8     5      3    5739
                                              6 COMMON     8     5      3
                       _I2C_ReadByte
                  _I2C_RepeatedStart
                          _I2C_Start
                           _I2C_Stop
                      _I2C_WriteByte
 ---------------------------------------------------------------------------------
 (4) _I2C_WriteByte                                        2     2      0     992
                                              3 COMMON     2     2      0
                         _I2C_WaitIF
                       _I2C_WaitIdle
 ---------------------------------------------------------------------------------
 (4) _I2C_Stop                                             1     1      0     938
                                              3 COMMON     1     1      0
                         _I2C_WaitIF
                       _I2C_WaitIdle
 ---------------------------------------------------------------------------------
 (4) _I2C_Start                                            1     1      0     970
                                              3 COMMON     1     1      0
                         _I2C_WaitIF
                       _I2C_WaitIdle
 ---------------------------------------------------------------------------------
 (4) _I2C_RepeatedStart                                    1     1      0     970
                                              3 COMMON     1     1      0
                         _I2C_WaitIF
                       _I2C_WaitIdle
 ---------------------------------------------------------------------------------
 (4) _I2C_ReadByte                                         3     2      1    1190
                                              3 COMMON     3     2      1
                         _I2C_WaitIF
                       _I2C_WaitIdle
 ---------------------------------------------------------------------------------
 (5) _I2C_WaitIdle                                         3     1      2     402
                                              0 COMMON     3     1      2
 ---------------------------------------------------------------------------------
 (5) _I2C_WaitIF                                           3     1      2     478
                                              0 COMMON     3     1      2
 ---------------------------------------------------------------------------------
 (2) _mpu_frame_sane                                      12    11      1     380
                                              0 COMMON    12    11      1
 ---------------------------------------------------------------------------------
 (1) _initMain                                             1     1      0       0
                                              0 COMMON     1     1      0
                        _internal_32
 ---------------------------------------------------------------------------------
 (2) _internal_32                                          0     0      0       0
 ---------------------------------------------------------------------------------
 (1) _filter_step                                         54    54      0    9102
                                             26 BANK0     54    54      0
                            _median3
                        _raw_to_mdps
                          _raw_to_mg
 ---------------------------------------------------------------------------------
 (2) _raw_to_mg                                           12     8      4    3196
                                             14 BANK0     12     8      4
                            ___aldiv
                             ___lmul
 ---------------------------------------------------------------------------------
 (2) _raw_to_mdps                                         12     8      4    3196
                                             14 BANK0     12     8      4
                            ___aldiv
                             ___lmul
 ---------------------------------------------------------------------------------
 (2) ___lmul                                              12     4      8     548
                                              0 COMMON    12     4      8
 ---------------------------------------------------------------------------------
 (2) _median3                                             25    13     12    1729
                                              0 COMMON    13     1     12
                                              0 BANK0     12    12      0
 ---------------------------------------------------------------------------------
 (1) _UART_PrintFixed100                                  12     8      4   12786
                                             33 BANK0     12     8      4
                  _EUSART_Write_Text
                    _UART_PrintInt32
                            ___aldiv
                            ___almod
                     _temp_to_c_x100 (ARG)
 ---------------------------------------------------------------------------------
 (1) _UART_PrintInt32                                     20    16      4    6981
                                             13 COMMON     1     1      0
                                             14 BANK0     19    15      4
                  _EUSART_Write_Text
                            ___aldiv
                            ___almod
 ---------------------------------------------------------------------------------
 (2) ___almod                                             11     3      8     600
                                              0 COMMON    11     3      8
 ---------------------------------------------------------------------------------
 (2) _EUSART_Write_Text                                    5     3      2    2848
                                              1 COMMON     5     3      2
                       _EUSART_Write
 ---------------------------------------------------------------------------------
 (3) _EUSART_Write                                         1     1      0      22
                                              0 COMMON     1     1      0
 ---------------------------------------------------------------------------------
 (1) _TMR0_Init                                            0     0      0       0
 ---------------------------------------------------------------------------------
 (1) _I2C_Init                                             1     1      0       0
                                              0 COMMON     1     1      0
                    _I2C_ClearErrors
 ---------------------------------------------------------------------------------
 (2) _I2C_ClearErrors                                      0     0      0       0
 ---------------------------------------------------------------------------------
 (1) _EUSART_Initialize                                   18    14      4    2267
                                             14 BANK0     18    14      4
                            ___aldiv
 ---------------------------------------------------------------------------------
 (2) ___aldiv                                             15     7      8    2124
                                             12 COMMON     1     1      0
                                              0 BANK0     14     6      8
                             ___lmul (ARG)
 ---------------------------------------------------------------------------------
 Estimated maximum stack depth 5
 ---------------------------------------------------------------------------------
 (Depth) Function   	        Calls       Base Space   Used Autos Params    Refs
 ---------------------------------------------------------------------------------
 (7) _ISR                                                  0     0      0       0
 ---------------------------------------------------------------------------------
 Estimated maximum stack depth 7
 ---------------------------------------------------------------------------------

 Call Graph Graphs:

 _main (ROOT)
   _EUSART_Initialize
     ___aldiv
       ___lmul (ARG)
   _EUSART_Write_Text
     _EUSART_Write
   _I2C_Init
     _I2C_ClearErrors
   _TMR0_Init
   _UART_PrintFixed100
     _EUSART_Write_Text
     _UART_PrintInt32
       _EUSART_Write_Text
       ___aldiv
       ___almod
     ___aldiv
     ___almod
     _temp_to_c_x100 (ARG)
       ___aldiv
       ___lmul
   _UART_PrintInt32
   _filter_step
     _median3
     _raw_to_mdps
       ___aldiv
       ___lmul
     _raw_to_mg
       ___aldiv
       ___lmul
   _initMain
     _internal_32
   _millis
   _mpu_calibrate
     ___aldiv
     _mpu_read_raw
       _mpu_frame_sane
       _mpu_read_multi
         _i2c_read_bytes
           _I2C_ReadByte
             _I2C_WaitIF
             _I2C_WaitIdle
           _I2C_RepeatedStart
             _I2C_WaitIF
             _I2C_WaitIdle
           _I2C_Start
             _I2C_WaitIF
             _I2C_WaitIdle
           _I2C_Stop
             _I2C_WaitIF
             _I2C_WaitIdle
           _I2C_WriteByte
             _I2C_WaitIF
             _I2C_WaitIdle
     _mpu_wait_data_ready
       _millis
       _mpu_read_reg
         _i2c_read_bytes
     _mpu_write_reg
       _i2c_write_bytes
         _I2C_Start
         _I2C_Stop
         _I2C_WriteByte
     _raw_to_mdps
     _raw_to_mg
   _mpu_init
     _mpu_read_reg
     _mpu_write_reg
   _mpu_read_raw
   _mpu_wait_data_ready
   _temp_to_c_x100

 _ISR (ROOT)

 Address spaces:
Name               Size   Autos  Total    Cost      Usage
BIGRAM             7F0      0       0       0        0.0%
NULL                 0      0       0       0        0.0%
CODE                 0      0       0       0        0.0%
BITCOMMON            E      0       0       1        0.0%
BITSFR0              0      0       0       1        0.0%
SFR0                 0      0       0       1        0.0%
COMMON               E      E       E       2      100.0%
BITSFR1              0      0       0       2        0.0%
SFR1                 0      0       0       2        0.0%
BITSFR2              0      0       0       3        0.0%
SFR2                 0      0       0       3        0.0%
STACK                0      0       0       3        0.0%
BITBANK0            50      0       0       4        0.0%
BITSFR3              0      0       0       4        0.0%
SFR3                 0      0       0       4        0.0%
BANK0               50     50      50       5      100.0%
BITSFR4              0      0       0       5        0.0%
SFR4                 0      0       0       5        0.0%
BITBANK1            50      0       0       6        0.0%
BITSFR5              0      0       0       6        0.0%
SFR5                 0      0       0       6        0.0%
BANK1               50     1C      4F       7       98.8%
BITSFR6              0      0       0       7        0.0%
SFR6                 0      0       0       7        0.0%
BITBANK2            50      0       0       8        0.0%
BITSFR7              0      0       0       8        0.0%
SFR7                 0      0       0       8        0.0%
BANK2               50      0      34       9       65.0%
BITSFR8              0      0       0       9        0.0%
SFR8                 0      0       0       9        0.0%
BITBANK3            50      0       0      10        0.0%
BITSFR9              0      0       0      10        0.0%
SFR9                 0      0       0      10        0.0%
BANK3               50      0       0      11        0.0%
BITSFR10             0      0       0      11        0.0%
SFR10                0      0       0      11        0.0%
BITBANK4            50      0       0      12        0.0%
BITSFR11             0      0       0      12        0.0%
SFR11                0      0       0      12        0.0%
BANK4               50      0       0      13        0.0%
BITSFR12             0      0       0      13        0.0%
SFR12                0      0       0      13        0.0%
BITSFR13             0      0       0      14        0.0%
SFR13                0      0       0      14        0.0%
ABS                  0      0      E1      14        0.0%
BITBANK5            50      0       0      15        0.0%
BITSFR14             0      0       0      15        0.0%
SFR14                0      0       0      15        0.0%
BANK5               50      0       0      16        0.0%
BITSFR15             0      0       0      16        0.0%
SFR15                0      0       0      16        0.0%
BITBANK6            50      0       0      17        0.0%
BITSFR16             0      0       0      17        0.0%
SFR16                0      0       0      17        0.0%
BANK6               50      0       0      18        0.0%
BITSFR17             0      0       0      18        0.0%
SFR17                0      0       0      18        0.0%
BITBANK7            50      0       0      19        0.0%
BITSFR18             0      0       0      19        0.0%
SFR18                0      0       0      19        0.0%
BANK7               50      0       0      20        0.0%
BITSFR19             0      0       0      20        0.0%
SFR19                0      0       0      20        0.0%
BITBANK8            50      0       0      21        0.0%
BITSFR20             0      0       0      21        0.0%
SFR20                0      0       0      21        0.0%
BANK8               50      0       0      22        0.0%
BITSFR21             0      0       0      22        0.0%
SFR21                0      0       0      22        0.0%
BITBANK9            50      0       0      23        0.0%
BITSFR22             0      0       0      23        0.0%
SFR22                0      0       0      23        0.0%
BANK9               50      0       0      24        0.0%
BITSFR23             0      0       0      24        0.0%
SFR23                0      0       0      24        0.0%
BITBANK10           50      0       0      25        0.0%
BITSFR24             0      0       0      25        0.0%
SFR24                0      0       0      25        0.0%
BANK10              50      0       0      26        0.0%
BITSFR25             0      0       0      26        0.0%
SFR25                0      0       0      26        0.0%
BITBANK11           50      0       0      27        0.0%
BITSFR26             0      0       0      27        0.0%
SFR26                0      0       0      27        0.0%
BITSFR27             0      0       0      28        0.0%
SFR27                0      0       0      28        0.0%
DATA                 0      0      E1      28        0.0%
BANK11              50      0       0      29        0.0%
BITSFR28             0      0       0      29        0.0%
SFR28                0      0       0      29        0.0%
BITBANK12           50      0       0      30        0.0%
BITSFR29             0      0       0      30        0.0%
SFR29                0      0       0      30        0.0%
BANK12              50      0       0      31        0.0%
BITSFR30             0      0       0      31        0.0%
SFR30                0      0       0      31        0.0%
BITBANK13           50      0       0      32        0.0%
BITSFR31             0      0       0      32        0.0%
SFR31                0      0       0      32        0.0%
BANK13              50      0       0      33        0.0%
BITBANK14           50      0       0      34        0.0%
BANK14              50      0       0      35        0.0%
BITBANK15           50      0       0      36        0.0%
BANK15              50      0       0      37        0.0%
BITBANK16           50      0       0      38        0.0%
BANK16              50      0       0      39        0.0%
BITBANK17           50      0       0      40        0.0%
BANK17              50      0       0      41        0.0%
BITBANK18           50      0       0      42        0.0%
BANK18              50      0       0      43        0.0%
BITBANK19           50      0       0      44        0.0%
BANK19              50      0       0      45        0.0%
BITBANK20           50      0       0      46        0.0%
BANK20              50      0       0      47        0.0%
BITBANK21           50      0       0      48        0.0%
BANK21              50      0       0      49        0.0%
BITBANK22           50      0       0      50        0.0%
BANK22              50      0       0      51        0.0%
BITBANK23           50      0       0      52        0.0%
BANK23              50      0       0      53        0.0%
BITBANK24           50      0       0      54        0.0%
BANK24              50      0       0      55        0.0%
BITBANK25           20      0       0      56        0.0%
BANK25              20      0       0      57        0.0%


Microchip Technology PIC Macro Assembler V2.46 build 20240104201356 
Symbol Table                                                                                   Sat Feb 07 19:37:08 2026

      __end_of_UART_PrintInt32 0D8F                    _SSPSTATbits 0214                             l25 07FF  
                           l41 1529                             l50 15C0                             l44 1531  
                           l92 15C2                             l94 15DE                             l98 1567  
                          l101 151E                            l111 165A                            l112 166F  
                          l113 166C                            l121 15ED                            l122 1601  
                          l107 1625                            l123 15FF                            l116 1635  
                          l133 17AB                            l117 164A                            l134 1776  
                          l118 1647                            l126 1680                            l127 16A1  
                          l136 17A8                            l128 1693                            l153 1527  
                          l129 169B                            l226 1540                            l322 0904  
                          l315 17FF                            l235 158F                   ?_filter_step 0070  
                          l412 0BC4                            l308 0857                            l260 1553  
                          l325 0C84                            l326 0CB3                            l422 058C  
                          l327 0CE2                            l415 1712                            l263 15A3  
                          l239 175E                            l423 058C                            l328 0CEA  
                          l249 0AC1                            l266 157B                            l290 08AC  
                          l275 0968                            l516 16D4                            l284 09D3  
                          l375 0FFF                            l295 0A47                            l394 053C  
                          l580 0AD4                            l590 0B3C                            l398 0D0A  
                          l567 0BD8                            l399 0D8E                            l577 0C54  
                          _ISR 0004         UART_PrintFixed100@frac 0049                            wreg 0009  
                         ?_ISR 0070                           l2000 160E                           l2004 1610  
                         l2100 176F                           l2020 165E                           l2012 164B  
                         l2006 1618                           l2102 1774                           l2022 1666  
                         l2014 1653                           l2200 15A7                           l2008 1624  
                         l2120 1799                           l2040 1639                           l2032 1626  
                         l2016 1658                           l2202 15B1                           l2130 17AA  
                         l2122 179A                           l2114 1788                           l2106 177A  
                         l2042 1641                           l2034 162E                           l2210 1586  
                         l2204 15B5                           l2300 16AA                           l2124 17A2  
                         l2116 178E                           l2108 1782                           l2036 1633  
                         l2028 166E                           l2060 15F9                           l2052 15DF  
                         l2140 0A51                           l2220 171E                           l2134 1529  
                         l2302 16AE                           l2118 1790                           l2054 15E7  
                         l2206 157C                           l2230 1735                           l2222 1727  
                         l2214 1714                           l2320 0BE7                           l2312 0BC5  
                         l2136 152E                           l2304 16B6                           l2048 1649  
                         l2072 1682                           l2064 1671                           l2160 0A6F  
                         l2152 0A61                           l2144 0A53                           l2400 0979  
                         l2208 157D                           l2240 174B                           l2232 1738  
                         l2224 172A                           l2216 171C                           l2330 0C09  
                         l2322 0BEB                           l2314 0BC7                           l2306 16BD  
                         l2058 15F1                           l2082 1698                           l2074 1685  
                         l2066 1679                           l2170 0A86                           l2162 0A77  
                         l2154 0A6A                           l2146 0A5C                           l2138 0A49  
                         l2410 09A4                           l2402 0984                           l2250 175A  
                         l2242 174E                           l2340 0C2F                           l2332 0C0D  
                         l2324 0BF3                           l2316 0BCB                           l2500 0D41  
                         l2308 16CC                           l2092 1760                           l2084 1699  
                         l2076 168D                           l2068 167E                           l2180 0AA2  
                         l2172 0A89                           l2164 0A7A                           l2156 0A6D  
                         l2148 0A5F                           l2260 156A                           l2412 09AC  
                         l2404 098C                           l2420 09BE                           l2252 175D  
                         l2236 173A                           l2228 172C                           l2342 0C36  
                         l2334 0C14                           l2326 0BFB                           l2318 0BDC  
                         l2502 0D46                           l2270 090B                           l2094 1765  
                         l2182 0AAE                           l2190 0AB7                           l2422 09C7  
                         l2414 09B4                           l2406 0994                           l2430 0858  
                         l2246 1750                           l2238 173C                           l2336 0C26  
                         l2328 0BFE                           l2344 0C3C                           l2360 0AE3  
                         l2352 0AC2                           l2512 0D7D                           l2504 0D62  
                         l2280 0933                           l2272 091F                           l2264 0906  
                         l2088 169C                           l2192 0ABD                           l2184 0AB1  
                         l2176 0A8B                           l2168 0A7C                           l2424 09CC  
                         l2416 09BC                           l2408 099C                           l2256 1592  
                         l2432 085A                           l2248 1754                           l2600 0A1B  
                         l2346 0C41                           l2338 0C2E                           l2530 07FA  
                         l2370 0B0F                           l2362 0AEB                           l2354 0AC3  
                         l2514 0D7F                           l2506 0D73                           l2450 0804  
                         l2274 0923                           l2266 0907                           l2098 1767  
                         l2194 0AC0                           l2178 0A8D                           l2426 09D2  
                         l2442 0879                           l2434 0867                           l2348 0C4C  
                         l2532 07FB                           l2524 07AF                           l2380 0B34  
                         l2372 0B17                           l2364 0AEE                           l2356 0AC7  
                         l2516 0D85                           l2508 0D78                           l2460 17AC  
                         l2452 0809                           l2700 0031                           l2284 0935  
                         l2276 0929                           l2268 0909                           l2188 0AB3  
                         l2436 0872                           l2444 0882                           l2612 0A31  
                         l2620 08B2                           l2534 07FC                           l2526 07F6  
                         l2550 155F                           l2542 1554                           l2198 15A4  
                         l2374 0B1E                           l2366 0AF9                           l2358 0AD8  
                         l2518 0D86                           l2470 0C55                           l2462 17B1  
                         l2454 0812                           l2710 014B                           l2702 011A  
                         l2294 0967                           l2286 094C                           l2278 092E  
                         l2446 08AB                           l2438 0877                           l2630 0DC0  
                         l2614 0A46                           l2606 0A26                           l2622 08BB  
                         l2536 07FD                           l2528 07F9                           l2384 1518  
                         l2544 1559                           l2560 153D                           l2552 1532  
                         l2368 0AFD                           l2376 0B24                           l2480 0CEB  
                         l2472 0C6B                           l2464 17BA                           l2456 081A  
                         l2720 018C                           l2712 015A                           l2704 0128  
                         l2800 16E5                           l2288 0959                           l2392 096B  
                         l2632 0DC2                           l2624 08C3                           l2538 07FE  
                         l2546 155A                           l2562 153E                           l2554 1535  
                         l2378 0B29                           l2482 0CED                           l2474 0C9A  
                         l2298 16A2                           l2466 17C2                           l2730 01C7  
                         l2722 0195                           l2714 0163                           l2706 0131  
                         l2386 151F                           l2810 16EE                           l2802 16E6  
                         l2650 0E4E                           l2642 0DD7                           l2634 0DC8  
                         l2570 09E1                           l2618 08AD                           l2548 155C  
                         l2564 153F                           l2556 1539                           l2484 0CF1  
                         l2492 0D16                           l2476 0CC9                           l2740 0208  
                         l2732 01D7                           l2724 01A6                           l2716 0174  
                         l2708 0142                           l2820 1703                           l2812 16EF  
                         l2804 16E8                           l2388 1542                           l2660 0E72  
                         l2652 0E52                           l2636 0DD4                           l2628 0D8F  
                         l2580 09EE                           l2900 068D                           l2558 153C  
                         l2494 0D1E                           l2486 0CF8                           l2750 0242  
                         l2742 0211                           l2734 01E0                           l2726 01AF  
                         l2718 017D                           l2822 1707                           l2814 16F4  
                         l2806 16E9                           l2398 096C                           l2670 0F52  
                         l2654 0E5B                           l2646 0DE4                           l2574 09E3  
                         l2566 09D4                           l2902 0696                           l2488 0D02  
                         l2760 0319                           l2752 026D                           l2744 0220  
                         l2736 01EF                           l2728 01BE                           l2824 170C  
                         l2816 16F9                           l2808 16EC                           l2680 0F7B  
                         l2672 0F5B                           l2664 0E74                           l2656 0E60  
                         l2648 0DED                           l2568 09D6                           l2920 06DB  
                         l2912 06A7                           l2498 0D26                           l2770 0B3D  
                         l2762 03D5                           l2754 0298                           l2746 0229  
                         l2738 01F8                           l2826 170F                           l2818 16FE  
                         l2690 0F88                           l2682 0F84                           l2674 0F63  
                         l2666 0F43                           l2658 0E69                           l2594 0A0F  
                         l2586 09FA                           l2930 0716                           l2922 06E2  
                         l2914 06AB                           l2906 069A                           l2850 0552  
                         l2780 0B7C                           l2772 0B42                           l2764 03DB  
                         l2756 02C3                           l2748 0239                           l2828 1711  
                         l1980 15C1                           l2692 0FF4                           l2684 0F86  
                         l2676 0F6B                           l2668 0F49                           l2588 0A03  
                         l2940 075D                           l2932 0729                           l2924 06F5  
                         l2916 06B7                           l2908 069D                           l2860 0576  
                         l2852 0559                           l2782 0B83                           l2774 0B49  
                         l2766 043B                           l2758 02EE                           l2790 16D5  
                         l1990 15DD                           l1982 15C7                           l2694 0FF8  
                         l2678 0F73                           l2950 079C                           l2942 0764  
                         l2934 0730                           l2926 06FC                           l2918 06D2  
                         l2870 05AA                           l2862 057E                           l2854 0560  
                         l2784 0BA0                           l2776 0B55                           l2768 043F  
                         l2792 16D8                           l2696 0FFE                           l2944 0777  
                         l2936 0743                           l2928 070F                           l2952 07A3  
                         l2880 0612                           l2872 05BD                           l2864 058D  
                         l2856 0567                           l2848 053D                           l2786 0BB1  
                         l2778 0B71                           l2794 16E0                           l1986 15C9  
                         l1994 1602                           l2946 077E                           l2938 074A  
                         l2890 0665                           l2882 062C                           l2874 05D7  
                         l2866 0594                           l2858 056E                           l2788 0BB8  
                         l2796 16E2                           l1988 15D1                           l1996 1603  
                         l2948 0795                           l2892 0668                           l2884 0633  
                         l2876 05DE                           l2868 059C                           l2798 16E4  
                         l1998 160A                           l2894 0675                           l2878 05FF  
                         l2886 064E                           l2896 0683                           l2888 065C  
                         l2898 068A                           STR_1 1994                           STR_2 1970  
                         STR_3 1998                           STR_4 1994                           STR_5 1996  
                         STR_6 1998                           STR_7 18C7                           STR_8 18A9  
                         STR_9 1889                           _BRGH 0CF2                           _CREN 0CEC  
                         u2000 0C3C                           u2001 0C3B                           u2010 0C41  
                         u2011 0C40                           u2100 0B29                           u2020 0AC7  
                         u2101 0B28                           u2021 0AC6                           u2030 0AD8  
                         u2110 1552                           u2031 0AD7                           u2111 1550  
                         u2040 0AEB                           u2200 17B1                           u2120 1553  
                         u2041 0AEA                           u2201 17B0                           u2210 0C6B  
                         u2130 0979                           u2211 0C6A                           u2131 0978  
                         u2300 07D4                           u2060 0AFD                           u2220 0C9A  
                         u1500 1633                           u2140 0984                           u2061 0AFC  
                         u2221 0C99                           u2213 0C67                           u1501 1632  
                         u2141 0983                           u2070 0B0F                           u2230 0CC9  
                         u1430 15C7                           u1510 1646                           u2150 09D2  
                         u2310 09E1                           u2071 0B0E                           u2055 0AEF  
                         u2231 0CC8                           u2223 0C96                           u1431 15C6  
                         u1511 1645                           u2151 09D1                           u2311 09E0  
                         u2240 0CF1                           u1440 15DD                           u1600 1797  
                         u1520 15EC                           u2160 0872                           u2400 0DED  
                         u2320 09ED                           u2305 07D0                           u2241 0CF0  
                         u2233 0CC5                           u1441 15DC                           u1601 1794  
                         u1521 15EB                           u2161 0871                           u2401 0DEC  
                         u2321 09EC                           u2090 0B24                           u2250 0D02  
                         u1450 160A                           u1530 15FE                           u2170 0877  
                         u2410 0E69                           u2330 09F9                           u2091 0B23  
                         u2075 0B0B                           u2251 0D01                           u1451 1609  
                         u1531 15FD                           u2171 0876                           u2411 0E68  
                         u2331 09F8                           u2260 0D1E                           u2500 0128  
                         u1460 160E                           u1620 17A7                           u1540 167E  
                         u1700 0AA1                           u2180 08AB                           u2420 0E72  
                         u2340 0A0E                           u2085 0B18                           u2261 0D1D  
                         u2501 0127                           u1461 160D                           u1621 17A6  
                         u1541 167D                           u2181 08AA                           u2421 0E71  
                         u2341 0A0D                           u1630 152E                           u2270 0D73  
                         u2190 0809                           u2510 0142                           u1470 1624  
                         u1614 1799                           u1550 1692                           u1710 0AAE  
                         u2350 0A1A                           u1631 152D                           u2271 0D72  
                         u2191 0808                           u2511 0141                           u1471 1623  
                         u1551 1691                           u1711 0AAD                           u2351 0A19  
                         u2280 0D7C                           u2600 0220                           u2520 015A  
                         u1480 1658                           u1560 1698                           u1720 0ABD  
                         u1640 0A51                           u1800 15A3                           u2360 0A25  
                         u2281 0D7B                           u2601 021F                           u2521 0159  
                         u1481 1657                           u1561 1697                           u1721 0ABC  
                         u1641 0A50                           u2185 08A7                           u2361 0A24  
             i2c_write_bytes@i 007A                           u2290 07BD                           u1730 15C0  
                         u2610 0239                           u2530 0174                           u1570 1765  
                         u1490 166B                           u1650 0A5C                           u1810 157A  
                         u2370 0A30                           u1731 15BF                           u2611 0238  
                         u2531 0173                           u1571 1764                           u1491 166A  
                         u1651 0A5B                           u1811 1578                           u2435 0F8B  
                         u2371 0A2F                           u2700 0BB1                           u2620 03DB  
                         u2540 018C                           u1580 1774                           u1660 0A6A  
                         u1820 157B                           u1740 171C                           u2380 08B2  
                         u2701 0BB0                           u2621 03DA                           u2541 018B  
                         u1581 1773                           u1661 0A69                           u1741 171B  
                         u2445 0F9D                           u2381 08B1                           u1910 16CC  
                         u2630 0458                           u2550 01A6                           u1830 0929  
                         u1590 1787                           u1670 0A77                           u1750 1727  
                         u2390 0DE3                           u2295 07B9                           u1911 16CB  
                         u2551 01A5                           u1831 0928                           u1591 1786  
                         u1671 0A76                           u1751 1726                           u2455 0FAF  
                         u2391 0DE2                           u1920 0BCB                           u2640 0482  
                         u2560 01BE                           u1840 092E                           u1680 0A86  
                         u1760 1735                           u1921 0BCA                           u1905 16BE  
                         u2561 01BD                           u1841 092D                           u1681 0A85  
                         u1761 1734                           u2465 0FC1                           u1930 0BDC  
                         u2650 04AC                           u2570 01D7                           u1850 0933  
                         u1690 0AA0                           u1770 174B                           u2490 0FFE  
                         u2730 0576                           u1931 0BDB                           u2635 0454  
                         u2571 01D6                           u1851 0932                           u1691 0A9E  
                         u1771 174A                           u2491 0FFD                           u2475 0FD3  
                         u2731 0575                           u1940 0BFB                           u2660 04D6  
                         u2580 01EF                           u1860 0959                           u1780 175A  
                         u2740 059C                           u1941 0BFA                           u2645 047E  
                         u2581 01EE                           u1861 0958                           u1781 1759  
                         u2485 0FE5                           u2741 059B                           u2670 0500  
                         u2590 0208                           u1870 0966                           u1790 15A2  
                         u2750 0675                           u2655 04A8                           u2591 0207  
                         u1871 0965                           u1695 0A9B                           u1791 15A0  
                         u2807 07A7                           u2751 0674                           u1960 0C0D  
                         u1880 16AE                           u2680 052B                           u2760 0683  
                         u1961 0C0C                           u1881 16AD                           u2665 04D2  
                         u1865 0955                           u2817 09FE                           u2761 0682  
                         u2690 0B42                           u2770 06A6                           u1955 0BFF  
                         u2907 1562                           u2691 0B41                           u2675 04FC  
                         u1875 0962                           u2827 0DCE                           u2771 06A5  
                         u1980 0C26                           u2780 06D2                           u1981 0C25  
                         u2685 0527                           u2837 0E56                           u2781 06D1  
                         u1975 0C0E                           u1895 16B7                           u2847 0F4D  
                         u1985 0C22                           u2857 087D                           u1995 0C30  
                         u2867 09C2                           u2877 1613                           u2797 0691  
                         u2887 15CC                           u2897 16DB                           _SCS0 04C8  
                         _SCS1 04C9                           _TMR0 0015                           _SPEN 0CEF  
                         _TXEN 0CF5                           _SYNC 0CF4                           _main 053D  
                         _s_ax 00B0                           _s_ay 00AC                           _s_az 00A8  
                         _s_gx 00A4                           _s_gy 00A0                           _s_gz 0150  
             __end_of_I2C_Init 1568                           fsr0h 0005                           fsr1h 0007  
                         indf0 0000                           fsr0l 0004                           indf1 0001  
                         fsr1l 0006                           btemp 007E               __end_of_I2C_Stop 1602  
                         start 0019                          ??_ISR 0070                  ?_EUSART_Write 0070  
              __end_of___aldiv 0C55                __end_of___almod 0B3D                          ?_main 0070  
                        STR_10 1848                          STR_11 1935                          STR_20 1956  
                        STR_12 18E1                          STR_21 198C                          STR_13 1826  
                        STR_22 1990                          STR_30 1947                          STR_14 1869  
                        STR_23 1821                          STR_31 198C                          STR_15 1922  
                        STR_32 1990                          STR_16 1964                          STR_24 18F8  
                        _BRG16 0CFB                          STR_17 198C                          STR_33 1986  
                        STR_25 1800                          STR_34 199A                          STR_18 1990  
                        STR_26 190D                          STR_35 1823                          STR_19 1823  
                        STR_27 197B                          STR_28 198C                          STR_29 1990  
                        _IRCF0 04CB                          _IRCF1 04CC                          _IRCF2 04CD  
                        _IRCF3 04CE                          i1l232 0017            ___lmul@multiplicand 0074  
                 _I2C_ReadByte 175F                __end_of_median3 0CEB                 _i2c_read_bytes 0A48  
                        main@r 00E1              __end_of_I2C_Start 1670                   _I2C_WaitIdle 1602  
         I2C_WaitIF@timeout_ms 0070                          status 0003                          wtemp0 007E  
                 ?_internal_32 0070                __initialization 001B                   __end_of_main 07AF  
               ??_EUSART_Write 0070               ?_UART_PrintInt32 002E             _UART_PrintFixed100 0B3D  
                       ??_main 00D3                   filter_step@r 006F            I2C_RepeatedStart@st 0073  
       __end_of_i2c_read_bytes 0AC2                   median3@t_645 0024                   median3@t_646 0028  
          ?_UART_PrintFixed100 0041  mpu_wait_data_ready@timeout_ms 0022                   ?_raw_to_mdps 002E  
                 ??_I2C_WaitIF 0072                         _RC1REG 0199                         i1l2842 0006  
                       i1l2844 000A                         i1l2846 000D             i2c_write_bytes@len 0077  
           i2c_write_bytes@reg 0075                         u272_20 000A                         u272_21 0009  
           i2c_write_bytes@src 0076                         _SPBRGL 019B                         _TX1REG 019A  
                       _SPLLEN 04CF                         _SSPADD 0212                         _SSPBUF 0211  
         ??_UART_PrintFixed100 007E          __end_of_mpu_calibrate 1000              __end_of_TMR0_Init 1541  
                       ___lmul 16A2                      ??___aldiv 007C                      ??___almod 0078  
             __end_of_initMain 1713                         _millis 157C             __end_of_I2C_WaitIF 15DF  
               mpu_calibrate@i 0054                 mpu_calibrate@r 0059                      ??_median3 007C  
             __end_of_mpu_init 0A48                      ?_I2C_Init 0070              ??_i2c_write_bytes 0078  
                    ?_I2C_Stop 0070                ?_i2c_read_bytes 0076                I2C_WriteByte@st 0074  
      __end_of__initialization 002B       mpu_wait_data_ready@start 002C                filter_step@ax_m 003F  
              filter_step@ay_m 0043                filter_step@az_m 0047                filter_step@gx_m 004B  
              filter_step@gy_m 004F                filter_step@gz_m 0053                 __pcstackCOMMON 0070  
                _I2C_WriteByte 1670                     ??_I2C_Init 0070                 _OPTION_REGbits 0095  
                   ??_I2C_Stop 0073            mpu_read_raw@attempt 0032                     __pbssBANK1 00A0  
                   __pbssBANK2 0120           __end_of_EUSART_Write 1532            _mpu_wait_data_ready 0858  
                filter_step@ax 0057                  filter_step@ay 005B                  filter_step@az 005F  
                filter_step@gx 0063                  filter_step@gy 0067                  filter_step@gz 006B  
        __end_of_mpu_write_reg 1554                     __pmaintext 053D                 ?_I2C_WriteByte 0070  
                      ?___lmul 0070                     __pintentry 0004           ?_mpu_wait_data_ready 0022  
               ___lmul@product 0078                        ?_millis 0070                     I2C_Stop@st 0073  
               I2C_ReadByte@st 0075                        _PPSLOCK 0E0F                        _SSPCON2 0216  
       I2C_WaitIdle@timeout_ms 0070                      ?_initMain 0070                      _I2C_Start 164B  
                ?_mpu_read_reg 0020                  ?_mpu_read_raw 0070               I2C_ReadByte@data 0074  
                    ?_mpu_init 0070                        ___aldiv 0BC5                        ___almod 0AC2  
            ??_I2C_ClearErrors 0070          ??_mpu_wait_data_ready 0024                 _mpu_frame_sane 0905  
                      __ptext1 08AD                        __ptext2 09D4                        __ptext3 0D8F  
                      __ptext4 1541                        __ptext5 1713                        __ptext6 0858  
                      __ptext7 1590                        __ptext8 157C                        __ptext9 0969  
                      _ax_hist 0148                        _ay_hist 0140                        _az_hist 0138  
                      _median3 0C55                    mpu_init@who 0023                        _gx_hist 0130  
                      _gy_hist 0128                        _gz_hist 0120               ___aldiv@dividend 0024  
                      clrloop0 1513                        main@now 00DD           end_of_initialization 002B  
            __end_of_raw_to_mg 0858                     ??_initMain 0070                 _mpu_read_multi 1568  
                   ?_I2C_Start 0070                temp_to_c_x100@t 002E                 ??_mpu_read_reg 007E  
               ??_mpu_read_raw 0023              _EUSART_Initialize 07AF                ??_I2C_WriteByte 0073  
                   ??_mpu_init 0022             ?_EUSART_Initialize 002E               ___aldiv@quotient 002A  
              _i2c_write_bytes 1713         __end_of_mpu_frame_sane 0969             EUSART_Initialize@x 003E  
             ??_i2c_read_bytes 0079            ??_EUSART_Initialize 0032                      _TMR0_Init 1532  
              _raw_to_mdps$636 0036                i2c_read_bytes@i 007D             _temp_to_c_x100$639 0036  
                    _TRISBbits 008D                      _TRISCbits 008E                      _RXPPSbits 0E24  
       __end_of_mpu_read_multi 157C          UART_PrintFixed100@val 0041      __end_of_EUSART_Initialize 0800  
           mpu_calibrate@i_687 0058                ?_mpu_frame_sane 0070                 __end_of___lmul 16D5  
                 _EUSART_Write 1528                     ?_TMR0_Init 0070                  ??_filter_step 003A  
               __end_of_millis 1590            start_initialization 001B                    __end_of_ISR 0019  
              ?_mpu_read_multi 0020             _filter_initialized 00D2        __end_of_i2c_write_bytes 175F  
            _EUSART_Write_Text 15A4                    ??_I2C_Start 0073                 _temp_to_c_x100 08AD  
           ?_EUSART_Write_Text 0071                       ??___lmul 0078              mpu_read_multi@buf 0020  
            mpu_read_multi@len 0021              _I2C_RepeatedStart 1626              mpu_read_multi@reg 0022  
                _raw_to_mg$633 0036            ??_EUSART_Write_Text 0073                       ??_millis 0074  
           ?_I2C_RepeatedStart 0070           __end_of_mpu_read_reg 15A4           __end_of_mpu_read_raw 09D4  
                    ___latbits 0003                  __pcstackBANK0 0020                  __pcstackBANK1 00D3  
                ?_I2C_ReadByte 0073            ??_I2C_RepeatedStart 0073            __end_of_filter_step 053D  
                  _g_ax_off_mg 00C8                    _g_ay_off_mg 00C4                    _g_az_off_mg 00C0  
    __end_of_EUSART_Write_Text 15C1                  ?_I2C_WaitIdle 0070              ??_UART_PrintInt32 007D  
              _I2C_ClearErrors 1518         __end_of_temp_to_c_x100 0905                  ??_internal_32 0070  
        mpu_wait_data_ready@st 0030                  _g_gx_off_mdps 00BC      __end_of_I2C_RepeatedStart 164B  
                _mpu_calibrate 0D8F                       ?___aldiv 0020                       ?___almod 0070  
                _g_gy_off_mdps 00B8      EUSART_Initialize@baudrate 002E                    ??_TMR0_Init 0070  
                _g_gz_off_mdps 00B4               ___almod@dividend 0074           UART_PrintInt32@F6188 00D0  
                   raw_to_mg@r 002E                       ?_median3 0070                    I2C_Start@st 0073  
                     _I2C_Init 1554                       _I2C_Stop 15DF                 ??_I2C_ReadByte 0074  
              I2C_ReadByte@ack 0073                  ??_raw_to_mdps 0032                 ??_I2C_WaitIdle 0072  
              ___aldiv@divisor 0020                ___aldiv@counter 0028           i2c_write_bytes@addr7 0079  
              ?_temp_to_c_x100 002E                  mpu_read_raw@b 0024               ?_i2c_write_bytes 0075  
                mpu_read_raw@o 0033                      clear_ram0 1512        _UART_PrintFixed100$1339 0045  
                    _raw_to_mg 0804    __end_of_mpu_wait_data_ready 08AD               UART_PrintInt32@c 003E  
             UART_PrintInt32@i 0040                       _PIR1bits 0011                       _PIR2bits 0012  
               ?_mpu_calibrate 0070            __end_of_internal_32 1528                mpu_frame_sane@b 007B  
              mpu_frame_sane@i 007A                    _filter_step 002F                   raw_to_mdps@r 002E  
            mpu_calibrate@good 0056                main@read_errors 00DB        __end_of_I2C_ClearErrors 151F  
            ___lmul@multiplier 0070                     _I2C_WaitIF 15C1            __end_of_raw_to_mdps 1800  
                _mpu_write_reg 1541                     ?_raw_to_mg 002E               ??_mpu_frame_sane 0071  
        __end_of_I2C_WriteByte 16A2                      millis@val 0074                     _ANSELBbits 018D  
                   _ANSELCbits 018E               ??_mpu_read_multi 007E                       __ptext10 1568  
                     __ptext11 0A48               mpu_write_reg@reg 007C                       __ptext20 16D5  
                     __ptext12 1670                       __ptext21 151F                       __ptext13 15DF  
                     __ptext30 15A4                       __ptext22 002F                       __ptext14 164B  
                     __ptext31 1528                       __ptext23 0804                       __ptext15 1626  
                     __ptext32 1532                       __ptext24 17AC                       __ptext16 175F  
                     __ptext33 1554                       __ptext25 16A2                       __ptext17 1602  
                     __ptext34 1518                       __ptext26 0C55                       __ptext18 15C1  
                     __ptext35 07AF                       __ptext27 0B3D                       __ptext19 0905  
                     __ptext36 0BC5                       __ptext28 0CEB                       __ptext29 0AC2  
             mpu_write_reg@val 007B                ___almod@divisor 0070                ___almod@counter 0079  
                     _initMain 16D5                  _SSPDATPPSbits 0E21                 ?_mpu_write_reg 007B  
   __end_of_UART_PrintFixed100 0BC5                    _internal_32 151F                ??_mpu_calibrate 003A  
                   _RB2PPSbits 0E9A                   _mpu_read_reg 1590                   _mpu_read_raw 0969  
         __end_of_I2C_ReadByte 17AC                     _RC1STAbits 019D                       _mpu_init 09D4  
                   _RC4PPSbits 0EA4                  _SSPCLKPPSbits 0E20                       int$flags 007E  
                   _RC5PPSbits 0EA5           __end_of_I2C_WaitIdle 1626               mpu_calibrate@sax 003C  
             mpu_calibrate@say 0040               mpu_calibrate@saz 0044               mpu_calibrate@sgx 0048  
             mpu_calibrate@sgy 004C               mpu_calibrate@sgz 0050                 _millis_counter 00CC  
                     median3@a 0070                       median3@b 0074                       median3@c 0078  
                     median3@t 0020                mpu_read_reg@reg 0021                mpu_read_reg@val 0020  
              _UART_PrintInt32 0CEB                     _INTCONbits 000B                 __pstringtext10 190D  
               __pstringtext11 1922                 __pstringtext20 1990                 __pstringtext12 1935  
               __pstringtext21 1994                 __pstringtext13 1947                 __pstringtext22 1996  
               __pstringtext14 1956                 __pstringtext23 1998                 __pstringtext15 1964  
               __pstringtext24 199A                 __pstringtext16 1970                 __pstringtext25 0000  
               __pstringtext17 197B                 __pstringtext18 1986                 __pstringtext19 198C  
             ?_I2C_ClearErrors 0070                    _raw_to_mdps 17AC                    ?_I2C_WaitIF 0070  
                     intlevel1 0000                    _PPSLOCKbits 0E0F                    ??_raw_to_mg 0032  
           UART_PrintInt32@buf 0032             UART_PrintInt32@val 002E            i2c_read_bytes@addr7 007C  
                __pstringtext1 1800                  __pstringtext2 1826                  __pstringtext3 1848  
                __pstringtext4 1869                  __pstringtext5 1889                  __pstringtext6 18A9  
                __pstringtext7 18C7                  __pstringtext8 18E1                  __pstringtext9 18F8  
        EUSART_Write_Text@text 0071                   ___aldiv@sign 0029                    _SSPCON1bits 0215  
                  _SSPCON2bits 0216               ??_temp_to_c_x100 0032             mpu_frame_sane@andv 0077  
           EUSART_Write@txData 0070             mpu_frame_sane@traw 0078                ??_mpu_write_reg 007C  
                 ___almod@sign 007A              i2c_read_bytes@ack 007B              mpu_frame_sane@len 0070  
            i2c_read_bytes@len 0078              i2c_read_bytes@dst 0077              i2c_read_bytes@reg 0076  
            mpu_frame_sane@orv 0076              I2C_WriteByte@data 0073                     _SSPCONbits 0215  
            main@last_print_ms 00D7             EUSART_Write_Text@i 0074  
