

Microchip MPLAB XC8 Assembler V2.46 build 20240104201356 
                                                                                               Fri Dec 26 02:37:42 2025

Microchip MPLAB XC8 C Compiler v2.46 (Free license) build 20240104201356 Og1 
     1                           	processor	16F1718
     2                           	pagewidth 120
     3                           	opt	flic
     4                           	psect	stringtext1,global,class=STRCODE,delta=2,noexec
     5                           	psect	stringtext2,global,class=STRCODE,delta=2,noexec
     6                           	psect	stringtext3,global,class=STRCODE,delta=2,noexec
     7                           	psect	cinit,global,class=CODE,merge=1,delta=2
     8                           	psect	clrtext,global,class=CODE,delta=2
     9                           	psect	cstackBANK1,global,class=BANK1,space=1,delta=1,noexec
    10                           	psect	cstackCOMMON,global,class=COMMON,space=1,delta=1,noexec
    11                           	psect	cstackBANK0,global,class=BANK0,space=1,delta=1,noexec
    12                           	psect	maintext,global,class=CODE,merge=1,split=1,delta=2
    13                           	psect	text1,local,class=CODE,merge=1,delta=2
    14                           	psect	text2,local,class=CODE,merge=1,delta=2
    15                           	psect	text3,local,class=CODE,merge=1,delta=2
    16                           	psect	text4,local,class=CODE,merge=1,delta=2,group=1
    17                           	psect	text5,local,class=CODE,merge=1,delta=2
    18                           	psect	text6,local,class=CODE,merge=1,delta=2
    19                           	psect	text7,local,class=CODE,merge=1,delta=2,group=2
    20                           	psect	text8,local,class=CODE,merge=1,delta=2,group=2
    21                           	psect	text9,local,class=CODE,merge=1,delta=2,group=2
    22                           	psect	text10,local,class=CODE,merge=1,delta=2,group=1
    23                           	psect	text11,local,class=CODE,merge=1,delta=2,group=1
    24                           	psect	text12,local,class=CODE,merge=1,delta=2,group=1
    25                           	psect	text13,local,class=CODE,merge=1,delta=2,group=1
    26                           	psect	text14,local,class=CODE,merge=1,delta=2,group=1
    27                           	psect	text15,local,class=CODE,merge=1,delta=2,group=1
    28                           	psect	text16,local,class=CODE,merge=1,delta=2,group=1
    29                           	psect	text17,local,class=CODE,merge=1,delta=2
    30                           	psect	text18,local,class=CODE,merge=1,delta=2
    31                           	psect	text19,local,class=CODE,merge=1,delta=2
    32                           	psect	text20,local,class=CODE,merge=1,delta=2,group=2
    33                           	psect	text21,local,class=CODE,merge=1,delta=2
    34                           	psect	text22,local,class=CODE,merge=1,delta=2
    35                           	psect	text23,local,class=CODE,merge=1,delta=2
    36                           	psect	text24,local,class=CODE,merge=1,delta=2
    37                           	psect	text25,local,class=CODE,merge=1,delta=2
    38                           	psect	text26,local,class=CODE,merge=1,delta=2
    39                           	psect	text27,local,class=CODE,merge=1,delta=2
    40                           	psect	text28,local,class=CODE,merge=1,delta=2
    41                           	psect	text29,local,class=CODE,merge=1,delta=2
    42                           	psect	text30,local,class=CODE,merge=1,delta=2
    43                           	psect	text31,local,class=CODE,merge=1,delta=2
    44                           	psect	text32,local,class=CODE,merge=1,delta=2
    45                           	psect	text33,local,class=CODE,merge=1,delta=2,group=1
    46                           	psect	text34,local,class=CODE,merge=1,delta=2
    47                           	psect	config,global,abs,ovrld,class=CONFIG,space=4,delta=2,noexec
    48                           	dabs	1,0xCA0,32
    49                           	dabs	1,0xC20,80
    50                           	dabs	1,0xBA0,80
    51                           	dabs	1,0xB30,64
    52                           	dabs	1,0xB20,16
    53                           	dabs	1,0xAA0,80
    54                           	dabs	1,0xA20,80
    55                           	dabs	1,0x9A0,80
    56                           	dabs	1,0x920,80
    57                           	dabs	1,0x8A0,80
    58                           	dabs	1,0x820,80
    59                           	dabs	1,0x7E0,16
    60                           	dabs	1,0x24F0,0,_screen_buffer
    61                           	dabs	1,0x26F0,0,OLED_Printf_Line@last_text
    62                           	dabs	1,0x7E,2
    63     0000                     
    64                           ; Generated 07/09/2023 GMT
    65                           ; 
    66                           ; Copyright © 2023, Microchip Technology Inc. and its subsidiaries ("Microchip")
    67                           ; All rights reserved.
    68                           ; 
    69                           ; This software is developed by Microchip Technology Inc. and its subsidiaries ("Microch
      +                          ip").
    70                           ; 
    71                           ; Redistribution and use in source and binary forms, with or without modification, are
    72                           ; permitted provided that the following conditions are met:
    73                           ; 
    74                           ;     1. Redistributions of source code must retain the above copyright notice, this lis
      +                          t of
    75                           ;        conditions and the following disclaimer.
    76                           ; 
    77                           ;     2. Redistributions in binary form must reproduce the above copyright notice, this 
      +                          list
    78                           ;        of conditions and the following disclaimer in the documentation and/or other
    79                           ;        materials provided with the distribution. Publication is not required when
    80                           ;        this file is used in an embedded application.
    81                           ; 
    82                           ;     3. Microchip's name may not be used to endorse or promote products derived from th
      +                          is
    83                           ;        software without specific prior written permission.
    84                           ; 
    85                           ; THIS SOFTWARE IS PROVIDED BY MICROCHIP "AS IS" AND ANY EXPRESS OR IMPLIED WARRANTIES,
    86                           ; INCLUDING, BUT NOT LIMITED TO, THE IMPLIED WARRANTIES OF MERCHANTABILITY AND FITNESS F
      +                          OR
    87                           ; PURPOSE ARE DISCLAIMED.  IN NO EVENT SHALL MICROCHIP BE LIABLE FOR ANY DIRECT, INDIREC
      +                          T,
    88                           ; INCIDENTAL, SPECIAL, EXEMPLARY, OR CONSEQUENTIAL DAMAGES (INCLUDING BUT NOT LIMITED TO
    89                           ; PROCUREMENT OF SUBSTITUTE GOODS OR SERVICES; LOSS OF USE, DATA OR PROFITS; OR BUSINESS
    90                           ; INTERRUPTION) HOWSOEVER CAUSED AND ON ANY THEORY OF LIABILITY, WHETHER IN CONTRACT, ST
      +                          RICT
    91                           ; LIABILITY, OR TORT (INCLUDING NEGLIGENCE OR OTHERWISE) ARISING IN ANY WAY OUT OF THE U
      +                          SE OF
    92                           ; THIS SOFTWARE, EVEN IF ADVISED OF THE POSSIBILITY OF SUCH DAMAGE.
    93                           ; 
    94                           ; 
    95                           ; Code-generator required, PIC16F1718 Definitions
    96                           ; 
    97                           ; SFR Addresses
    98     0000                     	;# 
    99     0001                     	;# 
   100     0002                     	;# 
   101     0003                     	;# 
   102     0004                     	;# 
   103     0005                     	;# 
   104     0006                     	;# 
   105     0007                     	;# 
   106     0008                     	;# 
   107     0009                     	;# 
   108     000A                     	;# 
   109     000B                     	;# 
   110     000C                     	;# 
   111     000D                     	;# 
   112     000E                     	;# 
   113     0010                     	;# 
   114     0011                     	;# 
   115     0012                     	;# 
   116     0013                     	;# 
   117     0015                     	;# 
   118     0016                     	;# 
   119     0016                     	;# 
   120     0017                     	;# 
   121     0018                     	;# 
   122     0019                     	;# 
   123     001A                     	;# 
   124     001B                     	;# 
   125     001C                     	;# 
   126     008C                     	;# 
   127     008D                     	;# 
   128     008E                     	;# 
   129     0090                     	;# 
   130     0091                     	;# 
   131     0092                     	;# 
   132     0093                     	;# 
   133     0095                     	;# 
   134     0096                     	;# 
   135     0097                     	;# 
   136     0098                     	;# 
   137     0099                     	;# 
   138     009A                     	;# 
   139     009B                     	;# 
   140     009B                     	;# 
   141     009C                     	;# 
   142     009D                     	;# 
   143     009E                     	;# 
   144     009F                     	;# 
   145     010C                     	;# 
   146     010D                     	;# 
   147     010E                     	;# 
   148     0111                     	;# 
   149     0112                     	;# 
   150     0113                     	;# 
   151     0114                     	;# 
   152     0115                     	;# 
   153     0116                     	;# 
   154     0117                     	;# 
   155     0118                     	;# 
   156     0119                     	;# 
   157     011A                     	;# 
   158     011B                     	;# 
   159     011B                     	;# 
   160     011C                     	;# 
   161     018C                     	;# 
   162     018D                     	;# 
   163     018E                     	;# 
   164     0191                     	;# 
   165     0191                     	;# 
   166     0192                     	;# 
   167     0193                     	;# 
   168     0193                     	;# 
   169     0194                     	;# 
   170     0195                     	;# 
   171     0196                     	;# 
   172     0197                     	;# 
   173     0199                     	;# 
   174     0199                     	;# 
   175     0199                     	;# 
   176     019A                     	;# 
   177     019A                     	;# 
   178     019A                     	;# 
   179     019B                     	;# 
   180     019B                     	;# 
   181     019B                     	;# 
   182     019B                     	;# 
   183     019B                     	;# 
   184     019C                     	;# 
   185     019C                     	;# 
   186     019C                     	;# 
   187     019D                     	;# 
   188     019D                     	;# 
   189     019D                     	;# 
   190     019E                     	;# 
   191     019E                     	;# 
   192     019E                     	;# 
   193     019F                     	;# 
   194     019F                     	;# 
   195     019F                     	;# 
   196     019F                     	;# 
   197     019F                     	;# 
   198     020C                     	;# 
   199     020D                     	;# 
   200     020E                     	;# 
   201     0210                     	;# 
   202     0211                     	;# 
   203     0211                     	;# 
   204     0212                     	;# 
   205     0212                     	;# 
   206     0213                     	;# 
   207     0213                     	;# 
   208     0214                     	;# 
   209     0214                     	;# 
   210     0215                     	;# 
   211     0215                     	;# 
   212     0215                     	;# 
   213     0215                     	;# 
   214     0216                     	;# 
   215     0216                     	;# 
   216     0217                     	;# 
   217     0217                     	;# 
   218     028C                     	;# 
   219     028D                     	;# 
   220     028E                     	;# 
   221     0291                     	;# 
   222     0291                     	;# 
   223     0292                     	;# 
   224     0293                     	;# 
   225     0293                     	;# 
   226     0298                     	;# 
   227     0298                     	;# 
   228     0299                     	;# 
   229     029A                     	;# 
   230     029A                     	;# 
   231     029E                     	;# 
   232     030C                     	;# 
   233     030D                     	;# 
   234     030E                     	;# 
   235     038C                     	;# 
   236     038D                     	;# 
   237     038E                     	;# 
   238     0390                     	;# 
   239     0391                     	;# 
   240     0392                     	;# 
   241     0393                     	;# 
   242     0394                     	;# 
   243     0395                     	;# 
   244     0396                     	;# 
   245     0397                     	;# 
   246     0398                     	;# 
   247     0399                     	;# 
   248     039D                     	;# 
   249     039E                     	;# 
   250     039F                     	;# 
   251     0415                     	;# 
   252     0416                     	;# 
   253     0417                     	;# 
   254     041C                     	;# 
   255     041D                     	;# 
   256     041E                     	;# 
   257     0498                     	;# 
   258     0498                     	;# 
   259     0499                     	;# 
   260     049A                     	;# 
   261     049B                     	;# 
   262     049B                     	;# 
   263     049C                     	;# 
   264     049D                     	;# 
   265     049E                     	;# 
   266     049F                     	;# 
   267     0511                     	;# 
   268     0515                     	;# 
   269     0617                     	;# 
   270     0618                     	;# 
   271     0619                     	;# 
   272     0619                     	;# 
   273     061A                     	;# 
   274     061B                     	;# 
   275     061C                     	;# 
   276     061C                     	;# 
   277     0691                     	;# 
   278     0692                     	;# 
   279     0693                     	;# 
   280     0694                     	;# 
   281     0695                     	;# 
   282     0696                     	;# 
   283     0697                     	;# 
   284     0698                     	;# 
   285     0699                     	;# 
   286     069A                     	;# 
   287     069B                     	;# 
   288     069C                     	;# 
   289     069D                     	;# 
   290     069E                     	;# 
   291     069F                     	;# 
   292     0E0F                     	;# 
   293     0E10                     	;# 
   294     0E11                     	;# 
   295     0E12                     	;# 
   296     0E13                     	;# 
   297     0E14                     	;# 
   298     0E15                     	;# 
   299     0E17                     	;# 
   300     0E20                     	;# 
   301     0E21                     	;# 
   302     0E22                     	;# 
   303     0E24                     	;# 
   304     0E25                     	;# 
   305     0E28                     	;# 
   306     0E29                     	;# 
   307     0E2A                     	;# 
   308     0E2B                     	;# 
   309     0E90                     	;# 
   310     0E91                     	;# 
   311     0E92                     	;# 
   312     0E93                     	;# 
   313     0E94                     	;# 
   314     0E95                     	;# 
   315     0E96                     	;# 
   316     0E97                     	;# 
   317     0E98                     	;# 
   318     0E99                     	;# 
   319     0E9A                     	;# 
   320     0E9B                     	;# 
   321     0E9C                     	;# 
   322     0E9D                     	;# 
   323     0E9E                     	;# 
   324     0E9F                     	;# 
   325     0EA0                     	;# 
   326     0EA1                     	;# 
   327     0EA2                     	;# 
   328     0EA3                     	;# 
   329     0EA4                     	;# 
   330     0EA5                     	;# 
   331     0EA6                     	;# 
   332     0EA7                     	;# 
   333     0F0F                     	;# 
   334     0F10                     	;# 
   335     0F11                     	;# 
   336     0F12                     	;# 
   337     0F13                     	;# 
   338     0F14                     	;# 
   339     0F15                     	;# 
   340     0F16                     	;# 
   341     0F17                     	;# 
   342     0F18                     	;# 
   343     0F19                     	;# 
   344     0F1A                     	;# 
   345     0F1B                     	;# 
   346     0F1C                     	;# 
   347     0F1D                     	;# 
   348     0F1E                     	;# 
   349     0F1F                     	;# 
   350     0F20                     	;# 
   351     0F21                     	;# 
   352     0F22                     	;# 
   353     0F23                     	;# 
   354     0F24                     	;# 
   355     0F25                     	;# 
   356     0F26                     	;# 
   357     0F27                     	;# 
   358     0F28                     	;# 
   359     0F29                     	;# 
   360     0F2A                     	;# 
   361     0F2B                     	;# 
   362     0F2C                     	;# 
   363     0F2D                     	;# 
   364     0F2E                     	;# 
   365     0F2F                     	;# 
   366     0F30                     	;# 
   367     0F31                     	;# 
   368     0F32                     	;# 
   369     0F33                     	;# 
   370     0F34                     	;# 
   371     0F35                     	;# 
   372     0F36                     	;# 
   373     0F37                     	;# 
   374     0FE4                     	;# 
   375     0FE5                     	;# 
   376     0FE6                     	;# 
   377     0FE7                     	;# 
   378     0FE8                     	;# 
   379     0FE9                     	;# 
   380     0FEA                     	;# 
   381     0FEB                     	;# 
   382     0FED                     	;# 
   383     0FEE                     	;# 
   384     0FEF                     	;# 
   385     0000                     	;# 
   386     0001                     	;# 
   387     0002                     	;# 
   388     0003                     	;# 
   389     0004                     	;# 
   390     0005                     	;# 
   391     0006                     	;# 
   392     0007                     	;# 
   393     0008                     	;# 
   394     0009                     	;# 
   395     000A                     	;# 
   396     000B                     	;# 
   397     000C                     	;# 
   398     000D                     	;# 
   399     000E                     	;# 
   400     0010                     	;# 
   401     0011                     	;# 
   402     0012                     	;# 
   403     0013                     	;# 
   404     0015                     	;# 
   405     0016                     	;# 
   406     0016                     	;# 
   407     0017                     	;# 
   408     0018                     	;# 
   409     0019                     	;# 
   410     001A                     	;# 
   411     001B                     	;# 
   412     001C                     	;# 
   413     008C                     	;# 
   414     008D                     	;# 
   415     008E                     	;# 
   416     0090                     	;# 
   417     0091                     	;# 
   418     0092                     	;# 
   419     0093                     	;# 
   420     0095                     	;# 
   421     0096                     	;# 
   422     0097                     	;# 
   423     0098                     	;# 
   424     0099                     	;# 
   425     009A                     	;# 
   426     009B                     	;# 
   427     009B                     	;# 
   428     009C                     	;# 
   429     009D                     	;# 
   430     009E                     	;# 
   431     009F                     	;# 
   432     010C                     	;# 
   433     010D                     	;# 
   434     010E                     	;# 
   435     0111                     	;# 
   436     0112                     	;# 
   437     0113                     	;# 
   438     0114                     	;# 
   439     0115                     	;# 
   440     0116                     	;# 
   441     0117                     	;# 
   442     0118                     	;# 
   443     0119                     	;# 
   444     011A                     	;# 
   445     011B                     	;# 
   446     011B                     	;# 
   447     011C                     	;# 
   448     018C                     	;# 
   449     018D                     	;# 
   450     018E                     	;# 
   451     0191                     	;# 
   452     0191                     	;# 
   453     0192                     	;# 
   454     0193                     	;# 
   455     0193                     	;# 
   456     0194                     	;# 
   457     0195                     	;# 
   458     0196                     	;# 
   459     0197                     	;# 
   460     0199                     	;# 
   461     0199                     	;# 
   462     0199                     	;# 
   463     019A                     	;# 
   464     019A                     	;# 
   465     019A                     	;# 
   466     019B                     	;# 
   467     019B                     	;# 
   468     019B                     	;# 
   469     019B                     	;# 
   470     019B                     	;# 
   471     019C                     	;# 
   472     019C                     	;# 
   473     019C                     	;# 
   474     019D                     	;# 
   475     019D                     	;# 
   476     019D                     	;# 
   477     019E                     	;# 
   478     019E                     	;# 
   479     019E                     	;# 
   480     019F                     	;# 
   481     019F                     	;# 
   482     019F                     	;# 
   483     019F                     	;# 
   484     019F                     	;# 
   485     020C                     	;# 
   486     020D                     	;# 
   487     020E                     	;# 
   488     0210                     	;# 
   489     0211                     	;# 
   490     0211                     	;# 
   491     0212                     	;# 
   492     0212                     	;# 
   493     0213                     	;# 
   494     0213                     	;# 
   495     0214                     	;# 
   496     0214                     	;# 
   497     0215                     	;# 
   498     0215                     	;# 
   499     0215                     	;# 
   500     0215                     	;# 
   501     0216                     	;# 
   502     0216                     	;# 
   503     0217                     	;# 
   504     0217                     	;# 
   505     028C                     	;# 
   506     028D                     	;# 
   507     028E                     	;# 
   508     0291                     	;# 
   509     0291                     	;# 
   510     0292                     	;# 
   511     0293                     	;# 
   512     0293                     	;# 
   513     0298                     	;# 
   514     0298                     	;# 
   515     0299                     	;# 
   516     029A                     	;# 
   517     029A                     	;# 
   518     029E                     	;# 
   519     030C                     	;# 
   520     030D                     	;# 
   521     030E                     	;# 
   522     038C                     	;# 
   523     038D                     	;# 
   524     038E                     	;# 
   525     0390                     	;# 
   526     0391                     	;# 
   527     0392                     	;# 
   528     0393                     	;# 
   529     0394                     	;# 
   530     0395                     	;# 
   531     0396                     	;# 
   532     0397                     	;# 
   533     0398                     	;# 
   534     0399                     	;# 
   535     039D                     	;# 
   536     039E                     	;# 
   537     039F                     	;# 
   538     0415                     	;# 
   539     0416                     	;# 
   540     0417                     	;# 
   541     041C                     	;# 
   542     041D                     	;# 
   543     041E                     	;# 
   544     0498                     	;# 
   545     0498                     	;# 
   546     0499                     	;# 
   547     049A                     	;# 
   548     049B                     	;# 
   549     049B                     	;# 
   550     049C                     	;# 
   551     049D                     	;# 
   552     049E                     	;# 
   553     049F                     	;# 
   554     0511                     	;# 
   555     0515                     	;# 
   556     0617                     	;# 
   557     0618                     	;# 
   558     0619                     	;# 
   559     0619                     	;# 
   560     061A                     	;# 
   561     061B                     	;# 
   562     061C                     	;# 
   563     061C                     	;# 
   564     0691                     	;# 
   565     0692                     	;# 
   566     0693                     	;# 
   567     0694                     	;# 
   568     0695                     	;# 
   569     0696                     	;# 
   570     0697                     	;# 
   571     0698                     	;# 
   572     0699                     	;# 
   573     069A                     	;# 
   574     069B                     	;# 
   575     069C                     	;# 
   576     069D                     	;# 
   577     069E                     	;# 
   578     069F                     	;# 
   579     0E0F                     	;# 
   580     0E10                     	;# 
   581     0E11                     	;# 
   582     0E12                     	;# 
   583     0E13                     	;# 
   584     0E14                     	;# 
   585     0E15                     	;# 
   586     0E17                     	;# 
   587     0E20                     	;# 
   588     0E21                     	;# 
   589     0E22                     	;# 
   590     0E24                     	;# 
   591     0E25                     	;# 
   592     0E28                     	;# 
   593     0E29                     	;# 
   594     0E2A                     	;# 
   595     0E2B                     	;# 
   596     0E90                     	;# 
   597     0E91                     	;# 
   598     0E92                     	;# 
   599     0E93                     	;# 
   600     0E94                     	;# 
   601     0E95                     	;# 
   602     0E96                     	;# 
   603     0E97                     	;# 
   604     0E98                     	;# 
   605     0E99                     	;# 
   606     0E9A                     	;# 
   607     0E9B                     	;# 
   608     0E9C                     	;# 
   609     0E9D                     	;# 
   610     0E9E                     	;# 
   611     0E9F                     	;# 
   612     0EA0                     	;# 
   613     0EA1                     	;# 
   614     0EA2                     	;# 
   615     0EA3                     	;# 
   616     0EA4                     	;# 
   617     0EA5                     	;# 
   618     0EA6                     	;# 
   619     0EA7                     	;# 
   620     0F0F                     	;# 
   621     0F10                     	;# 
   622     0F11                     	;# 
   623     0F12                     	;# 
   624     0F13                     	;# 
   625     0F14                     	;# 
   626     0F15                     	;# 
   627     0F16                     	;# 
   628     0F17                     	;# 
   629     0F18                     	;# 
   630     0F19                     	;# 
   631     0F1A                     	;# 
   632     0F1B                     	;# 
   633     0F1C                     	;# 
   634     0F1D                     	;# 
   635     0F1E                     	;# 
   636     0F1F                     	;# 
   637     0F20                     	;# 
   638     0F21                     	;# 
   639     0F22                     	;# 
   640     0F23                     	;# 
   641     0F24                     	;# 
   642     0F25                     	;# 
   643     0F26                     	;# 
   644     0F27                     	;# 
   645     0F28                     	;# 
   646     0F29                     	;# 
   647     0F2A                     	;# 
   648     0F2B                     	;# 
   649     0F2C                     	;# 
   650     0F2D                     	;# 
   651     0F2E                     	;# 
   652     0F2F                     	;# 
   653     0F30                     	;# 
   654     0F31                     	;# 
   655     0F32                     	;# 
   656     0F33                     	;# 
   657     0F34                     	;# 
   658     0F35                     	;# 
   659     0F36                     	;# 
   660     0F37                     	;# 
   661     0FE4                     	;# 
   662     0FE5                     	;# 
   663     0FE6                     	;# 
   664     0FE7                     	;# 
   665     0FE8                     	;# 
   666     0FE9                     	;# 
   667     0FEA                     	;# 
   668     0FEB                     	;# 
   669     0FED                     	;# 
   670     0FEE                     	;# 
   671     0FEF                     	;# 
   672     0000                     	;# 
   673     0001                     	;# 
   674     0002                     	;# 
   675     0003                     	;# 
   676     0004                     	;# 
   677     0005                     	;# 
   678     0006                     	;# 
   679     0007                     	;# 
   680     0008                     	;# 
   681     0009                     	;# 
   682     000A                     	;# 
   683     000B                     	;# 
   684     000C                     	;# 
   685     000D                     	;# 
   686     000E                     	;# 
   687     0010                     	;# 
   688     0011                     	;# 
   689     0012                     	;# 
   690     0013                     	;# 
   691     0015                     	;# 
   692     0016                     	;# 
   693     0016                     	;# 
   694     0017                     	;# 
   695     0018                     	;# 
   696     0019                     	;# 
   697     001A                     	;# 
   698     001B                     	;# 
   699     001C                     	;# 
   700     008C                     	;# 
   701     008D                     	;# 
   702     008E                     	;# 
   703     0090                     	;# 
   704     0091                     	;# 
   705     0092                     	;# 
   706     0093                     	;# 
   707     0095                     	;# 
   708     0096                     	;# 
   709     0097                     	;# 
   710     0098                     	;# 
   711     0099                     	;# 
   712     009A                     	;# 
   713     009B                     	;# 
   714     009B                     	;# 
   715     009C                     	;# 
   716     009D                     	;# 
   717     009E                     	;# 
   718     009F                     	;# 
   719     010C                     	;# 
   720     010D                     	;# 
   721     010E                     	;# 
   722     0111                     	;# 
   723     0112                     	;# 
   724     0113                     	;# 
   725     0114                     	;# 
   726     0115                     	;# 
   727     0116                     	;# 
   728     0117                     	;# 
   729     0118                     	;# 
   730     0119                     	;# 
   731     011A                     	;# 
   732     011B                     	;# 
   733     011B                     	;# 
   734     011C                     	;# 
   735     018C                     	;# 
   736     018D                     	;# 
   737     018E                     	;# 
   738     0191                     	;# 
   739     0191                     	;# 
   740     0192                     	;# 
   741     0193                     	;# 
   742     0193                     	;# 
   743     0194                     	;# 
   744     0195                     	;# 
   745     0196                     	;# 
   746     0197                     	;# 
   747     0199                     	;# 
   748     0199                     	;# 
   749     0199                     	;# 
   750     019A                     	;# 
   751     019A                     	;# 
   752     019A                     	;# 
   753     019B                     	;# 
   754     019B                     	;# 
   755     019B                     	;# 
   756     019B                     	;# 
   757     019B                     	;# 
   758     019C                     	;# 
   759     019C                     	;# 
   760     019C                     	;# 
   761     019D                     	;# 
   762     019D                     	;# 
   763     019D                     	;# 
   764     019E                     	;# 
   765     019E                     	;# 
   766     019E                     	;# 
   767     019F                     	;# 
   768     019F                     	;# 
   769     019F                     	;# 
   770     019F                     	;# 
   771     019F                     	;# 
   772     020C                     	;# 
   773     020D                     	;# 
   774     020E                     	;# 
   775     0210                     	;# 
   776     0211                     	;# 
   777     0211                     	;# 
   778     0212                     	;# 
   779     0212                     	;# 
   780     0213                     	;# 
   781     0213                     	;# 
   782     0214                     	;# 
   783     0214                     	;# 
   784     0215                     	;# 
   785     0215                     	;# 
   786     0215                     	;# 
   787     0215                     	;# 
   788     0216                     	;# 
   789     0216                     	;# 
   790     0217                     	;# 
   791     0217                     	;# 
   792     028C                     	;# 
   793     028D                     	;# 
   794     028E                     	;# 
   795     0291                     	;# 
   796     0291                     	;# 
   797     0292                     	;# 
   798     0293                     	;# 
   799     0293                     	;# 
   800     0298                     	;# 
   801     0298                     	;# 
   802     0299                     	;# 
   803     029A                     	;# 
   804     029A                     	;# 
   805     029E                     	;# 
   806     030C                     	;# 
   807     030D                     	;# 
   808     030E                     	;# 
   809     038C                     	;# 
   810     038D                     	;# 
   811     038E                     	;# 
   812     0390                     	;# 
   813     0391                     	;# 
   814     0392                     	;# 
   815     0393                     	;# 
   816     0394                     	;# 
   817     0395                     	;# 
   818     0396                     	;# 
   819     0397                     	;# 
   820     0398                     	;# 
   821     0399                     	;# 
   822     039D                     	;# 
   823     039E                     	;# 
   824     039F                     	;# 
   825     0415                     	;# 
   826     0416                     	;# 
   827     0417                     	;# 
   828     041C                     	;# 
   829     041D                     	;# 
   830     041E                     	;# 
   831     0498                     	;# 
   832     0498                     	;# 
   833     0499                     	;# 
   834     049A                     	;# 
   835     049B                     	;# 
   836     049B                     	;# 
   837     049C                     	;# 
   838     049D                     	;# 
   839     049E                     	;# 
   840     049F                     	;# 
   841     0511                     	;# 
   842     0515                     	;# 
   843     0617                     	;# 
   844     0618                     	;# 
   845     0619                     	;# 
   846     0619                     	;# 
   847     061A                     	;# 
   848     061B                     	;# 
   849     061C                     	;# 
   850     061C                     	;# 
   851     0691                     	;# 
   852     0692                     	;# 
   853     0693                     	;# 
   854     0694                     	;# 
   855     0695                     	;# 
   856     0696                     	;# 
   857     0697                     	;# 
   858     0698                     	;# 
   859     0699                     	;# 
   860     069A                     	;# 
   861     069B                     	;# 
   862     069C                     	;# 
   863     069D                     	;# 
   864     069E                     	;# 
   865     069F                     	;# 
   866     0E0F                     	;# 
   867     0E10                     	;# 
   868     0E11                     	;# 
   869     0E12                     	;# 
   870     0E13                     	;# 
   871     0E14                     	;# 
   872     0E15                     	;# 
   873     0E17                     	;# 
   874     0E20                     	;# 
   875     0E21                     	;# 
   876     0E22                     	;# 
   877     0E24                     	;# 
   878     0E25                     	;# 
   879     0E28                     	;# 
   880     0E29                     	;# 
   881     0E2A                     	;# 
   882     0E2B                     	;# 
   883     0E90                     	;# 
   884     0E91                     	;# 
   885     0E92                     	;# 
   886     0E93                     	;# 
   887     0E94                     	;# 
   888     0E95                     	;# 
   889     0E96                     	;# 
   890     0E97                     	;# 
   891     0E98                     	;# 
   892     0E99                     	;# 
   893     0E9A                     	;# 
   894     0E9B                     	;# 
   895     0E9C                     	;# 
   896     0E9D                     	;# 
   897     0E9E                     	;# 
   898     0E9F                     	;# 
   899     0EA0                     	;# 
   900     0EA1                     	;# 
   901     0EA2                     	;# 
   902     0EA3                     	;# 
   903     0EA4                     	;# 
   904     0EA5                     	;# 
   905     0EA6                     	;# 
   906     0EA7                     	;# 
   907     0F0F                     	;# 
   908     0F10                     	;# 
   909     0F11                     	;# 
   910     0F12                     	;# 
   911     0F13                     	;# 
   912     0F14                     	;# 
   913     0F15                     	;# 
   914     0F16                     	;# 
   915     0F17                     	;# 
   916     0F18                     	;# 
   917     0F19                     	;# 
   918     0F1A                     	;# 
   919     0F1B                     	;# 
   920     0F1C                     	;# 
   921     0F1D                     	;# 
   922     0F1E                     	;# 
   923     0F1F                     	;# 
   924     0F20                     	;# 
   925     0F21                     	;# 
   926     0F22                     	;# 
   927     0F23                     	;# 
   928     0F24                     	;# 
   929     0F25                     	;# 
   930     0F26                     	;# 
   931     0F27                     	;# 
   932     0F28                     	;# 
   933     0F29                     	;# 
   934     0F2A                     	;# 
   935     0F2B                     	;# 
   936     0F2C                     	;# 
   937     0F2D                     	;# 
   938     0F2E                     	;# 
   939     0F2F                     	;# 
   940     0F30                     	;# 
   941     0F31                     	;# 
   942     0F32                     	;# 
   943     0F33                     	;# 
   944     0F34                     	;# 
   945     0F35                     	;# 
   946     0F36                     	;# 
   947     0F37                     	;# 
   948     0FE4                     	;# 
   949     0FE5                     	;# 
   950     0FE6                     	;# 
   951     0FE7                     	;# 
   952     0FE8                     	;# 
   953     0FE9                     	;# 
   954     0FEA                     	;# 
   955     0FEB                     	;# 
   956     0FED                     	;# 
   957     0FEE                     	;# 
   958     0FEF                     	;# 
   959     0000                     	;# 
   960     0001                     	;# 
   961     0002                     	;# 
   962     0003                     	;# 
   963     0004                     	;# 
   964     0005                     	;# 
   965     0006                     	;# 
   966     0007                     	;# 
   967     0008                     	;# 
   968     0009                     	;# 
   969     000A                     	;# 
   970     000B                     	;# 
   971     000C                     	;# 
   972     000D                     	;# 
   973     000E                     	;# 
   974     0010                     	;# 
   975     0011                     	;# 
   976     0012                     	;# 
   977     0013                     	;# 
   978     0015                     	;# 
   979     0016                     	;# 
   980     0016                     	;# 
   981     0017                     	;# 
   982     0018                     	;# 
   983     0019                     	;# 
   984     001A                     	;# 
   985     001B                     	;# 
   986     001C                     	;# 
   987     008C                     	;# 
   988     008D                     	;# 
   989     008E                     	;# 
   990     0090                     	;# 
   991     0091                     	;# 
   992     0092                     	;# 
   993     0093                     	;# 
   994     0095                     	;# 
   995     0096                     	;# 
   996     0097                     	;# 
   997     0098                     	;# 
   998     0099                     	;# 
   999     009A                     	;# 
  1000     009B                     	;# 
  1001     009B                     	;# 
  1002     009C                     	;# 
  1003     009D                     	;# 
  1004     009E                     	;# 
  1005     009F                     	;# 
  1006     010C                     	;# 
  1007     010D                     	;# 
  1008     010E                     	;# 
  1009     0111                     	;# 
  1010     0112                     	;# 
  1011     0113                     	;# 
  1012     0114                     	;# 
  1013     0115                     	;# 
  1014     0116                     	;# 
  1015     0117                     	;# 
  1016     0118                     	;# 
  1017     0119                     	;# 
  1018     011A                     	;# 
  1019     011B                     	;# 
  1020     011B                     	;# 
  1021     011C                     	;# 
  1022     018C                     	;# 
  1023     018D                     	;# 
  1024     018E                     	;# 
  1025     0191                     	;# 
  1026     0191                     	;# 
  1027     0192                     	;# 
  1028     0193                     	;# 
  1029     0193                     	;# 
  1030     0194                     	;# 
  1031     0195                     	;# 
  1032     0196                     	;# 
  1033     0197                     	;# 
  1034     0199                     	;# 
  1035     0199                     	;# 
  1036     0199                     	;# 
  1037     019A                     	;# 
  1038     019A                     	;# 
  1039     019A                     	;# 
  1040     019B                     	;# 
  1041     019B                     	;# 
  1042     019B                     	;# 
  1043     019B                     	;# 
  1044     019B                     	;# 
  1045     019C                     	;# 
  1046     019C                     	;# 
  1047     019C                     	;# 
  1048     019D                     	;# 
  1049     019D                     	;# 
  1050     019D                     	;# 
  1051     019E                     	;# 
  1052     019E                     	;# 
  1053     019E                     	;# 
  1054     019F                     	;# 
  1055     019F                     	;# 
  1056     019F                     	;# 
  1057     019F                     	;# 
  1058     019F                     	;# 
  1059     020C                     	;# 
  1060     020D                     	;# 
  1061     020E                     	;# 
  1062     0210                     	;# 
  1063     0211                     	;# 
  1064     0211                     	;# 
  1065     0212                     	;# 
  1066     0212                     	;# 
  1067     0213                     	;# 
  1068     0213                     	;# 
  1069     0214                     	;# 
  1070     0214                     	;# 
  1071     0215                     	;# 
  1072     0215                     	;# 
  1073     0215                     	;# 
  1074     0215                     	;# 
  1075     0216                     	;# 
  1076     0216                     	;# 
  1077     0217                     	;# 
  1078     0217                     	;# 
  1079     028C                     	;# 
  1080     028D                     	;# 
  1081     028E                     	;# 
  1082     0291                     	;# 
  1083     0291                     	;# 
  1084     0292                     	;# 
  1085     0293                     	;# 
  1086     0293                     	;# 
  1087     0298                     	;# 
  1088     0298                     	;# 
  1089     0299                     	;# 
  1090     029A                     	;# 
  1091     029A                     	;# 
  1092     029E                     	;# 
  1093     030C                     	;# 
  1094     030D                     	;# 
  1095     030E                     	;# 
  1096     038C                     	;# 
  1097     038D                     	;# 
  1098     038E                     	;# 
  1099     0390                     	;# 
  1100     0391                     	;# 
  1101     0392                     	;# 
  1102     0393                     	;# 
  1103     0394                     	;# 
  1104     0395                     	;# 
  1105     0396                     	;# 
  1106     0397                     	;# 
  1107     0398                     	;# 
  1108     0399                     	;# 
  1109     039D                     	;# 
  1110     039E                     	;# 
  1111     039F                     	;# 
  1112     0415                     	;# 
  1113     0416                     	;# 
  1114     0417                     	;# 
  1115     041C                     	;# 
  1116     041D                     	;# 
  1117     041E                     	;# 
  1118     0498                     	;# 
  1119     0498                     	;# 
  1120     0499                     	;# 
  1121     049A                     	;# 
  1122     049B                     	;# 
  1123     049B                     	;# 
  1124     049C                     	;# 
  1125     049D                     	;# 
  1126     049E                     	;# 
  1127     049F                     	;# 
  1128     0511                     	;# 
  1129     0515                     	;# 
  1130     0617                     	;# 
  1131     0618                     	;# 
  1132     0619                     	;# 
  1133     0619                     	;# 
  1134     061A                     	;# 
  1135     061B                     	;# 
  1136     061C                     	;# 
  1137     061C                     	;# 
  1138     0691                     	;# 
  1139     0692                     	;# 
  1140     0693                     	;# 
  1141     0694                     	;# 
  1142     0695                     	;# 
  1143     0696                     	;# 
  1144     0697                     	;# 
  1145     0698                     	;# 
  1146     0699                     	;# 
  1147     069A                     	;# 
  1148     069B                     	;# 
  1149     069C                     	;# 
  1150     069D                     	;# 
  1151     069E                     	;# 
  1152     069F                     	;# 
  1153     0E0F                     	;# 
  1154     0E10                     	;# 
  1155     0E11                     	;# 
  1156     0E12                     	;# 
  1157     0E13                     	;# 
  1158     0E14                     	;# 
  1159     0E15                     	;# 
  1160     0E17                     	;# 
  1161     0E20                     	;# 
  1162     0E21                     	;# 
  1163     0E22                     	;# 
  1164     0E24                     	;# 
  1165     0E25                     	;# 
  1166     0E28                     	;# 
  1167     0E29                     	;# 
  1168     0E2A                     	;# 
  1169     0E2B                     	;# 
  1170     0E90                     	;# 
  1171     0E91                     	;# 
  1172     0E92                     	;# 
  1173     0E93                     	;# 
  1174     0E94                     	;# 
  1175     0E95                     	;# 
  1176     0E96                     	;# 
  1177     0E97                     	;# 
  1178     0E98                     	;# 
  1179     0E99                     	;# 
  1180     0E9A                     	;# 
  1181     0E9B                     	;# 
  1182     0E9C                     	;# 
  1183     0E9D                     	;# 
  1184     0E9E                     	;# 
  1185     0E9F                     	;# 
  1186     0EA0                     	;# 
  1187     0EA1                     	;# 
  1188     0EA2                     	;# 
  1189     0EA3                     	;# 
  1190     0EA4                     	;# 
  1191     0EA5                     	;# 
  1192     0EA6                     	;# 
  1193     0EA7                     	;# 
  1194     0F0F                     	;# 
  1195     0F10                     	;# 
  1196     0F11                     	;# 
  1197     0F12                     	;# 
  1198     0F13                     	;# 
  1199     0F14                     	;# 
  1200     0F15                     	;# 
  1201     0F16                     	;# 
  1202     0F17                     	;# 
  1203     0F18                     	;# 
  1204     0F19                     	;# 
  1205     0F1A                     	;# 
  1206     0F1B                     	;# 
  1207     0F1C                     	;# 
  1208     0F1D                     	;# 
  1209     0F1E                     	;# 
  1210     0F1F                     	;# 
  1211     0F20                     	;# 
  1212     0F21                     	;# 
  1213     0F22                     	;# 
  1214     0F23                     	;# 
  1215     0F24                     	;# 
  1216     0F25                     	;# 
  1217     0F26                     	;# 
  1218     0F27                     	;# 
  1219     0F28                     	;# 
  1220     0F29                     	;# 
  1221     0F2A                     	;# 
  1222     0F2B                     	;# 
  1223     0F2C                     	;# 
  1224     0F2D                     	;# 
  1225     0F2E                     	;# 
  1226     0F2F                     	;# 
  1227     0F30                     	;# 
  1228     0F31                     	;# 
  1229     0F32                     	;# 
  1230     0F33                     	;# 
  1231     0F34                     	;# 
  1232     0F35                     	;# 
  1233     0F36                     	;# 
  1234     0F37                     	;# 
  1235     0FE4                     	;# 
  1236     0FE5                     	;# 
  1237     0FE6                     	;# 
  1238     0FE7                     	;# 
  1239     0FE8                     	;# 
  1240     0FE9                     	;# 
  1241     0FEA                     	;# 
  1242     0FEB                     	;# 
  1243     0FED                     	;# 
  1244     0FEE                     	;# 
  1245     0FEF                     	;_screen_buffer
  1246                           
  1247                           	psect	stringtext1
  1248     1000                     __pstringtext1:
  1249     1000                     _BatteryIcon:
  1250     1000  34FF               	retlw	255
  1251     1001  3481               	retlw	129
  1252     1002  34BD               	retlw	189
  1253     1003  34BD               	retlw	189
  1254     1004  34BD               	retlw	189
  1255     1005  3481               	retlw	129
  1256     1006  34FF               	retlw	255
  1257     1007  3418               	retlw	24
  1258     1008  3400               	retlw	0
  1259     1009  3400               	retlw	0
  1260     100A                     __end_of_BatteryIcon:
  1261                           
  1262                           	psect	stringtext2
  1263     0800                     __pstringtext2:
  1264     0800                     _OledFont:
  1265     0800  3400               	retlw	0
  1266     0801  3400               	retlw	0
  1267     0802  3400               	retlw	0
  1268     0803  3400               	retlw	0
  1269     0804  3400               	retlw	0
  1270     0805  3400               	retlw	0
  1271     0806  3400               	retlw	0
  1272     0807  3400               	retlw	0
  1273     0808  3400               	retlw	0
  1274     0809  3400               	retlw	0
  1275     080A  345F               	retlw	95
  1276     080B  3400               	retlw	0
  1277     080C  3400               	retlw	0
  1278     080D  3400               	retlw	0
  1279     080E  3400               	retlw	0
  1280     080F  3400               	retlw	0
  1281     0810  3400               	retlw	0
  1282     0811  3400               	retlw	0
  1283     0812  3407               	retlw	7
  1284     0813  3400               	retlw	0
  1285     0814  3407               	retlw	7
  1286     0815  3400               	retlw	0
  1287     0816  3400               	retlw	0
  1288     0817  3400               	retlw	0
  1289     0818  3400               	retlw	0
  1290     0819  3414               	retlw	20
  1291     081A  347F               	retlw	127
  1292     081B  3414               	retlw	20
  1293     081C  347F               	retlw	127
  1294     081D  3414               	retlw	20
  1295     081E  3400               	retlw	0
  1296     081F  3400               	retlw	0
  1297     0820  3400               	retlw	0
  1298     0821  3424               	retlw	36
  1299     0822  342A               	retlw	42
  1300     0823  347F               	retlw	127
  1301     0824  342A               	retlw	42
  1302     0825  3412               	retlw	18
  1303     0826  3400               	retlw	0
  1304     0827  3400               	retlw	0
  1305     0828  3400               	retlw	0
  1306     0829  3423               	retlw	35
  1307     082A  3413               	retlw	19
  1308     082B  3408               	retlw	8
  1309     082C  3464               	retlw	100
  1310     082D  3462               	retlw	98
  1311     082E  3400               	retlw	0
  1312     082F  3400               	retlw	0
  1313     0830  3400               	retlw	0
  1314     0831  3436               	retlw	54
  1315     0832  3449               	retlw	73
  1316     0833  3455               	retlw	85
  1317     0834  3422               	retlw	34
  1318     0835  3450               	retlw	80
  1319     0836  3400               	retlw	0
  1320     0837  3400               	retlw	0
  1321     0838  3400               	retlw	0
  1322     0839  3400               	retlw	0
  1323     083A  3405               	retlw	5
  1324     083B  3403               	retlw	3
  1325     083C  3400               	retlw	0
  1326     083D  3400               	retlw	0
  1327     083E  3400               	retlw	0
  1328     083F  3400               	retlw	0
  1329     0840  3400               	retlw	0
  1330     0841  341C               	retlw	28
  1331     0842  3422               	retlw	34
  1332     0843  3441               	retlw	65
  1333     0844  3400               	retlw	0
  1334     0845  3400               	retlw	0
  1335     0846  3400               	retlw	0
  1336     0847  3400               	retlw	0
  1337     0848  3400               	retlw	0
  1338     0849  3441               	retlw	65
  1339     084A  3422               	retlw	34
  1340     084B  341C               	retlw	28
  1341     084C  3400               	retlw	0
  1342     084D  3400               	retlw	0
  1343     084E  3400               	retlw	0
  1344     084F  3400               	retlw	0
  1345     0850  3400               	retlw	0
  1346     0851  3408               	retlw	8
  1347     0852  342A               	retlw	42
  1348     0853  341C               	retlw	28
  1349     0854  342A               	retlw	42
  1350     0855  3408               	retlw	8
  1351     0856  3400               	retlw	0
  1352     0857  3400               	retlw	0
  1353     0858  3400               	retlw	0
  1354     0859  3408               	retlw	8
  1355     085A  3408               	retlw	8
  1356     085B  343E               	retlw	62
  1357     085C  3408               	retlw	8
  1358     085D  3408               	retlw	8
  1359     085E  3400               	retlw	0
  1360     085F  3400               	retlw	0
  1361     0860  3400               	retlw	0
  1362     0861  34A0               	retlw	160
  1363     0862  3460               	retlw	96
  1364     0863  3400               	retlw	0
  1365     0864  3400               	retlw	0
  1366     0865  3400               	retlw	0
  1367     0866  3400               	retlw	0
  1368     0867  3400               	retlw	0
  1369     0868  3400               	retlw	0
  1370     0869  3408               	retlw	8
  1371     086A  3408               	retlw	8
  1372     086B  3408               	retlw	8
  1373     086C  3408               	retlw	8
  1374     086D  3408               	retlw	8
  1375     086E  3400               	retlw	0
  1376     086F  3400               	retlw	0
  1377     0870  3400               	retlw	0
  1378     0871  3460               	retlw	96
  1379     0872  3460               	retlw	96
  1380     0873  3400               	retlw	0
  1381     0874  3400               	retlw	0
  1382     0875  3400               	retlw	0
  1383     0876  3400               	retlw	0
  1384     0877  3400               	retlw	0
  1385     0878  3400               	retlw	0
  1386     0879  3420               	retlw	32
  1387     087A  3410               	retlw	16
  1388     087B  3408               	retlw	8
  1389     087C  3404               	retlw	4
  1390     087D  3402               	retlw	2
  1391     087E  3400               	retlw	0
  1392     087F  3400               	retlw	0
  1393     0880  3400               	retlw	0
  1394     0881  343E               	retlw	62
  1395     0882  3451               	retlw	81
  1396     0883  3449               	retlw	73
  1397     0884  3445               	retlw	69
  1398     0885  343E               	retlw	62
  1399     0886  3400               	retlw	0
  1400     0887  3400               	retlw	0
  1401     0888  3400               	retlw	0
  1402     0889  3400               	retlw	0
  1403     088A  3442               	retlw	66
  1404     088B  347F               	retlw	127
  1405     088C  3440               	retlw	64
  1406     088D  3400               	retlw	0
  1407     088E  3400               	retlw	0
  1408     088F  3400               	retlw	0
  1409     0890  3400               	retlw	0
  1410     0891  3462               	retlw	98
  1411     0892  3451               	retlw	81
  1412     0893  3449               	retlw	73
  1413     0894  3449               	retlw	73
  1414     0895  3446               	retlw	70
  1415     0896  3400               	retlw	0
  1416     0897  3400               	retlw	0
  1417     0898  3400               	retlw	0
  1418     0899  3422               	retlw	34
  1419     089A  3441               	retlw	65
  1420     089B  3449               	retlw	73
  1421     089C  3449               	retlw	73
  1422     089D  3436               	retlw	54
  1423     089E  3400               	retlw	0
  1424     089F  3400               	retlw	0
  1425     08A0  3400               	retlw	0
  1426     08A1  3418               	retlw	24
  1427     08A2  3414               	retlw	20
  1428     08A3  3412               	retlw	18
  1429     08A4  347F               	retlw	127
  1430     08A5  3410               	retlw	16
  1431     08A6  3400               	retlw	0
  1432     08A7  3400               	retlw	0
  1433     08A8  3400               	retlw	0
  1434     08A9  3427               	retlw	39
  1435     08AA  3445               	retlw	69
  1436     08AB  3445               	retlw	69
  1437     08AC  3445               	retlw	69
  1438     08AD  3439               	retlw	57
  1439     08AE  3400               	retlw	0
  1440     08AF  3400               	retlw	0
  1441     08B0  3400               	retlw	0
  1442     08B1  343C               	retlw	60
  1443     08B2  344A               	retlw	74
  1444     08B3  3449               	retlw	73
  1445     08B4  3449               	retlw	73
  1446     08B5  3430               	retlw	48
  1447     08B6  3400               	retlw	0
  1448     08B7  3400               	retlw	0
  1449     08B8  3400               	retlw	0
  1450     08B9  3401               	retlw	1
  1451     08BA  3471               	retlw	113
  1452     08BB  3409               	retlw	9
  1453     08BC  3405               	retlw	5
  1454     08BD  3403               	retlw	3
  1455     08BE  3400               	retlw	0
  1456     08BF  3400               	retlw	0
  1457     08C0  3400               	retlw	0
  1458     08C1  3436               	retlw	54
  1459     08C2  3449               	retlw	73
  1460     08C3  3449               	retlw	73
  1461     08C4  3449               	retlw	73
  1462     08C5  3436               	retlw	54
  1463     08C6  3400               	retlw	0
  1464     08C7  3400               	retlw	0
  1465     08C8  3400               	retlw	0
  1466     08C9  3406               	retlw	6
  1467     08CA  3449               	retlw	73
  1468     08CB  3449               	retlw	73
  1469     08CC  3429               	retlw	41
  1470     08CD  341E               	retlw	30
  1471     08CE  3400               	retlw	0
  1472     08CF  3400               	retlw	0
  1473     08D0  3400               	retlw	0
  1474     08D1  3400               	retlw	0
  1475     08D2  3436               	retlw	54
  1476     08D3  3436               	retlw	54
  1477     08D4  3400               	retlw	0
  1478     08D5  3400               	retlw	0
  1479     08D6  3400               	retlw	0
  1480     08D7  3400               	retlw	0
  1481     08D8  3400               	retlw	0
  1482     08D9  3400               	retlw	0
  1483     08DA  34AC               	retlw	172
  1484     08DB  346C               	retlw	108
  1485     08DC  3400               	retlw	0
  1486     08DD  3400               	retlw	0
  1487     08DE  3400               	retlw	0
  1488     08DF  3400               	retlw	0
  1489     08E0  3400               	retlw	0
  1490     08E1  3408               	retlw	8
  1491     08E2  3414               	retlw	20
  1492     08E3  3422               	retlw	34
  1493     08E4  3441               	retlw	65
  1494     08E5  3400               	retlw	0
  1495     08E6  3400               	retlw	0
  1496     08E7  3400               	retlw	0
  1497     08E8  3400               	retlw	0
  1498     08E9  3414               	retlw	20
  1499     08EA  3414               	retlw	20
  1500     08EB  3414               	retlw	20
  1501     08EC  3414               	retlw	20
  1502     08ED  3414               	retlw	20
  1503     08EE  3400               	retlw	0
  1504     08EF  3400               	retlw	0
  1505     08F0  3400               	retlw	0
  1506     08F1  3441               	retlw	65
  1507     08F2  3422               	retlw	34
  1508     08F3  3414               	retlw	20
  1509     08F4  3408               	retlw	8
  1510     08F5  3400               	retlw	0
  1511     08F6  3400               	retlw	0
  1512     08F7  3400               	retlw	0
  1513     08F8  3400               	retlw	0
  1514     08F9  3402               	retlw	2
  1515     08FA  3401               	retlw	1
  1516     08FB  3451               	retlw	81
  1517     08FC  3409               	retlw	9
  1518     08FD  3406               	retlw	6
  1519     08FE  3400               	retlw	0
  1520     08FF  3400               	retlw	0
  1521     0900  3400               	retlw	0
  1522     0901  3432               	retlw	50
  1523     0902  3449               	retlw	73
  1524     0903  3479               	retlw	121
  1525     0904  3441               	retlw	65
  1526     0905  343E               	retlw	62
  1527     0906  3400               	retlw	0
  1528     0907  3400               	retlw	0
  1529     0908  3400               	retlw	0
  1530     0909  347E               	retlw	126
  1531     090A  3409               	retlw	9
  1532     090B  3409               	retlw	9
  1533     090C  3409               	retlw	9
  1534     090D  347E               	retlw	126
  1535     090E  3400               	retlw	0
  1536     090F  3400               	retlw	0
  1537     0910  3400               	retlw	0
  1538     0911  347F               	retlw	127
  1539     0912  3449               	retlw	73
  1540     0913  3449               	retlw	73
  1541     0914  3449               	retlw	73
  1542     0915  3436               	retlw	54
  1543     0916  3400               	retlw	0
  1544     0917  3400               	retlw	0
  1545     0918  3400               	retlw	0
  1546     0919  343E               	retlw	62
  1547     091A  3441               	retlw	65
  1548     091B  3441               	retlw	65
  1549     091C  3441               	retlw	65
  1550     091D  3422               	retlw	34
  1551     091E  3400               	retlw	0
  1552     091F  3400               	retlw	0
  1553     0920  3400               	retlw	0
  1554     0921  347F               	retlw	127
  1555     0922  3441               	retlw	65
  1556     0923  3441               	retlw	65
  1557     0924  3422               	retlw	34
  1558     0925  341C               	retlw	28
  1559     0926  3400               	retlw	0
  1560     0927  3400               	retlw	0
  1561     0928  3400               	retlw	0
  1562     0929  347F               	retlw	127
  1563     092A  3449               	retlw	73
  1564     092B  3449               	retlw	73
  1565     092C  3449               	retlw	73
  1566     092D  3441               	retlw	65
  1567     092E  3400               	retlw	0
  1568     092F  3400               	retlw	0
  1569     0930  3400               	retlw	0
  1570     0931  347F               	retlw	127
  1571     0932  3409               	retlw	9
  1572     0933  3409               	retlw	9
  1573     0934  3409               	retlw	9
  1574     0935  3401               	retlw	1
  1575     0936  3400               	retlw	0
  1576     0937  3400               	retlw	0
  1577     0938  3400               	retlw	0
  1578     0939  343E               	retlw	62
  1579     093A  3441               	retlw	65
  1580     093B  3441               	retlw	65
  1581     093C  3451               	retlw	81
  1582     093D  3472               	retlw	114
  1583     093E  3400               	retlw	0
  1584     093F  3400               	retlw	0
  1585     0940  3400               	retlw	0
  1586     0941  347F               	retlw	127
  1587     0942  3408               	retlw	8
  1588     0943  3408               	retlw	8
  1589     0944  3408               	retlw	8
  1590     0945  347F               	retlw	127
  1591     0946  3400               	retlw	0
  1592     0947  3400               	retlw	0
  1593     0948  3400               	retlw	0
  1594     0949  3441               	retlw	65
  1595     094A  347F               	retlw	127
  1596     094B  3441               	retlw	65
  1597     094C  3400               	retlw	0
  1598     094D  3400               	retlw	0
  1599     094E  3400               	retlw	0
  1600     094F  3400               	retlw	0
  1601     0950  3400               	retlw	0
  1602     0951  3420               	retlw	32
  1603     0952  3440               	retlw	64
  1604     0953  3441               	retlw	65
  1605     0954  343F               	retlw	63
  1606     0955  3401               	retlw	1
  1607     0956  3400               	retlw	0
  1608     0957  3400               	retlw	0
  1609     0958  3400               	retlw	0
  1610     0959  347F               	retlw	127
  1611     095A  3408               	retlw	8
  1612     095B  3414               	retlw	20
  1613     095C  3422               	retlw	34
  1614     095D  3441               	retlw	65
  1615     095E  3400               	retlw	0
  1616     095F  3400               	retlw	0
  1617     0960  3400               	retlw	0
  1618     0961  347F               	retlw	127
  1619     0962  3440               	retlw	64
  1620     0963  3440               	retlw	64
  1621     0964  3440               	retlw	64
  1622     0965  3440               	retlw	64
  1623     0966  3400               	retlw	0
  1624     0967  3400               	retlw	0
  1625     0968  3400               	retlw	0
  1626     0969  347F               	retlw	127
  1627     096A  3402               	retlw	2
  1628     096B  340C               	retlw	12
  1629     096C  3402               	retlw	2
  1630     096D  347F               	retlw	127
  1631     096E  3400               	retlw	0
  1632     096F  3400               	retlw	0
  1633     0970  3400               	retlw	0
  1634     0971  347F               	retlw	127
  1635     0972  3404               	retlw	4
  1636     0973  3408               	retlw	8
  1637     0974  3410               	retlw	16
  1638     0975  347F               	retlw	127
  1639     0976  3400               	retlw	0
  1640     0977  3400               	retlw	0
  1641     0978  3400               	retlw	0
  1642     0979  343E               	retlw	62
  1643     097A  3441               	retlw	65
  1644     097B  3441               	retlw	65
  1645     097C  3441               	retlw	65
  1646     097D  343E               	retlw	62
  1647     097E  3400               	retlw	0
  1648     097F  3400               	retlw	0
  1649     0980  3400               	retlw	0
  1650     0981  347F               	retlw	127
  1651     0982  3409               	retlw	9
  1652     0983  3409               	retlw	9
  1653     0984  3409               	retlw	9
  1654     0985  3406               	retlw	6
  1655     0986  3400               	retlw	0
  1656     0987  3400               	retlw	0
  1657     0988  3400               	retlw	0
  1658     0989  343E               	retlw	62
  1659     098A  3441               	retlw	65
  1660     098B  3451               	retlw	81
  1661     098C  3421               	retlw	33
  1662     098D  345E               	retlw	94
  1663     098E  3400               	retlw	0
  1664     098F  3400               	retlw	0
  1665     0990  3400               	retlw	0
  1666     0991  347F               	retlw	127
  1667     0992  3409               	retlw	9
  1668     0993  3419               	retlw	25
  1669     0994  3429               	retlw	41
  1670     0995  3446               	retlw	70
  1671     0996  3400               	retlw	0
  1672     0997  3400               	retlw	0
  1673     0998  3400               	retlw	0
  1674     0999  3426               	retlw	38
  1675     099A  3449               	retlw	73
  1676     099B  3449               	retlw	73
  1677     099C  3449               	retlw	73
  1678     099D  3432               	retlw	50
  1679     099E  3400               	retlw	0
  1680     099F  3400               	retlw	0
  1681     09A0  3400               	retlw	0
  1682     09A1  3401               	retlw	1
  1683     09A2  3401               	retlw	1
  1684     09A3  347F               	retlw	127
  1685     09A4  3401               	retlw	1
  1686     09A5  3401               	retlw	1
  1687     09A6  3400               	retlw	0
  1688     09A7  3400               	retlw	0
  1689     09A8  3400               	retlw	0
  1690     09A9  343F               	retlw	63
  1691     09AA  3440               	retlw	64
  1692     09AB  3440               	retlw	64
  1693     09AC  3440               	retlw	64
  1694     09AD  343F               	retlw	63
  1695     09AE  3400               	retlw	0
  1696     09AF  3400               	retlw	0
  1697     09B0  3400               	retlw	0
  1698     09B1  341F               	retlw	31
  1699     09B2  3420               	retlw	32
  1700     09B3  3440               	retlw	64
  1701     09B4  3420               	retlw	32
  1702     09B5  341F               	retlw	31
  1703     09B6  3400               	retlw	0
  1704     09B7  3400               	retlw	0
  1705     09B8  3400               	retlw	0
  1706     09B9  343F               	retlw	63
  1707     09BA  3440               	retlw	64
  1708     09BB  3438               	retlw	56
  1709     09BC  3440               	retlw	64
  1710     09BD  343F               	retlw	63
  1711     09BE  3400               	retlw	0
  1712     09BF  3400               	retlw	0
  1713     09C0  3400               	retlw	0
  1714     09C1  3463               	retlw	99
  1715     09C2  3414               	retlw	20
  1716     09C3  3408               	retlw	8
  1717     09C4  3414               	retlw	20
  1718     09C5  3463               	retlw	99
  1719     09C6  3400               	retlw	0
  1720     09C7  3400               	retlw	0
  1721     09C8  3400               	retlw	0
  1722     09C9  3403               	retlw	3
  1723     09CA  3404               	retlw	4
  1724     09CB  3478               	retlw	120
  1725     09CC  3404               	retlw	4
  1726     09CD  3403               	retlw	3
  1727     09CE  3400               	retlw	0
  1728     09CF  3400               	retlw	0
  1729     09D0  3400               	retlw	0
  1730     09D1  3461               	retlw	97
  1731     09D2  3451               	retlw	81
  1732     09D3  3449               	retlw	73
  1733     09D4  3445               	retlw	69
  1734     09D5  3443               	retlw	67
  1735     09D6  3400               	retlw	0
  1736     09D7  3400               	retlw	0
  1737     09D8  3400               	retlw	0
  1738     09D9  347F               	retlw	127
  1739     09DA  3441               	retlw	65
  1740     09DB  3441               	retlw	65
  1741     09DC  3400               	retlw	0
  1742     09DD  3400               	retlw	0
  1743     09DE  3400               	retlw	0
  1744     09DF  3400               	retlw	0
  1745     09E0  3400               	retlw	0
  1746     09E1  3402               	retlw	2
  1747     09E2  3404               	retlw	4
  1748     09E3  3408               	retlw	8
  1749     09E4  3410               	retlw	16
  1750     09E5  3420               	retlw	32
  1751     09E6  3400               	retlw	0
  1752     09E7  3400               	retlw	0
  1753     09E8  3400               	retlw	0
  1754     09E9  3441               	retlw	65
  1755     09EA  3441               	retlw	65
  1756     09EB  347F               	retlw	127
  1757     09EC  3400               	retlw	0
  1758     09ED  3400               	retlw	0
  1759     09EE  3400               	retlw	0
  1760     09EF  3400               	retlw	0
  1761     09F0  3400               	retlw	0
  1762     09F1  3404               	retlw	4
  1763     09F2  3402               	retlw	2
  1764     09F3  3401               	retlw	1
  1765     09F4  3402               	retlw	2
  1766     09F5  3404               	retlw	4
  1767     09F6  3400               	retlw	0
  1768     09F7  3400               	retlw	0
  1769     09F8  3400               	retlw	0
  1770     09F9  3480               	retlw	128
  1771     09FA  3480               	retlw	128
  1772     09FB  3480               	retlw	128
  1773     09FC  3480               	retlw	128
  1774     09FD  3480               	retlw	128
  1775     09FE  3400               	retlw	0
  1776     09FF  3400               	retlw	0
  1777     0A00  3400               	retlw	0
  1778     0A01  3401               	retlw	1
  1779     0A02  3402               	retlw	2
  1780     0A03  3404               	retlw	4
  1781     0A04  3400               	retlw	0
  1782     0A05  3400               	retlw	0
  1783     0A06  3400               	retlw	0
  1784     0A07  3400               	retlw	0
  1785     0A08  3400               	retlw	0
  1786     0A09  3420               	retlw	32
  1787     0A0A  3454               	retlw	84
  1788     0A0B  3454               	retlw	84
  1789     0A0C  3454               	retlw	84
  1790     0A0D  3478               	retlw	120
  1791     0A0E  3400               	retlw	0
  1792     0A0F  3400               	retlw	0
  1793     0A10  3400               	retlw	0
  1794     0A11  347F               	retlw	127
  1795     0A12  3448               	retlw	72
  1796     0A13  3444               	retlw	68
  1797     0A14  3444               	retlw	68
  1798     0A15  3438               	retlw	56
  1799     0A16  3400               	retlw	0
  1800     0A17  3400               	retlw	0
  1801     0A18  3400               	retlw	0
  1802     0A19  3438               	retlw	56
  1803     0A1A  3444               	retlw	68
  1804     0A1B  3444               	retlw	68
  1805     0A1C  3428               	retlw	40
  1806     0A1D  3400               	retlw	0
  1807     0A1E  3400               	retlw	0
  1808     0A1F  3400               	retlw	0
  1809     0A20  3400               	retlw	0
  1810     0A21  3438               	retlw	56
  1811     0A22  3444               	retlw	68
  1812     0A23  3444               	retlw	68
  1813     0A24  3448               	retlw	72
  1814     0A25  347F               	retlw	127
  1815     0A26  3400               	retlw	0
  1816     0A27  3400               	retlw	0
  1817     0A28  3400               	retlw	0
  1818     0A29  3438               	retlw	56
  1819     0A2A  3454               	retlw	84
  1820     0A2B  3454               	retlw	84
  1821     0A2C  3454               	retlw	84
  1822     0A2D  3418               	retlw	24
  1823     0A2E  3400               	retlw	0
  1824     0A2F  3400               	retlw	0
  1825     0A30  3400               	retlw	0
  1826     0A31  3408               	retlw	8
  1827     0A32  347E               	retlw	126
  1828     0A33  3409               	retlw	9
  1829     0A34  3402               	retlw	2
  1830     0A35  3400               	retlw	0
  1831     0A36  3400               	retlw	0
  1832     0A37  3400               	retlw	0
  1833     0A38  3400               	retlw	0
  1834     0A39  3418               	retlw	24
  1835     0A3A  34A4               	retlw	164
  1836     0A3B  34A4               	retlw	164
  1837     0A3C  34A4               	retlw	164
  1838     0A3D  347C               	retlw	124
  1839     0A3E  3400               	retlw	0
  1840     0A3F  3400               	retlw	0
  1841     0A40  3400               	retlw	0
  1842     0A41  347F               	retlw	127
  1843     0A42  3408               	retlw	8
  1844     0A43  3404               	retlw	4
  1845     0A44  3404               	retlw	4
  1846     0A45  3478               	retlw	120
  1847     0A46  3400               	retlw	0
  1848     0A47  3400               	retlw	0
  1849     0A48  3400               	retlw	0
  1850     0A49  3400               	retlw	0
  1851     0A4A  347D               	retlw	125
  1852     0A4B  3400               	retlw	0
  1853     0A4C  3400               	retlw	0
  1854     0A4D  3400               	retlw	0
  1855     0A4E  3400               	retlw	0
  1856     0A4F  3400               	retlw	0
  1857     0A50  3400               	retlw	0
  1858     0A51  3480               	retlw	128
  1859     0A52  3484               	retlw	132
  1860     0A53  347D               	retlw	125
  1861     0A54  3400               	retlw	0
  1862     0A55  3400               	retlw	0
  1863     0A56  3400               	retlw	0
  1864     0A57  3400               	retlw	0
  1865     0A58  3400               	retlw	0
  1866     0A59  347F               	retlw	127
  1867     0A5A  3410               	retlw	16
  1868     0A5B  3428               	retlw	40
  1869     0A5C  3444               	retlw	68
  1870     0A5D  3400               	retlw	0
  1871     0A5E  3400               	retlw	0
  1872     0A5F  3400               	retlw	0
  1873     0A60  3400               	retlw	0
  1874     0A61  3441               	retlw	65
  1875     0A62  347F               	retlw	127
  1876     0A63  3440               	retlw	64
  1877     0A64  3400               	retlw	0
  1878     0A65  3400               	retlw	0
  1879     0A66  3400               	retlw	0
  1880     0A67  3400               	retlw	0
  1881     0A68  3400               	retlw	0
  1882     0A69  347C               	retlw	124
  1883     0A6A  3404               	retlw	4
  1884     0A6B  3418               	retlw	24
  1885     0A6C  3404               	retlw	4
  1886     0A6D  3478               	retlw	120
  1887     0A6E  3400               	retlw	0
  1888     0A6F  3400               	retlw	0
  1889     0A70  3400               	retlw	0
  1890     0A71  347C               	retlw	124
  1891     0A72  3408               	retlw	8
  1892     0A73  3404               	retlw	4
  1893     0A74  347C               	retlw	124
  1894     0A75  3400               	retlw	0
  1895     0A76  3400               	retlw	0
  1896     0A77  3400               	retlw	0
  1897     0A78  3400               	retlw	0
  1898     0A79  3438               	retlw	56
  1899     0A7A  3444               	retlw	68
  1900     0A7B  3444               	retlw	68
  1901     0A7C  3438               	retlw	56
  1902     0A7D  3400               	retlw	0
  1903     0A7E  3400               	retlw	0
  1904     0A7F  3400               	retlw	0
  1905     0A80  3400               	retlw	0
  1906     0A81  34FC               	retlw	252
  1907     0A82  3424               	retlw	36
  1908     0A83  3424               	retlw	36
  1909     0A84  3418               	retlw	24
  1910     0A85  3400               	retlw	0
  1911     0A86  3400               	retlw	0
  1912     0A87  3400               	retlw	0
  1913     0A88  3400               	retlw	0
  1914     0A89  3418               	retlw	24
  1915     0A8A  3424               	retlw	36
  1916     0A8B  3424               	retlw	36
  1917     0A8C  34FC               	retlw	252
  1918     0A8D  3400               	retlw	0
  1919     0A8E  3400               	retlw	0
  1920     0A8F  3400               	retlw	0
  1921     0A90  3400               	retlw	0
  1922     0A91  3400               	retlw	0
  1923     0A92  347C               	retlw	124
  1924     0A93  3408               	retlw	8
  1925     0A94  3404               	retlw	4
  1926     0A95  3400               	retlw	0
  1927     0A96  3400               	retlw	0
  1928     0A97  3400               	retlw	0
  1929     0A98  3400               	retlw	0
  1930     0A99  3448               	retlw	72
  1931     0A9A  3454               	retlw	84
  1932     0A9B  3454               	retlw	84
  1933     0A9C  3424               	retlw	36
  1934     0A9D  3400               	retlw	0
  1935     0A9E  3400               	retlw	0
  1936     0A9F  3400               	retlw	0
  1937     0AA0  3400               	retlw	0
  1938     0AA1  3404               	retlw	4
  1939     0AA2  347F               	retlw	127
  1940     0AA3  3444               	retlw	68
  1941     0AA4  3400               	retlw	0
  1942     0AA5  3400               	retlw	0
  1943     0AA6  3400               	retlw	0
  1944     0AA7  3400               	retlw	0
  1945     0AA8  3400               	retlw	0
  1946     0AA9  343C               	retlw	60
  1947     0AAA  3440               	retlw	64
  1948     0AAB  3440               	retlw	64
  1949     0AAC  347C               	retlw	124
  1950     0AAD  3400               	retlw	0
  1951     0AAE  3400               	retlw	0
  1952     0AAF  3400               	retlw	0
  1953     0AB0  3400               	retlw	0
  1954     0AB1  341C               	retlw	28
  1955     0AB2  3420               	retlw	32
  1956     0AB3  3440               	retlw	64
  1957     0AB4  3420               	retlw	32
  1958     0AB5  341C               	retlw	28
  1959     0AB6  3400               	retlw	0
  1960     0AB7  3400               	retlw	0
  1961     0AB8  3400               	retlw	0
  1962     0AB9  343C               	retlw	60
  1963     0ABA  3440               	retlw	64
  1964     0ABB  3430               	retlw	48
  1965     0ABC  3440               	retlw	64
  1966     0ABD  343C               	retlw	60
  1967     0ABE  3400               	retlw	0
  1968     0ABF  3400               	retlw	0
  1969     0AC0  3400               	retlw	0
  1970     0AC1  3444               	retlw	68
  1971     0AC2  3428               	retlw	40
  1972     0AC3  3410               	retlw	16
  1973     0AC4  3428               	retlw	40
  1974     0AC5  3444               	retlw	68
  1975     0AC6  3400               	retlw	0
  1976     0AC7  3400               	retlw	0
  1977     0AC8  3400               	retlw	0
  1978     0AC9  341C               	retlw	28
  1979     0ACA  34A0               	retlw	160
  1980     0ACB  34A0               	retlw	160
  1981     0ACC  347C               	retlw	124
  1982     0ACD  3400               	retlw	0
  1983     0ACE  3400               	retlw	0
  1984     0ACF  3400               	retlw	0
  1985     0AD0  3400               	retlw	0
  1986     0AD1  3444               	retlw	68
  1987     0AD2  3464               	retlw	100
  1988     0AD3  3454               	retlw	84
  1989     0AD4  344C               	retlw	76
  1990     0AD5  3444               	retlw	68
  1991     0AD6  3400               	retlw	0
  1992     0AD7  3400               	retlw	0
  1993     0AD8  3400               	retlw	0
  1994     0AD9  3408               	retlw	8
  1995     0ADA  3436               	retlw	54
  1996     0ADB  3441               	retlw	65
  1997     0ADC  3400               	retlw	0
  1998     0ADD  3400               	retlw	0
  1999     0ADE  3400               	retlw	0
  2000     0ADF  3400               	retlw	0
  2001     0AE0  3400               	retlw	0
  2002     0AE1  3400               	retlw	0
  2003     0AE2  347F               	retlw	127
  2004     0AE3  3400               	retlw	0
  2005     0AE4  3400               	retlw	0
  2006     0AE5  3400               	retlw	0
  2007     0AE6  3400               	retlw	0
  2008     0AE7  3400               	retlw	0
  2009     0AE8  3400               	retlw	0
  2010     0AE9  3441               	retlw	65
  2011     0AEA  3436               	retlw	54
  2012     0AEB  3408               	retlw	8
  2013     0AEC  3400               	retlw	0
  2014     0AED  3400               	retlw	0
  2015     0AEE  3400               	retlw	0
  2016     0AEF  3400               	retlw	0
  2017     0AF0  3400               	retlw	0
  2018     0AF1  3402               	retlw	2
  2019     0AF2  3401               	retlw	1
  2020     0AF3  3401               	retlw	1
  2021     0AF4  3402               	retlw	2
  2022     0AF5  3401               	retlw	1
  2023     0AF6  3400               	retlw	0
  2024     0AF7  3400               	retlw	0
  2025     0AF8  3400               	retlw	0
  2026     0AF9  3402               	retlw	2
  2027     0AFA  3405               	retlw	5
  2028     0AFB  3405               	retlw	5
  2029     0AFC  3402               	retlw	2
  2030     0AFD  3400               	retlw	0
  2031     0AFE  3400               	retlw	0
  2032     0AFF  3400               	retlw	0
  2033     0B00                     __end_of_OledFont:
  2034     0012                     _PIR2bits	set	18
  2035     0011                     _PIR1bits	set	17
  2036     008E                     _TRISCbits	set	142
  2037     009E                     _ADCON1bits	set	158
  2038     008D                     _TRISBbits	set	141
  2039     008C                     _TRISAbits	set	140
  2040     009B                     _ADRESL	set	155
  2041     009C                     _ADRESH	set	156
  2042     009D                     _ADCON0bits	set	157
  2043     04CF                     _SPLLEN	set	1231
  2044     04CE                     _IRCF3	set	1230
  2045     04CD                     _IRCF2	set	1229
  2046     04CC                     _IRCF1	set	1228
  2047     04CB                     _IRCF0	set	1227
  2048     04C9                     _SCS1	set	1225
  2049     04C8                     _SCS0	set	1224
  2050     018E                     _ANSELCbits	set	398
  2051     018D                     _ANSELBbits	set	397
  2052     018C                     _ANSELAbits	set	396
  2053     0211                     _SSPBUF	set	529
  2054     0216                     _SSPCON2bits	set	534
  2055     0214                     _SSPSTATbits	set	532
  2056     0216                     _SSPCON2	set	534
  2057     0215                     _SSPCON1bits	set	533
  2058     0212                     _SSPADD	set	530
  2059     0215                     _SSPCONbits	set	533
  2060     0E20                     _SSPCLKPPSbits	set	3616
  2061     0E21                     _SSPDATPPSbits	set	3617
  2062     0E24                     _RXPPSbits	set	3620
  2063     0E0F                     _PPSLOCKbits	set	3599
  2064     0E0F                     _PPSLOCK	set	3599
  2065     0EA5                     _RC5PPSbits	set	3749
  2066     0EA4                     _RC4PPSbits	set	3748
  2067     0E9A                     _RB2PPSbits	set	3738
  2068     0B00                     STR_1:
  2069     0B00  3454               	retlw	84	;'T'
  2070     0B01  3465               	retlw	101	;'e'
  2071     0B02  346D               	retlw	109	;'m'
  2072     0B03  3470               	retlw	112	;'p'
  2073     0B04  343A               	retlw	58	;':'
  2074     0B05  3420               	retlw	32	;' '
  2075     0B06  3425               	retlw	37	;'%'
  2076     0B07  3464               	retlw	100	;'d'
  2077     0B08  3420               	retlw	32	;' '
  2078     0B09  3443               	retlw	67	;'C'
  2079     0B0A  3400               	retlw	0
  2080                           
  2081                           	psect	stringtext3
  2082     0000                     __pstringtext3:
  2083                           
  2084                           	psect	cinit
  2085     07F2                     start_initialization:	
  2086                           ; #config settings
  2087                           
  2088     07F2                     __initialization:	;BIGRAM
  2089                           
  2090                           ; Clear objects allocated to BIGRAM
  2091     07F2  30F0               	movlw	low (0+9456)
  2092     07F3  0084               	movwf	4
  2093     07F4  3024               	movlw	high (0+9456)
  2094     07F5  0085               	movwf	5
  2095     07F6  3000               	movlw	0
  2096     07F7  00FE               	movwf	btemp
  2097     07F8  3003               	movlw	3
  2098     07F9  00FF               	movwf	btemp+1
  2099     07FA  318B  23F2  3187   	fcall	clear_ram0
  2100     07FD                     end_of_initialization:	
  2101                           ;End of C runtime variable initialization code
  2102                           
  2103     07FD                     __end_of__initialization:
  2104     07FD  0020               	movlb	0
  2105     07FE  3182  2AC2         	ljmp	_main	;jump to C main() function
  2106                           
  2107                           	psect	clrtext
  2108     0BF2                     clear_ram0:	
  2109                           ;	Called with FSR0 containing the base address, and
  2110                           ;	btemp/btemp+1 has the size to clear
  2111                           
  2112     0BF2  0064               	clrwdt	;clear the watchdog before getting into this loop
  2113     0BF3                     clrloop0:
  2114     0BF3  0180               	clrf	0	;clear RAM location pointed to by FSR
  2115     0BF4  3101               	addfsr 0,1
  2116     0BF5  3001               	movlw	1
  2117     0BF6  02FE               	subwf	btemp,f
  2118     0BF7  3000               	movlw	0
  2119     0BF8  3BFF               	subwfb	btemp+1,f
  2120     0BF9  087F               	movf	btemp+1,w
  2121     0BFA  047E               	iorwf	btemp,w
  2122     0BFB  1D03               	skipz
  2123     0BFC  2BF3               	goto	clrloop0	;have we reached the end yet?
  2124     0BFD  3400               	retlw	0	;all done for this memory range, return
  2125                           
  2126                           	psect	cstackBANK1
  2127     00A0                     __pcstackBANK1:
  2128     00A0                     OLED_Printf_Line@buf:
  2129                           
  2130                           ; 32 bytes @ 0x0
  2131     00A0                     	ds	32
  2132     00C0                     OLED_Printf_Line@temp_708:
  2133                           
  2134                           ; 6 bytes @ 0x20
  2135     00C0                     	ds	6
  2136     00C6                     OLED_Printf_Line@temp_711:
  2137                           
  2138                           ; 5 bytes @ 0x26
  2139     00C6                     	ds	5
  2140     00CB                     OLED_Printf_Line@val_710:
  2141                           
  2142                           ; 2 bytes @ 0x2B
  2143     00CB                     	ds	2
  2144     00CD                     OLED_Printf_Line@col:
  2145                           
  2146                           ; 1 bytes @ 0x2D
  2147     00CD                     	ds	1
  2148     00CE                     OLED_Printf_Line@p:
  2149                           
  2150                           ; 1 bytes @ 0x2E
  2151     00CE                     	ds	1
  2152     00CF                     OLED_Printf_Line@val_701:
  2153                           
  2154                           ; 4 bytes @ 0x2F
  2155     00CF                     	ds	4
  2156     00D3                     OLED_Printf_Line@val_707:
  2157                           
  2158                           ; 2 bytes @ 0x33
  2159     00D3                     	ds	2
  2160     00D5                     OLED_Printf_Line@nibble:
  2161                           
  2162                           ; 1 bytes @ 0x35
  2163     00D5                     	ds	1
  2164     00D6                     OLED_Printf_Line@ch:
  2165                           
  2166                           ; 1 bytes @ 0x36
  2167     00D6                     	ds	1
  2168     00D7                     OLED_Printf_Line@i:
  2169                           
  2170                           ; 1 bytes @ 0x37
  2171     00D7                     	ds	1
  2172     00D8                     OLED_Printf_Line@i_703:
  2173                           
  2174                           ; 1 bytes @ 0x38
  2175     00D8                     	ds	1
  2176     00D9                     OLED_Printf_Line@i_706:
  2177                           
  2178                           ; 1 bytes @ 0x39
  2179     00D9                     	ds	1
  2180     00DA                     OLED_Printf_Line@i_709:
  2181                           
  2182                           ; 1 bytes @ 0x3A
  2183     00DA                     	ds	1
  2184     00DB                     OLED_Printf_Line@i_712:
  2185                           
  2186                           ; 1 bytes @ 0x3B
  2187     00DB                     	ds	1
  2188     00DC                     OLED_Printf_Line@val_704:
  2189                           
  2190                           ; 4 bytes @ 0x3C
  2191     00DC                     	ds	4
  2192     00E0                     OLED_Printf_Line@val:
  2193                           
  2194                           ; 2 bytes @ 0x40
  2195     00E0                     	ds	2
  2196     00E2                     OLED_Printf_Line@line:
  2197                           
  2198                           ; 1 bytes @ 0x42
  2199     00E2                     	ds	1
  2200     00E3                     OLED_Printf_Line@ap:
  2201                           
  2202                           ; 1 bytes @ 0x43
  2203     00E3                     	ds	1
  2204     00E4                     OLED_Printf_Line@src:
  2205                           
  2206                           ; 2 bytes @ 0x44
  2207     00E4                     	ds	2
  2208     00E6                     OLED_Printf_Line@dst:
  2209                           
  2210                           ; 1 bytes @ 0x46
  2211     00E6                     	ds	1
  2212                           
  2213                           	psect	cstackCOMMON
  2214     0070                     __pcstackCOMMON:
  2215     0070                     ?_I2C_ClearErrors:
  2216     0070                     ??_I2C_ClearErrors:	
  2217                           ; 1 bytes @ 0x0
  2218                           
  2219     0070                     ?_internal_32:	
  2220                           ; 1 bytes @ 0x0
  2221                           
  2222     0070                     ??_internal_32:	
  2223                           ; 1 bytes @ 0x0
  2224                           
  2225     0070                     ?_OLED_Init:	
  2226                           ; 1 bytes @ 0x0
  2227                           
  2228     0070                     ?_OLED_SetOrientation:	
  2229                           ; 1 bytes @ 0x0
  2230                           
  2231     0070                     ?_OLED_Clear:	
  2232                           ; 1 bytes @ 0x0
  2233                           
  2234     0070                     ?_I2C_WaitIF:	
  2235                           ; 1 bytes @ 0x0
  2236                           
  2237     0070                     ?_I2C_Init:	
  2238                           ; 1 bytes @ 0x0
  2239                           
  2240     0070                     ??_I2C_Init:	
  2241                           ; 1 bytes @ 0x0
  2242                           
  2243     0070                     ?_I2C_WaitIdle:	
  2244                           ; 1 bytes @ 0x0
  2245                           
  2246     0070                     ?_I2C_Start:	
  2247                           ; 1 bytes @ 0x0
  2248                           
  2249     0070                     ?_I2C_Stop:	
  2250                           ; 1 bytes @ 0x0
  2251                           
  2252     0070                     ?_I2C_WriteByte:	
  2253                           ; 1 bytes @ 0x0
  2254                           
  2255     0070                     ?_ADC_ConfigurePin:	
  2256                           ; 1 bytes @ 0x0
  2257                           
  2258     0070                     ??_ADC_ConfigurePin:	
  2259                           ; 1 bytes @ 0x0
  2260                           
  2261     0070                     ?_ADC_Init:	
  2262                           ; 1 bytes @ 0x0
  2263                           
  2264     0070                     ??_ADC_Init:	
  2265                           ; 1 bytes @ 0x0
  2266                           
  2267     0070                     ?_initMain:	
  2268                           ; 1 bytes @ 0x0
  2269                           
  2270     0070                     ?_main:	
  2271                           ; 1 bytes @ 0x0
  2272                           
  2273     0070                     ?_SSD1306_CtrlW:	
  2274                           ; 1 bytes @ 0x0
  2275                           
  2276     0070                     ??_SSD1306_CtrlW:	
  2277                           ; 1 bytes @ 0x0
  2278                           
  2279     0070                     ?_OLED_Command:	
  2280                           ; 1 bytes @ 0x0
  2281                           
  2282     0070                     ?_OLED_UpdateLine:	
  2283                           ; 1 bytes @ 0x0
  2284                           
  2285     0070                     ?_memset:	
  2286                           ; 1 bytes @ 0x0
  2287                           
  2288     0070                     ?_strcmp:	
  2289                           ; 2 bytes @ 0x0
  2290                           
  2291     0070                     ?_strcpy:	
  2292                           ; 2 bytes @ 0x0
  2293                           
  2294     0070                     ?_memcpy:	
  2295                           ; 2 bytes @ 0x0
  2296                           
  2297     0070                     ?___awdiv:	
  2298                           ; 2 bytes @ 0x0
  2299                           
  2300     0070                     ?___awmod:	
  2301                           ; 2 bytes @ 0x0
  2302                           
  2303     0070                     ?___lwdiv:	
  2304                           ; 2 bytes @ 0x0
  2305                           
  2306     0070                     ?___lwmod:	
  2307                           ; 2 bytes @ 0x0
  2308                           
  2309     0070                     ?___lmul:	
  2310                           ; 2 bytes @ 0x0
  2311                           
  2312     0070                     ?___aldiv:	
  2313                           ; 4 bytes @ 0x0
  2314                           
  2315     0070                     ?___almod:	
  2316                           ; 4 bytes @ 0x0
  2317                           
  2318     0070                     ?___llmod:	
  2319                           ; 4 bytes @ 0x0
  2320                           
  2321     0070                     I2C_WaitIF@timeout_ms:	
  2322                           ; 4 bytes @ 0x0
  2323                           
  2324     0070                     I2C_WaitIdle@timeout_ms:	
  2325                           ; 2 bytes @ 0x0
  2326                           
  2327     0070                     ___awdiv@divisor:	
  2328                           ; 2 bytes @ 0x0
  2329                           
  2330     0070                     ___awmod@divisor:	
  2331                           ; 2 bytes @ 0x0
  2332                           
  2333     0070                     ___lwdiv@divisor:	
  2334                           ; 2 bytes @ 0x0
  2335                           
  2336     0070                     ___lwmod@divisor:	
  2337                           ; 2 bytes @ 0x0
  2338                           
  2339     0070                     memcpy@d1:	
  2340                           ; 2 bytes @ 0x0
  2341                           
  2342     0070                     memset@dest:	
  2343                           ; 2 bytes @ 0x0
  2344                           
  2345     0070                     strcmp@r:	
  2346                           ; 2 bytes @ 0x0
  2347                           
  2348     0070                     strcpy@dest:	
  2349                           ; 2 bytes @ 0x0
  2350                           
  2351     0070                     ___lmul@multiplier:	
  2352                           ; 2 bytes @ 0x0
  2353                           
  2354     0070                     ___aldiv@divisor:	
  2355                           ; 4 bytes @ 0x0
  2356                           
  2357     0070                     ___almod@divisor:	
  2358                           ; 4 bytes @ 0x0
  2359                           
  2360     0070                     ___llmod@divisor:	
  2361                           ; 4 bytes @ 0x0
  2362                           
  2363                           
  2364                           ; 4 bytes @ 0x0
  2365     0070                     	ds	2
  2366     0072                     ??_strcmp:
  2367     0072                     ??_I2C_WaitIF:	
  2368                           ; 1 bytes @ 0x2
  2369                           
  2370     0072                     ??_I2C_WaitIdle:	
  2371                           ; 1 bytes @ 0x2
  2372                           
  2373     0072                     ADC_ConfigurePin@channel:	
  2374                           ; 1 bytes @ 0x2
  2375                           
  2376     0072                     strcpy@src:	
  2377                           ; 1 bytes @ 0x2
  2378                           
  2379     0072                     ___awdiv@dividend:	
  2380                           ; 1 bytes @ 0x2
  2381                           
  2382     0072                     ___awmod@dividend:	
  2383                           ; 2 bytes @ 0x2
  2384                           
  2385     0072                     ___lwdiv@dividend:	
  2386                           ; 2 bytes @ 0x2
  2387                           
  2388     0072                     ___lwmod@dividend:	
  2389                           ; 2 bytes @ 0x2
  2390                           
  2391     0072                     memcpy@s1:	
  2392                           ; 2 bytes @ 0x2
  2393                           
  2394     0072                     memset@c:	
  2395                           ; 2 bytes @ 0x2
  2396                           
  2397                           
  2398                           ; 2 bytes @ 0x2
  2399     0072                     	ds	1
  2400     0073                     ??_strcpy:
  2401     0073                     ??_I2C_Start:	
  2402                           ; 1 bytes @ 0x3
  2403                           
  2404     0073                     ??_I2C_Stop:	
  2405                           ; 1 bytes @ 0x3
  2406                           
  2407     0073                     ??_I2C_WriteByte:	
  2408                           ; 1 bytes @ 0x3
  2409                           
  2410     0073                     ??_initMain:	
  2411                           ; 1 bytes @ 0x3
  2412                           
  2413     0073                     I2C_Start@st:	
  2414                           ; 1 bytes @ 0x3
  2415                           
  2416     0073                     I2C_Stop@st:	
  2417                           ; 1 bytes @ 0x3
  2418                           
  2419     0073                     I2C_WriteByte@data:	
  2420                           ; 1 bytes @ 0x3
  2421                           
  2422     0073                     strcmp@l:	
  2423                           ; 1 bytes @ 0x3
  2424                           
  2425                           
  2426                           ; 1 bytes @ 0x3
  2427     0073                     	ds	1
  2428     0074                     ??___awdiv:
  2429     0074                     ??___awmod:	
  2430                           ; 1 bytes @ 0x4
  2431                           
  2432     0074                     ??___lwdiv:	
  2433                           ; 1 bytes @ 0x4
  2434                           
  2435     0074                     ??___lwmod:	
  2436                           ; 1 bytes @ 0x4
  2437                           
  2438     0074                     I2C_WriteByte@st:	
  2439                           ; 1 bytes @ 0x4
  2440                           
  2441     0074                     memcpy@n:	
  2442                           ; 1 bytes @ 0x4
  2443                           
  2444     0074                     memset@n:	
  2445                           ; 2 bytes @ 0x4
  2446                           
  2447     0074                     ___lmul@multiplicand:	
  2448                           ; 2 bytes @ 0x4
  2449                           
  2450     0074                     ___aldiv@dividend:	
  2451                           ; 4 bytes @ 0x4
  2452                           
  2453     0074                     ___almod@dividend:	
  2454                           ; 4 bytes @ 0x4
  2455                           
  2456     0074                     ___llmod@dividend:	
  2457                           ; 4 bytes @ 0x4
  2458                           
  2459                           
  2460                           ; 4 bytes @ 0x4
  2461     0074                     	ds	1
  2462     0075                     ??_OLED_Command:
  2463     0075                     ?_OLED_WriteData:	
  2464                           ; 1 bytes @ 0x5
  2465                           
  2466     0075                     OLED_Command@cmd:	
  2467                           ; 1 bytes @ 0x5
  2468                           
  2469     0075                     ___awdiv@counter:	
  2470                           ; 1 bytes @ 0x5
  2471                           
  2472     0075                     ___awmod@counter:	
  2473                           ; 1 bytes @ 0x5
  2474                           
  2475     0075                     ___lwmod@counter:	
  2476                           ; 1 bytes @ 0x5
  2477                           
  2478     0075                     OLED_WriteData@data:	
  2479                           ; 1 bytes @ 0x5
  2480                           
  2481     0075                     ___lwdiv@quotient:	
  2482                           ; 2 bytes @ 0x5
  2483                           
  2484     0075                     strcpy@d:	
  2485                           ; 2 bytes @ 0x5
  2486                           
  2487                           
  2488                           ; 2 bytes @ 0x5
  2489     0075                     	ds	1
  2490     0076                     ??_memset:
  2491     0076                     ??_memcpy:	
  2492                           ; 1 bytes @ 0x6
  2493                           
  2494     0076                     OLED_Command@st:	
  2495                           ; 1 bytes @ 0x6
  2496                           
  2497     0076                     ___awdiv@sign:	
  2498                           ; 1 bytes @ 0x6
  2499                           
  2500     0076                     ___awmod@sign:	
  2501                           ; 1 bytes @ 0x6
  2502                           
  2503     0076                     memcpy@d:	
  2504                           ; 1 bytes @ 0x6
  2505                           
  2506     0076                     memset@p:	
  2507                           ; 2 bytes @ 0x6
  2508                           
  2509                           
  2510                           ; 2 bytes @ 0x6
  2511     0076                     	ds	1
  2512     0077                     ??_OLED_SetOrientation:
  2513     0077                     ?_OLED_YX:	
  2514                           ; 1 bytes @ 0x7
  2515                           
  2516     0077                     OLED_YX@col_char:	
  2517                           ; 1 bytes @ 0x7
  2518                           
  2519     0077                     ___lwdiv@counter:	
  2520                           ; 1 bytes @ 0x7
  2521                           
  2522     0077                     OLED_WriteData@len:	
  2523                           ; 1 bytes @ 0x7
  2524                           
  2525     0077                     ___awdiv@quotient:	
  2526                           ; 2 bytes @ 0x7
  2527                           
  2528                           
  2529                           ; 2 bytes @ 0x7
  2530     0077                     	ds	1
  2531     0078                     ??_OLED_YX:
  2532     0078                     ??___lmul:	
  2533                           ; 1 bytes @ 0x8
  2534                           
  2535     0078                     ??___aldiv:	
  2536                           ; 1 bytes @ 0x8
  2537                           
  2538     0078                     ??___almod:	
  2539                           ; 1 bytes @ 0x8
  2540                           
  2541     0078                     ??___llmod:	
  2542                           ; 1 bytes @ 0x8
  2543                           
  2544     0078                     memcpy@s:	
  2545                           ; 1 bytes @ 0x8
  2546                           
  2547     0078                     ___lmul@product:	
  2548                           ; 2 bytes @ 0x8
  2549                           
  2550                           
  2551                           ; 4 bytes @ 0x8
  2552     0078                     	ds	1
  2553     0079                     ??_OLED_WriteData:
  2554     0079                     OLED_SetOrientation@o:	
  2555                           ; 1 bytes @ 0x9
  2556                           
  2557     0079                     OLED_YX@page:	
  2558                           ; 1 bytes @ 0x9
  2559                           
  2560     0079                     ___almod@counter:	
  2561                           ; 1 bytes @ 0x9
  2562                           
  2563     0079                     ___llmod@counter:	
  2564                           ; 1 bytes @ 0x9
  2565                           
  2566     0079                     OLED_WriteData@i:	
  2567                           ; 1 bytes @ 0x9
  2568                           
  2569                           
  2570                           ; 2 bytes @ 0x9
  2571     0079                     	ds	1
  2572     007A                     OLED_YX@col:
  2573     007A                     ___almod@sign:	
  2574                           ; 1 bytes @ 0xA
  2575                           
  2576     007A                     memcpy@tmp:	
  2577                           ; 1 bytes @ 0xA
  2578                           
  2579                           
  2580                           ; 1 bytes @ 0xA
  2581     007A                     	ds	1
  2582     007B                     OLED_WriteData@st:
  2583                           
  2584                           ; 1 bytes @ 0xB
  2585     007B                     	ds	1
  2586     007C                     ??___lldiv:
  2587     007C                     OLED_Clear@p:	
  2588                           ; 1 bytes @ 0xC
  2589                           
  2590     007C                     OLED_UpdateLine@page:	
  2591                           ; 1 bytes @ 0xC
  2592                           
  2593                           
  2594                           ; 1 bytes @ 0xC
  2595     007C                     	ds	1
  2596     007D                     ??_OLED_Init:
  2597                           
  2598                           ; 1 bytes @ 0xD
  2599     007D                     	ds	1
  2600                           
  2601                           	psect	cstackBANK0
  2602     0020                     __pcstackBANK0:
  2603     0020                     ??_OLED_Clear:
  2604     0020                     ??_OLED_UpdateLine:	
  2605                           ; 1 bytes @ 0x0
  2606                           
  2607     0020                     ?___lldiv:	
  2608                           ; 1 bytes @ 0x0
  2609                           
  2610     0020                     ___aldiv@counter:	
  2611                           ; 4 bytes @ 0x0
  2612                           
  2613     0020                     ___lldiv@divisor:	
  2614                           ; 1 bytes @ 0x0
  2615                           
  2616                           
  2617                           ; 4 bytes @ 0x0
  2618     0020                     	ds	1
  2619     0021                     ___aldiv@sign:
  2620                           
  2621                           ; 1 bytes @ 0x1
  2622     0021                     	ds	1
  2623     0022                     ___aldiv@quotient:
  2624                           
  2625                           ; 4 bytes @ 0x2
  2626     0022                     	ds	2
  2627     0024                     ___lldiv@dividend:
  2628                           
  2629                           ; 4 bytes @ 0x4
  2630     0024                     	ds	4
  2631     0028                     ___lldiv@quotient:
  2632                           
  2633                           ; 4 bytes @ 0x8
  2634     0028                     	ds	4
  2635     002C                     ___lldiv@counter:
  2636                           
  2637                           ; 1 bytes @ 0xC
  2638     002C                     	ds	1
  2639     002D                     ?_OLED_Printf_Line:
  2640     002D                     ?_ADC_Read_Averaged:	
  2641                           ; 1 bytes @ 0xD
  2642                           
  2643     002D                     ADC_Read_Averaged@samples:	
  2644                           ; 2 bytes @ 0xD
  2645                           
  2646     002D                     OLED_Printf_Line@fmt:	
  2647                           ; 1 bytes @ 0xD
  2648                           
  2649                           
  2650                           ; 2 bytes @ 0xD
  2651     002D                     	ds	2
  2652     002F                     ??_ADC_Read_Averaged:
  2653                           
  2654                           ; 1 bytes @ 0xF
  2655     002F                     	ds	2
  2656     0031                     ??_OLED_Printf_Line:
  2657                           
  2658                           ; 1 bytes @ 0x11
  2659     0031                     	ds	2
  2660     0033                     ADC_Read_Averaged@channel:
  2661                           
  2662                           ; 1 bytes @ 0x13
  2663     0033                     	ds	1
  2664     0034                     ADC_Read_Averaged@sum:
  2665                           
  2666                           ; 4 bytes @ 0x14
  2667     0034                     	ds	4
  2668     0038                     ADC_Read_Averaged@i:
  2669                           
  2670                           ; 1 bytes @ 0x18
  2671     0038                     	ds	5
  2672     003D                     OLED_Printf_Line@temp_702:
  2673                           
  2674                           ; 11 bytes @ 0x1D
  2675     003D                     	ds	11
  2676     0048                     OLED_Printf_Line@temp_705:
  2677                           
  2678                           ; 11 bytes @ 0x28
  2679     0048                     	ds	11
  2680     0053                     OLED_Printf_Line@temp:
  2681                           
  2682                           ; 6 bytes @ 0x33
  2683     0053                     	ds	6
  2684     0059                     _OLED_Printf_Line$714:
  2685                           
  2686                           ; 2 bytes @ 0x39
  2687     0059                     	ds	2
  2688     005B                     OLED_Printf_Line@str:
  2689                           
  2690                           ; 1 bytes @ 0x3B
  2691     005B                     	ds	1
  2692     005C                     ??_main:
  2693                           
  2694                           ; 1 bytes @ 0x3C
  2695     005C                     	ds	2
  2696     005E                     main@mV:
  2697                           
  2698                           ; 4 bytes @ 0x3E
  2699     005E                     	ds	4
  2700     0062                     main@adc:
  2701                           
  2702                           ; 2 bytes @ 0x42
  2703     0062                     	ds	2
  2704     0064                     main@tempC:
  2705                           
  2706                           ; 2 bytes @ 0x44
  2707     0064                     	ds	2
  2708                           
  2709                           	psect	maintext
  2710     02C2                     __pmaintext:	
  2711 ;;
  2712 ;;Main: autosize = 0, tempsize = 2, incstack = 0, save=0
  2713 ;;
  2714 ;; *************** function _main *****************
  2715 ;; Defined at:
  2716 ;;		line 102 in file "main.c"
  2717 ;; Parameters:    Size  Location     Type
  2718 ;;		None
  2719 ;; Auto vars:     Size  Location     Type
  2720 ;;  mV              4   62[BANK0 ] unsigned long 
  2721 ;;  tempC           2   68[BANK0 ] short 
  2722 ;;  adc             2   66[BANK0 ] unsigned short 
  2723 ;;  Temperature    10    0        unsigned char [10]
  2724 ;;  celcius         4    0        float 
  2725 ;;  i               2    0        int 
  2726 ;;  LM35            2    0        unsigned short 
  2727 ;; Return value:  Size  Location     Type
  2728 ;;                  1    wreg      void 
  2729 ;; Registers used:
  2730 ;;		wreg, fsr0l, fsr0h, fsr1l, fsr1h, status,2, status,0, pclath, cstack
  2731 ;; Tracked objects:
  2732 ;;		On entry : B1F/0
  2733 ;;		On exit  : 0/0
  2734 ;;		Unchanged: 0/0
  2735 ;; Data sizes:     COMMON   BANK0   BANK1   BANK2   BANK3   BANK4   BANK5   BANK6   BANK7   BANK8   BANK9  BANK10  BANK1
      +1  BANK12  BANK13  BANK14  BANK15  BANK16  BANK17  BANK18  BANK19  BANK20  BANK21  BANK22  BANK23  BANK24  BANK25
  2736 ;;      Params:         0       0       0       0       0       0       0       0       0       0       0       0       
      +0       0       0       0       0       0       0       0       0       0       0       0       0       0       0
  2737 ;;      Locals:         0       8       0       0       0       0       0       0       0       0       0       0       
      +0       0       0       0       0       0       0       0       0       0       0       0       0       0       0
  2738 ;;      Temps:          0       2       0       0       0       0       0       0       0       0       0       0       
      +0       0       0       0       0       0       0       0       0       0       0       0       0       0       0
  2739 ;;      Totals:         0      10       0       0       0       0       0       0       0       0       0       0       
      +0       0       0       0       0       0       0       0       0       0       0       0       0       0       0
  2740 ;;Total ram usage:       10 bytes
  2741 ;; Hardware stack levels required when called: 6
  2742 ;; This function calls:
  2743 ;;		_ADC_Init
  2744 ;;		_ADC_Read_Averaged
  2745 ;;		_I2C_Init
  2746 ;;		_OLED_Clear
  2747 ;;		_OLED_Init
  2748 ;;		_OLED_Printf_Line
  2749 ;;		_OLED_SetOrientation
  2750 ;;		___awdiv
  2751 ;;		___lldiv
  2752 ;;		___lmul
  2753 ;;		_initMain
  2754 ;; This function is called by:
  2755 ;;		Startup code after reset
  2756 ;; This function uses a non-reentrant model
  2757 ;;
  2758                           
  2759     02C2                     _main:	
  2760                           ;psect for function _main
  2761                           
  2762     02C2                     l2987:	
  2763                           ;incstack = 0
  2764                           ; Regs used in _main: [wreg-fsr1h+status,2+status,0+pclath+cstack]
  2765                           
  2766                           
  2767                           ;main.c: 104:     initMain();
  2768     02C2  318E  26C5  3182   	fcall	_initMain
  2769     02C5                     l2989:
  2770                           
  2771                           ;main.c: 105:     I2C_Init();
  2772     02C5  318B  23FE  3182   	fcall	_I2C_Init
  2773     02C8                     l2991:
  2774                           
  2775                           ;main.c: 107:     OLED_Init();
  2776     02C8  3181  21D3  3182   	fcall	_OLED_Init
  2777     02CB                     l2993:
  2778                           
  2779                           ;main.c: 108:     OLED_SetOrientation(OLED_ORIENT_0);
  2780     02CB  3000               	movlw	0
  2781     02CC  3180  2006  3182   	fcall	_OLED_SetOrientation
  2782     02CF                     l2995:
  2783                           
  2784                           ;main.c: 109:     OLED_Clear();
  2785     02CF  318F  2710  3182   	fcall	_OLED_Clear
  2786                           
  2787                           ;main.c: 111:     ADC_Init();
  2788     02D2  318B  23E8  3182   	fcall	_ADC_Init
  2789     02D5                     l163:	
  2790                           ;main.c: 113:     uint16_t LM35;;main.c: 114:     char Temperature[10];;main.c: 115:    
      +                           float celcius;;main.c: 116:     int i;;main.c: 118:     while (1)
  2791                           
  2792                           
  2793                           ;main.c: 119:     {;main.c: 120:         uint16_t adc = ADC_Read_Averaged(ADC_AN0, 8);
  2794     02D5  3008               	movlw	8
  2795     02D6  0020               	movlb	0	; select bank0
  2796     02D7  00AD               	movwf	ADC_Read_Averaged@samples
  2797     02D8  3000               	movlw	0
  2798     02D9  3181  2166  3182   	fcall	_ADC_Read_Averaged
  2799     02DC  0020               	movlb	0	; select bank0
  2800     02DD  082E               	movf	?_ADC_Read_Averaged+1,w
  2801     02DE  00E3               	movwf	main@adc+1
  2802     02DF  082D               	movf	?_ADC_Read_Averaged,w
  2803     02E0  00E2               	movwf	main@adc
  2804                           
  2805                           ;main.c: 122:         uint32_t mV = (uint32_t)adc * 5000UL / 1023UL;
  2806     02E1  3000               	movlw	0
  2807     02E2  00A3               	movwf	___lldiv@divisor+3
  2808     02E3  3000               	movlw	0
  2809     02E4  00A2               	movwf	___lldiv@divisor+2
  2810     02E5  3003               	movlw	3
  2811     02E6  00A1               	movwf	___lldiv@divisor+1
  2812     02E7  30FF               	movlw	255
  2813     02E8  00A0               	movwf	___lldiv@divisor
  2814     02E9  0862               	movf	main@adc,w
  2815     02EA  00F0               	movwf	___lmul@multiplier
  2816     02EB  0863               	movf	main@adc+1,w
  2817     02EC  00F1               	movwf	___lmul@multiplier+1
  2818     02ED  01F2               	clrf	___lmul@multiplier+2
  2819     02EE  01F3               	clrf	___lmul@multiplier+3
  2820     02EF  3000               	movlw	0
  2821     02F0  00F7               	movwf	___lmul@multiplicand+3
  2822     02F1  3000               	movlw	0
  2823     02F2  00F6               	movwf	___lmul@multiplicand+2
  2824     02F3  3013               	movlw	19
  2825     02F4  00F5               	movwf	___lmul@multiplicand+1
  2826     02F5  3088               	movlw	136
  2827     02F6  00F4               	movwf	___lmul@multiplicand
  2828     02F7  318D  25D8  3182   	fcall	___lmul
  2829     02FA  0873               	movf	?___lmul+3,w
  2830     02FB  0020               	movlb	0	; select bank0
  2831     02FC  00A7               	movwf	___lldiv@dividend+3
  2832     02FD  0872               	movf	?___lmul+2,w
  2833     02FE  00A6               	movwf	___lldiv@dividend+2
  2834     02FF  0871               	movf	?___lmul+1,w
  2835     0300  00A5               	movwf	___lldiv@dividend+1
  2836     0301  0870               	movf	?___lmul,w
  2837     0302  00A4               	movwf	___lldiv@dividend
  2838     0303  3180  2047  3182   	fcall	___lldiv
  2839     0306  0020               	movlb	0	; select bank0
  2840     0307  0823               	movf	?___lldiv+3,w
  2841     0308  00E1               	movwf	main@mV+3
  2842     0309  0822               	movf	?___lldiv+2,w
  2843     030A  00E0               	movwf	main@mV+2
  2844     030B  0821               	movf	?___lldiv+1,w
  2845     030C  00DF               	movwf	main@mV+1
  2846     030D  0820               	movf	?___lldiv,w
  2847     030E  00DE               	movwf	main@mV
  2848                           
  2849                           ;main.c: 124:         int16_t tempC = ((int16_t)mV - 500) / 10;
  2850     030F  300A               	movlw	10
  2851     0310  00F0               	movwf	___awdiv@divisor
  2852     0311  3000               	movlw	0
  2853     0312  00F1               	movwf	___awdiv@divisor+1
  2854     0313  085E               	movf	main@mV,w
  2855     0314  3E0C               	addlw	12
  2856     0315  00F2               	movwf	___awdiv@dividend
  2857     0316  30FE               	movlw	254
  2858     0317  3D5F               	addwfc	main@mV+1,w
  2859     0318  00F3               	movwf	___awdiv@dividend+1
  2860     0319  3180  20A2  3182   	fcall	___awdiv
  2861     031C  0871               	movf	?___awdiv+1,w
  2862     031D  0020               	movlb	0	; select bank0
  2863     031E  00E5               	movwf	main@tempC+1
  2864     031F  0870               	movf	?___awdiv,w
  2865     0320  00E4               	movwf	main@tempC
  2866     0321                     l2997:
  2867                           
  2868                           ;main.c: 126:         OLED_Printf_Line(0, "Temp: %d C", tempC);
  2869     0321  3000               	movlw	low (STR_1| (0+32768))
  2870     0322  00AD               	movwf	OLED_Printf_Line@fmt
  2871     0323  308B               	movlw	high (STR_1| (0+32768))
  2872     0324  00AE               	movwf	OLED_Printf_Line@fmt+1
  2873     0325  0865               	movf	main@tempC+1,w
  2874     0326  00B0               	movwf	?_OLED_Printf_Line+3
  2875     0327  0864               	movf	main@tempC,w
  2876     0328  00AF               	movwf	?_OLED_Printf_Line+2
  2877     0329  3000               	movlw	0
  2878     032A  3183  23CD  3182   	fcall	_OLED_Printf_Line
  2879     032D                     l2999:
  2880                           
  2881                           ;main.c: 128:         _delay((unsigned long)((500)*(32000000/4000.0)));
  2882     032D  3015               	movlw	21
  2883     032E  0020               	movlb	0	; select bank0
  2884     032F  00DD               	movwf	??_main+1
  2885     0330  304B               	movlw	75
  2886     0331  00DC               	movwf	??_main
  2887     0332  30BE               	movlw	190
  2888     0333                     u3327:
  2889     0333  0B89               	decfsz	9,f
  2890     0334  2B33               	goto	u3327
  2891     0335  0BDC               	decfsz	??_main,f
  2892     0336  2B33               	goto	u3327
  2893     0337  0BDD               	decfsz	??_main+1,f
  2894     0338  2B33               	goto	u3327
  2895     0339  0000               	nop
  2896     033A  2AD5               	goto	l163
  2897     033B  3180  2803         	ljmp	start
  2898     033D                     __end_of_main:
  2899                           
  2900                           	psect	text1
  2901     0EC5                     __ptext1:	
  2902 ;; *************** function _initMain *****************
  2903 ;; Defined at:
  2904 ;;		line 38 in file "main.c"
  2905 ;; Parameters:    Size  Location     Type
  2906 ;;		None
  2907 ;; Auto vars:     Size  Location     Type
  2908 ;;		None
  2909 ;; Return value:  Size  Location     Type
  2910 ;;                  1    wreg      void 
  2911 ;; Registers used:
  2912 ;;		wreg, fsr0l, fsr0h, status,2, status,0, pclath, cstack
  2913 ;; Tracked objects:
  2914 ;;		On entry : 0/0
  2915 ;;		On exit  : 0/0
  2916 ;;		Unchanged: 0/0
  2917 ;; Data sizes:     COMMON   BANK0   BANK1   BANK2   BANK3   BANK4   BANK5   BANK6   BANK7   BANK8   BANK9  BANK10  BANK1
      +1  BANK12  BANK13  BANK14  BANK15  BANK16  BANK17  BANK18  BANK19  BANK20  BANK21  BANK22  BANK23  BANK24  BANK25
  2918 ;;      Params:         0       0       0       0       0       0       0       0       0       0       0       0       
      +0       0       0       0       0       0       0       0       0       0       0       0       0       0       0
  2919 ;;      Locals:         0       0       0       0       0       0       0       0       0       0       0       0       
      +0       0       0       0       0       0       0       0       0       0       0       0       0       0       0
  2920 ;;      Temps:          1       0       0       0       0       0       0       0       0       0       0       0       
      +0       0       0       0       0       0       0       0       0       0       0       0       0       0       0
  2921 ;;      Totals:         1       0       0       0       0       0       0       0       0       0       0       0       
      +0       0       0       0       0       0       0       0       0       0       0       0       0       0       0
  2922 ;;Total ram usage:        1 bytes
  2923 ;; Hardware stack levels used: 1
  2924 ;; Hardware stack levels required when called: 1
  2925 ;; This function calls:
  2926 ;;		_ADC_ConfigurePin
  2927 ;;		_internal_32
  2928 ;; This function is called by:
  2929 ;;		_main
  2930 ;; This function uses a non-reentrant model
  2931 ;;
  2932                           
  2933     0EC5                     _initMain:	
  2934                           ;psect for function _initMain
  2935                           
  2936     0EC5                     l2565:	
  2937                           ;incstack = 0
  2938                           ; Regs used in _initMain: [wreg-fsr0h+status,2+status,0+pclath+cstack]
  2939                           
  2940                           
  2941                           ;main.c: 41:     internal_32();
  2942     0EC5  318B  23DF  318E   	fcall	_internal_32
  2943     0EC8                     l2567:
  2944                           
  2945                           ;main.c: 44:     _delay((unsigned long)((10)*(32000000/4000.0)));
  2946     0EC8  3068               	movlw	104
  2947     0EC9  00F3               	movwf	??_initMain
  2948     0ECA  30E4               	movlw	228
  2949     0ECB                     u3337:
  2950     0ECB  0B89               	decfsz	9,f
  2951     0ECC  2ECB               	goto	u3337
  2952     0ECD  0BF3               	decfsz	??_initMain,f
  2953     0ECE  2ECB               	goto	u3337
  2954     0ECF  3200               	nop2
  2955     0ED0                     l2569:
  2956                           
  2957                           ;main.c: 46:     TRISBbits.TRISB2 = 0;
  2958     0ED0  0021               	movlb	1	; select bank1
  2959     0ED1  110D               	bcf	13,2	;volatile
  2960     0ED2                     l2571:
  2961                           
  2962                           ;main.c: 47:     ANSELBbits.ANSB2 = 0;
  2963     0ED2  0023               	movlb	3	; select bank3
  2964     0ED3  110D               	bcf	13,2	;volatile
  2965     0ED4                     l2573:
  2966                           
  2967                           ;main.c: 54:     ANSELCbits.ANSC4 = 0;
  2968     0ED4  120E               	bcf	14,4	;volatile
  2969     0ED5                     l2575:
  2970                           
  2971                           ;main.c: 55:     ANSELCbits.ANSC5 = 0;
  2972     0ED5  128E               	bcf	14,5	;volatile
  2973     0ED6                     l2577:
  2974                           
  2975                           ;main.c: 56:     TRISCbits.TRISC4 = 1;
  2976     0ED6  0021               	movlb	1	; select bank1
  2977     0ED7  160E               	bsf	14,4	;volatile
  2978     0ED8                     l2579:
  2979                           
  2980                           ;main.c: 57:     TRISCbits.TRISC5 = 1;
  2981     0ED8  168E               	bsf	14,5	;volatile
  2982     0ED9                     l2581:
  2983                           
  2984                           ;main.c: 60:     PPSLOCK = 0x55; PPSLOCK = 0xAA; PPSLOCKbits.PPSLOCKED = 0;
  2985     0ED9  3055               	movlw	85
  2986     0EDA  003C               	movlb	28	; select bank28
  2987     0EDB  008F               	movwf	15	;volsfr
  2988     0EDC                     l2583:
  2989     0EDC  30AA               	movlw	170
  2990     0EDD  008F               	movwf	15	;volsfr
  2991     0EDE                     l2585:
  2992     0EDE  100F               	bcf	15,0	;volsfr
  2993     0EDF                     l2587:
  2994                           
  2995                           ;main.c: 62:     RB2PPSbits.RB2PPS = 0x14;
  2996     0EDF  003D               	movlb	29	; select bank29
  2997     0EE0  081A               	movf	26,w	;volatile
  2998     0EE1  39E0               	andlw	-32
  2999     0EE2  3814               	iorlw	20
  3000     0EE3  009A               	movwf	26	;volatile
  3001     0EE4                     l2589:
  3002                           
  3003                           ;main.c: 63:     RXPPSbits.RXPPS = 0x0B;
  3004     0EE4  003C               	movlb	28	; select bank28
  3005     0EE5  0824               	movf	36,w	;volatile
  3006     0EE6  39E0               	andlw	-32
  3007     0EE7  380B               	iorlw	11
  3008     0EE8  00A4               	movwf	36	;volatile
  3009     0EE9                     l2591:
  3010                           
  3011                           ;main.c: 65:     RC4PPSbits.RC4PPS = 0x11;
  3012     0EE9  003D               	movlb	29	; select bank29
  3013     0EEA  0824               	movf	36,w	;volatile
  3014     0EEB  39E0               	andlw	-32
  3015     0EEC  3811               	iorlw	17
  3016     0EED  00A4               	movwf	36	;volatile
  3017     0EEE                     l2593:
  3018                           
  3019                           ;main.c: 66:     SSPDATPPSbits.SSPDATPPS = 0x14;
  3020     0EEE  003C               	movlb	28	; select bank28
  3021     0EEF  0821               	movf	33,w	;volatile
  3022     0EF0  39E0               	andlw	-32
  3023     0EF1  3814               	iorlw	20
  3024     0EF2  00A1               	movwf	33	;volatile
  3025     0EF3                     l2595:
  3026                           
  3027                           ;main.c: 68:     SSPCLKPPSbits.SSPCLKPPS = 0x15;
  3028     0EF3  0820               	movf	32,w	;volatile
  3029     0EF4  39E0               	andlw	-32
  3030     0EF5  3815               	iorlw	21
  3031     0EF6  00A0               	movwf	32	;volatile
  3032     0EF7                     l2597:
  3033                           
  3034                           ;main.c: 69:     RC5PPSbits.RC5PPS = 0x10;
  3035     0EF7  003D               	movlb	29	; select bank29
  3036     0EF8  0825               	movf	37,w	;volatile
  3037     0EF9  39E0               	andlw	-32
  3038     0EFA  3810               	iorlw	16
  3039     0EFB  00A5               	movwf	37	;volatile
  3040     0EFC                     l2599:
  3041                           
  3042                           ;main.c: 71:     PPSLOCK = 0x55; PPSLOCK = 0xAA; PPSLOCKbits.PPSLOCKED = 1;
  3043     0EFC  3055               	movlw	85
  3044     0EFD  003C               	movlb	28	; select bank28
  3045     0EFE  008F               	movwf	15	;volsfr
  3046     0EFF                     l2601:
  3047     0EFF  30AA               	movlw	170
  3048     0F00  008F               	movwf	15	;volsfr
  3049     0F01                     l2603:
  3050     0F01  140F               	bsf	15,0	;volsfr
  3051     0F02                     l2605:
  3052                           
  3053                           ;main.c: 79:     ADCON1bits.ADCS = 0b010;
  3054     0F02  0021               	movlb	1	; select bank1
  3055     0F03  081E               	movf	30,w	;volatile
  3056     0F04  398F               	andlw	-113
  3057     0F05  3820               	iorlw	32
  3058     0F06  009E               	movwf	30	;volatile
  3059     0F07                     l2607:
  3060                           
  3061                           ;main.c: 82:     ADCON1bits.ADFM = 1;
  3062     0F07  179E               	bsf	30,7	;volatile
  3063     0F08                     l2609:
  3064                           
  3065                           ;main.c: 85:     ADCON1bits.ADNREF = 0;
  3066     0F08  111E               	bcf	30,2	;volatile
  3067     0F09                     l2611:
  3068                           
  3069                           ;main.c: 88:     ADCON1bits.ADPREF = 0b00;
  3070     0F09  30FC               	movlw	-4
  3071     0F0A  059E               	andwf	30,f	;volatile
  3072     0F0B                     l2613:
  3073                           
  3074                           ;main.c: 91:     ADC_ConfigurePin(ADC_AN0);
  3075     0F0B  3000               	movlw	0
  3076     0F0C  3181  2101  318E   	fcall	_ADC_ConfigurePin
  3077     0F0F                     l158:
  3078     0F0F  0008               	return
  3079     0F10                     __end_of_initMain:
  3080                           
  3081                           	psect	text2
  3082     0BDF                     __ptext2:	
  3083 ;; *************** function _internal_32 *****************
  3084 ;; Defined at:
  3085 ;;		line 36 in file "PIC16F1718_Internal.c"
  3086 ;; Parameters:    Size  Location     Type
  3087 ;;		None
  3088 ;; Auto vars:     Size  Location     Type
  3089 ;;		None
  3090 ;; Return value:  Size  Location     Type
  3091 ;;                  1    wreg      void 
  3092 ;; Registers used:
  3093 ;;		None
  3094 ;; Tracked objects:
  3095 ;;		On entry : 0/0
  3096 ;;		On exit  : 0/0
  3097 ;;		Unchanged: 0/0
  3098 ;; Data sizes:     COMMON   BANK0   BANK1   BANK2   BANK3   BANK4   BANK5   BANK6   BANK7   BANK8   BANK9  BANK10  BANK1
      +1  BANK12  BANK13  BANK14  BANK15  BANK16  BANK17  BANK18  BANK19  BANK20  BANK21  BANK22  BANK23  BANK24  BANK25
  3099 ;;      Params:         0       0       0       0       0       0       0       0       0       0       0       0       
      +0       0       0       0       0       0       0       0       0       0       0       0       0       0       0
  3100 ;;      Locals:         0       0       0       0       0       0       0       0       0       0       0       0       
      +0       0       0       0       0       0       0       0       0       0       0       0       0       0       0
  3101 ;;      Temps:          0       0       0       0       0       0       0       0       0       0       0       0       
      +0       0       0       0       0       0       0       0       0       0       0       0       0       0       0
  3102 ;;      Totals:         0       0       0       0       0       0       0       0       0       0       0       0       
      +0       0       0       0       0       0       0       0       0       0       0       0       0       0       0
  3103 ;;Total ram usage:        0 bytes
  3104 ;; Hardware stack levels used: 1
  3105 ;; This function calls:
  3106 ;;		Nothing
  3107 ;; This function is called by:
  3108 ;;		_initMain
  3109 ;; This function uses a non-reentrant model
  3110 ;;
  3111                           
  3112     0BDF                     _internal_32:	
  3113                           ;psect for function _internal_32
  3114                           
  3115     0BDF                     l2227:	
  3116                           ;incstack = 0
  3117                           ; Regs used in _internal_32: []
  3118                           
  3119                           
  3120                           ;PIC16F1718_Internal.c: 38:     SCS0 = 0;
  3121     0BDF  0021               	movlb	1	; select bank1
  3122     0BE0  1019               	bcf	25,0	;volatile
  3123                           
  3124                           ;PIC16F1718_Internal.c: 39:     SCS1 = 0;
  3125     0BE1  1099               	bcf	25,1	;volatile
  3126                           
  3127                           ;PIC16F1718_Internal.c: 42:     IRCF0 = 0;
  3128     0BE2  1199               	bcf	25,3	;volatile
  3129                           
  3130                           ;PIC16F1718_Internal.c: 43:     IRCF1 = 1;
  3131     0BE3  1619               	bsf	25,4	;volatile
  3132                           
  3133                           ;PIC16F1718_Internal.c: 44:     IRCF2 = 1;
  3134     0BE4  1699               	bsf	25,5	;volatile
  3135                           
  3136                           ;PIC16F1718_Internal.c: 45:     IRCF3 = 1;
  3137     0BE5  1719               	bsf	25,6	;volatile
  3138                           
  3139                           ;PIC16F1718_Internal.c: 48:     SPLLEN = 1;
  3140     0BE6  1799               	bsf	25,7	;volatile
  3141     0BE7                     l369:
  3142     0BE7  0008               	return
  3143     0BE8                     __end_of_internal_32:
  3144                           
  3145                           	psect	text3
  3146     0101                     __ptext3:	
  3147 ;; *************** function _ADC_ConfigurePin *****************
  3148 ;; Defined at:
  3149 ;;		line 53 in file "./ADC.h"
  3150 ;; Parameters:    Size  Location     Type
  3151 ;;  channel         1    wreg     enum E6091
  3152 ;; Auto vars:     Size  Location     Type
  3153 ;;  channel         1    2[COMMON] enum E6091
  3154 ;; Return value:  Size  Location     Type
  3155 ;;                  1    wreg      void 
  3156 ;; Registers used:
  3157 ;;		wreg, fsr0l, fsr0h, status,2, status,0
  3158 ;; Tracked objects:
  3159 ;;		On entry : 0/0
  3160 ;;		On exit  : 0/0
  3161 ;;		Unchanged: 0/0
  3162 ;; Data sizes:     COMMON   BANK0   BANK1   BANK2   BANK3   BANK4   BANK5   BANK6   BANK7   BANK8   BANK9  BANK10  BANK1
      +1  BANK12  BANK13  BANK14  BANK15  BANK16  BANK17  BANK18  BANK19  BANK20  BANK21  BANK22  BANK23  BANK24  BANK25
  3163 ;;      Params:         0       0       0       0       0       0       0       0       0       0       0       0       
      +0       0       0       0       0       0       0       0       0       0       0       0       0       0       0
  3164 ;;      Locals:         1       0       0       0       0       0       0       0       0       0       0       0       
      +0       0       0       0       0       0       0       0       0       0       0       0       0       0       0
  3165 ;;      Temps:          2       0       0       0       0       0       0       0       0       0       0       0       
      +0       0       0       0       0       0       0       0       0       0       0       0       0       0       0
  3166 ;;      Totals:         3       0       0       0       0       0       0       0       0       0       0       0       
      +0       0       0       0       0       0       0       0       0       0       0       0       0       0       0
  3167 ;;Total ram usage:        3 bytes
  3168 ;; Hardware stack levels used: 1
  3169 ;; This function calls:
  3170 ;;		Nothing
  3171 ;; This function is called by:
  3172 ;;		_initMain
  3173 ;; This function uses a non-reentrant model
  3174 ;;
  3175                           
  3176     0101                     _ADC_ConfigurePin:	
  3177                           ;psect for function _ADC_ConfigurePin
  3178                           
  3179                           
  3180                           ;incstack = 0
  3181                           ; Regs used in _ADC_ConfigurePin: [wreg-fsr0h+status,2+status,0]
  3182                           ;ADC_ConfigurePin@channel stored from wreg
  3183     0101  00F2               	movwf	ADC_ConfigurePin@channel
  3184     0102                     l2217:
  3185                           
  3186                           ;./ADC.h: 53: void ADC_ConfigurePin(adc_channel_t channel);./ADC.h: 54: {;./ADC.h: 55:  
      +                             switch(channel) {
  3187     0102  293A               	goto	l2221
  3188     0103                     l130:	
  3189                           ;./ADC.h: 56:         case ADC_AN0: TRISAbits.TRISA0 = 1; ANSELAbits.ANSA0 = 1; break;
  3190                           
  3191     0103  0021               	movlb	1	; select bank1
  3192     0104  140C               	bsf	12,0	;volatile
  3193     0105  0023               	movlb	3	; select bank3
  3194     0106  140C               	bsf	12,0	;volatile
  3195     0107  2965               	goto	l142
  3196     0108                     l132:	
  3197                           ;./ADC.h: 57:         case ADC_AN1: TRISAbits.TRISA1 = 1; ANSELAbits.ANSA1 = 1; break;
  3198                           
  3199     0108  0021               	movlb	1	; select bank1
  3200     0109  148C               	bsf	12,1	;volatile
  3201     010A  0023               	movlb	3	; select bank3
  3202     010B  148C               	bsf	12,1	;volatile
  3203     010C  2965               	goto	l142
  3204     010D                     l133:	
  3205                           ;./ADC.h: 58:         case ADC_AN2: TRISAbits.TRISA2 = 1; ANSELAbits.ANSA2 = 1; break;
  3206                           
  3207     010D  0021               	movlb	1	; select bank1
  3208     010E  150C               	bsf	12,2	;volatile
  3209     010F  0023               	movlb	3	; select bank3
  3210     0110  150C               	bsf	12,2	;volatile
  3211     0111  2965               	goto	l142
  3212     0112                     l134:	
  3213                           ;./ADC.h: 59:         case ADC_AN3: TRISAbits.TRISA3 = 1; ANSELAbits.ANSA3 = 1; break;
  3214                           
  3215     0112  0021               	movlb	1	; select bank1
  3216     0113  158C               	bsf	12,3	;volatile
  3217     0114  0023               	movlb	3	; select bank3
  3218     0115  158C               	bsf	12,3	;volatile
  3219     0116  2965               	goto	l142
  3220     0117                     l135:	
  3221                           ;./ADC.h: 60:         case ADC_AN4: TRISAbits.TRISA4 = 1; ANSELAbits.ANSA4 = 1; break;
  3222                           
  3223     0117  0021               	movlb	1	; select bank1
  3224     0118  160C               	bsf	12,4	;volatile
  3225     0119  0023               	movlb	3	; select bank3
  3226     011A  160C               	bsf	12,4	;volatile
  3227     011B  2965               	goto	l142
  3228     011C                     l136:	
  3229                           ;./ADC.h: 61:         case ADC_AN5: TRISAbits.TRISA5 = 1; ANSELAbits.ANSA5 = 1; break;
  3230                           
  3231     011C  0021               	movlb	1	; select bank1
  3232     011D  168C               	bsf	12,5	;volatile
  3233     011E  0023               	movlb	3	; select bank3
  3234     011F  168C               	bsf	12,5	;volatile
  3235     0120  2965               	goto	l142
  3236     0121                     l137:	
  3237                           ;./ADC.h: 62:         case ADC_AN8: TRISBbits.TRISB0 = 1; ANSELBbits.ANSB0 = 1; break;
  3238                           
  3239     0121  0021               	movlb	1	; select bank1
  3240     0122  140D               	bsf	13,0	;volatile
  3241     0123  0023               	movlb	3	; select bank3
  3242     0124  140D               	bsf	13,0	;volatile
  3243     0125  2965               	goto	l142
  3244     0126                     l138:	
  3245                           ;./ADC.h: 63:         case ADC_AN9: TRISBbits.TRISB1 = 1; ANSELBbits.ANSB1 = 1; break;
  3246                           
  3247     0126  0021               	movlb	1	; select bank1
  3248     0127  148D               	bsf	13,1	;volatile
  3249     0128  0023               	movlb	3	; select bank3
  3250     0129  148D               	bsf	13,1	;volatile
  3251     012A  2965               	goto	l142
  3252     012B                     l139:	
  3253                           ;./ADC.h: 64:         case ADC_AN10: TRISBbits.TRISB3 = 1; ANSELBbits.ANSB3 = 1; break;
  3254                           
  3255     012B  0021               	movlb	1	; select bank1
  3256     012C  158D               	bsf	13,3	;volatile
  3257     012D  0023               	movlb	3	; select bank3
  3258     012E  158D               	bsf	13,3	;volatile
  3259     012F  2965               	goto	l142
  3260     0130                     l140:	
  3261                           ;./ADC.h: 65:         case ADC_AN11: TRISBbits.TRISB4 = 1; ANSELBbits.ANSB4 = 1; break;
  3262                           
  3263     0130  0021               	movlb	1	; select bank1
  3264     0131  160D               	bsf	13,4	;volatile
  3265     0132  0023               	movlb	3	; select bank3
  3266     0133  160D               	bsf	13,4	;volatile
  3267     0134  2965               	goto	l142
  3268     0135                     l141:	
  3269                           ;./ADC.h: 66:         case ADC_AN12: TRISBbits.TRISB5 = 1; ANSELBbits.ANSB5 = 1; break;
  3270                           
  3271     0135  0021               	movlb	1	; select bank1
  3272     0136  168D               	bsf	13,5	;volatile
  3273     0137  0023               	movlb	3	; select bank3
  3274     0138  168D               	bsf	13,5	;volatile
  3275     0139  2965               	goto	l142
  3276     013A                     l2221:
  3277     013A  0872               	movf	ADC_ConfigurePin@channel,w
  3278     013B  00F0               	movwf	??_ADC_ConfigurePin
  3279     013C  01F1               	clrf	??_ADC_ConfigurePin+1
  3280                           
  3281                           ; Switch on 2 bytes has been partitioned into a top level switch of size 1, and 1 sub-sw
      +                          itches
  3282                           ; Switch size 1, requested type "simple"
  3283                           ; Number of cases is 1, Range of values is 0 to 0
  3284                           ; switch strategies available:
  3285                           ; Name         Instructions Cycles
  3286                           ; simple_byte            4     3 (average)
  3287                           ; direct_byte            8     6 (fixed)
  3288                           ; jumptable            260     6 (fixed)
  3289                           ;	Chosen strategy is simple_byte
  3290     013D  0871               	movf	??_ADC_ConfigurePin+1,w
  3291     013E  3A00               	xorlw	0	; case 0
  3292     013F  1903               	skipnz
  3293     0140  2942               	goto	l3107
  3294     0141  2965               	goto	l142
  3295     0142                     l3107:
  3296                           
  3297                           ; Switch size 1, requested type "simple"
  3298                           ; Number of cases is 11, Range of values is 0 to 12
  3299                           ; switch strategies available:
  3300                           ; Name         Instructions Cycles
  3301                           ; direct_byte           32     6 (fixed)
  3302                           ; simple_byte           34    18 (average)
  3303                           ; jumptable            260     6 (fixed)
  3304                           ;	Chosen strategy is simple_byte
  3305     0142  0870               	movf	??_ADC_ConfigurePin,w
  3306     0143  3A00               	xorlw	0	; case 0
  3307     0144  1903               	skipnz
  3308     0145  2903               	goto	l130
  3309     0146  3A01               	xorlw	1	; case 1
  3310     0147  1903               	skipnz
  3311     0148  2908               	goto	l132
  3312     0149  3A03               	xorlw	3	; case 2
  3313     014A  1903               	skipnz
  3314     014B  290D               	goto	l133
  3315     014C  3A01               	xorlw	1	; case 3
  3316     014D  1903               	skipnz
  3317     014E  2912               	goto	l134
  3318     014F  3A07               	xorlw	7	; case 4
  3319     0150  1903               	skipnz
  3320     0151  2917               	goto	l135
  3321     0152  3A01               	xorlw	1	; case 5
  3322     0153  1903               	skipnz
  3323     0154  291C               	goto	l136
  3324     0155  3A0D               	xorlw	13	; case 8
  3325     0156  1903               	skipnz
  3326     0157  2921               	goto	l137
  3327     0158  3A01               	xorlw	1	; case 9
  3328     0159  1903               	skipnz
  3329     015A  2926               	goto	l138
  3330     015B  3A03               	xorlw	3	; case 10
  3331     015C  1903               	skipnz
  3332     015D  292B               	goto	l139
  3333     015E  3A01               	xorlw	1	; case 11
  3334     015F  1903               	skipnz
  3335     0160  2930               	goto	l140
  3336     0161  3A07               	xorlw	7	; case 12
  3337     0162  1903               	skipnz
  3338     0163  2935               	goto	l141
  3339     0164  2965               	goto	l142
  3340     0165                     l142:
  3341     0165  0008               	return
  3342     0166                     __end_of_ADC_ConfigurePin:
  3343                           
  3344                           	psect	text4
  3345     0DD8                     __ptext4:	
  3346 ;; *************** function ___lmul *****************
  3347 ;; Defined at:
  3348 ;;		line 15 in file "C:\Program Files\Microchip\xc8\v2.46\pic\sources\c99\common\Umul32.c"
  3349 ;; Parameters:    Size  Location     Type
  3350 ;;  multiplier      4    0[COMMON] unsigned long 
  3351 ;;  multiplicand    4    4[COMMON] unsigned long 
  3352 ;; Auto vars:     Size  Location     Type
  3353 ;;  product         4    8[COMMON] unsigned long 
  3354 ;; Return value:  Size  Location     Type
  3355 ;;                  4    0[COMMON] unsigned long 
  3356 ;; Registers used:
  3357 ;;		wreg, status,2, status,0
  3358 ;; Tracked objects:
  3359 ;;		On entry : 0/0
  3360 ;;		On exit  : 0/0
  3361 ;;		Unchanged: 0/0
  3362 ;; Data sizes:     COMMON   BANK0   BANK1   BANK2   BANK3   BANK4   BANK5   BANK6   BANK7   BANK8   BANK9  BANK10  BANK1
      +1  BANK12  BANK13  BANK14  BANK15  BANK16  BANK17  BANK18  BANK19  BANK20  BANK21  BANK22  BANK23  BANK24  BANK25
  3363 ;;      Params:         8       0       0       0       0       0       0       0       0       0       0       0       
      +0       0       0       0       0       0       0       0       0       0       0       0       0       0       0
  3364 ;;      Locals:         4       0       0       0       0       0       0       0       0       0       0       0       
      +0       0       0       0       0       0       0       0       0       0       0       0       0       0       0
  3365 ;;      Temps:          0       0       0       0       0       0       0       0       0       0       0       0       
      +0       0       0       0       0       0       0       0       0       0       0       0       0       0       0
  3366 ;;      Totals:        12       0       0       0       0       0       0       0       0       0       0       0       
      +0       0       0       0       0       0       0       0       0       0       0       0       0       0       0
  3367 ;;Total ram usage:       12 bytes
  3368 ;; Hardware stack levels used: 1
  3369 ;; This function calls:
  3370 ;;		Nothing
  3371 ;; This function is called by:
  3372 ;;		_main
  3373 ;; This function uses a non-reentrant model
  3374 ;;
  3375                           
  3376     0DD8                     ___lmul:	
  3377                           ;psect for function ___lmul
  3378                           
  3379     0DD8                     l2931:	
  3380                           ;incstack = 0
  3381                           ; Regs used in ___lmul: [wreg+status,2+status,0]
  3382                           
  3383     0DD8  3000               	movlw	0
  3384     0DD9  00FB               	movwf	___lmul@product+3
  3385     0DDA  3000               	movlw	0
  3386     0DDB  00FA               	movwf	___lmul@product+2
  3387     0DDC  3000               	movlw	0
  3388     0DDD  00F9               	movwf	___lmul@product+1
  3389     0DDE  3000               	movlw	0
  3390     0DDF  00F8               	movwf	___lmul@product
  3391     0DE0                     l2933:
  3392     0DE0  1C70               	btfss	___lmul@multiplier,0
  3393     0DE1  2DE3               	goto	u3031
  3394     0DE2  2DE4               	goto	u3030
  3395     0DE3                     u3031:
  3396     0DE3  2DEC               	goto	l2937
  3397     0DE4                     u3030:
  3398     0DE4                     l2935:
  3399     0DE4  0874               	movf	___lmul@multiplicand,w
  3400     0DE5  07F8               	addwf	___lmul@product,f
  3401     0DE6  0875               	movf	___lmul@multiplicand+1,w
  3402     0DE7  3DF9               	addwfc	___lmul@product+1,f
  3403     0DE8  0876               	movf	___lmul@multiplicand+2,w
  3404     0DE9  3DFA               	addwfc	___lmul@product+2,f
  3405     0DEA  0877               	movf	___lmul@multiplicand+3,w
  3406     0DEB  3DFB               	addwfc	___lmul@product+3,f
  3407     0DEC                     l2937:
  3408     0DEC  3001               	movlw	1
  3409     0DED                     u3045:
  3410     0DED  35F4               	lslf	___lmul@multiplicand,f
  3411     0DEE  0DF5               	rlf	___lmul@multiplicand+1,f
  3412     0DEF  0DF6               	rlf	___lmul@multiplicand+2,f
  3413     0DF0  0DF7               	rlf	___lmul@multiplicand+3,f
  3414     0DF1  0B89               	decfsz	9,f
  3415     0DF2  2DED               	goto	u3045
  3416     0DF3                     l2939:
  3417     0DF3  3001               	movlw	1
  3418     0DF4                     u3055:
  3419     0DF4  36F3               	lsrf	___lmul@multiplier+3,f
  3420     0DF5  0CF2               	rrf	___lmul@multiplier+2,f
  3421     0DF6  0CF1               	rrf	___lmul@multiplier+1,f
  3422     0DF7  0CF0               	rrf	___lmul@multiplier,f
  3423     0DF8  0B89               	decfsz	9,f
  3424     0DF9  2DF4               	goto	u3055
  3425     0DFA  0873               	movf	___lmul@multiplier+3,w
  3426     0DFB  0472               	iorwf	___lmul@multiplier+2,w
  3427     0DFC  0471               	iorwf	___lmul@multiplier+1,w
  3428     0DFD  0470               	iorwf	___lmul@multiplier,w
  3429     0DFE  1D03               	skipz
  3430     0DFF  2E01               	goto	u3061
  3431     0E00  2E02               	goto	u3060
  3432     0E01                     u3061:
  3433     0E01  2DE0               	goto	l2933
  3434     0E02                     u3060:
  3435     0E02                     l2941:
  3436     0E02  087B               	movf	___lmul@product+3,w
  3437     0E03  00F3               	movwf	?___lmul+3
  3438     0E04  087A               	movf	___lmul@product+2,w
  3439     0E05  00F2               	movwf	?___lmul+2
  3440     0E06  0879               	movf	___lmul@product+1,w
  3441     0E07  00F1               	movwf	?___lmul+1
  3442     0E08  0878               	movf	___lmul@product,w
  3443     0E09  00F0               	movwf	?___lmul
  3444     0E0A                     l469:
  3445     0E0A  0008               	return
  3446     0E0B                     __end_of___lmul:
  3447                           
  3448                           	psect	text5
  3449     0006                     __ptext5:	
  3450 ;; *************** function _OLED_SetOrientation *****************
  3451 ;; Defined at:
  3452 ;;		line 246 in file "OLED_SSD1306.c"
  3453 ;; Parameters:    Size  Location     Type
  3454 ;;  o               1    wreg     enum E6061
  3455 ;; Auto vars:     Size  Location     Type
  3456 ;;  o               1    9[COMMON] enum E6061
  3457 ;; Return value:  Size  Location     Type
  3458 ;;                  1    wreg      void 
  3459 ;; Registers used:
  3460 ;;		wreg, fsr0l, fsr0h, status,2, status,0, pclath, cstack
  3461 ;; Tracked objects:
  3462 ;;		On entry : 0/0
  3463 ;;		On exit  : 0/0
  3464 ;;		Unchanged: 0/0
  3465 ;; Data sizes:     COMMON   BANK0   BANK1   BANK2   BANK3   BANK4   BANK5   BANK6   BANK7   BANK8   BANK9  BANK10  BANK1
      +1  BANK12  BANK13  BANK14  BANK15  BANK16  BANK17  BANK18  BANK19  BANK20  BANK21  BANK22  BANK23  BANK24  BANK25
  3466 ;;      Params:         0       0       0       0       0       0       0       0       0       0       0       0       
      +0       0       0       0       0       0       0       0       0       0       0       0       0       0       0
  3467 ;;      Locals:         1       0       0       0       0       0       0       0       0       0       0       0       
      +0       0       0       0       0       0       0       0       0       0       0       0       0       0       0
  3468 ;;      Temps:          2       0       0       0       0       0       0       0       0       0       0       0       
      +0       0       0       0       0       0       0       0       0       0       0       0       0       0       0
  3469 ;;      Totals:         3       0       0       0       0       0       0       0       0       0       0       0       
      +0       0       0       0       0       0       0       0       0       0       0       0       0       0       0
  3470 ;;Total ram usage:        3 bytes
  3471 ;; Hardware stack levels used: 1
  3472 ;; Hardware stack levels required when called: 3
  3473 ;; This function calls:
  3474 ;;		_OLED_Command
  3475 ;; This function is called by:
  3476 ;;		_main
  3477 ;; This function uses a non-reentrant model
  3478 ;;
  3479                           
  3480     0006                     _OLED_SetOrientation:	
  3481                           ;psect for function _OLED_SetOrientation
  3482                           
  3483                           
  3484                           ;incstack = 0
  3485                           ; Regs used in _OLED_SetOrientation: [wreg-fsr0h+status,2+status,0+pclath+cstack]
  3486                           ;OLED_SetOrientation@o stored from wreg
  3487     0006  00F9               	movwf	OLED_SetOrientation@o
  3488     0007                     l2671:
  3489                           
  3490                           ;OLED_SSD1306.c: 246: void OLED_SetOrientation(oled_orient_t o);OLED_SSD1306.c: 247: {;O
      +                          LED_SSD1306.c: 248:     (void)OLED_Command(0x2E);
  3491     0007  302E               	movlw	46
  3492     0008  318D  2578  3180   	fcall	_OLED_Command
  3493                           
  3494                           ;OLED_SSD1306.c: 250:     switch (o)
  3495     000B  2830               	goto	l2683
  3496     000C                     l2673:
  3497                           
  3498                           ;OLED_SSD1306.c: 254:             (void)OLED_Command(0xA0 | 0x01);
  3499     000C  30A1               	movlw	161
  3500     000D  318D  2578  3180   	fcall	_OLED_Command
  3501                           
  3502                           ;OLED_SSD1306.c: 255:             (void)OLED_Command(0xC8);
  3503     0010  30C8               	movlw	200
  3504     0011  318D  2578  3180   	fcall	_OLED_Command
  3505                           
  3506                           ;OLED_SSD1306.c: 256:             break;
  3507     0014  2846               	goto	l224
  3508     0015                     l2675:
  3509                           
  3510                           ;OLED_SSD1306.c: 259:             (void)OLED_Command(0xA0 | 0x00);
  3511     0015  30A0               	movlw	160
  3512     0016  318D  2578  3180   	fcall	_OLED_Command
  3513                           
  3514                           ;OLED_SSD1306.c: 260:             (void)OLED_Command(0xC0);
  3515     0019  30C0               	movlw	192
  3516     001A  318D  2578  3180   	fcall	_OLED_Command
  3517                           
  3518                           ;OLED_SSD1306.c: 261:             break;
  3519     001D  2846               	goto	l224
  3520     001E                     l2677:
  3521                           
  3522                           ;OLED_SSD1306.c: 264:             (void)OLED_Command(0xA0 | 0x00);
  3523     001E  30A0               	movlw	160
  3524     001F  318D  2578  3180   	fcall	_OLED_Command
  3525                           
  3526                           ;OLED_SSD1306.c: 265:             (void)OLED_Command(0xC8);
  3527     0022  30C8               	movlw	200
  3528     0023  318D  2578  3180   	fcall	_OLED_Command
  3529                           
  3530                           ;OLED_SSD1306.c: 266:             break;
  3531     0026  2846               	goto	l224
  3532     0027                     l2679:
  3533                           
  3534                           ;OLED_SSD1306.c: 269:             (void)OLED_Command(0xA0 | 0x01);
  3535     0027  30A1               	movlw	161
  3536     0028  318D  2578  3180   	fcall	_OLED_Command
  3537                           
  3538                           ;OLED_SSD1306.c: 270:             (void)OLED_Command(0xC0);
  3539     002B  30C0               	movlw	192
  3540     002C  318D  2578  3180   	fcall	_OLED_Command
  3541                           
  3542                           ;OLED_SSD1306.c: 271:             break;
  3543     002F  2846               	goto	l224
  3544     0030                     l2683:
  3545     0030  0879               	movf	OLED_SetOrientation@o,w
  3546     0031  00F7               	movwf	??_OLED_SetOrientation
  3547     0032  01F8               	clrf	??_OLED_SetOrientation+1
  3548                           
  3549                           ; Switch on 2 bytes has been partitioned into a top level switch of size 1, and 1 sub-sw
      +                          itches
  3550                           ; Switch size 1, requested type "simple"
  3551                           ; Number of cases is 1, Range of values is 0 to 0
  3552                           ; switch strategies available:
  3553                           ; Name         Instructions Cycles
  3554                           ; simple_byte            4     3 (average)
  3555                           ; direct_byte            8     6 (fixed)
  3556                           ; jumptable            260     6 (fixed)
  3557                           ;	Chosen strategy is simple_byte
  3558     0033  0878               	movf	??_OLED_SetOrientation+1,w
  3559     0034  3A00               	xorlw	0	; case 0
  3560     0035  1903               	skipnz
  3561     0036  2838               	goto	l3109
  3562     0037  280C               	goto	l2673
  3563     0038                     l3109:
  3564                           
  3565                           ; Switch size 1, requested type "simple"
  3566                           ; Number of cases is 4, Range of values is 0 to 3
  3567                           ; switch strategies available:
  3568                           ; Name         Instructions Cycles
  3569                           ; simple_byte           13     7 (average)
  3570                           ; direct_byte           14     6 (fixed)
  3571                           ; jumptable            260     6 (fixed)
  3572                           ;	Chosen strategy is simple_byte
  3573     0038  0877               	movf	??_OLED_SetOrientation,w
  3574     0039  3A00               	xorlw	0	; case 0
  3575     003A  1903               	skipnz
  3576     003B  280C               	goto	l2673
  3577     003C  3A01               	xorlw	1	; case 1
  3578     003D  1903               	skipnz
  3579     003E  2815               	goto	l2675
  3580     003F  3A03               	xorlw	3	; case 2
  3581     0040  1903               	skipnz
  3582     0041  281E               	goto	l2677
  3583     0042  3A01               	xorlw	1	; case 3
  3584     0043  1903               	skipnz
  3585     0044  2827               	goto	l2679
  3586     0045  280C               	goto	l2673
  3587     0046                     l224:
  3588     0046  0008               	return
  3589     0047                     __end_of_OLED_SetOrientation:
  3590                           
  3591                           	psect	text6
  3592     03CD                     __ptext6:	
  3593 ;; *************** function _OLED_Printf_Line *****************
  3594 ;; Defined at:
  3595 ;;		line 424 in file "OLED_SSD1306.c"
  3596 ;; Parameters:    Size  Location     Type
  3597 ;;  line            1    wreg     unsigned char 
  3598 ;;  fmt             2   13[BANK0 ] PTR const unsigned char 
  3599 ;;		 -> STR_1(11), 
  3600 ;; Auto vars:     Size  Location     Type
  3601 ;;  line            1   66[BANK1 ] unsigned char 
  3602 ;;  nibble          1   53[BANK1 ] unsigned char 
  3603 ;;  temp           11   40[BANK0 ] unsigned char [11]
  3604 ;;  val             4   60[BANK1 ] long 
  3605 ;;  i               1   57[BANK1 ] unsigned char 
  3606 ;;  temp           11   29[BANK0 ] unsigned char [11]
  3607 ;;  val             4   47[BANK1 ] unsigned long 
  3608 ;;  i               1   56[BANK1 ] unsigned char 
  3609 ;;  str             1   59[BANK0 ] PTR const unsigned char 
  3610 ;;		 -> ?_OLED_Printf_Line(1), 
  3611 ;;  temp            5   38[BANK1 ] unsigned char [5]
  3612 ;;  val             2   43[BANK1 ] unsigned short 
  3613 ;;  i               1   59[BANK1 ] unsigned char 
  3614 ;;  temp            6   32[BANK1 ] unsigned char [6]
  3615 ;;  val             2   51[BANK1 ] unsigned short 
  3616 ;;  i               1   58[BANK1 ] unsigned char 
  3617 ;;  temp            6   51[BANK0 ] unsigned char [6]
  3618 ;;  val             2   64[BANK1 ] short 
  3619 ;;  i               1   55[BANK1 ] unsigned char 
  3620 ;;  ch              1   54[BANK1 ] unsigned char 
  3621 ;;  p               1   46[BANK1 ] PTR const unsigned char 
  3622 ;;		 -> OLED_Printf_Line@buf(32), 
  3623 ;;  buf            32    0[BANK1 ] unsigned char [32]
  3624 ;;  src             2   68[BANK1 ] PTR const unsigned char 
  3625 ;;		 -> STR_1(11), 
  3626 ;;  dst             1   70[BANK1 ] PTR unsigned char 
  3627 ;;		 -> OLED_Printf_Line@buf(32), 
  3628 ;;  ap              1   67[BANK1 ] PTR void [1]
  3629 ;;		 -> ?_OLED_Printf_Line(1), 
  3630 ;;  col             1   45[BANK1 ] unsigned char 
  3631 ;; Return value:  Size  Location     Type
  3632 ;;                  1    wreg      void 
  3633 ;; Registers used:
  3634 ;;		wreg, fsr0l, fsr0h, fsr1l, fsr1h, status,2, status,0, pclath, cstack
  3635 ;; Tracked objects:
  3636 ;;		On entry : 0/0
  3637 ;;		On exit  : 0/0
  3638 ;;		Unchanged: 0/0
  3639 ;; Data sizes:     COMMON   BANK0   BANK1   BANK2   BANK3   BANK4   BANK5   BANK6   BANK7   BANK8   BANK9  BANK10  BANK1
      +1  BANK12  BANK13  BANK14  BANK15  BANK16  BANK17  BANK18  BANK19  BANK20  BANK21  BANK22  BANK23  BANK24  BANK25
  3640 ;;      Params:         0       4       0       0       0       0       0       0       0       0       0       0       
      +0       0       0       0       0       0       0       0       0       0       0       0       0       0       0
  3641 ;;      Locals:         0      31      71       0       0       0       0       0       0       0       0       0       
      +0       0       0       0       0       0       0       0       0       0       0       0       0       0       0
  3642 ;;      Temps:          0      12       0       0       0       0       0       0       0       0       0       0       
      +0       0       0       0       0       0       0       0       0       0       0       0       0       0       0
  3643 ;;      Totals:         0      47      71       0       0       0       0       0       0       0       0       0       
      +0       0       0       0       0       0       0       0       0       0       0       0       0       0       0
  3644 ;;Total ram usage:      118 bytes
  3645 ;; Hardware stack levels used: 1
  3646 ;; Hardware stack levels required when called: 5
  3647 ;; This function calls:
  3648 ;;		_OLED_UpdateLine
  3649 ;;		___aldiv
  3650 ;;		___almod
  3651 ;;		___awdiv
  3652 ;;		___awmod
  3653 ;;		___lldiv
  3654 ;;		___llmod
  3655 ;;		___lwdiv
  3656 ;;		___lwmod
  3657 ;;		_memcpy
  3658 ;;		_memset
  3659 ;;		_strcmp
  3660 ;;		_strcpy
  3661 ;; This function is called by:
  3662 ;;		_main
  3663 ;; This function uses a non-reentrant model
  3664 ;;
  3665                           
  3666     03CD                     _OLED_Printf_Line:	
  3667                           ;psect for function _OLED_Printf_Line
  3668                           
  3669                           
  3670                           ;incstack = 0
  3671                           ; Regs used in _OLED_Printf_Line: [wreg-fsr1h+status,2+status,0+pclath+cstack]
  3672                           ;OLED_Printf_Line@line stored from wreg
  3673     03CD  0021               	movlb	1	; select bank1
  3674     03CE  00E2               	movwf	OLED_Printf_Line@line^(0+128)
  3675     03CF                     l2689:
  3676                           
  3677                           ;OLED_SSD1306.c: 424: void OLED_Printf_Line(uint8_t line, const char* fmt, ...);OLED_SSD
      +                          1306.c: 425: {;OLED_SSD1306.c: 426:     static char last_text[8][32];;OLED_SSD1306.c: 42
      +                          7:     char buf[32];;OLED_SSD1306.c: 428:     char *dst = buf;
  3678     03CF  30A0               	movlw	(low (OLED_Printf_Line@buf| 0))& (0+255)
  3679     03D0  00E6               	movwf	OLED_Printf_Line@dst^(0+128)
  3680                           
  3681                           ;OLED_SSD1306.c: 429:     const char *src = fmt;
  3682     03D1  0020               	movlb	0	; select bank0
  3683     03D2  082E               	movf	OLED_Printf_Line@fmt+1,w
  3684     03D3  0021               	movlb	1	; select bank1
  3685     03D4  00E5               	movwf	(OLED_Printf_Line@src+1)^(0+128)
  3686     03D5  0020               	movlb	0	; select bank0
  3687     03D6  082D               	movf	OLED_Printf_Line@fmt,w
  3688     03D7  0021               	movlb	1	; select bank1
  3689     03D8  00E4               	movwf	OLED_Printf_Line@src^(0+128)
  3690                           
  3691                           ;OLED_SSD1306.c: 431:     if (line >= (32 / 8)) return;
  3692     03D9  3004               	movlw	4
  3693     03DA  0262               	subwf	OLED_Printf_Line@line^(0+128),w
  3694     03DB  1C03               	skipc
  3695     03DC  2BDE               	goto	u2671
  3696     03DD  2BDF               	goto	u2670
  3697     03DE                     u2671:
  3698     03DE  2BE0               	goto	l2693
  3699     03DF                     u2670:
  3700     03DF  2FF1               	goto	l262
  3701     03E0                     l2693:
  3702                           
  3703                           ;OLED_SSD1306.c: 433:     va_list ap;;OLED_SSD1306.c: 434:     *ap = __va_start();
  3704     03E0  302F               	movlw	(low ((?_OLED_Printf_Line| 0+2)))& (0+255)
  3705     03E1  00E3               	movwf	OLED_Printf_Line@ap^(0+128)
  3706                           
  3707                           ;OLED_SSD1306.c: 437:     while (*src && (dst - buf) < 31) {
  3708     03E2  2F01               	goto	l2893
  3709     03E3                     l2695:
  3710                           
  3711                           ;OLED_SSD1306.c: 438:         if (*src == '%') {
  3712     03E3  0864               	movf	OLED_Printf_Line@src^(0+128),w
  3713     03E4  0084               	movwf	4
  3714     03E5  0865               	movf	(OLED_Printf_Line@src+1)^(0+128),w
  3715     03E6  0085               	movwf	5
  3716     03E7  0012               	moviw fsr0++
  3717     03E8  3A25               	xorlw	37
  3718     03E9  1D03               	btfss	3,2
  3719     03EA  2BEC               	goto	u2681
  3720     03EB  2BED               	goto	u2680
  3721     03EC                     u2681:
  3722     03EC  2EEE               	goto	l2887
  3723     03ED                     u2680:
  3724     03ED                     l2697:
  3725                           
  3726                           ;OLED_SSD1306.c: 439:             src++;
  3727     03ED  3001               	movlw	1
  3728     03EE  07E4               	addwf	OLED_Printf_Line@src^(0+128),f
  3729     03EF  3000               	movlw	0
  3730     03F0  3DE5               	addwfc	(OLED_Printf_Line@src+1)^(0+128),f
  3731                           
  3732                           ;OLED_SSD1306.c: 440:             switch (*src) {
  3733     03F1  2ECD               	goto	l2883
  3734     03F2                     l2699:
  3735                           
  3736                           ;OLED_SSD1306.c: 442:                     int16_t val = (*(int *)__va_arg(*(int **)ap, (
      +                          int)0));
  3737     03F2  0863               	movf	OLED_Printf_Line@ap^(0+128),w
  3738     03F3  0086               	movwf	6
  3739     03F4  0187               	clrf	7
  3740     03F5  3F40               	moviw [0]fsr1
  3741     03F6  00E0               	movwf	OLED_Printf_Line@val^(0+128)
  3742     03F7  3F41               	moviw [1]fsr1
  3743     03F8  00E1               	movwf	(OLED_Printf_Line@val+1)^(0+128)
  3744     03F9                     l2701:
  3745     03F9  3002               	movlw	2
  3746     03FA  0020               	movlb	0	; select bank0
  3747     03FB  00B1               	movwf	??_OLED_Printf_Line
  3748     03FC  0831               	movf	??_OLED_Printf_Line,w
  3749     03FD  0021               	movlb	1	; select bank1
  3750     03FE  07E3               	addwf	OLED_Printf_Line@ap^(0+128),f
  3751     03FF                     l2703:
  3752                           
  3753                           ;OLED_SSD1306.c: 443:                     if (val < 0) {
  3754     03FF  1FE1               	btfss	(OLED_Printf_Line@val+1)^(0+128),7
  3755     0400  2C02               	goto	u2691
  3756     0401  2C03               	goto	u2690
  3757     0402                     u2691:
  3758     0402  2C13               	goto	l2711
  3759     0403                     u2690:
  3760     0403                     l2705:
  3761                           
  3762                           ;OLED_SSD1306.c: 444:                         *dst++ = '-';
  3763     0403  0866               	movf	OLED_Printf_Line@dst^(0+128),w
  3764     0404  0086               	movwf	6
  3765     0405  0187               	clrf	7
  3766     0406  302D               	movlw	45
  3767     0407  0081               	movwf	1
  3768     0408                     l2707:
  3769     0408  3001               	movlw	1
  3770     0409  0020               	movlb	0	; select bank0
  3771     040A  00B1               	movwf	??_OLED_Printf_Line
  3772     040B  0831               	movf	??_OLED_Printf_Line,w
  3773     040C  0021               	movlb	1	; select bank1
  3774     040D  07E6               	addwf	OLED_Printf_Line@dst^(0+128),f
  3775     040E                     l2709:
  3776                           
  3777                           ;OLED_SSD1306.c: 445:                         val = -val;
  3778     040E  09E0               	comf	OLED_Printf_Line@val^(0+128),f
  3779     040F  09E1               	comf	(OLED_Printf_Line@val+1)^(0+128),f
  3780     0410  0AE0               	incf	OLED_Printf_Line@val^(0+128),f
  3781     0411  1903               	skipnz
  3782     0412  0AE1               	incf	(OLED_Printf_Line@val+1)^(0+128),f
  3783     0413                     l2711:
  3784                           
  3785                           ;OLED_SSD1306.c: 448:                     char temp[6];;OLED_SSD1306.c: 449:            
      +                                   uint8_t i = 0;
  3786     0413  01D7               	clrf	OLED_Printf_Line@i^(0+128)
  3787     0414                     l2713:
  3788                           
  3789                           ;OLED_SSD1306.c: 451:                         temp[i++] = '0' + (val % 10);
  3790     0414  0857               	movf	OLED_Printf_Line@i^(0+128),w
  3791     0415  3E53               	addlw	(low (OLED_Printf_Line@temp| 0))& (0+255)
  3792     0416  0086               	movwf	6
  3793     0417  0187               	clrf	7
  3794     0418  300A               	movlw	10
  3795     0419  00F0               	movwf	___awmod@divisor
  3796     041A  3000               	movlw	0
  3797     041B  00F1               	movwf	___awmod@divisor+1
  3798     041C  0861               	movf	(OLED_Printf_Line@val+1)^(0+128),w
  3799     041D  00F3               	movwf	___awmod@dividend+1
  3800     041E  0860               	movf	OLED_Printf_Line@val^(0+128),w
  3801     041F  00F2               	movwf	___awmod@dividend
  3802     0420  318F  27AD  3183   	fcall	___awmod
  3803     0423  0870               	movf	?___awmod,w
  3804     0424  3E30               	addlw	48
  3805     0425  0081               	movwf	1
  3806     0426                     l2715:
  3807     0426  3001               	movlw	1
  3808     0427  0020               	movlb	0	; select bank0
  3809     0428  00B1               	movwf	??_OLED_Printf_Line
  3810     0429  0831               	movf	??_OLED_Printf_Line,w
  3811     042A  0021               	movlb	1	; select bank1
  3812     042B  07D7               	addwf	OLED_Printf_Line@i^(0+128),f
  3813     042C                     l2717:
  3814                           
  3815                           ;OLED_SSD1306.c: 452:                         val /= 10;
  3816     042C  300A               	movlw	10
  3817     042D  00F0               	movwf	___awdiv@divisor
  3818     042E  3000               	movlw	0
  3819     042F  00F1               	movwf	___awdiv@divisor+1
  3820     0430  0861               	movf	(OLED_Printf_Line@val+1)^(0+128),w
  3821     0431  00F3               	movwf	___awdiv@dividend+1
  3822     0432  0860               	movf	OLED_Printf_Line@val^(0+128),w
  3823     0433  00F2               	movwf	___awdiv@dividend
  3824     0434  3180  20A2  3183   	fcall	___awdiv
  3825     0437  0871               	movf	?___awdiv+1,w
  3826     0438  0021               	movlb	1	; select bank1
  3827     0439  00E1               	movwf	(OLED_Printf_Line@val+1)^(0+128)
  3828     043A  0870               	movf	?___awdiv,w
  3829     043B  00E0               	movwf	OLED_Printf_Line@val^(0+128)
  3830     043C                     l2719:
  3831                           
  3832                           ;OLED_SSD1306.c: 453:                     } while (val && i < 6);
  3833     043C  0860               	movf	OLED_Printf_Line@val^(0+128),w
  3834     043D  0461               	iorwf	(OLED_Printf_Line@val+1)^(0+128),w
  3835     043E  1903               	btfsc	3,2
  3836     043F  2C41               	goto	u2701
  3837     0440  2C42               	goto	u2700
  3838     0441                     u2701:
  3839     0441  2C58               	goto	l2727
  3840     0442                     u2700:
  3841     0442                     l2721:
  3842     0442  3006               	movlw	6
  3843     0443  0257               	subwf	OLED_Printf_Line@i^(0+128),w
  3844     0444  1C03               	skipc
  3845     0445  2C47               	goto	u2711
  3846     0446  2C48               	goto	u2710
  3847     0447                     u2711:
  3848     0447  2C14               	goto	l2713
  3849     0448                     u2710:
  3850     0448  2C58               	goto	l2727
  3851     0449                     l2723:
  3852     0449  0866               	movf	OLED_Printf_Line@dst^(0+128),w
  3853     044A  0086               	movwf	6
  3854     044B  0187               	clrf	7
  3855     044C  0857               	movf	OLED_Printf_Line@i^(0+128),w
  3856     044D  3E53               	addlw	(low (OLED_Printf_Line@temp| 0))& (0+255)
  3857     044E  0084               	movwf	4
  3858     044F  0185               	clrf	5
  3859     0450  0800               	movf	0,w
  3860     0451  0081               	movwf	1
  3861     0452                     l2725:
  3862     0452  3001               	movlw	1
  3863     0453  0020               	movlb	0	; select bank0
  3864     0454  00B1               	movwf	??_OLED_Printf_Line
  3865     0455  0831               	movf	??_OLED_Printf_Line,w
  3866     0456  0021               	movlb	1	; select bank1
  3867     0457  07E6               	addwf	OLED_Printf_Line@dst^(0+128),f
  3868     0458                     l2727:
  3869     0458  3001               	movlw	1
  3870     0459  02D7               	subwf	OLED_Printf_Line@i^(0+128),f
  3871     045A  0A57               	incf	OLED_Printf_Line@i^(0+128),w
  3872     045B  1D03               	btfss	3,2
  3873     045C  2C5E               	goto	u2721
  3874     045D  2C5F               	goto	u2720
  3875     045E                     u2721:
  3876     045E  2C49               	goto	l2723
  3877     045F                     u2720:
  3878     045F  2EE8               	goto	l2885
  3879     0460                     l2729:
  3880                           
  3881                           ;OLED_SSD1306.c: 458:                     src++;
  3882     0460  3001               	movlw	1
  3883     0461  07E4               	addwf	OLED_Printf_Line@src^(0+128),f
  3884     0462  3000               	movlw	0
  3885     0463  3DE5               	addwfc	(OLED_Printf_Line@src+1)^(0+128),f
  3886     0464                     l2731:
  3887                           
  3888                           ;OLED_SSD1306.c: 459:                     if (*src == 'u') {
  3889     0464  0864               	movf	OLED_Printf_Line@src^(0+128),w
  3890     0465  0084               	movwf	4
  3891     0466  0865               	movf	(OLED_Printf_Line@src+1)^(0+128),w
  3892     0467  0085               	movwf	5
  3893     0468  0012               	moviw fsr0++
  3894     0469  3A75               	xorlw	117
  3895     046A  1D03               	btfss	3,2
  3896     046B  2C6D               	goto	u2731
  3897     046C  2C6E               	goto	u2730
  3898     046D                     u2731:
  3899     046D  2CF2               	goto	l2755
  3900     046E                     u2730:
  3901     046E                     l2733:
  3902                           
  3903                           ;OLED_SSD1306.c: 460:                         uint32_t val = (*(uint32_t *)__va_arg(*(ui
      +                          nt32_t **)ap, (uint32_t)0));
  3904     046E  0863               	movf	OLED_Printf_Line@ap^(0+128),w
  3905     046F  0086               	movwf	6
  3906     0470  0187               	clrf	7
  3907     0471  3F40               	moviw [0]fsr1
  3908     0472  00CF               	movwf	OLED_Printf_Line@val_701^(0+128)
  3909     0473  3F41               	moviw [1]fsr1
  3910     0474  00D0               	movwf	(OLED_Printf_Line@val_701+1)^(0+128)
  3911     0475  3F42               	moviw [2]fsr1
  3912     0476  00D1               	movwf	(OLED_Printf_Line@val_701+2)^(0+128)
  3913     0477  3F43               	moviw [3]fsr1
  3914     0478  00D2               	movwf	(OLED_Printf_Line@val_701+3)^(0+128)
  3915     0479                     l2735:
  3916     0479  3004               	movlw	4
  3917     047A  0020               	movlb	0	; select bank0
  3918     047B  00B1               	movwf	??_OLED_Printf_Line
  3919     047C  0831               	movf	??_OLED_Printf_Line,w
  3920     047D  0021               	movlb	1	; select bank1
  3921     047E  07E3               	addwf	OLED_Printf_Line@ap^(0+128),f
  3922     047F                     l2737:
  3923                           
  3924                           ;OLED_SSD1306.c: 461:                         char temp[11];;OLED_SSD1306.c: 462:       
      +                                            uint8_t i = 0;
  3925     047F  01D8               	clrf	OLED_Printf_Line@i_703^(0+128)
  3926     0480                     l2739:
  3927                           
  3928                           ;OLED_SSD1306.c: 464:                             temp[i++] = '0' + (val % 10);
  3929     0480  0858               	movf	OLED_Printf_Line@i_703^(0+128),w
  3930     0481  3E3D               	addlw	(low (OLED_Printf_Line@temp_702| 0))& (0+255)
  3931     0482  0086               	movwf	6
  3932     0483  0187               	clrf	7
  3933     0484  3000               	movlw	0
  3934     0485  00F3               	movwf	___llmod@divisor+3
  3935     0486  3000               	movlw	0
  3936     0487  00F2               	movwf	___llmod@divisor+2
  3937     0488  3000               	movlw	0
  3938     0489  00F1               	movwf	___llmod@divisor+1
  3939     048A  300A               	movlw	10
  3940     048B  00F0               	movwf	___llmod@divisor
  3941     048C  0852               	movf	(OLED_Printf_Line@val_701+3)^(0+128),w
  3942     048D  00F7               	movwf	___llmod@dividend+3
  3943     048E  0851               	movf	(OLED_Printf_Line@val_701+2)^(0+128),w
  3944     048F  00F6               	movwf	___llmod@dividend+2
  3945     0490  0850               	movf	(OLED_Printf_Line@val_701+1)^(0+128),w
  3946     0491  00F5               	movwf	___llmod@dividend+1
  3947     0492  084F               	movf	OLED_Printf_Line@val_701^(0+128),w
  3948     0493  00F4               	movwf	___llmod@dividend
  3949     0494  318E  267B  3183   	fcall	___llmod
  3950     0497  0870               	movf	?___llmod,w
  3951     0498  3E30               	addlw	48
  3952     0499  0081               	movwf	1
  3953     049A                     l2741:
  3954     049A  3001               	movlw	1
  3955     049B  0020               	movlb	0	; select bank0
  3956     049C  00B1               	movwf	??_OLED_Printf_Line
  3957     049D  0831               	movf	??_OLED_Printf_Line,w
  3958     049E  0021               	movlb	1	; select bank1
  3959     049F  07D8               	addwf	OLED_Printf_Line@i_703^(0+128),f
  3960     04A0                     l2743:
  3961                           
  3962                           ;OLED_SSD1306.c: 465:                             val /= 10;
  3963     04A0  3000               	movlw	0
  3964     04A1  0020               	movlb	0	; select bank0
  3965     04A2  00A3               	movwf	___lldiv@divisor+3
  3966     04A3  3000               	movlw	0
  3967     04A4  00A2               	movwf	___lldiv@divisor+2
  3968     04A5  3000               	movlw	0
  3969     04A6  00A1               	movwf	___lldiv@divisor+1
  3970     04A7  300A               	movlw	10
  3971     04A8  00A0               	movwf	___lldiv@divisor
  3972     04A9  0021               	movlb	1	; select bank1
  3973     04AA  0852               	movf	(OLED_Printf_Line@val_701+3)^(0+128),w
  3974     04AB  0020               	movlb	0	; select bank0
  3975     04AC  00A7               	movwf	___lldiv@dividend+3
  3976     04AD  0021               	movlb	1	; select bank1
  3977     04AE  0851               	movf	(OLED_Printf_Line@val_701+2)^(0+128),w
  3978     04AF  0020               	movlb	0	; select bank0
  3979     04B0  00A6               	movwf	___lldiv@dividend+2
  3980     04B1  0021               	movlb	1	; select bank1
  3981     04B2  0850               	movf	(OLED_Printf_Line@val_701+1)^(0+128),w
  3982     04B3  0020               	movlb	0	; select bank0
  3983     04B4  00A5               	movwf	___lldiv@dividend+1
  3984     04B5  0021               	movlb	1	; select bank1
  3985     04B6  084F               	movf	OLED_Printf_Line@val_701^(0+128),w
  3986     04B7  0020               	movlb	0	; select bank0
  3987     04B8  00A4               	movwf	___lldiv@dividend
  3988     04B9  3180  2047  3183   	fcall	___lldiv
  3989     04BC  0020               	movlb	0	; select bank0
  3990     04BD  0823               	movf	?___lldiv+3,w
  3991     04BE  0021               	movlb	1	; select bank1
  3992     04BF  00D2               	movwf	(OLED_Printf_Line@val_701+3)^(0+128)
  3993     04C0  0020               	movlb	0	; select bank0
  3994     04C1  0822               	movf	?___lldiv+2,w
  3995     04C2  0021               	movlb	1	; select bank1
  3996     04C3  00D1               	movwf	(OLED_Printf_Line@val_701+2)^(0+128)
  3997     04C4  0020               	movlb	0	; select bank0
  3998     04C5  0821               	movf	?___lldiv+1,w
  3999     04C6  0021               	movlb	1	; select bank1
  4000     04C7  00D0               	movwf	(OLED_Printf_Line@val_701+1)^(0+128)
  4001     04C8  0020               	movlb	0	; select bank0
  4002     04C9  0820               	movf	?___lldiv,w
  4003     04CA  0021               	movlb	1	; select bank1
  4004     04CB  00CF               	movwf	OLED_Printf_Line@val_701^(0+128)
  4005     04CC                     l2745:
  4006                           
  4007                           ;OLED_SSD1306.c: 466:                         } while (val && i < 11);
  4008     04CC  0852               	movf	(OLED_Printf_Line@val_701+3)^(0+128),w
  4009     04CD  0451               	iorwf	(OLED_Printf_Line@val_701+2)^(0+128),w
  4010     04CE  0450               	iorwf	(OLED_Printf_Line@val_701+1)^(0+128),w
  4011     04CF  044F               	iorwf	OLED_Printf_Line@val_701^(0+128),w
  4012     04D0  1903               	skipnz
  4013     04D1  2CD3               	goto	u2741
  4014     04D2  2CD4               	goto	u2740
  4015     04D3                     u2741:
  4016     04D3  2CEA               	goto	l2753
  4017     04D4                     u2740:
  4018     04D4                     l2747:
  4019     04D4  300B               	movlw	11
  4020     04D5  0258               	subwf	OLED_Printf_Line@i_703^(0+128),w
  4021     04D6  1C03               	skipc
  4022     04D7  2CD9               	goto	u2751
  4023     04D8  2CDA               	goto	u2750
  4024     04D9                     u2751:
  4025     04D9  2C80               	goto	l2739
  4026     04DA                     u2750:
  4027     04DA  2CEA               	goto	l2753
  4028     04DB                     l2749:
  4029     04DB  0866               	movf	OLED_Printf_Line@dst^(0+128),w
  4030     04DC  0086               	movwf	6
  4031     04DD  0187               	clrf	7
  4032     04DE  0858               	movf	OLED_Printf_Line@i_703^(0+128),w
  4033     04DF  3E3D               	addlw	(low (OLED_Printf_Line@temp_702| 0))& (0+255)
  4034     04E0  0084               	movwf	4
  4035     04E1  0185               	clrf	5
  4036     04E2  0800               	movf	0,w
  4037     04E3  0081               	movwf	1
  4038     04E4                     l2751:
  4039     04E4  3001               	movlw	1
  4040     04E5  0020               	movlb	0	; select bank0
  4041     04E6  00B1               	movwf	??_OLED_Printf_Line
  4042     04E7  0831               	movf	??_OLED_Printf_Line,w
  4043     04E8  0021               	movlb	1	; select bank1
  4044     04E9  07E6               	addwf	OLED_Printf_Line@dst^(0+128),f
  4045     04EA                     l2753:
  4046     04EA  3001               	movlw	1
  4047     04EB  02D8               	subwf	OLED_Printf_Line@i_703^(0+128),f
  4048     04EC  0A58               	incf	OLED_Printf_Line@i_703^(0+128),w
  4049     04ED  1D03               	btfss	3,2
  4050     04EE  2CF0               	goto	u2761
  4051     04EF  2CF1               	goto	u2760
  4052     04F0                     u2761:
  4053     04F0  2CDB               	goto	l2749
  4054     04F1                     u2760:
  4055     04F1  2DAF               	goto	l2797
  4056     04F2                     l2755:
  4057     04F2  0864               	movf	OLED_Printf_Line@src^(0+128),w
  4058     04F3  0084               	movwf	4
  4059     04F4  0865               	movf	(OLED_Printf_Line@src+1)^(0+128),w
  4060     04F5  0085               	movwf	5
  4061     04F6  0012               	moviw fsr0++
  4062     04F7  3A64               	xorlw	100
  4063     04F8  1D03               	btfss	3,2
  4064     04F9  2CFB               	goto	u2771
  4065     04FA  2CFC               	goto	u2770
  4066     04FB                     u2771:
  4067     04FB  2D8A               	goto	l2787
  4068     04FC                     u2770:
  4069     04FC                     l2757:
  4070                           
  4071                           ;OLED_SSD1306.c: 469:                         int32_t val = (*(int32_t *)__va_arg(*(int3
      +                          2_t **)ap, (int32_t)0));
  4072     04FC  0863               	movf	OLED_Printf_Line@ap^(0+128),w
  4073     04FD  0086               	movwf	6
  4074     04FE  0187               	clrf	7
  4075     04FF  3F40               	moviw [0]fsr1
  4076     0500  00DC               	movwf	OLED_Printf_Line@val_704^(0+128)
  4077     0501  3F41               	moviw [1]fsr1
  4078     0502  00DD               	movwf	(OLED_Printf_Line@val_704+1)^(0+128)
  4079     0503  3F42               	moviw [2]fsr1
  4080     0504  00DE               	movwf	(OLED_Printf_Line@val_704+2)^(0+128)
  4081     0505  3F43               	moviw [3]fsr1
  4082     0506  00DF               	movwf	(OLED_Printf_Line@val_704+3)^(0+128)
  4083     0507                     l2759:
  4084     0507  3004               	movlw	4
  4085     0508  0020               	movlb	0	; select bank0
  4086     0509  00B1               	movwf	??_OLED_Printf_Line
  4087     050A  0831               	movf	??_OLED_Printf_Line,w
  4088     050B  0021               	movlb	1	; select bank1
  4089     050C  07E3               	addwf	OLED_Printf_Line@ap^(0+128),f
  4090     050D                     l2761:
  4091                           
  4092                           ;OLED_SSD1306.c: 470:                         if (val < 0) {
  4093     050D  1FDF               	btfss	(OLED_Printf_Line@val_704+3)^(0+128),7
  4094     050E  2D10               	goto	u2781
  4095     050F  2D11               	goto	u2780
  4096     0510                     u2781:
  4097     0510  2D27               	goto	l2769
  4098     0511                     u2780:
  4099     0511                     l2763:
  4100                           
  4101                           ;OLED_SSD1306.c: 471:                             *dst++ = '-';
  4102     0511  0866               	movf	OLED_Printf_Line@dst^(0+128),w
  4103     0512  0086               	movwf	6
  4104     0513  0187               	clrf	7
  4105     0514  302D               	movlw	45
  4106     0515  0081               	movwf	1
  4107     0516                     l2765:
  4108     0516  3001               	movlw	1
  4109     0517  0020               	movlb	0	; select bank0
  4110     0518  00B1               	movwf	??_OLED_Printf_Line
  4111     0519  0831               	movf	??_OLED_Printf_Line,w
  4112     051A  0021               	movlb	1	; select bank1
  4113     051B  07E6               	addwf	OLED_Printf_Line@dst^(0+128),f
  4114     051C                     l2767:
  4115                           
  4116                           ;OLED_SSD1306.c: 472:                             val = -val;
  4117     051C  09DC               	comf	OLED_Printf_Line@val_704^(0+128),f
  4118     051D  09DD               	comf	(OLED_Printf_Line@val_704+1)^(0+128),f
  4119     051E  09DE               	comf	(OLED_Printf_Line@val_704+2)^(0+128),f
  4120     051F  09DF               	comf	(OLED_Printf_Line@val_704+3)^(0+128),f
  4121     0520  0ADC               	incf	OLED_Printf_Line@val_704^(0+128),f
  4122     0521  1903               	skipnz
  4123     0522  0ADD               	incf	(OLED_Printf_Line@val_704+1)^(0+128),f
  4124     0523  1903               	skipnz
  4125     0524  0ADE               	incf	(OLED_Printf_Line@val_704+2)^(0+128),f
  4126     0525  1903               	skipnz
  4127     0526  0ADF               	incf	(OLED_Printf_Line@val_704+3)^(0+128),f
  4128     0527                     l2769:
  4129                           
  4130                           ;OLED_SSD1306.c: 474:                         char temp[11];;OLED_SSD1306.c: 475:       
      +                                            uint8_t i = 0;
  4131     0527  01D9               	clrf	OLED_Printf_Line@i_706^(0+128)
  4132     0528                     l2771:
  4133                           
  4134                           ;OLED_SSD1306.c: 477:                             temp[i++] = '0' + (val % 10);
  4135     0528  0859               	movf	OLED_Printf_Line@i_706^(0+128),w
  4136     0529  3E48               	addlw	(low (OLED_Printf_Line@temp_705| 0))& (0+255)
  4137     052A  0086               	movwf	6
  4138     052B  0187               	clrf	7
  4139     052C  3000               	movlw	0
  4140     052D  00F3               	movwf	___almod@divisor+3
  4141     052E  3000               	movlw	0
  4142     052F  00F2               	movwf	___almod@divisor+2
  4143     0530  3000               	movlw	0
  4144     0531  00F1               	movwf	___almod@divisor+1
  4145     0532  300A               	movlw	10
  4146     0533  00F0               	movwf	___almod@divisor
  4147     0534  085F               	movf	(OLED_Printf_Line@val_704+3)^(0+128),w
  4148     0535  00F7               	movwf	___almod@dividend+3
  4149     0536  085E               	movf	(OLED_Printf_Line@val_704+2)^(0+128),w
  4150     0537  00F6               	movwf	___almod@dividend+2
  4151     0538  085D               	movf	(OLED_Printf_Line@val_704+1)^(0+128),w
  4152     0539  00F5               	movwf	___almod@dividend+1
  4153     053A  085C               	movf	OLED_Printf_Line@val_704^(0+128),w
  4154     053B  00F4               	movwf	___almod@dividend
  4155     053C  3182  2247  3183   	fcall	___almod
  4156     053F  0870               	movf	?___almod,w
  4157     0540  3E30               	addlw	48
  4158     0541  0081               	movwf	1
  4159     0542                     l2773:
  4160     0542  3001               	movlw	1
  4161     0543  0020               	movlb	0	; select bank0
  4162     0544  00B1               	movwf	??_OLED_Printf_Line
  4163     0545  0831               	movf	??_OLED_Printf_Line,w
  4164     0546  0021               	movlb	1	; select bank1
  4165     0547  07D9               	addwf	OLED_Printf_Line@i_706^(0+128),f
  4166     0548                     l2775:
  4167                           
  4168                           ;OLED_SSD1306.c: 478:                             val /= 10;
  4169     0548  3000               	movlw	0
  4170     0549  00F3               	movwf	___aldiv@divisor+3
  4171     054A  3000               	movlw	0
  4172     054B  00F2               	movwf	___aldiv@divisor+2
  4173     054C  3000               	movlw	0
  4174     054D  00F1               	movwf	___aldiv@divisor+1
  4175     054E  300A               	movlw	10
  4176     054F  00F0               	movwf	___aldiv@divisor
  4177     0550  085F               	movf	(OLED_Printf_Line@val_704+3)^(0+128),w
  4178     0551  00F7               	movwf	___aldiv@dividend+3
  4179     0552  085E               	movf	(OLED_Printf_Line@val_704+2)^(0+128),w
  4180     0553  00F6               	movwf	___aldiv@dividend+2
  4181     0554  085D               	movf	(OLED_Printf_Line@val_704+1)^(0+128),w
  4182     0555  00F5               	movwf	___aldiv@dividend+1
  4183     0556  085C               	movf	OLED_Printf_Line@val_704^(0+128),w
  4184     0557  00F4               	movwf	___aldiv@dividend
  4185     0558  3183  233D  3183   	fcall	___aldiv
  4186     055B  0873               	movf	?___aldiv+3,w
  4187     055C  0021               	movlb	1	; select bank1
  4188     055D  00DF               	movwf	(OLED_Printf_Line@val_704+3)^(0+128)
  4189     055E  0872               	movf	?___aldiv+2,w
  4190     055F  00DE               	movwf	(OLED_Printf_Line@val_704+2)^(0+128)
  4191     0560  0871               	movf	?___aldiv+1,w
  4192     0561  00DD               	movwf	(OLED_Printf_Line@val_704+1)^(0+128)
  4193     0562  0870               	movf	?___aldiv,w
  4194     0563  00DC               	movwf	OLED_Printf_Line@val_704^(0+128)
  4195     0564                     l2777:
  4196                           
  4197                           ;OLED_SSD1306.c: 479:                         } while (val && i < 11);
  4198     0564  085F               	movf	(OLED_Printf_Line@val_704+3)^(0+128),w
  4199     0565  045E               	iorwf	(OLED_Printf_Line@val_704+2)^(0+128),w
  4200     0566  045D               	iorwf	(OLED_Printf_Line@val_704+1)^(0+128),w
  4201     0567  045C               	iorwf	OLED_Printf_Line@val_704^(0+128),w
  4202     0568  1903               	skipnz
  4203     0569  2D6B               	goto	u2791
  4204     056A  2D6C               	goto	u2790
  4205     056B                     u2791:
  4206     056B  2D82               	goto	l2785
  4207     056C                     u2790:
  4208     056C                     l2779:
  4209     056C  300B               	movlw	11
  4210     056D  0259               	subwf	OLED_Printf_Line@i_706^(0+128),w
  4211     056E  1C03               	skipc
  4212     056F  2D71               	goto	u2801
  4213     0570  2D72               	goto	u2800
  4214     0571                     u2801:
  4215     0571  2D28               	goto	l2771
  4216     0572                     u2800:
  4217     0572  2D82               	goto	l2785
  4218     0573                     l2781:
  4219     0573  0866               	movf	OLED_Printf_Line@dst^(0+128),w
  4220     0574  0086               	movwf	6
  4221     0575  0187               	clrf	7
  4222     0576  0859               	movf	OLED_Printf_Line@i_706^(0+128),w
  4223     0577  3E48               	addlw	(low (OLED_Printf_Line@temp_705| 0))& (0+255)
  4224     0578  0084               	movwf	4
  4225     0579  0185               	clrf	5
  4226     057A  0800               	movf	0,w
  4227     057B  0081               	movwf	1
  4228     057C                     l2783:
  4229     057C  3001               	movlw	1
  4230     057D  0020               	movlb	0	; select bank0
  4231     057E  00B1               	movwf	??_OLED_Printf_Line
  4232     057F  0831               	movf	??_OLED_Printf_Line,w
  4233     0580  0021               	movlb	1	; select bank1
  4234     0581  07E6               	addwf	OLED_Printf_Line@dst^(0+128),f
  4235     0582                     l2785:
  4236     0582  3001               	movlw	1
  4237     0583  02D9               	subwf	OLED_Printf_Line@i_706^(0+128),f
  4238     0584  0A59               	incf	OLED_Printf_Line@i_706^(0+128),w
  4239     0585  1D03               	btfss	3,2
  4240     0586  2D88               	goto	u2811
  4241     0587  2D89               	goto	u2810
  4242     0588                     u2811:
  4243     0588  2D73               	goto	l2781
  4244     0589                     u2810:
  4245     0589  2DAF               	goto	l2797
  4246     058A                     l2787:
  4247                           
  4248                           ;OLED_SSD1306.c: 483:                         *dst++ = '%';
  4249     058A  0866               	movf	OLED_Printf_Line@dst^(0+128),w
  4250     058B  0086               	movwf	6
  4251     058C  0187               	clrf	7
  4252     058D  3025               	movlw	37
  4253     058E  0081               	movwf	1
  4254     058F                     l2789:
  4255     058F  3001               	movlw	1
  4256     0590  0020               	movlb	0	; select bank0
  4257     0591  00B1               	movwf	??_OLED_Printf_Line
  4258     0592  0831               	movf	??_OLED_Printf_Line,w
  4259     0593  0021               	movlb	1	; select bank1
  4260     0594  07E6               	addwf	OLED_Printf_Line@dst^(0+128),f
  4261     0595                     l2791:
  4262                           
  4263                           ;OLED_SSD1306.c: 484:                         *dst++ = 'l';
  4264     0595  0866               	movf	OLED_Printf_Line@dst^(0+128),w
  4265     0596  0086               	movwf	6
  4266     0597  0187               	clrf	7
  4267     0598  306C               	movlw	108
  4268     0599  0081               	movwf	1
  4269     059A  3001               	movlw	1
  4270     059B  0020               	movlb	0	; select bank0
  4271     059C  00B1               	movwf	??_OLED_Printf_Line
  4272     059D  0831               	movf	??_OLED_Printf_Line,w
  4273     059E  0021               	movlb	1	; select bank1
  4274     059F  07E6               	addwf	OLED_Printf_Line@dst^(0+128),f
  4275     05A0                     l2793:
  4276                           
  4277                           ;OLED_SSD1306.c: 485:                         *dst++ = *src;
  4278     05A0  0866               	movf	OLED_Printf_Line@dst^(0+128),w
  4279     05A1  0086               	movwf	6
  4280     05A2  0187               	clrf	7
  4281     05A3  0864               	movf	OLED_Printf_Line@src^(0+128),w
  4282     05A4  0084               	movwf	4
  4283     05A5  0865               	movf	(OLED_Printf_Line@src+1)^(0+128),w
  4284     05A6  0085               	movwf	5
  4285     05A7  0800               	movf	0,w	;code access
  4286     05A8  0081               	movwf	1
  4287     05A9                     l2795:
  4288     05A9  3001               	movlw	1
  4289     05AA  0020               	movlb	0	; select bank0
  4290     05AB  00B1               	movwf	??_OLED_Printf_Line
  4291     05AC  0831               	movf	??_OLED_Printf_Line,w
  4292     05AD  0021               	movlb	1	; select bank1
  4293     05AE  07E6               	addwf	OLED_Printf_Line@dst^(0+128),f
  4294     05AF                     l2797:
  4295                           
  4296                           ;OLED_SSD1306.c: 487:                     src++;
  4297     05AF  3001               	movlw	1
  4298     05B0  07E4               	addwf	OLED_Printf_Line@src^(0+128),f
  4299     05B1  3000               	movlw	0
  4300     05B2  3DE5               	addwfc	(OLED_Printf_Line@src+1)^(0+128),f
  4301                           
  4302                           ;OLED_SSD1306.c: 488:                     break;
  4303     05B3  2EE8               	goto	l2885
  4304     05B4                     l2799:
  4305                           
  4306                           ;OLED_SSD1306.c: 491:                     uint16_t val = (*(unsigned int *)__va_arg(*(un
      +                          signed int **)ap, (unsigned int)0));
  4307     05B4  0863               	movf	OLED_Printf_Line@ap^(0+128),w
  4308     05B5  0086               	movwf	6
  4309     05B6  0187               	clrf	7
  4310     05B7  3F40               	moviw [0]fsr1
  4311     05B8  00D3               	movwf	OLED_Printf_Line@val_707^(0+128)
  4312     05B9  3F41               	moviw [1]fsr1
  4313     05BA  00D4               	movwf	(OLED_Printf_Line@val_707+1)^(0+128)
  4314     05BB                     l2801:
  4315     05BB  3002               	movlw	2
  4316     05BC  0020               	movlb	0	; select bank0
  4317     05BD  00B1               	movwf	??_OLED_Printf_Line
  4318     05BE  0831               	movf	??_OLED_Printf_Line,w
  4319     05BF  0021               	movlb	1	; select bank1
  4320     05C0  07E3               	addwf	OLED_Printf_Line@ap^(0+128),f
  4321     05C1                     l2803:
  4322                           
  4323                           ;OLED_SSD1306.c: 492:                     char temp[6];;OLED_SSD1306.c: 493:            
      +                                   uint8_t i = 0;
  4324     05C1  01DA               	clrf	OLED_Printf_Line@i_709^(0+128)
  4325     05C2                     l2805:
  4326                           
  4327                           ;OLED_SSD1306.c: 495:                         temp[i++] = '0' + (val % 10);
  4328     05C2  085A               	movf	OLED_Printf_Line@i_709^(0+128),w
  4329     05C3  3EC0               	addlw	(low (OLED_Printf_Line@temp_708| 0))& (0+255)
  4330     05C4  0086               	movwf	6
  4331     05C5  0187               	clrf	7
  4332     05C6  300A               	movlw	10
  4333     05C7  00F0               	movwf	___lwmod@divisor
  4334     05C8  3000               	movlw	0
  4335     05C9  00F1               	movwf	___lwmod@divisor+1
  4336     05CA  0854               	movf	(OLED_Printf_Line@val_707+1)^(0+128),w
  4337     05CB  00F3               	movwf	___lwmod@dividend+1
  4338     05CC  0853               	movf	OLED_Printf_Line@val_707^(0+128),w
  4339     05CD  00F2               	movwf	___lwmod@dividend
  4340     05CE  318E  260B  3183   	fcall	___lwmod
  4341     05D1  0870               	movf	?___lwmod,w
  4342     05D2  3E30               	addlw	48
  4343     05D3  0081               	movwf	1
  4344     05D4                     l2807:
  4345     05D4  3001               	movlw	1
  4346     05D5  0020               	movlb	0	; select bank0
  4347     05D6  00B1               	movwf	??_OLED_Printf_Line
  4348     05D7  0831               	movf	??_OLED_Printf_Line,w
  4349     05D8  0021               	movlb	1	; select bank1
  4350     05D9  07DA               	addwf	OLED_Printf_Line@i_709^(0+128),f
  4351     05DA                     l2809:
  4352                           
  4353                           ;OLED_SSD1306.c: 496:                         val /= 10;
  4354     05DA  300A               	movlw	10
  4355     05DB  00F0               	movwf	___lwdiv@divisor
  4356     05DC  3000               	movlw	0
  4357     05DD  00F1               	movwf	___lwdiv@divisor+1
  4358     05DE  0854               	movf	(OLED_Printf_Line@val_707+1)^(0+128),w
  4359     05DF  00F3               	movwf	___lwdiv@dividend+1
  4360     05E0  0853               	movf	OLED_Printf_Line@val_707^(0+128),w
  4361     05E1  00F2               	movwf	___lwdiv@dividend
  4362     05E2  318E  263F  3183   	fcall	___lwdiv
  4363     05E5  0871               	movf	?___lwdiv+1,w
  4364     05E6  0021               	movlb	1	; select bank1
  4365     05E7  00D4               	movwf	(OLED_Printf_Line@val_707+1)^(0+128)
  4366     05E8  0870               	movf	?___lwdiv,w
  4367     05E9  00D3               	movwf	OLED_Printf_Line@val_707^(0+128)
  4368     05EA                     l2811:
  4369                           
  4370                           ;OLED_SSD1306.c: 497:                     } while (val && i < 6);
  4371     05EA  0853               	movf	OLED_Printf_Line@val_707^(0+128),w
  4372     05EB  0454               	iorwf	(OLED_Printf_Line@val_707+1)^(0+128),w
  4373     05EC  1903               	btfsc	3,2
  4374     05ED  2DEF               	goto	u2821
  4375     05EE  2DF0               	goto	u2820
  4376     05EF                     u2821:
  4377     05EF  2E06               	goto	l2819
  4378     05F0                     u2820:
  4379     05F0                     l2813:
  4380     05F0  3006               	movlw	6
  4381     05F1  025A               	subwf	OLED_Printf_Line@i_709^(0+128),w
  4382     05F2  1C03               	skipc
  4383     05F3  2DF5               	goto	u2831
  4384     05F4  2DF6               	goto	u2830
  4385     05F5                     u2831:
  4386     05F5  2DC2               	goto	l2805
  4387     05F6                     u2830:
  4388     05F6  2E06               	goto	l2819
  4389     05F7                     l2815:
  4390     05F7  0866               	movf	OLED_Printf_Line@dst^(0+128),w
  4391     05F8  0086               	movwf	6
  4392     05F9  0187               	clrf	7
  4393     05FA  085A               	movf	OLED_Printf_Line@i_709^(0+128),w
  4394     05FB  3EC0               	addlw	(low (OLED_Printf_Line@temp_708| 0))& (0+255)
  4395     05FC  0084               	movwf	4
  4396     05FD  0185               	clrf	5
  4397     05FE  0800               	movf	0,w
  4398     05FF  0081               	movwf	1
  4399     0600                     l2817:
  4400     0600  3001               	movlw	1
  4401     0601  0020               	movlb	0	; select bank0
  4402     0602  00B1               	movwf	??_OLED_Printf_Line
  4403     0603  0831               	movf	??_OLED_Printf_Line,w
  4404     0604  0021               	movlb	1	; select bank1
  4405     0605  07E6               	addwf	OLED_Printf_Line@dst^(0+128),f
  4406     0606                     l2819:
  4407     0606  3001               	movlw	1
  4408     0607  02DA               	subwf	OLED_Printf_Line@i_709^(0+128),f
  4409     0608  0A5A               	incf	OLED_Printf_Line@i_709^(0+128),w
  4410     0609  1D03               	btfss	3,2
  4411     060A  2E0C               	goto	u2841
  4412     060B  2E0D               	goto	u2840
  4413     060C                     u2841:
  4414     060C  2DF7               	goto	l2815
  4415     060D                     u2840:
  4416     060D  2EE8               	goto	l2885
  4417     060E                     l2821:
  4418                           
  4419                           ;OLED_SSD1306.c: 502:                     uint16_t val = (*(unsigned int *)__va_arg(*(un
      +                          signed int **)ap, (unsigned int)0));
  4420     060E  0863               	movf	OLED_Printf_Line@ap^(0+128),w
  4421     060F  0086               	movwf	6
  4422     0610  0187               	clrf	7
  4423     0611  3F40               	moviw [0]fsr1
  4424     0612  00CB               	movwf	OLED_Printf_Line@val_710^(0+128)
  4425     0613  3F41               	moviw [1]fsr1
  4426     0614  00CC               	movwf	(OLED_Printf_Line@val_710+1)^(0+128)
  4427     0615                     l2823:
  4428     0615  3002               	movlw	2
  4429     0616  0020               	movlb	0	; select bank0
  4430     0617  00B1               	movwf	??_OLED_Printf_Line
  4431     0618  0831               	movf	??_OLED_Printf_Line,w
  4432     0619  0021               	movlb	1	; select bank1
  4433     061A  07E3               	addwf	OLED_Printf_Line@ap^(0+128),f
  4434     061B                     l2825:
  4435                           
  4436                           ;OLED_SSD1306.c: 503:                     char temp[5];;OLED_SSD1306.c: 504:            
      +                                   uint8_t i = 0;
  4437     061B  01DB               	clrf	OLED_Printf_Line@i_712^(0+128)
  4438     061C                     l2827:
  4439                           
  4440                           ;OLED_SSD1306.c: 506:                         uint8_t nibble = val & 0xF;
  4441     061C  084B               	movf	OLED_Printf_Line@val_710^(0+128),w
  4442     061D  390F               	andlw	15
  4443     061E  00D5               	movwf	OLED_Printf_Line@nibble^(0+128)
  4444     061F                     l2829:
  4445                           
  4446                           ;OLED_SSD1306.c: 507:                         temp[i++] = (nibble < 10) ? ('0' + nibble)
      +                           : ('A' + nibble - 10);
  4447     061F  300A               	movlw	10
  4448     0620  0255               	subwf	OLED_Printf_Line@nibble^(0+128),w
  4449     0621  1C03               	skipc
  4450     0622  2E24               	goto	u2851
  4451     0623  2E25               	goto	u2850
  4452     0624                     u2851:
  4453     0624  2E2E               	goto	l2833
  4454     0625                     u2850:
  4455     0625                     l2831:
  4456     0625  0855               	movf	OLED_Printf_Line@nibble^(0+128),w
  4457     0626  3E37               	addlw	55
  4458     0627  0020               	movlb	0	; select bank0
  4459     0628  00D9               	movwf	_OLED_Printf_Line$714
  4460     0629  3000               	movlw	0
  4461     062A  1803               	skipnc
  4462     062B  3001               	movlw	1
  4463     062C  00DA               	movwf	_OLED_Printf_Line$714+1
  4464     062D  2E36               	goto	l2835
  4465     062E                     l2833:
  4466     062E  0855               	movf	OLED_Printf_Line@nibble^(0+128),w
  4467     062F  3E30               	addlw	48
  4468     0630  0020               	movlb	0	; select bank0
  4469     0631  00D9               	movwf	_OLED_Printf_Line$714
  4470     0632  3000               	movlw	0
  4471     0633  1803               	skipnc
  4472     0634  3001               	movlw	1
  4473     0635  00DA               	movwf	_OLED_Printf_Line$714+1
  4474     0636                     l2835:
  4475     0636  0021               	movlb	1	; select bank1
  4476     0637  085B               	movf	OLED_Printf_Line@i_712^(0+128),w
  4477     0638  3EC6               	addlw	(low (OLED_Printf_Line@temp_711| 0))& (0+255)
  4478     0639  0086               	movwf	6
  4479     063A  0187               	clrf	7
  4480     063B  0020               	movlb	0	; select bank0
  4481     063C  0859               	movf	_OLED_Printf_Line$714,w
  4482     063D  0081               	movwf	1
  4483     063E                     l2837:
  4484     063E  3001               	movlw	1
  4485     063F  00B1               	movwf	??_OLED_Printf_Line
  4486     0640  0831               	movf	??_OLED_Printf_Line,w
  4487     0641  0021               	movlb	1	; select bank1
  4488     0642  07DB               	addwf	OLED_Printf_Line@i_712^(0+128),f
  4489     0643                     l2839:
  4490                           
  4491                           ;OLED_SSD1306.c: 508:                         val >>= 4;
  4492     0643  3004               	movlw	4
  4493     0644                     u2865:
  4494     0644  36CC               	lsrf	(OLED_Printf_Line@val_710+1)^(0+128),f
  4495     0645  0CCB               	rrf	OLED_Printf_Line@val_710^(0+128),f
  4496     0646  0B89               	decfsz	9,f
  4497     0647  2E44               	goto	u2865
  4498     0648                     l2841:
  4499                           
  4500                           ;OLED_SSD1306.c: 509:                     } while (val && i < 5);
  4501     0648  084B               	movf	OLED_Printf_Line@val_710^(0+128),w
  4502     0649  044C               	iorwf	(OLED_Printf_Line@val_710+1)^(0+128),w
  4503     064A  1903               	btfsc	3,2
  4504     064B  2E4D               	goto	u2871
  4505     064C  2E4E               	goto	u2870
  4506     064D                     u2871:
  4507     064D  2E64               	goto	l2849
  4508     064E                     u2870:
  4509     064E                     l2843:
  4510     064E  3005               	movlw	5
  4511     064F  025B               	subwf	OLED_Printf_Line@i_712^(0+128),w
  4512     0650  1C03               	skipc
  4513     0651  2E53               	goto	u2881
  4514     0652  2E54               	goto	u2880
  4515     0653                     u2881:
  4516     0653  2E1C               	goto	l2827
  4517     0654                     u2880:
  4518     0654  2E64               	goto	l2849
  4519     0655                     l2845:
  4520     0655  0866               	movf	OLED_Printf_Line@dst^(0+128),w
  4521     0656  0086               	movwf	6
  4522     0657  0187               	clrf	7
  4523     0658  085B               	movf	OLED_Printf_Line@i_712^(0+128),w
  4524     0659  3EC6               	addlw	(low (OLED_Printf_Line@temp_711| 0))& (0+255)
  4525     065A  0084               	movwf	4
  4526     065B  0185               	clrf	5
  4527     065C  0800               	movf	0,w
  4528     065D  0081               	movwf	1
  4529     065E                     l2847:
  4530     065E  3001               	movlw	1
  4531     065F  0020               	movlb	0	; select bank0
  4532     0660  00B1               	movwf	??_OLED_Printf_Line
  4533     0661  0831               	movf	??_OLED_Printf_Line,w
  4534     0662  0021               	movlb	1	; select bank1
  4535     0663  07E6               	addwf	OLED_Printf_Line@dst^(0+128),f
  4536     0664                     l2849:
  4537     0664  3001               	movlw	1
  4538     0665  02DB               	subwf	OLED_Printf_Line@i_712^(0+128),f
  4539     0666  0A5B               	incf	OLED_Printf_Line@i_712^(0+128),w
  4540     0667  1D03               	btfss	3,2
  4541     0668  2E6A               	goto	u2891
  4542     0669  2E6B               	goto	u2890
  4543     066A                     u2891:
  4544     066A  2E55               	goto	l2845
  4545     066B                     u2890:
  4546     066B  2EE8               	goto	l2885
  4547     066C                     l2851:
  4548                           
  4549                           ;OLED_SSD1306.c: 514:                     const char *str = (*(const char* *)__va_arg(*(
      +                          const char* **)ap, (const char*)0));
  4550     066C  0863               	movf	OLED_Printf_Line@ap^(0+128),w
  4551     066D  0086               	movwf	6
  4552     066E  0187               	clrf	7
  4553     066F  0801               	movf	1,w
  4554     0670  0020               	movlb	0	; select bank0
  4555     0671  00DB               	movwf	OLED_Printf_Line@str
  4556     0672                     l2853:
  4557     0672  3001               	movlw	1
  4558     0673  00B1               	movwf	??_OLED_Printf_Line
  4559     0674  0831               	movf	??_OLED_Printf_Line,w
  4560     0675  0021               	movlb	1	; select bank1
  4561     0676  07E3               	addwf	OLED_Printf_Line@ap^(0+128),f
  4562                           
  4563                           ;OLED_SSD1306.c: 515:                     while (*str && (dst - buf) < 31) {
  4564     0677  2E8A               	goto	l2861
  4565     0678                     l2855:
  4566                           
  4567                           ;OLED_SSD1306.c: 516:                         *dst++ = *str++;
  4568     0678  0866               	movf	OLED_Printf_Line@dst^(0+128),w
  4569     0679  0086               	movwf	6
  4570     067A  0187               	clrf	7
  4571     067B  0020               	movlb	0	; select bank0
  4572     067C  085B               	movf	OLED_Printf_Line@str,w
  4573     067D  0084               	movwf	4
  4574     067E  0185               	clrf	5
  4575     067F  0800               	movf	0,w
  4576     0680  0081               	movwf	1
  4577     0681                     l2857:
  4578     0681  3001               	movlw	1
  4579     0682  00B1               	movwf	??_OLED_Printf_Line
  4580     0683  0831               	movf	??_OLED_Printf_Line,w
  4581     0684  07DB               	addwf	OLED_Printf_Line@str,f
  4582     0685                     l2859:
  4583     0685  3001               	movlw	1
  4584     0686  00B1               	movwf	??_OLED_Printf_Line
  4585     0687  0831               	movf	??_OLED_Printf_Line,w
  4586     0688  0021               	movlb	1	; select bank1
  4587     0689  07E6               	addwf	OLED_Printf_Line@dst^(0+128),f
  4588     068A                     l2861:
  4589                           
  4590                           ;OLED_SSD1306.c: 515:                     while (*str && (dst - buf) < 31) {
  4591     068A  0020               	movlb	0	; select bank0
  4592     068B  085B               	movf	OLED_Printf_Line@str,w
  4593     068C  0086               	movwf	6
  4594     068D  0187               	clrf	7
  4595     068E  0801               	movf	1,w
  4596     068F  1903               	btfsc	3,2
  4597     0690  2E92               	goto	u2901
  4598     0691  2E93               	goto	u2900
  4599     0692                     u2901:
  4600     0692  2EE8               	goto	l2885
  4601     0693                     u2900:
  4602     0693                     l2863:
  4603     0693  30A0               	movlw	(low OLED_Printf_Line@buf)& (0+255)
  4604     0694  0021               	movlb	1	; select bank1
  4605     0695  0266               	subwf	OLED_Printf_Line@dst^(0+128),w
  4606     0696  3A80               	xorlw	128
  4607     0697  3E61               	addlw	-159
  4608     0698  1C03               	skipc
  4609     0699  2E9B               	goto	u2911
  4610     069A  2E9C               	goto	u2910
  4611     069B                     u2911:
  4612     069B  2E78               	goto	l2855
  4613     069C                     u2910:
  4614     069C  2EE8               	goto	l2885
  4615     069D                     l2865:
  4616                           
  4617                           ;OLED_SSD1306.c: 521:                     *dst++ = (char)(*(int *)__va_arg(*(int **)ap, 
      +                          (int)0));
  4618     069D  0866               	movf	OLED_Printf_Line@dst^(0+128),w
  4619     069E  0086               	movwf	6
  4620     069F  0187               	clrf	7
  4621     06A0  0863               	movf	OLED_Printf_Line@ap^(0+128),w
  4622     06A1  0084               	movwf	4
  4623     06A2  0185               	clrf	5
  4624     06A3  0800               	movf	0,w
  4625     06A4  0081               	movwf	1
  4626     06A5                     l2867:
  4627     06A5  3002               	movlw	2
  4628     06A6  0020               	movlb	0	; select bank0
  4629     06A7  00B1               	movwf	??_OLED_Printf_Line
  4630     06A8  0831               	movf	??_OLED_Printf_Line,w
  4631     06A9  0021               	movlb	1	; select bank1
  4632     06AA  07E3               	addwf	OLED_Printf_Line@ap^(0+128),f
  4633     06AB                     l2869:
  4634     06AB  3001               	movlw	1
  4635     06AC  0020               	movlb	0	; select bank0
  4636     06AD  00B1               	movwf	??_OLED_Printf_Line
  4637     06AE  0831               	movf	??_OLED_Printf_Line,w
  4638     06AF  0021               	movlb	1	; select bank1
  4639     06B0  07E6               	addwf	OLED_Printf_Line@dst^(0+128),f
  4640                           
  4641                           ;OLED_SSD1306.c: 522:                     break;
  4642     06B1  2EE8               	goto	l2885
  4643     06B2                     l2871:
  4644                           
  4645                           ;OLED_SSD1306.c: 525:                     *dst++ = '%';
  4646     06B2  0866               	movf	OLED_Printf_Line@dst^(0+128),w
  4647     06B3  0086               	movwf	6
  4648     06B4  0187               	clrf	7
  4649     06B5  3025               	movlw	37
  4650     06B6  0081               	movwf	1
  4651     06B7  2EAB               	goto	l2869
  4652     06B8                     l2875:
  4653                           
  4654                           ;OLED_SSD1306.c: 529:                     *dst++ = '%';
  4655     06B8  0866               	movf	OLED_Printf_Line@dst^(0+128),w
  4656     06B9  0086               	movwf	6
  4657     06BA  0187               	clrf	7
  4658     06BB  3025               	movlw	37
  4659     06BC  0081               	movwf	1
  4660     06BD                     l2877:
  4661     06BD  3001               	movlw	1
  4662     06BE  0020               	movlb	0	; select bank0
  4663     06BF  00B1               	movwf	??_OLED_Printf_Line
  4664     06C0  0831               	movf	??_OLED_Printf_Line,w
  4665     06C1  0021               	movlb	1	; select bank1
  4666     06C2  07E6               	addwf	OLED_Printf_Line@dst^(0+128),f
  4667     06C3                     l2879:
  4668                           
  4669                           ;OLED_SSD1306.c: 530:                     *dst++ = *src;
  4670     06C3  0866               	movf	OLED_Printf_Line@dst^(0+128),w
  4671     06C4  0086               	movwf	6
  4672     06C5  0187               	clrf	7
  4673     06C6  0864               	movf	OLED_Printf_Line@src^(0+128),w
  4674     06C7  0084               	movwf	4
  4675     06C8  0865               	movf	(OLED_Printf_Line@src+1)^(0+128),w
  4676     06C9  0085               	movwf	5
  4677     06CA  0800               	movf	0,w	;code access
  4678     06CB  0081               	movwf	1
  4679     06CC  2EAB               	goto	l2869
  4680     06CD                     l2883:
  4681     06CD  0864               	movf	OLED_Printf_Line@src^(0+128),w
  4682     06CE  0084               	movwf	4
  4683     06CF  0865               	movf	(OLED_Printf_Line@src+1)^(0+128),w
  4684     06D0  0085               	movwf	5
  4685     06D1  0800               	movf	0,w	;code access
  4686                           
  4687                           ; Switch size 1, requested type "simple"
  4688                           ; Number of cases is 7, Range of values is 37 to 120
  4689                           ; switch strategies available:
  4690                           ; Name         Instructions Cycles
  4691                           ; simple_byte           22    12 (average)
  4692                           ; direct_byte          177     9 (fixed)
  4693                           ; jumptable            263     9 (fixed)
  4694                           ;	Chosen strategy is simple_byte
  4695     06D2  3A25               	xorlw	37	; case 37
  4696     06D3  1903               	skipnz
  4697     06D4  2EB2               	goto	l2871
  4698     06D5  3A46               	xorlw	70	; case 99
  4699     06D6  1903               	skipnz
  4700     06D7  2E9D               	goto	l2865
  4701     06D8  3A07               	xorlw	7	; case 100
  4702     06D9  1903               	skipnz
  4703     06DA  2BF2               	goto	l2699
  4704     06DB  3A08               	xorlw	8	; case 108
  4705     06DC  1903               	skipnz
  4706     06DD  2C60               	goto	l2729
  4707     06DE  3A1F               	xorlw	31	; case 115
  4708     06DF  1903               	skipnz
  4709     06E0  2E6C               	goto	l2851
  4710     06E1  3A06               	xorlw	6	; case 117
  4711     06E2  1903               	skipnz
  4712     06E3  2DB4               	goto	l2799
  4713     06E4  3A0D               	xorlw	13	; case 120
  4714     06E5  1903               	skipnz
  4715     06E6  2E0E               	goto	l2821
  4716     06E7  2EB8               	goto	l2875
  4717     06E8                     l2885:
  4718                           
  4719                           ;OLED_SSD1306.c: 532:             src++;
  4720     06E8  3001               	movlw	1
  4721     06E9  0021               	movlb	1	; select bank1
  4722     06EA  07E4               	addwf	OLED_Printf_Line@src^(0+128),f
  4723     06EB  3000               	movlw	0
  4724     06EC  3DE5               	addwfc	(OLED_Printf_Line@src+1)^(0+128),f
  4725                           
  4726                           ;OLED_SSD1306.c: 533:         } else {
  4727     06ED  2F01               	goto	l2893
  4728     06EE                     l2887:
  4729                           
  4730                           ;OLED_SSD1306.c: 534:             *dst++ = *src++;
  4731     06EE  0866               	movf	OLED_Printf_Line@dst^(0+128),w
  4732     06EF  0086               	movwf	6
  4733     06F0  0187               	clrf	7
  4734     06F1  0864               	movf	OLED_Printf_Line@src^(0+128),w
  4735     06F2  0084               	movwf	4
  4736     06F3  0865               	movf	(OLED_Printf_Line@src+1)^(0+128),w
  4737     06F4  0085               	movwf	5
  4738     06F5  0800               	movf	0,w	;code access
  4739     06F6  0081               	movwf	1
  4740     06F7                     l2889:
  4741     06F7  3001               	movlw	1
  4742     06F8  07E4               	addwf	OLED_Printf_Line@src^(0+128),f
  4743     06F9  3000               	movlw	0
  4744     06FA  3DE5               	addwfc	(OLED_Printf_Line@src+1)^(0+128),f
  4745     06FB                     l2891:
  4746     06FB  3001               	movlw	1
  4747     06FC  0020               	movlb	0	; select bank0
  4748     06FD  00B1               	movwf	??_OLED_Printf_Line
  4749     06FE  0831               	movf	??_OLED_Printf_Line,w
  4750     06FF  0021               	movlb	1	; select bank1
  4751     0700  07E6               	addwf	OLED_Printf_Line@dst^(0+128),f
  4752     0701                     l2893:
  4753                           
  4754                           ;OLED_SSD1306.c: 437:     while (*src && (dst - buf) < 31) {
  4755     0701  0864               	movf	OLED_Printf_Line@src^(0+128),w
  4756     0702  0084               	movwf	4
  4757     0703  0865               	movf	(OLED_Printf_Line@src+1)^(0+128),w
  4758     0704  0085               	movwf	5
  4759     0705  0012               	moviw fsr0++
  4760     0706  1903               	btfsc	3,2
  4761     0707  2F09               	goto	u2921
  4762     0708  2F0A               	goto	u2920
  4763     0709                     u2921:
  4764     0709  2F12               	goto	l2897
  4765     070A                     u2920:
  4766     070A                     l2895:
  4767     070A  30A0               	movlw	(low OLED_Printf_Line@buf)& (0+255)
  4768     070B  0266               	subwf	OLED_Printf_Line@dst^(0+128),w
  4769     070C  3A80               	xorlw	128
  4770     070D  3E61               	addlw	-159
  4771     070E  1C03               	skipc
  4772     070F  2F11               	goto	u2931
  4773     0710  2F12               	goto	u2930
  4774     0711                     u2931:
  4775     0711  2BE3               	goto	l2695
  4776     0712                     u2930:
  4777     0712                     l2897:
  4778                           
  4779                           ;OLED_SSD1306.c: 537:     *dst = '\0';
  4780     0712  0866               	movf	OLED_Printf_Line@dst^(0+128),w
  4781     0713  0086               	movwf	6
  4782     0714  0187               	clrf	7
  4783     0715  0181               	clrf	1
  4784     0716                     l2899:
  4785                           
  4786                           ;OLED_SSD1306.c: 541:     if (strcmp(buf, last_text[line]) == 0) return;
  4787     0716  0862               	movf	OLED_Printf_Line@line^(0+128),w
  4788     0717  0020               	movlb	0	; select bank0
  4789     0718  00B1               	movwf	??_OLED_Printf_Line
  4790     0719  01B2               	clrf	??_OLED_Printf_Line+1
  4791     071A  3005               	movlw	5
  4792     071B                     u2945:
  4793     071B  35B1               	lslf	??_OLED_Printf_Line,f
  4794     071C  0DB2               	rlf	??_OLED_Printf_Line+1,f
  4795     071D  0B89               	decfsz	9,f
  4796     071E  2F1B               	goto	u2945
  4797     071F  30F0               	movlw	240
  4798     0720  00B3               	movwf	??_OLED_Printf_Line+2
  4799     0721  3026               	movlw	38
  4800     0722  00B4               	movwf	??_OLED_Printf_Line+3
  4801     0723  0831               	movf	??_OLED_Printf_Line,w
  4802     0724  0733               	addwf	??_OLED_Printf_Line+2,w
  4803     0725  00B5               	movwf	??_OLED_Printf_Line+4
  4804     0726  0832               	movf	??_OLED_Printf_Line+1,w
  4805     0727  3D34               	addwfc	??_OLED_Printf_Line+3,w
  4806     0728  00B6               	movwf	??_OLED_Printf_Line+5
  4807     0729  0835               	movf	??_OLED_Printf_Line+4,w
  4808     072A  00F0               	movwf	strcmp@r
  4809     072B  0836               	movf	??_OLED_Printf_Line+5,w
  4810     072C  00F1               	movwf	strcmp@r+1
  4811     072D  30A0               	movlw	(low (OLED_Printf_Line@buf| 0))& (0+255)
  4812     072E  318D  254B  3183   	fcall	_strcmp
  4813     0731  0870               	movf	?_strcmp,w
  4814     0732  0471               	iorwf	?_strcmp+1,w
  4815     0733  1D03               	btfss	3,2
  4816     0734  2F36               	goto	u2951
  4817     0735  2F37               	goto	u2950
  4818     0736                     u2951:
  4819     0736  2F38               	goto	l2903
  4820     0737                     u2950:
  4821     0737  2FF1               	goto	l262
  4822     0738                     l2903:
  4823                           
  4824                           ;OLED_SSD1306.c: 542:     strcpy(last_text[line], buf);
  4825     0738  0021               	movlb	1	; select bank1
  4826     0739  0862               	movf	OLED_Printf_Line@line^(0+128),w
  4827     073A  0020               	movlb	0	; select bank0
  4828     073B  00B1               	movwf	??_OLED_Printf_Line
  4829     073C  01B2               	clrf	??_OLED_Printf_Line+1
  4830     073D  3005               	movlw	5
  4831     073E                     u2965:
  4832     073E  35B1               	lslf	??_OLED_Printf_Line,f
  4833     073F  0DB2               	rlf	??_OLED_Printf_Line+1,f
  4834     0740  0B89               	decfsz	9,f
  4835     0741  2F3E               	goto	u2965
  4836     0742  30F0               	movlw	240
  4837     0743  00B3               	movwf	??_OLED_Printf_Line+2
  4838     0744  3026               	movlw	38
  4839     0745  00B4               	movwf	??_OLED_Printf_Line+3
  4840     0746  0831               	movf	??_OLED_Printf_Line,w
  4841     0747  0733               	addwf	??_OLED_Printf_Line+2,w
  4842     0748  00F0               	movwf	strcpy@dest
  4843     0749  0832               	movf	??_OLED_Printf_Line+1,w
  4844     074A  3D34               	addwfc	??_OLED_Printf_Line+3,w
  4845     074B  00F1               	movwf	strcpy@dest+1
  4846     074C  30A0               	movlw	(low (OLED_Printf_Line@buf| 0))& (0+255)
  4847     074D  00F2               	movwf	strcpy@src
  4848     074E  318C  2412  3183   	fcall	_strcpy
  4849     0751                     l2905:
  4850                           
  4851                           ;OLED_SSD1306.c: 545:     memset(screen_buffer[line], 0, 128);
  4852     0751  0021               	movlb	1	; select bank1
  4853     0752  0862               	movf	OLED_Printf_Line@line^(0+128),w
  4854     0753  0020               	movlb	0	; select bank0
  4855     0754  00B1               	movwf	??_OLED_Printf_Line
  4856     0755  01B2               	clrf	??_OLED_Printf_Line+1
  4857     0756  3007               	movlw	7
  4858     0757                     u2975:
  4859     0757  35B1               	lslf	??_OLED_Printf_Line,f
  4860     0758  0DB2               	rlf	??_OLED_Printf_Line+1,f
  4861     0759  0B89               	decfsz	9,f
  4862     075A  2F57               	goto	u2975
  4863     075B  30F0               	movlw	240
  4864     075C  00B3               	movwf	??_OLED_Printf_Line+2
  4865     075D  3024               	movlw	36
  4866     075E  00B4               	movwf	??_OLED_Printf_Line+3
  4867     075F  0831               	movf	??_OLED_Printf_Line,w
  4868     0760  0733               	addwf	??_OLED_Printf_Line+2,w
  4869     0761  00F0               	movwf	memset@dest
  4870     0762  0832               	movf	??_OLED_Printf_Line+1,w
  4871     0763  3D34               	addwfc	??_OLED_Printf_Line+3,w
  4872     0764  00F1               	movwf	memset@dest+1
  4873     0765  3000               	movlw	0
  4874     0766  00F2               	movwf	memset@c
  4875     0767  00F3               	movwf	memset@c+1
  4876     0768  3080               	movlw	128
  4877     0769  00F4               	movwf	memset@n
  4878     076A  3000               	movlw	0
  4879     076B  00F5               	movwf	memset@n+1
  4880     076C  318C  242D  3183   	fcall	_memset
  4881     076F                     l2907:
  4882                           
  4883                           ;OLED_SSD1306.c: 548:     uint8_t col = 0;
  4884     076F  0021               	movlb	1	; select bank1
  4885     0770  01CD               	clrf	OLED_Printf_Line@col^(0+128)
  4886     0771                     l2909:
  4887                           
  4888                           ;OLED_SSD1306.c: 549:     for (const char* p = buf; *p && (col + 8) <= 128; ++p)
  4889     0771  30A0               	movlw	(low (OLED_Printf_Line@buf| 0))& (0+255)
  4890     0772  00CE               	movwf	OLED_Printf_Line@p^(0+128)
  4891     0773  2FCF               	goto	l2925
  4892     0774                     l2911:
  4893                           
  4894                           ;OLED_SSD1306.c: 550:     {;OLED_SSD1306.c: 551:         char ch = *p;
  4895     0774  0021               	movlb	1	; select bank1
  4896     0775  084E               	movf	OLED_Printf_Line@p^(0+128),w
  4897     0776  0086               	movwf	6
  4898     0777  0187               	clrf	7
  4899     0778  0801               	movf	1,w
  4900     0779  00D6               	movwf	OLED_Printf_Line@ch^(0+128)
  4901     077A                     l2913:
  4902                           
  4903                           ;OLED_SSD1306.c: 552:         if (ch < 32 || ch > 127) ch = ' ';
  4904     077A  3020               	movlw	32
  4905     077B  0256               	subwf	OLED_Printf_Line@ch^(0+128),w
  4906     077C  1C03               	skipc
  4907     077D  2F7F               	goto	u2981
  4908     077E  2F80               	goto	u2980
  4909     077F                     u2981:
  4910     077F  2F86               	goto	l2917
  4911     0780                     u2980:
  4912     0780                     l2915:
  4913     0780  3080               	movlw	128
  4914     0781  0256               	subwf	OLED_Printf_Line@ch^(0+128),w
  4915     0782  1C03               	skipc
  4916     0783  2F85               	goto	u2991
  4917     0784  2F86               	goto	u2990
  4918     0785                     u2991:
  4919     0785  2F88               	goto	l2919
  4920     0786                     u2990:
  4921     0786                     l2917:
  4922     0786  3020               	movlw	32
  4923     0787  00D6               	movwf	OLED_Printf_Line@ch^(0+128)
  4924     0788                     l2919:
  4925                           
  4926                           ;OLED_SSD1306.c: 554:         memcpy(&screen_buffer[line][col], &OledFont[(uint8_t)(ch -
      +                           32)][0], 8);
  4927     0788  084D               	movf	OLED_Printf_Line@col^(0+128),w
  4928     0789  0020               	movlb	0	; select bank0
  4929     078A  00B1               	movwf	??_OLED_Printf_Line
  4930     078B  01B2               	clrf	??_OLED_Printf_Line+1
  4931     078C  0021               	movlb	1	; select bank1
  4932     078D  0862               	movf	OLED_Printf_Line@line^(0+128),w
  4933     078E  0020               	movlb	0	; select bank0
  4934     078F  00B3               	movwf	??_OLED_Printf_Line+2
  4935     0790  01B4               	clrf	??_OLED_Printf_Line+3
  4936     0791  3007               	movlw	7
  4937     0792                     u3005:
  4938     0792  35B3               	lslf	??_OLED_Printf_Line+2,f
  4939     0793  0DB4               	rlf	??_OLED_Printf_Line+3,f
  4940     0794  0B89               	decfsz	9,f
  4941     0795  2F92               	goto	u3005
  4942     0796  30F0               	movlw	240
  4943     0797  00B5               	movwf	??_OLED_Printf_Line+4
  4944     0798  3024               	movlw	36
  4945     0799  00B6               	movwf	??_OLED_Printf_Line+5
  4946     079A  0833               	movf	??_OLED_Printf_Line+2,w
  4947     079B  0735               	addwf	??_OLED_Printf_Line+4,w
  4948     079C  00B7               	movwf	??_OLED_Printf_Line+6
  4949     079D  0834               	movf	??_OLED_Printf_Line+3,w
  4950     079E  3D36               	addwfc	??_OLED_Printf_Line+5,w
  4951     079F  00B8               	movwf	??_OLED_Printf_Line+7
  4952     07A0  0831               	movf	??_OLED_Printf_Line,w
  4953     07A1  0737               	addwf	??_OLED_Printf_Line+6,w
  4954     07A2  00F0               	movwf	memcpy@d1
  4955     07A3  0832               	movf	??_OLED_Printf_Line+1,w
  4956     07A4  3D38               	addwfc	??_OLED_Printf_Line+7,w
  4957     07A5  00F1               	movwf	memcpy@d1+1
  4958     07A6  0021               	movlb	1	; select bank1
  4959     07A7  0856               	movf	OLED_Printf_Line@ch^(0+128),w
  4960     07A8  3EE0               	addlw	224
  4961     07A9  0020               	movlb	0	; select bank0
  4962     07AA  00B9               	movwf	??_OLED_Printf_Line+8
  4963     07AB  01BA               	clrf	??_OLED_Printf_Line+9
  4964     07AC  35B9               	lslf	??_OLED_Printf_Line+8,f
  4965     07AD  0DBA               	rlf	??_OLED_Printf_Line+9,f
  4966     07AE  35B9               	lslf	??_OLED_Printf_Line+8,f
  4967     07AF  0DBA               	rlf	??_OLED_Printf_Line+9,f
  4968     07B0  35B9               	lslf	??_OLED_Printf_Line+8,f
  4969     07B1  0DBA               	rlf	??_OLED_Printf_Line+9,f
  4970     07B2  3000               	movlw	low (_OledFont| (0+32768))
  4971     07B3  00BB               	movwf	??_OLED_Printf_Line+10
  4972     07B4  3088               	movlw	high (_OledFont| (0+32768))
  4973     07B5  00BC               	movwf	??_OLED_Printf_Line+11
  4974     07B6  0839               	movf	??_OLED_Printf_Line+8,w
  4975     07B7  073B               	addwf	??_OLED_Printf_Line+10,w
  4976     07B8  00F2               	movwf	memcpy@s1
  4977     07B9  083A               	movf	??_OLED_Printf_Line+9,w
  4978     07BA  3D3C               	addwfc	??_OLED_Printf_Line+11,w
  4979     07BB  00F3               	movwf	memcpy@s1+1
  4980     07BC  3008               	movlw	8
  4981     07BD  00F4               	movwf	memcpy@n
  4982     07BE  3000               	movlw	0
  4983     07BF  00F5               	movwf	memcpy@n+1
  4984     07C0  318C  24F5  3183   	fcall	_memcpy
  4985     07C3                     l2921:
  4986                           
  4987                           ;OLED_SSD1306.c: 555:         col += 8;
  4988     07C3  3008               	movlw	8
  4989     07C4  0020               	movlb	0	; select bank0
  4990     07C5  00B1               	movwf	??_OLED_Printf_Line
  4991     07C6  0831               	movf	??_OLED_Printf_Line,w
  4992     07C7  0021               	movlb	1	; select bank1
  4993     07C8  07CD               	addwf	OLED_Printf_Line@col^(0+128),f
  4994     07C9                     l2923:
  4995                           
  4996                           ;OLED_SSD1306.c: 556:     }
  4997     07C9  3001               	movlw	1
  4998     07CA  0020               	movlb	0	; select bank0
  4999     07CB  00B1               	movwf	??_OLED_Printf_Line
  5000     07CC  0831               	movf	??_OLED_Printf_Line,w
  5001     07CD  0021               	movlb	1	; select bank1
  5002     07CE  07CE               	addwf	OLED_Printf_Line@p^(0+128),f
  5003     07CF                     l2925:
  5004     07CF  084E               	movf	OLED_Printf_Line@p^(0+128),w
  5005     07D0  0086               	movwf	6
  5006     07D1  0187               	clrf	7
  5007     07D2  0801               	movf	1,w
  5008     07D3  1903               	btfsc	3,2
  5009     07D4  2FD6               	goto	u3011
  5010     07D5  2FD7               	goto	u3010
  5011     07D6                     u3011:
  5012     07D6  2FEC               	goto	l2929
  5013     07D7                     u3010:
  5014     07D7                     l2927:
  5015     07D7  084D               	movf	OLED_Printf_Line@col^(0+128),w
  5016     07D8  3E08               	addlw	8
  5017     07D9  0020               	movlb	0	; select bank0
  5018     07DA  00B1               	movwf	??_OLED_Printf_Line
  5019     07DB  3000               	movlw	0
  5020     07DC  1803               	skipnc
  5021     07DD  3001               	movlw	1
  5022     07DE  00B2               	movwf	??_OLED_Printf_Line+1
  5023     07DF  0832               	movf	??_OLED_Printf_Line+1,w
  5024     07E0  3A80               	xorlw	128
  5025     07E1  00B3               	movwf	??_OLED_Printf_Line+2
  5026     07E2  3080               	movlw	128
  5027     07E3  0233               	subwf	??_OLED_Printf_Line+2,w
  5028     07E4  1D03               	skipz
  5029     07E5  2FE8               	goto	u3025
  5030     07E6  3081               	movlw	129
  5031     07E7  0231               	subwf	??_OLED_Printf_Line,w
  5032     07E8                     u3025:
  5033     07E8  1C03               	skipc
  5034     07E9  2FEB               	goto	u3021
  5035     07EA  2FEC               	goto	u3020
  5036     07EB                     u3021:
  5037     07EB  2F74               	goto	l2911
  5038     07EC                     u3020:
  5039     07EC                     l2929:
  5040                           
  5041                           ;OLED_SSD1306.c: 558:     OLED_UpdateLine(line);
  5042     07EC  0021               	movlb	1	; select bank1
  5043     07ED  0862               	movf	OLED_Printf_Line@line^(0+128),w
  5044     07EE  318D  251F  3183   	fcall	_OLED_UpdateLine
  5045     07F1                     l262:
  5046     07F1  0008               	return
  5047     07F2                     __end_of_OLED_Printf_Line:
  5048                           
  5049                           	psect	text7
  5050     0C12                     __ptext7:	
  5051 ;; *************** function _strcpy *****************
  5052 ;; Defined at:
  5053 ;;		line 3 in file "C:\Program Files\Microchip\xc8\v2.46\pic\sources\c99\common\strcpy.c"
  5054 ;; Parameters:    Size  Location     Type
  5055 ;;  dest            2    0[COMMON] PTR unsigned char 
  5056 ;;		 -> OLED_Printf_Line@last_text(256), 
  5057 ;;  src             1    2[COMMON] PTR const unsigned char 
  5058 ;;		 -> OLED_Printf_Line@buf(32), 
  5059 ;; Auto vars:     Size  Location     Type
  5060 ;;  d               2    5[COMMON] PTR unsigned char 
  5061 ;;		 -> OLED_Printf_Line@last_text(256), 
  5062 ;; Return value:  Size  Location     Type
  5063 ;;                  2    0[COMMON] PTR unsigned char 
  5064 ;; Registers used:
  5065 ;;		wreg, fsr0l, fsr0h, fsr1l, fsr1h, status,2, status,0
  5066 ;; Tracked objects:
  5067 ;;		On entry : 0/0
  5068 ;;		On exit  : 0/0
  5069 ;;		Unchanged: 0/0
  5070 ;; Data sizes:     COMMON   BANK0   BANK1   BANK2   BANK3   BANK4   BANK5   BANK6   BANK7   BANK8   BANK9  BANK10  BANK1
      +1  BANK12  BANK13  BANK14  BANK15  BANK16  BANK17  BANK18  BANK19  BANK20  BANK21  BANK22  BANK23  BANK24  BANK25
  5071 ;;      Params:         3       0       0       0       0       0       0       0       0       0       0       0       
      +0       0       0       0       0       0       0       0       0       0       0       0       0       0       0
  5072 ;;      Locals:         2       0       0       0       0       0       0       0       0       0       0       0       
      +0       0       0       0       0       0       0       0       0       0       0       0       0       0       0
  5073 ;;      Temps:          2       0       0       0       0       0       0       0       0       0       0       0       
      +0       0       0       0       0       0       0       0       0       0       0       0       0       0       0
  5074 ;;      Totals:         7       0       0       0       0       0       0       0       0       0       0       0       
      +0       0       0       0       0       0       0       0       0       0       0       0       0       0       0
  5075 ;;Total ram usage:        7 bytes
  5076 ;; Hardware stack levels used: 1
  5077 ;; This function calls:
  5078 ;;		Nothing
  5079 ;; This function is called by:
  5080 ;;		_OLED_Printf_Line
  5081 ;; This function uses a non-reentrant model
  5082 ;;
  5083                           
  5084     0C12                     _strcpy:	
  5085                           ;psect for function _strcpy
  5086                           
  5087     0C12                     l2265:	
  5088                           ;incstack = 0
  5089                           ; Regs used in _strcpy: [wreg-fsr1h+status,2+status,0]
  5090                           
  5091     0C12  0871               	movf	strcpy@dest+1,w
  5092     0C13  00F6               	movwf	strcpy@d+1
  5093     0C14  0870               	movf	strcpy@dest,w
  5094     0C15  00F5               	movwf	strcpy@d
  5095     0C16                     l2267:
  5096     0C16  0876               	movf	strcpy@d+1,w
  5097     0C17  00F4               	movwf	??_strcpy+1
  5098     0C18  0875               	movf	strcpy@d,w
  5099     0C19  00F3               	movwf	??_strcpy
  5100     0C1A  0AF5               	incf	strcpy@d,f
  5101     0C1B  1903               	skipnz
  5102     0C1C  0AF6               	incf	strcpy@d+1,f
  5103     0C1D  0873               	movf	??_strcpy,w
  5104     0C1E  0086               	movwf	6
  5105     0C1F  0874               	movf	??_strcpy+1,w
  5106     0C20  0087               	movwf	7
  5107     0C21  0872               	movf	strcpy@src,w
  5108     0C22  0084               	movwf	4
  5109     0C23  0185               	clrf	5
  5110     0C24  0AF2               	incf	strcpy@src,f
  5111     0C25  0800               	movf	0,w
  5112     0C26  3FC0               	movwi [0]fsr1
  5113     0C27  0889               	movf	9,f
  5114     0C28  1D03               	btfss	3,2
  5115     0C29  2C2B               	goto	u1981
  5116     0C2A  2C2C               	goto	u1980
  5117     0C2B                     u1981:
  5118     0C2B  2C16               	goto	l2267
  5119     0C2C                     u1980:
  5120     0C2C                     l937:
  5121     0C2C  0008               	return
  5122     0C2D                     __end_of_strcpy:
  5123                           
  5124                           	psect	text8
  5125     0D4B                     __ptext8:	
  5126 ;; *************** function _strcmp *****************
  5127 ;; Defined at:
  5128 ;;		line 3 in file "C:\Program Files\Microchip\xc8\v2.46\pic\sources\c99\common\strcmp.c"
  5129 ;; Parameters:    Size  Location     Type
  5130 ;;  l               1    wreg     PTR const unsigned char 
  5131 ;;		 -> OLED_Printf_Line@buf(32), 
  5132 ;;  r               2    0[COMMON] PTR const unsigned char 
  5133 ;;		 -> OLED_Printf_Line@last_text(256), 
  5134 ;; Auto vars:     Size  Location     Type
  5135 ;;  l               1    3[COMMON] PTR const unsigned char 
  5136 ;;		 -> OLED_Printf_Line@buf(32), 
  5137 ;; Return value:  Size  Location     Type
  5138 ;;                  2    0[COMMON] int 
  5139 ;; Registers used:
  5140 ;;		wreg, fsr0l, fsr0h, fsr1l, fsr1h, status,2, status,0
  5141 ;; Tracked objects:
  5142 ;;		On entry : 0/0
  5143 ;;		On exit  : 0/0
  5144 ;;		Unchanged: 0/0
  5145 ;; Data sizes:     COMMON   BANK0   BANK1   BANK2   BANK3   BANK4   BANK5   BANK6   BANK7   BANK8   BANK9  BANK10  BANK1
      +1  BANK12  BANK13  BANK14  BANK15  BANK16  BANK17  BANK18  BANK19  BANK20  BANK21  BANK22  BANK23  BANK24  BANK25
  5146 ;;      Params:         2       0       0       0       0       0       0       0       0       0       0       0       
      +0       0       0       0       0       0       0       0       0       0       0       0       0       0       0
  5147 ;;      Locals:         1       0       0       0       0       0       0       0       0       0       0       0       
      +0       0       0       0       0       0       0       0       0       0       0       0       0       0       0
  5148 ;;      Temps:          1       0       0       0       0       0       0       0       0       0       0       0       
      +0       0       0       0       0       0       0       0       0       0       0       0       0       0       0
  5149 ;;      Totals:         4       0       0       0       0       0       0       0       0       0       0       0       
      +0       0       0       0       0       0       0       0       0       0       0       0       0       0       0
  5150 ;;Total ram usage:        4 bytes
  5151 ;; Hardware stack levels used: 1
  5152 ;; This function calls:
  5153 ;;		Nothing
  5154 ;; This function is called by:
  5155 ;;		_OLED_Printf_Line
  5156 ;; This function uses a non-reentrant model
  5157 ;;
  5158                           
  5159     0D4B                     _strcmp:	
  5160                           ;psect for function _strcmp
  5161                           
  5162                           
  5163                           ;incstack = 0
  5164                           ; Regs used in _strcmp: [wreg-fsr1h+status,2+status,0]
  5165                           ;strcmp@l stored from wreg
  5166     0D4B  00F3               	movwf	strcmp@l
  5167     0D4C                     l2253:
  5168     0D4C  2D55               	goto	l2257
  5169     0D4D                     l2255:
  5170     0D4D  3001               	movlw	1
  5171     0D4E  00F2               	movwf	??_strcmp
  5172     0D4F  0872               	movf	??_strcmp,w
  5173     0D50  07F3               	addwf	strcmp@l,f
  5174     0D51  3001               	movlw	1
  5175     0D52  07F0               	addwf	strcmp@r,f
  5176     0D53  3000               	movlw	0
  5177     0D54  3DF1               	addwfc	strcmp@r+1,f
  5178     0D55                     l2257:
  5179     0D55  0870               	movf	strcmp@r,w
  5180     0D56  0086               	movwf	6
  5181     0D57  0871               	movf	strcmp@r+1,w
  5182     0D58  0087               	movwf	7
  5183     0D59  0873               	movf	strcmp@l,w
  5184     0D5A  0084               	movwf	4
  5185     0D5B  0185               	clrf	5
  5186     0D5C  0800               	movf	0,w
  5187     0D5D  0601               	xorwf	1,w
  5188     0D5E  1D03               	skipz
  5189     0D5F  2D61               	goto	u1961
  5190     0D60  2D62               	goto	u1960
  5191     0D61                     u1961:
  5192     0D61  2D6A               	goto	l2261
  5193     0D62                     u1960:
  5194     0D62                     l2259:
  5195     0D62  0873               	movf	strcmp@l,w
  5196     0D63  0086               	movwf	6
  5197     0D64  0187               	clrf	7
  5198     0D65  0801               	movf	1,w
  5199     0D66  1D03               	btfss	3,2
  5200     0D67  2D69               	goto	u1971
  5201     0D68  2D6A               	goto	u1970
  5202     0D69                     u1971:
  5203     0D69  2D4D               	goto	l2255
  5204     0D6A                     u1970:
  5205     0D6A                     l2261:
  5206     0D6A  0873               	movf	strcmp@l,w
  5207     0D6B  0086               	movwf	6
  5208     0D6C  0187               	clrf	7
  5209     0D6D  0870               	movf	strcmp@r,w
  5210     0D6E  0084               	movwf	4
  5211     0D6F  0871               	movf	strcmp@r+1,w
  5212     0D70  0085               	movwf	5
  5213     0D71  0800               	movf	0,w
  5214     0D72  0201               	subwf	1,w
  5215     0D73  00F0               	movwf	?_strcmp
  5216     0D74  01F1               	clrf	?_strcmp+1
  5217     0D75  1C03               	skipc
  5218     0D76  03F1               	decf	?_strcmp+1,f
  5219     0D77                     l931:
  5220     0D77  0008               	return
  5221     0D78                     __end_of_strcmp:
  5222                           
  5223                           	psect	text9
  5224     0CF5                     __ptext9:	
  5225 ;; *************** function _memcpy *****************
  5226 ;; Defined at:
  5227 ;;		line 4 in file "C:\Program Files\Microchip\xc8\v2.46\pic\sources\c99\common\memcpy.c"
  5228 ;; Parameters:    Size  Location     Type
  5229 ;;  d1              2    0[COMMON] PTR void 
  5230 ;;		 -> screen_buffer(512), 
  5231 ;;  s1              2    2[COMMON] PTR const void 
  5232 ;;		 -> OledFont(768), 
  5233 ;;  n               2    4[COMMON] unsigned int 
  5234 ;; Auto vars:     Size  Location     Type
  5235 ;;  s               2    8[COMMON] PTR const unsigned char 
  5236 ;;		 -> OledFont(768), 
  5237 ;;  d               2    6[COMMON] PTR unsigned char 
  5238 ;;		 -> screen_buffer(512), 
  5239 ;;  tmp             1   10[COMMON] unsigned char 
  5240 ;; Return value:  Size  Location     Type
  5241 ;;                  2    0[COMMON] PTR void 
  5242 ;; Registers used:
  5243 ;;		wreg, fsr0l, fsr0h, fsr1l, fsr1h, status,2, status,0, pclath
  5244 ;; Tracked objects:
  5245 ;;		On entry : 0/0
  5246 ;;		On exit  : 0/0
  5247 ;;		Unchanged: 0/0
  5248 ;; Data sizes:     COMMON   BANK0   BANK1   BANK2   BANK3   BANK4   BANK5   BANK6   BANK7   BANK8   BANK9  BANK10  BANK1
      +1  BANK12  BANK13  BANK14  BANK15  BANK16  BANK17  BANK18  BANK19  BANK20  BANK21  BANK22  BANK23  BANK24  BANK25
  5249 ;;      Params:         6       0       0       0       0       0       0       0       0       0       0       0       
      +0       0       0       0       0       0       0       0       0       0       0       0       0       0       0
  5250 ;;      Locals:         5       0       0       0       0       0       0       0       0       0       0       0       
      +0       0       0       0       0       0       0       0       0       0       0       0       0       0       0
  5251 ;;      Temps:          0       0       0       0       0       0       0       0       0       0       0       0       
      +0       0       0       0       0       0       0       0       0       0       0       0       0       0       0
  5252 ;;      Totals:        11       0       0       0       0       0       0       0       0       0       0       0       
      +0       0       0       0       0       0       0       0       0       0       0       0       0       0       0
  5253 ;;Total ram usage:       11 bytes
  5254 ;; Hardware stack levels used: 1
  5255 ;; This function calls:
  5256 ;;		Nothing
  5257 ;; This function is called by:
  5258 ;;		_OLED_Printf_Line
  5259 ;; This function uses a non-reentrant model
  5260 ;;
  5261                           
  5262     0CF5                     _memcpy:	
  5263                           ;psect for function _memcpy
  5264                           
  5265     0CF5                     l2269:	
  5266                           ;incstack = 0
  5267                           ; Regs used in _memcpy: [wreg-fsr1h+status,2+status,0+pclath]
  5268                           
  5269     0CF5  0873               	movf	memcpy@s1+1,w
  5270     0CF6  00F9               	movwf	memcpy@s+1
  5271     0CF7  0872               	movf	memcpy@s1,w
  5272     0CF8  00F8               	movwf	memcpy@s
  5273     0CF9  0871               	movf	memcpy@d1+1,w
  5274     0CFA  00F7               	movwf	memcpy@d+1
  5275     0CFB  0870               	movf	memcpy@d1,w
  5276     0CFC  00F6               	movwf	memcpy@d
  5277     0CFD  2D12               	goto	l2279
  5278     0CFE                     l2271:
  5279     0CFE  0878               	movf	memcpy@s,w
  5280     0CFF  0084               	movwf	4
  5281     0D00  0879               	movf	memcpy@s+1,w
  5282     0D01  0085               	movwf	5
  5283     0D02  0800               	movf	0,w	;code access
  5284     0D03  00FA               	movwf	memcpy@tmp
  5285     0D04                     l2273:
  5286     0D04  3001               	movlw	1
  5287     0D05  07F8               	addwf	memcpy@s,f
  5288     0D06  3000               	movlw	0
  5289     0D07  3DF9               	addwfc	memcpy@s+1,f
  5290     0D08                     l2275:
  5291     0D08  0876               	movf	memcpy@d,w
  5292     0D09  0086               	movwf	6
  5293     0D0A  0877               	movf	memcpy@d+1,w
  5294     0D0B  0087               	movwf	7
  5295     0D0C  087A               	movf	memcpy@tmp,w
  5296     0D0D  0081               	movwf	1
  5297     0D0E                     l2277:
  5298     0D0E  3001               	movlw	1
  5299     0D0F  07F6               	addwf	memcpy@d,f
  5300     0D10  3000               	movlw	0
  5301     0D11  3DF7               	addwfc	memcpy@d+1,f
  5302     0D12                     l2279:
  5303     0D12  3001               	movlw	1
  5304     0D13  02F4               	subwf	memcpy@n,f
  5305     0D14  3000               	movlw	0
  5306     0D15  3BF5               	subwfb	memcpy@n+1,f
  5307     0D16  0A74               	incf	memcpy@n,w
  5308     0D17  1D03               	skipz
  5309     0D18  2D1D               	goto	u1991
  5310     0D19  0A75               	incf	memcpy@n+1,w
  5311     0D1A  1D03               	btfss	3,2
  5312     0D1B  2D1D               	goto	u1991
  5313     0D1C  2D1E               	goto	u1990
  5314     0D1D                     u1991:
  5315     0D1D  2CFE               	goto	l2271
  5316     0D1E                     u1990:
  5317     0D1E                     l917:
  5318     0D1E  0008               	return
  5319     0D1F                     __end_of_memcpy:
  5320                           
  5321                           	psect	text10
  5322     0E0B                     __ptext10:	
  5323 ;; *************** function ___lwmod *****************
  5324 ;; Defined at:
  5325 ;;		line 5 in file "C:\Program Files\Microchip\xc8\v2.46\pic\sources\c99\common\lwmod.c"
  5326 ;; Parameters:    Size  Location     Type
  5327 ;;  divisor         2    0[COMMON] unsigned int 
  5328 ;;  dividend        2    2[COMMON] unsigned int 
  5329 ;; Auto vars:     Size  Location     Type
  5330 ;;  counter         1    5[COMMON] unsigned char 
  5331 ;; Return value:  Size  Location     Type
  5332 ;;                  2    0[COMMON] unsigned int 
  5333 ;; Registers used:
  5334 ;;		wreg, status,2, status,0
  5335 ;; Tracked objects:
  5336 ;;		On entry : 0/0
  5337 ;;		On exit  : 0/0
  5338 ;;		Unchanged: 0/0
  5339 ;; Data sizes:     COMMON   BANK0   BANK1   BANK2   BANK3   BANK4   BANK5   BANK6   BANK7   BANK8   BANK9  BANK10  BANK1
      +1  BANK12  BANK13  BANK14  BANK15  BANK16  BANK17  BANK18  BANK19  BANK20  BANK21  BANK22  BANK23  BANK24  BANK25
  5340 ;;      Params:         4       0       0       0       0       0       0       0       0       0       0       0       
      +0       0       0       0       0       0       0       0       0       0       0       0       0       0       0
  5341 ;;      Locals:         1       0       0       0       0       0       0       0       0       0       0       0       
      +0       0       0       0       0       0       0       0       0       0       0       0       0       0       0
  5342 ;;      Temps:          1       0       0       0       0       0       0       0       0       0       0       0       
      +0       0       0       0       0       0       0       0       0       0       0       0       0       0       0
  5343 ;;      Totals:         6       0       0       0       0       0       0       0       0       0       0       0       
      +0       0       0       0       0       0       0       0       0       0       0       0       0       0       0
  5344 ;;Total ram usage:        6 bytes
  5345 ;; Hardware stack levels used: 1
  5346 ;; This function calls:
  5347 ;;		Nothing
  5348 ;; This function is called by:
  5349 ;;		_OLED_Printf_Line
  5350 ;; This function uses a non-reentrant model
  5351 ;;
  5352                           
  5353     0E0B                     ___lwmod:	
  5354                           ;psect for function ___lwmod
  5355                           
  5356     0E0B                     l2505:	
  5357                           ;incstack = 0
  5358                           ; Regs used in ___lwmod: [wreg+status,2+status,0]
  5359                           
  5360     0E0B  0870               	movf	___lwmod@divisor,w
  5361     0E0C  0471               	iorwf	___lwmod@divisor+1,w
  5362     0E0D  1903               	btfsc	3,2
  5363     0E0E  2E10               	goto	u2581
  5364     0E0F  2E11               	goto	u2580
  5365     0E10                     u2581:
  5366     0E10  2E3A               	goto	l2523
  5367     0E11                     u2580:
  5368     0E11                     l2507:
  5369     0E11  01F5               	clrf	___lwmod@counter
  5370     0E12  0AF5               	incf	___lwmod@counter,f
  5371     0E13  2E1D               	goto	l2513
  5372     0E14                     l2509:
  5373     0E14  3001               	movlw	1
  5374     0E15                     u2595:
  5375     0E15  35F0               	lslf	___lwmod@divisor,f
  5376     0E16  0DF1               	rlf	___lwmod@divisor+1,f
  5377     0E17  0B89               	decfsz	9,f
  5378     0E18  2E15               	goto	u2595
  5379     0E19                     l2511:
  5380     0E19  3001               	movlw	1
  5381     0E1A  00F4               	movwf	??___lwmod
  5382     0E1B  0874               	movf	??___lwmod,w
  5383     0E1C  07F5               	addwf	___lwmod@counter,f
  5384     0E1D                     l2513:
  5385     0E1D  1FF1               	btfss	___lwmod@divisor+1,7
  5386     0E1E  2E20               	goto	u2601
  5387     0E1F  2E21               	goto	u2600
  5388     0E20                     u2601:
  5389     0E20  2E14               	goto	l2509
  5390     0E21                     u2600:
  5391     0E21                     l2515:
  5392     0E21  0871               	movf	___lwmod@divisor+1,w
  5393     0E22  0273               	subwf	___lwmod@dividend+1,w
  5394     0E23  1D03               	skipz
  5395     0E24  2E27               	goto	u2615
  5396     0E25  0870               	movf	___lwmod@divisor,w
  5397     0E26  0272               	subwf	___lwmod@dividend,w
  5398     0E27                     u2615:
  5399     0E27  1C03               	skipc
  5400     0E28  2E2A               	goto	u2611
  5401     0E29  2E2B               	goto	u2610
  5402     0E2A                     u2611:
  5403     0E2A  2E2F               	goto	l2519
  5404     0E2B                     u2610:
  5405     0E2B                     l2517:
  5406     0E2B  0870               	movf	___lwmod@divisor,w
  5407     0E2C  02F2               	subwf	___lwmod@dividend,f
  5408     0E2D  0871               	movf	___lwmod@divisor+1,w
  5409     0E2E  3BF3               	subwfb	___lwmod@dividend+1,f
  5410     0E2F                     l2519:
  5411     0E2F  3001               	movlw	1
  5412     0E30                     u2625:
  5413     0E30  36F1               	lsrf	___lwmod@divisor+1,f
  5414     0E31  0CF0               	rrf	___lwmod@divisor,f
  5415     0E32  0B89               	decfsz	9,f
  5416     0E33  2E30               	goto	u2625
  5417     0E34                     l2521:
  5418     0E34  3001               	movlw	1
  5419     0E35  02F5               	subwf	___lwmod@counter,f
  5420     0E36  1D03               	btfss	3,2
  5421     0E37  2E39               	goto	u2631
  5422     0E38  2E3A               	goto	u2630
  5423     0E39                     u2631:
  5424     0E39  2E21               	goto	l2515
  5425     0E3A                     u2630:
  5426     0E3A                     l2523:
  5427     0E3A  0873               	movf	___lwmod@dividend+1,w
  5428     0E3B  00F1               	movwf	?___lwmod+1
  5429     0E3C  0872               	movf	___lwmod@dividend,w
  5430     0E3D  00F0               	movwf	?___lwmod
  5431     0E3E                     l745:
  5432     0E3E  0008               	return
  5433     0E3F                     __end_of___lwmod:
  5434                           
  5435                           	psect	text11
  5436     0E3F                     __ptext11:	
  5437 ;; *************** function ___lwdiv *****************
  5438 ;; Defined at:
  5439 ;;		line 5 in file "C:\Program Files\Microchip\xc8\v2.46\pic\sources\c99\common\lwdiv.c"
  5440 ;; Parameters:    Size  Location     Type
  5441 ;;  divisor         2    0[COMMON] unsigned int 
  5442 ;;  dividend        2    2[COMMON] unsigned int 
  5443 ;; Auto vars:     Size  Location     Type
  5444 ;;  quotient        2    5[COMMON] unsigned int 
  5445 ;;  counter         1    7[COMMON] unsigned char 
  5446 ;; Return value:  Size  Location     Type
  5447 ;;                  2    0[COMMON] unsigned int 
  5448 ;; Registers used:
  5449 ;;		wreg, status,2, status,0
  5450 ;; Tracked objects:
  5451 ;;		On entry : 0/0
  5452 ;;		On exit  : 0/0
  5453 ;;		Unchanged: 0/0
  5454 ;; Data sizes:     COMMON   BANK0   BANK1   BANK2   BANK3   BANK4   BANK5   BANK6   BANK7   BANK8   BANK9  BANK10  BANK1
      +1  BANK12  BANK13  BANK14  BANK15  BANK16  BANK17  BANK18  BANK19  BANK20  BANK21  BANK22  BANK23  BANK24  BANK25
  5455 ;;      Params:         4       0       0       0       0       0       0       0       0       0       0       0       
      +0       0       0       0       0       0       0       0       0       0       0       0       0       0       0
  5456 ;;      Locals:         3       0       0       0       0       0       0       0       0       0       0       0       
      +0       0       0       0       0       0       0       0       0       0       0       0       0       0       0
  5457 ;;      Temps:          1       0       0       0       0       0       0       0       0       0       0       0       
      +0       0       0       0       0       0       0       0       0       0       0       0       0       0       0
  5458 ;;      Totals:         8       0       0       0       0       0       0       0       0       0       0       0       
      +0       0       0       0       0       0       0       0       0       0       0       0       0       0       0
  5459 ;;Total ram usage:        8 bytes
  5460 ;; Hardware stack levels used: 1
  5461 ;; This function calls:
  5462 ;;		Nothing
  5463 ;; This function is called by:
  5464 ;;		_OLED_Printf_Line
  5465 ;; This function uses a non-reentrant model
  5466 ;;
  5467                           
  5468     0E3F                     ___lwdiv:	
  5469                           ;psect for function ___lwdiv
  5470                           
  5471     0E3F                     l2479:	
  5472                           ;incstack = 0
  5473                           ; Regs used in ___lwdiv: [wreg+status,2+status,0]
  5474                           
  5475     0E3F  01F5               	clrf	___lwdiv@quotient
  5476     0E40  01F6               	clrf	___lwdiv@quotient+1
  5477     0E41                     l2481:
  5478     0E41  0870               	movf	___lwdiv@divisor,w
  5479     0E42  0471               	iorwf	___lwdiv@divisor+1,w
  5480     0E43  1903               	btfsc	3,2
  5481     0E44  2E46               	goto	u2511
  5482     0E45  2E47               	goto	u2510
  5483     0E46                     u2511:
  5484     0E46  2E76               	goto	l2501
  5485     0E47                     u2510:
  5486     0E47                     l2483:
  5487     0E47  01F7               	clrf	___lwdiv@counter
  5488     0E48  0AF7               	incf	___lwdiv@counter,f
  5489     0E49  2E53               	goto	l2489
  5490     0E4A                     l2485:
  5491     0E4A  3001               	movlw	1
  5492     0E4B                     u2525:
  5493     0E4B  35F0               	lslf	___lwdiv@divisor,f
  5494     0E4C  0DF1               	rlf	___lwdiv@divisor+1,f
  5495     0E4D  0B89               	decfsz	9,f
  5496     0E4E  2E4B               	goto	u2525
  5497     0E4F                     l2487:
  5498     0E4F  3001               	movlw	1
  5499     0E50  00F4               	movwf	??___lwdiv
  5500     0E51  0874               	movf	??___lwdiv,w
  5501     0E52  07F7               	addwf	___lwdiv@counter,f
  5502     0E53                     l2489:
  5503     0E53  1FF1               	btfss	___lwdiv@divisor+1,7
  5504     0E54  2E56               	goto	u2531
  5505     0E55  2E57               	goto	u2530
  5506     0E56                     u2531:
  5507     0E56  2E4A               	goto	l2485
  5508     0E57                     u2530:
  5509     0E57                     l2491:
  5510     0E57  3001               	movlw	1
  5511     0E58                     u2545:
  5512     0E58  35F5               	lslf	___lwdiv@quotient,f
  5513     0E59  0DF6               	rlf	___lwdiv@quotient+1,f
  5514     0E5A  0B89               	decfsz	9,f
  5515     0E5B  2E58               	goto	u2545
  5516     0E5C  0871               	movf	___lwdiv@divisor+1,w
  5517     0E5D  0273               	subwf	___lwdiv@dividend+1,w
  5518     0E5E  1D03               	skipz
  5519     0E5F  2E62               	goto	u2555
  5520     0E60  0870               	movf	___lwdiv@divisor,w
  5521     0E61  0272               	subwf	___lwdiv@dividend,w
  5522     0E62                     u2555:
  5523     0E62  1C03               	skipc
  5524     0E63  2E65               	goto	u2551
  5525     0E64  2E66               	goto	u2550
  5526     0E65                     u2551:
  5527     0E65  2E6B               	goto	l2497
  5528     0E66                     u2550:
  5529     0E66                     l2493:
  5530     0E66  0870               	movf	___lwdiv@divisor,w
  5531     0E67  02F2               	subwf	___lwdiv@dividend,f
  5532     0E68  0871               	movf	___lwdiv@divisor+1,w
  5533     0E69  3BF3               	subwfb	___lwdiv@dividend+1,f
  5534     0E6A                     l2495:
  5535     0E6A  1475               	bsf	___lwdiv@quotient,0
  5536     0E6B                     l2497:
  5537     0E6B  3001               	movlw	1
  5538     0E6C                     u2565:
  5539     0E6C  36F1               	lsrf	___lwdiv@divisor+1,f
  5540     0E6D  0CF0               	rrf	___lwdiv@divisor,f
  5541     0E6E  0B89               	decfsz	9,f
  5542     0E6F  2E6C               	goto	u2565
  5543     0E70                     l2499:
  5544     0E70  3001               	movlw	1
  5545     0E71  02F7               	subwf	___lwdiv@counter,f
  5546     0E72  1D03               	btfss	3,2
  5547     0E73  2E75               	goto	u2571
  5548     0E74  2E76               	goto	u2570
  5549     0E75                     u2571:
  5550     0E75  2E57               	goto	l2491
  5551     0E76                     u2570:
  5552     0E76                     l2501:
  5553     0E76  0876               	movf	___lwdiv@quotient+1,w
  5554     0E77  00F1               	movwf	?___lwdiv+1
  5555     0E78  0875               	movf	___lwdiv@quotient,w
  5556     0E79  00F0               	movwf	?___lwdiv
  5557     0E7A                     l735:
  5558     0E7A  0008               	return
  5559     0E7B                     __end_of___lwdiv:
  5560                           
  5561                           	psect	text12
  5562     0E7B                     __ptext12:	
  5563 ;; *************** function ___llmod *****************
  5564 ;; Defined at:
  5565 ;;		line 5 in file "C:\Program Files\Microchip\xc8\v2.46\pic\sources\c99\common\llmod.c"
  5566 ;; Parameters:    Size  Location     Type
  5567 ;;  divisor         4    0[COMMON] unsigned long 
  5568 ;;  dividend        4    4[COMMON] unsigned long 
  5569 ;; Auto vars:     Size  Location     Type
  5570 ;;  counter         1    9[COMMON] unsigned char 
  5571 ;; Return value:  Size  Location     Type
  5572 ;;                  4    0[COMMON] unsigned long 
  5573 ;; Registers used:
  5574 ;;		wreg, status,2, status,0
  5575 ;; Tracked objects:
  5576 ;;		On entry : 0/0
  5577 ;;		On exit  : 0/0
  5578 ;;		Unchanged: 0/0
  5579 ;; Data sizes:     COMMON   BANK0   BANK1   BANK2   BANK3   BANK4   BANK5   BANK6   BANK7   BANK8   BANK9  BANK10  BANK1
      +1  BANK12  BANK13  BANK14  BANK15  BANK16  BANK17  BANK18  BANK19  BANK20  BANK21  BANK22  BANK23  BANK24  BANK25
  5580 ;;      Params:         8       0       0       0       0       0       0       0       0       0       0       0       
      +0       0       0       0       0       0       0       0       0       0       0       0       0       0       0
  5581 ;;      Locals:         1       0       0       0       0       0       0       0       0       0       0       0       
      +0       0       0       0       0       0       0       0       0       0       0       0       0       0       0
  5582 ;;      Temps:          1       0       0       0       0       0       0       0       0       0       0       0       
      +0       0       0       0       0       0       0       0       0       0       0       0       0       0       0
  5583 ;;      Totals:        10       0       0       0       0       0       0       0       0       0       0       0       
      +0       0       0       0       0       0       0       0       0       0       0       0       0       0       0
  5584 ;;Total ram usage:       10 bytes
  5585 ;; Hardware stack levels used: 1
  5586 ;; This function calls:
  5587 ;;		Nothing
  5588 ;; This function is called by:
  5589 ;;		_OLED_Printf_Line
  5590 ;; This function uses a non-reentrant model
  5591 ;;
  5592                           
  5593     0E7B                     ___llmod:	
  5594                           ;psect for function ___llmod
  5595                           
  5596     0E7B                     l2459:	
  5597                           ;incstack = 0
  5598                           ; Regs used in ___llmod: [wreg+status,2+status,0]
  5599                           
  5600     0E7B  0873               	movf	___llmod@divisor+3,w
  5601     0E7C  0472               	iorwf	___llmod@divisor+2,w
  5602     0E7D  0471               	iorwf	___llmod@divisor+1,w
  5603     0E7E  0470               	iorwf	___llmod@divisor,w
  5604     0E7F  1903               	skipnz
  5605     0E80  2E82               	goto	u2451
  5606     0E81  2E83               	goto	u2450
  5607     0E82                     u2451:
  5608     0E82  2EBC               	goto	l2475
  5609     0E83                     u2450:
  5610     0E83                     l2461:
  5611     0E83  01F9               	clrf	___llmod@counter
  5612     0E84  0AF9               	incf	___llmod@counter,f
  5613     0E85  2E91               	goto	l2465
  5614     0E86                     l2463:
  5615     0E86  3001               	movlw	1
  5616     0E87                     u2465:
  5617     0E87  35F0               	lslf	___llmod@divisor,f
  5618     0E88  0DF1               	rlf	___llmod@divisor+1,f
  5619     0E89  0DF2               	rlf	___llmod@divisor+2,f
  5620     0E8A  0DF3               	rlf	___llmod@divisor+3,f
  5621     0E8B  0B89               	decfsz	9,f
  5622     0E8C  2E87               	goto	u2465
  5623     0E8D  3001               	movlw	1
  5624     0E8E  00F8               	movwf	??___llmod
  5625     0E8F  0878               	movf	??___llmod,w
  5626     0E90  07F9               	addwf	___llmod@counter,f
  5627     0E91                     l2465:
  5628     0E91  1FF3               	btfss	___llmod@divisor+3,7
  5629     0E92  2E94               	goto	u2471
  5630     0E93  2E95               	goto	u2470
  5631     0E94                     u2471:
  5632     0E94  2E86               	goto	l2463
  5633     0E95                     u2470:
  5634     0E95                     l2467:
  5635     0E95  0873               	movf	___llmod@divisor+3,w
  5636     0E96  0277               	subwf	___llmod@dividend+3,w
  5637     0E97  1D03               	skipz
  5638     0E98  2EA3               	goto	u2485
  5639     0E99  0872               	movf	___llmod@divisor+2,w
  5640     0E9A  0276               	subwf	___llmod@dividend+2,w
  5641     0E9B  1D03               	skipz
  5642     0E9C  2EA3               	goto	u2485
  5643     0E9D  0871               	movf	___llmod@divisor+1,w
  5644     0E9E  0275               	subwf	___llmod@dividend+1,w
  5645     0E9F  1D03               	skipz
  5646     0EA0  2EA3               	goto	u2485
  5647     0EA1  0870               	movf	___llmod@divisor,w
  5648     0EA2  0274               	subwf	___llmod@dividend,w
  5649     0EA3                     u2485:
  5650     0EA3  1C03               	skipc
  5651     0EA4  2EA6               	goto	u2481
  5652     0EA5  2EA7               	goto	u2480
  5653     0EA6                     u2481:
  5654     0EA6  2EAF               	goto	l2471
  5655     0EA7                     u2480:
  5656     0EA7                     l2469:
  5657     0EA7  0870               	movf	___llmod@divisor,w
  5658     0EA8  02F4               	subwf	___llmod@dividend,f
  5659     0EA9  0871               	movf	___llmod@divisor+1,w
  5660     0EAA  3BF5               	subwfb	___llmod@dividend+1,f
  5661     0EAB  0872               	movf	___llmod@divisor+2,w
  5662     0EAC  3BF6               	subwfb	___llmod@dividend+2,f
  5663     0EAD  0873               	movf	___llmod@divisor+3,w
  5664     0EAE  3BF7               	subwfb	___llmod@dividend+3,f
  5665     0EAF                     l2471:
  5666     0EAF  3001               	movlw	1
  5667     0EB0                     u2495:
  5668     0EB0  36F3               	lsrf	___llmod@divisor+3,f
  5669     0EB1  0CF2               	rrf	___llmod@divisor+2,f
  5670     0EB2  0CF1               	rrf	___llmod@divisor+1,f
  5671     0EB3  0CF0               	rrf	___llmod@divisor,f
  5672     0EB4  0B89               	decfsz	9,f
  5673     0EB5  2EB0               	goto	u2495
  5674     0EB6                     l2473:
  5675     0EB6  3001               	movlw	1
  5676     0EB7  02F9               	subwf	___llmod@counter,f
  5677     0EB8  1D03               	btfss	3,2
  5678     0EB9  2EBB               	goto	u2501
  5679     0EBA  2EBC               	goto	u2500
  5680     0EBB                     u2501:
  5681     0EBB  2E95               	goto	l2467
  5682     0EBC                     u2500:
  5683     0EBC                     l2475:
  5684     0EBC  0877               	movf	___llmod@dividend+3,w
  5685     0EBD  00F3               	movwf	?___llmod+3
  5686     0EBE  0876               	movf	___llmod@dividend+2,w
  5687     0EBF  00F2               	movwf	?___llmod+2
  5688     0EC0  0875               	movf	___llmod@dividend+1,w
  5689     0EC1  00F1               	movwf	?___llmod+1
  5690     0EC2  0874               	movf	___llmod@dividend,w
  5691     0EC3  00F0               	movwf	?___llmod
  5692     0EC4                     l685:
  5693     0EC4  0008               	return
  5694     0EC5                     __end_of___llmod:
  5695                           
  5696                           	psect	text13
  5697     0FAD                     __ptext13:	
  5698 ;; *************** function ___awmod *****************
  5699 ;; Defined at:
  5700 ;;		line 5 in file "C:\Program Files\Microchip\xc8\v2.46\pic\sources\c99\common\awmod.c"
  5701 ;; Parameters:    Size  Location     Type
  5702 ;;  divisor         2    0[COMMON] int 
  5703 ;;  dividend        2    2[COMMON] int 
  5704 ;; Auto vars:     Size  Location     Type
  5705 ;;  sign            1    6[COMMON] unsigned char 
  5706 ;;  counter         1    5[COMMON] unsigned char 
  5707 ;; Return value:  Size  Location     Type
  5708 ;;                  2    0[COMMON] int 
  5709 ;; Registers used:
  5710 ;;		wreg, status,2, status,0
  5711 ;; Tracked objects:
  5712 ;;		On entry : 0/0
  5713 ;;		On exit  : 0/0
  5714 ;;		Unchanged: 0/0
  5715 ;; Data sizes:     COMMON   BANK0   BANK1   BANK2   BANK3   BANK4   BANK5   BANK6   BANK7   BANK8   BANK9  BANK10  BANK1
      +1  BANK12  BANK13  BANK14  BANK15  BANK16  BANK17  BANK18  BANK19  BANK20  BANK21  BANK22  BANK23  BANK24  BANK25
  5716 ;;      Params:         4       0       0       0       0       0       0       0       0       0       0       0       
      +0       0       0       0       0       0       0       0       0       0       0       0       0       0       0
  5717 ;;      Locals:         2       0       0       0       0       0       0       0       0       0       0       0       
      +0       0       0       0       0       0       0       0       0       0       0       0       0       0       0
  5718 ;;      Temps:          1       0       0       0       0       0       0       0       0       0       0       0       
      +0       0       0       0       0       0       0       0       0       0       0       0       0       0       0
  5719 ;;      Totals:         7       0       0       0       0       0       0       0       0       0       0       0       
      +0       0       0       0       0       0       0       0       0       0       0       0       0       0       0
  5720 ;;Total ram usage:        7 bytes
  5721 ;; Hardware stack levels used: 1
  5722 ;; This function calls:
  5723 ;;		Nothing
  5724 ;; This function is called by:
  5725 ;;		_OLED_Printf_Line
  5726 ;; This function uses a non-reentrant model
  5727 ;;
  5728                           
  5729     0FAD                     ___awmod:	
  5730                           ;psect for function ___awmod
  5731                           
  5732     0FAD                     l2421:	
  5733                           ;incstack = 0
  5734                           ; Regs used in ___awmod: [wreg+status,2+status,0]
  5735                           
  5736     0FAD  01F6               	clrf	___awmod@sign
  5737     0FAE                     l2423:
  5738     0FAE  1FF3               	btfss	___awmod@dividend+1,7
  5739     0FAF  2FB1               	goto	u2361
  5740     0FB0  2FB2               	goto	u2360
  5741     0FB1                     u2361:
  5742     0FB1  2FB9               	goto	l2429
  5743     0FB2                     u2360:
  5744     0FB2                     l2425:
  5745     0FB2  09F2               	comf	___awmod@dividend,f
  5746     0FB3  09F3               	comf	___awmod@dividend+1,f
  5747     0FB4  0AF2               	incf	___awmod@dividend,f
  5748     0FB5  1903               	skipnz
  5749     0FB6  0AF3               	incf	___awmod@dividend+1,f
  5750     0FB7                     l2427:
  5751     0FB7  01F6               	clrf	___awmod@sign
  5752     0FB8  0AF6               	incf	___awmod@sign,f
  5753     0FB9                     l2429:
  5754     0FB9  1FF1               	btfss	___awmod@divisor+1,7
  5755     0FBA  2FBC               	goto	u2371
  5756     0FBB  2FBD               	goto	u2370
  5757     0FBC                     u2371:
  5758     0FBC  2FC2               	goto	l2433
  5759     0FBD                     u2370:
  5760     0FBD                     l2431:
  5761     0FBD  09F0               	comf	___awmod@divisor,f
  5762     0FBE  09F1               	comf	___awmod@divisor+1,f
  5763     0FBF  0AF0               	incf	___awmod@divisor,f
  5764     0FC0  1903               	skipnz
  5765     0FC1  0AF1               	incf	___awmod@divisor+1,f
  5766     0FC2                     l2433:
  5767     0FC2  0870               	movf	___awmod@divisor,w
  5768     0FC3  0471               	iorwf	___awmod@divisor+1,w
  5769     0FC4  1903               	btfsc	3,2
  5770     0FC5  2FC7               	goto	u2381
  5771     0FC6  2FC8               	goto	u2380
  5772     0FC7                     u2381:
  5773     0FC7  2FF1               	goto	l2451
  5774     0FC8                     u2380:
  5775     0FC8                     l2435:
  5776     0FC8  01F5               	clrf	___awmod@counter
  5777     0FC9  0AF5               	incf	___awmod@counter,f
  5778     0FCA  2FD4               	goto	l2441
  5779     0FCB                     l2437:
  5780     0FCB  3001               	movlw	1
  5781     0FCC                     u2395:
  5782     0FCC  35F0               	lslf	___awmod@divisor,f
  5783     0FCD  0DF1               	rlf	___awmod@divisor+1,f
  5784     0FCE  0B89               	decfsz	9,f
  5785     0FCF  2FCC               	goto	u2395
  5786     0FD0                     l2439:
  5787     0FD0  3001               	movlw	1
  5788     0FD1  00F4               	movwf	??___awmod
  5789     0FD2  0874               	movf	??___awmod,w
  5790     0FD3  07F5               	addwf	___awmod@counter,f
  5791     0FD4                     l2441:
  5792     0FD4  1FF1               	btfss	___awmod@divisor+1,7
  5793     0FD5  2FD7               	goto	u2401
  5794     0FD6  2FD8               	goto	u2400
  5795     0FD7                     u2401:
  5796     0FD7  2FCB               	goto	l2437
  5797     0FD8                     u2400:
  5798     0FD8                     l2443:
  5799     0FD8  0871               	movf	___awmod@divisor+1,w
  5800     0FD9  0273               	subwf	___awmod@dividend+1,w
  5801     0FDA  1D03               	skipz
  5802     0FDB  2FDE               	goto	u2415
  5803     0FDC  0870               	movf	___awmod@divisor,w
  5804     0FDD  0272               	subwf	___awmod@dividend,w
  5805     0FDE                     u2415:
  5806     0FDE  1C03               	skipc
  5807     0FDF  2FE1               	goto	u2411
  5808     0FE0  2FE2               	goto	u2410
  5809     0FE1                     u2411:
  5810     0FE1  2FE6               	goto	l2447
  5811     0FE2                     u2410:
  5812     0FE2                     l2445:
  5813     0FE2  0870               	movf	___awmod@divisor,w
  5814     0FE3  02F2               	subwf	___awmod@dividend,f
  5815     0FE4  0871               	movf	___awmod@divisor+1,w
  5816     0FE5  3BF3               	subwfb	___awmod@dividend+1,f
  5817     0FE6                     l2447:
  5818     0FE6  3001               	movlw	1
  5819     0FE7                     u2425:
  5820     0FE7  36F1               	lsrf	___awmod@divisor+1,f
  5821     0FE8  0CF0               	rrf	___awmod@divisor,f
  5822     0FE9  0B89               	decfsz	9,f
  5823     0FEA  2FE7               	goto	u2425
  5824     0FEB                     l2449:
  5825     0FEB  3001               	movlw	1
  5826     0FEC  02F5               	subwf	___awmod@counter,f
  5827     0FED  1D03               	btfss	3,2
  5828     0FEE  2FF0               	goto	u2431
  5829     0FEF  2FF1               	goto	u2430
  5830     0FF0                     u2431:
  5831     0FF0  2FD8               	goto	l2443
  5832     0FF1                     u2430:
  5833     0FF1                     l2451:
  5834     0FF1  0876               	movf	___awmod@sign,w
  5835     0FF2  1903               	btfsc	3,2
  5836     0FF3  2FF5               	goto	u2441
  5837     0FF4  2FF6               	goto	u2440
  5838     0FF5                     u2441:
  5839     0FF5  2FFB               	goto	l2455
  5840     0FF6                     u2440:
  5841     0FF6                     l2453:
  5842     0FF6  09F2               	comf	___awmod@dividend,f
  5843     0FF7  09F3               	comf	___awmod@dividend+1,f
  5844     0FF8  0AF2               	incf	___awmod@dividend,f
  5845     0FF9  1903               	skipnz
  5846     0FFA  0AF3               	incf	___awmod@dividend+1,f
  5847     0FFB                     l2455:
  5848     0FFB  0873               	movf	___awmod@dividend+1,w
  5849     0FFC  00F1               	movwf	?___awmod+1
  5850     0FFD  0872               	movf	___awmod@dividend,w
  5851     0FFE  00F0               	movwf	?___awmod
  5852     0FFF                     l621:
  5853     0FFF  0008               	return
  5854     1000                     __end_of___awmod:
  5855                           
  5856                           	psect	text14
  5857     00A2                     __ptext14:	
  5858 ;; *************** function ___awdiv *****************
  5859 ;; Defined at:
  5860 ;;		line 5 in file "C:\Program Files\Microchip\xc8\v2.46\pic\sources\c99\common\awdiv.c"
  5861 ;; Parameters:    Size  Location     Type
  5862 ;;  divisor         2    0[COMMON] int 
  5863 ;;  dividend        2    2[COMMON] int 
  5864 ;; Auto vars:     Size  Location     Type
  5865 ;;  quotient        2    7[COMMON] int 
  5866 ;;  sign            1    6[COMMON] unsigned char 
  5867 ;;  counter         1    5[COMMON] unsigned char 
  5868 ;; Return value:  Size  Location     Type
  5869 ;;                  2    0[COMMON] int 
  5870 ;; Registers used:
  5871 ;;		wreg, status,2, status,0
  5872 ;; Tracked objects:
  5873 ;;		On entry : 0/0
  5874 ;;		On exit  : 0/0
  5875 ;;		Unchanged: 0/0
  5876 ;; Data sizes:     COMMON   BANK0   BANK1   BANK2   BANK3   BANK4   BANK5   BANK6   BANK7   BANK8   BANK9  BANK10  BANK1
      +1  BANK12  BANK13  BANK14  BANK15  BANK16  BANK17  BANK18  BANK19  BANK20  BANK21  BANK22  BANK23  BANK24  BANK25
  5877 ;;      Params:         4       0       0       0       0       0       0       0       0       0       0       0       
      +0       0       0       0       0       0       0       0       0       0       0       0       0       0       0
  5878 ;;      Locals:         4       0       0       0       0       0       0       0       0       0       0       0       
      +0       0       0       0       0       0       0       0       0       0       0       0       0       0       0
  5879 ;;      Temps:          1       0       0       0       0       0       0       0       0       0       0       0       
      +0       0       0       0       0       0       0       0       0       0       0       0       0       0       0
  5880 ;;      Totals:         9       0       0       0       0       0       0       0       0       0       0       0       
      +0       0       0       0       0       0       0       0       0       0       0       0       0       0       0
  5881 ;;Total ram usage:        9 bytes
  5882 ;; Hardware stack levels used: 1
  5883 ;; This function calls:
  5884 ;;		Nothing
  5885 ;; This function is called by:
  5886 ;;		_main
  5887 ;;		_OLED_Printf_Line
  5888 ;;		_OLED_DrawBattery
  5889 ;; This function uses a non-reentrant model
  5890 ;;
  5891                           
  5892     00A2                     ___awdiv:	
  5893                           ;psect for function ___awdiv
  5894                           
  5895     00A2                     l2377:	
  5896                           ;incstack = 0
  5897                           ; Regs used in ___awdiv: [wreg+status,2+status,0]
  5898                           
  5899     00A2  01F6               	clrf	___awdiv@sign
  5900     00A3                     l2379:
  5901     00A3  1FF1               	btfss	___awdiv@divisor+1,7
  5902     00A4  28A6               	goto	u2261
  5903     00A5  28A7               	goto	u2260
  5904     00A6                     u2261:
  5905     00A6  28AE               	goto	l2385
  5906     00A7                     u2260:
  5907     00A7                     l2381:
  5908     00A7  09F0               	comf	___awdiv@divisor,f
  5909     00A8  09F1               	comf	___awdiv@divisor+1,f
  5910     00A9  0AF0               	incf	___awdiv@divisor,f
  5911     00AA  1903               	skipnz
  5912     00AB  0AF1               	incf	___awdiv@divisor+1,f
  5913     00AC                     l2383:
  5914     00AC  01F6               	clrf	___awdiv@sign
  5915     00AD  0AF6               	incf	___awdiv@sign,f
  5916     00AE                     l2385:
  5917     00AE  1FF3               	btfss	___awdiv@dividend+1,7
  5918     00AF  28B1               	goto	u2271
  5919     00B0  28B2               	goto	u2270
  5920     00B1                     u2271:
  5921     00B1  28BB               	goto	l2391
  5922     00B2                     u2270:
  5923     00B2                     l2387:
  5924     00B2  09F2               	comf	___awdiv@dividend,f
  5925     00B3  09F3               	comf	___awdiv@dividend+1,f
  5926     00B4  0AF2               	incf	___awdiv@dividend,f
  5927     00B5  1903               	skipnz
  5928     00B6  0AF3               	incf	___awdiv@dividend+1,f
  5929     00B7                     l2389:
  5930     00B7  3001               	movlw	1
  5931     00B8  00F4               	movwf	??___awdiv
  5932     00B9  0874               	movf	??___awdiv,w
  5933     00BA  06F6               	xorwf	___awdiv@sign,f
  5934     00BB                     l2391:
  5935     00BB  01F7               	clrf	___awdiv@quotient
  5936     00BC  01F8               	clrf	___awdiv@quotient+1
  5937     00BD                     l2393:
  5938     00BD  0870               	movf	___awdiv@divisor,w
  5939     00BE  0471               	iorwf	___awdiv@divisor+1,w
  5940     00BF  1903               	btfsc	3,2
  5941     00C0  28C2               	goto	u2281
  5942     00C1  28C3               	goto	u2280
  5943     00C2                     u2281:
  5944     00C2  28F2               	goto	l2413
  5945     00C3                     u2280:
  5946     00C3                     l2395:
  5947     00C3  01F5               	clrf	___awdiv@counter
  5948     00C4  0AF5               	incf	___awdiv@counter,f
  5949     00C5  28CF               	goto	l2401
  5950     00C6                     l2397:
  5951     00C6  3001               	movlw	1
  5952     00C7                     u2295:
  5953     00C7  35F0               	lslf	___awdiv@divisor,f
  5954     00C8  0DF1               	rlf	___awdiv@divisor+1,f
  5955     00C9  0B89               	decfsz	9,f
  5956     00CA  28C7               	goto	u2295
  5957     00CB                     l2399:
  5958     00CB  3001               	movlw	1
  5959     00CC  00F4               	movwf	??___awdiv
  5960     00CD  0874               	movf	??___awdiv,w
  5961     00CE  07F5               	addwf	___awdiv@counter,f
  5962     00CF                     l2401:
  5963     00CF  1FF1               	btfss	___awdiv@divisor+1,7
  5964     00D0  28D2               	goto	u2301
  5965     00D1  28D3               	goto	u2300
  5966     00D2                     u2301:
  5967     00D2  28C6               	goto	l2397
  5968     00D3                     u2300:
  5969     00D3                     l2403:
  5970     00D3  3001               	movlw	1
  5971     00D4                     u2315:
  5972     00D4  35F7               	lslf	___awdiv@quotient,f
  5973     00D5  0DF8               	rlf	___awdiv@quotient+1,f
  5974     00D6  0B89               	decfsz	9,f
  5975     00D7  28D4               	goto	u2315
  5976     00D8  0871               	movf	___awdiv@divisor+1,w
  5977     00D9  0273               	subwf	___awdiv@dividend+1,w
  5978     00DA  1D03               	skipz
  5979     00DB  28DE               	goto	u2325
  5980     00DC  0870               	movf	___awdiv@divisor,w
  5981     00DD  0272               	subwf	___awdiv@dividend,w
  5982     00DE                     u2325:
  5983     00DE  1C03               	skipc
  5984     00DF  28E1               	goto	u2321
  5985     00E0  28E2               	goto	u2320
  5986     00E1                     u2321:
  5987     00E1  28E7               	goto	l2409
  5988     00E2                     u2320:
  5989     00E2                     l2405:
  5990     00E2  0870               	movf	___awdiv@divisor,w
  5991     00E3  02F2               	subwf	___awdiv@dividend,f
  5992     00E4  0871               	movf	___awdiv@divisor+1,w
  5993     00E5  3BF3               	subwfb	___awdiv@dividend+1,f
  5994     00E6                     l2407:
  5995     00E6  1477               	bsf	___awdiv@quotient,0
  5996     00E7                     l2409:
  5997     00E7  3001               	movlw	1
  5998     00E8                     u2335:
  5999     00E8  36F1               	lsrf	___awdiv@divisor+1,f
  6000     00E9  0CF0               	rrf	___awdiv@divisor,f
  6001     00EA  0B89               	decfsz	9,f
  6002     00EB  28E8               	goto	u2335
  6003     00EC                     l2411:
  6004     00EC  3001               	movlw	1
  6005     00ED  02F5               	subwf	___awdiv@counter,f
  6006     00EE  1D03               	btfss	3,2
  6007     00EF  28F1               	goto	u2341
  6008     00F0  28F2               	goto	u2340
  6009     00F1                     u2341:
  6010     00F1  28D3               	goto	l2403
  6011     00F2                     u2340:
  6012     00F2                     l2413:
  6013     00F2  0876               	movf	___awdiv@sign,w
  6014     00F3  1903               	btfsc	3,2
  6015     00F4  28F6               	goto	u2351
  6016     00F5  28F7               	goto	u2350
  6017     00F6                     u2351:
  6018     00F6  28FC               	goto	l2417
  6019     00F7                     u2350:
  6020     00F7                     l2415:
  6021     00F7  09F7               	comf	___awdiv@quotient,f
  6022     00F8  09F8               	comf	___awdiv@quotient+1,f
  6023     00F9  0AF7               	incf	___awdiv@quotient,f
  6024     00FA  1903               	skipnz
  6025     00FB  0AF8               	incf	___awdiv@quotient+1,f
  6026     00FC                     l2417:
  6027     00FC  0878               	movf	___awdiv@quotient+1,w
  6028     00FD  00F1               	movwf	?___awdiv+1
  6029     00FE  0877               	movf	___awdiv@quotient,w
  6030     00FF  00F0               	movwf	?___awdiv
  6031     0100                     l608:
  6032     0100  0008               	return
  6033     0101                     __end_of___awdiv:
  6034                           
  6035                           	psect	text15
  6036     0247                     __ptext15:	
  6037 ;; *************** function ___almod *****************
  6038 ;; Defined at:
  6039 ;;		line 5 in file "C:\Program Files\Microchip\xc8\v2.46\pic\sources\c99\common\almod.c"
  6040 ;; Parameters:    Size  Location     Type
  6041 ;;  divisor         4    0[COMMON] long 
  6042 ;;  dividend        4    4[COMMON] long 
  6043 ;; Auto vars:     Size  Location     Type
  6044 ;;  sign            1   10[COMMON] unsigned char 
  6045 ;;  counter         1    9[COMMON] unsigned char 
  6046 ;; Return value:  Size  Location     Type
  6047 ;;                  4    0[COMMON] long 
  6048 ;; Registers used:
  6049 ;;		wreg, status,2, status,0
  6050 ;; Tracked objects:
  6051 ;;		On entry : 0/0
  6052 ;;		On exit  : 0/0
  6053 ;;		Unchanged: 0/0
  6054 ;; Data sizes:     COMMON   BANK0   BANK1   BANK2   BANK3   BANK4   BANK5   BANK6   BANK7   BANK8   BANK9  BANK10  BANK1
      +1  BANK12  BANK13  BANK14  BANK15  BANK16  BANK17  BANK18  BANK19  BANK20  BANK21  BANK22  BANK23  BANK24  BANK25
  6055 ;;      Params:         8       0       0       0       0       0       0       0       0       0       0       0       
      +0       0       0       0       0       0       0       0       0       0       0       0       0       0       0
  6056 ;;      Locals:         2       0       0       0       0       0       0       0       0       0       0       0       
      +0       0       0       0       0       0       0       0       0       0       0       0       0       0       0
  6057 ;;      Temps:          1       0       0       0       0       0       0       0       0       0       0       0       
      +0       0       0       0       0       0       0       0       0       0       0       0       0       0       0
  6058 ;;      Totals:        11       0       0       0       0       0       0       0       0       0       0       0       
      +0       0       0       0       0       0       0       0       0       0       0       0       0       0       0
  6059 ;;Total ram usage:       11 bytes
  6060 ;; Hardware stack levels used: 1
  6061 ;; This function calls:
  6062 ;;		Nothing
  6063 ;; This function is called by:
  6064 ;;		_OLED_Printf_Line
  6065 ;; This function uses a non-reentrant model
  6066 ;;
  6067                           
  6068     0247                     ___almod:	
  6069                           ;psect for function ___almod
  6070                           
  6071     0247                     l2345:	
  6072                           ;incstack = 0
  6073                           ; Regs used in ___almod: [wreg+status,2+status,0]
  6074                           
  6075     0247  01FA               	clrf	___almod@sign
  6076     0248                     l2347:
  6077     0248  1FF7               	btfss	___almod@dividend+3,7
  6078     0249  2A4B               	goto	u2171
  6079     024A  2A4C               	goto	u2170
  6080     024B                     u2171:
  6081     024B  2A59               	goto	l533
  6082     024C                     u2170:
  6083     024C                     l2349:
  6084     024C  09F4               	comf	___almod@dividend,f
  6085     024D  09F5               	comf	___almod@dividend+1,f
  6086     024E  09F6               	comf	___almod@dividend+2,f
  6087     024F  09F7               	comf	___almod@dividend+3,f
  6088     0250  0AF4               	incf	___almod@dividend,f
  6089     0251  1903               	skipnz
  6090     0252  0AF5               	incf	___almod@dividend+1,f
  6091     0253  1903               	skipnz
  6092     0254  0AF6               	incf	___almod@dividend+2,f
  6093     0255  1903               	skipnz
  6094     0256  0AF7               	incf	___almod@dividend+3,f
  6095     0257  01FA               	clrf	___almod@sign
  6096     0258  0AFA               	incf	___almod@sign,f
  6097     0259                     l533:
  6098     0259  1FF3               	btfss	___almod@divisor+3,7
  6099     025A  2A5C               	goto	u2181
  6100     025B  2A5D               	goto	u2180
  6101     025C                     u2181:
  6102     025C  2A68               	goto	l2353
  6103     025D                     u2180:
  6104     025D                     l2351:
  6105     025D  09F0               	comf	___almod@divisor,f
  6106     025E  09F1               	comf	___almod@divisor+1,f
  6107     025F  09F2               	comf	___almod@divisor+2,f
  6108     0260  09F3               	comf	___almod@divisor+3,f
  6109     0261  0AF0               	incf	___almod@divisor,f
  6110     0262  1903               	skipnz
  6111     0263  0AF1               	incf	___almod@divisor+1,f
  6112     0264  1903               	skipnz
  6113     0265  0AF2               	incf	___almod@divisor+2,f
  6114     0266  1903               	skipnz
  6115     0267  0AF3               	incf	___almod@divisor+3,f
  6116     0268                     l2353:
  6117     0268  0873               	movf	___almod@divisor+3,w
  6118     0269  0472               	iorwf	___almod@divisor+2,w
  6119     026A  0471               	iorwf	___almod@divisor+1,w
  6120     026B  0470               	iorwf	___almod@divisor,w
  6121     026C  1903               	skipnz
  6122     026D  2A6F               	goto	u2191
  6123     026E  2A70               	goto	u2190
  6124     026F                     u2191:
  6125     026F  2AA9               	goto	l2369
  6126     0270                     u2190:
  6127     0270                     l2355:
  6128     0270  01F9               	clrf	___almod@counter
  6129     0271  0AF9               	incf	___almod@counter,f
  6130     0272  2A7E               	goto	l2359
  6131     0273                     l2357:
  6132     0273  3001               	movlw	1
  6133     0274                     u2205:
  6134     0274  35F0               	lslf	___almod@divisor,f
  6135     0275  0DF1               	rlf	___almod@divisor+1,f
  6136     0276  0DF2               	rlf	___almod@divisor+2,f
  6137     0277  0DF3               	rlf	___almod@divisor+3,f
  6138     0278  0B89               	decfsz	9,f
  6139     0279  2A74               	goto	u2205
  6140     027A  3001               	movlw	1
  6141     027B  00F8               	movwf	??___almod
  6142     027C  0878               	movf	??___almod,w
  6143     027D  07F9               	addwf	___almod@counter,f
  6144     027E                     l2359:
  6145     027E  1FF3               	btfss	___almod@divisor+3,7
  6146     027F  2A81               	goto	u2211
  6147     0280  2A82               	goto	u2210
  6148     0281                     u2211:
  6149     0281  2A73               	goto	l2357
  6150     0282                     u2210:
  6151     0282                     l2361:
  6152     0282  0873               	movf	___almod@divisor+3,w
  6153     0283  0277               	subwf	___almod@dividend+3,w
  6154     0284  1D03               	skipz
  6155     0285  2A90               	goto	u2225
  6156     0286  0872               	movf	___almod@divisor+2,w
  6157     0287  0276               	subwf	___almod@dividend+2,w
  6158     0288  1D03               	skipz
  6159     0289  2A90               	goto	u2225
  6160     028A  0871               	movf	___almod@divisor+1,w
  6161     028B  0275               	subwf	___almod@dividend+1,w
  6162     028C  1D03               	skipz
  6163     028D  2A90               	goto	u2225
  6164     028E  0870               	movf	___almod@divisor,w
  6165     028F  0274               	subwf	___almod@dividend,w
  6166     0290                     u2225:
  6167     0290  1C03               	skipc
  6168     0291  2A93               	goto	u2221
  6169     0292  2A94               	goto	u2220
  6170     0293                     u2221:
  6171     0293  2A9C               	goto	l2365
  6172     0294                     u2220:
  6173     0294                     l2363:
  6174     0294  0870               	movf	___almod@divisor,w
  6175     0295  02F4               	subwf	___almod@dividend,f
  6176     0296  0871               	movf	___almod@divisor+1,w
  6177     0297  3BF5               	subwfb	___almod@dividend+1,f
  6178     0298  0872               	movf	___almod@divisor+2,w
  6179     0299  3BF6               	subwfb	___almod@dividend+2,f
  6180     029A  0873               	movf	___almod@divisor+3,w
  6181     029B  3BF7               	subwfb	___almod@dividend+3,f
  6182     029C                     l2365:
  6183     029C  3001               	movlw	1
  6184     029D                     u2235:
  6185     029D  36F3               	lsrf	___almod@divisor+3,f
  6186     029E  0CF2               	rrf	___almod@divisor+2,f
  6187     029F  0CF1               	rrf	___almod@divisor+1,f
  6188     02A0  0CF0               	rrf	___almod@divisor,f
  6189     02A1  0B89               	decfsz	9,f
  6190     02A2  2A9D               	goto	u2235
  6191     02A3                     l2367:
  6192     02A3  3001               	movlw	1
  6193     02A4  02F9               	subwf	___almod@counter,f
  6194     02A5  1D03               	btfss	3,2
  6195     02A6  2AA8               	goto	u2241
  6196     02A7  2AA9               	goto	u2240
  6197     02A8                     u2241:
  6198     02A8  2A82               	goto	l2361
  6199     02A9                     u2240:
  6200     02A9                     l2369:
  6201     02A9  087A               	movf	___almod@sign,w
  6202     02AA  1903               	btfsc	3,2
  6203     02AB  2AAD               	goto	u2251
  6204     02AC  2AAE               	goto	u2250
  6205     02AD                     u2251:
  6206     02AD  2AB9               	goto	l2373
  6207     02AE                     u2250:
  6208     02AE                     l2371:
  6209     02AE  09F4               	comf	___almod@dividend,f
  6210     02AF  09F5               	comf	___almod@dividend+1,f
  6211     02B0  09F6               	comf	___almod@dividend+2,f
  6212     02B1  09F7               	comf	___almod@dividend+3,f
  6213     02B2  0AF4               	incf	___almod@dividend,f
  6214     02B3  1903               	skipnz
  6215     02B4  0AF5               	incf	___almod@dividend+1,f
  6216     02B5  1903               	skipnz
  6217     02B6  0AF6               	incf	___almod@dividend+2,f
  6218     02B7  1903               	skipnz
  6219     02B8  0AF7               	incf	___almod@dividend+3,f
  6220     02B9                     l2373:
  6221     02B9  0877               	movf	___almod@dividend+3,w
  6222     02BA  00F3               	movwf	?___almod+3
  6223     02BB  0876               	movf	___almod@dividend+2,w
  6224     02BC  00F2               	movwf	?___almod+2
  6225     02BD  0875               	movf	___almod@dividend+1,w
  6226     02BE  00F1               	movwf	?___almod+1
  6227     02BF  0874               	movf	___almod@dividend,w
  6228     02C0  00F0               	movwf	?___almod
  6229     02C1                     l543:
  6230     02C1  0008               	return
  6231     02C2                     __end_of___almod:
  6232                           
  6233                           	psect	text16
  6234     033D                     __ptext16:	
  6235 ;; *************** function ___aldiv *****************
  6236 ;; Defined at:
  6237 ;;		line 5 in file "C:\Program Files\Microchip\xc8\v2.46\pic\sources\c99\common\aldiv.c"
  6238 ;; Parameters:    Size  Location     Type
  6239 ;;  divisor         4    0[COMMON] long 
  6240 ;;  dividend        4    4[COMMON] long 
  6241 ;; Auto vars:     Size  Location     Type
  6242 ;;  quotient        4    2[BANK0 ] long 
  6243 ;;  sign            1    1[BANK0 ] unsigned char 
  6244 ;;  counter         1    0[BANK0 ] unsigned char 
  6245 ;; Return value:  Size  Location     Type
  6246 ;;                  4    0[COMMON] long 
  6247 ;; Registers used:
  6248 ;;		wreg, status,2, status,0
  6249 ;; Tracked objects:
  6250 ;;		On entry : 0/0
  6251 ;;		On exit  : 0/0
  6252 ;;		Unchanged: 0/0
  6253 ;; Data sizes:     COMMON   BANK0   BANK1   BANK2   BANK3   BANK4   BANK5   BANK6   BANK7   BANK8   BANK9  BANK10  BANK1
      +1  BANK12  BANK13  BANK14  BANK15  BANK16  BANK17  BANK18  BANK19  BANK20  BANK21  BANK22  BANK23  BANK24  BANK25
  6254 ;;      Params:         8       0       0       0       0       0       0       0       0       0       0       0       
      +0       0       0       0       0       0       0       0       0       0       0       0       0       0       0
  6255 ;;      Locals:         0       6       0       0       0       0       0       0       0       0       0       0       
      +0       0       0       0       0       0       0       0       0       0       0       0       0       0       0
  6256 ;;      Temps:          1       0       0       0       0       0       0       0       0       0       0       0       
      +0       0       0       0       0       0       0       0       0       0       0       0       0       0       0
  6257 ;;      Totals:         9       6       0       0       0       0       0       0       0       0       0       0       
      +0       0       0       0       0       0       0       0       0       0       0       0       0       0       0
  6258 ;;Total ram usage:       15 bytes
  6259 ;; Hardware stack levels used: 1
  6260 ;; This function calls:
  6261 ;;		Nothing
  6262 ;; This function is called by:
  6263 ;;		_OLED_Printf_Line
  6264 ;; This function uses a non-reentrant model
  6265 ;;
  6266                           
  6267     033D                     ___aldiv:	
  6268                           ;psect for function ___aldiv
  6269                           
  6270     033D                     l2305:	
  6271                           ;incstack = 0
  6272                           ; Regs used in ___aldiv: [wreg+status,2+status,0]
  6273                           
  6274     033D  0020               	movlb	0	; select bank0
  6275     033E  01A1               	clrf	___aldiv@sign
  6276     033F                     l2307:
  6277     033F  1FF3               	btfss	___aldiv@divisor+3,7
  6278     0340  2B42               	goto	u2071
  6279     0341  2B43               	goto	u2070
  6280     0342                     u2071:
  6281     0342  2B50               	goto	l520
  6282     0343                     u2070:
  6283     0343                     l2309:
  6284     0343  09F0               	comf	___aldiv@divisor,f
  6285     0344  09F1               	comf	___aldiv@divisor+1,f
  6286     0345  09F2               	comf	___aldiv@divisor+2,f
  6287     0346  09F3               	comf	___aldiv@divisor+3,f
  6288     0347  0AF0               	incf	___aldiv@divisor,f
  6289     0348  1903               	skipnz
  6290     0349  0AF1               	incf	___aldiv@divisor+1,f
  6291     034A  1903               	skipnz
  6292     034B  0AF2               	incf	___aldiv@divisor+2,f
  6293     034C  1903               	skipnz
  6294     034D  0AF3               	incf	___aldiv@divisor+3,f
  6295     034E  01A1               	clrf	___aldiv@sign
  6296     034F  0AA1               	incf	___aldiv@sign,f
  6297     0350                     l520:
  6298     0350  1FF7               	btfss	___aldiv@dividend+3,7
  6299     0351  2B53               	goto	u2081
  6300     0352  2B54               	goto	u2080
  6301     0353                     u2081:
  6302     0353  2B63               	goto	l2315
  6303     0354                     u2080:
  6304     0354                     l2311:
  6305     0354  09F4               	comf	___aldiv@dividend,f
  6306     0355  09F5               	comf	___aldiv@dividend+1,f
  6307     0356  09F6               	comf	___aldiv@dividend+2,f
  6308     0357  09F7               	comf	___aldiv@dividend+3,f
  6309     0358  0AF4               	incf	___aldiv@dividend,f
  6310     0359  1903               	skipnz
  6311     035A  0AF5               	incf	___aldiv@dividend+1,f
  6312     035B  1903               	skipnz
  6313     035C  0AF6               	incf	___aldiv@dividend+2,f
  6314     035D  1903               	skipnz
  6315     035E  0AF7               	incf	___aldiv@dividend+3,f
  6316     035F                     l2313:
  6317     035F  3001               	movlw	1
  6318     0360  00F8               	movwf	??___aldiv
  6319     0361  0878               	movf	??___aldiv,w
  6320     0362  06A1               	xorwf	___aldiv@sign,f
  6321     0363                     l2315:
  6322     0363  3000               	movlw	0
  6323     0364  00A5               	movwf	___aldiv@quotient+3
  6324     0365  3000               	movlw	0
  6325     0366  00A4               	movwf	___aldiv@quotient+2
  6326     0367  3000               	movlw	0
  6327     0368  00A3               	movwf	___aldiv@quotient+1
  6328     0369  3000               	movlw	0
  6329     036A  00A2               	movwf	___aldiv@quotient
  6330     036B                     l2317:
  6331     036B  0873               	movf	___aldiv@divisor+3,w
  6332     036C  0472               	iorwf	___aldiv@divisor+2,w
  6333     036D  0471               	iorwf	___aldiv@divisor+1,w
  6334     036E  0470               	iorwf	___aldiv@divisor,w
  6335     036F  1903               	skipnz
  6336     0370  2B72               	goto	u2091
  6337     0371  2B73               	goto	u2090
  6338     0372                     u2091:
  6339     0372  2BB4               	goto	l2337
  6340     0373                     u2090:
  6341     0373                     l2319:
  6342     0373  01A0               	clrf	___aldiv@counter
  6343     0374  0AA0               	incf	___aldiv@counter,f
  6344     0375  2B81               	goto	l2323
  6345     0376                     l2321:
  6346     0376  3001               	movlw	1
  6347     0377                     u2105:
  6348     0377  35F0               	lslf	___aldiv@divisor,f
  6349     0378  0DF1               	rlf	___aldiv@divisor+1,f
  6350     0379  0DF2               	rlf	___aldiv@divisor+2,f
  6351     037A  0DF3               	rlf	___aldiv@divisor+3,f
  6352     037B  0B89               	decfsz	9,f
  6353     037C  2B77               	goto	u2105
  6354     037D  3001               	movlw	1
  6355     037E  00F8               	movwf	??___aldiv
  6356     037F  0878               	movf	??___aldiv,w
  6357     0380  07A0               	addwf	___aldiv@counter,f
  6358     0381                     l2323:
  6359     0381  1FF3               	btfss	___aldiv@divisor+3,7
  6360     0382  2B84               	goto	u2111
  6361     0383  2B85               	goto	u2110
  6362     0384                     u2111:
  6363     0384  2B76               	goto	l2321
  6364     0385                     u2110:
  6365     0385                     l2325:
  6366     0385  3001               	movlw	1
  6367     0386                     u2125:
  6368     0386  35A2               	lslf	___aldiv@quotient,f
  6369     0387  0DA3               	rlf	___aldiv@quotient+1,f
  6370     0388  0DA4               	rlf	___aldiv@quotient+2,f
  6371     0389  0DA5               	rlf	___aldiv@quotient+3,f
  6372     038A  0B89               	decfsz	9,f
  6373     038B  2B86               	goto	u2125
  6374     038C                     l2327:
  6375     038C  0873               	movf	___aldiv@divisor+3,w
  6376     038D  0277               	subwf	___aldiv@dividend+3,w
  6377     038E  1D03               	skipz
  6378     038F  2B9A               	goto	u2135
  6379     0390  0872               	movf	___aldiv@divisor+2,w
  6380     0391  0276               	subwf	___aldiv@dividend+2,w
  6381     0392  1D03               	skipz
  6382     0393  2B9A               	goto	u2135
  6383     0394  0871               	movf	___aldiv@divisor+1,w
  6384     0395  0275               	subwf	___aldiv@dividend+1,w
  6385     0396  1D03               	skipz
  6386     0397  2B9A               	goto	u2135
  6387     0398  0870               	movf	___aldiv@divisor,w
  6388     0399  0274               	subwf	___aldiv@dividend,w
  6389     039A                     u2135:
  6390     039A  1C03               	skipc
  6391     039B  2B9D               	goto	u2131
  6392     039C  2B9E               	goto	u2130
  6393     039D                     u2131:
  6394     039D  2BA7               	goto	l2333
  6395     039E                     u2130:
  6396     039E                     l2329:
  6397     039E  0870               	movf	___aldiv@divisor,w
  6398     039F  02F4               	subwf	___aldiv@dividend,f
  6399     03A0  0871               	movf	___aldiv@divisor+1,w
  6400     03A1  3BF5               	subwfb	___aldiv@dividend+1,f
  6401     03A2  0872               	movf	___aldiv@divisor+2,w
  6402     03A3  3BF6               	subwfb	___aldiv@dividend+2,f
  6403     03A4  0873               	movf	___aldiv@divisor+3,w
  6404     03A5  3BF7               	subwfb	___aldiv@dividend+3,f
  6405     03A6                     l2331:
  6406     03A6  1422               	bsf	___aldiv@quotient,0
  6407     03A7                     l2333:
  6408     03A7  3001               	movlw	1
  6409     03A8                     u2145:
  6410     03A8  36F3               	lsrf	___aldiv@divisor+3,f
  6411     03A9  0CF2               	rrf	___aldiv@divisor+2,f
  6412     03AA  0CF1               	rrf	___aldiv@divisor+1,f
  6413     03AB  0CF0               	rrf	___aldiv@divisor,f
  6414     03AC  0B89               	decfsz	9,f
  6415     03AD  2BA8               	goto	u2145
  6416     03AE                     l2335:
  6417     03AE  3001               	movlw	1
  6418     03AF  02A0               	subwf	___aldiv@counter,f
  6419     03B0  1D03               	btfss	3,2
  6420     03B1  2BB3               	goto	u2151
  6421     03B2  2BB4               	goto	u2150
  6422     03B3                     u2151:
  6423     03B3  2B85               	goto	l2325
  6424     03B4                     u2150:
  6425     03B4                     l2337:
  6426     03B4  0821               	movf	___aldiv@sign,w
  6427     03B5  1903               	btfsc	3,2
  6428     03B6  2BB8               	goto	u2161
  6429     03B7  2BB9               	goto	u2160
  6430     03B8                     u2161:
  6431     03B8  2BC4               	goto	l2341
  6432     03B9                     u2160:
  6433     03B9                     l2339:
  6434     03B9  09A2               	comf	___aldiv@quotient,f
  6435     03BA  09A3               	comf	___aldiv@quotient+1,f
  6436     03BB  09A4               	comf	___aldiv@quotient+2,f
  6437     03BC  09A5               	comf	___aldiv@quotient+3,f
  6438     03BD  0AA2               	incf	___aldiv@quotient,f
  6439     03BE  1903               	skipnz
  6440     03BF  0AA3               	incf	___aldiv@quotient+1,f
  6441     03C0  1903               	skipnz
  6442     03C1  0AA4               	incf	___aldiv@quotient+2,f
  6443     03C2  1903               	skipnz
  6444     03C3  0AA5               	incf	___aldiv@quotient+3,f
  6445     03C4                     l2341:
  6446     03C4  0825               	movf	___aldiv@quotient+3,w
  6447     03C5  00F3               	movwf	?___aldiv+3
  6448     03C6  0824               	movf	___aldiv@quotient+2,w
  6449     03C7  00F2               	movwf	?___aldiv+2
  6450     03C8  0823               	movf	___aldiv@quotient+1,w
  6451     03C9  00F1               	movwf	?___aldiv+1
  6452     03CA  0822               	movf	___aldiv@quotient,w
  6453     03CB  00F0               	movwf	?___aldiv
  6454     03CC                     l530:
  6455     03CC  0008               	return
  6456     03CD                     __end_of___aldiv:
  6457                           
  6458                           	psect	text17
  6459     0D1F                     __ptext17:	
  6460 ;; *************** function _OLED_UpdateLine *****************
  6461 ;; Defined at:
  6462 ;;		line 370 in file "OLED_SSD1306.c"
  6463 ;; Parameters:    Size  Location     Type
  6464 ;;  page            1    wreg     unsigned char 
  6465 ;; Auto vars:     Size  Location     Type
  6466 ;;  page            1   12[COMMON] unsigned char 
  6467 ;; Return value:  Size  Location     Type
  6468 ;;                  1    wreg      void 
  6469 ;; Registers used:
  6470 ;;		wreg, fsr0l, fsr0h, status,2, status,0, pclath, cstack
  6471 ;; Tracked objects:
  6472 ;;		On entry : 0/0
  6473 ;;		On exit  : 0/0
  6474 ;;		Unchanged: 0/0
  6475 ;; Data sizes:     COMMON   BANK0   BANK1   BANK2   BANK3   BANK4   BANK5   BANK6   BANK7   BANK8   BANK9  BANK10  BANK1
      +1  BANK12  BANK13  BANK14  BANK15  BANK16  BANK17  BANK18  BANK19  BANK20  BANK21  BANK22  BANK23  BANK24  BANK25
  6476 ;;      Params:         0       0       0       0       0       0       0       0       0       0       0       0       
      +0       0       0       0       0       0       0       0       0       0       0       0       0       0       0
  6477 ;;      Locals:         1       0       0       0       0       0       0       0       0       0       0       0       
      +0       0       0       0       0       0       0       0       0       0       0       0       0       0       0
  6478 ;;      Temps:          0       6       0       0       0       0       0       0       0       0       0       0       
      +0       0       0       0       0       0       0       0       0       0       0       0       0       0       0
  6479 ;;      Totals:         1       6       0       0       0       0       0       0       0       0       0       0       
      +0       0       0       0       0       0       0       0       0       0       0       0       0       0       0
  6480 ;;Total ram usage:        7 bytes
  6481 ;; Hardware stack levels used: 1
  6482 ;; Hardware stack levels required when called: 4
  6483 ;; This function calls:
  6484 ;;		_OLED_WriteData
  6485 ;;		_OLED_YX
  6486 ;; This function is called by:
  6487 ;;		_OLED_Printf_Line
  6488 ;; This function uses a non-reentrant model
  6489 ;;
  6490                           
  6491     0D1F                     _OLED_UpdateLine:	
  6492                           ;psect for function _OLED_UpdateLine
  6493                           
  6494                           
  6495                           ;incstack = 0
  6496                           ; Regs used in _OLED_UpdateLine: [wreg-fsr0h+status,2+status,0+pclath+cstack]
  6497                           ;OLED_UpdateLine@page stored from wreg
  6498     0D1F  00FC               	movwf	OLED_UpdateLine@page
  6499     0D20                     l2245:
  6500                           
  6501                           ;OLED_SSD1306.c: 370: void OLED_UpdateLine(uint8_t page);OLED_SSD1306.c: 371: {;OLED_SSD
      +                          1306.c: 372:     if (page >= (32 / 8)) return;
  6502     0D20  3004               	movlw	4
  6503     0D21  027C               	subwf	OLED_UpdateLine@page,w
  6504     0D22  1C03               	skipc
  6505     0D23  2D25               	goto	u1941
  6506     0D24  2D26               	goto	u1940
  6507     0D25                     u1941:
  6508     0D25  2D27               	goto	l2249
  6509     0D26                     u1940:
  6510     0D26  2D4A               	goto	l239
  6511     0D27                     l2249:
  6512                           
  6513                           ;OLED_SSD1306.c: 374:     OLED_YX(page, 0);
  6514     0D27  01F7               	clrf	OLED_YX@col_char
  6515     0D28  087C               	movf	OLED_UpdateLine@page,w
  6516     0D29  318C  2467  318D   	fcall	_OLED_YX
  6517     0D2C                     l2251:
  6518                           
  6519                           ;OLED_SSD1306.c: 375:     (void)OLED_WriteData(screen_buffer[page], 128);
  6520     0D2C  087C               	movf	OLED_UpdateLine@page,w
  6521     0D2D  0020               	movlb	0	; select bank0
  6522     0D2E  00A0               	movwf	??_OLED_UpdateLine
  6523     0D2F  01A1               	clrf	??_OLED_UpdateLine+1
  6524     0D30  3007               	movlw	7
  6525     0D31                     u1955:
  6526     0D31  35A0               	lslf	??_OLED_UpdateLine,f
  6527     0D32  0DA1               	rlf	??_OLED_UpdateLine+1,f
  6528     0D33  0B89               	decfsz	9,f
  6529     0D34  2D31               	goto	u1955
  6530     0D35  30F0               	movlw	240
  6531     0D36  00A2               	movwf	??_OLED_UpdateLine+2
  6532     0D37  3024               	movlw	36
  6533     0D38  00A3               	movwf	??_OLED_UpdateLine+3
  6534     0D39  0820               	movf	??_OLED_UpdateLine,w
  6535     0D3A  0722               	addwf	??_OLED_UpdateLine+2,w
  6536     0D3B  00A4               	movwf	??_OLED_UpdateLine+4
  6537     0D3C  0821               	movf	??_OLED_UpdateLine+1,w
  6538     0D3D  3D23               	addwfc	??_OLED_UpdateLine+3,w
  6539     0D3E  00A5               	movwf	??_OLED_UpdateLine+5
  6540     0D3F  0824               	movf	??_OLED_UpdateLine+4,w
  6541     0D40  00F5               	movwf	OLED_WriteData@data
  6542     0D41  0825               	movf	??_OLED_UpdateLine+5,w
  6543     0D42  00F6               	movwf	OLED_WriteData@data+1
  6544     0D43  3080               	movlw	128
  6545     0D44  00F7               	movwf	OLED_WriteData@len
  6546     0D45  3000               	movlw	0
  6547     0D46  00F8               	movwf	OLED_WriteData@len+1
  6548     0D47  318F  275D  318D   	fcall	_OLED_WriteData
  6549     0D4A                     l239:
  6550     0D4A  0008               	return
  6551     0D4B                     __end_of_OLED_UpdateLine:
  6552                           
  6553                           	psect	text18
  6554     01D3                     __ptext18:	
  6555 ;; *************** function _OLED_Init *****************
  6556 ;; Defined at:
  6557 ;;		line 298 in file "OLED_SSD1306.c"
  6558 ;; Parameters:    Size  Location     Type
  6559 ;;		None
  6560 ;; Auto vars:     Size  Location     Type
  6561 ;;		None
  6562 ;; Return value:  Size  Location     Type
  6563 ;;                  1    wreg      void 
  6564 ;; Registers used:
  6565 ;;		wreg, fsr0l, fsr0h, fsr1l, fsr1h, status,2, status,0, pclath, cstack
  6566 ;; Tracked objects:
  6567 ;;		On entry : 0/0
  6568 ;;		On exit  : 0/0
  6569 ;;		Unchanged: 0/0
  6570 ;; Data sizes:     COMMON   BANK0   BANK1   BANK2   BANK3   BANK4   BANK5   BANK6   BANK7   BANK8   BANK9  BANK10  BANK1
      +1  BANK12  BANK13  BANK14  BANK15  BANK16  BANK17  BANK18  BANK19  BANK20  BANK21  BANK22  BANK23  BANK24  BANK25
  6571 ;;      Params:         0       0       0       0       0       0       0       0       0       0       0       0       
      +0       0       0       0       0       0       0       0       0       0       0       0       0       0       0
  6572 ;;      Locals:         0       0       0       0       0       0       0       0       0       0       0       0       
      +0       0       0       0       0       0       0       0       0       0       0       0       0       0       0
  6573 ;;      Temps:          1       0       0       0       0       0       0       0       0       0       0       0       
      +0       0       0       0       0       0       0       0       0       0       0       0       0       0       0
  6574 ;;      Totals:         1       0       0       0       0       0       0       0       0       0       0       0       
      +0       0       0       0       0       0       0       0       0       0       0       0       0       0       0
  6575 ;;Total ram usage:        1 bytes
  6576 ;; Hardware stack levels used: 1
  6577 ;; Hardware stack levels required when called: 5
  6578 ;; This function calls:
  6579 ;;		_OLED_Clear
  6580 ;;		_OLED_Command
  6581 ;; This function is called by:
  6582 ;;		_main
  6583 ;; This function uses a non-reentrant model
  6584 ;;
  6585                           
  6586     01D3                     _OLED_Init:	
  6587                           ;psect for function _OLED_Init
  6588                           
  6589     01D3                     l2615:	
  6590                           ;incstack = 0
  6591                           ; Regs used in _OLED_Init: [wreg-fsr1h+status,2+status,0+pclath+cstack]
  6592                           
  6593                           
  6594                           ;OLED_SSD1306.c: 300:     _delay((unsigned long)((10)*(32000000/4000.0)));
  6595     01D3  3068               	movlw	104
  6596     01D4  00FD               	movwf	??_OLED_Init
  6597     01D5  30E4               	movlw	228
  6598     01D6                     u3347:
  6599     01D6  0B89               	decfsz	9,f
  6600     01D7  29D6               	goto	u3347
  6601     01D8  0BFD               	decfsz	??_OLED_Init,f
  6602     01D9  29D6               	goto	u3347
  6603     01DA  3200               	nop2
  6604     01DB                     l2617:
  6605                           
  6606                           ;OLED_SSD1306.c: 302:     (void)OLED_Command(0xAE);
  6607     01DB  30AE               	movlw	174
  6608     01DC  318D  2578  3181   	fcall	_OLED_Command
  6609     01DF                     l2619:
  6610                           
  6611                           ;OLED_SSD1306.c: 303:     (void)OLED_Command(0x2E);
  6612     01DF  302E               	movlw	46
  6613     01E0  318D  2578  3181   	fcall	_OLED_Command
  6614     01E3                     l2621:
  6615                           
  6616                           ;OLED_SSD1306.c: 305:     (void)OLED_Command(0xD5);
  6617     01E3  30D5               	movlw	213
  6618     01E4  318D  2578  3181   	fcall	_OLED_Command
  6619     01E7                     l2623:
  6620                           
  6621                           ;OLED_SSD1306.c: 306:     (void)OLED_Command(0x80);
  6622     01E7  3080               	movlw	128
  6623     01E8  318D  2578  3181   	fcall	_OLED_Command
  6624     01EB                     l2625:
  6625                           
  6626                           ;OLED_SSD1306.c: 308:     (void)OLED_Command(0xA8);
  6627     01EB  30A8               	movlw	168
  6628     01EC  318D  2578  3181   	fcall	_OLED_Command
  6629     01EF                     l2627:
  6630                           
  6631                           ;OLED_SSD1306.c: 312:     (void)OLED_Command(0x1F);
  6632     01EF  301F               	movlw	31
  6633     01F0  318D  2578  3181   	fcall	_OLED_Command
  6634     01F3                     l2629:
  6635                           
  6636                           ;OLED_SSD1306.c: 315:     (void)OLED_Command(0xD3);
  6637     01F3  30D3               	movlw	211
  6638     01F4  318D  2578  3181   	fcall	_OLED_Command
  6639     01F7                     l2631:
  6640                           
  6641                           ;OLED_SSD1306.c: 316:     (void)OLED_Command(0x00);
  6642     01F7  3000               	movlw	0
  6643     01F8  318D  2578  3181   	fcall	_OLED_Command
  6644     01FB                     l2633:
  6645                           
  6646                           ;OLED_SSD1306.c: 318:     (void)OLED_Command(0x40 | 0x00);
  6647     01FB  3040               	movlw	64
  6648     01FC  318D  2578  3181   	fcall	_OLED_Command
  6649     01FF                     l2635:
  6650                           
  6651                           ;OLED_SSD1306.c: 320:     (void)OLED_Command(0x8D);
  6652     01FF  308D               	movlw	141
  6653     0200  318D  2578  3181   	fcall	_OLED_Command
  6654     0203                     l2637:
  6655                           
  6656                           ;OLED_SSD1306.c: 321:     (void)OLED_Command(0x14);
  6657     0203  3014               	movlw	20
  6658     0204  318D  2578  3181   	fcall	_OLED_Command
  6659     0207                     l2639:
  6660                           
  6661                           ;OLED_SSD1306.c: 323:     (void)OLED_Command(0x20);
  6662     0207  3020               	movlw	32
  6663     0208  318D  2578  3181   	fcall	_OLED_Command
  6664     020B                     l2641:
  6665                           
  6666                           ;OLED_SSD1306.c: 324:     (void)OLED_Command(0x02);
  6667     020B  3002               	movlw	2
  6668     020C  318D  2578  3181   	fcall	_OLED_Command
  6669     020F                     l2643:
  6670                           
  6671                           ;OLED_SSD1306.c: 326:     (void)OLED_Command(0xA0 | 0x01);
  6672     020F  30A1               	movlw	161
  6673     0210  318D  2578  3181   	fcall	_OLED_Command
  6674     0213                     l2645:
  6675                           
  6676                           ;OLED_SSD1306.c: 327:     (void)OLED_Command(0xC8);
  6677     0213  30C8               	movlw	200
  6678     0214  318D  2578  3181   	fcall	_OLED_Command
  6679     0217                     l2647:
  6680                           
  6681                           ;OLED_SSD1306.c: 329:     (void)OLED_Command(0xDA);
  6682     0217  30DA               	movlw	218
  6683     0218  318D  2578  3181   	fcall	_OLED_Command
  6684     021B                     l2649:
  6685                           
  6686                           ;OLED_SSD1306.c: 333:     (void)OLED_Command(0x02);
  6687     021B  3002               	movlw	2
  6688     021C  318D  2578  3181   	fcall	_OLED_Command
  6689     021F                     l2651:
  6690                           
  6691                           ;OLED_SSD1306.c: 336:     (void)OLED_Command(0x81);
  6692     021F  3081               	movlw	129
  6693     0220  318D  2578  3181   	fcall	_OLED_Command
  6694     0223                     l2653:
  6695                           
  6696                           ;OLED_SSD1306.c: 337:     (void)OLED_Command(0x8F);
  6697     0223  308F               	movlw	143
  6698     0224  318D  2578  3181   	fcall	_OLED_Command
  6699     0227                     l2655:
  6700                           
  6701                           ;OLED_SSD1306.c: 339:     (void)OLED_Command(0xD9);
  6702     0227  30D9               	movlw	217
  6703     0228  318D  2578  3181   	fcall	_OLED_Command
  6704     022B                     l2657:
  6705                           
  6706                           ;OLED_SSD1306.c: 340:     (void)OLED_Command(0xF1);
  6707     022B  30F1               	movlw	241
  6708     022C  318D  2578  3181   	fcall	_OLED_Command
  6709     022F                     l2659:
  6710                           
  6711                           ;OLED_SSD1306.c: 342:     (void)OLED_Command(0xDB);
  6712     022F  30DB               	movlw	219
  6713     0230  318D  2578  3181   	fcall	_OLED_Command
  6714     0233                     l2661:
  6715                           
  6716                           ;OLED_SSD1306.c: 343:     (void)OLED_Command(0x40);
  6717     0233  3040               	movlw	64
  6718     0234  318D  2578  3181   	fcall	_OLED_Command
  6719     0237                     l2663:
  6720                           
  6721                           ;OLED_SSD1306.c: 345:     (void)OLED_Command(0xA4);
  6722     0237  30A4               	movlw	164
  6723     0238  318D  2578  3181   	fcall	_OLED_Command
  6724     023B                     l2665:
  6725                           
  6726                           ;OLED_SSD1306.c: 346:     (void)OLED_Command(0xA6);
  6727     023B  30A6               	movlw	166
  6728     023C  318D  2578  3181   	fcall	_OLED_Command
  6729     023F                     l2667:
  6730                           
  6731                           ;OLED_SSD1306.c: 347:     (void)OLED_Command(0xAF);
  6732     023F  30AF               	movlw	175
  6733     0240  318D  2578  3181   	fcall	_OLED_Command
  6734     0243                     l2669:
  6735                           
  6736                           ;OLED_SSD1306.c: 350:     OLED_Clear();
  6737     0243  318F  2710  3181   	fcall	_OLED_Clear
  6738     0246                     l230:
  6739     0246  0008               	return
  6740     0247                     __end_of_OLED_Init:
  6741                           
  6742                           	psect	text19
  6743     0F10                     __ptext19:	
  6744 ;; *************** function _OLED_Clear *****************
  6745 ;; Defined at:
  6746 ;;		line 356 in file "OLED_SSD1306.c"
  6747 ;; Parameters:    Size  Location     Type
  6748 ;;		None
  6749 ;; Auto vars:     Size  Location     Type
  6750 ;;  p               1   12[COMMON] unsigned char 
  6751 ;; Return value:  Size  Location     Type
  6752 ;;                  1    wreg      void 
  6753 ;; Registers used:
  6754 ;;		wreg, fsr0l, fsr0h, fsr1l, fsr1h, status,2, status,0, pclath, cstack
  6755 ;; Tracked objects:
  6756 ;;		On entry : 0/0
  6757 ;;		On exit  : 0/0
  6758 ;;		Unchanged: 0/0
  6759 ;; Data sizes:     COMMON   BANK0   BANK1   BANK2   BANK3   BANK4   BANK5   BANK6   BANK7   BANK8   BANK9  BANK10  BANK1
      +1  BANK12  BANK13  BANK14  BANK15  BANK16  BANK17  BANK18  BANK19  BANK20  BANK21  BANK22  BANK23  BANK24  BANK25
  6760 ;;      Params:         0       0       0       0       0       0       0       0       0       0       0       0       
      +0       0       0       0       0       0       0       0       0       0       0       0       0       0       0
  6761 ;;      Locals:         1       0       0       0       0       0       0       0       0       0       0       0       
      +0       0       0       0       0       0       0       0       0       0       0       0       0       0       0
  6762 ;;      Temps:          0       6       0       0       0       0       0       0       0       0       0       0       
      +0       0       0       0       0       0       0       0       0       0       0       0       0       0       0
  6763 ;;      Totals:         1       6       0       0       0       0       0       0       0       0       0       0       
      +0       0       0       0       0       0       0       0       0       0       0       0       0       0       0
  6764 ;;Total ram usage:        7 bytes
  6765 ;; Hardware stack levels used: 1
  6766 ;; Hardware stack levels required when called: 4
  6767 ;; This function calls:
  6768 ;;		_OLED_WriteData
  6769 ;;		_OLED_YX
  6770 ;;		_memset
  6771 ;; This function is called by:
  6772 ;;		_main
  6773 ;;		_OLED_Init
  6774 ;; This function uses a non-reentrant model
  6775 ;;
  6776                           
  6777     0F10                     _OLED_Clear:	
  6778                           ;psect for function _OLED_Clear
  6779                           
  6780     0F10                     l2229:	
  6781                           ;incstack = 0
  6782                           ; Regs used in _OLED_Clear: [wreg-fsr1h+status,2+status,0+pclath+cstack]
  6783                           
  6784                           
  6785                           ;OLED_SSD1306.c: 358:     for (uint8_t p = 0; p < (32 / 8); p++)
  6786     0F10  01FC               	clrf	OLED_Clear@p
  6787     0F11                     l2235:
  6788                           
  6789                           ;OLED_SSD1306.c: 359:     {;OLED_SSD1306.c: 360:         memset(screen_buffer[p], 0, 128
      +                          );
  6790     0F11  087C               	movf	OLED_Clear@p,w
  6791     0F12  0020               	movlb	0	; select bank0
  6792     0F13  00A0               	movwf	??_OLED_Clear
  6793     0F14  01A1               	clrf	??_OLED_Clear+1
  6794     0F15  3007               	movlw	7
  6795     0F16                     u1915:
  6796     0F16  35A0               	lslf	??_OLED_Clear,f
  6797     0F17  0DA1               	rlf	??_OLED_Clear+1,f
  6798     0F18  0B89               	decfsz	9,f
  6799     0F19  2F16               	goto	u1915
  6800     0F1A  30F0               	movlw	240
  6801     0F1B  00A2               	movwf	??_OLED_Clear+2
  6802     0F1C  3024               	movlw	36
  6803     0F1D  00A3               	movwf	??_OLED_Clear+3
  6804     0F1E  0820               	movf	??_OLED_Clear,w
  6805     0F1F  0722               	addwf	??_OLED_Clear+2,w
  6806     0F20  00F0               	movwf	memset@dest
  6807     0F21  0821               	movf	??_OLED_Clear+1,w
  6808     0F22  3D23               	addwfc	??_OLED_Clear+3,w
  6809     0F23  00F1               	movwf	memset@dest+1
  6810     0F24  3000               	movlw	0
  6811     0F25  00F2               	movwf	memset@c
  6812     0F26  00F3               	movwf	memset@c+1
  6813     0F27  3080               	movlw	128
  6814     0F28  00F4               	movwf	memset@n
  6815     0F29  3000               	movlw	0
  6816     0F2A  00F5               	movwf	memset@n+1
  6817     0F2B  318C  242D  318F   	fcall	_memset
  6818     0F2E                     l2237:
  6819                           
  6820                           ;OLED_SSD1306.c: 362:         OLED_YX(p, 0);
  6821     0F2E  01F7               	clrf	OLED_YX@col_char
  6822     0F2F  087C               	movf	OLED_Clear@p,w
  6823     0F30  318C  2467  318F   	fcall	_OLED_YX
  6824     0F33                     l2239:
  6825                           
  6826                           ;OLED_SSD1306.c: 363:         (void)OLED_WriteData(screen_buffer[p], 128);
  6827     0F33  087C               	movf	OLED_Clear@p,w
  6828     0F34  0020               	movlb	0	; select bank0
  6829     0F35  00A0               	movwf	??_OLED_Clear
  6830     0F36  01A1               	clrf	??_OLED_Clear+1
  6831     0F37  3007               	movlw	7
  6832     0F38                     u1925:
  6833     0F38  35A0               	lslf	??_OLED_Clear,f
  6834     0F39  0DA1               	rlf	??_OLED_Clear+1,f
  6835     0F3A  0B89               	decfsz	9,f
  6836     0F3B  2F38               	goto	u1925
  6837     0F3C  30F0               	movlw	240
  6838     0F3D  00A2               	movwf	??_OLED_Clear+2
  6839     0F3E  3024               	movlw	36
  6840     0F3F  00A3               	movwf	??_OLED_Clear+3
  6841     0F40  0820               	movf	??_OLED_Clear,w
  6842     0F41  0722               	addwf	??_OLED_Clear+2,w
  6843     0F42  00A4               	movwf	??_OLED_Clear+4
  6844     0F43  0821               	movf	??_OLED_Clear+1,w
  6845     0F44  3D23               	addwfc	??_OLED_Clear+3,w
  6846     0F45  00A5               	movwf	??_OLED_Clear+5
  6847     0F46  0824               	movf	??_OLED_Clear+4,w
  6848     0F47  00F5               	movwf	OLED_WriteData@data
  6849     0F48  0825               	movf	??_OLED_Clear+5,w
  6850     0F49  00F6               	movwf	OLED_WriteData@data+1
  6851     0F4A  3080               	movlw	128
  6852     0F4B  00F7               	movwf	OLED_WriteData@len
  6853     0F4C  3000               	movlw	0
  6854     0F4D  00F8               	movwf	OLED_WriteData@len+1
  6855     0F4E  318F  275D  318F   	fcall	_OLED_WriteData
  6856     0F51                     l2241:
  6857                           
  6858                           ;OLED_SSD1306.c: 364:     }
  6859     0F51  3001               	movlw	1
  6860     0F52  0020               	movlb	0	; select bank0
  6861     0F53  00A0               	movwf	??_OLED_Clear
  6862     0F54  0820               	movf	??_OLED_Clear,w
  6863     0F55  07FC               	addwf	OLED_Clear@p,f
  6864     0F56                     l2243:
  6865     0F56  3004               	movlw	4
  6866     0F57  027C               	subwf	OLED_Clear@p,w
  6867     0F58  1C03               	skipc
  6868     0F59  2F5B               	goto	u1931
  6869     0F5A  2F5C               	goto	u1930
  6870     0F5B                     u1931:
  6871     0F5B  2F11               	goto	l2235
  6872     0F5C                     u1930:
  6873     0F5C                     l235:
  6874     0F5C  0008               	return
  6875     0F5D                     __end_of_OLED_Clear:
  6876                           
  6877                           	psect	text20
  6878     0C2D                     __ptext20:	
  6879 ;; *************** function _memset *****************
  6880 ;; Defined at:
  6881 ;;		line 3 in file "C:\Program Files\Microchip\xc8\v2.46\pic\sources\c99\common\memset.c"
  6882 ;; Parameters:    Size  Location     Type
  6883 ;;  dest            2    0[COMMON] PTR void 
  6884 ;;		 -> screen_buffer(512), 
  6885 ;;  c               2    2[COMMON] int 
  6886 ;;  n               2    4[COMMON] unsigned int 
  6887 ;; Auto vars:     Size  Location     Type
  6888 ;;  p               2    6[COMMON] PTR unsigned char 
  6889 ;;		 -> screen_buffer(512), 
  6890 ;; Return value:  Size  Location     Type
  6891 ;;                  2    0[COMMON] PTR void 
  6892 ;; Registers used:
  6893 ;;		wreg, fsr1l, fsr1h, status,2, status,0
  6894 ;; Tracked objects:
  6895 ;;		On entry : 0/0
  6896 ;;		On exit  : 0/0
  6897 ;;		Unchanged: 0/0
  6898 ;; Data sizes:     COMMON   BANK0   BANK1   BANK2   BANK3   BANK4   BANK5   BANK6   BANK7   BANK8   BANK9  BANK10  BANK1
      +1  BANK12  BANK13  BANK14  BANK15  BANK16  BANK17  BANK18  BANK19  BANK20  BANK21  BANK22  BANK23  BANK24  BANK25
  6899 ;;      Params:         6       0       0       0       0       0       0       0       0       0       0       0       
      +0       0       0       0       0       0       0       0       0       0       0       0       0       0       0
  6900 ;;      Locals:         2       0       0       0       0       0       0       0       0       0       0       0       
      +0       0       0       0       0       0       0       0       0       0       0       0       0       0       0
  6901 ;;      Temps:          0       0       0       0       0       0       0       0       0       0       0       0       
      +0       0       0       0       0       0       0       0       0       0       0       0       0       0       0
  6902 ;;      Totals:         8       0       0       0       0       0       0       0       0       0       0       0       
      +0       0       0       0       0       0       0       0       0       0       0       0       0       0       0
  6903 ;;Total ram usage:        8 bytes
  6904 ;; Hardware stack levels used: 1
  6905 ;; This function calls:
  6906 ;;		Nothing
  6907 ;; This function is called by:
  6908 ;;		_OLED_Clear
  6909 ;;		_OLED_Printf_Line
  6910 ;; This function uses a non-reentrant model
  6911 ;;
  6912                           
  6913     0C2D                     _memset:	
  6914                           ;psect for function _memset
  6915                           
  6916     0C2D                     l2207:	
  6917                           ;incstack = 0
  6918                           ; Regs used in _memset: [wreg+fsr1l+fsr1h+status,2+status,0]
  6919                           
  6920     0C2D  0871               	movf	memset@dest+1,w
  6921     0C2E  00F7               	movwf	memset@p+1
  6922     0C2F  0870               	movf	memset@dest,w
  6923     0C30  00F6               	movwf	memset@p
  6924     0C31  2C3C               	goto	l2213
  6925     0C32                     l2209:
  6926     0C32  0876               	movf	memset@p,w
  6927     0C33  0086               	movwf	6
  6928     0C34  0877               	movf	memset@p+1,w
  6929     0C35  0087               	movwf	7
  6930     0C36  0872               	movf	memset@c,w
  6931     0C37  0081               	movwf	1
  6932     0C38                     l2211:
  6933     0C38  3001               	movlw	1
  6934     0C39  07F6               	addwf	memset@p,f
  6935     0C3A  3000               	movlw	0
  6936     0C3B  3DF7               	addwfc	memset@p+1,f
  6937     0C3C                     l2213:
  6938     0C3C  3001               	movlw	1
  6939     0C3D  02F4               	subwf	memset@n,f
  6940     0C3E  3000               	movlw	0
  6941     0C3F  3BF5               	subwfb	memset@n+1,f
  6942     0C40  0A74               	incf	memset@n,w
  6943     0C41  1D03               	skipz
  6944     0C42  2C47               	goto	u1901
  6945     0C43  0A75               	incf	memset@n+1,w
  6946     0C44  1D03               	btfss	3,2
  6947     0C45  2C47               	goto	u1901
  6948     0C46  2C48               	goto	u1900
  6949     0C47                     u1901:
  6950     0C47  2C32               	goto	l2209
  6951     0C48                     u1900:
  6952     0C48                     l923:
  6953     0C48  0008               	return
  6954     0C49                     __end_of_memset:
  6955                           
  6956                           	psect	text21
  6957     0C67                     __ptext21:	
  6958 ;; *************** function _OLED_YX *****************
  6959 ;; Defined at:
  6960 ;;		line 283 in file "OLED_SSD1306.c"
  6961 ;; Parameters:    Size  Location     Type
  6962 ;;  page            1    wreg     unsigned char 
  6963 ;;  col_char        1    7[COMMON] unsigned char 
  6964 ;; Auto vars:     Size  Location     Type
  6965 ;;  page            1    9[COMMON] unsigned char 
  6966 ;;  col             1   10[COMMON] unsigned char 
  6967 ;; Return value:  Size  Location     Type
  6968 ;;                  1    wreg      void 
  6969 ;; Registers used:
  6970 ;;		wreg, status,2, status,0, pclath, cstack
  6971 ;; Tracked objects:
  6972 ;;		On entry : 0/0
  6973 ;;		On exit  : 0/0
  6974 ;;		Unchanged: 0/0
  6975 ;; Data sizes:     COMMON   BANK0   BANK1   BANK2   BANK3   BANK4   BANK5   BANK6   BANK7   BANK8   BANK9  BANK10  BANK1
      +1  BANK12  BANK13  BANK14  BANK15  BANK16  BANK17  BANK18  BANK19  BANK20  BANK21  BANK22  BANK23  BANK24  BANK25
  6976 ;;      Params:         1       0       0       0       0       0       0       0       0       0       0       0       
      +0       0       0       0       0       0       0       0       0       0       0       0       0       0       0
  6977 ;;      Locals:         2       0       0       0       0       0       0       0       0       0       0       0       
      +0       0       0       0       0       0       0       0       0       0       0       0       0       0       0
  6978 ;;      Temps:          1       0       0       0       0       0       0       0       0       0       0       0       
      +0       0       0       0       0       0       0       0       0       0       0       0       0       0       0
  6979 ;;      Totals:         4       0       0       0       0       0       0       0       0       0       0       0       
      +0       0       0       0       0       0       0       0       0       0       0       0       0       0       0
  6980 ;;Total ram usage:        4 bytes
  6981 ;; Hardware stack levels used: 1
  6982 ;; Hardware stack levels required when called: 3
  6983 ;; This function calls:
  6984 ;;		_OLED_Command
  6985 ;; This function is called by:
  6986 ;;		_OLED_Clear
  6987 ;;		_OLED_UpdateLine
  6988 ;;		_OLED_WriteString
  6989 ;; This function uses a non-reentrant model
  6990 ;;
  6991                           
  6992     0C67                     _OLED_YX:	
  6993                           ;psect for function _OLED_YX
  6994                           
  6995                           
  6996                           ;incstack = 0
  6997                           ; Regs used in _OLED_YX: [wreg+status,2+status,0+pclath+cstack]
  6998                           ;OLED_YX@page stored from wreg
  6999     0C67  00F9               	movwf	OLED_YX@page
  7000     0C68                     l2199:
  7001                           
  7002                           ;OLED_SSD1306.c: 283: void OLED_YX(uint8_t page, uint8_t col_char);OLED_SSD1306.c: 284: 
      +                          {;OLED_SSD1306.c: 285:     uint8_t col = (uint8_t)(col_char * 8);
  7003     0C68  0877               	movf	OLED_YX@col_char,w
  7004     0C69  00F8               	movwf	??_OLED_YX
  7005     0C6A  3002               	movlw	2
  7006     0C6B                     u1885:
  7007     0C6B  35F8               	lslf	??_OLED_YX,f
  7008     0C6C  3EFF               	addlw	-1
  7009     0C6D  1D03               	skipz
  7010     0C6E  2C6B               	goto	u1885
  7011     0C6F  3578               	lslf	??_OLED_YX,w
  7012     0C70  00FA               	movwf	OLED_YX@col
  7013     0C71                     l2201:
  7014                           
  7015                           ;OLED_SSD1306.c: 287:     (void)OLED_Command(0xB0 | (page & 0x07));
  7016     0C71  0879               	movf	OLED_YX@page,w
  7017     0C72  3907               	andlw	7
  7018     0C73  38B0               	iorlw	176
  7019     0C74  318D  2578  318C   	fcall	_OLED_Command
  7020     0C77                     l2203:
  7021                           
  7022                           ;OLED_SSD1306.c: 288:     (void)OLED_Command(0x00 | (col & 0x0F));
  7023     0C77  087A               	movf	OLED_YX@col,w
  7024     0C78  390F               	andlw	15
  7025     0C79  318D  2578  318C   	fcall	_OLED_Command
  7026     0C7C                     l2205:
  7027                           
  7028                           ;OLED_SSD1306.c: 289:     (void)OLED_Command(0x10 | ((col >> 4) & 0x0F));
  7029     0C7C  087A               	movf	OLED_YX@col,w
  7030     0C7D  00F8               	movwf	??_OLED_YX
  7031     0C7E  3004               	movlw	4
  7032     0C7F                     u1895:
  7033     0C7F  36F8               	lsrf	??_OLED_YX,f
  7034     0C80  0B89               	decfsz	9,f
  7035     0C81  2C7F               	goto	u1895
  7036     0C82  0878               	movf	??_OLED_YX,w
  7037     0C83  390F               	andlw	15
  7038     0C84  3810               	iorlw	16
  7039     0C85  318D  2578  318C   	fcall	_OLED_Command
  7040     0C88                     l227:
  7041     0C88  0008               	return
  7042     0C89                     __end_of_OLED_YX:
  7043                           
  7044                           	psect	text22
  7045     0D78                     __ptext22:	
  7046 ;; *************** function _OLED_Command *****************
  7047 ;; Defined at:
  7048 ;;		line 190 in file "OLED_SSD1306.c"
  7049 ;; Parameters:    Size  Location     Type
  7050 ;;  cmd             1    wreg     unsigned char 
  7051 ;; Auto vars:     Size  Location     Type
  7052 ;;  cmd             1    5[COMMON] unsigned char 
  7053 ;;  st              1    6[COMMON] enum E6043
  7054 ;; Return value:  Size  Location     Type
  7055 ;;                  1    wreg      enum E6043
  7056 ;; Registers used:
  7057 ;;		wreg, status,2, status,0, pclath, cstack
  7058 ;; Tracked objects:
  7059 ;;		On entry : 0/0
  7060 ;;		On exit  : 0/0
  7061 ;;		Unchanged: 0/0
  7062 ;; Data sizes:     COMMON   BANK0   BANK1   BANK2   BANK3   BANK4   BANK5   BANK6   BANK7   BANK8   BANK9  BANK10  BANK1
      +1  BANK12  BANK13  BANK14  BANK15  BANK16  BANK17  BANK18  BANK19  BANK20  BANK21  BANK22  BANK23  BANK24  BANK25
  7063 ;;      Params:         0       0       0       0       0       0       0       0       0       0       0       0       
      +0       0       0       0       0       0       0       0       0       0       0       0       0       0       0
  7064 ;;      Locals:         2       0       0       0       0       0       0       0       0       0       0       0       
      +0       0       0       0       0       0       0       0       0       0       0       0       0       0       0
  7065 ;;      Temps:          0       0       0       0       0       0       0       0       0       0       0       0       
      +0       0       0       0       0       0       0       0       0       0       0       0       0       0       0
  7066 ;;      Totals:         2       0       0       0       0       0       0       0       0       0       0       0       
      +0       0       0       0       0       0       0       0       0       0       0       0       0       0       0
  7067 ;;Total ram usage:        2 bytes
  7068 ;; Hardware stack levels used: 1
  7069 ;; Hardware stack levels required when called: 2
  7070 ;; This function calls:
  7071 ;;		_I2C_Start
  7072 ;;		_I2C_Stop
  7073 ;;		_I2C_WriteByte
  7074 ;;		_SSD1306_CtrlW
  7075 ;; This function is called by:
  7076 ;;		_OLED_SetOrientation
  7077 ;;		_OLED_YX
  7078 ;;		_OLED_Init
  7079 ;;		_OLED_UpdatePartialLine
  7080 ;; This function uses a non-reentrant model
  7081 ;;
  7082                           
  7083     0D78                     _OLED_Command:	
  7084                           ;psect for function _OLED_Command
  7085                           
  7086                           
  7087                           ;incstack = 0
  7088                           ; Regs used in _OLED_Command: [wreg+status,2+status,0+pclath+cstack]
  7089                           ;OLED_Command@cmd stored from wreg
  7090     0D78  00F5               	movwf	OLED_Command@cmd
  7091     0D79                     l2131:
  7092                           
  7093                           ;OLED_SSD1306.c: 190: static I2C_Status_t OLED_Command(uint8_t cmd);OLED_SSD1306.c: 191:
      +                           {;OLED_SSD1306.c: 192:     I2C_Status_t st;;OLED_SSD1306.c: 194:     st = I2C_Start();
  7094     0D79  318C  24D0  318D   	fcall	_I2C_Start
  7095     0D7C  00F6               	movwf	OLED_Command@st
  7096     0D7D                     l2133:
  7097                           
  7098                           ;OLED_SSD1306.c: 195:     if (st != I2C_OK) return st;
  7099     0D7D  0876               	movf	OLED_Command@st,w
  7100     0D7E  1903               	btfsc	3,2
  7101     0D7F  2D81               	goto	u1791
  7102     0D80  2D82               	goto	u1790
  7103     0D81                     u1791:
  7104     0D81  2D83               	goto	l2137
  7105     0D82                     u1790:
  7106     0D82  2DA5               	goto	l201
  7107     0D83                     l2137:
  7108                           
  7109                           ;OLED_SSD1306.c: 197:     st = I2C_WriteByte(SSD1306_CtrlW());
  7110     0D83  318B  23D6  318D   	fcall	_SSD1306_CtrlW
  7111     0D86  318D  25A6  318D   	fcall	_I2C_WriteByte
  7112     0D89  00F6               	movwf	OLED_Command@st
  7113     0D8A                     l2139:
  7114                           
  7115                           ;OLED_SSD1306.c: 198:     if (st != I2C_OK) { I2C_Stop(); return st; }
  7116     0D8A  0876               	movf	OLED_Command@st,w
  7117     0D8B  1903               	btfsc	3,2
  7118     0D8C  2D8E               	goto	u1801
  7119     0D8D  2D8F               	goto	u1800
  7120     0D8E                     u1801:
  7121     0D8E  2D93               	goto	l2145
  7122     0D8F                     u1800:
  7123     0D8F                     l2141:
  7124     0D8F  318C  2489  318D   	fcall	_I2C_Stop
  7125     0D92  2DA5               	goto	l201
  7126     0D93                     l2145:
  7127                           
  7128                           ;OLED_SSD1306.c: 200:     st = I2C_WriteByte(0x00);
  7129     0D93  3000               	movlw	0
  7130     0D94  318D  25A6  318D   	fcall	_I2C_WriteByte
  7131     0D97  00F6               	movwf	OLED_Command@st
  7132     0D98                     l2147:
  7133                           
  7134                           ;OLED_SSD1306.c: 201:     if (st != I2C_OK) { I2C_Stop(); return st; }
  7135     0D98  0876               	movf	OLED_Command@st,w
  7136     0D99  1903               	btfsc	3,2
  7137     0D9A  2D9C               	goto	u1811
  7138     0D9B  2D9D               	goto	u1810
  7139     0D9C                     u1811:
  7140     0D9C  2D9E               	goto	l2153
  7141     0D9D                     u1810:
  7142     0D9D  2D8F               	goto	l2141
  7143     0D9E                     l2153:
  7144     0D9E  0875               	movf	OLED_Command@cmd,w
  7145     0D9F  318D  25A6  318D   	fcall	_I2C_WriteByte
  7146                           
  7147                           ;OLED_SSD1306.c: 204:     I2C_Stop();
  7148     0DA2  318C  2489  318D   	fcall	_I2C_Stop
  7149     0DA5                     l201:
  7150     0DA5  0008               	return
  7151     0DA6                     __end_of_OLED_Command:
  7152                           
  7153                           	psect	text23
  7154     0F5D                     __ptext23:	
  7155 ;; *************** function _OLED_WriteData *****************
  7156 ;; Defined at:
  7157 ;;		line 215 in file "OLED_SSD1306.c"
  7158 ;; Parameters:    Size  Location     Type
  7159 ;;  data            2    5[COMMON] PTR const unsigned char 
  7160 ;;		 -> OledFont(768), screen_buffer(512), 
  7161 ;;  len             2    7[COMMON] unsigned short 
  7162 ;; Auto vars:     Size  Location     Type
  7163 ;;  i               2    9[COMMON] unsigned short 
  7164 ;;  st              1   11[COMMON] enum E6043
  7165 ;; Return value:  Size  Location     Type
  7166 ;;                  1    wreg      enum E6043
  7167 ;; Registers used:
  7168 ;;		wreg, fsr0l, fsr0h, status,2, status,0, pclath, cstack
  7169 ;; Tracked objects:
  7170 ;;		On entry : 0/0
  7171 ;;		On exit  : 0/0
  7172 ;;		Unchanged: 0/0
  7173 ;; Data sizes:     COMMON   BANK0   BANK1   BANK2   BANK3   BANK4   BANK5   BANK6   BANK7   BANK8   BANK9  BANK10  BANK1
      +1  BANK12  BANK13  BANK14  BANK15  BANK16  BANK17  BANK18  BANK19  BANK20  BANK21  BANK22  BANK23  BANK24  BANK25
  7174 ;;      Params:         4       0       0       0       0       0       0       0       0       0       0       0       
      +0       0       0       0       0       0       0       0       0       0       0       0       0       0       0
  7175 ;;      Locals:         3       0       0       0       0       0       0       0       0       0       0       0       
      +0       0       0       0       0       0       0       0       0       0       0       0       0       0       0
  7176 ;;      Temps:          0       0       0       0       0       0       0       0       0       0       0       0       
      +0       0       0       0       0       0       0       0       0       0       0       0       0       0       0
  7177 ;;      Totals:         7       0       0       0       0       0       0       0       0       0       0       0       
      +0       0       0       0       0       0       0       0       0       0       0       0       0       0       0
  7178 ;;Total ram usage:        7 bytes
  7179 ;; Hardware stack levels used: 1
  7180 ;; Hardware stack levels required when called: 2
  7181 ;; This function calls:
  7182 ;;		_I2C_Start
  7183 ;;		_I2C_Stop
  7184 ;;		_I2C_WriteByte
  7185 ;;		_SSD1306_CtrlW
  7186 ;; This function is called by:
  7187 ;;		_OLED_Clear
  7188 ;;		_OLED_UpdateLine
  7189 ;;		_OLED_UpdatePartialLine
  7190 ;;		_OLED_WriteString
  7191 ;; This function uses a non-reentrant model
  7192 ;;
  7193                           
  7194     0F5D                     _OLED_WriteData:	
  7195                           ;psect for function _OLED_WriteData
  7196                           
  7197     0F5D                     l2157:	
  7198                           ;incstack = 0
  7199                           ; Regs used in _OLED_WriteData: [wreg-fsr0h+status,2+status,0+pclath+cstack]
  7200                           
  7201                           
  7202                           ;OLED_SSD1306.c: 215: static I2C_Status_t OLED_WriteData(const uint8_t* data, uint16_t l
      +                          en);OLED_SSD1306.c: 216: {;OLED_SSD1306.c: 217:     I2C_Status_t st;;OLED_SSD1306.c: 219
      +                          :     if (data == ((void*)0)) return I2C_TIMEOUT;
  7203     0F5D  0875               	movf	OLED_WriteData@data,w
  7204     0F5E  0476               	iorwf	OLED_WriteData@data+1,w
  7205     0F5F  1D03               	btfss	3,2
  7206     0F60  2F62               	goto	u1821
  7207     0F61  2F63               	goto	u1820
  7208     0F62                     u1821:
  7209     0F62  2F64               	goto	l2161
  7210     0F63                     u1820:
  7211     0F63  2FAC               	goto	l207
  7212     0F64                     l2161:
  7213                           
  7214                           ;OLED_SSD1306.c: 221:     st = I2C_Start();
  7215     0F64  318C  24D0  318F   	fcall	_I2C_Start
  7216     0F67  00FB               	movwf	OLED_WriteData@st
  7217     0F68                     l2163:
  7218                           
  7219                           ;OLED_SSD1306.c: 222:     if (st != I2C_OK) return st;
  7220     0F68  087B               	movf	OLED_WriteData@st,w
  7221     0F69  1903               	btfsc	3,2
  7222     0F6A  2F6C               	goto	u1831
  7223     0F6B  2F6D               	goto	u1830
  7224     0F6C                     u1831:
  7225     0F6C  2F6E               	goto	l2167
  7226     0F6D                     u1830:
  7227     0F6D  2FAC               	goto	l207
  7228     0F6E                     l2167:
  7229                           
  7230                           ;OLED_SSD1306.c: 224:     st = I2C_WriteByte(SSD1306_CtrlW());
  7231     0F6E  318B  23D6  318F   	fcall	_SSD1306_CtrlW
  7232     0F71  318D  25A6  318F   	fcall	_I2C_WriteByte
  7233     0F74  00FB               	movwf	OLED_WriteData@st
  7234     0F75                     l2169:
  7235                           
  7236                           ;OLED_SSD1306.c: 225:     if (st != I2C_OK) { I2C_Stop(); return st; }
  7237     0F75  087B               	movf	OLED_WriteData@st,w
  7238     0F76  1903               	btfsc	3,2
  7239     0F77  2F79               	goto	u1841
  7240     0F78  2F7A               	goto	u1840
  7241     0F79                     u1841:
  7242     0F79  2F7E               	goto	l2175
  7243     0F7A                     u1840:
  7244     0F7A                     l2171:
  7245     0F7A  318C  2489  318F   	fcall	_I2C_Stop
  7246     0F7D  2FAC               	goto	l207
  7247     0F7E                     l2175:
  7248                           
  7249                           ;OLED_SSD1306.c: 227:     st = I2C_WriteByte(0x40);
  7250     0F7E  3040               	movlw	64
  7251     0F7F  318D  25A6  318F   	fcall	_I2C_WriteByte
  7252     0F82  00FB               	movwf	OLED_WriteData@st
  7253     0F83                     l2177:
  7254                           
  7255                           ;OLED_SSD1306.c: 228:     if (st != I2C_OK) { I2C_Stop(); return st; }
  7256     0F83  087B               	movf	OLED_WriteData@st,w
  7257     0F84  1903               	btfsc	3,2
  7258     0F85  2F87               	goto	u1851
  7259     0F86  2F88               	goto	u1850
  7260     0F87                     u1851:
  7261     0F87  2F89               	goto	l2183
  7262     0F88                     u1850:
  7263     0F88  2F7A               	goto	l2171
  7264     0F89                     l2183:
  7265                           
  7266                           ;OLED_SSD1306.c: 230:     for (uint16_t i = 0; i < len; i++)
  7267     0F89  01F9               	clrf	OLED_WriteData@i
  7268     0F8A  01FA               	clrf	OLED_WriteData@i+1
  7269     0F8B  2FA1               	goto	l211
  7270     0F8C                     l2185:
  7271                           
  7272                           ;OLED_SSD1306.c: 231:     {;OLED_SSD1306.c: 232:         st = I2C_WriteByte(data[i]);
  7273     0F8C  0875               	movf	OLED_WriteData@data,w
  7274     0F8D  0779               	addwf	OLED_WriteData@i,w
  7275     0F8E  0084               	movwf	4
  7276     0F8F  0876               	movf	OLED_WriteData@data+1,w
  7277     0F90  3D7A               	addwfc	OLED_WriteData@i+1,w
  7278     0F91  0085               	movwf	5
  7279     0F92  0800               	movf	0,w	;code access
  7280     0F93  318D  25A6  318F   	fcall	_I2C_WriteByte
  7281     0F96  00FB               	movwf	OLED_WriteData@st
  7282     0F97                     l2187:
  7283                           
  7284                           ;OLED_SSD1306.c: 233:         if (st != I2C_OK) { I2C_Stop(); return st; }
  7285     0F97  087B               	movf	OLED_WriteData@st,w
  7286     0F98  1903               	btfsc	3,2
  7287     0F99  2F9B               	goto	u1861
  7288     0F9A  2F9C               	goto	u1860
  7289     0F9B                     u1861:
  7290     0F9B  2F9D               	goto	l2193
  7291     0F9C                     u1860:
  7292     0F9C  2F7A               	goto	l2171
  7293     0F9D                     l2193:
  7294                           
  7295                           ;OLED_SSD1306.c: 234:     }
  7296     0F9D  3001               	movlw	1
  7297     0F9E  07F9               	addwf	OLED_WriteData@i,f
  7298     0F9F  3000               	movlw	0
  7299     0FA0  3DFA               	addwfc	OLED_WriteData@i+1,f
  7300     0FA1                     l211:
  7301     0FA1  0878               	movf	OLED_WriteData@len+1,w
  7302     0FA2  027A               	subwf	OLED_WriteData@i+1,w
  7303     0FA3  1D03               	skipz
  7304     0FA4  2FA7               	goto	u1875
  7305     0FA5  0877               	movf	OLED_WriteData@len,w
  7306     0FA6  0279               	subwf	OLED_WriteData@i,w
  7307     0FA7                     u1875:
  7308     0FA7  1C03               	skipc
  7309     0FA8  2FAA               	goto	u1871
  7310     0FA9  2FAB               	goto	u1870
  7311     0FAA                     u1871:
  7312     0FAA  2F8C               	goto	l2185
  7313     0FAB                     u1870:
  7314     0FAB  2F7A               	goto	l2171
  7315     0FAC                     l207:
  7316     0FAC  0008               	return
  7317     0FAD                     __end_of_OLED_WriteData:
  7318                           
  7319                           	psect	text24
  7320     0BD6                     __ptext24:	
  7321 ;; *************** function _SSD1306_CtrlW *****************
  7322 ;; Defined at:
  7323 ;;		line 182 in file "OLED_SSD1306.c"
  7324 ;; Parameters:    Size  Location     Type
  7325 ;;		None
  7326 ;; Auto vars:     Size  Location     Type
  7327 ;;		None
  7328 ;; Return value:  Size  Location     Type
  7329 ;;                  1    wreg      unsigned char 
  7330 ;; Registers used:
  7331 ;;		wreg
  7332 ;; Tracked objects:
  7333 ;;		On entry : 0/0
  7334 ;;		On exit  : 0/0
  7335 ;;		Unchanged: 0/0
  7336 ;; Data sizes:     COMMON   BANK0   BANK1   BANK2   BANK3   BANK4   BANK5   BANK6   BANK7   BANK8   BANK9  BANK10  BANK1
      +1  BANK12  BANK13  BANK14  BANK15  BANK16  BANK17  BANK18  BANK19  BANK20  BANK21  BANK22  BANK23  BANK24  BANK25
  7337 ;;      Params:         0       0       0       0       0       0       0       0       0       0       0       0       
      +0       0       0       0       0       0       0       0       0       0       0       0       0       0       0
  7338 ;;      Locals:         0       0       0       0       0       0       0       0       0       0       0       0       
      +0       0       0       0       0       0       0       0       0       0       0       0       0       0       0
  7339 ;;      Temps:          0       0       0       0       0       0       0       0       0       0       0       0       
      +0       0       0       0       0       0       0       0       0       0       0       0       0       0       0
  7340 ;;      Totals:         0       0       0       0       0       0       0       0       0       0       0       0       
      +0       0       0       0       0       0       0       0       0       0       0       0       0       0       0
  7341 ;;Total ram usage:        0 bytes
  7342 ;; Hardware stack levels used: 1
  7343 ;; This function calls:
  7344 ;;		Nothing
  7345 ;; This function is called by:
  7346 ;;		_OLED_Command
  7347 ;;		_OLED_WriteData
  7348 ;; This function uses a non-reentrant model
  7349 ;;
  7350                           
  7351     0BD6                     _SSD1306_CtrlW:	
  7352                           ;psect for function _SSD1306_CtrlW
  7353                           
  7354     0BD6                     l2127:	
  7355                           ;incstack = 0
  7356                           ; Regs used in _SSD1306_CtrlW: [wreg]
  7357                           
  7358     0BD6  3078               	movlw	120
  7359     0BD7                     l197:
  7360     0BD7  0008               	return
  7361     0BD8                     __end_of_SSD1306_CtrlW:
  7362                           
  7363                           	psect	text25
  7364     0DA6                     __ptext25:	
  7365 ;; *************** function _I2C_WriteByte *****************
  7366 ;; Defined at:
  7367 ;;		line 161 in file "I2C.c"
  7368 ;; Parameters:    Size  Location     Type
  7369 ;;  data            1    wreg     unsigned char 
  7370 ;; Auto vars:     Size  Location     Type
  7371 ;;  data            1    3[COMMON] unsigned char 
  7372 ;;  st              1    4[COMMON] enum E6036
  7373 ;; Return value:  Size  Location     Type
  7374 ;;                  1    wreg      enum E6036
  7375 ;; Registers used:
  7376 ;;		wreg, status,2, status,0, pclath, cstack
  7377 ;; Tracked objects:
  7378 ;;		On entry : 0/0
  7379 ;;		On exit  : 0/0
  7380 ;;		Unchanged: 0/0
  7381 ;; Data sizes:     COMMON   BANK0   BANK1   BANK2   BANK3   BANK4   BANK5   BANK6   BANK7   BANK8   BANK9  BANK10  BANK1
      +1  BANK12  BANK13  BANK14  BANK15  BANK16  BANK17  BANK18  BANK19  BANK20  BANK21  BANK22  BANK23  BANK24  BANK25
  7382 ;;      Params:         0       0       0       0       0       0       0       0       0       0       0       0       
      +0       0       0       0       0       0       0       0       0       0       0       0       0       0       0
  7383 ;;      Locals:         2       0       0       0       0       0       0       0       0       0       0       0       
      +0       0       0       0       0       0       0       0       0       0       0       0       0       0       0
  7384 ;;      Temps:          0       0       0       0       0       0       0       0       0       0       0       0       
      +0       0       0       0       0       0       0       0       0       0       0       0       0       0       0
  7385 ;;      Totals:         2       0       0       0       0       0       0       0       0       0       0       0       
      +0       0       0       0       0       0       0       0       0       0       0       0       0       0       0
  7386 ;;Total ram usage:        2 bytes
  7387 ;; Hardware stack levels used: 1
  7388 ;; Hardware stack levels required when called: 1
  7389 ;; This function calls:
  7390 ;;		_I2C_WaitIF
  7391 ;;		_I2C_WaitIdle
  7392 ;; This function is called by:
  7393 ;;		_OLED_Command
  7394 ;;		_OLED_WriteData
  7395 ;; This function uses a non-reentrant model
  7396 ;;
  7397                           
  7398     0DA6                     _I2C_WriteByte:	
  7399                           ;psect for function _I2C_WriteByte
  7400                           
  7401                           
  7402                           ;incstack = 0
  7403                           ; Regs used in _I2C_WriteByte: [wreg+status,2+status,0+pclath+cstack]
  7404                           ;I2C_WriteByte@data stored from wreg
  7405     0DA6  00F3               	movwf	I2C_WriteByte@data
  7406     0DA7                     l2099:
  7407                           
  7408                           ;I2C.c: 161: I2C_Status_t I2C_WriteByte(uint8_t data);I2C.c: 162: {;I2C.c: 163:     I2C_
      +                          Status_t st;;I2C.c: 165:     st = I2C_WaitIdle(50);
  7409     0DA7  3032               	movlw	50
  7410     0DA8  00F0               	movwf	I2C_WaitIdle@timeout_ms
  7411     0DA9  3000               	movlw	0
  7412     0DAA  00F1               	movwf	I2C_WaitIdle@timeout_ms+1
  7413     0DAB  318C  24AC  318D   	fcall	_I2C_WaitIdle
  7414     0DAE  00F4               	movwf	I2C_WriteByte@st
  7415     0DAF                     l2101:
  7416                           
  7417                           ;I2C.c: 166:     if (st != I2C_OK) return st;
  7418     0DAF  0874               	movf	I2C_WriteByte@st,w
  7419     0DB0  1903               	btfsc	3,2
  7420     0DB1  2DB3               	goto	u1761
  7421     0DB2  2DB4               	goto	u1760
  7422     0DB3                     u1761:
  7423     0DB3  2DB6               	goto	l60
  7424     0DB4                     u1760:
  7425     0DB4                     l2103:
  7426     0DB4  0874               	movf	I2C_WriteByte@st,w
  7427     0DB5  2DD7               	goto	l61
  7428     0DB6                     l60:
  7429                           
  7430                           ;I2C.c: 168:     PIR1bits.SSP1IF = 0;
  7431     0DB6  0020               	movlb	0	; select bank0
  7432     0DB7  1191               	bcf	17,3	;volatile
  7433     0DB8                     l2107:
  7434                           
  7435                           ;I2C.c: 169:     SSPBUF = data;
  7436     0DB8  0873               	movf	I2C_WriteByte@data,w
  7437     0DB9  0024               	movlb	4	; select bank4
  7438     0DBA  0091               	movwf	17	;volatile
  7439     0DBB                     l2109:
  7440                           
  7441                           ;I2C.c: 171:     st = I2C_WaitIF(50);
  7442     0DBB  3032               	movlw	50
  7443     0DBC  00F0               	movwf	I2C_WaitIF@timeout_ms
  7444     0DBD  3000               	movlw	0
  7445     0DBE  00F1               	movwf	I2C_WaitIF@timeout_ms+1
  7446     0DBF  318C  2449  318D   	fcall	_I2C_WaitIF
  7447     0DC2  00F4               	movwf	I2C_WriteByte@st
  7448     0DC3                     l2111:
  7449                           
  7450                           ;I2C.c: 172:     if (st != I2C_OK) return st;
  7451     0DC3  0874               	movf	I2C_WriteByte@st,w
  7452     0DC4  1903               	btfsc	3,2
  7453     0DC5  2DC7               	goto	u1771
  7454     0DC6  2DC8               	goto	u1770
  7455     0DC7                     u1771:
  7456     0DC7  2DC9               	goto	l62
  7457     0DC8                     u1770:
  7458     0DC8  2DB4               	goto	l2103
  7459     0DC9                     l62:
  7460                           
  7461                           ;I2C.c: 175:     if (PIR2bits.BCL1IF)
  7462     0DC9  0020               	movlb	0	; select bank0
  7463     0DCA  1D92               	btfss	18,3	;volatile
  7464     0DCB  2DCD               	goto	u1781
  7465     0DCC  2DCE               	goto	u1780
  7466     0DCD                     u1781:
  7467     0DCD  2DD1               	goto	l63
  7468     0DCE                     u1780:
  7469     0DCE                     l2117:
  7470                           
  7471                           ;I2C.c: 176:     {;I2C.c: 177:         PIR2bits.BCL1IF = 0;
  7472     0DCE  1192               	bcf	18,3	;volatile
  7473     0DCF                     l2119:
  7474                           
  7475                           ;I2C.c: 178:         return I2C_BUS_COLLISION;
  7476     0DCF  3003               	movlw	3
  7477     0DD0  2DD7               	goto	l61
  7478     0DD1                     l63:	
  7479                           ;I2C.c: 179:     }
  7480                           
  7481                           
  7482                           ;I2C.c: 182:     PIR1bits.SSP1IF = 0;
  7483     0DD1  1191               	bcf	17,3	;volatile
  7484     0DD2                     l2123:
  7485                           
  7486                           ;I2C.c: 183:     return (SSPCON2bits.ACKSTAT == 0) ? I2C_OK : I2C_NAK;
  7487     0DD2  0024               	movlb	4	; select bank4
  7488     0DD3  0E16               	swapf	22,w	;volatile
  7489     0DD4  0C89               	rrf	9,f
  7490     0DD5  0C89               	rrf	9,f
  7491     0DD6  3901               	andlw	1
  7492     0DD7                     l61:
  7493     0DD7  0008               	return
  7494     0DD8                     __end_of_I2C_WriteByte:
  7495                           
  7496                           	psect	text26
  7497     0C89                     __ptext26:	
  7498 ;; *************** function _I2C_Stop *****************
  7499 ;; Defined at:
  7500 ;;		line 138 in file "I2C.c"
  7501 ;; Parameters:    Size  Location     Type
  7502 ;;		None
  7503 ;; Auto vars:     Size  Location     Type
  7504 ;;  st              1    3[COMMON] enum E6036
  7505 ;; Return value:  Size  Location     Type
  7506 ;;                  1    wreg      enum E6036
  7507 ;; Registers used:
  7508 ;;		wreg, status,2, status,0, pclath, cstack
  7509 ;; Tracked objects:
  7510 ;;		On entry : 0/0
  7511 ;;		On exit  : 0/0
  7512 ;;		Unchanged: 0/0
  7513 ;; Data sizes:     COMMON   BANK0   BANK1   BANK2   BANK3   BANK4   BANK5   BANK6   BANK7   BANK8   BANK9  BANK10  BANK1
      +1  BANK12  BANK13  BANK14  BANK15  BANK16  BANK17  BANK18  BANK19  BANK20  BANK21  BANK22  BANK23  BANK24  BANK25
  7514 ;;      Params:         0       0       0       0       0       0       0       0       0       0       0       0       
      +0       0       0       0       0       0       0       0       0       0       0       0       0       0       0
  7515 ;;      Locals:         1       0       0       0       0       0       0       0       0       0       0       0       
      +0       0       0       0       0       0       0       0       0       0       0       0       0       0       0
  7516 ;;      Temps:          0       0       0       0       0       0       0       0       0       0       0       0       
      +0       0       0       0       0       0       0       0       0       0       0       0       0       0       0
  7517 ;;      Totals:         1       0       0       0       0       0       0       0       0       0       0       0       
      +0       0       0       0       0       0       0       0       0       0       0       0       0       0       0
  7518 ;;Total ram usage:        1 bytes
  7519 ;; Hardware stack levels used: 1
  7520 ;; Hardware stack levels required when called: 1
  7521 ;; This function calls:
  7522 ;;		_I2C_WaitIF
  7523 ;;		_I2C_WaitIdle
  7524 ;; This function is called by:
  7525 ;;		_OLED_Command
  7526 ;;		_OLED_WriteData
  7527 ;; This function uses a non-reentrant model
  7528 ;;
  7529                           
  7530     0C89                     _I2C_Stop:	
  7531                           ;psect for function _I2C_Stop
  7532                           
  7533     0C89                     l2087:	
  7534                           ;incstack = 0
  7535                           ; Regs used in _I2C_Stop: [wreg+status,2+status,0+pclath+cstack]
  7536                           
  7537                           
  7538                           ;I2C.c: 140:     I2C_Status_t st;;I2C.c: 142:     st = I2C_WaitIdle(50);
  7539     0C89  3032               	movlw	50
  7540     0C8A  00F0               	movwf	I2C_WaitIdle@timeout_ms
  7541     0C8B  3000               	movlw	0
  7542     0C8C  00F1               	movwf	I2C_WaitIdle@timeout_ms+1
  7543     0C8D  318C  24AC  318C   	fcall	_I2C_WaitIdle
  7544     0C90  00F3               	movwf	I2C_Stop@st
  7545     0C91                     l2089:
  7546                           
  7547                           ;I2C.c: 143:     if (st != I2C_OK) return st;
  7548     0C91  0873               	movf	I2C_Stop@st,w
  7549     0C92  1903               	btfsc	3,2
  7550     0C93  2C95               	goto	u1741
  7551     0C94  2C96               	goto	u1740
  7552     0C95                     u1741:
  7553     0C95  2C97               	goto	l55
  7554     0C96                     u1740:
  7555     0C96  2CAB               	goto	l56
  7556     0C97                     l55:
  7557                           
  7558                           ;I2C.c: 145:     PIR1bits.SSP1IF = 0;
  7559     0C97  0020               	movlb	0	; select bank0
  7560     0C98  1191               	bcf	17,3	;volatile
  7561                           
  7562                           ;I2C.c: 146:     SSPCON2bits.PEN = 1;
  7563     0C99  0024               	movlb	4	; select bank4
  7564     0C9A  1516               	bsf	22,2	;volatile
  7565     0C9B                     l2093:
  7566                           
  7567                           ;I2C.c: 148:     st = I2C_WaitIF(50);
  7568     0C9B  3032               	movlw	50
  7569     0C9C  00F0               	movwf	I2C_WaitIF@timeout_ms
  7570     0C9D  3000               	movlw	0
  7571     0C9E  00F1               	movwf	I2C_WaitIF@timeout_ms+1
  7572     0C9F  318C  2449  318C   	fcall	_I2C_WaitIF
  7573     0CA2  00F3               	movwf	I2C_Stop@st
  7574     0CA3                     l2095:
  7575                           
  7576                           ;I2C.c: 149:     if (st != I2C_OK) return st;
  7577     0CA3  0873               	movf	I2C_Stop@st,w
  7578     0CA4  1903               	btfsc	3,2
  7579     0CA5  2CA7               	goto	u1751
  7580     0CA6  2CA8               	goto	u1750
  7581     0CA7                     u1751:
  7582     0CA7  2CA9               	goto	l57
  7583     0CA8                     u1750:
  7584     0CA8  2CAB               	goto	l56
  7585     0CA9                     l57:
  7586                           
  7587                           ;I2C.c: 151:     PIR1bits.SSP1IF = 0;
  7588     0CA9  0020               	movlb	0	; select bank0
  7589     0CAA  1191               	bcf	17,3	;volatile
  7590     0CAB                     l56:	
  7591                           ;I2C.c: 152:     return I2C_OK;;	Return value of _I2C_Stop is never used
  7592                           
  7593     0CAB  0008               	return
  7594     0CAC                     __end_of_I2C_Stop:
  7595                           
  7596                           	psect	text27
  7597     0CD0                     __ptext27:	
  7598 ;; *************** function _I2C_Start *****************
  7599 ;; Defined at:
  7600 ;;		line 98 in file "I2C.c"
  7601 ;; Parameters:    Size  Location     Type
  7602 ;;		None
  7603 ;; Auto vars:     Size  Location     Type
  7604 ;;  st              1    3[COMMON] enum E6036
  7605 ;; Return value:  Size  Location     Type
  7606 ;;                  1    wreg      enum E6036
  7607 ;; Registers used:
  7608 ;;		wreg, status,2, status,0, pclath, cstack
  7609 ;; Tracked objects:
  7610 ;;		On entry : 0/0
  7611 ;;		On exit  : 0/0
  7612 ;;		Unchanged: 0/0
  7613 ;; Data sizes:     COMMON   BANK0   BANK1   BANK2   BANK3   BANK4   BANK5   BANK6   BANK7   BANK8   BANK9  BANK10  BANK1
      +1  BANK12  BANK13  BANK14  BANK15  BANK16  BANK17  BANK18  BANK19  BANK20  BANK21  BANK22  BANK23  BANK24  BANK25
  7614 ;;      Params:         0       0       0       0       0       0       0       0       0       0       0       0       
      +0       0       0       0       0       0       0       0       0       0       0       0       0       0       0
  7615 ;;      Locals:         1       0       0       0       0       0       0       0       0       0       0       0       
      +0       0       0       0       0       0       0       0       0       0       0       0       0       0       0
  7616 ;;      Temps:          0       0       0       0       0       0       0       0       0       0       0       0       
      +0       0       0       0       0       0       0       0       0       0       0       0       0       0       0
  7617 ;;      Totals:         1       0       0       0       0       0       0       0       0       0       0       0       
      +0       0       0       0       0       0       0       0       0       0       0       0       0       0       0
  7618 ;;Total ram usage:        1 bytes
  7619 ;; Hardware stack levels used: 1
  7620 ;; Hardware stack levels required when called: 1
  7621 ;; This function calls:
  7622 ;;		_I2C_WaitIF
  7623 ;;		_I2C_WaitIdle
  7624 ;; This function is called by:
  7625 ;;		_OLED_Command
  7626 ;;		_OLED_WriteData
  7627 ;; This function uses a non-reentrant model
  7628 ;;
  7629                           
  7630     0CD0                     _I2C_Start:	
  7631                           ;psect for function _I2C_Start
  7632                           
  7633     0CD0                     l2067:	
  7634                           ;incstack = 0
  7635                           ; Regs used in _I2C_Start: [wreg+status,2+status,0+pclath+cstack]
  7636                           
  7637                           
  7638                           ;I2C.c: 100:     I2C_Status_t st;;I2C.c: 102:     st = I2C_WaitIdle(50);
  7639     0CD0  3032               	movlw	50
  7640     0CD1  00F0               	movwf	I2C_WaitIdle@timeout_ms
  7641     0CD2  3000               	movlw	0
  7642     0CD3  00F1               	movwf	I2C_WaitIdle@timeout_ms+1
  7643     0CD4  318C  24AC  318C   	fcall	_I2C_WaitIdle
  7644     0CD7  00F3               	movwf	I2C_Start@st
  7645     0CD8                     l2069:
  7646                           
  7647                           ;I2C.c: 103:     if (st != I2C_OK) return st;
  7648     0CD8  0873               	movf	I2C_Start@st,w
  7649     0CD9  1903               	btfsc	3,2
  7650     0CDA  2CDC               	goto	u1721
  7651     0CDB  2CDD               	goto	u1720
  7652     0CDC                     u1721:
  7653     0CDC  2CDF               	goto	l45
  7654     0CDD                     u1720:
  7655     0CDD                     l2071:
  7656     0CDD  0873               	movf	I2C_Start@st,w
  7657     0CDE  2CF4               	goto	l46
  7658     0CDF                     l45:
  7659                           
  7660                           ;I2C.c: 105:     PIR1bits.SSP1IF = 0;
  7661     0CDF  0020               	movlb	0	; select bank0
  7662     0CE0  1191               	bcf	17,3	;volatile
  7663                           
  7664                           ;I2C.c: 106:     SSPCON2bits.SEN = 1;
  7665     0CE1  0024               	movlb	4	; select bank4
  7666     0CE2  1416               	bsf	22,0	;volatile
  7667     0CE3                     l2075:
  7668                           
  7669                           ;I2C.c: 108:     st = I2C_WaitIF(50);
  7670     0CE3  3032               	movlw	50
  7671     0CE4  00F0               	movwf	I2C_WaitIF@timeout_ms
  7672     0CE5  3000               	movlw	0
  7673     0CE6  00F1               	movwf	I2C_WaitIF@timeout_ms+1
  7674     0CE7  318C  2449  318C   	fcall	_I2C_WaitIF
  7675     0CEA  00F3               	movwf	I2C_Start@st
  7676     0CEB                     l2077:
  7677                           
  7678                           ;I2C.c: 109:     if (st != I2C_OK) return st;
  7679     0CEB  0873               	movf	I2C_Start@st,w
  7680     0CEC  1903               	btfsc	3,2
  7681     0CED  2CEF               	goto	u1731
  7682     0CEE  2CF0               	goto	u1730
  7683     0CEF                     u1731:
  7684     0CEF  2CF1               	goto	l47
  7685     0CF0                     u1730:
  7686     0CF0  2CDD               	goto	l2071
  7687     0CF1                     l47:
  7688                           
  7689                           ;I2C.c: 111:     PIR1bits.SSP1IF = 0;
  7690     0CF1  0020               	movlb	0	; select bank0
  7691     0CF2  1191               	bcf	17,3	;volatile
  7692     0CF3                     l2083:
  7693                           
  7694                           ;I2C.c: 112:     return I2C_OK;
  7695     0CF3  3000               	movlw	0
  7696     0CF4                     l46:
  7697     0CF4  0008               	return
  7698     0CF5                     __end_of_I2C_Start:
  7699                           
  7700                           	psect	text28
  7701     0CAC                     __ptext28:	
  7702 ;; *************** function _I2C_WaitIdle *****************
  7703 ;; Defined at:
  7704 ;;		line 81 in file "I2C.c"
  7705 ;; Parameters:    Size  Location     Type
  7706 ;;  timeout_ms      2    0[COMMON] unsigned short 
  7707 ;; Auto vars:     Size  Location     Type
  7708 ;;		None
  7709 ;; Return value:  Size  Location     Type
  7710 ;;                  1    wreg      enum E6036
  7711 ;; Registers used:
  7712 ;;		wreg, status,2, status,0
  7713 ;; Tracked objects:
  7714 ;;		On entry : 0/0
  7715 ;;		On exit  : 0/0
  7716 ;;		Unchanged: 0/0
  7717 ;; Data sizes:     COMMON   BANK0   BANK1   BANK2   BANK3   BANK4   BANK5   BANK6   BANK7   BANK8   BANK9  BANK10  BANK1
      +1  BANK12  BANK13  BANK14  BANK15  BANK16  BANK17  BANK18  BANK19  BANK20  BANK21  BANK22  BANK23  BANK24  BANK25
  7718 ;;      Params:         2       0       0       0       0       0       0       0       0       0       0       0       
      +0       0       0       0       0       0       0       0       0       0       0       0       0       0       0
  7719 ;;      Locals:         0       0       0       0       0       0       0       0       0       0       0       0       
      +0       0       0       0       0       0       0       0       0       0       0       0       0       0       0
  7720 ;;      Temps:          1       0       0       0       0       0       0       0       0       0       0       0       
      +0       0       0       0       0       0       0       0       0       0       0       0       0       0       0
  7721 ;;      Totals:         3       0       0       0       0       0       0       0       0       0       0       0       
      +0       0       0       0       0       0       0       0       0       0       0       0       0       0       0
  7722 ;;Total ram usage:        3 bytes
  7723 ;; Hardware stack levels used: 1
  7724 ;; This function calls:
  7725 ;;		Nothing
  7726 ;; This function is called by:
  7727 ;;		_I2C_Start
  7728 ;;		_I2C_Stop
  7729 ;;		_I2C_WriteByte
  7730 ;;		_I2C_RepeatedStart
  7731 ;;		_I2C_ReadByte
  7732 ;; This function uses a non-reentrant model
  7733 ;;
  7734                           
  7735     0CAC                     _I2C_WaitIdle:	
  7736                           ;psect for function _I2C_WaitIdle
  7737                           
  7738     0CAC                     l2049:	
  7739                           ;incstack = 0
  7740                           ; Regs used in _I2C_WaitIdle: [wreg+status,2+status,0]
  7741                           
  7742                           
  7743                           ;I2C.c: 81: I2C_Status_t I2C_WaitIdle(uint16_t timeout_ms);I2C.c: 82: {;I2C.c: 83:     w
      +                          hile (timeout_ms--)
  7744     0CAC  2CC2               	goto	l2061
  7745     0CAD                     l2051:
  7746                           
  7747                           ;I2C.c: 84:     {;I2C.c: 87:         if ((SSPCON2 & 0x1F) == 0 && SSPSTATbits.R_nW == 0)
  7748     0CAD  0024               	movlb	4	; select bank4
  7749     0CAE  0816               	movf	22,w	;volatile
  7750     0CAF  391F               	andlw	31
  7751     0CB0  1D03               	btfss	3,2
  7752     0CB1  2CB3               	goto	u1691
  7753     0CB2  2CB4               	goto	u1690
  7754     0CB3                     u1691:
  7755     0CB3  2CBA               	goto	l2059
  7756     0CB4                     u1690:
  7757     0CB4                     l2053:
  7758     0CB4  1914               	btfsc	20,2	;volatile
  7759     0CB5  2CB7               	goto	u1701
  7760     0CB6  2CB8               	goto	u1700
  7761     0CB7                     u1701:
  7762     0CB7  2CBA               	goto	l2059
  7763     0CB8                     u1700:
  7764     0CB8                     l2055:
  7765                           
  7766                           ;I2C.c: 88:             return I2C_OK;
  7767     0CB8  3000               	movlw	0
  7768     0CB9  2CCF               	goto	l41
  7769     0CBA                     l2059:
  7770                           
  7771                           ;I2C.c: 90:         _delay((unsigned long)((1)*(32000000/4000.0)));
  7772     0CBA  300B               	movlw	11
  7773     0CBB  00F2               	movwf	??_I2C_WaitIdle
  7774     0CBC  3062               	movlw	98
  7775     0CBD                     u3357:
  7776     0CBD  0B89               	decfsz	9,f
  7777     0CBE  2CBD               	goto	u3357
  7778     0CBF  0BF2               	decfsz	??_I2C_WaitIdle,f
  7779     0CC0  2CBD               	goto	u3357
  7780     0CC1  3200               	nop2
  7781     0CC2                     l2061:
  7782                           
  7783                           ;I2C.c: 83:     while (timeout_ms--)
  7784     0CC2  3001               	movlw	1
  7785     0CC3  02F0               	subwf	I2C_WaitIdle@timeout_ms,f
  7786     0CC4  3000               	movlw	0
  7787     0CC5  3BF1               	subwfb	I2C_WaitIdle@timeout_ms+1,f
  7788     0CC6  0A70               	incf	I2C_WaitIdle@timeout_ms,w
  7789     0CC7  1D03               	skipz
  7790     0CC8  2CCD               	goto	u1711
  7791     0CC9  0A71               	incf	I2C_WaitIdle@timeout_ms+1,w
  7792     0CCA  1D03               	btfss	3,2
  7793     0CCB  2CCD               	goto	u1711
  7794     0CCC  2CCE               	goto	u1710
  7795     0CCD                     u1711:
  7796     0CCD  2CAD               	goto	l2051
  7797     0CCE                     u1710:
  7798     0CCE                     l2063:
  7799                           
  7800                           ;I2C.c: 92:     return I2C_TIMEOUT;
  7801     0CCE  3002               	movlw	2
  7802     0CCF                     l41:
  7803     0CCF  0008               	return
  7804     0CD0                     __end_of_I2C_WaitIdle:
  7805                           
  7806                           	psect	text29
  7807     0C49                     __ptext29:	
  7808 ;; *************** function _I2C_WaitIF *****************
  7809 ;; Defined at:
  7810 ;;		line 23 in file "I2C.c"
  7811 ;; Parameters:    Size  Location     Type
  7812 ;;  timeout_ms      2    0[COMMON] unsigned short 
  7813 ;; Auto vars:     Size  Location     Type
  7814 ;;		None
  7815 ;; Return value:  Size  Location     Type
  7816 ;;                  1    wreg      enum E6036
  7817 ;; Registers used:
  7818 ;;		wreg, status,2, status,0
  7819 ;; Tracked objects:
  7820 ;;		On entry : 0/0
  7821 ;;		On exit  : 0/0
  7822 ;;		Unchanged: 0/0
  7823 ;; Data sizes:     COMMON   BANK0   BANK1   BANK2   BANK3   BANK4   BANK5   BANK6   BANK7   BANK8   BANK9  BANK10  BANK1
      +1  BANK12  BANK13  BANK14  BANK15  BANK16  BANK17  BANK18  BANK19  BANK20  BANK21  BANK22  BANK23  BANK24  BANK25
  7824 ;;      Params:         2       0       0       0       0       0       0       0       0       0       0       0       
      +0       0       0       0       0       0       0       0       0       0       0       0       0       0       0
  7825 ;;      Locals:         0       0       0       0       0       0       0       0       0       0       0       0       
      +0       0       0       0       0       0       0       0       0       0       0       0       0       0       0
  7826 ;;      Temps:          1       0       0       0       0       0       0       0       0       0       0       0       
      +0       0       0       0       0       0       0       0       0       0       0       0       0       0       0
  7827 ;;      Totals:         3       0       0       0       0       0       0       0       0       0       0       0       
      +0       0       0       0       0       0       0       0       0       0       0       0       0       0       0
  7828 ;;Total ram usage:        3 bytes
  7829 ;; Hardware stack levels used: 1
  7830 ;; This function calls:
  7831 ;;		Nothing
  7832 ;; This function is called by:
  7833 ;;		_I2C_Start
  7834 ;;		_I2C_Stop
  7835 ;;		_I2C_WriteByte
  7836 ;;		_I2C_RepeatedStart
  7837 ;;		_I2C_ReadByte
  7838 ;; This function uses a non-reentrant model
  7839 ;;
  7840                           
  7841     0C49                     _I2C_WaitIF:	
  7842                           ;psect for function _I2C_WaitIF
  7843                           
  7844     0C49                     l2035:	
  7845                           ;incstack = 0
  7846                           ; Regs used in _I2C_WaitIF: [wreg+status,2+status,0]
  7847                           
  7848                           
  7849                           ;I2C.c: 23: static I2C_Status_t I2C_WaitIF(uint16_t timeout_ms);I2C.c: 24: {;I2C.c: 25: 
      +                              while (timeout_ms--)
  7850     0C49  2C59               	goto	l2043
  7851     0C4A                     l26:
  7852                           
  7853                           ;I2C.c: 26:     {;I2C.c: 27:         if (PIR1bits.SSP1IF)
  7854     0C4A  0020               	movlb	0	; select bank0
  7855     0C4B  1D91               	btfss	17,3	;volatile
  7856     0C4C  2C4E               	goto	u1671
  7857     0C4D  2C4F               	goto	u1670
  7858     0C4E                     u1671:
  7859     0C4E  2C51               	goto	l2041
  7860     0C4F                     u1670:
  7861     0C4F                     l2037:
  7862                           
  7863                           ;I2C.c: 28:             return I2C_OK;
  7864     0C4F  3000               	movlw	0
  7865     0C50  2C66               	goto	l28
  7866     0C51                     l2041:
  7867                           
  7868                           ;I2C.c: 30:         _delay((unsigned long)((1)*(32000000/4000.0)));
  7869     0C51  300B               	movlw	11
  7870     0C52  00F2               	movwf	??_I2C_WaitIF
  7871     0C53  3062               	movlw	98
  7872     0C54                     u3367:
  7873     0C54  0B89               	decfsz	9,f
  7874     0C55  2C54               	goto	u3367
  7875     0C56  0BF2               	decfsz	??_I2C_WaitIF,f
  7876     0C57  2C54               	goto	u3367
  7877     0C58  3200               	nop2
  7878     0C59                     l2043:
  7879                           
  7880                           ;I2C.c: 25:     while (timeout_ms--)
  7881     0C59  3001               	movlw	1
  7882     0C5A  02F0               	subwf	I2C_WaitIF@timeout_ms,f
  7883     0C5B  3000               	movlw	0
  7884     0C5C  3BF1               	subwfb	I2C_WaitIF@timeout_ms+1,f
  7885     0C5D  0A70               	incf	I2C_WaitIF@timeout_ms,w
  7886     0C5E  1D03               	skipz
  7887     0C5F  2C64               	goto	u1681
  7888     0C60  0A71               	incf	I2C_WaitIF@timeout_ms+1,w
  7889     0C61  1D03               	btfss	3,2
  7890     0C62  2C64               	goto	u1681
  7891     0C63  2C65               	goto	u1680
  7892     0C64                     u1681:
  7893     0C64  2C4A               	goto	l26
  7894     0C65                     u1680:
  7895     0C65                     l2045:
  7896                           
  7897                           ;I2C.c: 32:     return I2C_TIMEOUT;
  7898     0C65  3002               	movlw	2
  7899     0C66                     l28:
  7900     0C66  0008               	return
  7901     0C67                     __end_of_I2C_WaitIF:
  7902                           
  7903                           	psect	text30
  7904     0BFE                     __ptext30:	
  7905 ;; *************** function _I2C_Init *****************
  7906 ;; Defined at:
  7907 ;;		line 41 in file "I2C.c"
  7908 ;; Parameters:    Size  Location     Type
  7909 ;;		None
  7910 ;; Auto vars:     Size  Location     Type
  7911 ;;		None
  7912 ;; Return value:  Size  Location     Type
  7913 ;;                  1    wreg      void 
  7914 ;; Registers used:
  7915 ;;		wreg, status,2, status,0, pclath, cstack
  7916 ;; Tracked objects:
  7917 ;;		On entry : 0/0
  7918 ;;		On exit  : 0/0
  7919 ;;		Unchanged: 0/0
  7920 ;; Data sizes:     COMMON   BANK0   BANK1   BANK2   BANK3   BANK4   BANK5   BANK6   BANK7   BANK8   BANK9  BANK10  BANK1
      +1  BANK12  BANK13  BANK14  BANK15  BANK16  BANK17  BANK18  BANK19  BANK20  BANK21  BANK22  BANK23  BANK24  BANK25
  7921 ;;      Params:         0       0       0       0       0       0       0       0       0       0       0       0       
      +0       0       0       0       0       0       0       0       0       0       0       0       0       0       0
  7922 ;;      Locals:         0       0       0       0       0       0       0       0       0       0       0       0       
      +0       0       0       0       0       0       0       0       0       0       0       0       0       0       0
  7923 ;;      Temps:          1       0       0       0       0       0       0       0       0       0       0       0       
      +0       0       0       0       0       0       0       0       0       0       0       0       0       0       0
  7924 ;;      Totals:         1       0       0       0       0       0       0       0       0       0       0       0       
      +0       0       0       0       0       0       0       0       0       0       0       0       0       0       0
  7925 ;;Total ram usage:        1 bytes
  7926 ;; Hardware stack levels used: 1
  7927 ;; Hardware stack levels required when called: 1
  7928 ;; This function calls:
  7929 ;;		_I2C_ClearErrors
  7930 ;; This function is called by:
  7931 ;;		_main
  7932 ;; This function uses a non-reentrant model
  7933 ;;
  7934                           
  7935     0BFE                     _I2C_Init:	
  7936                           ;psect for function _I2C_Init
  7937                           
  7938     0BFE                     l2527:	
  7939                           ;incstack = 0
  7940                           ; Regs used in _I2C_Init: [wreg+status,2+status,0+pclath+cstack]
  7941                           
  7942                           
  7943                           ;I2C.c: 44:     SSPCONbits.SSPM = 0x08;
  7944     0BFE  0024               	movlb	4	; select bank4
  7945     0BFF  0815               	movf	21,w	;volatile
  7946     0C00  39F0               	andlw	-16
  7947     0C01  3808               	iorlw	8
  7948     0C02  0095               	movwf	21	;volatile
  7949     0C03                     l2529:
  7950                           
  7951                           ;I2C.c: 47:     SSPCONbits.SSPEN = 1;
  7952     0C03  1695               	bsf	21,5	;volatile
  7953     0C04                     l2531:
  7954                           
  7955                           ;I2C.c: 50:     SSPADD = 79;
  7956     0C04  304F               	movlw	79
  7957     0C05  0092               	movwf	18	;volatile
  7958     0C06                     l2533:
  7959                           
  7960                           ;I2C.c: 52:     I2C_ClearErrors();
  7961     0C06  318B  23D8  318B   	fcall	_I2C_ClearErrors
  7962     0C09                     l2535:
  7963                           
  7964                           ;I2C.c: 53:     _delay((unsigned long)((10)*(32000000/4000.0)));
  7965     0C09  3068               	movlw	104
  7966     0C0A  00F0               	movwf	??_I2C_Init
  7967     0C0B  30E4               	movlw	228
  7968     0C0C                     u3377:
  7969     0C0C  0B89               	decfsz	9,f
  7970     0C0D  2C0C               	goto	u3377
  7971     0C0E  0BF0               	decfsz	??_I2C_Init,f
  7972     0C0F  2C0C               	goto	u3377
  7973     0C10  3200               	nop2
  7974     0C11                     l32:
  7975     0C11  0008               	return
  7976     0C12                     __end_of_I2C_Init:
  7977                           
  7978                           	psect	text31
  7979     0BD8                     __ptext31:	
  7980 ;; *************** function _I2C_ClearErrors *****************
  7981 ;; Defined at:
  7982 ;;		line 62 in file "I2C.c"
  7983 ;; Parameters:    Size  Location     Type
  7984 ;;		None
  7985 ;; Auto vars:     Size  Location     Type
  7986 ;;		None
  7987 ;; Return value:  Size  Location     Type
  7988 ;;                  1    wreg      void 
  7989 ;; Registers used:
  7990 ;;		None
  7991 ;; Tracked objects:
  7992 ;;		On entry : 0/0
  7993 ;;		On exit  : 0/0
  7994 ;;		Unchanged: 0/0
  7995 ;; Data sizes:     COMMON   BANK0   BANK1   BANK2   BANK3   BANK4   BANK5   BANK6   BANK7   BANK8   BANK9  BANK10  BANK1
      +1  BANK12  BANK13  BANK14  BANK15  BANK16  BANK17  BANK18  BANK19  BANK20  BANK21  BANK22  BANK23  BANK24  BANK25
  7996 ;;      Params:         0       0       0       0       0       0       0       0       0       0       0       0       
      +0       0       0       0       0       0       0       0       0       0       0       0       0       0       0
  7997 ;;      Locals:         0       0       0       0       0       0       0       0       0       0       0       0       
      +0       0       0       0       0       0       0       0       0       0       0       0       0       0       0
  7998 ;;      Temps:          0       0       0       0       0       0       0       0       0       0       0       0       
      +0       0       0       0       0       0       0       0       0       0       0       0       0       0       0
  7999 ;;      Totals:         0       0       0       0       0       0       0       0       0       0       0       0       
      +0       0       0       0       0       0       0       0       0       0       0       0       0       0       0
  8000 ;;Total ram usage:        0 bytes
  8001 ;; Hardware stack levels used: 1
  8002 ;; This function calls:
  8003 ;;		Nothing
  8004 ;; This function is called by:
  8005 ;;		_I2C_Init
  8006 ;; This function uses a non-reentrant model
  8007 ;;
  8008                           
  8009     0BD8                     _I2C_ClearErrors:	
  8010                           ;psect for function _I2C_ClearErrors
  8011                           
  8012     0BD8                     l2215:	
  8013                           ;incstack = 0
  8014                           ; Regs used in _I2C_ClearErrors: []
  8015                           
  8016                           
  8017                           ;I2C.c: 65:     SSPCON1bits.SSPOV = 0;
  8018     0BD8  0024               	movlb	4	; select bank4
  8019     0BD9  1315               	bcf	21,6	;volatile
  8020                           
  8021                           ;I2C.c: 66:     SSPCON1bits.WCOL = 0;
  8022     0BDA  1395               	bcf	21,7	;volatile
  8023                           
  8024                           ;I2C.c: 69:     PIR2bits.BCL1IF = 0;
  8025     0BDB  0020               	movlb	0	; select bank0
  8026     0BDC  1192               	bcf	18,3	;volatile
  8027                           
  8028                           ;I2C.c: 72:     PIR1bits.SSP1IF = 0;
  8029     0BDD  1191               	bcf	17,3	;volatile
  8030     0BDE                     l35:
  8031     0BDE  0008               	return
  8032     0BDF                     __end_of_I2C_ClearErrors:
  8033                           
  8034                           	psect	text32
  8035     0166                     __ptext32:	
  8036 ;; *************** function _ADC_Read_Averaged *****************
  8037 ;; Defined at:
  8038 ;;		line 99 in file "./ADC.h"
  8039 ;; Parameters:    Size  Location     Type
  8040 ;;  channel         1    wreg     enum E6091
  8041 ;;  samples         1   13[BANK0 ] unsigned char 
  8042 ;; Auto vars:     Size  Location     Type
  8043 ;;  channel         1   19[BANK0 ] enum E6091
  8044 ;;  i               1   24[BANK0 ] unsigned char 
  8045 ;;  sum             4   20[BANK0 ] unsigned long 
  8046 ;; Return value:  Size  Location     Type
  8047 ;;                  2   13[BANK0 ] unsigned short 
  8048 ;; Registers used:
  8049 ;;		wreg, status,2, status,0, pclath, cstack
  8050 ;; Tracked objects:
  8051 ;;		On entry : 0/0
  8052 ;;		On exit  : 0/0
  8053 ;;		Unchanged: 0/0
  8054 ;; Data sizes:     COMMON   BANK0   BANK1   BANK2   BANK3   BANK4   BANK5   BANK6   BANK7   BANK8   BANK9  BANK10  BANK1
      +1  BANK12  BANK13  BANK14  BANK15  BANK16  BANK17  BANK18  BANK19  BANK20  BANK21  BANK22  BANK23  BANK24  BANK25
  8055 ;;      Params:         0       2       0       0       0       0       0       0       0       0       0       0       
      +0       0       0       0       0       0       0       0       0       0       0       0       0       0       0
  8056 ;;      Locals:         0       6       0       0       0       0       0       0       0       0       0       0       
      +0       0       0       0       0       0       0       0       0       0       0       0       0       0       0
  8057 ;;      Temps:          0       4       0       0       0       0       0       0       0       0       0       0       
      +0       0       0       0       0       0       0       0       0       0       0       0       0       0       0
  8058 ;;      Totals:         0      12       0       0       0       0       0       0       0       0       0       0       
      +0       0       0       0       0       0       0       0       0       0       0       0       0       0       0
  8059 ;;Total ram usage:       12 bytes
  8060 ;; Hardware stack levels used: 1
  8061 ;; Hardware stack levels required when called: 1
  8062 ;; This function calls:
  8063 ;;		___lldiv
  8064 ;; This function is called by:
  8065 ;;		_main
  8066 ;; This function uses a non-reentrant model
  8067 ;;
  8068                           
  8069     0166                     _ADC_Read_Averaged:	
  8070                           ;psect for function _ADC_Read_Averaged
  8071                           
  8072                           
  8073                           ;incstack = 0
  8074                           ; Regs used in _ADC_Read_Averaged: [wreg+status,2+status,0+pclath+cstack]
  8075                           ;ADC_Read_Averaged@channel stored from wreg
  8076     0166  0020               	movlb	0	; select bank0
  8077     0167  00B3               	movwf	ADC_Read_Averaged@channel
  8078     0168                     l2543:
  8079                           
  8080                           ;./ADC.h: 99: uint16_t ADC_Read_Averaged(adc_channel_t channel, uint8_t samples);./ADC.h
      +                          : 100: {;./ADC.h: 101:     uint32_t sum = 0;
  8081     0168  3000               	movlw	0
  8082     0169  00B7               	movwf	ADC_Read_Averaged@sum+3
  8083     016A  3000               	movlw	0
  8084     016B  00B6               	movwf	ADC_Read_Averaged@sum+2
  8085     016C  3000               	movlw	0
  8086     016D  00B5               	movwf	ADC_Read_Averaged@sum+1
  8087     016E  3000               	movlw	0
  8088     016F  00B4               	movwf	ADC_Read_Averaged@sum
  8089     0170                     l2545:
  8090                           
  8091                           ;./ADC.h: 104:     ADCON0bits.CHS = (uint8_t)channel;
  8092     0170  0833               	movf	ADC_Read_Averaged@channel,w
  8093     0171  00AF               	movwf	??_ADC_Read_Averaged
  8094     0172  0DAF               	rlf	??_ADC_Read_Averaged,f
  8095     0173  0DAF               	rlf	??_ADC_Read_Averaged,f
  8096     0174  0021               	movlb	1	; select bank1
  8097     0175  081D               	movf	29,w	;volatile
  8098     0176  0020               	movlb	0	; select bank0
  8099     0177  062F               	xorwf	??_ADC_Read_Averaged,w
  8100     0178  3983               	andlw	-125
  8101     0179  062F               	xorwf	??_ADC_Read_Averaged,w
  8102     017A  0021               	movlb	1	; select bank1
  8103     017B  009D               	movwf	29	;volatile
  8104     017C                     l2547:
  8105                           
  8106                           ;./ADC.h: 105:     ADCON0bits.ADON = 1;
  8107     017C  141D               	bsf	29,0	;volatile
  8108     017D                     l2549:
  8109                           
  8110                           ;./ADC.h: 106:     _delay((unsigned long)((20)*(32000000/4000000.0)));
  8111     017D  3035               	movlw	53
  8112     017E                     u3387:
  8113     017E  0B89               	decfsz	9,f
  8114     017F  297E               	goto	u3387
  8115     0180  0000               	nop
  8116     0181                     l2551:
  8117                           
  8118                           ;./ADC.h: 109:     for (uint8_t i = 0; i < samples; i++)
  8119     0181  0020               	movlb	0	; select bank0
  8120     0182  01B8               	clrf	ADC_Read_Averaged@i
  8121     0183  29AF               	goto	l2559
  8122     0184                     l149:
  8123                           
  8124                           ;./ADC.h: 110:     {;./ADC.h: 112:         ADCON0bits.GO = 1;
  8125     0184  0021               	movlb	1	; select bank1
  8126     0185  149D               	bsf	29,1	;volatile
  8127     0186                     l150:	
  8128                           ;./ADC.h: 113:         while (ADCON0bits.GO_nDONE);
  8129                           
  8130     0186  189D               	btfsc	29,1	;volatile
  8131     0187  2989               	goto	u2641
  8132     0188  298A               	goto	u2640
  8133     0189                     u2641:
  8134     0189  2986               	goto	l150
  8135     018A                     u2640:
  8136     018A                     l2553:
  8137                           
  8138                           ;./ADC.h: 115:         sum += (uint16_t)((ADRESH << 8) + ADRESL);
  8139     018A  081B               	movf	27,w	;volatile
  8140     018B  0020               	movlb	0	; select bank0
  8141     018C  07B4               	addwf	ADC_Read_Averaged@sum,f
  8142     018D  0021               	movlb	1	; select bank1
  8143     018E  081C               	movf	28,w	;volatile
  8144     018F  0020               	movlb	0	; select bank0
  8145     0190  3DB5               	addwfc	ADC_Read_Averaged@sum+1,f
  8146     0191  3000               	movlw	0
  8147     0192  3DB6               	addwfc	ADC_Read_Averaged@sum+2,f
  8148     0193  3DB7               	addwfc	ADC_Read_Averaged@sum+3,f
  8149                           
  8150                           ;./ADC.h: 118:         if (i < samples - 1) _delay((unsigned long)((5)*(32000000/4000000
      +                          .0)));
  8151     0194  082D               	movf	ADC_Read_Averaged@samples,w
  8152     0195  3EFF               	addlw	255
  8153     0196  00AF               	movwf	??_ADC_Read_Averaged
  8154     0197  30FF               	movlw	255
  8155     0198  1803               	skipnc
  8156     0199  3000               	movlw	0
  8157     019A  00B0               	movwf	??_ADC_Read_Averaged+1
  8158     019B  0830               	movf	??_ADC_Read_Averaged+1,w
  8159     019C  3A80               	xorlw	128
  8160     019D  3C80               	sublw	128
  8161     019E  1D03               	skipz
  8162     019F  29A2               	goto	u2655
  8163     01A0  082F               	movf	??_ADC_Read_Averaged,w
  8164     01A1  0238               	subwf	ADC_Read_Averaged@i,w
  8165     01A2                     u2655:
  8166     01A2  1803               	skipnc
  8167     01A3  29A5               	goto	u2651
  8168     01A4  29A6               	goto	u2650
  8169     01A5                     u2651:
  8170     01A5  29AA               	goto	l2557
  8171     01A6                     u2650:
  8172     01A6                     l2555:
  8173     01A6  300D               	movlw	13
  8174     01A7                     u3397:
  8175     01A7  0B89               	decfsz	9,f
  8176     01A8  29A7               	goto	u3397
  8177     01A9  0000               	nop
  8178     01AA                     l2557:
  8179                           
  8180                           ;./ADC.h: 119:     }
  8181     01AA  3001               	movlw	1
  8182     01AB  0020               	movlb	0	; select bank0
  8183     01AC  00AF               	movwf	??_ADC_Read_Averaged
  8184     01AD  082F               	movf	??_ADC_Read_Averaged,w
  8185     01AE  07B8               	addwf	ADC_Read_Averaged@i,f
  8186     01AF                     l2559:
  8187     01AF  082D               	movf	ADC_Read_Averaged@samples,w
  8188     01B0  0238               	subwf	ADC_Read_Averaged@i,w
  8189     01B1  1C03               	skipc
  8190     01B2  29B4               	goto	u2661
  8191     01B3  29B5               	goto	u2660
  8192     01B4                     u2661:
  8193     01B4  2984               	goto	l149
  8194     01B5                     u2660:
  8195     01B5                     l2561:
  8196                           
  8197                           ;./ADC.h: 121:     return (uint16_t)(sum / samples);
  8198     01B5  082D               	movf	ADC_Read_Averaged@samples,w
  8199     01B6  00AF               	movwf	??_ADC_Read_Averaged
  8200     01B7  01B0               	clrf	??_ADC_Read_Averaged+1
  8201     01B8  01B1               	clrf	??_ADC_Read_Averaged+2
  8202     01B9  01B2               	clrf	??_ADC_Read_Averaged+3
  8203     01BA  0832               	movf	??_ADC_Read_Averaged+3,w
  8204     01BB  00A3               	movwf	___lldiv@divisor+3
  8205     01BC  0831               	movf	??_ADC_Read_Averaged+2,w
  8206     01BD  00A2               	movwf	___lldiv@divisor+2
  8207     01BE  0830               	movf	??_ADC_Read_Averaged+1,w
  8208     01BF  00A1               	movwf	___lldiv@divisor+1
  8209     01C0  082F               	movf	??_ADC_Read_Averaged,w
  8210     01C1  00A0               	movwf	___lldiv@divisor
  8211     01C2  0837               	movf	ADC_Read_Averaged@sum+3,w
  8212     01C3  00A7               	movwf	___lldiv@dividend+3
  8213     01C4  0836               	movf	ADC_Read_Averaged@sum+2,w
  8214     01C5  00A6               	movwf	___lldiv@dividend+2
  8215     01C6  0835               	movf	ADC_Read_Averaged@sum+1,w
  8216     01C7  00A5               	movwf	___lldiv@dividend+1
  8217     01C8  0834               	movf	ADC_Read_Averaged@sum,w
  8218     01C9  00A4               	movwf	___lldiv@dividend
  8219     01CA  3180  2047  3181   	fcall	___lldiv
  8220     01CD  0020               	movlb	0	; select bank0
  8221     01CE  0821               	movf	?___lldiv+1,w
  8222     01CF  00AE               	movwf	?_ADC_Read_Averaged+1
  8223     01D0  0820               	movf	?___lldiv,w
  8224     01D1  00AD               	movwf	?_ADC_Read_Averaged
  8225     01D2                     l155:
  8226     01D2  0008               	return
  8227     01D3                     __end_of_ADC_Read_Averaged:
  8228                           
  8229                           	psect	text33
  8230     0047                     __ptext33:	
  8231 ;; *************** function ___lldiv *****************
  8232 ;; Defined at:
  8233 ;;		line 5 in file "C:\Program Files\Microchip\xc8\v2.46\pic\sources\c99\common\__lldiv.c"
  8234 ;; Parameters:    Size  Location     Type
  8235 ;;  divisor         4    0[BANK0 ] unsigned long 
  8236 ;;  dividend        4    4[BANK0 ] unsigned long 
  8237 ;; Auto vars:     Size  Location     Type
  8238 ;;  quotient        4    8[BANK0 ] unsigned long 
  8239 ;;  counter         1   12[BANK0 ] unsigned char 
  8240 ;; Return value:  Size  Location     Type
  8241 ;;                  4    0[BANK0 ] unsigned long 
  8242 ;; Registers used:
  8243 ;;		wreg, status,2, status,0
  8244 ;; Tracked objects:
  8245 ;;		On entry : 0/0
  8246 ;;		On exit  : 0/0
  8247 ;;		Unchanged: 0/0
  8248 ;; Data sizes:     COMMON   BANK0   BANK1   BANK2   BANK3   BANK4   BANK5   BANK6   BANK7   BANK8   BANK9  BANK10  BANK1
      +1  BANK12  BANK13  BANK14  BANK15  BANK16  BANK17  BANK18  BANK19  BANK20  BANK21  BANK22  BANK23  BANK24  BANK25
  8249 ;;      Params:         0       8       0       0       0       0       0       0       0       0       0       0       
      +0       0       0       0       0       0       0       0       0       0       0       0       0       0       0
  8250 ;;      Locals:         0       5       0       0       0       0       0       0       0       0       0       0       
      +0       0       0       0       0       0       0       0       0       0       0       0       0       0       0
  8251 ;;      Temps:          1       0       0       0       0       0       0       0       0       0       0       0       
      +0       0       0       0       0       0       0       0       0       0       0       0       0       0       0
  8252 ;;      Totals:         1      13       0       0       0       0       0       0       0       0       0       0       
      +0       0       0       0       0       0       0       0       0       0       0       0       0       0       0
  8253 ;;Total ram usage:       14 bytes
  8254 ;; Hardware stack levels used: 1
  8255 ;; This function calls:
  8256 ;;		Nothing
  8257 ;; This function is called by:
  8258 ;;		_ADC_Read_Averaged
  8259 ;;		_main
  8260 ;;		_OLED_Printf_Line
  8261 ;; This function uses a non-reentrant model
  8262 ;;
  8263                           
  8264     0047                     ___lldiv:	
  8265                           ;psect for function ___lldiv
  8266                           
  8267     0047                     l2281:	
  8268                           ;incstack = 0
  8269                           ; Regs used in ___lldiv: [wreg+status,2+status,0]
  8270                           
  8271     0047  3000               	movlw	0
  8272     0048  0020               	movlb	0	; select bank0
  8273     0049  00AB               	movwf	___lldiv@quotient+3
  8274     004A  3000               	movlw	0
  8275     004B  00AA               	movwf	___lldiv@quotient+2
  8276     004C  3000               	movlw	0
  8277     004D  00A9               	movwf	___lldiv@quotient+1
  8278     004E  3000               	movlw	0
  8279     004F  00A8               	movwf	___lldiv@quotient
  8280     0050  0823               	movf	___lldiv@divisor+3,w
  8281     0051  0422               	iorwf	___lldiv@divisor+2,w
  8282     0052  0421               	iorwf	___lldiv@divisor+1,w
  8283     0053  0420               	iorwf	___lldiv@divisor,w
  8284     0054  1903               	skipnz
  8285     0055  2857               	goto	u2001
  8286     0056  2858               	goto	u2000
  8287     0057                     u2001:
  8288     0057  2899               	goto	l2301
  8289     0058                     u2000:
  8290     0058                     l2283:
  8291     0058  01AC               	clrf	___lldiv@counter
  8292     0059  0AAC               	incf	___lldiv@counter,f
  8293     005A  2866               	goto	l2287
  8294     005B                     l2285:
  8295     005B  3001               	movlw	1
  8296     005C                     u2015:
  8297     005C  35A0               	lslf	___lldiv@divisor,f
  8298     005D  0DA1               	rlf	___lldiv@divisor+1,f
  8299     005E  0DA2               	rlf	___lldiv@divisor+2,f
  8300     005F  0DA3               	rlf	___lldiv@divisor+3,f
  8301     0060  0B89               	decfsz	9,f
  8302     0061  285C               	goto	u2015
  8303     0062  3001               	movlw	1
  8304     0063  00FC               	movwf	??___lldiv
  8305     0064  087C               	movf	??___lldiv,w
  8306     0065  07AC               	addwf	___lldiv@counter,f
  8307     0066                     l2287:
  8308     0066  1FA3               	btfss	___lldiv@divisor+3,7
  8309     0067  2869               	goto	u2021
  8310     0068  286A               	goto	u2020
  8311     0069                     u2021:
  8312     0069  285B               	goto	l2285
  8313     006A                     u2020:
  8314     006A                     l2289:
  8315     006A  3001               	movlw	1
  8316     006B                     u2035:
  8317     006B  35A8               	lslf	___lldiv@quotient,f
  8318     006C  0DA9               	rlf	___lldiv@quotient+1,f
  8319     006D  0DAA               	rlf	___lldiv@quotient+2,f
  8320     006E  0DAB               	rlf	___lldiv@quotient+3,f
  8321     006F  0B89               	decfsz	9,f
  8322     0070  286B               	goto	u2035
  8323     0071                     l2291:
  8324     0071  0823               	movf	___lldiv@divisor+3,w
  8325     0072  0227               	subwf	___lldiv@dividend+3,w
  8326     0073  1D03               	skipz
  8327     0074  287F               	goto	u2045
  8328     0075  0822               	movf	___lldiv@divisor+2,w
  8329     0076  0226               	subwf	___lldiv@dividend+2,w
  8330     0077  1D03               	skipz
  8331     0078  287F               	goto	u2045
  8332     0079  0821               	movf	___lldiv@divisor+1,w
  8333     007A  0225               	subwf	___lldiv@dividend+1,w
  8334     007B  1D03               	skipz
  8335     007C  287F               	goto	u2045
  8336     007D  0820               	movf	___lldiv@divisor,w
  8337     007E  0224               	subwf	___lldiv@dividend,w
  8338     007F                     u2045:
  8339     007F  1C03               	skipc
  8340     0080  2882               	goto	u2041
  8341     0081  2883               	goto	u2040
  8342     0082                     u2041:
  8343     0082  288C               	goto	l2297
  8344     0083                     u2040:
  8345     0083                     l2293:
  8346     0083  0820               	movf	___lldiv@divisor,w
  8347     0084  02A4               	subwf	___lldiv@dividend,f
  8348     0085  0821               	movf	___lldiv@divisor+1,w
  8349     0086  3BA5               	subwfb	___lldiv@dividend+1,f
  8350     0087  0822               	movf	___lldiv@divisor+2,w
  8351     0088  3BA6               	subwfb	___lldiv@dividend+2,f
  8352     0089  0823               	movf	___lldiv@divisor+3,w
  8353     008A  3BA7               	subwfb	___lldiv@dividend+3,f
  8354     008B                     l2295:
  8355     008B  1428               	bsf	___lldiv@quotient,0
  8356     008C                     l2297:
  8357     008C  3001               	movlw	1
  8358     008D                     u2055:
  8359     008D  36A3               	lsrf	___lldiv@divisor+3,f
  8360     008E  0CA2               	rrf	___lldiv@divisor+2,f
  8361     008F  0CA1               	rrf	___lldiv@divisor+1,f
  8362     0090  0CA0               	rrf	___lldiv@divisor,f
  8363     0091  0B89               	decfsz	9,f
  8364     0092  288D               	goto	u2055
  8365     0093                     l2299:
  8366     0093  3001               	movlw	1
  8367     0094  02AC               	subwf	___lldiv@counter,f
  8368     0095  1D03               	btfss	3,2
  8369     0096  2898               	goto	u2061
  8370     0097  2899               	goto	u2060
  8371     0098                     u2061:
  8372     0098  286A               	goto	l2289
  8373     0099                     u2060:
  8374     0099                     l2301:
  8375     0099  082B               	movf	___lldiv@quotient+3,w
  8376     009A  00A3               	movwf	?___lldiv+3
  8377     009B  082A               	movf	___lldiv@quotient+2,w
  8378     009C  00A2               	movwf	?___lldiv+2
  8379     009D  0829               	movf	___lldiv@quotient+1,w
  8380     009E  00A1               	movwf	?___lldiv+1
  8381     009F  0828               	movf	___lldiv@quotient,w
  8382     00A0  00A0               	movwf	?___lldiv
  8383     00A1                     l491:
  8384     00A1  0008               	return
  8385     00A2                     __end_of___lldiv:
  8386                           
  8387                           	psect	text34
  8388     0BE8                     __ptext34:	
  8389 ;; *************** function _ADC_Init *****************
  8390 ;; Defined at:
  8391 ;;		line 76 in file "./ADC.h"
  8392 ;; Parameters:    Size  Location     Type
  8393 ;;		None
  8394 ;; Auto vars:     Size  Location     Type
  8395 ;;		None
  8396 ;; Return value:  Size  Location     Type
  8397 ;;                  1    wreg      void 
  8398 ;; Registers used:
  8399 ;;		wreg, status,2, status,0
  8400 ;; Tracked objects:
  8401 ;;		On entry : 0/0
  8402 ;;		On exit  : 0/0
  8403 ;;		Unchanged: 0/0
  8404 ;; Data sizes:     COMMON   BANK0   BANK1   BANK2   BANK3   BANK4   BANK5   BANK6   BANK7   BANK8   BANK9  BANK10  BANK1
      +1  BANK12  BANK13  BANK14  BANK15  BANK16  BANK17  BANK18  BANK19  BANK20  BANK21  BANK22  BANK23  BANK24  BANK25
  8405 ;;      Params:         0       0       0       0       0       0       0       0       0       0       0       0       
      +0       0       0       0       0       0       0       0       0       0       0       0       0       0       0
  8406 ;;      Locals:         0       0       0       0       0       0       0       0       0       0       0       0       
      +0       0       0       0       0       0       0       0       0       0       0       0       0       0       0
  8407 ;;      Temps:          0       0       0       0       0       0       0       0       0       0       0       0       
      +0       0       0       0       0       0       0       0       0       0       0       0       0       0       0
  8408 ;;      Totals:         0       0       0       0       0       0       0       0       0       0       0       0       
      +0       0       0       0       0       0       0       0       0       0       0       0       0       0       0
  8409 ;;Total ram usage:        0 bytes
  8410 ;; Hardware stack levels used: 1
  8411 ;; This function calls:
  8412 ;;		Nothing
  8413 ;; This function is called by:
  8414 ;;		_main
  8415 ;; This function uses a non-reentrant model
  8416 ;;
  8417                           
  8418     0BE8                     _ADC_Init:	
  8419                           ;psect for function _ADC_Init
  8420                           
  8421     0BE8                     l2537:	
  8422                           ;incstack = 0
  8423                           ; Regs used in _ADC_Init: [wreg+status,2+status,0]
  8424                           
  8425                           
  8426                           ;./ADC.h: 79:     ADCON1bits.ADCS = 0b010;
  8427     0BE8  0021               	movlb	1	; select bank1
  8428     0BE9  081E               	movf	30,w	;volatile
  8429     0BEA  398F               	andlw	-113
  8430     0BEB  3820               	iorlw	32
  8431     0BEC  009E               	movwf	30	;volatile
  8432     0BED                     l2539:
  8433                           
  8434                           ;./ADC.h: 82:     ADCON1bits.ADFM = 1;
  8435     0BED  179E               	bsf	30,7	;volatile
  8436     0BEE                     l2541:
  8437                           
  8438                           ;./ADC.h: 85:     ADCON1bits.ADNREF = 0;
  8439     0BEE  111E               	bcf	30,2	;volatile
  8440                           
  8441                           ;./ADC.h: 88:     ADCON1bits.ADPREF = 0b00;
  8442     0BEF  30FC               	movlw	-4
  8443     0BF0  059E               	andwf	30,f	;volatile
  8444     0BF1                     l145:
  8445     0BF1  0008               	return
  8446     0BF2                     __end_of_ADC_Init:
  8447     007E                     btemp	set	126	;btemp
  8448     007E                     wtemp0	set	126
  8449     24F0                     
  8450                           	psect	config
  8451                           
  8452                           ;Config register CONFIG1 @ 0x8007
  8453                           ;	Oscillator Selection Bits
  8454                           ;	FOSC = INTOSC, INTOSC oscillator: I/O function on CLKIN pin
  8455                           ;	Watchdog Timer Enable
  8456                           ;	WDTE = OFF, WDT disabled
  8457                           ;	Power-up Timer Enable
  8458                           ;	PWRTE = OFF, PWRT disabled
  8459                           ;	MCLR Pin Function Select
  8460                           ;	MCLRE = OFF, MCLR/VPP pin function is digital input if LVP bit is also 0.
  8461                           ;	Flash Program Memory Code Protection
  8462                           ;	CP = OFF, Program memory code protection is disabled
  8463                           ;	Brown-out Reset Enable
  8464                           ;	BOREN = OFF, Brown-out Reset disabled
  8465                           ;	Clock Out Enable
  8466                           ;	CLKOUTEN = OFF, CLKOUT function is disabled. I/O or oscillator function on the CLKOUT 
      +                          pin
  8467                           ;	Internal/External Switchover Mode
  8468                           ;	IESO = ON, Internal/External Switchover Mode is enabled
  8469                           ;	Fail-Safe Clock Monitor Enable
  8470                           ;	FCMEN = OFF, Fail-Safe Clock Monitor is disabled
  8471     8007                     	org	32775
  8472     8007  19A4               	dw	6564
  8473                           
  8474                           ;Config register CONFIG2 @ 0x8008
  8475                           ;	Flash Memory Self-Write Protection
  8476                           ;	WRT = OFF, Write protection off
  8477                           ;	Peripheral Pin Select one-way control
  8478                           ;	PPS1WAY = ON, The PPSLOCK bit cannot be cleared once it is set by software
  8479                           ;	Zero-cross detect disable
  8480                           ;	ZCDDIS = ON, ZCD disabled. ZCD can be enabled by setting the ZCDSEN bit of ZCDCON
  8481                           ;	Phase Lock Loop enable
  8482                           ;	PLLEN = OFF, 4x PLL is disabled
  8483                           ;	Stack Overflow/Underflow Reset Enable
  8484                           ;	STVREN = ON, Stack Overflow or Underflow will cause a Reset
  8485                           ;	Brown-out Reset Voltage Selection
  8486                           ;	BORV = LO, Brown-out Reset Voltage (Vbor), low trip point selected.
  8487                           ;	Low-Power Brown Out Reset
  8488                           ;	LPBOR = OFF, Low-Power BOR is disabled
  8489                           ;	In-Circuit Debugger Mode
  8490                           ;	DEBUG = 0x1, unprogrammed default
  8491                           ;	Low-Voltage Programming Enable
  8492                           ;	LVP = OFF, High-voltage on MCLR/VPP must be used for programming
  8493     8008                     	org	32776
  8494     8008  1EFF               	dw	7935

Data Sizes:
    Strings     11
    Constant    778
    Data        0
    BSS         0
    Persistent  32
    Stack       0

Auto Spaces:
    Space          Size  Autos    Used
    COMMON           14     14      14
    BANK0            80     70      70
    BANK1            80     71      71
    BANK2            80      0       0
    BANK3            80      0       0
    BANK4            80      0       0
    BANK5            80      0       0
    BANK6            80      0       0
    BANK7            80      0       0
    BANK8            80      0       0
    BANK9            80      0       0
    BANK10           80      0       0
    BANK11           80      0       0
    BANK12           80      0       0
    BANK13           80      0       0
    BANK14           80      0       0
    BANK15           64      0       0
    BANK16            0      0       0
    BANK17            0      0       0
    BANK18            0      0       0
    BANK19            0      0       0
    BANK20            0      0       0
    BANK21            0      0       0
    BANK22            0      0       0
    BANK23            0      0       0
    BANK24            0      0       0
    BANK25            0      0       0

Pointer List with Targets:

    memcpy@d	PTR unsigned char  size(2) Largest target is 512
		 -> screen_buffer(BIGRAM[512]), 

    memcpy@d1	PTR void  size(2) Largest target is 512
		 -> screen_buffer(BIGRAM[512]), 

    memcpy@s	PTR const unsigned char  size(2) Largest target is 768
		 -> OledFont(CODE[768]), 

    memcpy@s1	PTR const void  size(2) Largest target is 768
		 -> OledFont(CODE[768]), 

    memset@dest	PTR void  size(2) Largest target is 512
		 -> screen_buffer(BIGRAM[512]), 

    memset@p	PTR unsigned char  size(2) Largest target is 512
		 -> screen_buffer(BIGRAM[512]), 

    OLED_Printf_Line@ap	PTR void [1] size(1) Largest target is 1
		 -> ?_OLED_Printf_Line(BANK0[1]), 

    OLED_Printf_Line@dst	PTR unsigned char  size(1) Largest target is 32
		 -> OLED_Printf_Line@buf(BANK1[32]), 

    OLED_Printf_Line@fmt	PTR const unsigned char  size(2) Largest target is 11
		 -> STR_1(CODE[11]), 

    OLED_Printf_Line@p	PTR const unsigned char  size(1) Largest target is 32
		 -> OLED_Printf_Line@buf(BANK1[32]), 

    OLED_Printf_Line@src	PTR const unsigned char  size(2) Largest target is 11
		 -> STR_1(CODE[11]), 

    OLED_Printf_Line@str	PTR const unsigned char  size(1) Largest target is 1
		 -> ?_OLED_Printf_Line(BANK0[1]), 

    OLED_WriteData@data	PTR const unsigned char  size(2) Largest target is 768
		 -> OledFont(CODE[768]), screen_buffer(BIGRAM[512]), 

    sp__memcpy	PTR void  size(2) Largest target is 512
		 -> screen_buffer(BIGRAM[512]), 

    sp__memset	PTR void  size(2) Largest target is 512
		 -> screen_buffer(BIGRAM[512]), 

    sp__strcpy	PTR unsigned char  size(2) Largest target is 256
		 -> OLED_Printf_Line@last_text(BIGRAM[256]), 

    strcmp@l	PTR const unsigned char  size(1) Largest target is 32
		 -> OLED_Printf_Line@buf(BANK1[32]), 

    strcmp@r	PTR const unsigned char  size(2) Largest target is 256
		 -> OLED_Printf_Line@last_text(BIGRAM[256]), 

    strcpy@d	PTR unsigned char  size(2) Largest target is 256
		 -> OLED_Printf_Line@last_text(BIGRAM[256]), 

    strcpy@dest	PTR unsigned char  size(2) Largest target is 256
		 -> OLED_Printf_Line@last_text(BIGRAM[256]), 

    strcpy@src	PTR const unsigned char  size(1) Largest target is 32
		 -> OLED_Printf_Line@buf(BANK1[32]), 


Critical Paths under _main in COMMON

    _main->_OLED_Init
    _initMain->_ADC_ConfigurePin
    _OLED_SetOrientation->_OLED_Command
    _OLED_Printf_Line->_OLED_UpdateLine
    _OLED_Printf_Line->___lldiv
    _OLED_UpdateLine->_OLED_WriteData
    _OLED_Init->_OLED_Clear
    _OLED_Clear->_OLED_WriteData
    _OLED_YX->_OLED_Command
    _OLED_Command->_I2C_WriteByte
    _OLED_WriteData->_I2C_WriteByte
    _I2C_WriteByte->_I2C_WaitIF
    _I2C_WriteByte->_I2C_WaitIdle
    _I2C_Stop->_I2C_WaitIF
    _I2C_Stop->_I2C_WaitIdle
    _I2C_Start->_I2C_WaitIF
    _I2C_Start->_I2C_WaitIdle
    _ADC_Read_Averaged->___lldiv
    ___lldiv->___lmul

Critical Paths under _main in BANK0

    _main->_OLED_Printf_Line
    _OLED_Printf_Line->___lldiv
    _OLED_Init->_OLED_Clear
    _ADC_Read_Averaged->___lldiv

Critical Paths under _main in BANK1

    _main->_OLED_Printf_Line

Critical Paths under _main in BANK2

    None.

Critical Paths under _main in BANK3

    None.

Critical Paths under _main in BANK4

    None.

Critical Paths under _main in BANK5

    None.

Critical Paths under _main in BANK6

    None.

Critical Paths under _main in BANK7

    None.

Critical Paths under _main in BANK8

    None.

Critical Paths under _main in BANK9

    None.

Critical Paths under _main in BANK10

    None.

Critical Paths under _main in BANK11

    None.

Critical Paths under _main in BANK12

    None.

Critical Paths under _main in BANK13

    None.

Critical Paths under _main in BANK14

    None.

Critical Paths under _main in BANK15

    None.

Critical Paths under _main in BANK16

    None.

Critical Paths under _main in BANK17

    None.

Critical Paths under _main in BANK18

    None.

Critical Paths under _main in BANK19

    None.

Critical Paths under _main in BANK20

    None.

Critical Paths under _main in BANK21

    None.

Critical Paths under _main in BANK22

    None.

Critical Paths under _main in BANK23

    None.

Critical Paths under _main in BANK24

    None.

Critical Paths under _main in BANK25

    None.

Call Graph Tables:

 ---------------------------------------------------------------------------------
 (Depth) Function   	        Calls       Base Space   Used Autos Params    Refs
 ---------------------------------------------------------------------------------
 (0) _main                                                28    28      0   38814
                                             60 BANK0     10    10      0
                           _ADC_Init
                  _ADC_Read_Averaged
                           _I2C_Init
                         _OLED_Clear
                          _OLED_Init
                   _OLED_Printf_Line
                _OLED_SetOrientation
                            ___awdiv
                            ___lldiv
                             ___lmul
                           _initMain
 ---------------------------------------------------------------------------------
 (1) _initMain                                             1     1      0      22
                                              3 COMMON     1     1      0
                   _ADC_ConfigurePin
                        _internal_32
 ---------------------------------------------------------------------------------
 (2) _internal_32                                          0     0      0       0
 ---------------------------------------------------------------------------------
 (2) _ADC_ConfigurePin                                     3     3      0      22
                                              0 COMMON     3     3      0
 ---------------------------------------------------------------------------------
 (1) ___lmul                                              12     4      8     244
                                              0 COMMON    12     4      8
 ---------------------------------------------------------------------------------
 (1) _OLED_SetOrientation                                  3     3      0    3038
                                              7 COMMON     3     3      0
                       _OLED_Command
 ---------------------------------------------------------------------------------
 (1) _OLED_Printf_Line                                   118   114      4   14733
                                             13 BANK0     47    43      4
                                              0 BANK1     71    71      0
                    _OLED_UpdateLine
                            ___aldiv
                            ___almod
                            ___awdiv
                            ___awmod
                            ___lldiv
                            ___llmod
                            ___lwdiv
                            ___lwmod
                             _memcpy
                             _memset
                             _strcmp
                             _strcpy
 ---------------------------------------------------------------------------------
 (2) _strcpy                                               7     4      3     225
                                              0 COMMON     7     4      3
 ---------------------------------------------------------------------------------
 (2) _strcmp                                               4     2      2     221
                                              0 COMMON     4     2      2
 ---------------------------------------------------------------------------------
 (2) _memcpy                                              11     5      6     371
                                              0 COMMON    11     5      6
 ---------------------------------------------------------------------------------
 (2) ___lwmod                                              6     2      4     311
                                              0 COMMON     6     2      4
 ---------------------------------------------------------------------------------
 (2) ___lwdiv                                              8     4      4     314
                                              0 COMMON     8     4      4
 ---------------------------------------------------------------------------------
 (2) ___llmod                                             10     2      8     311
                                              0 COMMON    10     2      8
 ---------------------------------------------------------------------------------
 (2) ___awmod                                              7     3      4     448
                                              0 COMMON     7     3      4
 ---------------------------------------------------------------------------------
 (1) ___awdiv                                              9     5      4     756
                                              0 COMMON     9     5      4
 ---------------------------------------------------------------------------------
 (2) ___almod                                             11     3      8     448
                                              0 COMMON    11     3      8
 ---------------------------------------------------------------------------------
 (2) ___aldiv                                             15     7      8     452
                                              0 COMMON     9     1      8
                                              0 BANK0      6     6      0
 ---------------------------------------------------------------------------------
 (2) _OLED_UpdateLine                                      7     7      0    7135
                                             12 COMMON     1     1      0
                                              0 BANK0      6     6      0
                     _OLED_WriteData
                            _OLED_YX
 ---------------------------------------------------------------------------------
 (1) _OLED_Init                                            1     1      0   10749
                                             13 COMMON     1     1      0
                         _OLED_Clear
                       _OLED_Command
 ---------------------------------------------------------------------------------
 (2) _OLED_Clear                                           7     7      0    7733
                                             12 COMMON     1     1      0
                                              0 BANK0      6     6      0
                     _OLED_WriteData
                            _OLED_YX
                             _memset
 ---------------------------------------------------------------------------------
 (2) _memset                                               8     2      6     552
                                              0 COMMON     8     2      6
 ---------------------------------------------------------------------------------
 (3) _OLED_YX                                              4     3      1    3333
                                              7 COMMON     4     3      1
                       _OLED_Command
 ---------------------------------------------------------------------------------
 (2) _OLED_Command                                         2     2      0    3016
                                              5 COMMON     2     2      0
                          _I2C_Start
                           _I2C_Stop
                      _I2C_WriteByte
                      _SSD1306_CtrlW
 ---------------------------------------------------------------------------------
 (3) _OLED_WriteData                                       7     3      4    3736
                                              5 COMMON     7     3      4
                          _I2C_Start
                           _I2C_Stop
                      _I2C_WriteByte
                      _SSD1306_CtrlW
 ---------------------------------------------------------------------------------
 (3) _SSD1306_CtrlW                                        0     0      0       0
 ---------------------------------------------------------------------------------
 (3) _I2C_WriteByte                                        2     2      0     992
                                              3 COMMON     2     2      0
                         _I2C_WaitIF
                       _I2C_WaitIdle
 ---------------------------------------------------------------------------------
 (3) _I2C_Stop                                             1     1      0     938
                                              3 COMMON     1     1      0
                         _I2C_WaitIF
                       _I2C_WaitIdle
 ---------------------------------------------------------------------------------
 (3) _I2C_Start                                            1     1      0     970
                                              3 COMMON     1     1      0
                         _I2C_WaitIF
                       _I2C_WaitIdle
 ---------------------------------------------------------------------------------
 (4) _I2C_WaitIdle                                         3     1      2     402
                                              0 COMMON     3     1      2
 ---------------------------------------------------------------------------------
 (4) _I2C_WaitIF                                           3     1      2     478
                                              0 COMMON     3     1      2
 ---------------------------------------------------------------------------------
 (1) _I2C_Init                                             1     1      0       0
                                              0 COMMON     1     1      0
                    _I2C_ClearErrors
 ---------------------------------------------------------------------------------
 (2) _I2C_ClearErrors                                      0     0      0       0
 ---------------------------------------------------------------------------------
 (1) _ADC_Read_Averaged                                   12    10      2     852
                                             13 BANK0     12    10      2
                            ___lldiv
 ---------------------------------------------------------------------------------
 (1) ___lldiv                                             14     6      8     618
                                             12 COMMON     1     1      0
                                              0 BANK0     13     5      8
                             ___lmul (ARG)
 ---------------------------------------------------------------------------------
 (1) _ADC_Init                                             0     0      0       0
 ---------------------------------------------------------------------------------
 Estimated maximum stack depth 4
 ---------------------------------------------------------------------------------

 Call Graph Graphs:

 _main (ROOT)
   _ADC_Init
   _ADC_Read_Averaged
     ___lldiv
       ___lmul (ARG)
   _I2C_Init
     _I2C_ClearErrors
   _OLED_Clear
     _OLED_WriteData
       _I2C_Start
         _I2C_WaitIF
         _I2C_WaitIdle
       _I2C_Stop
         _I2C_WaitIF
         _I2C_WaitIdle
       _I2C_WriteByte
         _I2C_WaitIF
         _I2C_WaitIdle
       _SSD1306_CtrlW
     _OLED_YX
       _OLED_Command
         _I2C_Start
         _I2C_Stop
         _I2C_WriteByte
         _SSD1306_CtrlW
     _memset
   _OLED_Init
     _OLED_Clear
     _OLED_Command
   _OLED_Printf_Line
     _OLED_UpdateLine
       _OLED_WriteData
       _OLED_YX
     ___aldiv
     ___almod
     ___awdiv
     ___awmod
     ___lldiv
     ___llmod
     ___lwdiv
     ___lwmod
     _memcpy
     _memset
     _strcmp
     _strcpy
   _OLED_SetOrientation
     _OLED_Command
   ___awdiv
   ___lldiv
   ___lmul
   _initMain
     _ADC_ConfigurePin
     _internal_32

 Address spaces:
Name               Size   Autos  Total    Cost      Usage
BIGRAM             7F0      0       0       0        0.0%
NULL                 0      0       0       0        0.0%
CODE                 0      0       0       0        0.0%
BITCOMMON            E      0       0       1        0.0%
BITSFR0              0      0       0       1        0.0%
SFR0                 0      0       0       1        0.0%
COMMON               E      E       E       2      100.0%
BITSFR1              0      0       0       2        0.0%
SFR1                 0      0       0       2        0.0%
BITSFR2              0      0       0       3        0.0%
SFR2                 0      0       0       3        0.0%
STACK                0      0       0       3        0.0%
BITBANK0            50      0       0       4        0.0%
BITSFR3              0      0       0       4        0.0%
SFR3                 0      0       0       4        0.0%
BANK0               50     46      46       5       87.5%
BITSFR4              0      0       0       5        0.0%
SFR4                 0      0       0       5        0.0%
BITBANK1            50      0       0       6        0.0%
BITSFR5              0      0       0       6        0.0%
SFR5                 0      0       0       6        0.0%
BANK1               50     47      47       7       88.8%
BITSFR6              0      0       0       7        0.0%
SFR6                 0      0       0       7        0.0%
BITBANK2            50      0       0       8        0.0%
BITSFR7              0      0       0       8        0.0%
SFR7                 0      0       0       8        0.0%
BANK2               50      0       0       9        0.0%
BITSFR8              0      0       0       9        0.0%
SFR8                 0      0       0       9        0.0%
BITBANK3            50      0       0      10        0.0%
BITSFR9              0      0       0      10        0.0%
SFR9                 0      0       0      10        0.0%
BANK3               50      0       0      11        0.0%
BITSFR10             0      0       0      11        0.0%
SFR10                0      0       0      11        0.0%
BITBANK4            50      0       0      12        0.0%
BITSFR11             0      0       0      12        0.0%
SFR11                0      0       0      12        0.0%
BANK4               50      0       0      13        0.0%
BITSFR12             0      0       0      13        0.0%
SFR12                0      0       0      13        0.0%
BITSFR13             0      0       0      14        0.0%
SFR13                0      0       0      14        0.0%
ABS                  0      0       0      14        0.0%
BITBANK5            50      0       0      15        0.0%
BITSFR14             0      0       0      15        0.0%
SFR14                0      0       0      15        0.0%
BANK5               50      0       0      16        0.0%
BITSFR15             0      0       0      16        0.0%
SFR15                0      0       0      16        0.0%
BITBANK6            50      0       0      17        0.0%
BITSFR16             0      0       0      17        0.0%
SFR16                0      0       0      17        0.0%
BANK6               50      0       0      18        0.0%
BITSFR17             0      0       0      18        0.0%
SFR17                0      0       0      18        0.0%
BITBANK7            50      0       0      19        0.0%
BITSFR18             0      0       0      19        0.0%
SFR18                0      0       0      19        0.0%
BANK7               50      0       0      20        0.0%
BITSFR19             0      0       0      20        0.0%
SFR19                0      0       0      20        0.0%
BITBANK8            50      0       0      21        0.0%
BITSFR20             0      0       0      21        0.0%
SFR20                0      0       0      21        0.0%
BANK8               50      0       0      22        0.0%
BITSFR21             0      0       0      22        0.0%
SFR21                0      0       0      22        0.0%
BITBANK9            50      0       0      23        0.0%
BITSFR22             0      0       0      23        0.0%
SFR22                0      0       0      23        0.0%
BANK9               50      0       0      24        0.0%
BITSFR23             0      0       0      24        0.0%
SFR23                0      0       0      24        0.0%
BITBANK10           50      0       0      25        0.0%
BITSFR24             0      0       0      25        0.0%
SFR24                0      0       0      25        0.0%
BANK10              50      0       0      26        0.0%
BITSFR25             0      0       0      26        0.0%
SFR25                0      0       0      26        0.0%
BITBANK11           50      0       0      27        0.0%
BITSFR26             0      0       0      27        0.0%
SFR26                0      0       0      27        0.0%
BITSFR27             0      0       0      28        0.0%
SFR27                0      0       0      28        0.0%
DATA                 0      0       0      28        0.0%
BANK11              50      0       0      29        0.0%
BITSFR28             0      0       0      29        0.0%
SFR28                0      0       0      29        0.0%
BITBANK12           50      0       0      30        0.0%
BITSFR29             0      0       0      30        0.0%
SFR29                0      0       0      30        0.0%
BANK12              50      0       0      31        0.0%
BITSFR30             0      0       0      31        0.0%
SFR30                0      0       0      31        0.0%
BITBANK13           50      0       0      32        0.0%
BITSFR31             0      0       0      32        0.0%
SFR31                0      0       0      32        0.0%
BANK13              50      0       0      33        0.0%
BITBANK14           50      0       0      34        0.0%
BANK14              50      0       0      35        0.0%
BITBANK15           50      0       0      36        0.0%
BANK15              40      0       0      37        0.0%
BITBANK16           50      0       0      38        0.0%
BANK16               0      0       0      39        0.0%
BITBANK17           50      0       0      40        0.0%
BANK17               0      0       0      41        0.0%
BITBANK18           50      0       0      42        0.0%
BANK18               0      0       0      43        0.0%
BITBANK19           50      0       0      44        0.0%
BANK19               0      0       0      45        0.0%
BITBANK20           50      0       0      46        0.0%
BANK20               0      0       0      47        0.0%
BITBANK21           50      0       0      48        0.0%
BANK21               0      0       0      49        0.0%
BITBANK22           50      0       0      50        0.0%
BANK22               0      0       0      51        0.0%
BITBANK23           50      0       0      52        0.0%
BANK23               0      0       0      53        0.0%
BITBANK24           50      0       0      54        0.0%
BANK24               0      0       0      55        0.0%
BITBANK25           20      0       0      56        0.0%
BANK25               0      0       0      57        0.0%


Microchip Technology PIC Macro Assembler V2.46 build 20240104201356 
Symbol Table                                                                                   Fri Dec 26 02:37:42 2025

           _ADC_ConfigurePin 0101                  _SSPSTATbits 0214                           l32 0C11  
                         l41 0CCF                           l26 0C4A                           l35 0BDE  
                         l28 0C66                           l60 0DB6                           l45 0CDF  
                         l61 0DD7                           l46 0CF4                           l62 0DC9  
                         l47 0CF1                           l55 0C97                           l63 0DD1  
                         l56 0CAB                           l57 0CA9                 ___awdiv@sign 0076  
  OLED_Printf_Line@last_text 26F0                          l201 0DA5                          l130 0103  
                        l211 0FA1                          l140 0130                          l132 0108  
                        l141 0135                          l133 010D                          l150 0186  
                        l230 0246                          l134 0112                          l142 0165  
                        l207 0FAC                          l135 0117                          l224 0046  
                        l136 011C                          l145 0BF1                          l137 0121  
                        l138 0126                          l155 01D2                          l227 0C88  
                        l235 0F5C                          l139 012B                          l163 02D5  
                        l149 0184                          l262 07F1                          l158 0F0F  
                        l239 0D4A                          l520 0350                          l530 03CC  
                        l197 0BD7                          l533 0259                          l621 0FFF  
                        l543 02C1                          l608 0100                          l369 0BE7  
                        l491 00A1                          l469 0E0A                          l735 0E7A  
                        l745 0E3E                          l923 0C48                          l931 0D77  
                        l685 0EC4                          l917 0D1E                          l937 0C2C  
               ___awmod@sign 0076                          wreg 0009                         l2101 0DAF  
                       l2111 0DC3                         l2103 0DB4                         l2041 0C51  
                       l2201 0C71                         l2043 0C59                         l2035 0C49  
                       l2051 0CAD                         l2123 0DD2                         l2107 0DB8  
                       l2131 0D79                         l2203 0C77                         l2211 0C38  
                       l2301 0099                         l2045 0C65                         l2037 0C4F  
                       l2053 0CB4                         l2061 0CC2                         l2117 0DCE  
                       l2109 0DBB                         l2141 0D8F                         l2133 0D7D  
                       l2205 0C7C                         l2213 0C3C                         l2221 013A  
                       l2215 0BD8                         l2063 0CCE                         l2055 0CB8  
                       l2071 0CDD                         l2119 0DCF                         l2127 0BD6  
                       l2207 0C2D                         l2311 0354                         l2049 0CAC  
                       l2161 0F64                         l2153 0D9E                         l2145 0D93  
                       l2137 0D83                         l2209 0C32                         l2241 0F51  
                       l2321 0376                         l2313 035F                         l2305 033D  
                       l2401 00CF                         l2217 0102                         l2059 0CBA  
                       l2083 0CF3                         l2075 0CE3                         l2067 0CD0  
                       l2171 0F7A                         l2163 0F68                         l2147 0D98  
                       l2139 0D8A                         l2243 0F56                         l2235 0F11  
                       l2251 0D2C                         l2331 03A6                         l2323 0381  
                       l2315 0363                         l2307 033F                         l2411 00EC  
                       l2403 00D3                         l3107 0142                         l2227 0BDF  
                       l2077 0CEB                         l2069 0CD8                         l2093 0C9B  
                       l2157 0F5D                         l2237 0F2E                         l2229 0F10  
                       l2245 0D20                         l2341 03C4                         l2333 03A7  
                       l2325 0385                         l2317 036B                         l2309 0343  
                       l2405 00E2                         l2413 00F2                         l2421 0FAD  
                       l2501 0E76                         l2261 0D6A                         l2253 0D4C  
                       l3109 0038                         l2095 0CA3                         l2087 0C89  
                       l2183 0F89                         l2175 0F7E                         l2167 0F6E  
                       l2239 0F33                         l2335 03AE                         l2327 038C  
                       l2319 0373                         l2351 025D                         l2415 00F7  
                       l2407 00E6                         l2431 0FBD                         l2423 0FAE  
                       l2511 0E19                         l2271 0CFE                         l2255 0D4D  
                       l2281 0047                         l2089 0C91                         l2193 0F9D  
                       l2185 0F8C                         l2177 0F83                         l2169 0F75  
                       l2249 0D27                         l2329 039E                         l2337 03B4  
                       l2361 0282                         l2353 0268                         l2345 0247  
                       l2417 00FC                         l2409 00E7                         l2441 0FD4  
                       l2433 0FC2                         l2425 0FB2                         l2521 0E34  
                       l2513 0E1D                         l2505 0E0B                         l2273 0D04  
                       l2257 0D55                         l2265 0C12                         l2601 0EFF  
                       l2291 0071                         l2283 0058                         l2531 0C04  
                       l2099 0DA7                         l2187 0F97                         l2339 03B9  
                       l2371 02AE                         l2363 0294                         l2355 0270  
                       l2347 0248                         l2443 0FD8                         l2435 0FC8  
                       l2451 0FF1                         l2427 0FB7                         l2515 0E21  
                       l2507 0E11                         l2523 0E3A                         l2275 0D08  
                       l2259 0D62                         l2267 0C16                         l2611 0F09  
                       l2603 0F01                         l2541 0BEE                         l2293 0083  
                       l2285 005B                         l2533 0C06                         l2621 01E3  
                       l2373 02B9                         l2365 029C                         l2357 0273  
                       l2349 024C                         l2381 00A7                         l2453 0FF6  
                       l2445 0FE2                         l2437 0FCB                         l2429 0FB9  
                       l2461 0E83                         l2517 0E2B                         l2509 0E14  
                       l2277 0D0E                         l2269 0CF5                         l2701 03F9  
                       l2613 0F0B                         l2605 0F02                         l2295 008B  
                       l2287 0066                         l2551 0181                         l2543 0168  
                       l2535 0C09                         l2527 0BFE                         l2199 0C68  
                       l2631 01F7                         l2623 01E7                         l2615 01D3  
                       l2367 02A3                         l2359 027E                         l2391 00BB  
                       l2383 00AC                         l2455 0FFB                         l2447 0FE6  
                       l2439 0FD0                         l2471 0EAF                         l2463 0E86  
                       l2519 0E2F                         l2279 0D12                         l2711 0413  
                       l2703 03FF                         l2607 0F07                         l2537 0BE8  
                       l2297 008C                         l2289 006A                         l2561 01B5  
                       l2553 018A                         l2545 0170                         l2529 0C03  
                       l2641 020B                         l2633 01FB                         l2625 01EB  
                       l2617 01DB                         l2369 02A9                         l2393 00BD  
                       l2385 00AE                         l2377 00A2                         l2449 0FEB  
                       l2473 0EB6                         l2465 0E91                         l2481 0E41  
                       l2801 05BB                         l2721 0442                         l2713 0414  
                       l2705 0403                         l2609 0F08                         l2539 0BED  
                       l2299 0093                         l2555 01A6                         l2547 017C  
                       l2651 021F                         l2643 020F                         l2635 01FF  
                       l2627 01EF                         l2619 01DF                         l2395 00C3  
                       l2387 00B2                         l2379 00A3                         l2467 0E95  
                       l2475 0EBC                         l2459 0E7B                         l2491 0E57  
                       l2483 0E47                         l2811 05EA                         l2803 05C1  
                       l2731 0464                         l2723 0449                         l2715 0426  
                       l2707 0408                         l2571 0ED2                         l2557 01AA  
                       l2549 017D                         l2661 0233                         l2653 0223  
                       l2645 0213                         l2637 0203                         l2629 01F3  
                       l2397 00C6                         l2389 00B7                         l2469 0EA7  
                       l2493 0E66                         l2485 0E4A                         l2821 060E  
                       l2813 05F0                         l2805 05C2                         l2741 049A  
                       l2733 046E                         l2725 0452                         l2717 042C  
                       l2709 040E                         l2581 0ED9                         l2573 0ED4  
                       l2565 0EC5                         l2559 01AF                         l2663 0237  
                       l2655 0227                         l2647 0217                         l2639 0207  
                       l2399 00CB                         l2495 0E6A                         l2487 0E4F  
                       l2479 0E3F                         l2911 0774                         l2903 0738  
                       l2831 0625                         l2823 0615                         l2815 05F7  
                       l2807 05D4                         l2751 04E4                         l2743 04A0  
                       l2735 0479                         l2727 0458                         l2719 043C  
                       l2671 0007                         l2591 0EE9                         l2583 0EDC  
                       l2575 0ED5                         l2567 0EC8                         l2665 023B  
                       l2657 022B                         l2649 021B                         l2497 0E6B  
                       l2489 0E53                         l2921 07C3                         l2913 077A  
                       l2905 0751                         l2841 0648                         l2833 062E  
                       l2825 061B                         l2817 0600                         l2809 05DA  
                       l2761 050D                         l2753 04EA                         l2745 04CC  
                       l2737 047F                         l2729 0460                         l2673 000C  
                       l2593 0EEE                         l2585 0EDE                         l2577 0ED6  
                       l2569 0ED0                         l2667 023F                         l2659 022F  
                       l2499 0E70                         l2923 07C9                         l2915 0780  
                       l2907 076F                         l2851 066C                         l2843 064E  
                       l2835 0636                         l2827 061C                         l2819 0606  
                       l2771 0528                         l2763 0511                         l2747 04D4  
                       l2739 0480                         l2755 04F2                         l2675 0015  
                       l2683 0030                         l2931 0DD8                         l2595 0EF3  
                       l2587 0EDF                         l2579 0ED8                         l2669 0243  
                       l2917 0786                         l2925 07CF                         l2909 0771  
                       l2861 068A                         l2853 0672                         l2845 0655  
                       l2837 063E                         l2829 061F                         l2781 0573  
                       l2773 0542                         l2765 0516                         l2757 04FC  
                       l2749 04DB                         l2693 03E0                         l2677 001E  
                       l2941 0E02                         l2933 0DE0                         l2597 0EF7  
                       l2589 0EE4                         l2927 07D7                         l2919 0788  
                       l2871 06B2                         l2863 0693                         l2855 0678  
                       l2847 065E                         l2839 0643                         l2791 0595  
                       l2783 057C                         l2775 0548                         l2767 051C  
                       l2759 0507                         l2695 03E3                         l2679 0027  
                       l2935 0DE4                         l2599 0EFC                         l2929 07EC  
                       l2865 069D                         l2857 0681                         l2849 0664  
                       l2793 05A0                         l2785 0582                         l2777 0564  
                       l2769 0527                         l2697 03ED                         l2689 03CF  
                       l2937 0DEC                         l2891 06FB                         l2875 06B8  
                       l2867 06A5                         l2859 0685                         l2795 05A9  
                       l2779 056C                         l2787 058A                         l2699 03F2  
                       l2883 06CD                         l2939 0DF3                         l2877 06BD  
                       l2869 06AB                         l2789 058F                         l2797 05AF  
                       l2885 06E8                         l2893 0701                         l2895 070A  
                       l2879 06C3                         l2799 05B4                         l2887 06EE  
                       l2991 02C8                         l2897 0712                         l2889 06F7  
                       l2993 02CB                         l2899 0716                         l2995 02CF  
                       l2987 02C2                         l2997 0321                         l2989 02C5  
                       l2999 032D                         STR_1 0B00              __end_of_OLED_YX 0C89  
                       u2000 0058                         u2001 0057                         u2020 006A  
                       u2021 0069                         u2110 0385                         u2015 005C  
                       u2111 0384                  ?_OLED_Clear 0070                         u2040 0083  
                       u2041 0082                         u2105 0377                         u2130 039E  
                       u2210 0282                         u3010 07D7                         u2035 006B  
                       u2131 039D                         u2211 0281                         u3011 07D6  
                       u2060 0099                         u2220 0294                         u2300 00D3  
                       u3020 07EC                         u2061 0098                         u2045 007F  
                       u2125 0386                         u2221 0293                         u2205 0274  
                       u2301 00D2                         u3021 07EB                         u3005 0792  
                       u2150 03B4                         u2070 0343                         u3030 0DE4  
                       u2055 008D                         u2151 03B3                         u2135 039A  
                       u2071 0342                         u3031 0DE3                         u2160 03B9  
                       u2080 0354                         u2240 02A9                         u2320 00E2  
                       u2400 0FD8                         u2161 03B8                         u2145 03A8  
                       u2081 0353                         u2241 02A8                         u2225 0290  
                       u2321 00E1                         u2401 0FD7                         u3025 07E8  
                       u2090 0373                         u2250 02AE                         u2170 024C  
                       u2410 0FE2                         u2091 0372                         u2251 02AD  
                       u2235 029D                         u2171 024B                         u2315 00D4  
                       u2411 0FE1                         u1700 0CB8                         u2180 025D  
                       u2340 00F2                         u2260 00A7                         u2500 0EBC  
                       u3060 0E02                         u1701 0CB7                         u2181 025C  
                       u2341 00F1                         u2325 00DE                         u2261 00A6  
                       u2501 0EBB                         u3061 0E01                         u3045 0DED  
                       u1710 0CCE                         u2190 0270                         u2350 00F7  
                       u2270 00B2                         u2430 0FF1                         u2510 0E47  
                       u1711 0CCD                         u2191 026F                         u2351 00F6  
                       u2335 00E8                         u2271 00B1                         u2431 0FF0  
                       u2415 0FDE                         u2511 0E46                         u3055 0DF4  
                       u1720 0CDD                         u1800 0D8F                         u2280 00C3  
                       u2440 0FF6                         u2360 0FB2                         u2600 0E21  
                       u1721 0CDC                         u1801 0D8E                         u2281 00C2  
                       u2441 0FF5                         u2425 0FE7                         u2361 0FB1  
                       u2601 0E20                         u1730 0CF0                         u1810 0D9D  
                       u2370 0FBD                         u2450 0E83                         u2530 0E57  
                       u2610 0E2B                         u1731 0CEF                         u1811 0D9C  
                       u2371 0FBC                         u2451 0E82                         u2531 0E56  
                       u2611 0E2A                         u1740 0C96                         u1820 0F63  
                       u1900 0C48                         u2380 0FC8                         u2700 0442  
                       u1741 0C95                         u1821 0F62                         u1901 0C47  
                       u2381 0FC7                         u2525 0E4B                         u2701 0441  
                       u1670 0C4F                         u1750 0CA8                         u1830 0F6D  
                       u2470 0E95                         u2550 0E66                         u2630 0E3A  
                       u2710 0448                         u1671 0C4E                         u1751 0CA7  
                       u1831 0F6C                         u2295 00C7                         u2471 0E94  
                       u2551 0E65                         u2631 0E39                         u2615 0E27  
                       u2711 0447                         u3327 0333                         u2640 018A  
                       u1680 0C65                         u1760 0DB4                         u1840 0F7A  
                       u2480 0EA7                         u2800 0572                         u2720 045F  
                       u2641 0189                         u1681 0C64                         u1761 0DB3  
                       u1841 0F79                         u2481 0EA6                         u2465 0E87  
                       u2545 0E58                         u2625 0E30                         u2801 0571  
                       u2721 045E                         u3337 0ECB                         u2650 01A6  
                       u1690 0CB4                         u1770 0DC8                         u1850 0F88  
                       u1930 0F5C                         u2570 0E76                         u2810 0589  
                       u2730 046E                         u2651 01A5                         u1691 0CB3  
                       u1771 0DC7                         u1851 0F87                         u1931 0F5B  
                       u1915 0F16                         u3347 01D6                         u2395 0FCC  
                       u2571 0E75                         u2555 0E62                         u2811 0588  
                       u2731 046D                         u2660 01B5                         u1780 0DCE  
                       u1860 0F9C                         u1940 0D26                         u2580 0E11  
                       u2900 0693                         u2820 05F0                         u2740 04D4  
                       u2661 01B4                         u3357 0CBD                         u1781 0DCD  
                       u1861 0F9B                         u1925 0F38                         u1941 0D25  
                       u2485 0EA3                         u2565 0E6C                         u2581 0E10  
                       u2901 0692                         u2821 05EF                         u2741 04D3  
                       u1870 0FAB                         u1790 0D82                         u2910 069C  
                       u2830 05F6                         u2750 04DA                         u2670 03DF  
                       u2655 01A2                         u3367 0C54                         u1871 0FAA  
                       u1791 0D81                         u2495 0EB0                         u2911 069B  
                       u2831 05F5                         u2751 04D9                         u2671 03DE  
                       u1960 0D62                         u2920 070A                         u2840 060D  
                       u2760 04F1                         u2680 03ED                         u3377 0C0C  
                       u1961 0D61                         u2921 0709                         u2841 060C  
                       u2761 04F0                         u2681 03EC                         u1970 0D6A  
                       u2930 0712                         u2850 0625                         u2770 04FC  
                       u2690 0403                         u3387 017E                         u1875 0FA7  
                       u1955 0D31                         u2595 0E15                         u1971 0D69  
                       u2931 0711                         u2851 0624                         u2771 04FB  
                       u2691 0402                         u1980 0C2C                         u2780 0511  
                       u3397 01A7                         u1885 0C6B                         u1981 0C2B  
                       u2781 0510                         u1990 0D1E                         u2950 0737  
                       u2870 064E                         u2790 056C                         u1895 0C7F  
                       u1991 0D1D                         u2951 0736                         u2871 064D  
                       u2791 056B                         u2880 0654                         u2945 071B  
                       u2881 0653                         u2865 0644                         u2890 066B  
                       u2891 066A                         u2980 0780                         u2981 077F  
                       u2965 073E                         u2990 0786                         u2991 0785  
                       u2975 0757                         _SCS0 04C8                         _SCS1 04C9  
          OLED_Printf_Line@i 00D7            OLED_Printf_Line@p 00CE                         _main 02C2  
           __end_of_I2C_Init 0C12                         fsr0h 0005                         fsr1h 0007  
                       indf0 0000                         fsr0l 0004                         indf1 0001  
                       fsr1l 0006                         btemp 007E             __end_of_I2C_Stop 0CAC  
           __end_of_ADC_Init 0BF2                         start 0003             ??_OLED_WriteData 0079  
            __end_of___aldiv 03CD              __end_of___almod 02C2                        ?_main 0070  
            __end_of___awdiv 0101              __end_of___awmod 1000              __end_of___lldiv 00A2  
            ___awdiv@divisor 0070              __end_of___llmod 0EC5                        _IRCF0 04CB  
                      _IRCF1 04CC                        _IRCF2 04CD                        _IRCF3 04CE  
            __end_of___lwdiv 0E7B              __end_of___lwmod 0E3F              ___awdiv@counter 0075  
        ___lmul@multiplicand 0074           OLED_Printf_Line@ch 00D6           OLED_Printf_Line@ap 00E3  
          ??_OLED_UpdateLine 0020            __end_of_I2C_Start 0CF5                  _BatteryIcon 1000  
               _I2C_WaitIdle 0CAC         I2C_WaitIF@timeout_ms 0070                        status 0003  
       OLED_SetOrientation@o 0079                        wtemp0 007E                 ?_internal_32 0070  
            __initialization 07F2                 __end_of_main 033D             __end_of_OledFont 0B00  
                     ??_main 005C                    ??_OLED_YX 0078             ___llmod@dividend 0074  
                     _ADRESH 009C                       _ADRESL 009B             ___awdiv@dividend 0072  
               ??_I2C_WaitIF 0072            __end_of_OLED_Init 0247                ?_OLED_Command 0070  
                     _SPLLEN 04CF                       _SSPADD 0212                       _SSPBUF 0211  
          ?_OLED_Printf_Line 002D           ??_OLED_Printf_Line 0031                       ___lmul 0DD8  
                  ??___aldiv 0078                    ??___almod 0078      ADC_ConfigurePin@channel 0072  
                  ??___awdiv 0074                    ??___awmod 0074                    ??___lldiv 007C  
                  ??___llmod 0078          OLED_Printf_Line@col 00CD          OLED_Printf_Line@buf 00A0  
                  ??___lwdiv 0074          OLED_Printf_Line@fmt 002D          OLED_Printf_Line@dst 00E6  
                  ??___lwmod 0074          OLED_Printf_Line@val 00E0          OLED_Printf_Line@src 00E4  
           __end_of_initMain 0F10          OLED_Printf_Line@str 005B                       _memcpy 0CF5  
                     _memset 0C2D                  OLED_Clear@p 007C             ___awdiv@quotient 0077  
            ___awmod@divisor 0070              ___awmod@counter 0075                  OLED_YX@page 0079  
         __end_of_I2C_WaitIF 0C67                       main@mV 005E                       _strcmp 0D4B  
                     _strcpy 0C12                    ?_I2C_Init 0070                    ?_I2C_Stop 0070  
                  ?_ADC_Init 0070     __end_of_ADC_ConfigurePin 0166               ??_OLED_Command 0075  
            I2C_WriteByte@st 0074      __end_of__initialization 07FD               __pcstackCOMMON 0070  
              _I2C_WriteByte 0DA6                   ??_I2C_Init 0070                   ??_I2C_Stop 0073  
                 ??_ADC_Init 0070  __end_of_OLED_SetOrientation 0047                 ??_OLED_Clear 0020  
              _SSD1306_CtrlW 0BD6                   __pmaintext 02C2               ?_I2C_WriteByte 0070  
                    ?___lmul 0070            _ADC_Read_Averaged 0166           ?_ADC_Read_Averaged 002D  
                    ?_memcpy 0070                      ?_memset 0070               ___lmul@product 0078  
                 I2C_Stop@st 0073              _OLED_UpdateLine 0D1F           __end_of_OLED_Clear 0F5D  
                    ?_strcmp 0070                      ?_strcpy 0070      OLED_Printf_Line@val_701 00CF  
    OLED_Printf_Line@val_710 00CB      OLED_Printf_Line@val_704 00DC      OLED_Printf_Line@val_707 00D3  
        ??_ADC_Read_Averaged 002F                      _OLED_YX 0C67                      _PPSLOCK 0E0F  
                    _SSPCON2 0216       I2C_WaitIdle@timeout_ms 0070                    ?_initMain 0070  
                  _I2C_Start 0CD0               ?_SSD1306_CtrlW 0070    __end_of_ADC_Read_Averaged 01D3  
                    ___aldiv 033D                      ___almod 0247                      ___awdiv 00A2  
                    ___awmod 0FAD                      ___lldiv 0047                      ___llmod 0E7B  
          ??_I2C_ClearErrors 0070                      ___lwdiv 0E3F                      ___lwmod 0E0B  
       __end_of_OLED_Command 0DA6                      __ptext1 0EC5                      __ptext2 0BDF  
                    __ptext3 0101                      __ptext4 0DD8                      __ptext5 0006  
                    __ptext6 03CD                      __ptext7 0C12                      __ptext8 0D4B  
                    __ptext9 0CF5         OLED_Printf_Line@line 00E2         OLED_Printf_Line@temp 0053  
           ___awmod@dividend 0072             ___aldiv@dividend 0074                      main@adc 0062  
                    clrloop0 0BF3         end_of_initialization 07FD                      memcpy@d 0076  
                    memcpy@n 0074                      memcpy@s 0078                   ??_initMain 0073  
                    memset@c 0072                      memset@n 0074                      memset@p 0076  
                  _OLED_Init 01D3                   ?_I2C_Start 0070            OLED_WriteData@len 0077  
            ??_I2C_WriteByte 0073              ___lldiv@divisor 0020              ___lldiv@counter 002C  
    __end_of_OLED_UpdateLine 0D4B             ___aldiv@quotient 0022                      strcmp@l 0073  
                    strcmp@r 0070                      strcpy@d 0075          OLED_UpdateLine@page 007C  
                  _TRISAbits 008C                    _TRISBbits 008D                    _TRISCbits 008E  
            OLED_YX@col_char 0077                    _RXPPSbits 0E24            ?_ADC_ConfigurePin 0070  
            OLED_Command@cmd 0075              ??_SSD1306_CtrlW 0070           ??_ADC_ConfigurePin 0070  
                 ?_OLED_Init 0070               __end_of___lmul 0E0B               __end_of_memcpy 0D1F  
             __end_of_memset 0C49               __end_of_strcmp 0D78               __end_of_strcpy 0C2D  
        start_initialization 07F2              ___llmod@divisor 0070                  ??_I2C_Start 0073  
            ___llmod@counter 0079     ADC_Read_Averaged@channel 0033             ?_OLED_UpdateLine 0070  
                   ??___lmul 0078                   OLED_YX@col 007A     ADC_Read_Averaged@samples 002D  
                   ??_memcpy 0076                     ??_memset 0076                   memset@dest 0070  
                   ??_strcmp 0072                     ??_strcpy 0073                  __pbssBIGRAM 24F0  
                  ___latbits 0003                     ?_OLED_YX 0077                __pcstackBANK0 0020  
              __pcstackBANK1 00A0                ?_I2C_WaitIdle 0070                 _OLED_Command 0D78  
            _I2C_ClearErrors 0BD8                ??_internal_32 0070                  ??_OLED_Init 007D  
              _screen_buffer 24F0             ___lwdiv@dividend 0072                     ?___aldiv 0070  
                   ?___almod 0070                     ?___awdiv 0070                     ?___awmod 0070  
                   ?___lldiv 0020                     ?___llmod 0070                     ?___lwdiv 0070  
                   ?___lwmod 0070       OLED_Printf_Line@nibble 00D5             _OLED_Printf_Line 03CD  
           ___almod@dividend 0074                  I2C_Start@st 0073                     _I2C_Init 0BFE  
                   _I2C_Stop 0C89                     _ADC_Init 0BE8               _OLED_WriteData 0F5D  
           ___lwdiv@quotient 0075               ??_I2C_WaitIdle 0072              ___aldiv@divisor 0070  
            ___aldiv@counter 0020                    clear_ram0 0BF2     OLED_Printf_Line@temp_702 003D  
   OLED_Printf_Line@temp_711 00C6     OLED_Printf_Line@temp_705 0048     OLED_Printf_Line@temp_708 00C0  
           OLED_WriteData@st 007B                     _PIR1bits 0011                     _PIR2bits 0012  
        __end_of_internal_32 0BE8                   _ADCON0bits 009D                   _ADCON1bits 009E  
     __end_of_OLED_WriteData 0FAD               OLED_Command@st 0076                    main@tempC 0064  
    __end_of_I2C_ClearErrors 0BDF            ___lmul@multiplier 0070                   _I2C_WaitIF 0C49  
                   _OledFont 0800                    memcpy@tmp 007A        __end_of_I2C_WriteByte 0DD8  
                 _ANSELAbits 018C                   _ANSELBbits 018D                   _ANSELCbits 018E  
            ?_OLED_WriteData 0075        OLED_Printf_Line@i_703 00D8        OLED_Printf_Line@i_712 00DB  
      OLED_Printf_Line@i_706 00D9        OLED_Printf_Line@i_709 00DA              ___lwdiv@divisor 0070  
            ___lwdiv@counter 0077                     __ptext10 0E0B                     __ptext11 0E3F  
                   __ptext20 0C2D                     __ptext12 0E7B                     __ptext21 0C67  
                   __ptext13 0FAD                     __ptext30 0BFE                     __ptext22 0D78  
                   __ptext14 00A2                     __ptext31 0BD8                     __ptext23 0F5D  
                   __ptext15 0247                     __ptext32 0166                     __ptext24 0BD6  
                   __ptext16 033D                     __ptext33 0047                     __ptext25 0DA6  
                   __ptext17 0D1F                     __ptext34 0BE8                     __ptext26 0C89  
                   __ptext18 01D3                     __ptext27 0CD0                     __ptext19 0F10  
                   __ptext28 0CAC                     __ptext29 0C49              ___almod@divisor 0070  
            ___almod@counter 0079                   strcpy@dest 0070                     _initMain 0EC5  
              _SSPDATPPSbits 0E21                  _internal_32 0BDF        __end_of_SSD1306_CtrlW 0BD8  
                 _RB2PPSbits 0E9A              OLED_WriteData@i 0079                   _RC4PPSbits 0EA4  
              _SSPCLKPPSbits 0E20                   _RC5PPSbits 0EA5         __end_of_I2C_WaitIdle 0CD0  
        _OLED_SetOrientation 0006                     memcpy@d1 0070                     memcpy@s1 0072  
           ?_I2C_ClearErrors 0070                  ?_I2C_WaitIF 0070                   _OLED_Clear 0F10  
       _OLED_Printf_Line$714 0059           OLED_WriteData@data 0075     __end_of_OLED_Printf_Line 07F2  
           ___lwmod@dividend 0072         ?_OLED_SetOrientation 0070             ___lldiv@dividend 0024  
                  strcpy@src 0072                  _PPSLOCKbits 0E0F                __pstringtext1 1000  
              __pstringtext2 0800                __pstringtext3 0000             ___lldiv@quotient 0028  
            ___lwmod@divisor 0070              ___lwmod@counter 0075                 ___aldiv@sign 0021  
                _SSPCON1bits 0215                  _SSPCON2bits 0216         ADC_Read_Averaged@sum 0034  
               ___almod@sign 007A        ??_OLED_SetOrientation 0077            I2C_WriteByte@data 0073  
                 _SSPCONbits 0215           ADC_Read_Averaged@i 0038          __end_of_BatteryIcon 100A  
