

Microchip MPLAB XC8 Assembler V2.45 build 20230818022343 
                                                                                               Tue Dec 05 15:00:19 2023

Microchip MPLAB XC8 C Compiler v2.45 (Free license) build 20230818022343 Og1 
     1                           	processor	16F1719
     2                           	pagewidth 120
     3                           	opt	flic
     4                           	psect	idataBANK0,global,class=CODE,delta=2,noexec
     5                           	psect	idataBANK1,global,class=CODE,delta=2,noexec
     6                           	psect	cinit,global,class=CODE,merge=1,delta=2
     7                           	psect	bssBANK0,global,class=BANK0,space=1,delta=1,noexec
     8                           	psect	dataBANK0,global,class=BANK0,space=1,delta=1,noexec
     9                           	psect	dataBANK1,global,class=BANK1,space=1,delta=1,noexec
    10                           	psect	inittext,global,class=CODE,delta=2
    11                           	psect	cstackCOMMON,global,class=COMMON,space=1,delta=1,noexec
    12                           	psect	cstackBANK0,global,class=BANK0,space=1,delta=1,noexec
    13                           	psect	maintext,global,class=CODE,merge=1,split=1,delta=2
    14                           	psect	text1,local,class=CODE,merge=1,delta=2
    15                           	psect	text2,local,class=CODE,merge=1,delta=2
    16                           	psect	text3,local,class=CODE,merge=1,delta=2,group=1
    17                           	psect	text4,local,class=CODE,merge=1,delta=2
    18                           	psect	text5,local,class=CODE,merge=1,delta=2,group=1
    19                           	psect	text6,local,class=CODE,merge=1,delta=2,group=1
    20                           	psect	text7,local,class=CODE,merge=1,delta=2,group=1
    21                           	psect	text8,local,class=CODE,merge=1,delta=2,group=1
    22                           	psect	text9,local,class=CODE,merge=1,delta=2,group=1
    23                           	psect	text10,local,class=CODE,merge=1,delta=2
    24                           	psect	intentry,global,class=CODE,delta=2
    25                           	psect	config,global,abs,ovrld,class=CONFIG,space=4,delta=2,noexec
    26                           	dabs	1,0x7E,2
    27     0000                     
    28                           ; Generated 06/07/2023 GMT
    29                           ; 
    30                           ; Copyright © 2023, Microchip Technology Inc. and its subsidiaries ("Microchip")
    31                           ; All rights reserved.
    32                           ; 
    33                           ; This software is developed by Microchip Technology Inc. and its subsidiaries ("Microch
      +                          ip").
    34                           ; 
    35                           ; Redistribution and use in source and binary forms, with or without modification, are
    36                           ; permitted provided that the following conditions are met:
    37                           ; 
    38                           ;     1. Redistributions of source code must retain the above copyright notice, this lis
      +                          t of
    39                           ;        conditions and the following disclaimer.
    40                           ; 
    41                           ;     2. Redistributions in binary form must reproduce the above copyright notice, this 
      +                          list
    42                           ;        of conditions and the following disclaimer in the documentation and/or other
    43                           ;        materials provided with the distribution. Publication is not required when
    44                           ;        this file is used in an embedded application.
    45                           ; 
    46                           ;     3. Microchip's name may not be used to endorse or promote products derived from th
      +                          is
    47                           ;        software without specific prior written permission.
    48                           ; 
    49                           ; THIS SOFTWARE IS PROVIDED BY MICROCHIP "AS IS" AND ANY EXPRESS OR IMPLIED WARRANTIES,
    50                           ; INCLUDING, BUT NOT LIMITED TO, THE IMPLIED WARRANTIES OF MERCHANTABILITY AND FITNESS F
      +                          OR
    51                           ; PURPOSE ARE DISCLAIMED.  IN NO EVENT SHALL MICROCHIP BE LIABLE FOR ANY DIRECT, INDIREC
      +                          T,
    52                           ; INCIDENTAL, SPECIAL, EXEMPLARY, OR CONSEQUENTIAL DAMAGES (INCLUDING BUT NOT LIMITED TO
    53                           ; PROCUREMENT OF SUBSTITUTE GOODS OR SERVICES; LOSS OF USE, DATA OR PROFITS; OR BUSINESS
    54                           ; INTERRUPTION) HOWSOEVER CAUSED AND ON ANY THEORY OF LIABILITY, WHETHER IN CONTRACT, ST
      +                          RICT
    55                           ; LIABILITY, OR TORT (INCLUDING NEGLIGENCE OR OTHERWISE) ARISING IN ANY WAY OUT OF THE U
      +                          SE OF
    56                           ; THIS SOFTWARE, EVEN IF ADVISED OF THE POSSIBILITY OF SUCH DAMAGE.
    57                           ; 
    58                           ; 
    59                           ; Code-generator required, PIC16F1719 Definitions
    60                           ; 
    61                           ; SFR Addresses
    62     0000                     	;# 
    63     0001                     	;# 
    64     0002                     	;# 
    65     0003                     	;# 
    66     0004                     	;# 
    67     0005                     	;# 
    68     0006                     	;# 
    69     0007                     	;# 
    70     0008                     	;# 
    71     0009                     	;# 
    72     000A                     	;# 
    73     000B                     	;# 
    74     000C                     	;# 
    75     000D                     	;# 
    76     000E                     	;# 
    77     000F                     	;# 
    78     0010                     	;# 
    79     0011                     	;# 
    80     0012                     	;# 
    81     0013                     	;# 
    82     0015                     	;# 
    83     0016                     	;# 
    84     0016                     	;# 
    85     0017                     	;# 
    86     0018                     	;# 
    87     0019                     	;# 
    88     001A                     	;# 
    89     001B                     	;# 
    90     001C                     	;# 
    91     008C                     	;# 
    92     008D                     	;# 
    93     008E                     	;# 
    94     008F                     	;# 
    95     0090                     	;# 
    96     0091                     	;# 
    97     0092                     	;# 
    98     0093                     	;# 
    99     0095                     	;# 
   100     0096                     	;# 
   101     0097                     	;# 
   102     0098                     	;# 
   103     0099                     	;# 
   104     009A                     	;# 
   105     009B                     	;# 
   106     009B                     	;# 
   107     009C                     	;# 
   108     009D                     	;# 
   109     009E                     	;# 
   110     009F                     	;# 
   111     010C                     	;# 
   112     010D                     	;# 
   113     010E                     	;# 
   114     010F                     	;# 
   115     0110                     	;# 
   116     0111                     	;# 
   117     0112                     	;# 
   118     0113                     	;# 
   119     0114                     	;# 
   120     0115                     	;# 
   121     0116                     	;# 
   122     0117                     	;# 
   123     0118                     	;# 
   124     0119                     	;# 
   125     011A                     	;# 
   126     011B                     	;# 
   127     011B                     	;# 
   128     011C                     	;# 
   129     018C                     	;# 
   130     018D                     	;# 
   131     018E                     	;# 
   132     018F                     	;# 
   133     0190                     	;# 
   134     0191                     	;# 
   135     0191                     	;# 
   136     0192                     	;# 
   137     0193                     	;# 
   138     0193                     	;# 
   139     0194                     	;# 
   140     0195                     	;# 
   141     0196                     	;# 
   142     0197                     	;# 
   143     0199                     	;# 
   144     0199                     	;# 
   145     0199                     	;# 
   146     019A                     	;# 
   147     019A                     	;# 
   148     019A                     	;# 
   149     019B                     	;# 
   150     019B                     	;# 
   151     019B                     	;# 
   152     019B                     	;# 
   153     019B                     	;# 
   154     019C                     	;# 
   155     019C                     	;# 
   156     019C                     	;# 
   157     019D                     	;# 
   158     019D                     	;# 
   159     019D                     	;# 
   160     019E                     	;# 
   161     019E                     	;# 
   162     019E                     	;# 
   163     019F                     	;# 
   164     019F                     	;# 
   165     019F                     	;# 
   166     019F                     	;# 
   167     019F                     	;# 
   168     020C                     	;# 
   169     020D                     	;# 
   170     020E                     	;# 
   171     020F                     	;# 
   172     0210                     	;# 
   173     0211                     	;# 
   174     0211                     	;# 
   175     0212                     	;# 
   176     0212                     	;# 
   177     0213                     	;# 
   178     0213                     	;# 
   179     0214                     	;# 
   180     0214                     	;# 
   181     0215                     	;# 
   182     0215                     	;# 
   183     0215                     	;# 
   184     0215                     	;# 
   185     0216                     	;# 
   186     0216                     	;# 
   187     0217                     	;# 
   188     0217                     	;# 
   189     028C                     	;# 
   190     028D                     	;# 
   191     028E                     	;# 
   192     028F                     	;# 
   193     0290                     	;# 
   194     0291                     	;# 
   195     0291                     	;# 
   196     0292                     	;# 
   197     0293                     	;# 
   198     0293                     	;# 
   199     0298                     	;# 
   200     0298                     	;# 
   201     0299                     	;# 
   202     029A                     	;# 
   203     029A                     	;# 
   204     029E                     	;# 
   205     030C                     	;# 
   206     030D                     	;# 
   207     030E                     	;# 
   208     030F                     	;# 
   209     0310                     	;# 
   210     038C                     	;# 
   211     038D                     	;# 
   212     038E                     	;# 
   213     038F                     	;# 
   214     0390                     	;# 
   215     0391                     	;# 
   216     0392                     	;# 
   217     0393                     	;# 
   218     0394                     	;# 
   219     0395                     	;# 
   220     0396                     	;# 
   221     0397                     	;# 
   222     0398                     	;# 
   223     0399                     	;# 
   224     039D                     	;# 
   225     039E                     	;# 
   226     039F                     	;# 
   227     0415                     	;# 
   228     0416                     	;# 
   229     0417                     	;# 
   230     041C                     	;# 
   231     041D                     	;# 
   232     041E                     	;# 
   233     0498                     	;# 
   234     0498                     	;# 
   235     0499                     	;# 
   236     049A                     	;# 
   237     049B                     	;# 
   238     049B                     	;# 
   239     049C                     	;# 
   240     049D                     	;# 
   241     049E                     	;# 
   242     049F                     	;# 
   243     0511                     	;# 
   244     0515                     	;# 
   245     0617                     	;# 
   246     0618                     	;# 
   247     0619                     	;# 
   248     0619                     	;# 
   249     061A                     	;# 
   250     061B                     	;# 
   251     061C                     	;# 
   252     061C                     	;# 
   253     0691                     	;# 
   254     0692                     	;# 
   255     0693                     	;# 
   256     0694                     	;# 
   257     0695                     	;# 
   258     0696                     	;# 
   259     0697                     	;# 
   260     0698                     	;# 
   261     0699                     	;# 
   262     069A                     	;# 
   263     069B                     	;# 
   264     069C                     	;# 
   265     069D                     	;# 
   266     069E                     	;# 
   267     069F                     	;# 
   268     0E0F                     	;# 
   269     0E10                     	;# 
   270     0E11                     	;# 
   271     0E12                     	;# 
   272     0E13                     	;# 
   273     0E14                     	;# 
   274     0E15                     	;# 
   275     0E17                     	;# 
   276     0E20                     	;# 
   277     0E21                     	;# 
   278     0E22                     	;# 
   279     0E24                     	;# 
   280     0E25                     	;# 
   281     0E28                     	;# 
   282     0E29                     	;# 
   283     0E2A                     	;# 
   284     0E2B                     	;# 
   285     0E90                     	;# 
   286     0E91                     	;# 
   287     0E92                     	;# 
   288     0E93                     	;# 
   289     0E94                     	;# 
   290     0E95                     	;# 
   291     0E96                     	;# 
   292     0E97                     	;# 
   293     0E98                     	;# 
   294     0E99                     	;# 
   295     0E9A                     	;# 
   296     0E9B                     	;# 
   297     0E9C                     	;# 
   298     0E9D                     	;# 
   299     0E9E                     	;# 
   300     0E9F                     	;# 
   301     0EA0                     	;# 
   302     0EA1                     	;# 
   303     0EA2                     	;# 
   304     0EA3                     	;# 
   305     0EA4                     	;# 
   306     0EA5                     	;# 
   307     0EA6                     	;# 
   308     0EA7                     	;# 
   309     0EA8                     	;# 
   310     0EA9                     	;# 
   311     0EAA                     	;# 
   312     0EAB                     	;# 
   313     0EAC                     	;# 
   314     0EAD                     	;# 
   315     0EAE                     	;# 
   316     0EAF                     	;# 
   317     0EB0                     	;# 
   318     0EB1                     	;# 
   319     0EB2                     	;# 
   320     0F0F                     	;# 
   321     0F10                     	;# 
   322     0F11                     	;# 
   323     0F12                     	;# 
   324     0F13                     	;# 
   325     0F14                     	;# 
   326     0F15                     	;# 
   327     0F16                     	;# 
   328     0F17                     	;# 
   329     0F18                     	;# 
   330     0F19                     	;# 
   331     0F1A                     	;# 
   332     0F1B                     	;# 
   333     0F1C                     	;# 
   334     0F1D                     	;# 
   335     0F1E                     	;# 
   336     0F1F                     	;# 
   337     0F20                     	;# 
   338     0F21                     	;# 
   339     0F22                     	;# 
   340     0F23                     	;# 
   341     0F24                     	;# 
   342     0F25                     	;# 
   343     0F26                     	;# 
   344     0F27                     	;# 
   345     0F28                     	;# 
   346     0F29                     	;# 
   347     0F2A                     	;# 
   348     0F2B                     	;# 
   349     0F2C                     	;# 
   350     0F2D                     	;# 
   351     0F2E                     	;# 
   352     0F2F                     	;# 
   353     0F30                     	;# 
   354     0F31                     	;# 
   355     0F32                     	;# 
   356     0F33                     	;# 
   357     0F34                     	;# 
   358     0F35                     	;# 
   359     0F36                     	;# 
   360     0F37                     	;# 
   361     0FE4                     	;# 
   362     0FE5                     	;# 
   363     0FE6                     	;# 
   364     0FE7                     	;# 
   365     0FE8                     	;# 
   366     0FE9                     	;# 
   367     0FEA                     	;# 
   368     0FEB                     	;# 
   369     0FED                     	;# 
   370     0FEE                     	;# 
   371     0FEF                     	;# 
   372     0000                     	;# 
   373     0001                     	;# 
   374     0002                     	;# 
   375     0003                     	;# 
   376     0004                     	;# 
   377     0005                     	;# 
   378     0006                     	;# 
   379     0007                     	;# 
   380     0008                     	;# 
   381     0009                     	;# 
   382     000A                     	;# 
   383     000B                     	;# 
   384     000C                     	;# 
   385     000D                     	;# 
   386     000E                     	;# 
   387     000F                     	;# 
   388     0010                     	;# 
   389     0011                     	;# 
   390     0012                     	;# 
   391     0013                     	;# 
   392     0015                     	;# 
   393     0016                     	;# 
   394     0016                     	;# 
   395     0017                     	;# 
   396     0018                     	;# 
   397     0019                     	;# 
   398     001A                     	;# 
   399     001B                     	;# 
   400     001C                     	;# 
   401     008C                     	;# 
   402     008D                     	;# 
   403     008E                     	;# 
   404     008F                     	;# 
   405     0090                     	;# 
   406     0091                     	;# 
   407     0092                     	;# 
   408     0093                     	;# 
   409     0095                     	;# 
   410     0096                     	;# 
   411     0097                     	;# 
   412     0098                     	;# 
   413     0099                     	;# 
   414     009A                     	;# 
   415     009B                     	;# 
   416     009B                     	;# 
   417     009C                     	;# 
   418     009D                     	;# 
   419     009E                     	;# 
   420     009F                     	;# 
   421     010C                     	;# 
   422     010D                     	;# 
   423     010E                     	;# 
   424     010F                     	;# 
   425     0110                     	;# 
   426     0111                     	;# 
   427     0112                     	;# 
   428     0113                     	;# 
   429     0114                     	;# 
   430     0115                     	;# 
   431     0116                     	;# 
   432     0117                     	;# 
   433     0118                     	;# 
   434     0119                     	;# 
   435     011A                     	;# 
   436     011B                     	;# 
   437     011B                     	;# 
   438     011C                     	;# 
   439     018C                     	;# 
   440     018D                     	;# 
   441     018E                     	;# 
   442     018F                     	;# 
   443     0190                     	;# 
   444     0191                     	;# 
   445     0191                     	;# 
   446     0192                     	;# 
   447     0193                     	;# 
   448     0193                     	;# 
   449     0194                     	;# 
   450     0195                     	;# 
   451     0196                     	;# 
   452     0197                     	;# 
   453     0199                     	;# 
   454     0199                     	;# 
   455     0199                     	;# 
   456     019A                     	;# 
   457     019A                     	;# 
   458     019A                     	;# 
   459     019B                     	;# 
   460     019B                     	;# 
   461     019B                     	;# 
   462     019B                     	;# 
   463     019B                     	;# 
   464     019C                     	;# 
   465     019C                     	;# 
   466     019C                     	;# 
   467     019D                     	;# 
   468     019D                     	;# 
   469     019D                     	;# 
   470     019E                     	;# 
   471     019E                     	;# 
   472     019E                     	;# 
   473     019F                     	;# 
   474     019F                     	;# 
   475     019F                     	;# 
   476     019F                     	;# 
   477     019F                     	;# 
   478     020C                     	;# 
   479     020D                     	;# 
   480     020E                     	;# 
   481     020F                     	;# 
   482     0210                     	;# 
   483     0211                     	;# 
   484     0211                     	;# 
   485     0212                     	;# 
   486     0212                     	;# 
   487     0213                     	;# 
   488     0213                     	;# 
   489     0214                     	;# 
   490     0214                     	;# 
   491     0215                     	;# 
   492     0215                     	;# 
   493     0215                     	;# 
   494     0215                     	;# 
   495     0216                     	;# 
   496     0216                     	;# 
   497     0217                     	;# 
   498     0217                     	;# 
   499     028C                     	;# 
   500     028D                     	;# 
   501     028E                     	;# 
   502     028F                     	;# 
   503     0290                     	;# 
   504     0291                     	;# 
   505     0291                     	;# 
   506     0292                     	;# 
   507     0293                     	;# 
   508     0293                     	;# 
   509     0298                     	;# 
   510     0298                     	;# 
   511     0299                     	;# 
   512     029A                     	;# 
   513     029A                     	;# 
   514     029E                     	;# 
   515     030C                     	;# 
   516     030D                     	;# 
   517     030E                     	;# 
   518     030F                     	;# 
   519     0310                     	;# 
   520     038C                     	;# 
   521     038D                     	;# 
   522     038E                     	;# 
   523     038F                     	;# 
   524     0390                     	;# 
   525     0391                     	;# 
   526     0392                     	;# 
   527     0393                     	;# 
   528     0394                     	;# 
   529     0395                     	;# 
   530     0396                     	;# 
   531     0397                     	;# 
   532     0398                     	;# 
   533     0399                     	;# 
   534     039D                     	;# 
   535     039E                     	;# 
   536     039F                     	;# 
   537     0415                     	;# 
   538     0416                     	;# 
   539     0417                     	;# 
   540     041C                     	;# 
   541     041D                     	;# 
   542     041E                     	;# 
   543     0498                     	;# 
   544     0498                     	;# 
   545     0499                     	;# 
   546     049A                     	;# 
   547     049B                     	;# 
   548     049B                     	;# 
   549     049C                     	;# 
   550     049D                     	;# 
   551     049E                     	;# 
   552     049F                     	;# 
   553     0511                     	;# 
   554     0515                     	;# 
   555     0617                     	;# 
   556     0618                     	;# 
   557     0619                     	;# 
   558     0619                     	;# 
   559     061A                     	;# 
   560     061B                     	;# 
   561     061C                     	;# 
   562     061C                     	;# 
   563     0691                     	;# 
   564     0692                     	;# 
   565     0693                     	;# 
   566     0694                     	;# 
   567     0695                     	;# 
   568     0696                     	;# 
   569     0697                     	;# 
   570     0698                     	;# 
   571     0699                     	;# 
   572     069A                     	;# 
   573     069B                     	;# 
   574     069C                     	;# 
   575     069D                     	;# 
   576     069E                     	;# 
   577     069F                     	;# 
   578     0E0F                     	;# 
   579     0E10                     	;# 
   580     0E11                     	;# 
   581     0E12                     	;# 
   582     0E13                     	;# 
   583     0E14                     	;# 
   584     0E15                     	;# 
   585     0E17                     	;# 
   586     0E20                     	;# 
   587     0E21                     	;# 
   588     0E22                     	;# 
   589     0E24                     	;# 
   590     0E25                     	;# 
   591     0E28                     	;# 
   592     0E29                     	;# 
   593     0E2A                     	;# 
   594     0E2B                     	;# 
   595     0E90                     	;# 
   596     0E91                     	;# 
   597     0E92                     	;# 
   598     0E93                     	;# 
   599     0E94                     	;# 
   600     0E95                     	;# 
   601     0E96                     	;# 
   602     0E97                     	;# 
   603     0E98                     	;# 
   604     0E99                     	;# 
   605     0E9A                     	;# 
   606     0E9B                     	;# 
   607     0E9C                     	;# 
   608     0E9D                     	;# 
   609     0E9E                     	;# 
   610     0E9F                     	;# 
   611     0EA0                     	;# 
   612     0EA1                     	;# 
   613     0EA2                     	;# 
   614     0EA3                     	;# 
   615     0EA4                     	;# 
   616     0EA5                     	;# 
   617     0EA6                     	;# 
   618     0EA7                     	;# 
   619     0EA8                     	;# 
   620     0EA9                     	;# 
   621     0EAA                     	;# 
   622     0EAB                     	;# 
   623     0EAC                     	;# 
   624     0EAD                     	;# 
   625     0EAE                     	;# 
   626     0EAF                     	;# 
   627     0EB0                     	;# 
   628     0EB1                     	;# 
   629     0EB2                     	;# 
   630     0F0F                     	;# 
   631     0F10                     	;# 
   632     0F11                     	;# 
   633     0F12                     	;# 
   634     0F13                     	;# 
   635     0F14                     	;# 
   636     0F15                     	;# 
   637     0F16                     	;# 
   638     0F17                     	;# 
   639     0F18                     	;# 
   640     0F19                     	;# 
   641     0F1A                     	;# 
   642     0F1B                     	;# 
   643     0F1C                     	;# 
   644     0F1D                     	;# 
   645     0F1E                     	;# 
   646     0F1F                     	;# 
   647     0F20                     	;# 
   648     0F21                     	;# 
   649     0F22                     	;# 
   650     0F23                     	;# 
   651     0F24                     	;# 
   652     0F25                     	;# 
   653     0F26                     	;# 
   654     0F27                     	;# 
   655     0F28                     	;# 
   656     0F29                     	;# 
   657     0F2A                     	;# 
   658     0F2B                     	;# 
   659     0F2C                     	;# 
   660     0F2D                     	;# 
   661     0F2E                     	;# 
   662     0F2F                     	;# 
   663     0F30                     	;# 
   664     0F31                     	;# 
   665     0F32                     	;# 
   666     0F33                     	;# 
   667     0F34                     	;# 
   668     0F35                     	;# 
   669     0F36                     	;# 
   670     0F37                     	;# 
   671     0FE4                     	;# 
   672     0FE5                     	;# 
   673     0FE6                     	;# 
   674     0FE7                     	;# 
   675     0FE8                     	;# 
   676     0FE9                     	;# 
   677     0FEA                     	;# 
   678     0FEB                     	;# 
   679     0FED                     	;# 
   680     0FEE                     	;# 
   681     0FEF                     	;# 
   682                           
   683                           	psect	idataBANK0
   684     068F                     __pidataBANK0:
   685                           
   686                           ;initializer for _Durations
   687     068F  347D               	retlw	125
   688     0690  347D               	retlw	125
   689     0691  347D               	retlw	125
   690     0692  347D               	retlw	125
   691     0693  347D               	retlw	125
   692     0694  347D               	retlw	125
   693     0695  347D               	retlw	125
   694     0696  347D               	retlw	125
   695     0697  347D               	retlw	125
   696     0698  347D               	retlw	125
   697     0699  347D               	retlw	125
   698     069A  347D               	retlw	125
   699     069B  347D               	retlw	125
   700     069C  347D               	retlw	125
   701     069D  347D               	retlw	125
   702     069E  347D               	retlw	125
   703     069F  347D               	retlw	125
   704     06A0  347D               	retlw	125
   705     06A1  347D               	retlw	125
   706     06A2  347D               	retlw	125
   707     06A3  347D               	retlw	125
   708     06A4  347D               	retlw	125
   709     06A5  347D               	retlw	125
   710     06A6  347D               	retlw	125
   711     06A7  347D               	retlw	125
   712                           
   713                           	psect	idataBANK1
   714     0604                     __pidataBANK1:
   715                           
   716                           ;initializer for _Notes
   717     0604  3493               	retlw	147
   718     0605  3402               	retlw	2
   719     0606  3493               	retlw	147
   720     0607  3402               	retlw	2
   721     0608  3400               	retlw	0
   722     0609  3400               	retlw	0
   723     060A  3493               	retlw	147
   724     060B  3402               	retlw	2
   725     060C  3400               	retlw	0
   726     060D  3400               	retlw	0
   727     060E  340B               	retlw	11
   728     060F  3402               	retlw	2
   729     0610  3493               	retlw	147
   730     0611  3402               	retlw	2
   731     0612  3400               	retlw	0
   732     0613  3400               	retlw	0
   733     0614  3410               	retlw	16
   734     0615  3403               	retlw	3
   735     0616  3400               	retlw	0
   736     0617  3400               	retlw	0
   737     0618  3488               	retlw	136
   738     0619  3401               	retlw	1
   739     061A  340B               	retlw	11
   740     061B  3402               	retlw	2
   741     061C  3400               	retlw	0
   742     061D  3400               	retlw	0
   743     061E  3437               	retlw	55
   744     061F  3401               	retlw	1
   745     0620  34D2               	retlw	210
   746     0621  3401               	retlw	1
   747     0622  3400               	retlw	0
   748     0623  3400               	retlw	0
   749     0624  34D2               	retlw	210
   750     0625  3401               	retlw	1
   751     0626  3400               	retlw	0
   752     0627  3400               	retlw	0
   753     0628  3472               	retlw	114
   754     0629  3401               	retlw	1
   755     062A  34D2               	retlw	210
   756     062B  3401               	retlw	1
   757     062C  3400               	retlw	0
   758     062D  3400               	retlw	0
   759     062E  342A               	retlw	42
   760     062F  3402               	retlw	2
   761     0630  3400               	retlw	0
   762     0631  3400               	retlw	0
   763     0632  340B               	retlw	11
   764     0633  3402               	retlw	2
   765     0634  3400               	retlw	0
   766     0635  3400               	retlw	0
   767     0016                     _TMR1	set	22
   768     0011                     _PIR1bits	set	17
   769     000B                     _INTCONbits	set	11
   770     0018                     _T1CONbits	set	24
   771     0016                     _TMR1L	set	22
   772     0017                     _TMR1H	set	23
   773     0091                     _PIE1bits	set	145
   774     008D                     _TRISBbits	set	141
   775     04CF                     _SPLLEN	set	1231
   776     04CE                     _IRCF3	set	1230
   777     04CD                     _IRCF2	set	1229
   778     04CC                     _IRCF1	set	1228
   779     04CB                     _IRCF0	set	1227
   780     04C9                     _SCS1	set	1225
   781     04C8                     _SCS0	set	1224
   782     010D                     _LATBbits	set	269
   783     018D                     _ANSELB	set	397
   784                           
   785                           	psect	cinit
   786     001C                     start_initialization:	
   787                           ; #config settings
   788                           
   789     001C                     __initialization:
   790                           
   791                           ; Initialize objects allocated to BANK0
   792     001C  308F               	movlw	low __pidataBANK0
   793     001D  0084               	movwf	4
   794     001E  3086               	movlw	(high __pidataBANK0)| (0+128)
   795     001F  0085               	movwf	5
   796     0020  3052               	movlw	low __pdataBANK0
   797     0021  0086               	movwf	6
   798     0022  3000               	movlw	high __pdataBANK0
   799     0023  0087               	movwf	7
   800     0024  3019               	movlw	25
   801     0025  3186  26C5  3180   	fcall	init_ram
   802                           
   803                           ; Initialize objects allocated to BANK1
   804     0028  3004               	movlw	low __pidataBANK1
   805     0029  0084               	movwf	4
   806     002A  3086               	movlw	(high __pidataBANK1)| (0+128)
   807     002B  0085               	movwf	5
   808     002C  30A0               	movlw	low __pdataBANK1
   809     002D  0086               	movwf	6
   810     002E  3000               	movlw	high __pdataBANK1
   811     002F  0087               	movwf	7
   812     0030  3032               	movlw	50
   813     0031  3186  26C5  3180   	fcall	init_ram
   814                           
   815                           ; Clear objects allocated to BANK0
   816     0034  01EB               	clrf	__pbssBANK0& (0+127)
   817     0035  01EC               	clrf	(__pbssBANK0+1)& (0+127)
   818     0036                     end_of_initialization:	
   819                           ;End of C runtime variable initialization code
   820                           
   821     0036                     __end_of__initialization:
   822     0036  107E               	bcf	int$flags,0	;clear compiler interrupt flag (level 1)
   823     0037  0020               	movlb	0
   824     0038  3185  2DB6         	ljmp	_main	;jump to C main() function
   825                           
   826                           	psect	bssBANK0
   827     006B                     __pbssBANK0:
   828     006B                     _TIMER_L:
   829     006B                     	ds	1
   830     006C                     _TIMER_H:
   831     006C                     	ds	1
   832                           
   833                           	psect	dataBANK0
   834     0052                     __pdataBANK0:
   835     0052                     _Durations:
   836     0052                     	ds	25
   837                           
   838                           	psect	dataBANK1
   839     00A0                     __pdataBANK1:
   840     00A0                     _Notes:
   841     00A0                     	ds	50
   842                           
   843                           	psect	inittext
   844     06C5                     init_ram:
   845     06C5  00FE               	movwf	btemp
   846     06C6                     initloop:
   847     06C6  0012               	moviw fsr0++
   848     06C7  001E               	movwi fsr1++
   849     06C8  0BFE               	decfsz	btemp,f
   850     06C9  2EC6               	goto	initloop
   851     06CA  3400               	retlw	0
   852                           
   853                           	psect	cstackCOMMON
   854     0070                     __pcstackCOMMON:
   855     0070                     ?_internal_32:
   856     0070                     ??_internal_32:	
   857                           ; 1 bytes @ 0x0
   858                           
   859     0070                     ?_Delay_Ms:	
   860                           ; 1 bytes @ 0x0
   861                           
   862     0070                     ?_initMain:	
   863                           ; 1 bytes @ 0x0
   864                           
   865     0070                     ??_initMain:	
   866                           ; 1 bytes @ 0x0
   867                           
   868     0070                     ?_main:	
   869                           ; 1 bytes @ 0x0
   870                           
   871     0070                     ?_isr:	
   872                           ; 1 bytes @ 0x0
   873                           
   874     0070                     ??_isr:	
   875                           ; 1 bytes @ 0x0
   876                           
   877     0070                     ?___wmul:	
   878                           ; 1 bytes @ 0x0
   879                           
   880     0070                     ?___fladd:	
   881                           ; 2 bytes @ 0x0
   882                           
   883     0070                     ?___xxtofl:	
   884                           ; 4 bytes @ 0x0
   885                           
   886     0070                     Delay_Ms@s:	
   887                           ; 4 bytes @ 0x0
   888                           
   889     0070                     ___wmul@multiplier:	
   890                           ; 2 bytes @ 0x0
   891                           
   892     0070                     ___fladd@b:	
   893                           ; 2 bytes @ 0x0
   894                           
   895     0070                     ___xxtofl@val:	
   896                           ; 4 bytes @ 0x0
   897                           
   898                           
   899                           ; 4 bytes @ 0x0
   900     0070                     	ds	2
   901     0072                     ??_Delay_Ms:
   902     0072                     ___wmul@multiplicand:	
   903                           ; 1 bytes @ 0x2
   904                           
   905                           
   906                           ; 2 bytes @ 0x2
   907     0072                     	ds	1
   908     0073                     Delay_Ms@j:
   909                           
   910                           ; 2 bytes @ 0x3
   911     0073                     	ds	1
   912     0074                     ??___wmul:
   913     0074                     ??___xxtofl:	
   914                           ; 1 bytes @ 0x4
   915                           
   916     0074                     ___wmul@product:	
   917                           ; 1 bytes @ 0x4
   918                           
   919     0074                     ___fladd@a:	
   920                           ; 2 bytes @ 0x4
   921                           
   922                           
   923                           ; 4 bytes @ 0x4
   924     0074                     	ds	4
   925     0078                     ___fladd@signs:
   926     0078                     ___xxtofl@sign:	
   927                           ; 1 bytes @ 0x8
   928                           
   929                           
   930                           ; 1 bytes @ 0x8
   931     0078                     	ds	1
   932     0079                     ___fladd@aexp:
   933     0079                     ___xxtofl@exp:	
   934                           ; 1 bytes @ 0x9
   935                           
   936                           
   937                           ; 1 bytes @ 0x9
   938     0079                     	ds	1
   939     007A                     ___fladd@bexp:
   940     007A                     ___xxtofl@arg:	
   941                           ; 1 bytes @ 0xA
   942                           
   943                           
   944                           ; 4 bytes @ 0xA
   945     007A                     	ds	1
   946     007B                     ___fladd@grs:
   947                           
   948                           ; 1 bytes @ 0xB
   949     007B                     	ds	3
   950     007E                     ??___flsub:
   951                           
   952                           	psect	cstackBANK0
   953     0020                     __pcstackBANK0:	
   954                           ; 1 bytes @ 0xE
   955                           
   956     0020                     ??___fladd:
   957     0020                     ?___fldiv:	
   958                           ; 1 bytes @ 0x0
   959                           
   960     0020                     ___fldiv@a:	
   961                           ; 4 bytes @ 0x0
   962                           
   963                           
   964                           ; 4 bytes @ 0x0
   965     0020                     	ds	4
   966     0024                     ___fldiv@b:
   967                           
   968                           ; 4 bytes @ 0x4
   969     0024                     	ds	4
   970     0028                     ??___fldiv:
   971     0028                     ?___flsub:	
   972                           ; 1 bytes @ 0x8
   973                           
   974     0028                     ___flsub@a:	
   975                           ; 4 bytes @ 0x8
   976                           
   977                           
   978                           ; 4 bytes @ 0x8
   979     0028                     	ds	4
   980     002C                     ___flsub@b:
   981                           
   982                           ; 4 bytes @ 0xC
   983     002C                     	ds	1
   984     002D                     ___fldiv@rem:
   985                           
   986                           ; 4 bytes @ 0xD
   987     002D                     	ds	4
   988     0031                     ___fldiv@sign:
   989                           
   990                           ; 1 bytes @ 0x11
   991     0031                     	ds	1
   992     0032                     ___fldiv@new_exp:
   993                           
   994                           ; 2 bytes @ 0x12
   995     0032                     	ds	2
   996     0034                     ___fldiv@grs:
   997                           
   998                           ; 4 bytes @ 0x14
   999     0034                     	ds	4
  1000     0038                     ___fldiv@bexp:
  1001                           
  1002                           ; 1 bytes @ 0x18
  1003     0038                     	ds	1
  1004     0039                     ___fldiv@aexp:
  1005                           
  1006                           ; 1 bytes @ 0x19
  1007     0039                     	ds	1
  1008     003A                     ?___fltol:
  1009     003A                     ___fltol@f1:	
  1010                           ; 4 bytes @ 0x1A
  1011                           
  1012                           
  1013                           ; 4 bytes @ 0x1A
  1014     003A                     	ds	4
  1015     003E                     ??___fltol:
  1016                           
  1017                           ; 1 bytes @ 0x1E
  1018     003E                     	ds	4
  1019     0042                     ___fltol@sign1:
  1020                           
  1021                           ; 1 bytes @ 0x22
  1022     0042                     	ds	1
  1023     0043                     ___fltol@exp1:
  1024                           
  1025                           ; 1 bytes @ 0x23
  1026     0043                     	ds	1
  1027     0044                     ?_Sound_Play:
  1028     0044                     Sound_Play@freq:	
  1029                           ; 1 bytes @ 0x24
  1030                           
  1031                           
  1032                           ; 2 bytes @ 0x24
  1033     0044                     	ds	2
  1034     0046                     Sound_Play@duration:
  1035                           
  1036                           ; 2 bytes @ 0x26
  1037     0046                     	ds	2
  1038     0048                     ??_Sound_Play:
  1039                           
  1040                           ; 1 bytes @ 0x28
  1041     0048                     	ds	3
  1042     004B                     Sound_Play@period:
  1043                           
  1044                           ; 4 bytes @ 0x2B
  1045     004B                     	ds	4
  1046     004F                     ??_main:
  1047                           
  1048                           ; 1 bytes @ 0x2F
  1049     004F                     	ds	2
  1050     0051                     main@i:
  1051                           
  1052                           ; 1 bytes @ 0x31
  1053     0051                     	ds	1
  1054                           
  1055                           	psect	maintext
  1056     05B6                     __pmaintext:	
  1057 ;;
  1058 ;;Main: autosize = 0, tempsize = 2, incstack = 0, save=0
  1059 ;;
  1060 ;; *************** function _main *****************
  1061 ;; Defined at:
  1062 ;;		line 136 in file "main.c"
  1063 ;; Parameters:    Size  Location     Type
  1064 ;;		None
  1065 ;; Auto vars:     Size  Location     Type
  1066 ;;  i               1   49[BANK0 ] unsigned char 
  1067 ;; Return value:  Size  Location     Type
  1068 ;;                  1    wreg      void 
  1069 ;; Registers used:
  1070 ;;		wreg, fsr1l, fsr1h, status,2, status,0, pclath, cstack
  1071 ;; Tracked objects:
  1072 ;;		On entry : B1F/0
  1073 ;;		On exit  : 0/0
  1074 ;;		Unchanged: 0/0
  1075 ;; Data sizes:     COMMON   BANK0   BANK1   BANK2   BANK3   BANK4   BANK5   BANK6   BANK7   BANK8   BANK9  BANK10  BANK1
      +1  BANK12  BANK13  BANK14  BANK15  BANK16  BANK17  BANK18  BANK19  BANK20  BANK21  BANK22  BANK23  BANK24  BANK25
  1076 ;;      Params:         0       0       0       0       0       0       0       0       0       0       0       0       
      +0       0       0       0       0       0       0       0       0       0       0       0       0       0       0
  1077 ;;      Locals:         0       1       0       0       0       0       0       0       0       0       0       0       
      +0       0       0       0       0       0       0       0       0       0       0       0       0       0       0
  1078 ;;      Temps:          0       2       0       0       0       0       0       0       0       0       0       0       
      +0       0       0       0       0       0       0       0       0       0       0       0       0       0       0
  1079 ;;      Totals:         0       3       0       0       0       0       0       0       0       0       0       0       
      +0       0       0       0       0       0       0       0       0       0       0       0       0       0       0
  1080 ;;Total ram usage:        3 bytes
  1081 ;; Hardware stack levels required when called: 4
  1082 ;; This function calls:
  1083 ;;		_Sound_Play
  1084 ;;		___wmul
  1085 ;;		_initMain
  1086 ;; This function is called by:
  1087 ;;		Startup code after reset
  1088 ;; This function uses a non-reentrant model
  1089 ;;
  1090                           
  1091     05B6                     _main:	
  1092                           ;psect for function _main
  1093                           
  1094     05B6                     l1592:	
  1095                           ;incstack = 0
  1096                           ; Regs used in _main: [wreg+fsr1l+fsr1h+status,2+status,0+pclath+cstack]
  1097                           
  1098                           
  1099                           ;main.c: 137:     initMain();
  1100     05B6  3186  26A8  3185   	fcall	_initMain
  1101     05B9                     l1594:
  1102                           
  1103                           ;main.c: 141:        for (i = 0; i < 25; i++)
  1104     05B9  0020               	movlb	0	; select bank0
  1105     05BA  01D1               	clrf	main@i
  1106     05BB                     l1600:
  1107                           
  1108                           ;main.c: 142:        {;main.c: 143:            Sound_Play(Notes[i], 400*Durations[i]);
  1109     05BB  3551               	lslf	main@i,w
  1110     05BC  3EA0               	addlw	(low (_Notes| 0))& (0+255)
  1111     05BD  0086               	movwf	6
  1112     05BE  0187               	clrf	7
  1113     05BF  3F40               	moviw [0]fsr1
  1114     05C0  00C4               	movwf	Sound_Play@freq
  1115     05C1  3F41               	moviw [1]fsr1
  1116     05C2  00C5               	movwf	Sound_Play@freq+1
  1117     05C3  0851               	movf	main@i,w
  1118     05C4  3E52               	addlw	(low (_Durations| 0))& (0+255)
  1119     05C5  0086               	movwf	6
  1120     05C6  0187               	clrf	7
  1121     05C7  0801               	movf	1,w
  1122     05C8  00CF               	movwf	??_main
  1123     05C9  01D0               	clrf	??_main+1
  1124     05CA  084F               	movf	??_main,w
  1125     05CB  00F0               	movwf	___wmul@multiplier
  1126     05CC  0850               	movf	??_main+1,w
  1127     05CD  00F1               	movwf	___wmul@multiplier+1
  1128     05CE  3090               	movlw	144
  1129     05CF  00F2               	movwf	___wmul@multiplicand
  1130     05D0  3001               	movlw	1
  1131     05D1  00F3               	movwf	___wmul@multiplicand+1
  1132     05D2  3186  2656  3185   	fcall	___wmul
  1133     05D5  0871               	movf	?___wmul+1,w
  1134     05D6  0020               	movlb	0	; select bank0
  1135     05D7  00C7               	movwf	Sound_Play@duration+1
  1136     05D8  0870               	movf	?___wmul,w
  1137     05D9  00C6               	movwf	Sound_Play@duration
  1138     05DA  3183  23F0  3185   	fcall	_Sound_Play
  1139     05DD                     l1602:
  1140                           
  1141                           ;main.c: 144:            _delay((unsigned long)((100)*(32000000/4000.0)));
  1142     05DD  3005               	movlw	5
  1143     05DE  0020               	movlb	0	; select bank0
  1144     05DF  00D0               	movwf	??_main+1
  1145     05E0  300F               	movlw	15
  1146     05E1  00CF               	movwf	??_main
  1147     05E2  30F1               	movlw	241
  1148     05E3                     u2097:
  1149     05E3  0B89               	decfsz	9,f
  1150     05E4  2DE3               	goto	u2097
  1151     05E5  0BCF               	decfsz	??_main,f
  1152     05E6  2DE3               	goto	u2097
  1153     05E7  0BD0               	decfsz	??_main+1,f
  1154     05E8  2DE3               	goto	u2097
  1155     05E9                     l1604:
  1156                           
  1157                           ;main.c: 145:        }
  1158     05E9  3001               	movlw	1
  1159     05EA  0020               	movlb	0	; select bank0
  1160     05EB  00CF               	movwf	??_main
  1161     05EC  084F               	movf	??_main,w
  1162     05ED  07D1               	addwf	main@i,f
  1163     05EE                     l1606:
  1164     05EE  3019               	movlw	25
  1165     05EF  0251               	subwf	main@i,w
  1166     05F0  1C03               	skipc
  1167     05F1  2DF3               	goto	u2061
  1168     05F2  2DF4               	goto	u2060
  1169     05F3                     u2061:
  1170     05F3  2DBB               	goto	l1600
  1171     05F4                     u2060:
  1172     05F4                     l1608:
  1173                           
  1174                           ;main.c: 147:        _delay((unsigned long)((2000)*(32000000/4000.0)));
  1175     05F4  3052               	movlw	82
  1176     05F5  0020               	movlb	0	; select bank0
  1177     05F6  00D0               	movwf	??_main+1
  1178     05F7  302B               	movlw	43
  1179     05F8  00CF               	movwf	??_main
  1180     05F9  3000               	movlw	0
  1181     05FA                     u2107:
  1182     05FA  0B89               	decfsz	9,f
  1183     05FB  2DFA               	goto	u2107
  1184     05FC  0BCF               	decfsz	??_main,f
  1185     05FD  2DFA               	goto	u2107
  1186     05FE  0BD0               	decfsz	??_main+1,f
  1187     05FF  2DFA               	goto	u2107
  1188     0600  0000               	nop
  1189     0601  2DB9               	goto	l1594
  1190     0602  3180  281A         	ljmp	start
  1191     0604                     __end_of_main:
  1192                           
  1193                           	psect	text1
  1194     06A8                     __ptext1:	
  1195 ;; *************** function _initMain *****************
  1196 ;; Defined at:
  1197 ;;		line 95 in file "main.c"
  1198 ;; Parameters:    Size  Location     Type
  1199 ;;		None
  1200 ;; Auto vars:     Size  Location     Type
  1201 ;;		None
  1202 ;; Return value:  Size  Location     Type
  1203 ;;                  1    wreg      void 
  1204 ;; Registers used:
  1205 ;;		wreg, status,2, status,0, pclath, cstack
  1206 ;; Tracked objects:
  1207 ;;		On entry : 0/0
  1208 ;;		On exit  : 0/0
  1209 ;;		Unchanged: 0/0
  1210 ;; Data sizes:     COMMON   BANK0   BANK1   BANK2   BANK3   BANK4   BANK5   BANK6   BANK7   BANK8   BANK9  BANK10  BANK1
      +1  BANK12  BANK13  BANK14  BANK15  BANK16  BANK17  BANK18  BANK19  BANK20  BANK21  BANK22  BANK23  BANK24  BANK25
  1211 ;;      Params:         0       0       0       0       0       0       0       0       0       0       0       0       
      +0       0       0       0       0       0       0       0       0       0       0       0       0       0       0
  1212 ;;      Locals:         0       0       0       0       0       0       0       0       0       0       0       0       
      +0       0       0       0       0       0       0       0       0       0       0       0       0       0       0
  1213 ;;      Temps:          0       0       0       0       0       0       0       0       0       0       0       0       
      +0       0       0       0       0       0       0       0       0       0       0       0       0       0       0
  1214 ;;      Totals:         0       0       0       0       0       0       0       0       0       0       0       0       
      +0       0       0       0       0       0       0       0       0       0       0       0       0       0       0
  1215 ;;Total ram usage:        0 bytes
  1216 ;; Hardware stack levels used: 1
  1217 ;; Hardware stack levels required when called: 2
  1218 ;; This function calls:
  1219 ;;		_internal_32
  1220 ;; This function is called by:
  1221 ;;		_main
  1222 ;; This function uses a non-reentrant model
  1223 ;;
  1224                           
  1225     06A8                     _initMain:	
  1226                           ;psect for function _initMain
  1227                           
  1228     06A8                     l1560:	
  1229                           ;incstack = 0
  1230                           ; Regs used in _initMain: [wreg+status,2+status,0+pclath+cstack]
  1231                           
  1232                           
  1233                           ;main.c: 97:     internal_32();
  1234     06A8  3186  26BC  3186   	fcall	_internal_32
  1235     06AB                     l1562:
  1236                           
  1237                           ;main.c: 103:     TRISBbits.TRISB0 = 0;
  1238     06AB  0021               	movlb	1	; select bank1
  1239     06AC  100D               	bcf	13,0	;volatile
  1240     06AD                     l1564:
  1241                           
  1242                           ;main.c: 107:     ANSELB = 0;
  1243     06AD  0023               	movlb	3	; select bank3
  1244     06AE  018D               	clrf	13	;volatile
  1245     06AF                     l1566:
  1246                           
  1247                           ;main.c: 110:     T1CONbits.T1CKPS = 0b01;
  1248     06AF  0020               	movlb	0	; select bank0
  1249     06B0  0818               	movf	24,w	;volatile
  1250     06B1  39CF               	andlw	-49
  1251     06B2  3810               	iorlw	16
  1252     06B3  0098               	movwf	24	;volatile
  1253     06B4                     l1568:
  1254                           
  1255                           ;main.c: 113:     TMR1 = 0;
  1256     06B4  0196               	clrf	22	;volatile
  1257     06B5  0197               	clrf	23	;volatile
  1258     06B6                     l1570:
  1259                           
  1260                           ;main.c: 116:     T1CONbits.TMR1ON = 1;
  1261     06B6  1418               	bsf	24,0	;volatile
  1262     06B7                     l1572:
  1263                           
  1264                           ;main.c: 119:     PIE1bits.TMR1IE = 1;
  1265     06B7  0021               	movlb	1	; select bank1
  1266     06B8  1411               	bsf	17,0	;volatile
  1267     06B9                     l1574:
  1268                           
  1269                           ;main.c: 122:     INTCONbits.PEIE = 1;
  1270     06B9  170B               	bsf	11,6	;volatile
  1271     06BA                     l1576:
  1272                           
  1273                           ;main.c: 125:     (INTCONbits.GIE = 1);
  1274     06BA  178B               	bsf	11,7	;volatile
  1275     06BB                     l79:
  1276     06BB  0008               	return
  1277     06BC                     __end_of_initMain:
  1278                           
  1279                           	psect	text2
  1280     06BC                     __ptext2:	
  1281 ;; *************** function _internal_32 *****************
  1282 ;; Defined at:
  1283 ;;		line 32 in file "PIC16F1719_Internal.c"
  1284 ;; Parameters:    Size  Location     Type
  1285 ;;		None
  1286 ;; Auto vars:     Size  Location     Type
  1287 ;;		None
  1288 ;; Return value:  Size  Location     Type
  1289 ;;                  1    wreg      void 
  1290 ;; Registers used:
  1291 ;;		None
  1292 ;; Tracked objects:
  1293 ;;		On entry : 0/0
  1294 ;;		On exit  : 0/0
  1295 ;;		Unchanged: 0/0
  1296 ;; Data sizes:     COMMON   BANK0   BANK1   BANK2   BANK3   BANK4   BANK5   BANK6   BANK7   BANK8   BANK9  BANK10  BANK1
      +1  BANK12  BANK13  BANK14  BANK15  BANK16  BANK17  BANK18  BANK19  BANK20  BANK21  BANK22  BANK23  BANK24  BANK25
  1297 ;;      Params:         0       0       0       0       0       0       0       0       0       0       0       0       
      +0       0       0       0       0       0       0       0       0       0       0       0       0       0       0
  1298 ;;      Locals:         0       0       0       0       0       0       0       0       0       0       0       0       
      +0       0       0       0       0       0       0       0       0       0       0       0       0       0       0
  1299 ;;      Temps:          0       0       0       0       0       0       0       0       0       0       0       0       
      +0       0       0       0       0       0       0       0       0       0       0       0       0       0       0
  1300 ;;      Totals:         0       0       0       0       0       0       0       0       0       0       0       0       
      +0       0       0       0       0       0       0       0       0       0       0       0       0       0       0
  1301 ;;Total ram usage:        0 bytes
  1302 ;; Hardware stack levels used: 1
  1303 ;; Hardware stack levels required when called: 1
  1304 ;; This function calls:
  1305 ;;		Nothing
  1306 ;; This function is called by:
  1307 ;;		_initMain
  1308 ;; This function uses a non-reentrant model
  1309 ;;
  1310                           
  1311     06BC                     _internal_32:	
  1312                           ;psect for function _internal_32
  1313                           
  1314     06BC                     l1318:	
  1315                           ;incstack = 0
  1316                           ; Regs used in _internal_32: []
  1317                           
  1318                           
  1319                           ;PIC16F1719_Internal.c: 34:     SCS0 = 0;
  1320     06BC  0021               	movlb	1	; select bank1
  1321     06BD  1019               	bcf	25,0	;volatile
  1322                           
  1323                           ;PIC16F1719_Internal.c: 35:     SCS1 = 0;
  1324     06BE  1099               	bcf	25,1	;volatile
  1325                           
  1326                           ;PIC16F1719_Internal.c: 38:     IRCF0 = 0;
  1327     06BF  1199               	bcf	25,3	;volatile
  1328                           
  1329                           ;PIC16F1719_Internal.c: 39:     IRCF1 = 1;
  1330     06C0  1619               	bsf	25,4	;volatile
  1331                           
  1332                           ;PIC16F1719_Internal.c: 40:     IRCF2 = 1;
  1333     06C1  1699               	bsf	25,5	;volatile
  1334                           
  1335                           ;PIC16F1719_Internal.c: 41:     IRCF3 = 1;
  1336     06C2  1719               	bsf	25,6	;volatile
  1337                           
  1338                           ;PIC16F1719_Internal.c: 44:     SPLLEN = 1;
  1339     06C3  1799               	bsf	25,7	;volatile
  1340     06C4                     l17:
  1341     06C4  0008               	return
  1342     06C5                     __end_of_internal_32:
  1343                           
  1344                           	psect	text3
  1345     0656                     __ptext3:	
  1346 ;; *************** function ___wmul *****************
  1347 ;; Defined at:
  1348 ;;		line 15 in file "C:\Program Files\Microchip\xc8\v2.45\pic\sources\c99\common\Umul16.c"
  1349 ;; Parameters:    Size  Location     Type
  1350 ;;  multiplier      2    0[COMMON] unsigned int 
  1351 ;;  multiplicand    2    2[COMMON] unsigned int 
  1352 ;; Auto vars:     Size  Location     Type
  1353 ;;  product         2    4[COMMON] unsigned int 
  1354 ;; Return value:  Size  Location     Type
  1355 ;;                  2    0[COMMON] unsigned int 
  1356 ;; Registers used:
  1357 ;;		wreg, status,2, status,0
  1358 ;; Tracked objects:
  1359 ;;		On entry : 0/0
  1360 ;;		On exit  : 0/0
  1361 ;;		Unchanged: 0/0
  1362 ;; Data sizes:     COMMON   BANK0   BANK1   BANK2   BANK3   BANK4   BANK5   BANK6   BANK7   BANK8   BANK9  BANK10  BANK1
      +1  BANK12  BANK13  BANK14  BANK15  BANK16  BANK17  BANK18  BANK19  BANK20  BANK21  BANK22  BANK23  BANK24  BANK25
  1363 ;;      Params:         4       0       0       0       0       0       0       0       0       0       0       0       
      +0       0       0       0       0       0       0       0       0       0       0       0       0       0       0
  1364 ;;      Locals:         2       0       0       0       0       0       0       0       0       0       0       0       
      +0       0       0       0       0       0       0       0       0       0       0       0       0       0       0
  1365 ;;      Temps:          0       0       0       0       0       0       0       0       0       0       0       0       
      +0       0       0       0       0       0       0       0       0       0       0       0       0       0       0
  1366 ;;      Totals:         6       0       0       0       0       0       0       0       0       0       0       0       
      +0       0       0       0       0       0       0       0       0       0       0       0       0       0       0
  1367 ;;Total ram usage:        6 bytes
  1368 ;; Hardware stack levels used: 1
  1369 ;; Hardware stack levels required when called: 1
  1370 ;; This function calls:
  1371 ;;		Nothing
  1372 ;; This function is called by:
  1373 ;;		_main
  1374 ;; This function uses a non-reentrant model
  1375 ;;
  1376                           
  1377     0656                     ___wmul:	
  1378                           ;psect for function ___wmul
  1379                           
  1380     0656                     l1578:	
  1381                           ;incstack = 0
  1382                           ; Regs used in ___wmul: [wreg+status,2+status,0]
  1383                           
  1384     0656  01F4               	clrf	___wmul@product
  1385     0657  01F5               	clrf	___wmul@product+1
  1386     0658                     l1580:
  1387     0658  1C70               	btfss	___wmul@multiplier,0
  1388     0659  2E5B               	goto	u2021
  1389     065A  2E5C               	goto	u2020
  1390     065B                     u2021:
  1391     065B  2E60               	goto	l162
  1392     065C                     u2020:
  1393     065C                     l1582:
  1394     065C  0872               	movf	___wmul@multiplicand,w
  1395     065D  07F4               	addwf	___wmul@product,f
  1396     065E  0873               	movf	___wmul@multiplicand+1,w
  1397     065F  3DF5               	addwfc	___wmul@product+1,f
  1398     0660                     l162:
  1399     0660  3001               	movlw	1
  1400     0661                     u2035:
  1401     0661  35F2               	lslf	___wmul@multiplicand,f
  1402     0662  0DF3               	rlf	___wmul@multiplicand+1,f
  1403     0663  0B89               	decfsz	9,f
  1404     0664  2E61               	goto	u2035
  1405     0665                     l1584:
  1406     0665  3001               	movlw	1
  1407     0666                     u2045:
  1408     0666  36F1               	lsrf	___wmul@multiplier+1,f
  1409     0667  0CF0               	rrf	___wmul@multiplier,f
  1410     0668  0B89               	decfsz	9,f
  1411     0669  2E66               	goto	u2045
  1412     066A                     l1586:
  1413     066A  0870               	movf	___wmul@multiplier,w
  1414     066B  0471               	iorwf	___wmul@multiplier+1,w
  1415     066C  1D03               	btfss	3,2
  1416     066D  2E6F               	goto	u2051
  1417     066E  2E70               	goto	u2050
  1418     066F                     u2051:
  1419     066F  2E58               	goto	l1580
  1420     0670                     u2050:
  1421     0670                     l1588:
  1422     0670  0875               	movf	___wmul@product+1,w
  1423     0671  00F1               	movwf	?___wmul+1
  1424     0672  0874               	movf	___wmul@product,w
  1425     0673  00F0               	movwf	?___wmul
  1426     0674                     l164:
  1427     0674  0008               	return
  1428     0675                     __end_of___wmul:
  1429                           
  1430                           	psect	text4
  1431     03F0                     __ptext4:	
  1432 ;; *************** function _Sound_Play *****************
  1433 ;; Defined at:
  1434 ;;		line 68 in file "main.c"
  1435 ;; Parameters:    Size  Location     Type
  1436 ;;  freq            2   36[BANK0 ] unsigned int 
  1437 ;;  duration        2   38[BANK0 ] unsigned int 
  1438 ;; Auto vars:     Size  Location     Type
  1439 ;;  period          4   43[BANK0 ] float 
  1440 ;; Return value:  Size  Location     Type
  1441 ;;                  1    wreg      void 
  1442 ;; Registers used:
  1443 ;;		wreg, status,2, status,0, pclath, cstack
  1444 ;; Tracked objects:
  1445 ;;		On entry : 0/0
  1446 ;;		On exit  : 0/0
  1447 ;;		Unchanged: 0/0
  1448 ;; Data sizes:     COMMON   BANK0   BANK1   BANK2   BANK3   BANK4   BANK5   BANK6   BANK7   BANK8   BANK9  BANK10  BANK1
      +1  BANK12  BANK13  BANK14  BANK15  BANK16  BANK17  BANK18  BANK19  BANK20  BANK21  BANK22  BANK23  BANK24  BANK25
  1449 ;;      Params:         0       4       0       0       0       0       0       0       0       0       0       0       
      +0       0       0       0       0       0       0       0       0       0       0       0       0       0       0
  1450 ;;      Locals:         0       4       0       0       0       0       0       0       0       0       0       0       
      +0       0       0       0       0       0       0       0       0       0       0       0       0       0       0
  1451 ;;      Temps:          0       3       0       0       0       0       0       0       0       0       0       0       
      +0       0       0       0       0       0       0       0       0       0       0       0       0       0       0
  1452 ;;      Totals:         0      11       0       0       0       0       0       0       0       0       0       0       
      +0       0       0       0       0       0       0       0       0       0       0       0       0       0       0
  1453 ;;Total ram usage:       11 bytes
  1454 ;; Hardware stack levels used: 1
  1455 ;; Hardware stack levels required when called: 3
  1456 ;; This function calls:
  1457 ;;		_Delay_Ms
  1458 ;;		___fldiv
  1459 ;;		___flsub
  1460 ;;		___fltol
  1461 ;;		___xxtofl
  1462 ;; This function is called by:
  1463 ;;		_main
  1464 ;; This function uses a non-reentrant model
  1465 ;;
  1466                           
  1467     03F0                     _Sound_Play:	
  1468                           ;psect for function _Sound_Play
  1469                           
  1470     03F0                     l1550:	
  1471                           ;incstack = 0
  1472                           ; Regs used in _Sound_Play: [wreg+status,2+status,0+pclath+cstack]
  1473                           
  1474                           
  1475                           ;main.c: 68: void Sound_Play(unsigned int freq, unsigned int duration);main.c: 69: {;mai
      +                          n.c: 70:     float period;;main.c: 71:     period = 500000.0/freq;
  1476     03F0  0020               	movlb	0	; select bank0
  1477     03F1  0844               	movf	Sound_Play@freq,w
  1478     03F2  00F0               	movwf	___xxtofl@val
  1479     03F3  0845               	movf	Sound_Play@freq+1,w
  1480     03F4  00F1               	movwf	___xxtofl@val+1
  1481     03F5  01F2               	clrf	___xxtofl@val+2
  1482     03F6  01F3               	clrf	___xxtofl@val+3
  1483     03F7  3000               	movlw	0
  1484     03F8  3184  249B  3183   	fcall	___xxtofl
  1485     03FB  0873               	movf	?___xxtofl+3,w
  1486     03FC  0020               	movlb	0	; select bank0
  1487     03FD  00A3               	movwf	___fldiv@a+3
  1488     03FE  0872               	movf	?___xxtofl+2,w
  1489     03FF  00A2               	movwf	___fldiv@a+2
  1490     0400  0871               	movf	?___xxtofl+1,w
  1491     0401  00A1               	movwf	___fldiv@a+1
  1492     0402  0870               	movf	?___xxtofl,w
  1493     0403  00A0               	movwf	___fldiv@a
  1494     0404  3048               	movlw	72
  1495     0405  00A7               	movwf	___fldiv@b+3
  1496     0406  30F4               	movlw	244
  1497     0407  00A6               	movwf	___fldiv@b+2
  1498     0408  3024               	movlw	36
  1499     0409  00A5               	movwf	___fldiv@b+1
  1500     040A  3000               	movlw	0
  1501     040B  00A4               	movwf	___fldiv@b
  1502     040C  3182  2246  3183   	fcall	___fldiv
  1503     040F  0020               	movlb	0	; select bank0
  1504     0410  0823               	movf	?___fldiv+3,w
  1505     0411  00CE               	movwf	Sound_Play@period+3
  1506     0412  0822               	movf	?___fldiv+2,w
  1507     0413  00CD               	movwf	Sound_Play@period+2
  1508     0414  0821               	movf	?___fldiv+1,w
  1509     0415  00CC               	movwf	Sound_Play@period+1
  1510     0416  0820               	movf	?___fldiv,w
  1511     0417  00CB               	movwf	Sound_Play@period
  1512                           
  1513                           ;main.c: 72:     period = 65536-period;
  1514     0418  084E               	movf	Sound_Play@period+3,w
  1515     0419  00AB               	movwf	___flsub@a+3
  1516     041A  084D               	movf	Sound_Play@period+2,w
  1517     041B  00AA               	movwf	___flsub@a+2
  1518     041C  084C               	movf	Sound_Play@period+1,w
  1519     041D  00A9               	movwf	___flsub@a+1
  1520     041E  084B               	movf	Sound_Play@period,w
  1521     041F  00A8               	movwf	___flsub@a
  1522     0420  3047               	movlw	71
  1523     0421  00AF               	movwf	___flsub@b+3
  1524     0422  3080               	movlw	128
  1525     0423  00AE               	movwf	___flsub@b+2
  1526     0424  3000               	movlw	0
  1527     0425  00AD               	movwf	___flsub@b+1
  1528     0426  3000               	movlw	0
  1529     0427  00AC               	movwf	___flsub@b
  1530     0428  3186  2636  3183   	fcall	___flsub
  1531     042B  0020               	movlb	0	; select bank0
  1532     042C  082B               	movf	?___flsub+3,w
  1533     042D  00CE               	movwf	Sound_Play@period+3
  1534     042E  082A               	movf	?___flsub+2,w
  1535     042F  00CD               	movwf	Sound_Play@period+2
  1536     0430  0829               	movf	?___flsub+1,w
  1537     0431  00CC               	movwf	Sound_Play@period+1
  1538     0432  0828               	movf	?___flsub,w
  1539     0433  00CB               	movwf	Sound_Play@period
  1540                           
  1541                           ;main.c: 74:     TIMER_H = (char)(period/256);
  1542     0434  084E               	movf	Sound_Play@period+3,w
  1543     0435  00A7               	movwf	___fldiv@b+3
  1544     0436  084D               	movf	Sound_Play@period+2,w
  1545     0437  00A6               	movwf	___fldiv@b+2
  1546     0438  084C               	movf	Sound_Play@period+1,w
  1547     0439  00A5               	movwf	___fldiv@b+1
  1548     043A  084B               	movf	Sound_Play@period,w
  1549     043B  00A4               	movwf	___fldiv@b
  1550     043C  3043               	movlw	67
  1551     043D  00A3               	movwf	___fldiv@a+3
  1552     043E  3080               	movlw	128
  1553     043F  00A2               	movwf	___fldiv@a+2
  1554     0440  3000               	movlw	0
  1555     0441  00A1               	movwf	___fldiv@a+1
  1556     0442  3000               	movlw	0
  1557     0443  00A0               	movwf	___fldiv@a
  1558     0444  3182  2246  3183   	fcall	___fldiv
  1559     0447  0020               	movlb	0	; select bank0
  1560     0448  0823               	movf	?___fldiv+3,w
  1561     0449  00BD               	movwf	___fltol@f1+3
  1562     044A  0822               	movf	?___fldiv+2,w
  1563     044B  00BC               	movwf	___fltol@f1+2
  1564     044C  0821               	movf	?___fldiv+1,w
  1565     044D  00BB               	movwf	___fltol@f1+1
  1566     044E  0820               	movf	?___fldiv,w
  1567     044F  00BA               	movwf	___fltol@f1
  1568     0450  3185  2545  3183   	fcall	___fltol
  1569     0453  0020               	movlb	0	; select bank0
  1570     0454  083A               	movf	?___fltol,w
  1571     0455  00EC               	movwf	_TIMER_H
  1572                           
  1573                           ;main.c: 75:     TIMER_L = (char) (period-256*TIMER_H);
  1574     0456  084E               	movf	Sound_Play@period+3,w
  1575     0457  00AF               	movwf	___flsub@b+3
  1576     0458  084D               	movf	Sound_Play@period+2,w
  1577     0459  00AE               	movwf	___flsub@b+2
  1578     045A  084C               	movf	Sound_Play@period+1,w
  1579     045B  00AD               	movwf	___flsub@b+1
  1580     045C  084B               	movf	Sound_Play@period,w
  1581     045D  00AC               	movwf	___flsub@b
  1582     045E  086C               	movf	_TIMER_H,w
  1583     045F  00C8               	movwf	??_Sound_Play
  1584     0460  01C9               	clrf	??_Sound_Play+1
  1585     0461  0848               	movf	??_Sound_Play,w
  1586     0462  00C9               	movwf	??_Sound_Play+1
  1587     0463  01C8               	clrf	??_Sound_Play
  1588     0464  0848               	movf	??_Sound_Play,w
  1589     0465  00F0               	movwf	___xxtofl@val
  1590     0466  0849               	movf	??_Sound_Play+1,w
  1591     0467  00F1               	movwf	___xxtofl@val+1
  1592     0468  0D89               	rlf	9,f
  1593     0469  3B89               	subwfb	9,f
  1594     046A  0989               	comf	9,f
  1595     046B  00F2               	movwf	___xxtofl@val+2
  1596     046C  00F3               	movwf	___xxtofl@val+3
  1597     046D  3001               	movlw	1
  1598     046E  3184  249B  3183   	fcall	___xxtofl
  1599     0471  0873               	movf	?___xxtofl+3,w
  1600     0472  0020               	movlb	0	; select bank0
  1601     0473  00AB               	movwf	___flsub@a+3
  1602     0474  0872               	movf	?___xxtofl+2,w
  1603     0475  00AA               	movwf	___flsub@a+2
  1604     0476  0871               	movf	?___xxtofl+1,w
  1605     0477  00A9               	movwf	___flsub@a+1
  1606     0478  0870               	movf	?___xxtofl,w
  1607     0479  00A8               	movwf	___flsub@a
  1608     047A  3186  2636  3183   	fcall	___flsub
  1609     047D  0020               	movlb	0	; select bank0
  1610     047E  082B               	movf	?___flsub+3,w
  1611     047F  00BD               	movwf	___fltol@f1+3
  1612     0480  082A               	movf	?___flsub+2,w
  1613     0481  00BC               	movwf	___fltol@f1+2
  1614     0482  0829               	movf	?___flsub+1,w
  1615     0483  00BB               	movwf	___fltol@f1+1
  1616     0484  0828               	movf	?___flsub,w
  1617     0485  00BA               	movwf	___fltol@f1
  1618     0486  3185  2545  3183   	fcall	___fltol
  1619     0489  0020               	movlb	0	; select bank0
  1620     048A  083A               	movf	?___fltol,w
  1621     048B  00EB               	movwf	_TIMER_L
  1622     048C                     l1552:
  1623                           
  1624                           ;main.c: 76:     TMR1H = TIMER_H;
  1625     048C  086C               	movf	_TIMER_H,w
  1626     048D  0097               	movwf	23	;volatile
  1627     048E                     l1554:
  1628                           
  1629                           ;main.c: 77:     TMR1L = TIMER_L;
  1630     048E  086B               	movf	_TIMER_L,w
  1631     048F  0096               	movwf	22	;volatile
  1632     0490                     l1556:
  1633                           
  1634                           ;main.c: 79:     T1CONbits.TMR1ON = 1;
  1635     0490  1418               	bsf	24,0	;volatile
  1636                           
  1637                           ;main.c: 81:     Delay_Ms(duration);
  1638     0491  0847               	movf	Sound_Play@duration+1,w
  1639     0492  00F1               	movwf	Delay_Ms@s+1
  1640     0493  0846               	movf	Sound_Play@duration,w
  1641     0494  00F0               	movwf	Delay_Ms@s
  1642     0495  3186  2675  3183   	fcall	_Delay_Ms
  1643     0498                     l1558:
  1644                           
  1645                           ;main.c: 82:     T1CONbits.TMR1ON = 0;
  1646     0498  0020               	movlb	0	; select bank0
  1647     0499  1018               	bcf	24,0	;volatile
  1648     049A                     l76:
  1649     049A  0008               	return
  1650     049B                     __end_of_Sound_Play:
  1651                           
  1652                           	psect	text5
  1653     049B                     __ptext5:	
  1654 ;; *************** function ___xxtofl *****************
  1655 ;; Defined at:
  1656 ;;		line 10 in file "C:\Program Files\Microchip\xc8\v2.45\pic\sources\c99\common\xxtofl.c"
  1657 ;; Parameters:    Size  Location     Type
  1658 ;;  sign            1    wreg     unsigned char 
  1659 ;;  val             4    0[COMMON] long 
  1660 ;; Auto vars:     Size  Location     Type
  1661 ;;  sign            1    8[COMMON] unsigned char 
  1662 ;;  arg             4   10[COMMON] unsigned long 
  1663 ;;  exp             1    9[COMMON] unsigned char 
  1664 ;; Return value:  Size  Location     Type
  1665 ;;                  4    0[COMMON] unsigned char 
  1666 ;; Registers used:
  1667 ;;		wreg, status,2, status,0
  1668 ;; Tracked objects:
  1669 ;;		On entry : 0/0
  1670 ;;		On exit  : 0/0
  1671 ;;		Unchanged: 0/0
  1672 ;; Data sizes:     COMMON   BANK0   BANK1   BANK2   BANK3   BANK4   BANK5   BANK6   BANK7   BANK8   BANK9  BANK10  BANK1
      +1  BANK12  BANK13  BANK14  BANK15  BANK16  BANK17  BANK18  BANK19  BANK20  BANK21  BANK22  BANK23  BANK24  BANK25
  1673 ;;      Params:         4       0       0       0       0       0       0       0       0       0       0       0       
      +0       0       0       0       0       0       0       0       0       0       0       0       0       0       0
  1674 ;;      Locals:         6       0       0       0       0       0       0       0       0       0       0       0       
      +0       0       0       0       0       0       0       0       0       0       0       0       0       0       0
  1675 ;;      Temps:          4       0       0       0       0       0       0       0       0       0       0       0       
      +0       0       0       0       0       0       0       0       0       0       0       0       0       0       0
  1676 ;;      Totals:        14       0       0       0       0       0       0       0       0       0       0       0       
      +0       0       0       0       0       0       0       0       0       0       0       0       0       0       0
  1677 ;;Total ram usage:       14 bytes
  1678 ;; Hardware stack levels used: 1
  1679 ;; Hardware stack levels required when called: 1
  1680 ;; This function calls:
  1681 ;;		Nothing
  1682 ;; This function is called by:
  1683 ;;		_Sound_Play
  1684 ;; This function uses a non-reentrant model
  1685 ;;
  1686                           
  1687     049B                     ___xxtofl:	
  1688                           ;psect for function ___xxtofl
  1689                           
  1690                           
  1691                           ;incstack = 0
  1692                           ; Regs used in ___xxtofl: [wreg+status,2+status,0]
  1693                           ;___xxtofl@sign stored from wreg
  1694     049B  00F8               	movwf	___xxtofl@sign
  1695     049C                     l1506:
  1696     049C  0878               	movf	___xxtofl@sign,w
  1697     049D  1903               	btfsc	3,2
  1698     049E  2CA0               	goto	u1881
  1699     049F  2CA1               	goto	u1880
  1700     04A0                     u1881:
  1701     04A0  2CB5               	goto	l1512
  1702     04A1                     u1880:
  1703     04A1                     l1508:
  1704     04A1  1FF3               	btfss	___xxtofl@val+3,7
  1705     04A2  2CA4               	goto	u1891
  1706     04A3  2CA5               	goto	u1890
  1707     04A4                     u1891:
  1708     04A4  2CB5               	goto	l1512
  1709     04A5                     u1890:
  1710     04A5                     l1510:
  1711     04A5  0970               	comf	___xxtofl@val,w
  1712     04A6  00FA               	movwf	___xxtofl@arg
  1713     04A7  0971               	comf	___xxtofl@val+1,w
  1714     04A8  00FB               	movwf	___xxtofl@arg+1
  1715     04A9  0972               	comf	___xxtofl@val+2,w
  1716     04AA  00FC               	movwf	___xxtofl@arg+2
  1717     04AB  0973               	comf	___xxtofl@val+3,w
  1718     04AC  00FD               	movwf	___xxtofl@arg+3
  1719     04AD  0AFA               	incf	___xxtofl@arg,f
  1720     04AE  1903               	skipnz
  1721     04AF  0AFB               	incf	___xxtofl@arg+1,f
  1722     04B0  1903               	skipnz
  1723     04B1  0AFC               	incf	___xxtofl@arg+2,f
  1724     04B2  1903               	skipnz
  1725     04B3  0AFD               	incf	___xxtofl@arg+3,f
  1726     04B4  2CBD               	goto	l603
  1727     04B5                     l1512:
  1728     04B5  0873               	movf	___xxtofl@val+3,w
  1729     04B6  00FD               	movwf	___xxtofl@arg+3
  1730     04B7  0872               	movf	___xxtofl@val+2,w
  1731     04B8  00FC               	movwf	___xxtofl@arg+2
  1732     04B9  0871               	movf	___xxtofl@val+1,w
  1733     04BA  00FB               	movwf	___xxtofl@arg+1
  1734     04BB  0870               	movf	___xxtofl@val,w
  1735     04BC  00FA               	movwf	___xxtofl@arg
  1736     04BD                     l603:
  1737     04BD  0873               	movf	___xxtofl@val+3,w
  1738     04BE  0472               	iorwf	___xxtofl@val+2,w
  1739     04BF  0471               	iorwf	___xxtofl@val+1,w
  1740     04C0  0470               	iorwf	___xxtofl@val,w
  1741     04C1  1D03               	skipz
  1742     04C2  2CC4               	goto	u1901
  1743     04C3  2CC5               	goto	u1900
  1744     04C4                     u1901:
  1745     04C4  2CCE               	goto	l1518
  1746     04C5                     u1900:
  1747     04C5                     l1514:
  1748     04C5  3000               	movlw	0
  1749     04C6  00F3               	movwf	?___xxtofl+3
  1750     04C7  3000               	movlw	0
  1751     04C8  00F2               	movwf	?___xxtofl+2
  1752     04C9  3000               	movlw	0
  1753     04CA  00F1               	movwf	?___xxtofl+1
  1754     04CB  3000               	movlw	0
  1755     04CC  00F0               	movwf	?___xxtofl
  1756     04CD  2D44               	goto	l605
  1757     04CE                     l1518:
  1758     04CE  3096               	movlw	150
  1759     04CF  00F9               	movwf	___xxtofl@exp
  1760     04D0  2CDC               	goto	l1522
  1761     04D1                     l1520:
  1762     04D1  3001               	movlw	1
  1763     04D2  00F4               	movwf	??___xxtofl
  1764     04D3  0874               	movf	??___xxtofl,w
  1765     04D4  07F9               	addwf	___xxtofl@exp,f
  1766     04D5  3001               	movlw	1
  1767     04D6                     u1915:
  1768     04D6  36FD               	lsrf	___xxtofl@arg+3,f
  1769     04D7  0CFC               	rrf	___xxtofl@arg+2,f
  1770     04D8  0CFB               	rrf	___xxtofl@arg+1,f
  1771     04D9  0CFA               	rrf	___xxtofl@arg,f
  1772     04DA  0B89               	decfsz	9,f
  1773     04DB  2CD6               	goto	u1915
  1774     04DC                     l1522:
  1775     04DC  30FE               	movlw	254
  1776     04DD  057D               	andwf	___xxtofl@arg+3,w
  1777     04DE  1D03               	btfss	3,2
  1778     04DF  2CE1               	goto	u1921
  1779     04E0  2CE2               	goto	u1920
  1780     04E1                     u1921:
  1781     04E1  2CD1               	goto	l1520
  1782     04E2                     u1920:
  1783     04E2  2CF6               	goto	l609
  1784     04E3                     l1524:
  1785     04E3  3001               	movlw	1
  1786     04E4  00F4               	movwf	??___xxtofl
  1787     04E5  0874               	movf	??___xxtofl,w
  1788     04E6  07F9               	addwf	___xxtofl@exp,f
  1789     04E7                     l1526:
  1790     04E7  3001               	movlw	1
  1791     04E8  07FA               	addwf	___xxtofl@arg,f
  1792     04E9  3000               	movlw	0
  1793     04EA  3DFB               	addwfc	___xxtofl@arg+1,f
  1794     04EB  3000               	movlw	0
  1795     04EC  3DFC               	addwfc	___xxtofl@arg+2,f
  1796     04ED  3000               	movlw	0
  1797     04EE  3DFD               	addwfc	___xxtofl@arg+3,f
  1798     04EF                     l1528:
  1799     04EF  3001               	movlw	1
  1800     04F0                     u1935:
  1801     04F0  36FD               	lsrf	___xxtofl@arg+3,f
  1802     04F1  0CFC               	rrf	___xxtofl@arg+2,f
  1803     04F2  0CFB               	rrf	___xxtofl@arg+1,f
  1804     04F3  0CFA               	rrf	___xxtofl@arg,f
  1805     04F4  0B89               	decfsz	9,f
  1806     04F5  2CF0               	goto	u1935
  1807     04F6                     l609:
  1808     04F6  30FF               	movlw	255
  1809     04F7  057D               	andwf	___xxtofl@arg+3,w
  1810     04F8  1D03               	btfss	3,2
  1811     04F9  2CFB               	goto	u1941
  1812     04FA  2CFC               	goto	u1940
  1813     04FB                     u1941:
  1814     04FB  2CE3               	goto	l1524
  1815     04FC                     u1940:
  1816     04FC  2D06               	goto	l1532
  1817     04FD                     l1530:
  1818     04FD  3001               	movlw	1
  1819     04FE  02F9               	subwf	___xxtofl@exp,f
  1820     04FF  3001               	movlw	1
  1821     0500                     u1955:
  1822     0500  35FA               	lslf	___xxtofl@arg,f
  1823     0501  0DFB               	rlf	___xxtofl@arg+1,f
  1824     0502  0DFC               	rlf	___xxtofl@arg+2,f
  1825     0503  0DFD               	rlf	___xxtofl@arg+3,f
  1826     0504  0B89               	decfsz	9,f
  1827     0505  2D00               	goto	u1955
  1828     0506                     l1532:
  1829     0506  1BFC               	btfsc	___xxtofl@arg+2,7
  1830     0507  2D09               	goto	u1961
  1831     0508  2D0A               	goto	u1960
  1832     0509                     u1961:
  1833     0509  2D10               	goto	l616
  1834     050A                     u1960:
  1835     050A                     l1534:
  1836     050A  3002               	movlw	2
  1837     050B  0279               	subwf	___xxtofl@exp,w
  1838     050C  1803               	skipnc
  1839     050D  2D0F               	goto	u1971
  1840     050E  2D10               	goto	u1970
  1841     050F                     u1971:
  1842     050F  2CFD               	goto	l1530
  1843     0510                     u1970:
  1844     0510                     l616:
  1845     0510  1879               	btfsc	___xxtofl@exp,0
  1846     0511  2D13               	goto	u1981
  1847     0512  2D14               	goto	u1980
  1848     0513                     u1981:
  1849     0513  2D1C               	goto	l617
  1850     0514                     u1980:
  1851     0514                     l1536:
  1852     0514  30FF               	movlw	255
  1853     0515  05FA               	andwf	___xxtofl@arg,f
  1854     0516  30FF               	movlw	255
  1855     0517  05FB               	andwf	___xxtofl@arg+1,f
  1856     0518  307F               	movlw	127
  1857     0519  05FC               	andwf	___xxtofl@arg+2,f
  1858     051A  30FF               	movlw	255
  1859     051B  05FD               	andwf	___xxtofl@arg+3,f
  1860     051C                     l617:
  1861     051C  1003               	clrc
  1862     051D  0CF9               	rrf	___xxtofl@exp,f
  1863     051E                     l1538:
  1864     051E  0879               	movf	___xxtofl@exp,w
  1865     051F  00F4               	movwf	??___xxtofl
  1866     0520  01F5               	clrf	??___xxtofl+1
  1867     0521  01F6               	clrf	??___xxtofl+2
  1868     0522  01F7               	clrf	??___xxtofl+3
  1869     0523  3018               	movlw	24
  1870     0524                     u1995:
  1871     0524  35F4               	lslf	??___xxtofl,f
  1872     0525  0DF5               	rlf	??___xxtofl+1,f
  1873     0526  0DF6               	rlf	??___xxtofl+2,f
  1874     0527  0DF7               	rlf	??___xxtofl+3,f
  1875     0528                     u1990:
  1876     0528  0B89               	decfsz	9,f
  1877     0529  2D24               	goto	u1995
  1878     052A  0874               	movf	??___xxtofl,w
  1879     052B  04FA               	iorwf	___xxtofl@arg,f
  1880     052C  0875               	movf	??___xxtofl+1,w
  1881     052D  04FB               	iorwf	___xxtofl@arg+1,f
  1882     052E  0876               	movf	??___xxtofl+2,w
  1883     052F  04FC               	iorwf	___xxtofl@arg+2,f
  1884     0530  0877               	movf	??___xxtofl+3,w
  1885     0531  04FD               	iorwf	___xxtofl@arg+3,f
  1886     0532                     l1540:
  1887     0532  0878               	movf	___xxtofl@sign,w
  1888     0533  1903               	btfsc	3,2
  1889     0534  2D36               	goto	u2001
  1890     0535  2D37               	goto	u2000
  1891     0536                     u2001:
  1892     0536  2D3C               	goto	l1546
  1893     0537                     u2000:
  1894     0537                     l1542:
  1895     0537  1FF3               	btfss	___xxtofl@val+3,7
  1896     0538  2D3A               	goto	u2011
  1897     0539  2D3B               	goto	u2010
  1898     053A                     u2011:
  1899     053A  2D3C               	goto	l1546
  1900     053B                     u2010:
  1901     053B                     l1544:
  1902     053B  17FD               	bsf	___xxtofl@arg+3,7
  1903     053C                     l1546:
  1904     053C  087D               	movf	___xxtofl@arg+3,w
  1905     053D  00F3               	movwf	?___xxtofl+3
  1906     053E  087C               	movf	___xxtofl@arg+2,w
  1907     053F  00F2               	movwf	?___xxtofl+2
  1908     0540  087B               	movf	___xxtofl@arg+1,w
  1909     0541  00F1               	movwf	?___xxtofl+1
  1910     0542  087A               	movf	___xxtofl@arg,w
  1911     0543  00F0               	movwf	?___xxtofl
  1912     0544                     l605:
  1913     0544  0008               	return
  1914     0545                     __end_of___xxtofl:
  1915                           
  1916                           	psect	text6
  1917     0545                     __ptext6:	
  1918 ;; *************** function ___fltol *****************
  1919 ;; Defined at:
  1920 ;;		line 43 in file "C:\Program Files\Microchip\xc8\v2.45\pic\sources\c99\common\fltol.c"
  1921 ;; Parameters:    Size  Location     Type
  1922 ;;  f1              4   26[BANK0 ] unsigned char 
  1923 ;; Auto vars:     Size  Location     Type
  1924 ;;  exp1            1   35[BANK0 ] unsigned char 
  1925 ;;  sign1           1   34[BANK0 ] unsigned char 
  1926 ;; Return value:  Size  Location     Type
  1927 ;;                  4   26[BANK0 ] long 
  1928 ;; Registers used:
  1929 ;;		wreg, status,2, status,0
  1930 ;; Tracked objects:
  1931 ;;		On entry : 0/0
  1932 ;;		On exit  : 0/0
  1933 ;;		Unchanged: 0/0
  1934 ;; Data sizes:     COMMON   BANK0   BANK1   BANK2   BANK3   BANK4   BANK5   BANK6   BANK7   BANK8   BANK9  BANK10  BANK1
      +1  BANK12  BANK13  BANK14  BANK15  BANK16  BANK17  BANK18  BANK19  BANK20  BANK21  BANK22  BANK23  BANK24  BANK25
  1935 ;;      Params:         0       4       0       0       0       0       0       0       0       0       0       0       
      +0       0       0       0       0       0       0       0       0       0       0       0       0       0       0
  1936 ;;      Locals:         0       2       0       0       0       0       0       0       0       0       0       0       
      +0       0       0       0       0       0       0       0       0       0       0       0       0       0       0
  1937 ;;      Temps:          0       4       0       0       0       0       0       0       0       0       0       0       
      +0       0       0       0       0       0       0       0       0       0       0       0       0       0       0
  1938 ;;      Totals:         0      10       0       0       0       0       0       0       0       0       0       0       
      +0       0       0       0       0       0       0       0       0       0       0       0       0       0       0
  1939 ;;Total ram usage:       10 bytes
  1940 ;; Hardware stack levels used: 1
  1941 ;; Hardware stack levels required when called: 1
  1942 ;; This function calls:
  1943 ;;		Nothing
  1944 ;; This function is called by:
  1945 ;;		_Sound_Play
  1946 ;; This function uses a non-reentrant model
  1947 ;;
  1948                           
  1949     0545                     ___fltol:	
  1950                           ;psect for function ___fltol
  1951                           
  1952     0545                     l1324:	
  1953                           ;incstack = 0
  1954                           ; Regs used in ___fltol: [wreg+status,2+status,0]
  1955                           
  1956     0545  1003               	clrc
  1957     0546  0020               	movlb	0	; select bank0
  1958     0547  0D3C               	rlf	___fltol@f1+2,w
  1959     0548  0D3D               	rlf	___fltol@f1+3,w
  1960     0549  00C3               	movwf	___fltol@exp1
  1961     054A  0843               	movf	___fltol@exp1,w
  1962     054B  1D03               	btfss	3,2
  1963     054C  2D4E               	goto	u1491
  1964     054D  2D4F               	goto	u1490
  1965     054E                     u1491:
  1966     054E  2D58               	goto	l1330
  1967     054F                     u1490:
  1968     054F                     l1326:
  1969     054F  3000               	movlw	0
  1970     0550  00BD               	movwf	?___fltol+3
  1971     0551  3000               	movlw	0
  1972     0552  00BC               	movwf	?___fltol+2
  1973     0553  3000               	movlw	0
  1974     0554  00BB               	movwf	?___fltol+1
  1975     0555  3000               	movlw	0
  1976     0556  00BA               	movwf	?___fltol
  1977     0557  2DB5               	goto	l356
  1978     0558                     l1330:
  1979     0558  083A               	movf	___fltol@f1,w
  1980     0559  00BE               	movwf	??___fltol
  1981     055A  083B               	movf	___fltol@f1+1,w
  1982     055B  00BF               	movwf	??___fltol+1
  1983     055C  083C               	movf	___fltol@f1+2,w
  1984     055D  00C0               	movwf	??___fltol+2
  1985     055E  083D               	movf	___fltol@f1+3,w
  1986     055F  00C1               	movwf	??___fltol+3
  1987     0560  301F               	movlw	31
  1988     0561                     u1505:
  1989     0561  36C1               	lsrf	??___fltol+3,f
  1990     0562  0CC0               	rrf	??___fltol+2,f
  1991     0563  0CBF               	rrf	??___fltol+1,f
  1992     0564  0CBE               	rrf	??___fltol,f
  1993     0565                     u1500:
  1994     0565  0B89               	decfsz	9,f
  1995     0566  2D61               	goto	u1505
  1996     0567  083E               	movf	??___fltol,w
  1997     0568  00C2               	movwf	___fltol@sign1
  1998     0569                     l1332:
  1999     0569  17BC               	bsf	___fltol@f1+2,7
  2000     056A                     l1334:
  2001     056A  30FF               	movlw	255
  2002     056B  05BA               	andwf	___fltol@f1,f
  2003     056C  30FF               	movlw	255
  2004     056D  05BB               	andwf	___fltol@f1+1,f
  2005     056E  30FF               	movlw	255
  2006     056F  05BC               	andwf	___fltol@f1+2,f
  2007     0570  3000               	movlw	0
  2008     0571  05BD               	andwf	___fltol@f1+3,f
  2009     0572                     l1336:
  2010     0572  3096               	movlw	150
  2011     0573  02C3               	subwf	___fltol@exp1,f
  2012     0574                     l1338:
  2013     0574  1FC3               	btfss	___fltol@exp1,7
  2014     0575  2D77               	goto	u1511
  2015     0576  2D78               	goto	u1510
  2016     0577                     u1511:
  2017     0577  2D90               	goto	l1348
  2018     0578                     u1510:
  2019     0578                     l1340:
  2020     0578  0843               	movf	___fltol@exp1,w
  2021     0579  3A80               	xorlw	128
  2022     057A  3E97               	addlw	151
  2023     057B  1803               	skipnc
  2024     057C  2D7E               	goto	u1521
  2025     057D  2D7F               	goto	u1520
  2026     057E                     u1521:
  2027     057E  2D80               	goto	l1346
  2028     057F                     u1520:
  2029     057F  2D4F               	goto	l1326
  2030     0580                     l1346:
  2031     0580  3001               	movlw	1
  2032     0581                     u1535:
  2033     0581  36BD               	lsrf	___fltol@f1+3,f
  2034     0582  0CBC               	rrf	___fltol@f1+2,f
  2035     0583  0CBB               	rrf	___fltol@f1+1,f
  2036     0584  0CBA               	rrf	___fltol@f1,f
  2037     0585  0B89               	decfsz	9,f
  2038     0586  2D81               	goto	u1535
  2039     0587  3001               	movlw	1
  2040     0588  00BE               	movwf	??___fltol
  2041     0589  083E               	movf	??___fltol,w
  2042     058A  07C3               	addwf	___fltol@exp1,f
  2043     058B  1D03               	btfss	3,2
  2044     058C  2D8E               	goto	u1541
  2045     058D  2D8F               	goto	u1540
  2046     058E                     u1541:
  2047     058E  2D80               	goto	l1346
  2048     058F                     u1540:
  2049     058F  2DA5               	goto	l1356
  2050     0590                     l1348:
  2051     0590  3020               	movlw	32
  2052     0591  0243               	subwf	___fltol@exp1,w
  2053     0592  1C03               	skipc
  2054     0593  2D95               	goto	u1551
  2055     0594  2D96               	goto	u1550
  2056     0595                     u1551:
  2057     0595  2DA0               	goto	l363
  2058     0596                     u1550:
  2059     0596  2D4F               	goto	l1326
  2060     0597                     l1354:
  2061     0597  3001               	movlw	1
  2062     0598                     u1565:
  2063     0598  35BA               	lslf	___fltol@f1,f
  2064     0599  0DBB               	rlf	___fltol@f1+1,f
  2065     059A  0DBC               	rlf	___fltol@f1+2,f
  2066     059B  0DBD               	rlf	___fltol@f1+3,f
  2067     059C  0B89               	decfsz	9,f
  2068     059D  2D98               	goto	u1565
  2069     059E  3001               	movlw	1
  2070     059F  02C3               	subwf	___fltol@exp1,f
  2071     05A0                     l363:
  2072     05A0  0843               	movf	___fltol@exp1,w
  2073     05A1  1D03               	btfss	3,2
  2074     05A2  2DA4               	goto	u1571
  2075     05A3  2DA5               	goto	u1570
  2076     05A4                     u1571:
  2077     05A4  2D97               	goto	l1354
  2078     05A5                     u1570:
  2079     05A5                     l1356:
  2080     05A5  0842               	movf	___fltol@sign1,w
  2081     05A6  1903               	btfsc	3,2
  2082     05A7  2DA9               	goto	u1581
  2083     05A8  2DAA               	goto	u1580
  2084     05A9                     u1581:
  2085     05A9  2DB5               	goto	l366
  2086     05AA                     u1580:
  2087     05AA                     l1358:
  2088     05AA  09BA               	comf	___fltol@f1,f
  2089     05AB  09BB               	comf	___fltol@f1+1,f
  2090     05AC  09BC               	comf	___fltol@f1+2,f
  2091     05AD  09BD               	comf	___fltol@f1+3,f
  2092     05AE  0ABA               	incf	___fltol@f1,f
  2093     05AF  1903               	skipnz
  2094     05B0  0ABB               	incf	___fltol@f1+1,f
  2095     05B1  1903               	skipnz
  2096     05B2  0ABC               	incf	___fltol@f1+2,f
  2097     05B3  1903               	skipnz
  2098     05B4  0ABD               	incf	___fltol@f1+3,f
  2099     05B5                     l366:
  2100     05B5                     l356:
  2101     05B5  0008               	return
  2102     05B6                     __end_of___fltol:
  2103                           
  2104                           	psect	text7
  2105     0636                     __ptext7:	
  2106 ;; *************** function ___flsub *****************
  2107 ;; Defined at:
  2108 ;;		line 242 in file "C:\Program Files\Microchip\xc8\v2.45\pic\sources\c99\common\sprcadd.c"
  2109 ;; Parameters:    Size  Location     Type
  2110 ;;  a               4    8[BANK0 ] long 
  2111 ;;  b               4   12[BANK0 ] long 
  2112 ;; Auto vars:     Size  Location     Type
  2113 ;;		None
  2114 ;; Return value:  Size  Location     Type
  2115 ;;                  4    8[BANK0 ] long 
  2116 ;; Registers used:
  2117 ;;		wreg, status,2, status,0, pclath, cstack
  2118 ;; Tracked objects:
  2119 ;;		On entry : 0/0
  2120 ;;		On exit  : 0/0
  2121 ;;		Unchanged: 0/0
  2122 ;; Data sizes:     COMMON   BANK0   BANK1   BANK2   BANK3   BANK4   BANK5   BANK6   BANK7   BANK8   BANK9  BANK10  BANK1
      +1  BANK12  BANK13  BANK14  BANK15  BANK16  BANK17  BANK18  BANK19  BANK20  BANK21  BANK22  BANK23  BANK24  BANK25
  2123 ;;      Params:         0       8       0       0       0       0       0       0       0       0       0       0       
      +0       0       0       0       0       0       0       0       0       0       0       0       0       0       0
  2124 ;;      Locals:         0       0       0       0       0       0       0       0       0       0       0       0       
      +0       0       0       0       0       0       0       0       0       0       0       0       0       0       0
  2125 ;;      Temps:          0       0       0       0       0       0       0       0       0       0       0       0       
      +0       0       0       0       0       0       0       0       0       0       0       0       0       0       0
  2126 ;;      Totals:         0       8       0       0       0       0       0       0       0       0       0       0       
      +0       0       0       0       0       0       0       0       0       0       0       0       0       0       0
  2127 ;;Total ram usage:        8 bytes
  2128 ;; Hardware stack levels used: 1
  2129 ;; Hardware stack levels required when called: 2
  2130 ;; This function calls:
  2131 ;;		___fladd
  2132 ;; This function is called by:
  2133 ;;		_Sound_Play
  2134 ;; This function uses a non-reentrant model
  2135 ;;
  2136                           
  2137     0636                     ___flsub:	
  2138                           ;psect for function ___flsub
  2139                           
  2140     0636                     l1360:	
  2141                           ;incstack = 0
  2142                           ; Regs used in ___flsub: [wreg+status,2+status,0+pclath+cstack]
  2143                           
  2144     0636  3080               	movlw	128
  2145     0637  0020               	movlb	0	; select bank0
  2146     0638  06AB               	xorwf	___flsub@a+3,f
  2147     0639                     l1362:
  2148     0639  082F               	movf	___flsub@b+3,w
  2149     063A  00F3               	movwf	___fladd@b+3
  2150     063B  082E               	movf	___flsub@b+2,w
  2151     063C  00F2               	movwf	___fladd@b+2
  2152     063D  082D               	movf	___flsub@b+1,w
  2153     063E  00F1               	movwf	___fladd@b+1
  2154     063F  082C               	movf	___flsub@b,w
  2155     0640  00F0               	movwf	___fladd@b
  2156     0641  082B               	movf	___flsub@a+3,w
  2157     0642  00F7               	movwf	___fladd@a+3
  2158     0643  082A               	movf	___flsub@a+2,w
  2159     0644  00F6               	movwf	___fladd@a+2
  2160     0645  0829               	movf	___flsub@a+1,w
  2161     0646  00F5               	movwf	___fladd@a+1
  2162     0647  0828               	movf	___flsub@a,w
  2163     0648  00F4               	movwf	___fladd@a
  2164     0649  3180  203A  3186   	fcall	___fladd
  2165     064C  0873               	movf	?___fladd+3,w
  2166     064D  0020               	movlb	0	; select bank0
  2167     064E  00AB               	movwf	?___flsub+3
  2168     064F  0872               	movf	?___fladd+2,w
  2169     0650  00AA               	movwf	?___flsub+2
  2170     0651  0871               	movf	?___fladd+1,w
  2171     0652  00A9               	movwf	?___flsub+1
  2172     0653  0870               	movf	?___fladd,w
  2173     0654  00A8               	movwf	?___flsub
  2174     0655                     l509:
  2175     0655  0008               	return
  2176     0656                     __end_of___flsub:
  2177                           
  2178                           	psect	text8
  2179     003A                     __ptext8:	
  2180 ;; *************** function ___fladd *****************
  2181 ;; Defined at:
  2182 ;;		line 10 in file "C:\Program Files\Microchip\xc8\v2.45\pic\sources\c99\common\sprcadd.c"
  2183 ;; Parameters:    Size  Location     Type
  2184 ;;  b               4    0[COMMON] long 
  2185 ;;  a               4    4[COMMON] long 
  2186 ;; Auto vars:     Size  Location     Type
  2187 ;;  grs             1   11[COMMON] unsigned char 
  2188 ;;  bexp            1   10[COMMON] unsigned char 
  2189 ;;  aexp            1    9[COMMON] unsigned char 
  2190 ;;  signs           1    8[COMMON] unsigned char 
  2191 ;; Return value:  Size  Location     Type
  2192 ;;                  4    0[COMMON] unsigned char 
  2193 ;; Registers used:
  2194 ;;		wreg, status,2, status,0
  2195 ;; Tracked objects:
  2196 ;;		On entry : 0/0
  2197 ;;		On exit  : 0/0
  2198 ;;		Unchanged: 0/0
  2199 ;; Data sizes:     COMMON   BANK0   BANK1   BANK2   BANK3   BANK4   BANK5   BANK6   BANK7   BANK8   BANK9  BANK10  BANK1
      +1  BANK12  BANK13  BANK14  BANK15  BANK16  BANK17  BANK18  BANK19  BANK20  BANK21  BANK22  BANK23  BANK24  BANK25
  2200 ;;      Params:         8       0       0       0       0       0       0       0       0       0       0       0       
      +0       0       0       0       0       0       0       0       0       0       0       0       0       0       0
  2201 ;;      Locals:         4       0       0       0       0       0       0       0       0       0       0       0       
      +0       0       0       0       0       0       0       0       0       0       0       0       0       0       0
  2202 ;;      Temps:          0       8       0       0       0       0       0       0       0       0       0       0       
      +0       0       0       0       0       0       0       0       0       0       0       0       0       0       0
  2203 ;;      Totals:        12       8       0       0       0       0       0       0       0       0       0       0       
      +0       0       0       0       0       0       0       0       0       0       0       0       0       0       0
  2204 ;;Total ram usage:       20 bytes
  2205 ;; Hardware stack levels used: 1
  2206 ;; Hardware stack levels required when called: 1
  2207 ;; This function calls:
  2208 ;;		Nothing
  2209 ;; This function is called by:
  2210 ;;		___flsub
  2211 ;; This function uses a non-reentrant model
  2212 ;;
  2213                           
  2214     003A                     ___fladd:	
  2215                           ;psect for function ___fladd
  2216                           
  2217     003A                     l1124:	
  2218                           ;incstack = 0
  2219                           ; Regs used in ___fladd: [wreg+status,2+status,0]
  2220                           
  2221     003A  0873               	movf	___fladd@b+3,w
  2222     003B  3980               	andlw	128
  2223     003C  00F8               	movwf	___fladd@signs
  2224     003D                     l1126:
  2225     003D  3573               	lslf	___fladd@b+3,w
  2226     003E  00FA               	movwf	___fladd@bexp
  2227     003F                     l1128:
  2228     003F  1FF2               	btfss	___fladd@b+2,7
  2229     0040  2842               	goto	u1051
  2230     0041  2843               	goto	u1050
  2231     0042                     u1051:
  2232     0042  2844               	goto	l1132
  2233     0043                     u1050:
  2234     0043                     l1130:
  2235     0043  147A               	bsf	___fladd@bexp,0
  2236     0044                     l1132:
  2237     0044  087A               	movf	___fladd@bexp,w
  2238     0045  1903               	btfsc	3,2
  2239     0046  2848               	goto	u1061
  2240     0047  2849               	goto	u1060
  2241     0048                     u1061:
  2242     0048  2859               	goto	l1142
  2243     0049                     u1060:
  2244     0049                     l1134:
  2245     0049  0A7A               	incf	___fladd@bexp,w
  2246     004A  1D03               	btfss	3,2
  2247     004B  284D               	goto	u1071
  2248     004C  284E               	goto	u1070
  2249     004D                     u1071:
  2250     004D  2856               	goto	l1138
  2251     004E                     u1070:
  2252     004E                     l1136:
  2253     004E  3000               	movlw	0
  2254     004F  00F3               	movwf	___fladd@b+3
  2255     0050  3000               	movlw	0
  2256     0051  00F2               	movwf	___fladd@b+2
  2257     0052  3000               	movlw	0
  2258     0053  00F1               	movwf	___fladd@b+1
  2259     0054  3000               	movlw	0
  2260     0055  00F0               	movwf	___fladd@b
  2261     0056                     l1138:
  2262     0056  17F2               	bsf	___fladd@b+2,7
  2263     0057                     l1140:
  2264     0057  01F3               	clrf	___fladd@b+3
  2265     0058  2861               	goto	l1144
  2266     0059                     l1142:
  2267     0059  3000               	movlw	0
  2268     005A  00F3               	movwf	___fladd@b+3
  2269     005B  3000               	movlw	0
  2270     005C  00F2               	movwf	___fladd@b+2
  2271     005D  3000               	movlw	0
  2272     005E  00F1               	movwf	___fladd@b+1
  2273     005F  3000               	movlw	0
  2274     0060  00F0               	movwf	___fladd@b
  2275     0061                     l1144:
  2276     0061  0877               	movf	___fladd@a+3,w
  2277     0062  3980               	andlw	128
  2278     0063  00F9               	movwf	___fladd@aexp
  2279     0064                     l1146:
  2280     0064  0879               	movf	___fladd@aexp,w
  2281     0065  0678               	xorwf	___fladd@signs,w
  2282     0066  1903               	skipnz
  2283     0067  2869               	goto	u1081
  2284     0068  286A               	goto	u1080
  2285     0069                     u1081:
  2286     0069  286B               	goto	l1150
  2287     006A                     u1080:
  2288     006A                     l1148:
  2289     006A  1778               	bsf	___fladd@signs,6
  2290     006B                     l1150:
  2291     006B  3577               	lslf	___fladd@a+3,w
  2292     006C  00F9               	movwf	___fladd@aexp
  2293     006D                     l1152:
  2294     006D  1FF6               	btfss	___fladd@a+2,7
  2295     006E  2870               	goto	u1091
  2296     006F  2871               	goto	u1090
  2297     0070                     u1091:
  2298     0070  2872               	goto	l1156
  2299     0071                     u1090:
  2300     0071                     l1154:
  2301     0071  1479               	bsf	___fladd@aexp,0
  2302     0072                     l1156:
  2303     0072  0879               	movf	___fladd@aexp,w
  2304     0073  1903               	btfsc	3,2
  2305     0074  2876               	goto	u1101
  2306     0075  2877               	goto	u1100
  2307     0076                     u1101:
  2308     0076  2887               	goto	l1166
  2309     0077                     u1100:
  2310     0077                     l1158:
  2311     0077  0A79               	incf	___fladd@aexp,w
  2312     0078  1D03               	btfss	3,2
  2313     0079  287B               	goto	u1111
  2314     007A  287C               	goto	u1110
  2315     007B                     u1111:
  2316     007B  2884               	goto	l1162
  2317     007C                     u1110:
  2318     007C                     l1160:
  2319     007C  3000               	movlw	0
  2320     007D  00F7               	movwf	___fladd@a+3
  2321     007E  3000               	movlw	0
  2322     007F  00F6               	movwf	___fladd@a+2
  2323     0080  3000               	movlw	0
  2324     0081  00F5               	movwf	___fladd@a+1
  2325     0082  3000               	movlw	0
  2326     0083  00F4               	movwf	___fladd@a
  2327     0084                     l1162:
  2328     0084  17F6               	bsf	___fladd@a+2,7
  2329     0085                     l1164:
  2330     0085  01F7               	clrf	___fladd@a+3
  2331     0086  288F               	goto	l463
  2332     0087                     l1166:
  2333     0087  3000               	movlw	0
  2334     0088  00F7               	movwf	___fladd@a+3
  2335     0089  3000               	movlw	0
  2336     008A  00F6               	movwf	___fladd@a+2
  2337     008B  3000               	movlw	0
  2338     008C  00F5               	movwf	___fladd@a+1
  2339     008D  3000               	movlw	0
  2340     008E  00F4               	movwf	___fladd@a
  2341     008F                     l463:
  2342     008F  087A               	movf	___fladd@bexp,w
  2343     0090  0279               	subwf	___fladd@aexp,w
  2344     0091  1803               	skipnc
  2345     0092  2894               	goto	u1121
  2346     0093  2895               	goto	u1120
  2347     0094                     u1121:
  2348     0094  28BC               	goto	l1202
  2349     0095                     u1120:
  2350     0095                     l1168:
  2351     0095  1F78               	btfss	___fladd@signs,6
  2352     0096  2898               	goto	u1131
  2353     0097  2899               	goto	u1130
  2354     0098                     u1131:
  2355     0098  289E               	goto	l1172
  2356     0099                     u1130:
  2357     0099                     l1170:
  2358     0099  3080               	movlw	128
  2359     009A  0020               	movlb	0	; select bank0
  2360     009B  00A0               	movwf	??___fladd
  2361     009C  0820               	movf	??___fladd,w
  2362     009D  06F8               	xorwf	___fladd@signs,f
  2363     009E                     l1172:
  2364     009E  087A               	movf	___fladd@bexp,w
  2365     009F  00FB               	movwf	___fladd@grs
  2366     00A0                     l1174:
  2367     00A0  0879               	movf	___fladd@aexp,w
  2368     00A1  00FA               	movwf	___fladd@bexp
  2369     00A2                     l1176:
  2370     00A2  087B               	movf	___fladd@grs,w
  2371     00A3  00F9               	movwf	___fladd@aexp
  2372     00A4                     l1178:
  2373     00A4  0870               	movf	___fladd@b,w
  2374     00A5  00FB               	movwf	___fladd@grs
  2375     00A6                     l1180:
  2376     00A6  0874               	movf	___fladd@a,w
  2377     00A7  00F0               	movwf	___fladd@b
  2378     00A8                     l1182:
  2379     00A8  087B               	movf	___fladd@grs,w
  2380     00A9  00F4               	movwf	___fladd@a
  2381     00AA                     l1184:
  2382     00AA  0871               	movf	___fladd@b+1,w
  2383     00AB  00FB               	movwf	___fladd@grs
  2384     00AC                     l1186:
  2385     00AC  0875               	movf	___fladd@a+1,w
  2386     00AD  00F1               	movwf	___fladd@b+1
  2387     00AE                     l1188:
  2388     00AE  087B               	movf	___fladd@grs,w
  2389     00AF  00F5               	movwf	___fladd@a+1
  2390     00B0                     l1190:
  2391     00B0  0872               	movf	___fladd@b+2,w
  2392     00B1  00FB               	movwf	___fladd@grs
  2393     00B2                     l1192:
  2394     00B2  0876               	movf	___fladd@a+2,w
  2395     00B3  00F2               	movwf	___fladd@b+2
  2396     00B4                     l1194:
  2397     00B4  087B               	movf	___fladd@grs,w
  2398     00B5  00F6               	movwf	___fladd@a+2
  2399     00B6                     l1196:
  2400     00B6  0873               	movf	___fladd@b+3,w
  2401     00B7  00FB               	movwf	___fladd@grs
  2402     00B8                     l1198:
  2403     00B8  0877               	movf	___fladd@a+3,w
  2404     00B9  00F3               	movwf	___fladd@b+3
  2405     00BA                     l1200:
  2406     00BA  087B               	movf	___fladd@grs,w
  2407     00BB  00F7               	movwf	___fladd@a+3
  2408     00BC                     l1202:
  2409     00BC  01FB               	clrf	___fladd@grs
  2410     00BD                     l1204:
  2411     00BD  0879               	movf	___fladd@aexp,w
  2412     00BE  0020               	movlb	0	; select bank0
  2413     00BF  00A0               	movwf	??___fladd
  2414     00C0  01A1               	clrf	??___fladd+1
  2415     00C1  0821               	movf	??___fladd+1,w
  2416     00C2  00A3               	movwf	??___fladd+3
  2417     00C3  087A               	movf	___fladd@bexp,w
  2418     00C4  0220               	subwf	??___fladd,w
  2419     00C5  00A2               	movwf	??___fladd+2
  2420     00C6  1C03               	skipc
  2421     00C7  03A3               	decf	??___fladd+3,f
  2422     00C8  0823               	movf	??___fladd+3,w
  2423     00C9  3A80               	xorlw	128
  2424     00CA  00A4               	movwf	??___fladd+4
  2425     00CB  3080               	movlw	128
  2426     00CC  0224               	subwf	??___fladd+4,w
  2427     00CD  1D03               	skipz
  2428     00CE  28D1               	goto	u1145
  2429     00CF  301A               	movlw	26
  2430     00D0  0222               	subwf	??___fladd+2,w
  2431     00D1                     u1145:
  2432     00D1  1C03               	skipc
  2433     00D2  28D4               	goto	u1141
  2434     00D3  28D5               	goto	u1140
  2435     00D4                     u1141:
  2436     00D4  2907               	goto	l1220
  2437     00D5                     u1140:
  2438     00D5                     l1206:
  2439     00D5  0873               	movf	___fladd@b+3,w
  2440     00D6  0472               	iorwf	___fladd@b+2,w
  2441     00D7  0471               	iorwf	___fladd@b+1,w
  2442     00D8  0470               	iorwf	___fladd@b,w
  2443     00D9  1D03               	skipz
  2444     00DA  28DC               	goto	u1151
  2445     00DB  28DE               	goto	u1150
  2446     00DC                     u1151:
  2447     00DC  3001               	movlw	1
  2448     00DD  28DF               	goto	u1160
  2449     00DE                     u1150:
  2450     00DE  3000               	movlw	0
  2451     00DF                     u1160:
  2452     00DF  00FB               	movwf	___fladd@grs
  2453     00E0  3000               	movlw	0
  2454     00E1  00F3               	movwf	___fladd@b+3
  2455     00E2  3000               	movlw	0
  2456     00E3  00F2               	movwf	___fladd@b+2
  2457     00E4  3000               	movlw	0
  2458     00E5  00F1               	movwf	___fladd@b+1
  2459     00E6  3000               	movlw	0
  2460     00E7  00F0               	movwf	___fladd@b
  2461     00E8  0879               	movf	___fladd@aexp,w
  2462     00E9  00FA               	movwf	___fladd@bexp
  2463     00EA  290D               	goto	l467
  2464     00EB                     l469:
  2465     00EB  1C7B               	btfss	___fladd@grs,0
  2466     00EC  28EE               	goto	u1171
  2467     00ED  28EF               	goto	u1170
  2468     00EE                     u1171:
  2469     00EE  28F3               	goto	l1210
  2470     00EF                     u1170:
  2471     00EF                     l1208:
  2472     00EF  367B               	lsrf	___fladd@grs,w
  2473     00F0  3801               	iorlw	1
  2474     00F1  00FB               	movwf	___fladd@grs
  2475     00F2  28F5               	goto	l1212
  2476     00F3                     l1210:
  2477     00F3  1003               	clrc
  2478     00F4  0CFB               	rrf	___fladd@grs,f
  2479     00F5                     l1212:
  2480     00F5  1C70               	btfss	___fladd@b,0
  2481     00F6  28F8               	goto	u1181
  2482     00F7  28F9               	goto	u1180
  2483     00F8                     u1181:
  2484     00F8  28FA               	goto	l1216
  2485     00F9                     u1180:
  2486     00F9                     l1214:
  2487     00F9  17FB               	bsf	___fladd@grs,7
  2488     00FA                     l1216:
  2489     00FA  3001               	movlw	1
  2490     00FB  0020               	movlb	0	; select bank0
  2491     00FC  00A0               	movwf	??___fladd
  2492     00FD                     u1195:
  2493     00FD  37F3               	asrf	___fladd@b+3,f
  2494     00FE  0CF2               	rrf	___fladd@b+2,f
  2495     00FF  0CF1               	rrf	___fladd@b+1,f
  2496     0100  0CF0               	rrf	___fladd@b,f
  2497     0101  0BA0               	decfsz	??___fladd& (0+127),f
  2498     0102  28FD               	goto	u1195
  2499     0103                     l1218:
  2500     0103  3001               	movlw	1
  2501     0104  00A0               	movwf	??___fladd
  2502     0105  0820               	movf	??___fladd,w
  2503     0106  07FA               	addwf	___fladd@bexp,f
  2504     0107                     l1220:
  2505     0107  0879               	movf	___fladd@aexp,w
  2506     0108  027A               	subwf	___fladd@bexp,w
  2507     0109  1C03               	skipc
  2508     010A  290C               	goto	u1201
  2509     010B  290D               	goto	u1200
  2510     010C                     u1201:
  2511     010C  28EB               	goto	l469
  2512     010D                     u1200:
  2513     010D                     l467:
  2514     010D  1B78               	btfsc	___fladd@signs,6
  2515     010E  2910               	goto	u1211
  2516     010F  2911               	goto	u1210
  2517     0110                     u1211:
  2518     0110  2948               	goto	l1246
  2519     0111                     u1210:
  2520     0111                     l1222:
  2521     0111  087A               	movf	___fladd@bexp,w
  2522     0112  1D03               	btfss	3,2
  2523     0113  2915               	goto	u1221
  2524     0114  2916               	goto	u1220
  2525     0115                     u1221:
  2526     0115  291F               	goto	l1228
  2527     0116                     u1220:
  2528     0116                     l1224:
  2529     0116  3000               	movlw	0
  2530     0117  00F3               	movwf	?___fladd+3
  2531     0118  3000               	movlw	0
  2532     0119  00F2               	movwf	?___fladd+2
  2533     011A  3000               	movlw	0
  2534     011B  00F1               	movwf	?___fladd+1
  2535     011C  3000               	movlw	0
  2536     011D  00F0               	movwf	?___fladd
  2537     011E  2A45               	goto	l476
  2538     011F                     l1228:
  2539     011F  0874               	movf	___fladd@a,w
  2540     0120  07F0               	addwf	___fladd@b,f
  2541     0121  0875               	movf	___fladd@a+1,w
  2542     0122  3DF1               	addwfc	___fladd@b+1,f
  2543     0123  0876               	movf	___fladd@a+2,w
  2544     0124  3DF2               	addwfc	___fladd@b+2,f
  2545     0125  0877               	movf	___fladd@a+3,w
  2546     0126  3DF3               	addwfc	___fladd@b+3,f
  2547     0127                     l1230:
  2548     0127  1C73               	btfss	___fladd@b+3,0
  2549     0128  292A               	goto	u1231
  2550     0129  292B               	goto	u1230
  2551     012A                     u1231:
  2552     012A  29D5               	goto	l1280
  2553     012B                     u1230:
  2554     012B                     l1232:
  2555     012B  1C7B               	btfss	___fladd@grs,0
  2556     012C  292E               	goto	u1241
  2557     012D  292F               	goto	u1240
  2558     012E                     u1241:
  2559     012E  2933               	goto	l1236
  2560     012F                     u1240:
  2561     012F                     l1234:
  2562     012F  367B               	lsrf	___fladd@grs,w
  2563     0130  3801               	iorlw	1
  2564     0131  00FB               	movwf	___fladd@grs
  2565     0132  2935               	goto	l1238
  2566     0133                     l1236:
  2567     0133  1003               	clrc
  2568     0134  0CFB               	rrf	___fladd@grs,f
  2569     0135                     l1238:
  2570     0135  1C70               	btfss	___fladd@b,0
  2571     0136  2938               	goto	u1251
  2572     0137  2939               	goto	u1250
  2573     0138                     u1251:
  2574     0138  293A               	goto	l1242
  2575     0139                     u1250:
  2576     0139                     l1240:
  2577     0139  17FB               	bsf	___fladd@grs,7
  2578     013A                     l1242:
  2579     013A  3001               	movlw	1
  2580     013B  0020               	movlb	0	; select bank0
  2581     013C  00A0               	movwf	??___fladd
  2582     013D                     u1265:
  2583     013D  37F3               	asrf	___fladd@b+3,f
  2584     013E  0CF2               	rrf	___fladd@b+2,f
  2585     013F  0CF1               	rrf	___fladd@b+1,f
  2586     0140  0CF0               	rrf	___fladd@b,f
  2587     0141  0BA0               	decfsz	??___fladd& (0+127),f
  2588     0142  293D               	goto	u1265
  2589     0143                     l1244:
  2590     0143  3001               	movlw	1
  2591     0144  00A0               	movwf	??___fladd
  2592     0145  0820               	movf	??___fladd,w
  2593     0146  07FA               	addwf	___fladd@bexp,f
  2594     0147  29D5               	goto	l1280
  2595     0148                     l1246:
  2596     0148  0873               	movf	___fladd@b+3,w
  2597     0149  3A80               	xorlw	128
  2598     014A  0020               	movlb	0	; select bank0
  2599     014B  00A0               	movwf	??___fladd
  2600     014C  0877               	movf	___fladd@a+3,w
  2601     014D  3A80               	xorlw	128
  2602     014E  0220               	subwf	??___fladd,w
  2603     014F  1D03               	skipz
  2604     0150  295B               	goto	u1273
  2605     0151  0876               	movf	___fladd@a+2,w
  2606     0152  0272               	subwf	___fladd@b+2,w
  2607     0153  1D03               	skipz
  2608     0154  295B               	goto	u1273
  2609     0155  0875               	movf	___fladd@a+1,w
  2610     0156  0271               	subwf	___fladd@b+1,w
  2611     0157  1D03               	skipz
  2612     0158  295B               	goto	u1273
  2613     0159  0874               	movf	___fladd@a,w
  2614     015A  0270               	subwf	___fladd@b,w
  2615     015B                     u1273:
  2616     015B  1803               	skipnc
  2617     015C  295E               	goto	u1271
  2618     015D  295F               	goto	u1270
  2619     015E                     u1271:
  2620     015E  2997               	goto	l1256
  2621     015F                     u1270:
  2622     015F                     l1248:
  2623     015F  30FF               	movlw	255
  2624     0160  00A0               	movwf	??___fladd
  2625     0161  30FF               	movlw	255
  2626     0162  00A1               	movwf	??___fladd+1
  2627     0163  30FF               	movlw	255
  2628     0164  00A2               	movwf	??___fladd+2
  2629     0165  30FF               	movlw	255
  2630     0166  00A3               	movwf	??___fladd+3
  2631     0167  0870               	movf	___fladd@b,w
  2632     0168  0274               	subwf	___fladd@a,w
  2633     0169  00A4               	movwf	??___fladd+4
  2634     016A  0871               	movf	___fladd@b+1,w
  2635     016B  3B75               	subwfb	___fladd@a+1,w
  2636     016C  00A5               	movwf	??___fladd+5
  2637     016D  0872               	movf	___fladd@b+2,w
  2638     016E  3B76               	subwfb	___fladd@a+2,w
  2639     016F  00A6               	movwf	??___fladd+6
  2640     0170  0873               	movf	___fladd@b+3,w
  2641     0171  3B77               	subwfb	___fladd@a+3,w
  2642     0172  00A7               	movwf	??___fladd+7
  2643     0173  0824               	movf	??___fladd+4,w
  2644     0174  07A0               	addwf	??___fladd,f
  2645     0175  0825               	movf	??___fladd+5,w
  2646     0176  3DA1               	addwfc	??___fladd+1,f
  2647     0177  0826               	movf	??___fladd+6,w
  2648     0178  3DA2               	addwfc	??___fladd+2,f
  2649     0179  0827               	movf	??___fladd+7,w
  2650     017A  3DA3               	addwfc	??___fladd+3,f
  2651     017B  0823               	movf	??___fladd+3,w
  2652     017C  00F3               	movwf	___fladd@b+3
  2653     017D  0822               	movf	??___fladd+2,w
  2654     017E  00F2               	movwf	___fladd@b+2
  2655     017F  0821               	movf	??___fladd+1,w
  2656     0180  00F1               	movwf	___fladd@b+1
  2657     0181  0820               	movf	??___fladd,w
  2658     0182  00F0               	movwf	___fladd@b
  2659     0183                     l1250:
  2660     0183  3080               	movlw	128
  2661     0184  00A0               	movwf	??___fladd
  2662     0185  0820               	movf	??___fladd,w
  2663     0186  06F8               	xorwf	___fladd@signs,f
  2664     0187  09FB               	comf	___fladd@grs,f
  2665     0188  0AFB               	incf	___fladd@grs,f
  2666     0189                     l1252:
  2667     0189  087B               	movf	___fladd@grs,w
  2668     018A  1D03               	btfss	3,2
  2669     018B  298D               	goto	u1281
  2670     018C  298E               	goto	u1280
  2671     018D                     u1281:
  2672     018D  299F               	goto	l484
  2673     018E                     u1280:
  2674     018E                     l1254:
  2675     018E  3001               	movlw	1
  2676     018F  07F0               	addwf	___fladd@b,f
  2677     0190  3000               	movlw	0
  2678     0191  3DF1               	addwfc	___fladd@b+1,f
  2679     0192  3000               	movlw	0
  2680     0193  3DF2               	addwfc	___fladd@b+2,f
  2681     0194  3000               	movlw	0
  2682     0195  3DF3               	addwfc	___fladd@b+3,f
  2683     0196  299F               	goto	l484
  2684     0197                     l1256:
  2685     0197  0874               	movf	___fladd@a,w
  2686     0198  02F0               	subwf	___fladd@b,f
  2687     0199  0875               	movf	___fladd@a+1,w
  2688     019A  3BF1               	subwfb	___fladd@b+1,f
  2689     019B  0876               	movf	___fladd@a+2,w
  2690     019C  3BF2               	subwfb	___fladd@b+2,f
  2691     019D  0877               	movf	___fladd@a+3,w
  2692     019E  3BF3               	subwfb	___fladd@b+3,f
  2693     019F                     l484:
  2694     019F  0873               	movf	___fladd@b+3,w
  2695     01A0  0472               	iorwf	___fladd@b+2,w
  2696     01A1  0471               	iorwf	___fladd@b+1,w
  2697     01A2  0470               	iorwf	___fladd@b,w
  2698     01A3  1D03               	skipz
  2699     01A4  29A6               	goto	u1291
  2700     01A5  29A7               	goto	u1290
  2701     01A6                     u1291:
  2702     01A6  29D1               	goto	l1278
  2703     01A7                     u1290:
  2704     01A7                     l1258:
  2705     01A7  087B               	movf	___fladd@grs,w
  2706     01A8  1D03               	btfss	3,2
  2707     01A9  29AB               	goto	u1301
  2708     01AA  29AC               	goto	u1300
  2709     01AB                     u1301:
  2710     01AB  29D1               	goto	l1278
  2711     01AC                     u1300:
  2712     01AC                     l1260:
  2713     01AC  3000               	movlw	0
  2714     01AD  00F3               	movwf	?___fladd+3
  2715     01AE  3000               	movlw	0
  2716     01AF  00F2               	movwf	?___fladd+2
  2717     01B0  3000               	movlw	0
  2718     01B1  00F1               	movwf	?___fladd+1
  2719     01B2  3000               	movlw	0
  2720     01B3  00F0               	movwf	?___fladd
  2721     01B4  2A45               	goto	l476
  2722     01B5                     l1264:
  2723     01B5  3001               	movlw	1
  2724     01B6                     u1315:
  2725     01B6  35F0               	lslf	___fladd@b,f
  2726     01B7  0DF1               	rlf	___fladd@b+1,f
  2727     01B8  0DF2               	rlf	___fladd@b+2,f
  2728     01B9  0DF3               	rlf	___fladd@b+3,f
  2729     01BA  0B89               	decfsz	9,f
  2730     01BB  29B6               	goto	u1315
  2731     01BC                     l1266:
  2732     01BC  1FFB               	btfss	___fladd@grs,7
  2733     01BD  29BF               	goto	u1321
  2734     01BE  29C0               	goto	u1320
  2735     01BF                     u1321:
  2736     01BF  29C1               	goto	l488
  2737     01C0                     u1320:
  2738     01C0                     l1268:
  2739     01C0  1470               	bsf	___fladd@b,0
  2740     01C1                     l488:
  2741     01C1  1C7B               	btfss	___fladd@grs,0
  2742     01C2  29C4               	goto	u1331
  2743     01C3  29C5               	goto	u1330
  2744     01C4                     u1331:
  2745     01C4  29C8               	goto	l1272
  2746     01C5                     u1330:
  2747     01C5                     l1270:
  2748     01C5  1403               	setc
  2749     01C6  0DFB               	rlf	___fladd@grs,f
  2750     01C7  29CA               	goto	l1274
  2751     01C8                     l1272:
  2752     01C8  1003               	clrc
  2753     01C9  0DFB               	rlf	___fladd@grs,f
  2754     01CA                     l1274:
  2755     01CA  087A               	movf	___fladd@bexp,w
  2756     01CB  1903               	btfsc	3,2
  2757     01CC  29CE               	goto	u1341
  2758     01CD  29CF               	goto	u1340
  2759     01CE                     u1341:
  2760     01CE  29D1               	goto	l1278
  2761     01CF                     u1340:
  2762     01CF                     l1276:
  2763     01CF  3001               	movlw	1
  2764     01D0  02FA               	subwf	___fladd@bexp,f
  2765     01D1                     l1278:
  2766     01D1  1FF2               	btfss	___fladd@b+2,7
  2767     01D2  29D4               	goto	u1351
  2768     01D3  29D5               	goto	u1350
  2769     01D4                     u1351:
  2770     01D4  29B5               	goto	l1264
  2771     01D5                     u1350:
  2772     01D5                     l1280:
  2773     01D5  01F9               	clrf	___fladd@aexp
  2774     01D6                     l1282:
  2775     01D6  1FFB               	btfss	___fladd@grs,7
  2776     01D7  29D9               	goto	u1361
  2777     01D8  29DA               	goto	u1360
  2778     01D9                     u1361:
  2779     01D9  29E8               	goto	l1290
  2780     01DA                     u1360:
  2781     01DA                     l1284:
  2782     01DA  087B               	movf	___fladd@grs,w
  2783     01DB  397F               	andlw	127
  2784     01DC  1903               	btfsc	3,2
  2785     01DD  29DF               	goto	u1371
  2786     01DE  29E0               	goto	u1370
  2787     01DF                     u1371:
  2788     01DF  29E3               	goto	l494
  2789     01E0                     u1370:
  2790     01E0                     l1286:
  2791     01E0  01F9               	clrf	___fladd@aexp
  2792     01E1  0AF9               	incf	___fladd@aexp,f
  2793     01E2  29E8               	goto	l1290
  2794     01E3                     l494:
  2795     01E3  1C70               	btfss	___fladd@b,0
  2796     01E4  29E6               	goto	u1381
  2797     01E5  29E7               	goto	u1380
  2798     01E6                     u1381:
  2799     01E6  29E8               	goto	l1290
  2800     01E7                     u1380:
  2801     01E7  29E0               	goto	l1286
  2802     01E8                     l1290:
  2803     01E8  0879               	movf	___fladd@aexp,w
  2804     01E9  1903               	btfsc	3,2
  2805     01EA  29EC               	goto	u1391
  2806     01EB  29ED               	goto	u1390
  2807     01EC                     u1391:
  2808     01EC  2A1B               	goto	l497
  2809     01ED                     u1390:
  2810     01ED                     l1292:
  2811     01ED  3001               	movlw	1
  2812     01EE  07F0               	addwf	___fladd@b,f
  2813     01EF  3000               	movlw	0
  2814     01F0  3DF1               	addwfc	___fladd@b+1,f
  2815     01F1  3000               	movlw	0
  2816     01F2  3DF2               	addwfc	___fladd@b+2,f
  2817     01F3  3000               	movlw	0
  2818     01F4  3DF3               	addwfc	___fladd@b+3,f
  2819     01F5                     l1294:
  2820     01F5  1C73               	btfss	___fladd@b+3,0
  2821     01F6  29F8               	goto	u1401
  2822     01F7  29F9               	goto	u1400
  2823     01F8                     u1401:
  2824     01F8  2A1B               	goto	l497
  2825     01F9                     u1400:
  2826     01F9                     l1296:
  2827     01F9  0870               	movf	___fladd@b,w
  2828     01FA  0020               	movlb	0	; select bank0
  2829     01FB  00A0               	movwf	??___fladd
  2830     01FC  0871               	movf	___fladd@b+1,w
  2831     01FD  00A1               	movwf	??___fladd+1
  2832     01FE  0872               	movf	___fladd@b+2,w
  2833     01FF  00A2               	movwf	??___fladd+2
  2834     0200  0873               	movf	___fladd@b+3,w
  2835     0201  00A3               	movwf	??___fladd+3
  2836     0202  3001               	movlw	1
  2837     0203  00A4               	movwf	??___fladd+4
  2838     0204                     u1415:
  2839     0204  37A3               	asrf	??___fladd+3,f
  2840     0205  0CA2               	rrf	??___fladd+2,f
  2841     0206  0CA1               	rrf	??___fladd+1,f
  2842     0207  0CA0               	rrf	??___fladd,f
  2843     0208                     u1410:
  2844     0208  0BA4               	decfsz	??___fladd+4,f
  2845     0209  2A04               	goto	u1415
  2846     020A  0823               	movf	??___fladd+3,w
  2847     020B  00F3               	movwf	___fladd@b+3
  2848     020C  0822               	movf	??___fladd+2,w
  2849     020D  00F2               	movwf	___fladd@b+2
  2850     020E  0821               	movf	??___fladd+1,w
  2851     020F  00F1               	movwf	___fladd@b+1
  2852     0210  0820               	movf	??___fladd,w
  2853     0211  00F0               	movwf	___fladd@b
  2854     0212  0A7A               	incf	___fladd@bexp,w
  2855     0213  1903               	btfsc	3,2
  2856     0214  2A16               	goto	u1421
  2857     0215  2A17               	goto	u1420
  2858     0216                     u1421:
  2859     0216  2A1B               	goto	l497
  2860     0217                     u1420:
  2861     0217                     l1298:
  2862     0217  3001               	movlw	1
  2863     0218  00A0               	movwf	??___fladd
  2864     0219  0820               	movf	??___fladd,w
  2865     021A  07FA               	addwf	___fladd@bexp,f
  2866     021B                     l497:
  2867     021B  0A7A               	incf	___fladd@bexp,w
  2868     021C  1903               	btfsc	3,2
  2869     021D  2A1F               	goto	u1431
  2870     021E  2A20               	goto	u1430
  2871     021F                     u1431:
  2872     021F  2A25               	goto	l1302
  2873     0220                     u1430:
  2874     0220                     l1300:
  2875     0220  087A               	movf	___fladd@bexp,w
  2876     0221  1D03               	btfss	3,2
  2877     0222  2A24               	goto	u1441
  2878     0223  2A25               	goto	u1440
  2879     0224                     u1441:
  2880     0224  2A33               	goto	l1308
  2881     0225                     u1440:
  2882     0225                     l1302:
  2883     0225  3000               	movlw	0
  2884     0226  00F3               	movwf	___fladd@b+3
  2885     0227  3000               	movlw	0
  2886     0228  00F2               	movwf	___fladd@b+2
  2887     0229  3000               	movlw	0
  2888     022A  00F1               	movwf	___fladd@b+1
  2889     022B  3000               	movlw	0
  2890     022C  00F0               	movwf	___fladd@b
  2891     022D                     l1304:
  2892     022D  087A               	movf	___fladd@bexp,w
  2893     022E  1D03               	btfss	3,2
  2894     022F  2A31               	goto	u1451
  2895     0230  2A32               	goto	u1450
  2896     0231                     u1451:
  2897     0231  2A33               	goto	l1308
  2898     0232                     u1450:
  2899     0232                     l1306:
  2900     0232  01F8               	clrf	___fladd@signs
  2901     0233                     l1308:
  2902     0233  1C7A               	btfss	___fladd@bexp,0
  2903     0234  2A36               	goto	u1461
  2904     0235  2A37               	goto	u1460
  2905     0236                     u1461:
  2906     0236  2A39               	goto	l1312
  2907     0237                     u1460:
  2908     0237                     l1310:
  2909     0237  17F2               	bsf	___fladd@b+2,7
  2910     0238  2A3E               	goto	l505
  2911     0239                     l1312:
  2912     0239  307F               	movlw	127
  2913     023A  0020               	movlb	0	; select bank0
  2914     023B  00A0               	movwf	??___fladd
  2915     023C  0820               	movf	??___fladd,w
  2916     023D  05F2               	andwf	___fladd@b+2,f
  2917     023E                     l505:
  2918     023E  367A               	lsrf	___fladd@bexp,w
  2919     023F  00F3               	movwf	___fladd@b+3
  2920     0240                     l1314:
  2921     0240  1FF8               	btfss	___fladd@signs,7
  2922     0241  2A43               	goto	u1471
  2923     0242  2A44               	goto	u1470
  2924     0243                     u1471:
  2925     0243  2A45               	goto	l506
  2926     0244                     u1470:
  2927     0244                     l1316:
  2928     0244  17F3               	bsf	___fladd@b+3,7
  2929     0245                     l506:
  2930     0245                     l476:
  2931     0245  0008               	return
  2932     0246                     __end_of___fladd:
  2933                           
  2934                           	psect	text9
  2935     0246                     __ptext9:	
  2936 ;; *************** function ___fldiv *****************
  2937 ;; Defined at:
  2938 ;;		line 8 in file "C:\Program Files\Microchip\xc8\v2.45\pic\sources\c99\common\sprcdiv.c"
  2939 ;; Parameters:    Size  Location     Type
  2940 ;;  a               4    0[BANK0 ] unsigned char 
  2941 ;;  b               4    4[BANK0 ] unsigned char 
  2942 ;; Auto vars:     Size  Location     Type
  2943 ;;  grs             4   20[BANK0 ] unsigned long 
  2944 ;;  rem             4   13[BANK0 ] unsigned long 
  2945 ;;  new_exp         2   18[BANK0 ] short 
  2946 ;;  aexp            1   25[BANK0 ] unsigned char 
  2947 ;;  bexp            1   24[BANK0 ] unsigned char 
  2948 ;;  sign            1   17[BANK0 ] unsigned char 
  2949 ;; Return value:  Size  Location     Type
  2950 ;;                  4    0[BANK0 ] unsigned char 
  2951 ;; Registers used:
  2952 ;;		wreg, status,2, status,0
  2953 ;; Tracked objects:
  2954 ;;		On entry : 0/0
  2955 ;;		On exit  : 0/0
  2956 ;;		Unchanged: 0/0
  2957 ;; Data sizes:     COMMON   BANK0   BANK1   BANK2   BANK3   BANK4   BANK5   BANK6   BANK7   BANK8   BANK9  BANK10  BANK1
      +1  BANK12  BANK13  BANK14  BANK15  BANK16  BANK17  BANK18  BANK19  BANK20  BANK21  BANK22  BANK23  BANK24  BANK25
  2958 ;;      Params:         0       8       0       0       0       0       0       0       0       0       0       0       
      +0       0       0       0       0       0       0       0       0       0       0       0       0       0       0
  2959 ;;      Locals:         0      13       0       0       0       0       0       0       0       0       0       0       
      +0       0       0       0       0       0       0       0       0       0       0       0       0       0       0
  2960 ;;      Temps:          0       5       0       0       0       0       0       0       0       0       0       0       
      +0       0       0       0       0       0       0       0       0       0       0       0       0       0       0
  2961 ;;      Totals:         0      26       0       0       0       0       0       0       0       0       0       0       
      +0       0       0       0       0       0       0       0       0       0       0       0       0       0       0
  2962 ;;Total ram usage:       26 bytes
  2963 ;; Hardware stack levels used: 1
  2964 ;; Hardware stack levels required when called: 1
  2965 ;; This function calls:
  2966 ;;		Nothing
  2967 ;; This function is called by:
  2968 ;;		_Sound_Play
  2969 ;; This function uses a non-reentrant model
  2970 ;;
  2971                           
  2972     0246                     ___fldiv:	
  2973                           ;psect for function ___fldiv
  2974                           
  2975     0246                     l1366:	
  2976                           ;incstack = 0
  2977                           ; Regs used in ___fldiv: [wreg+status,2+status,0]
  2978                           
  2979     0246  0020               	movlb	0	; select bank0
  2980     0247  0827               	movf	___fldiv@b+3,w
  2981     0248  3980               	andlw	128
  2982     0249  00B1               	movwf	___fldiv@sign
  2983     024A                     l1368:
  2984     024A  3527               	lslf	___fldiv@b+3,w
  2985     024B  00B8               	movwf	___fldiv@bexp
  2986     024C                     l1370:
  2987     024C  1FA6               	btfss	___fldiv@b+2,7
  2988     024D  2A4F               	goto	u1591
  2989     024E  2A50               	goto	u1590
  2990     024F                     u1591:
  2991     024F  2A51               	goto	l1374
  2992     0250                     u1590:
  2993     0250                     l1372:
  2994     0250  1438               	bsf	___fldiv@bexp,0
  2995     0251                     l1374:
  2996     0251  0838               	movf	___fldiv@bexp,w
  2997     0252  1903               	btfsc	3,2
  2998     0253  2A55               	goto	u1601
  2999     0254  2A56               	goto	u1600
  3000     0255                     u1601:
  3001     0255  2A66               	goto	l1384
  3002     0256                     u1600:
  3003     0256                     l1376:
  3004     0256  0A38               	incf	___fldiv@bexp,w
  3005     0257  1D03               	btfss	3,2
  3006     0258  2A5A               	goto	u1611
  3007     0259  2A5B               	goto	u1610
  3008     025A                     u1611:
  3009     025A  2A63               	goto	l1380
  3010     025B                     u1610:
  3011     025B                     l1378:
  3012     025B  3000               	movlw	0
  3013     025C  00A7               	movwf	___fldiv@b+3
  3014     025D  3000               	movlw	0
  3015     025E  00A6               	movwf	___fldiv@b+2
  3016     025F  3000               	movlw	0
  3017     0260  00A5               	movwf	___fldiv@b+1
  3018     0261  3000               	movlw	0
  3019     0262  00A4               	movwf	___fldiv@b
  3020     0263                     l1380:
  3021     0263  17A6               	bsf	___fldiv@b+2,7
  3022     0264                     l1382:
  3023     0264  01A7               	clrf	___fldiv@b+3
  3024     0265  2A6E               	goto	l1386
  3025     0266                     l1384:
  3026     0266  3000               	movlw	0
  3027     0267  00A7               	movwf	___fldiv@b+3
  3028     0268  3000               	movlw	0
  3029     0269  00A6               	movwf	___fldiv@b+2
  3030     026A  3000               	movlw	0
  3031     026B  00A5               	movwf	___fldiv@b+1
  3032     026C  3000               	movlw	0
  3033     026D  00A4               	movwf	___fldiv@b
  3034     026E                     l1386:
  3035     026E  0823               	movf	___fldiv@a+3,w
  3036     026F  3980               	andlw	128
  3037     0270  00A8               	movwf	??___fldiv
  3038     0271  0828               	movf	??___fldiv,w
  3039     0272  06B1               	xorwf	___fldiv@sign,f
  3040     0273                     l1388:
  3041     0273  3523               	lslf	___fldiv@a+3,w
  3042     0274  00B9               	movwf	___fldiv@aexp
  3043     0275                     l1390:
  3044     0275  1FA2               	btfss	___fldiv@a+2,7
  3045     0276  2A78               	goto	u1621
  3046     0277  2A79               	goto	u1620
  3047     0278                     u1621:
  3048     0278  2A7A               	goto	l1394
  3049     0279                     u1620:
  3050     0279                     l1392:
  3051     0279  1439               	bsf	___fldiv@aexp,0
  3052     027A                     l1394:
  3053     027A  0839               	movf	___fldiv@aexp,w
  3054     027B  1903               	btfsc	3,2
  3055     027C  2A7E               	goto	u1631
  3056     027D  2A7F               	goto	u1630
  3057     027E                     u1631:
  3058     027E  2A8F               	goto	l1404
  3059     027F                     u1630:
  3060     027F                     l1396:
  3061     027F  0A39               	incf	___fldiv@aexp,w
  3062     0280  1D03               	btfss	3,2
  3063     0281  2A83               	goto	u1641
  3064     0282  2A84               	goto	u1640
  3065     0283                     u1641:
  3066     0283  2A8C               	goto	l1400
  3067     0284                     u1640:
  3068     0284                     l1398:
  3069     0284  3000               	movlw	0
  3070     0285  00A3               	movwf	___fldiv@a+3
  3071     0286  3000               	movlw	0
  3072     0287  00A2               	movwf	___fldiv@a+2
  3073     0288  3000               	movlw	0
  3074     0289  00A1               	movwf	___fldiv@a+1
  3075     028A  3000               	movlw	0
  3076     028B  00A0               	movwf	___fldiv@a
  3077     028C                     l1400:
  3078     028C  17A2               	bsf	___fldiv@a+2,7
  3079     028D                     l1402:
  3080     028D  01A3               	clrf	___fldiv@a+3
  3081     028E  2A97               	goto	l519
  3082     028F                     l1404:
  3083     028F  3000               	movlw	0
  3084     0290  00A3               	movwf	___fldiv@a+3
  3085     0291  3000               	movlw	0
  3086     0292  00A2               	movwf	___fldiv@a+2
  3087     0293  3000               	movlw	0
  3088     0294  00A1               	movwf	___fldiv@a+1
  3089     0295  3000               	movlw	0
  3090     0296  00A0               	movwf	___fldiv@a
  3091     0297                     l519:
  3092     0297  0823               	movf	___fldiv@a+3,w
  3093     0298  0422               	iorwf	___fldiv@a+2,w
  3094     0299  0421               	iorwf	___fldiv@a+1,w
  3095     029A  0420               	iorwf	___fldiv@a,w
  3096     029B  1D03               	skipz
  3097     029C  2A9E               	goto	u1651
  3098     029D  2A9F               	goto	u1650
  3099     029E                     u1651:
  3100     029E  2AB8               	goto	l1414
  3101     029F                     u1650:
  3102     029F                     l1406:
  3103     029F  3000               	movlw	0
  3104     02A0  00A7               	movwf	___fldiv@b+3
  3105     02A1  3000               	movlw	0
  3106     02A2  00A6               	movwf	___fldiv@b+2
  3107     02A3  3000               	movlw	0
  3108     02A4  00A5               	movwf	___fldiv@b+1
  3109     02A5  3000               	movlw	0
  3110     02A6  00A4               	movwf	___fldiv@b
  3111     02A7  3080               	movlw	128
  3112     02A8  04A6               	iorwf	___fldiv@b+2,f
  3113     02A9  307F               	movlw	127
  3114     02AA  04A7               	iorwf	___fldiv@b+3,f
  3115     02AB                     l1408:
  3116     02AB  0831               	movf	___fldiv@sign,w
  3117     02AC  00A8               	movwf	??___fldiv
  3118     02AD  0828               	movf	??___fldiv,w
  3119     02AE  04A7               	iorwf	___fldiv@b+3,f
  3120     02AF                     l1410:
  3121     02AF  0827               	movf	___fldiv@b+3,w
  3122     02B0  00A3               	movwf	?___fldiv+3
  3123     02B1  0826               	movf	___fldiv@b+2,w
  3124     02B2  00A2               	movwf	?___fldiv+2
  3125     02B3  0825               	movf	___fldiv@b+1,w
  3126     02B4  00A1               	movwf	?___fldiv+1
  3127     02B5  0824               	movf	___fldiv@b,w
  3128     02B6  00A0               	movwf	?___fldiv
  3129     02B7  2BEF               	goto	l521
  3130     02B8                     l1414:
  3131     02B8  0838               	movf	___fldiv@bexp,w
  3132     02B9  1D03               	btfss	3,2
  3133     02BA  2ABC               	goto	u1661
  3134     02BB  2ABD               	goto	u1660
  3135     02BC                     u1661:
  3136     02BC  2AC6               	goto	l1420
  3137     02BD                     u1660:
  3138     02BD                     l1416:
  3139     02BD  3000               	movlw	0
  3140     02BE  00A3               	movwf	?___fldiv+3
  3141     02BF  3000               	movlw	0
  3142     02C0  00A2               	movwf	?___fldiv+2
  3143     02C1  3000               	movlw	0
  3144     02C2  00A1               	movwf	?___fldiv+1
  3145     02C3  3000               	movlw	0
  3146     02C4  00A0               	movwf	?___fldiv
  3147     02C5  2BEF               	goto	l521
  3148     02C6                     l1420:
  3149     02C6  0838               	movf	___fldiv@bexp,w
  3150     02C7  00A8               	movwf	??___fldiv
  3151     02C8  01A9               	clrf	??___fldiv+1
  3152     02C9  0829               	movf	??___fldiv+1,w
  3153     02CA  00AB               	movwf	??___fldiv+3
  3154     02CB  0839               	movf	___fldiv@aexp,w
  3155     02CC  0228               	subwf	??___fldiv,w
  3156     02CD  00AA               	movwf	??___fldiv+2
  3157     02CE  1C03               	skipc
  3158     02CF  03AB               	decf	??___fldiv+3,f
  3159     02D0  082A               	movf	??___fldiv+2,w
  3160     02D1  3E7F               	addlw	127
  3161     02D2  00B2               	movwf	___fldiv@new_exp
  3162     02D3  3000               	movlw	0
  3163     02D4  3D2B               	addwfc	??___fldiv+3,w
  3164     02D5  00B3               	movwf	___fldiv@new_exp+1
  3165     02D6                     l1422:
  3166     02D6  0827               	movf	___fldiv@b+3,w
  3167     02D7  00B0               	movwf	___fldiv@rem+3
  3168     02D8  0826               	movf	___fldiv@b+2,w
  3169     02D9  00AF               	movwf	___fldiv@rem+2
  3170     02DA  0825               	movf	___fldiv@b+1,w
  3171     02DB  00AE               	movwf	___fldiv@rem+1
  3172     02DC  0824               	movf	___fldiv@b,w
  3173     02DD  00AD               	movwf	___fldiv@rem
  3174     02DE                     l1424:
  3175     02DE  3000               	movlw	0
  3176     02DF  00A7               	movwf	___fldiv@b+3
  3177     02E0  3000               	movlw	0
  3178     02E1  00A6               	movwf	___fldiv@b+2
  3179     02E2  3000               	movlw	0
  3180     02E3  00A5               	movwf	___fldiv@b+1
  3181     02E4  3000               	movlw	0
  3182     02E5  00A4               	movwf	___fldiv@b
  3183     02E6                     l1426:
  3184     02E6  3000               	movlw	0
  3185     02E7  00B7               	movwf	___fldiv@grs+3
  3186     02E8  3000               	movlw	0
  3187     02E9  00B6               	movwf	___fldiv@grs+2
  3188     02EA  3000               	movlw	0
  3189     02EB  00B5               	movwf	___fldiv@grs+1
  3190     02EC  3000               	movlw	0
  3191     02ED  00B4               	movwf	___fldiv@grs
  3192     02EE                     l1428:
  3193     02EE  01B9               	clrf	___fldiv@aexp
  3194     02EF  2B2E               	goto	l1448
  3195     02F0                     l1430:
  3196     02F0  0839               	movf	___fldiv@aexp,w
  3197     02F1  1903               	btfsc	3,2
  3198     02F2  2AF4               	goto	u1671
  3199     02F3  2AF5               	goto	u1670
  3200     02F4                     u1671:
  3201     02F4  2B0F               	goto	l1440
  3202     02F5                     u1670:
  3203     02F5                     l1432:
  3204     02F5  3001               	movlw	1
  3205     02F6                     u1685:
  3206     02F6  35AD               	lslf	___fldiv@rem,f
  3207     02F7  0DAE               	rlf	___fldiv@rem+1,f
  3208     02F8  0DAF               	rlf	___fldiv@rem+2,f
  3209     02F9  0DB0               	rlf	___fldiv@rem+3,f
  3210     02FA  0B89               	decfsz	9,f
  3211     02FB  2AF6               	goto	u1685
  3212     02FC  3001               	movlw	1
  3213     02FD                     u1695:
  3214     02FD  35A4               	lslf	___fldiv@b,f
  3215     02FE  0DA5               	rlf	___fldiv@b+1,f
  3216     02FF  0DA6               	rlf	___fldiv@b+2,f
  3217     0300  0DA7               	rlf	___fldiv@b+3,f
  3218     0301  0B89               	decfsz	9,f
  3219     0302  2AFD               	goto	u1695
  3220     0303                     l1434:
  3221     0303  1FB7               	btfss	___fldiv@grs+3,7
  3222     0304  2B06               	goto	u1701
  3223     0305  2B07               	goto	u1700
  3224     0306                     u1701:
  3225     0306  2B08               	goto	l1438
  3226     0307                     u1700:
  3227     0307                     l1436:
  3228     0307  1424               	bsf	___fldiv@b,0
  3229     0308                     l1438:
  3230     0308  3001               	movlw	1
  3231     0309                     u1715:
  3232     0309  35B4               	lslf	___fldiv@grs,f
  3233     030A  0DB5               	rlf	___fldiv@grs+1,f
  3234     030B  0DB6               	rlf	___fldiv@grs+2,f
  3235     030C  0DB7               	rlf	___fldiv@grs+3,f
  3236     030D  0B89               	decfsz	9,f
  3237     030E  2B09               	goto	u1715
  3238     030F                     l1440:
  3239     030F  0823               	movf	___fldiv@a+3,w
  3240     0310  0230               	subwf	___fldiv@rem+3,w
  3241     0311  1D03               	skipz
  3242     0312  2B1D               	goto	u1725
  3243     0313  0822               	movf	___fldiv@a+2,w
  3244     0314  022F               	subwf	___fldiv@rem+2,w
  3245     0315  1D03               	skipz
  3246     0316  2B1D               	goto	u1725
  3247     0317  0821               	movf	___fldiv@a+1,w
  3248     0318  022E               	subwf	___fldiv@rem+1,w
  3249     0319  1D03               	skipz
  3250     031A  2B1D               	goto	u1725
  3251     031B  0820               	movf	___fldiv@a,w
  3252     031C  022D               	subwf	___fldiv@rem,w
  3253     031D                     u1725:
  3254     031D  1C03               	skipc
  3255     031E  2B20               	goto	u1721
  3256     031F  2B21               	goto	u1720
  3257     0320                     u1721:
  3258     0320  2B2A               	goto	l1446
  3259     0321                     u1720:
  3260     0321                     l1442:
  3261     0321  1737               	bsf	___fldiv@grs+3,6
  3262     0322                     l1444:
  3263     0322  0820               	movf	___fldiv@a,w
  3264     0323  02AD               	subwf	___fldiv@rem,f
  3265     0324  0821               	movf	___fldiv@a+1,w
  3266     0325  3BAE               	subwfb	___fldiv@rem+1,f
  3267     0326  0822               	movf	___fldiv@a+2,w
  3268     0327  3BAF               	subwfb	___fldiv@rem+2,f
  3269     0328  0823               	movf	___fldiv@a+3,w
  3270     0329  3BB0               	subwfb	___fldiv@rem+3,f
  3271     032A                     l1446:
  3272     032A  3001               	movlw	1
  3273     032B  00A8               	movwf	??___fldiv
  3274     032C  0828               	movf	??___fldiv,w
  3275     032D  07B9               	addwf	___fldiv@aexp,f
  3276     032E                     l1448:
  3277     032E  301A               	movlw	26
  3278     032F  0239               	subwf	___fldiv@aexp,w
  3279     0330  1C03               	skipc
  3280     0331  2B33               	goto	u1731
  3281     0332  2B34               	goto	u1730
  3282     0333                     u1731:
  3283     0333  2AF0               	goto	l1430
  3284     0334                     u1730:
  3285     0334                     l1450:
  3286     0334  0830               	movf	___fldiv@rem+3,w
  3287     0335  042F               	iorwf	___fldiv@rem+2,w
  3288     0336  042E               	iorwf	___fldiv@rem+1,w
  3289     0337  042D               	iorwf	___fldiv@rem,w
  3290     0338  1903               	skipnz
  3291     0339  2B3B               	goto	u1741
  3292     033A  2B3C               	goto	u1740
  3293     033B                     u1741:
  3294     033B  2B55               	goto	l1464
  3295     033C                     u1740:
  3296     033C                     l1452:
  3297     033C  1434               	bsf	___fldiv@grs,0
  3298     033D  2B55               	goto	l1464
  3299     033E                     l1454:
  3300     033E  3001               	movlw	1
  3301     033F                     u1755:
  3302     033F  35A4               	lslf	___fldiv@b,f
  3303     0340  0DA5               	rlf	___fldiv@b+1,f
  3304     0341  0DA6               	rlf	___fldiv@b+2,f
  3305     0342  0DA7               	rlf	___fldiv@b+3,f
  3306     0343  0B89               	decfsz	9,f
  3307     0344  2B3F               	goto	u1755
  3308     0345                     l1456:
  3309     0345  1FB7               	btfss	___fldiv@grs+3,7
  3310     0346  2B48               	goto	u1761
  3311     0347  2B49               	goto	u1760
  3312     0348                     u1761:
  3313     0348  2B4A               	goto	l1460
  3314     0349                     u1760:
  3315     0349                     l1458:
  3316     0349  1424               	bsf	___fldiv@b,0
  3317     034A                     l1460:
  3318     034A  3001               	movlw	1
  3319     034B                     u1775:
  3320     034B  35B4               	lslf	___fldiv@grs,f
  3321     034C  0DB5               	rlf	___fldiv@grs+1,f
  3322     034D  0DB6               	rlf	___fldiv@grs+2,f
  3323     034E  0DB7               	rlf	___fldiv@grs+3,f
  3324     034F  0B89               	decfsz	9,f
  3325     0350  2B4B               	goto	u1775
  3326     0351                     l1462:
  3327     0351  30FF               	movlw	255
  3328     0352  07B2               	addwf	___fldiv@new_exp,f
  3329     0353  30FF               	movlw	255
  3330     0354  3DB3               	addwfc	___fldiv@new_exp+1,f
  3331     0355                     l1464:
  3332     0355  1FA6               	btfss	___fldiv@b+2,7
  3333     0356  2B58               	goto	u1781
  3334     0357  2B59               	goto	u1780
  3335     0358                     u1781:
  3336     0358  2B3E               	goto	l1454
  3337     0359                     u1780:
  3338     0359                     l1466:
  3339     0359  01B9               	clrf	___fldiv@aexp
  3340     035A                     l1468:
  3341     035A  1FB7               	btfss	___fldiv@grs+3,7
  3342     035B  2B5D               	goto	u1791
  3343     035C  2B5E               	goto	u1790
  3344     035D                     u1791:
  3345     035D  2B7A               	goto	l1476
  3346     035E                     u1790:
  3347     035E                     l1470:
  3348     035E  30FF               	movlw	255
  3349     035F  0534               	andwf	___fldiv@grs,w
  3350     0360  00A8               	movwf	??___fldiv
  3351     0361  30FF               	movlw	255
  3352     0362  0535               	andwf	___fldiv@grs+1,w
  3353     0363  00A9               	movwf	??___fldiv+1
  3354     0364  30FF               	movlw	255
  3355     0365  0536               	andwf	___fldiv@grs+2,w
  3356     0366  00AA               	movwf	??___fldiv+2
  3357     0367  307F               	movlw	127
  3358     0368  0537               	andwf	___fldiv@grs+3,w
  3359     0369  00AB               	movwf	??___fldiv+3
  3360     036A  082B               	movf	??___fldiv+3,w
  3361     036B  042A               	iorwf	??___fldiv+2,w
  3362     036C  0429               	iorwf	??___fldiv+1,w
  3363     036D  0428               	iorwf	??___fldiv,w
  3364     036E  1903               	skipnz
  3365     036F  2B71               	goto	u1801
  3366     0370  2B72               	goto	u1800
  3367     0371                     u1801:
  3368     0371  2B75               	goto	l535
  3369     0372                     u1800:
  3370     0372                     l1472:
  3371     0372  01B9               	clrf	___fldiv@aexp
  3372     0373  0AB9               	incf	___fldiv@aexp,f
  3373     0374  2B7A               	goto	l1476
  3374     0375                     l535:
  3375     0375  1C24               	btfss	___fldiv@b,0
  3376     0376  2B78               	goto	u1811
  3377     0377  2B79               	goto	u1810
  3378     0378                     u1811:
  3379     0378  2B7A               	goto	l1476
  3380     0379                     u1810:
  3381     0379  2B72               	goto	l1472
  3382     037A                     l1476:
  3383     037A  0839               	movf	___fldiv@aexp,w
  3384     037B  1903               	btfsc	3,2
  3385     037C  2B7E               	goto	u1821
  3386     037D  2B7F               	goto	u1820
  3387     037E                     u1821:
  3388     037E  2BA7               	goto	l1486
  3389     037F                     u1820:
  3390     037F                     l1478:
  3391     037F  3001               	movlw	1
  3392     0380  07A4               	addwf	___fldiv@b,f
  3393     0381  3000               	movlw	0
  3394     0382  3DA5               	addwfc	___fldiv@b+1,f
  3395     0383  3000               	movlw	0
  3396     0384  3DA6               	addwfc	___fldiv@b+2,f
  3397     0385  3000               	movlw	0
  3398     0386  3DA7               	addwfc	___fldiv@b+3,f
  3399     0387                     l1480:
  3400     0387  1C27               	btfss	___fldiv@b+3,0
  3401     0388  2B8A               	goto	u1831
  3402     0389  2B8B               	goto	u1830
  3403     038A                     u1831:
  3404     038A  2BA7               	goto	l1486
  3405     038B                     u1830:
  3406     038B                     l1482:
  3407     038B  0824               	movf	___fldiv@b,w
  3408     038C  00A8               	movwf	??___fldiv
  3409     038D  0825               	movf	___fldiv@b+1,w
  3410     038E  00A9               	movwf	??___fldiv+1
  3411     038F  0826               	movf	___fldiv@b+2,w
  3412     0390  00AA               	movwf	??___fldiv+2
  3413     0391  0827               	movf	___fldiv@b+3,w
  3414     0392  00AB               	movwf	??___fldiv+3
  3415     0393  3001               	movlw	1
  3416     0394  00AC               	movwf	??___fldiv+4
  3417     0395                     u1845:
  3418     0395  37AB               	asrf	??___fldiv+3,f
  3419     0396  0CAA               	rrf	??___fldiv+2,f
  3420     0397  0CA9               	rrf	??___fldiv+1,f
  3421     0398  0CA8               	rrf	??___fldiv,f
  3422     0399                     u1840:
  3423     0399  0BAC               	decfsz	??___fldiv+4,f
  3424     039A  2B95               	goto	u1845
  3425     039B  082B               	movf	??___fldiv+3,w
  3426     039C  00A7               	movwf	___fldiv@b+3
  3427     039D  082A               	movf	??___fldiv+2,w
  3428     039E  00A6               	movwf	___fldiv@b+2
  3429     039F  0829               	movf	??___fldiv+1,w
  3430     03A0  00A5               	movwf	___fldiv@b+1
  3431     03A1  0828               	movf	??___fldiv,w
  3432     03A2  00A4               	movwf	___fldiv@b
  3433     03A3                     l1484:
  3434     03A3  3001               	movlw	1
  3435     03A4  07B2               	addwf	___fldiv@new_exp,f
  3436     03A5  3000               	movlw	0
  3437     03A6  3DB3               	addwfc	___fldiv@new_exp+1,f
  3438     03A7                     l1486:
  3439     03A7  0833               	movf	___fldiv@new_exp+1,w
  3440     03A8  3A80               	xorlw	128
  3441     03A9  00A8               	movwf	??___fldiv
  3442     03AA  3080               	movlw	128
  3443     03AB  0228               	subwf	??___fldiv,w
  3444     03AC  1D03               	skipz
  3445     03AD  2BB0               	goto	u1855
  3446     03AE  30FF               	movlw	255
  3447     03AF  0232               	subwf	___fldiv@new_exp,w
  3448     03B0                     u1855:
  3449     03B0  1C03               	skipc
  3450     03B1  2BB3               	goto	u1851
  3451     03B2  2BB4               	goto	u1850
  3452     03B3                     u1851:
  3453     03B3  2BC1               	goto	l540
  3454     03B4                     u1850:
  3455     03B4                     l1488:
  3456     03B4  30FF               	movlw	255
  3457     03B5  0020               	movlb	0	; select bank0
  3458     03B6  00B2               	movwf	___fldiv@new_exp
  3459     03B7  3000               	movlw	0
  3460     03B8  00B3               	movwf	___fldiv@new_exp+1
  3461     03B9  3000               	movlw	0
  3462     03BA  00A7               	movwf	___fldiv@b+3
  3463     03BB  3000               	movlw	0
  3464     03BC  00A6               	movwf	___fldiv@b+2
  3465     03BD  3000               	movlw	0
  3466     03BE  00A5               	movwf	___fldiv@b+1
  3467     03BF  3000               	movlw	0
  3468     03C0  00A4               	movwf	___fldiv@b
  3469     03C1                     l540:
  3470     03C1  0020               	movlb	0	; select bank0
  3471     03C2  0833               	movf	___fldiv@new_exp+1,w
  3472     03C3  3A80               	xorlw	128
  3473     03C4  00A8               	movwf	??___fldiv
  3474     03C5  3080               	movlw	128
  3475     03C6  0228               	subwf	??___fldiv,w
  3476     03C7  1D03               	skipz
  3477     03C8  2BCB               	goto	u1865
  3478     03C9  3001               	movlw	1
  3479     03CA  0232               	subwf	___fldiv@new_exp,w
  3480     03CB                     u1865:
  3481     03CB  1803               	skipnc
  3482     03CC  2BCE               	goto	u1861
  3483     03CD  2BCF               	goto	u1860
  3484     03CE                     u1861:
  3485     03CE  2BDB               	goto	l541
  3486     03CF                     u1860:
  3487     03CF                     l1490:
  3488     03CF  0020               	movlb	0	; select bank0
  3489     03D0  01B2               	clrf	___fldiv@new_exp
  3490     03D1  01B3               	clrf	___fldiv@new_exp+1
  3491     03D2                     l1492:
  3492     03D2  3000               	movlw	0
  3493     03D3  00A7               	movwf	___fldiv@b+3
  3494     03D4  3000               	movlw	0
  3495     03D5  00A6               	movwf	___fldiv@b+2
  3496     03D6  3000               	movlw	0
  3497     03D7  00A5               	movwf	___fldiv@b+1
  3498     03D8  3000               	movlw	0
  3499     03D9  00A4               	movwf	___fldiv@b
  3500     03DA                     l1494:
  3501     03DA  01B1               	clrf	___fldiv@sign
  3502     03DB                     l541:
  3503     03DB  0020               	movlb	0	; select bank0
  3504     03DC  0832               	movf	___fldiv@new_exp,w
  3505     03DD  00B8               	movwf	___fldiv@bexp
  3506     03DE                     l1496:
  3507     03DE  1C38               	btfss	___fldiv@bexp,0
  3508     03DF  2BE1               	goto	u1871
  3509     03E0  2BE2               	goto	u1870
  3510     03E1                     u1871:
  3511     03E1  2BE4               	goto	l1500
  3512     03E2                     u1870:
  3513     03E2                     l1498:
  3514     03E2  17A6               	bsf	___fldiv@b+2,7
  3515     03E3  2BE8               	goto	l543
  3516     03E4                     l1500:
  3517     03E4  307F               	movlw	127
  3518     03E5  00A8               	movwf	??___fldiv
  3519     03E6  0828               	movf	??___fldiv,w
  3520     03E7  05A6               	andwf	___fldiv@b+2,f
  3521     03E8                     l543:
  3522     03E8  3638               	lsrf	___fldiv@bexp,w
  3523     03E9  00A7               	movwf	___fldiv@b+3
  3524     03EA  0831               	movf	___fldiv@sign,w
  3525     03EB  00A8               	movwf	??___fldiv
  3526     03EC  0828               	movf	??___fldiv,w
  3527     03ED  04A7               	iorwf	___fldiv@b+3,f
  3528     03EE  2AAF               	goto	l1410
  3529     03EF                     l521:
  3530     03EF  0008               	return
  3531     03F0                     __end_of___fldiv:
  3532                           
  3533                           	psect	text10
  3534     0675                     __ptext10:	
  3535 ;; *************** function _Delay_Ms *****************
  3536 ;; Defined at:
  3537 ;;		line 30 in file "main.c"
  3538 ;; Parameters:    Size  Location     Type
  3539 ;;  s               2    0[COMMON] unsigned int 
  3540 ;; Auto vars:     Size  Location     Type
  3541 ;;  j               2    3[COMMON] unsigned int 
  3542 ;; Return value:  Size  Location     Type
  3543 ;;                  1    wreg      void 
  3544 ;; Registers used:
  3545 ;;		wreg, status,2
  3546 ;; Tracked objects:
  3547 ;;		On entry : 0/0
  3548 ;;		On exit  : 0/0
  3549 ;;		Unchanged: 0/0
  3550 ;; Data sizes:     COMMON   BANK0   BANK1   BANK2   BANK3   BANK4   BANK5   BANK6   BANK7   BANK8   BANK9  BANK10  BANK1
      +1  BANK12  BANK13  BANK14  BANK15  BANK16  BANK17  BANK18  BANK19  BANK20  BANK21  BANK22  BANK23  BANK24  BANK25
  3551 ;;      Params:         2       0       0       0       0       0       0       0       0       0       0       0       
      +0       0       0       0       0       0       0       0       0       0       0       0       0       0       0
  3552 ;;      Locals:         2       0       0       0       0       0       0       0       0       0       0       0       
      +0       0       0       0       0       0       0       0       0       0       0       0       0       0       0
  3553 ;;      Temps:          1       0       0       0       0       0       0       0       0       0       0       0       
      +0       0       0       0       0       0       0       0       0       0       0       0       0       0       0
  3554 ;;      Totals:         5       0       0       0       0       0       0       0       0       0       0       0       
      +0       0       0       0       0       0       0       0       0       0       0       0       0       0       0
  3555 ;;Total ram usage:        5 bytes
  3556 ;; Hardware stack levels used: 1
  3557 ;; Hardware stack levels required when called: 1
  3558 ;; This function calls:
  3559 ;;		Nothing
  3560 ;; This function is called by:
  3561 ;;		_Sound_Play
  3562 ;; This function uses a non-reentrant model
  3563 ;;
  3564                           
  3565     0675                     _Delay_Ms:	
  3566                           ;psect for function _Delay_Ms
  3567                           
  3568     0675                     l1320:	
  3569                           ;incstack = 0
  3570                           ; Regs used in _Delay_Ms: [wreg+status,2]
  3571                           
  3572                           
  3573                           ;main.c: 30: void Delay_Ms(unsigned int s);main.c: 31: {;main.c: 32:     unsigned int j;
      +                          ;main.c: 33:     for(j = 0; j < s; j++)
  3574     0675  01F3               	clrf	Delay_Ms@j
  3575     0676  01F4               	clrf	Delay_Ms@j+1
  3576     0677  2E84               	goto	l66
  3577     0678                     l1322:
  3578                           
  3579                           ;main.c: 34:     {;main.c: 35:         _delay((unsigned long)((1)*(32000000/4000.0)));
  3580     0678  300B               	movlw	11
  3581     0679  00F2               	movwf	??_Delay_Ms
  3582     067A  3062               	movlw	98
  3583     067B                     u2117:
  3584     067B  0B89               	decfsz	9,f
  3585     067C  2E7B               	goto	u2117
  3586     067D  0BF2               	decfsz	??_Delay_Ms,f
  3587     067E  2E7B               	goto	u2117
  3588     067F  3200               	nop2
  3589                           
  3590                           ;main.c: 36:     }
  3591     0680  3001               	movlw	1
  3592     0681  07F3               	addwf	Delay_Ms@j,f
  3593     0682  3000               	movlw	0
  3594     0683  3DF4               	addwfc	Delay_Ms@j+1,f
  3595     0684                     l66:
  3596     0684  0871               	movf	Delay_Ms@s+1,w
  3597     0685  0274               	subwf	Delay_Ms@j+1,w
  3598     0686  1D03               	skipz
  3599     0687  2E8A               	goto	u1485
  3600     0688  0870               	movf	Delay_Ms@s,w
  3601     0689  0273               	subwf	Delay_Ms@j,w
  3602     068A                     u1485:
  3603     068A  1C03               	skipc
  3604     068B  2E8D               	goto	u1481
  3605     068C  2E8E               	goto	u1480
  3606     068D                     u1481:
  3607     068D  2E78               	goto	l1322
  3608     068E                     u1480:
  3609     068E                     l69:
  3610     068E  0008               	return
  3611     068F                     __end_of_Delay_Ms:
  3612                           
  3613                           	psect	intentry
  3614     0004                     __pintentry:	
  3615 ;; *************** function _isr *****************
  3616 ;; Defined at:
  3617 ;;		line 153 in file "main.c"
  3618 ;; Parameters:    Size  Location     Type
  3619 ;;		None
  3620 ;; Auto vars:     Size  Location     Type
  3621 ;;		None
  3622 ;; Return value:  Size  Location     Type
  3623 ;;                  1    wreg      void 
  3624 ;; Registers used:
  3625 ;;		wreg, status,0
  3626 ;; Tracked objects:
  3627 ;;		On entry : 0/0
  3628 ;;		On exit  : 0/0
  3629 ;;		Unchanged: 0/0
  3630 ;; Data sizes:     COMMON   BANK0   BANK1   BANK2   BANK3   BANK4   BANK5   BANK6   BANK7   BANK8   BANK9  BANK10  BANK1
      +1  BANK12  BANK13  BANK14  BANK15  BANK16  BANK17  BANK18  BANK19  BANK20  BANK21  BANK22  BANK23  BANK24  BANK25
  3631 ;;      Params:         0       0       0       0       0       0       0       0       0       0       0       0       
      +0       0       0       0       0       0       0       0       0       0       0       0       0       0       0
  3632 ;;      Locals:         0       0       0       0       0       0       0       0       0       0       0       0       
      +0       0       0       0       0       0       0       0       0       0       0       0       0       0       0
  3633 ;;      Temps:          0       0       0       0       0       0       0       0       0       0       0       0       
      +0       0       0       0       0       0       0       0       0       0       0       0       0       0       0
  3634 ;;      Totals:         0       0       0       0       0       0       0       0       0       0       0       0       
      +0       0       0       0       0       0       0       0       0       0       0       0       0       0       0
  3635 ;;Total ram usage:        0 bytes
  3636 ;; Hardware stack levels used: 1
  3637 ;; This function calls:
  3638 ;;		Nothing
  3639 ;; This function is called by:
  3640 ;;		Interrupt level 1
  3641 ;; This function uses a non-reentrant model
  3642 ;;
  3643                           
  3644     0004                     _isr:
  3645                           
  3646                           ;incstack = 0
  3647     0004  147E               	bsf	int$flags,0	;set compiler interrupt flag (level 1)
  3648                           
  3649                           ; Regs used in _isr: [wreg+status,0]
  3650     0005  3180               	pagesel	$
  3651     0006                     i1l1610:
  3652                           
  3653                           ;main.c: 155:     PIR1bits.TMR1IF = 0;
  3654     0006  0020               	movlb	0	; select bank0
  3655     0007  1011               	bcf	17,0	;volatile
  3656     0008                     i1l1612:
  3657                           
  3658                           ;main.c: 156:     TMR1H = TIMER_H;
  3659     0008  086C               	movf	_TIMER_H,w
  3660     0009  0097               	movwf	23	;volatile
  3661                           
  3662                           ;main.c: 157:     TMR1L = TIMER_L;
  3663     000A  086B               	movf	_TIMER_L,w
  3664     000B  0096               	movwf	22	;volatile
  3665     000C                     i1l1614:
  3666                           
  3667                           ;main.c: 158:     LATBbits.LATB0 = !LATBbits.LATB0;
  3668     000C  1003               	clrc
  3669     000D  0022               	movlb	2	; select bank2
  3670     000E  1C0D               	btfss	13,0	;volatile
  3671     000F  1403               	setc
  3672     0010  1803               	btfsc	3,0
  3673     0011  2813               	goto	u207_21
  3674     0012  2816               	goto	u207_20
  3675     0013                     u207_21:
  3676     0013  0022               	movlb	2	; select bank2
  3677     0014  140D               	bsf	13,0	;volatile
  3678     0015  2818               	goto	u208_24
  3679     0016                     u207_20:
  3680     0016  0022               	movlb	2	; select bank2
  3681     0017  100D               	bcf	13,0	;volatile
  3682     0018                     u208_24:
  3683     0018                     i1l94:
  3684     0018  107E               	bcf	int$flags,0	;clear compiler interrupt flag (level 1)
  3685     0019  0009               	retfie
  3686     001A                     __end_of_isr:
  3687     007E                     btemp	set	126	;btemp
  3688     007E                     int$flags	set	126
  3689     007E                     wtemp0	set	126
  3690                           
  3691                           	psect	config
  3692                           
  3693                           ;Config register CONFIG1 @ 0x8007
  3694                           ;	Oscillator Selection Bits
  3695                           ;	FOSC = INTOSC, INTOSC oscillator: I/O function on CLKIN pin
  3696                           ;	Watchdog Timer Enable
  3697                           ;	WDTE = OFF, WDT disabled
  3698                           ;	Power-up Timer Enable
  3699                           ;	PWRTE = OFF, PWRT disabled
  3700                           ;	MCLR Pin Function Select
  3701                           ;	MCLRE = OFF, MCLR/VPP pin function is digital input if LVP bit is also 0.
  3702                           ;	Flash Program Memory Code Protection
  3703                           ;	CP = OFF, Program memory code protection is disabled
  3704                           ;	Brown-out Reset Enable
  3705                           ;	BOREN = OFF, Brown-out Reset disabled
  3706                           ;	Clock Out Enable
  3707                           ;	CLKOUTEN = OFF, CLKOUT function is disabled. I/O or oscillator function on the CLKOUT 
      +                          pin
  3708                           ;	Internal/External Switchover Mode
  3709                           ;	IESO = ON, Internal/External Switchover Mode is enabled
  3710                           ;	Fail-Safe Clock Monitor Enable
  3711                           ;	FCMEN = OFF, Fail-Safe Clock Monitor is disabled
  3712     8007                     	org	32775
  3713     8007  19A4               	dw	6564
  3714                           
  3715                           ;Config register CONFIG2 @ 0x8008
  3716                           ;	Flash Memory Self-Write Protection
  3717                           ;	WRT = OFF, Write protection off
  3718                           ;	Peripheral Pin Select one-way control
  3719                           ;	PPS1WAY = ON, The PPSLOCK bit cannot be cleared once it is set by software
  3720                           ;	Zero-cross detect disable
  3721                           ;	ZCDDIS = ON, ZCD disabled. ZCD can be enabled by setting the ZCDSEN bit of ZCDCON
  3722                           ;	Phase Lock Loop enable
  3723                           ;	PLLEN = OFF, 4x PLL is disabled
  3724                           ;	Stack Overflow/Underflow Reset Enable
  3725                           ;	STVREN = ON, Stack Overflow or Underflow will cause a Reset
  3726                           ;	Brown-out Reset Voltage Selection
  3727                           ;	BORV = LO, Brown-out Reset Voltage (Vbor), low trip point selected.
  3728                           ;	Low-Power Brown Out Reset
  3729                           ;	LPBOR = OFF, Low-Power BOR is disabled
  3730                           ;	In-Circuit Debugger Mode
  3731                           ;	DEBUG = 0x1, unprogrammed default
  3732                           ;	Low-Voltage Programming Enable
  3733                           ;	LVP = OFF, High-voltage on MCLR/VPP must be used for programming
  3734     8008                     	org	32776
  3735     8008  1EFF               	dw	7935

Data Sizes:
    Strings     0
    Constant    0
    Data        75
    BSS         2
    Persistent  32
    Stack       0

Auto Spaces:
    Space          Size  Autos    Used
    COMMON           14     14      14
    BANK0            80     50      77
    BANK1            80      0      50
    BANK2            80      0       0
    BANK3            80      0       0
    BANK4            80      0       0
    BANK5            80      0       0
    BANK6            80      0       0
    BANK7            80      0       0
    BANK8            80      0       0
    BANK9            80      0       0
    BANK10           80      0       0
    BANK11           80      0       0
    BANK12           80      0       0
    BANK13           80      0       0
    BANK14           80      0       0
    BANK15           80      0       0
    BANK16           80      0       0
    BANK17           80      0       0
    BANK18           80      0       0
    BANK19           80      0       0
    BANK20           80      0       0
    BANK21           80      0       0
    BANK22           80      0       0
    BANK23           80      0       0
    BANK24           80      0       0
    BANK25           32      0       0

Pointer List with Targets:

    None.

Critical Paths under _main in COMMON

    _Sound_Play->___xxtofl
    ___fltol->___xxtofl
    ___flsub->___xxtofl
    ___fldiv->___xxtofl

Critical Paths under _isr in COMMON

    None.

Critical Paths under _main in BANK0

    _main->_Sound_Play
    _Sound_Play->___fltol
    ___fltol->___fldiv
    ___flsub->___fladd

Critical Paths under _isr in BANK0

    None.

Critical Paths under _main in BANK1

    None.

Critical Paths under _isr in BANK1

    None.

Critical Paths under _main in BANK2

    None.

Critical Paths under _isr in BANK2

    None.

Critical Paths under _main in BANK3

    None.

Critical Paths under _isr in BANK3

    None.

Critical Paths under _main in BANK4

    None.

Critical Paths under _isr in BANK4

    None.

Critical Paths under _main in BANK5

    None.

Critical Paths under _isr in BANK5

    None.

Critical Paths under _main in BANK6

    None.

Critical Paths under _isr in BANK6

    None.

Critical Paths under _main in BANK7

    None.

Critical Paths under _isr in BANK7

    None.

Critical Paths under _main in BANK8

    None.

Critical Paths under _isr in BANK8

    None.

Critical Paths under _main in BANK9

    None.

Critical Paths under _isr in BANK9

    None.

Critical Paths under _main in BANK10

    None.

Critical Paths under _isr in BANK10

    None.

Critical Paths under _main in BANK11

    None.

Critical Paths under _isr in BANK11

    None.

Critical Paths under _main in BANK12

    None.

Critical Paths under _isr in BANK12

    None.

Critical Paths under _main in BANK13

    None.

Critical Paths under _isr in BANK13

    None.

Critical Paths under _main in BANK14

    None.

Critical Paths under _isr in BANK14

    None.

Critical Paths under _main in BANK15

    None.

Critical Paths under _isr in BANK15

    None.

Critical Paths under _main in BANK16

    None.

Critical Paths under _isr in BANK16

    None.

Critical Paths under _main in BANK17

    None.

Critical Paths under _isr in BANK17

    None.

Critical Paths under _main in BANK18

    None.

Critical Paths under _isr in BANK18

    None.

Critical Paths under _main in BANK19

    None.

Critical Paths under _isr in BANK19

    None.

Critical Paths under _main in BANK20

    None.

Critical Paths under _isr in BANK20

    None.

Critical Paths under _main in BANK21

    None.

Critical Paths under _isr in BANK21

    None.

Critical Paths under _main in BANK22

    None.

Critical Paths under _isr in BANK22

    None.

Critical Paths under _main in BANK23

    None.

Critical Paths under _isr in BANK23

    None.

Critical Paths under _main in BANK24

    None.

Critical Paths under _isr in BANK24

    None.

Critical Paths under _main in BANK25

    None.

Critical Paths under _isr in BANK25

    None.

Call Graph Tables:

 ---------------------------------------------------------------------------------
 (Depth) Function   	        Calls       Base Space   Used Autos Params    Refs
 ---------------------------------------------------------------------------------
 (0) _main                                                 3     3      0    5485
                                             47 BANK0      3     3      0
                         _Sound_Play
                             ___wmul
                           _initMain
 ---------------------------------------------------------------------------------
 (1) _initMain                                             0     0      0       0
                        _internal_32
 ---------------------------------------------------------------------------------
 (2) _internal_32                                          0     0      0       0
 ---------------------------------------------------------------------------------
 (1) ___wmul                                               6     2      4     244
                                              0 COMMON     6     2      4
 ---------------------------------------------------------------------------------
 (1) _Sound_Play                                          11     7      4    5151
                                             36 BANK0     11     7      4
                           _Delay_Ms
                            ___fldiv
                            ___flsub
                            ___fltol
                             ___wmul (ARG)
                           ___xxtofl
 ---------------------------------------------------------------------------------
 (2) ___xxtofl                                            14    10      4     474
                                              0 COMMON    14    10      4
 ---------------------------------------------------------------------------------
 (2) ___fltol                                             10     6      4     381
                                             26 BANK0     10     6      4
                            ___fldiv (ARG)
                            ___flsub (ARG)
                           ___xxtofl (ARG)
 ---------------------------------------------------------------------------------
 (2) ___flsub                                              8     0      8    2485
                                              8 BANK0      8     0      8
                            ___fladd
                           ___xxtofl (ARG)
 ---------------------------------------------------------------------------------
 (3) ___fladd                                             20    12      8    2136
                                              0 COMMON    12     4      8
                                              0 BANK0      8     8      0
 ---------------------------------------------------------------------------------
 (2) ___fldiv                                             26    18      8    1425
                                              0 BANK0     26    18      8
                           ___xxtofl (ARG)
 ---------------------------------------------------------------------------------
 (2) _Delay_Ms                                             5     3      2     122
                                              0 COMMON     5     3      2
 ---------------------------------------------------------------------------------
 Estimated maximum stack depth 3
 ---------------------------------------------------------------------------------
 (Depth) Function   	        Calls       Base Space   Used Autos Params    Refs
 ---------------------------------------------------------------------------------
 (4) _isr                                                  0     0      0       0
 ---------------------------------------------------------------------------------
 Estimated maximum stack depth 4
 ---------------------------------------------------------------------------------

 Call Graph Graphs:

 _main (ROOT)
   _Sound_Play
     _Delay_Ms
     ___fldiv
       ___xxtofl (ARG)
     ___flsub
       ___fladd
       ___xxtofl (ARG)
     ___fltol
       ___fldiv (ARG)
       ___flsub (ARG)
       ___xxtofl (ARG)
     ___wmul (ARG)
     ___xxtofl (ARG)
   ___wmul
   _initMain
     _internal_32

 _isr (ROOT)

 Address spaces:
Name               Size   Autos  Total    Cost      Usage
BIGRAM             7F0      0       0       0        0.0%
NULL                 0      0       0       0        0.0%
CODE                 0      0       0       0        0.0%
BITCOMMON            E      0       0       1        0.0%
BITSFR0              0      0       0       1        0.0%
SFR0                 0      0       0       1        0.0%
COMMON               E      E       E       2      100.0%
BITSFR1              0      0       0       2        0.0%
SFR1                 0      0       0       2        0.0%
BITSFR2              0      0       0       3        0.0%
SFR2                 0      0       0       3        0.0%
STACK                0      0       0       3        0.0%
BITBANK0            50      0       0       4        0.0%
BITSFR3              0      0       0       4        0.0%
SFR3                 0      0       0       4        0.0%
BANK0               50     32      4D       5       96.2%
BITSFR4              0      0       0       5        0.0%
SFR4                 0      0       0       5        0.0%
BITBANK1            50      0       0       6        0.0%
BITSFR5              0      0       0       6        0.0%
SFR5                 0      0       0       6        0.0%
BANK1               50      0      32       7       62.5%
BITSFR6              0      0       0       7        0.0%
SFR6                 0      0       0       7        0.0%
BITBANK2            50      0       0       8        0.0%
BITSFR7              0      0       0       8        0.0%
SFR7                 0      0       0       8        0.0%
BANK2               50      0       0       9        0.0%
BITSFR8              0      0       0       9        0.0%
SFR8                 0      0       0       9        0.0%
BITBANK3            50      0       0      10        0.0%
BITSFR9              0      0       0      10        0.0%
SFR9                 0      0       0      10        0.0%
BANK3               50      0       0      11        0.0%
BITSFR10             0      0       0      11        0.0%
SFR10                0      0       0      11        0.0%
BITBANK4            50      0       0      12        0.0%
BITSFR11             0      0       0      12        0.0%
SFR11                0      0       0      12        0.0%
BANK4               50      0       0      13        0.0%
BITSFR12             0      0       0      13        0.0%
SFR12                0      0       0      13        0.0%
BITSFR13             0      0       0      14        0.0%
SFR13                0      0       0      14        0.0%
ABS                  0      0      8D      14        0.0%
BITBANK5            50      0       0      15        0.0%
BITSFR14             0      0       0      15        0.0%
SFR14                0      0       0      15        0.0%
BANK5               50      0       0      16        0.0%
BITSFR15             0      0       0      16        0.0%
SFR15                0      0       0      16        0.0%
BITBANK6            50      0       0      17        0.0%
BITSFR16             0      0       0      17        0.0%
SFR16                0      0       0      17        0.0%
BANK6               50      0       0      18        0.0%
BITSFR17             0      0       0      18        0.0%
SFR17                0      0       0      18        0.0%
BITBANK7            50      0       0      19        0.0%
BITSFR18             0      0       0      19        0.0%
SFR18                0      0       0      19        0.0%
BANK7               50      0       0      20        0.0%
BITSFR19             0      0       0      20        0.0%
SFR19                0      0       0      20        0.0%
BITBANK8            50      0       0      21        0.0%
BITSFR20             0      0       0      21        0.0%
SFR20                0      0       0      21        0.0%
BANK8               50      0       0      22        0.0%
BITSFR21             0      0       0      22        0.0%
SFR21                0      0       0      22        0.0%
BITBANK9            50      0       0      23        0.0%
BITSFR22             0      0       0      23        0.0%
SFR22                0      0       0      23        0.0%
BANK9               50      0       0      24        0.0%
BITSFR23             0      0       0      24        0.0%
SFR23                0      0       0      24        0.0%
BITBANK10           50      0       0      25        0.0%
BITSFR24             0      0       0      25        0.0%
SFR24                0      0       0      25        0.0%
BANK10              50      0       0      26        0.0%
BITSFR25             0      0       0      26        0.0%
SFR25                0      0       0      26        0.0%
BITBANK11           50      0       0      27        0.0%
BITSFR26             0      0       0      27        0.0%
SFR26                0      0       0      27        0.0%
BITSFR27             0      0       0      28        0.0%
SFR27                0      0       0      28        0.0%
DATA                 0      0      8D      28        0.0%
BANK11              50      0       0      29        0.0%
BITSFR28             0      0       0      29        0.0%
SFR28                0      0       0      29        0.0%
BITBANK12           50      0       0      30        0.0%
BITSFR29             0      0       0      30        0.0%
SFR29                0      0       0      30        0.0%
BANK12              50      0       0      31        0.0%
BITSFR30             0      0       0      31        0.0%
SFR30                0      0       0      31        0.0%
BITBANK13           50      0       0      32        0.0%
BITSFR31             0      0       0      32        0.0%
SFR31                0      0       0      32        0.0%
BANK13              50      0       0      33        0.0%
BITBANK14           50      0       0      34        0.0%
BANK14              50      0       0      35        0.0%
BITBANK15           50      0       0      36        0.0%
BANK15              50      0       0      37        0.0%
BITBANK16           50      0       0      38        0.0%
BANK16              50      0       0      39        0.0%
BITBANK17           50      0       0      40        0.0%
BANK17              50      0       0      41        0.0%
BITBANK18           50      0       0      42        0.0%
BANK18              50      0       0      43        0.0%
BITBANK19           50      0       0      44        0.0%
BANK19              50      0       0      45        0.0%
BITBANK20           50      0       0      46        0.0%
BANK20              50      0       0      47        0.0%
BITBANK21           50      0       0      48        0.0%
BANK21              50      0       0      49        0.0%
BITBANK22           50      0       0      50        0.0%
BANK22              50      0       0      51        0.0%
BITBANK23           50      0       0      52        0.0%
BANK23              50      0       0      53        0.0%
BITBANK24           50      0       0      54        0.0%
BANK24              50      0       0      55        0.0%
BITBANK25           20      0       0      56        0.0%
BANK25              20      0       0      57        0.0%


Microchip Technology PIC Macro Assembler V2.45 build 20230818022343 
Symbol Table                                                                                   Tue Dec 05 15:00:19 2023

           ___fldiv@aexp 0039             ___fldiv@bexp 0038             ___fldiv@sign 0031  
                     l17 06C4                       l66 0684                       l76 049A  
                     l69 068E                       l79 06BB      ___wmul@multiplicand 0072  
                    l162 0660                      l164 0674                      l521 03EF  
                    l505 023E                      l506 0245                      l363 05A0  
                    l603 04BD                      l540 03C1                      l356 05B5  
                    l541 03DB                      l509 0655                      l605 0544  
                    l366 05B5                      l543 03E8                      l535 0375  
                    l519 0297                      l463 008F                      l616 0510  
                    l617 051C                      l609 04F6                      l467 010D  
                    l484 019F                      l476 0245                      l469 00EB  
                    l494 01E3                      l488 01C1                      l497 021B  
                    _isr 0004                      wreg 0009             ___fltol@exp1 0043  
                   l1200 00BA                     l1210 00F3                     l1202 00BC  
                   l1130 0043                     l1300 0220                     l1212 00F5  
                   l1220 0107                     l1204 00BD                     l1140 0057  
                   l1132 0044                     l1124 003A                     l1310 0237  
                   l1302 0225                     l1230 0127                     l1222 0111  
                   l1214 00F9                     l1206 00D5                     l1150 006B  
                   l1134 0049                     l1142 0059                     l1126 003D  
                   l1320 0675                     l1400 028C                     l1312 0239  
                   l1304 022D                     l1240 0139                     l1232 012B  
                   l1224 0116                     l1216 00FA                     l1208 00EF  
                   l1160 007C                     l1152 006D                     l1144 0061  
                   l1136 004E                     l1128 003F                     l1322 0678  
                   l1410 02AF                     l1402 028D                     l1314 0240  
                   l1306 0232                     l1250 0183                     l1242 013A  
                   l1234 012F                     l1218 0103                     l1170 0099  
                   l1162 0084                     l1154 0071                     l1146 0064  
                   l1138 0056                     l1330 0558                     l1500 03E4  
                   l1420 02C6                     l1404 028F                     l1316 0244  
                   l1308 0233                     l1260 01AC                     l1252 0189  
                   l1244 0143                     l1236 0133                     l1228 011F  
                   l1180 00A6                     l1172 009E                     l1164 0085  
                   l1156 0072                     l1148 006A                     l1340 0578  
                   l1332 0569                     l1324 0545                     l1430 02F0  
                   l1422 02D6                     l1406 029F                     l1414 02B8  
                   l1270 01C5                     l1254 018E                     l1238 0135  
                   l1246 0148                     l1190 00B0                     l1182 00A8  
                   l1174 00A0                     l1158 0077                     l1166 0087  
                   l1334 056A                     l1326 054F                     l1510 04A5  
                   l1318 06BC                     l1432 02F5                     l1440 030F  
                   l1424 02DE                     l1416 02BD                     l1408 02AB  
                   l1272 01C8                     l1264 01B5                     l1248 015F  
                   l1256 0197                     l1280 01D5                     l1192 00B2  
                   l1184 00AA                     l1176 00A2                     l1168 0095  
                   l1360 0636                     l1336 0572                     l1520 04D1  
                   l1512 04B5                     l1600 05BB                     l1450 0334  
                   l1442 0321                     l1434 0303                     l1426 02E6  
                   l1370 024C                     l1290 01E8                     l1282 01D6  
                   l1274 01CA                     l1266 01BC                     l1258 01A7  
                   l1194 00B4                     l1186 00AC                     l1178 00A4  
                   l1362 0639                     l1354 0597                     l1346 0580  
                   l1338 0574                     l1530 04FD                     l1522 04DC  
                   l1514 04C5                     l1506 049C                     l1602 05DD  
                   l1460 034A                     l1452 033C                     l1444 0322  
                   l1436 0307                     l1428 02EE                     l1380 0263  
                   l1372 0250                     l1292 01ED                     l1284 01DA  
                   l1276 01CF                     l1268 01C0                     l1196 00B6  
                   l1188 00AE                     l1356 05A5                     l1348 0590  
                   l1540 0532                     l1532 0506                     l1524 04E3  
                   l1508 04A1                     l1604 05E9                     l1470 035E  
                   l1462 0351                     l1454 033E                     l1446 032A  
                   l1438 0308                     l1390 0275                     l1382 0264  
                   l1374 0251                     l1366 0246                     l1294 01F5  
                   l1286 01E0                     l1278 01D1                     l1198 00B8  
                   l1358 05AA                     l1542 0537                     l1534 050A  
                   l1526 04E7                     l1518 04CE                     l1550 03F0  
                   l1606 05EE                     l1480 0387                     l1472 0372  
                   l1456 0345                     l1464 0355                     l1448 032E  
                   l1392 0279                     l1376 0256                     l1384 0266  
                   l1368 024A                     l1296 01F9                     l1544 053B  
                   l1536 0514                     l1528 04EF                     l1552 048C  
                   l1560 06A8                     l1608 05F4                     l1490 03CF  
                   l1482 038B                     l1466 0359                     l1458 0349  
                   l1394 027A                     l1386 026E                     l1378 025B  
                   l1298 0217                     l1546 053C                     l1538 051E  
                   l1554 048E                     l1570 06B6                     l1562 06AB  
                   l1492 03D2                     l1484 03A3                     l1476 037A  
                   l1468 035A                     l1396 027F                     l1388 0273  
                   l1556 0490                     l1580 0658                     l1572 06B7  
                   l1564 06AD                     l1494 03DA                     l1478 037F  
                   l1486 03A7                     l1398 0284                     l1558 0498  
                   l1582 065C                     l1574 06B9                     l1566 06AF  
                   l1496 03DE                     l1488 03B4                     l1584 0665  
                   l1576 06BA                     l1568 06B4                     l1592 05B6  
                   l1498 03E2                     l1586 066A                     l1578 0656  
                   l1594 05B9                     l1588 0670                     ?_isr 0070  
                   u1100 0077                     u1101 0076                     u1110 007C  
                   u1111 007B                     u1200 010D                     u1120 0095  
                   u2000 0537                     u1201 010C                     u1121 0094  
                   u2001 0536                     u1210 0111                     u1130 0099  
                   u1050 0043                     u2010 053B                     u1211 0110  
                   u1131 0098                     u1051 0042                     u2011 053A  
                   u1300 01AC                     u1220 0116                     u1140 00D5  
                   u1060 0049                     u2020 065C                     u1301 01AB  
                   u1221 0115                     u1141 00D4                     u1061 0048  
                   u2021 065B                     u1230 012B                     u1150 00DE  
                   u1070 004E                     u1231 012A                     u1151 00DC  
                   u1071 004D                     u1400 01F9                     u1320 01C0  
                   u1240 012F                     u1160 00DF                     u1080 006A  
                   u1401 01F8                     u1321 01BF                     u1241 012E  
                   u1145 00D1                     u1081 0069                     u1410 0208  
                   u1330 01C5                     u1250 0139                     u1170 00EF  
                   u1090 0071                     u2050 0670                     u1331 01C4  
                   u1315 01B6                     u1251 0138                     u1171 00EE  
                   u1091 0070                     u2051 066F                     u2035 0661  
                   u2107 05FA                     u1420 0217                     u1340 01CF  
                   u1180 00F9                     u1500 0565                     u2060 05F4  
                   u2117 067B                     u1421 0216                     u1341 01CE  
                   u1181 00F8                     u2045 0666                     u2061 05F3  
                   u1430 0220                     u1350 01D5                     u1270 015F  
                   u1510 0578                     u1431 021F                     u1415 0204  
                   u1351 01D4                     u1271 015E                     u1511 0577  
                   u1600 0256                     u1440 0225                     u1360 01DA  
                   u1280 018E                     u1520 057F                     u1601 0255  
                   u1441 0224                     u1361 01D9                     u1281 018D  
                   u1273 015B                     u1265 013D                     u1521 057E  
                   u1505 0561                     u1610 025B                     u1450 0232  
                   u1370 01E0                     u1290 01A7                     u1611 025A  
                   u1451 0231                     u1371 01DF                     u1291 01A6  
                   u1195 00FD                     u1700 0307                     u1620 0279  
                   u1460 0237                     u1380 01E7                     u1540 058F  
                   u1701 0306                     u1621 0278                     u1461 0236  
                   u1381 01E6                     u1541 058E                     u1630 027F  
                   u1470 0244                     u1390 01ED                     u1550 0596  
                   u1631 027E                     u1471 0243                     u1391 01EC  
                   u1551 0595                     u1535 0581                     u1480 068E  
                   u1800 0372                     u1720 0321                     u1640 0284  
                   u1481 068D                     u1801 0371                     u1721 0320  
                   u1641 0283                     u2097 05E3                     u1810 0379  
                   u1730 0334                     u1650 029F                     u1570 05A5  
                   u1490 054F                     u1811 0378                     u1731 0333  
                   u1715 0309                     u1651 029E                     u1571 05A4  
                   u1491 054E                     u1820 037F                     u1740 033C  
                   u1660 02BD                     u1580 05AA                     u1900 04C5  
                   u1485 068A                     u1821 037E                     u1741 033B  
                   u1725 031D                     u1661 02BC                     u1581 05A9  
                   u1565 0598                     u1901 04C4                     u1830 038B  
                   u1670 02F5                     u1590 0250                     u1831 038A  
                   u1671 02F4                     u1591 024F                     u1840 0399  
                   u1760 0349                     u1920 04E2                     u1761 0348  
                   u1921 04E1                     u1850 03B4                     u1851 03B3  
                   u1755 033F                     u1915 04D6                     u1860 03CF  
                   u1780 0359                     u1940 04FC                     u1861 03CE  
                   u1845 0395                     u1781 0358                     u1685 02F6  
                   u1941 04FB                     u1870 03E2                     u1790 035E  
                   u1871 03E1                     u1855 03B0                     u1791 035D  
                   u1775 034B                     u1695 02FD                     u1935 04F0  
                   u1960 050A                     u1880 04A1                     u1865 03CB  
                   u1961 0509                     u1881 04A0                     u1970 0510  
                   u1890 04A5                     u1971 050F                     u1955 0500  
                   u1891 04A4                     u1980 0514                     u1981 0513  
                   u1990 0528                     u1995 0524                     _SCS0 04C8  
                   _SCS1 04C9                     i1l94 0018                     _TMR1 0016  
                   _main 05B6                     fsr0h 0005                     fsr1h 0007  
                   fsr0l 0004                     indf1 0001                     fsr1l 0006  
                   btemp 007E                     start 001A          ___fldiv@new_exp 0032  
                  ??_isr 0070            ___fltol@sign1 0042          __end_of___fladd 0246  
                  ?_main 0070          __end_of___fldiv 03F0          __end_of___flsub 0656  
        __end_of___fltol 05B6                    _IRCF0 04CB                    _IRCF1 04CC  
                  _IRCF2 04CD                    _IRCF3 04CE                    _TMR1H 0017  
                  _TMR1L 0016                    _Notes 00A0                    main@i 0051  
                  status 0003                    wtemp0 007E             ?_internal_32 0070  
       __end_of_Delay_Ms 068F          __initialization 001C             __end_of_main 0604  
                 ??_main 004F                   _ANSELB 018D                   i1l1610 0006  
                 i1l1612 0008                   i1l1614 000C                   u207_20 0016  
                 u207_21 0013                   u208_24 0018                   _SPLLEN 04CF  
       __end_of___xxtofl 0545                ??___fladd 0020                   ___wmul 0656  
              ??___fldiv 0028                ??___flsub 007E                ??___fltol 003E  
       __end_of_initMain 06BC               _Sound_Play 03F0             ___xxtofl@arg 007A  
           ___xxtofl@exp 0079             ___xxtofl@val 0070  __end_of__initialization 0036  
             ___fltol@f1 003A           __pcstackCOMMON 0070             __pidataBANK0 068F  
           __pidataBANK1 0604                ?_Delay_Ms 0070               __pbssBANK0 006B  
             __pmaintext 05B6                  ?___wmul 0070               __pintentry 0004  
              ?___xxtofl 0070               ??_Delay_Ms 0072                  _TIMER_H 006C  
                _TIMER_L 006B              ?_Sound_Play 0044                ?_initMain 0070  
                ___fladd 003A                  ___fldiv 0246                  ___flsub 0636  
                ___fltol 0545                  __ptext1 06A8                  __ptext2 06BC  
                __ptext3 0656                  __ptext4 03F0                  __ptext5 049B  
                __ptext6 0545                  __ptext7 0636                  __ptext8 003A  
                __ptext9 0246                _T1CONbits 0018               ??___xxtofl 0074  
         Sound_Play@freq 0044     end_of_initialization 0036                Delay_Ms@j 0073  
              Delay_Ms@s 0070               ??_initMain 0070                  init_ram 06C5  
                initloop 06C6              ___fladd@grs 007B            ___xxtofl@sign 0078  
              _TRISBbits 008D              ___fldiv@grs 0034              ___fldiv@rem 002D  
         __end_of___wmul 0675      start_initialization 001C              __end_of_isr 001A  
              _Durations 0052                 ??___wmul 0074              __pdataBANK0 0052  
            __pdataBANK1 00A0                ___fladd@a 0074                ___fladd@b 0070  
              ___fldiv@a 0020                ___fldiv@b 0024                ___flsub@a 0028  
              ___flsub@b 002C                ___latbits 0003            __pcstackBANK0 0020  
           ??_Sound_Play 0048            ??_internal_32 0070                 ?___fladd 0070  
               ?___fldiv 0020                 ?___flsub 0028                 ?___fltol 003A  
     __end_of_Sound_Play 049B           ___wmul@product 0074                 _LATBbits 010D  
               _PIE1bits 0091                 _PIR1bits 0011         Sound_Play@period 004B  
    __end_of_internal_32 06C5        ___wmul@multiplier 0070                 _Delay_Ms 0675  
               ___xxtofl 049B                 __ptext10 0675                 _initMain 06A8  
            _internal_32 06BC                 int$flags 007E               _INTCONbits 000B  
               intlevel1 0000       Sound_Play@duration 0046            ___fladd@signs 0078  
           ___fladd@aexp 0079             ___fladd@bexp 007A  
