

Microchip MPLAB XC8 Assembler V2.46 build 20240104201356 
                                                                                               Thu Dec 25 22:06:56 2025

Microchip MPLAB XC8 C Compiler v2.46 (Free license) build 20240104201356 Og1 
     1                           	processor	16F1718
     2                           	pagewidth 120
     3                           	opt	flic
     4                           	psect	stringtext1,global,class=STRCODE,delta=2,noexec
     5                           	psect	cinit,global,class=CODE,merge=1,delta=2
     6                           	psect	cstackCOMMON,global,class=COMMON,space=1,delta=1,noexec
     7                           	psect	cstackBANK0,global,class=BANK0,space=1,delta=1,noexec
     8                           	psect	maintext,global,class=CODE,merge=1,split=1,delta=2
     9                           	psect	text1,local,class=CODE,merge=1,delta=2
    10                           	psect	text2,local,class=CODE,merge=1,delta=2
    11                           	psect	text3,local,class=CODE,merge=1,delta=2
    12                           	psect	text4,local,class=CODE,merge=1,delta=2
    13                           	psect	text5,local,class=CODE,merge=1,delta=2
    14                           	psect	text6,local,class=CODE,merge=1,delta=2
    15                           	psect	text7,local,class=CODE,merge=1,delta=2
    16                           	psect	text8,local,class=CODE,merge=1,delta=2
    17                           	psect	text9,local,class=CODE,merge=1,delta=2
    18                           	psect	text10,local,class=CODE,merge=1,delta=2
    19                           	psect	text11,local,class=CODE,merge=1,delta=2
    20                           	psect	text12,local,class=CODE,merge=1,delta=2,group=1
    21                           	psect	text13,local,class=CODE,merge=1,delta=2,group=1
    22                           	psect	text14,local,class=CODE,merge=1,delta=2
    23                           	psect	config,global,abs,ovrld,class=CONFIG,space=4,delta=2,noexec
    24                           	dabs	1,0x7E,2
    25     0000                     
    26                           ; Generated 07/09/2023 GMT
    27                           ; 
    28                           ; Copyright © 2023, Microchip Technology Inc. and its subsidiaries ("Microchip")
    29                           ; All rights reserved.
    30                           ; 
    31                           ; This software is developed by Microchip Technology Inc. and its subsidiaries ("Microch
      +                          ip").
    32                           ; 
    33                           ; Redistribution and use in source and binary forms, with or without modification, are
    34                           ; permitted provided that the following conditions are met:
    35                           ; 
    36                           ;     1. Redistributions of source code must retain the above copyright notice, this lis
      +                          t of
    37                           ;        conditions and the following disclaimer.
    38                           ; 
    39                           ;     2. Redistributions in binary form must reproduce the above copyright notice, this 
      +                          list
    40                           ;        of conditions and the following disclaimer in the documentation and/or other
    41                           ;        materials provided with the distribution. Publication is not required when
    42                           ;        this file is used in an embedded application.
    43                           ; 
    44                           ;     3. Microchip's name may not be used to endorse or promote products derived from th
      +                          is
    45                           ;        software without specific prior written permission.
    46                           ; 
    47                           ; THIS SOFTWARE IS PROVIDED BY MICROCHIP "AS IS" AND ANY EXPRESS OR IMPLIED WARRANTIES,
    48                           ; INCLUDING, BUT NOT LIMITED TO, THE IMPLIED WARRANTIES OF MERCHANTABILITY AND FITNESS F
      +                          OR
    49                           ; PURPOSE ARE DISCLAIMED.  IN NO EVENT SHALL MICROCHIP BE LIABLE FOR ANY DIRECT, INDIREC
      +                          T,
    50                           ; INCIDENTAL, SPECIAL, EXEMPLARY, OR CONSEQUENTIAL DAMAGES (INCLUDING BUT NOT LIMITED TO
    51                           ; PROCUREMENT OF SUBSTITUTE GOODS OR SERVICES; LOSS OF USE, DATA OR PROFITS; OR BUSINESS
    52                           ; INTERRUPTION) HOWSOEVER CAUSED AND ON ANY THEORY OF LIABILITY, WHETHER IN CONTRACT, ST
      +                          RICT
    53                           ; LIABILITY, OR TORT (INCLUDING NEGLIGENCE OR OTHERWISE) ARISING IN ANY WAY OUT OF THE U
      +                          SE OF
    54                           ; THIS SOFTWARE, EVEN IF ADVISED OF THE POSSIBILITY OF SUCH DAMAGE.
    55                           ; 
    56                           ; 
    57                           ; Code-generator required, PIC16F1718 Definitions
    58                           ; 
    59                           ; SFR Addresses
    60     0000                     	;# 
    61     0001                     	;# 
    62     0002                     	;# 
    63     0003                     	;# 
    64     0004                     	;# 
    65     0005                     	;# 
    66     0006                     	;# 
    67     0007                     	;# 
    68     0008                     	;# 
    69     0009                     	;# 
    70     000A                     	;# 
    71     000B                     	;# 
    72     000C                     	;# 
    73     000D                     	;# 
    74     000E                     	;# 
    75     0010                     	;# 
    76     0011                     	;# 
    77     0012                     	;# 
    78     0013                     	;# 
    79     0015                     	;# 
    80     0016                     	;# 
    81     0016                     	;# 
    82     0017                     	;# 
    83     0018                     	;# 
    84     0019                     	;# 
    85     001A                     	;# 
    86     001B                     	;# 
    87     001C                     	;# 
    88     008C                     	;# 
    89     008D                     	;# 
    90     008E                     	;# 
    91     0090                     	;# 
    92     0091                     	;# 
    93     0092                     	;# 
    94     0093                     	;# 
    95     0095                     	;# 
    96     0096                     	;# 
    97     0097                     	;# 
    98     0098                     	;# 
    99     0099                     	;# 
   100     009A                     	;# 
   101     009B                     	;# 
   102     009B                     	;# 
   103     009C                     	;# 
   104     009D                     	;# 
   105     009E                     	;# 
   106     009F                     	;# 
   107     010C                     	;# 
   108     010D                     	;# 
   109     010E                     	;# 
   110     0111                     	;# 
   111     0112                     	;# 
   112     0113                     	;# 
   113     0114                     	;# 
   114     0115                     	;# 
   115     0116                     	;# 
   116     0117                     	;# 
   117     0118                     	;# 
   118     0119                     	;# 
   119     011A                     	;# 
   120     011B                     	;# 
   121     011B                     	;# 
   122     011C                     	;# 
   123     018C                     	;# 
   124     018D                     	;# 
   125     018E                     	;# 
   126     0191                     	;# 
   127     0191                     	;# 
   128     0192                     	;# 
   129     0193                     	;# 
   130     0193                     	;# 
   131     0194                     	;# 
   132     0195                     	;# 
   133     0196                     	;# 
   134     0197                     	;# 
   135     0199                     	;# 
   136     0199                     	;# 
   137     0199                     	;# 
   138     019A                     	;# 
   139     019A                     	;# 
   140     019A                     	;# 
   141     019B                     	;# 
   142     019B                     	;# 
   143     019B                     	;# 
   144     019B                     	;# 
   145     019B                     	;# 
   146     019C                     	;# 
   147     019C                     	;# 
   148     019C                     	;# 
   149     019D                     	;# 
   150     019D                     	;# 
   151     019D                     	;# 
   152     019E                     	;# 
   153     019E                     	;# 
   154     019E                     	;# 
   155     019F                     	;# 
   156     019F                     	;# 
   157     019F                     	;# 
   158     019F                     	;# 
   159     019F                     	;# 
   160     020C                     	;# 
   161     020D                     	;# 
   162     020E                     	;# 
   163     0210                     	;# 
   164     0211                     	;# 
   165     0211                     	;# 
   166     0212                     	;# 
   167     0212                     	;# 
   168     0213                     	;# 
   169     0213                     	;# 
   170     0214                     	;# 
   171     0214                     	;# 
   172     0215                     	;# 
   173     0215                     	;# 
   174     0215                     	;# 
   175     0215                     	;# 
   176     0216                     	;# 
   177     0216                     	;# 
   178     0217                     	;# 
   179     0217                     	;# 
   180     028C                     	;# 
   181     028D                     	;# 
   182     028E                     	;# 
   183     0291                     	;# 
   184     0291                     	;# 
   185     0292                     	;# 
   186     0293                     	;# 
   187     0293                     	;# 
   188     0298                     	;# 
   189     0298                     	;# 
   190     0299                     	;# 
   191     029A                     	;# 
   192     029A                     	;# 
   193     029E                     	;# 
   194     030C                     	;# 
   195     030D                     	;# 
   196     030E                     	;# 
   197     038C                     	;# 
   198     038D                     	;# 
   199     038E                     	;# 
   200     0390                     	;# 
   201     0391                     	;# 
   202     0392                     	;# 
   203     0393                     	;# 
   204     0394                     	;# 
   205     0395                     	;# 
   206     0396                     	;# 
   207     0397                     	;# 
   208     0398                     	;# 
   209     0399                     	;# 
   210     039D                     	;# 
   211     039E                     	;# 
   212     039F                     	;# 
   213     0415                     	;# 
   214     0416                     	;# 
   215     0417                     	;# 
   216     041C                     	;# 
   217     041D                     	;# 
   218     041E                     	;# 
   219     0498                     	;# 
   220     0498                     	;# 
   221     0499                     	;# 
   222     049A                     	;# 
   223     049B                     	;# 
   224     049B                     	;# 
   225     049C                     	;# 
   226     049D                     	;# 
   227     049E                     	;# 
   228     049F                     	;# 
   229     0511                     	;# 
   230     0515                     	;# 
   231     0617                     	;# 
   232     0618                     	;# 
   233     0619                     	;# 
   234     0619                     	;# 
   235     061A                     	;# 
   236     061B                     	;# 
   237     061C                     	;# 
   238     061C                     	;# 
   239     0691                     	;# 
   240     0692                     	;# 
   241     0693                     	;# 
   242     0694                     	;# 
   243     0695                     	;# 
   244     0696                     	;# 
   245     0697                     	;# 
   246     0698                     	;# 
   247     0699                     	;# 
   248     069A                     	;# 
   249     069B                     	;# 
   250     069C                     	;# 
   251     069D                     	;# 
   252     069E                     	;# 
   253     069F                     	;# 
   254     0E0F                     	;# 
   255     0E10                     	;# 
   256     0E11                     	;# 
   257     0E12                     	;# 
   258     0E13                     	;# 
   259     0E14                     	;# 
   260     0E15                     	;# 
   261     0E17                     	;# 
   262     0E20                     	;# 
   263     0E21                     	;# 
   264     0E22                     	;# 
   265     0E24                     	;# 
   266     0E25                     	;# 
   267     0E28                     	;# 
   268     0E29                     	;# 
   269     0E2A                     	;# 
   270     0E2B                     	;# 
   271     0E90                     	;# 
   272     0E91                     	;# 
   273     0E92                     	;# 
   274     0E93                     	;# 
   275     0E94                     	;# 
   276     0E95                     	;# 
   277     0E96                     	;# 
   278     0E97                     	;# 
   279     0E98                     	;# 
   280     0E99                     	;# 
   281     0E9A                     	;# 
   282     0E9B                     	;# 
   283     0E9C                     	;# 
   284     0E9D                     	;# 
   285     0E9E                     	;# 
   286     0E9F                     	;# 
   287     0EA0                     	;# 
   288     0EA1                     	;# 
   289     0EA2                     	;# 
   290     0EA3                     	;# 
   291     0EA4                     	;# 
   292     0EA5                     	;# 
   293     0EA6                     	;# 
   294     0EA7                     	;# 
   295     0F0F                     	;# 
   296     0F10                     	;# 
   297     0F11                     	;# 
   298     0F12                     	;# 
   299     0F13                     	;# 
   300     0F14                     	;# 
   301     0F15                     	;# 
   302     0F16                     	;# 
   303     0F17                     	;# 
   304     0F18                     	;# 
   305     0F19                     	;# 
   306     0F1A                     	;# 
   307     0F1B                     	;# 
   308     0F1C                     	;# 
   309     0F1D                     	;# 
   310     0F1E                     	;# 
   311     0F1F                     	;# 
   312     0F20                     	;# 
   313     0F21                     	;# 
   314     0F22                     	;# 
   315     0F23                     	;# 
   316     0F24                     	;# 
   317     0F25                     	;# 
   318     0F26                     	;# 
   319     0F27                     	;# 
   320     0F28                     	;# 
   321     0F29                     	;# 
   322     0F2A                     	;# 
   323     0F2B                     	;# 
   324     0F2C                     	;# 
   325     0F2D                     	;# 
   326     0F2E                     	;# 
   327     0F2F                     	;# 
   328     0F30                     	;# 
   329     0F31                     	;# 
   330     0F32                     	;# 
   331     0F33                     	;# 
   332     0F34                     	;# 
   333     0F35                     	;# 
   334     0F36                     	;# 
   335     0F37                     	;# 
   336     0FE4                     	;# 
   337     0FE5                     	;# 
   338     0FE6                     	;# 
   339     0FE7                     	;# 
   340     0FE8                     	;# 
   341     0FE9                     	;# 
   342     0FEA                     	;# 
   343     0FEB                     	;# 
   344     0FED                     	;# 
   345     0FEE                     	;# 
   346     0FEF                     	;# 
   347     0000                     	;# 
   348     0001                     	;# 
   349     0002                     	;# 
   350     0003                     	;# 
   351     0004                     	;# 
   352     0005                     	;# 
   353     0006                     	;# 
   354     0007                     	;# 
   355     0008                     	;# 
   356     0009                     	;# 
   357     000A                     	;# 
   358     000B                     	;# 
   359     000C                     	;# 
   360     000D                     	;# 
   361     000E                     	;# 
   362     0010                     	;# 
   363     0011                     	;# 
   364     0012                     	;# 
   365     0013                     	;# 
   366     0015                     	;# 
   367     0016                     	;# 
   368     0016                     	;# 
   369     0017                     	;# 
   370     0018                     	;# 
   371     0019                     	;# 
   372     001A                     	;# 
   373     001B                     	;# 
   374     001C                     	;# 
   375     008C                     	;# 
   376     008D                     	;# 
   377     008E                     	;# 
   378     0090                     	;# 
   379     0091                     	;# 
   380     0092                     	;# 
   381     0093                     	;# 
   382     0095                     	;# 
   383     0096                     	;# 
   384     0097                     	;# 
   385     0098                     	;# 
   386     0099                     	;# 
   387     009A                     	;# 
   388     009B                     	;# 
   389     009B                     	;# 
   390     009C                     	;# 
   391     009D                     	;# 
   392     009E                     	;# 
   393     009F                     	;# 
   394     010C                     	;# 
   395     010D                     	;# 
   396     010E                     	;# 
   397     0111                     	;# 
   398     0112                     	;# 
   399     0113                     	;# 
   400     0114                     	;# 
   401     0115                     	;# 
   402     0116                     	;# 
   403     0117                     	;# 
   404     0118                     	;# 
   405     0119                     	;# 
   406     011A                     	;# 
   407     011B                     	;# 
   408     011B                     	;# 
   409     011C                     	;# 
   410     018C                     	;# 
   411     018D                     	;# 
   412     018E                     	;# 
   413     0191                     	;# 
   414     0191                     	;# 
   415     0192                     	;# 
   416     0193                     	;# 
   417     0193                     	;# 
   418     0194                     	;# 
   419     0195                     	;# 
   420     0196                     	;# 
   421     0197                     	;# 
   422     0199                     	;# 
   423     0199                     	;# 
   424     0199                     	;# 
   425     019A                     	;# 
   426     019A                     	;# 
   427     019A                     	;# 
   428     019B                     	;# 
   429     019B                     	;# 
   430     019B                     	;# 
   431     019B                     	;# 
   432     019B                     	;# 
   433     019C                     	;# 
   434     019C                     	;# 
   435     019C                     	;# 
   436     019D                     	;# 
   437     019D                     	;# 
   438     019D                     	;# 
   439     019E                     	;# 
   440     019E                     	;# 
   441     019E                     	;# 
   442     019F                     	;# 
   443     019F                     	;# 
   444     019F                     	;# 
   445     019F                     	;# 
   446     019F                     	;# 
   447     020C                     	;# 
   448     020D                     	;# 
   449     020E                     	;# 
   450     0210                     	;# 
   451     0211                     	;# 
   452     0211                     	;# 
   453     0212                     	;# 
   454     0212                     	;# 
   455     0213                     	;# 
   456     0213                     	;# 
   457     0214                     	;# 
   458     0214                     	;# 
   459     0215                     	;# 
   460     0215                     	;# 
   461     0215                     	;# 
   462     0215                     	;# 
   463     0216                     	;# 
   464     0216                     	;# 
   465     0217                     	;# 
   466     0217                     	;# 
   467     028C                     	;# 
   468     028D                     	;# 
   469     028E                     	;# 
   470     0291                     	;# 
   471     0291                     	;# 
   472     0292                     	;# 
   473     0293                     	;# 
   474     0293                     	;# 
   475     0298                     	;# 
   476     0298                     	;# 
   477     0299                     	;# 
   478     029A                     	;# 
   479     029A                     	;# 
   480     029E                     	;# 
   481     030C                     	;# 
   482     030D                     	;# 
   483     030E                     	;# 
   484     038C                     	;# 
   485     038D                     	;# 
   486     038E                     	;# 
   487     0390                     	;# 
   488     0391                     	;# 
   489     0392                     	;# 
   490     0393                     	;# 
   491     0394                     	;# 
   492     0395                     	;# 
   493     0396                     	;# 
   494     0397                     	;# 
   495     0398                     	;# 
   496     0399                     	;# 
   497     039D                     	;# 
   498     039E                     	;# 
   499     039F                     	;# 
   500     0415                     	;# 
   501     0416                     	;# 
   502     0417                     	;# 
   503     041C                     	;# 
   504     041D                     	;# 
   505     041E                     	;# 
   506     0498                     	;# 
   507     0498                     	;# 
   508     0499                     	;# 
   509     049A                     	;# 
   510     049B                     	;# 
   511     049B                     	;# 
   512     049C                     	;# 
   513     049D                     	;# 
   514     049E                     	;# 
   515     049F                     	;# 
   516     0511                     	;# 
   517     0515                     	;# 
   518     0617                     	;# 
   519     0618                     	;# 
   520     0619                     	;# 
   521     0619                     	;# 
   522     061A                     	;# 
   523     061B                     	;# 
   524     061C                     	;# 
   525     061C                     	;# 
   526     0691                     	;# 
   527     0692                     	;# 
   528     0693                     	;# 
   529     0694                     	;# 
   530     0695                     	;# 
   531     0696                     	;# 
   532     0697                     	;# 
   533     0698                     	;# 
   534     0699                     	;# 
   535     069A                     	;# 
   536     069B                     	;# 
   537     069C                     	;# 
   538     069D                     	;# 
   539     069E                     	;# 
   540     069F                     	;# 
   541     0E0F                     	;# 
   542     0E10                     	;# 
   543     0E11                     	;# 
   544     0E12                     	;# 
   545     0E13                     	;# 
   546     0E14                     	;# 
   547     0E15                     	;# 
   548     0E17                     	;# 
   549     0E20                     	;# 
   550     0E21                     	;# 
   551     0E22                     	;# 
   552     0E24                     	;# 
   553     0E25                     	;# 
   554     0E28                     	;# 
   555     0E29                     	;# 
   556     0E2A                     	;# 
   557     0E2B                     	;# 
   558     0E90                     	;# 
   559     0E91                     	;# 
   560     0E92                     	;# 
   561     0E93                     	;# 
   562     0E94                     	;# 
   563     0E95                     	;# 
   564     0E96                     	;# 
   565     0E97                     	;# 
   566     0E98                     	;# 
   567     0E99                     	;# 
   568     0E9A                     	;# 
   569     0E9B                     	;# 
   570     0E9C                     	;# 
   571     0E9D                     	;# 
   572     0E9E                     	;# 
   573     0E9F                     	;# 
   574     0EA0                     	;# 
   575     0EA1                     	;# 
   576     0EA2                     	;# 
   577     0EA3                     	;# 
   578     0EA4                     	;# 
   579     0EA5                     	;# 
   580     0EA6                     	;# 
   581     0EA7                     	;# 
   582     0F0F                     	;# 
   583     0F10                     	;# 
   584     0F11                     	;# 
   585     0F12                     	;# 
   586     0F13                     	;# 
   587     0F14                     	;# 
   588     0F15                     	;# 
   589     0F16                     	;# 
   590     0F17                     	;# 
   591     0F18                     	;# 
   592     0F19                     	;# 
   593     0F1A                     	;# 
   594     0F1B                     	;# 
   595     0F1C                     	;# 
   596     0F1D                     	;# 
   597     0F1E                     	;# 
   598     0F1F                     	;# 
   599     0F20                     	;# 
   600     0F21                     	;# 
   601     0F22                     	;# 
   602     0F23                     	;# 
   603     0F24                     	;# 
   604     0F25                     	;# 
   605     0F26                     	;# 
   606     0F27                     	;# 
   607     0F28                     	;# 
   608     0F29                     	;# 
   609     0F2A                     	;# 
   610     0F2B                     	;# 
   611     0F2C                     	;# 
   612     0F2D                     	;# 
   613     0F2E                     	;# 
   614     0F2F                     	;# 
   615     0F30                     	;# 
   616     0F31                     	;# 
   617     0F32                     	;# 
   618     0F33                     	;# 
   619     0F34                     	;# 
   620     0F35                     	;# 
   621     0F36                     	;# 
   622     0F37                     	;# 
   623     0FE4                     	;# 
   624     0FE5                     	;# 
   625     0FE6                     	;# 
   626     0FE7                     	;# 
   627     0FE8                     	;# 
   628     0FE9                     	;# 
   629     0FEA                     	;# 
   630     0FEB                     	;# 
   631     0FED                     	;# 
   632     0FEE                     	;# 
   633     0FEF                     	;# 
   634     0000                     	;# 
   635     0001                     	;# 
   636     0002                     	;# 
   637     0003                     	;# 
   638     0004                     	;# 
   639     0005                     	;# 
   640     0006                     	;# 
   641     0007                     	;# 
   642     0008                     	;# 
   643     0009                     	;# 
   644     000A                     	;# 
   645     000B                     	;# 
   646     000C                     	;# 
   647     000D                     	;# 
   648     000E                     	;# 
   649     0010                     	;# 
   650     0011                     	;# 
   651     0012                     	;# 
   652     0013                     	;# 
   653     0015                     	;# 
   654     0016                     	;# 
   655     0016                     	;# 
   656     0017                     	;# 
   657     0018                     	;# 
   658     0019                     	;# 
   659     001A                     	;# 
   660     001B                     	;# 
   661     001C                     	;# 
   662     008C                     	;# 
   663     008D                     	;# 
   664     008E                     	;# 
   665     0090                     	;# 
   666     0091                     	;# 
   667     0092                     	;# 
   668     0093                     	;# 
   669     0095                     	;# 
   670     0096                     	;# 
   671     0097                     	;# 
   672     0098                     	;# 
   673     0099                     	;# 
   674     009A                     	;# 
   675     009B                     	;# 
   676     009B                     	;# 
   677     009C                     	;# 
   678     009D                     	;# 
   679     009E                     	;# 
   680     009F                     	;# 
   681     010C                     	;# 
   682     010D                     	;# 
   683     010E                     	;# 
   684     0111                     	;# 
   685     0112                     	;# 
   686     0113                     	;# 
   687     0114                     	;# 
   688     0115                     	;# 
   689     0116                     	;# 
   690     0117                     	;# 
   691     0118                     	;# 
   692     0119                     	;# 
   693     011A                     	;# 
   694     011B                     	;# 
   695     011B                     	;# 
   696     011C                     	;# 
   697     018C                     	;# 
   698     018D                     	;# 
   699     018E                     	;# 
   700     0191                     	;# 
   701     0191                     	;# 
   702     0192                     	;# 
   703     0193                     	;# 
   704     0193                     	;# 
   705     0194                     	;# 
   706     0195                     	;# 
   707     0196                     	;# 
   708     0197                     	;# 
   709     0199                     	;# 
   710     0199                     	;# 
   711     0199                     	;# 
   712     019A                     	;# 
   713     019A                     	;# 
   714     019A                     	;# 
   715     019B                     	;# 
   716     019B                     	;# 
   717     019B                     	;# 
   718     019B                     	;# 
   719     019B                     	;# 
   720     019C                     	;# 
   721     019C                     	;# 
   722     019C                     	;# 
   723     019D                     	;# 
   724     019D                     	;# 
   725     019D                     	;# 
   726     019E                     	;# 
   727     019E                     	;# 
   728     019E                     	;# 
   729     019F                     	;# 
   730     019F                     	;# 
   731     019F                     	;# 
   732     019F                     	;# 
   733     019F                     	;# 
   734     020C                     	;# 
   735     020D                     	;# 
   736     020E                     	;# 
   737     0210                     	;# 
   738     0211                     	;# 
   739     0211                     	;# 
   740     0212                     	;# 
   741     0212                     	;# 
   742     0213                     	;# 
   743     0213                     	;# 
   744     0214                     	;# 
   745     0214                     	;# 
   746     0215                     	;# 
   747     0215                     	;# 
   748     0215                     	;# 
   749     0215                     	;# 
   750     0216                     	;# 
   751     0216                     	;# 
   752     0217                     	;# 
   753     0217                     	;# 
   754     028C                     	;# 
   755     028D                     	;# 
   756     028E                     	;# 
   757     0291                     	;# 
   758     0291                     	;# 
   759     0292                     	;# 
   760     0293                     	;# 
   761     0293                     	;# 
   762     0298                     	;# 
   763     0298                     	;# 
   764     0299                     	;# 
   765     029A                     	;# 
   766     029A                     	;# 
   767     029E                     	;# 
   768     030C                     	;# 
   769     030D                     	;# 
   770     030E                     	;# 
   771     038C                     	;# 
   772     038D                     	;# 
   773     038E                     	;# 
   774     0390                     	;# 
   775     0391                     	;# 
   776     0392                     	;# 
   777     0393                     	;# 
   778     0394                     	;# 
   779     0395                     	;# 
   780     0396                     	;# 
   781     0397                     	;# 
   782     0398                     	;# 
   783     0399                     	;# 
   784     039D                     	;# 
   785     039E                     	;# 
   786     039F                     	;# 
   787     0415                     	;# 
   788     0416                     	;# 
   789     0417                     	;# 
   790     041C                     	;# 
   791     041D                     	;# 
   792     041E                     	;# 
   793     0498                     	;# 
   794     0498                     	;# 
   795     0499                     	;# 
   796     049A                     	;# 
   797     049B                     	;# 
   798     049B                     	;# 
   799     049C                     	;# 
   800     049D                     	;# 
   801     049E                     	;# 
   802     049F                     	;# 
   803     0511                     	;# 
   804     0515                     	;# 
   805     0617                     	;# 
   806     0618                     	;# 
   807     0619                     	;# 
   808     0619                     	;# 
   809     061A                     	;# 
   810     061B                     	;# 
   811     061C                     	;# 
   812     061C                     	;# 
   813     0691                     	;# 
   814     0692                     	;# 
   815     0693                     	;# 
   816     0694                     	;# 
   817     0695                     	;# 
   818     0696                     	;# 
   819     0697                     	;# 
   820     0698                     	;# 
   821     0699                     	;# 
   822     069A                     	;# 
   823     069B                     	;# 
   824     069C                     	;# 
   825     069D                     	;# 
   826     069E                     	;# 
   827     069F                     	;# 
   828     0E0F                     	;# 
   829     0E10                     	;# 
   830     0E11                     	;# 
   831     0E12                     	;# 
   832     0E13                     	;# 
   833     0E14                     	;# 
   834     0E15                     	;# 
   835     0E17                     	;# 
   836     0E20                     	;# 
   837     0E21                     	;# 
   838     0E22                     	;# 
   839     0E24                     	;# 
   840     0E25                     	;# 
   841     0E28                     	;# 
   842     0E29                     	;# 
   843     0E2A                     	;# 
   844     0E2B                     	;# 
   845     0E90                     	;# 
   846     0E91                     	;# 
   847     0E92                     	;# 
   848     0E93                     	;# 
   849     0E94                     	;# 
   850     0E95                     	;# 
   851     0E96                     	;# 
   852     0E97                     	;# 
   853     0E98                     	;# 
   854     0E99                     	;# 
   855     0E9A                     	;# 
   856     0E9B                     	;# 
   857     0E9C                     	;# 
   858     0E9D                     	;# 
   859     0E9E                     	;# 
   860     0E9F                     	;# 
   861     0EA0                     	;# 
   862     0EA1                     	;# 
   863     0EA2                     	;# 
   864     0EA3                     	;# 
   865     0EA4                     	;# 
   866     0EA5                     	;# 
   867     0EA6                     	;# 
   868     0EA7                     	;# 
   869     0F0F                     	;# 
   870     0F10                     	;# 
   871     0F11                     	;# 
   872     0F12                     	;# 
   873     0F13                     	;# 
   874     0F14                     	;# 
   875     0F15                     	;# 
   876     0F16                     	;# 
   877     0F17                     	;# 
   878     0F18                     	;# 
   879     0F19                     	;# 
   880     0F1A                     	;# 
   881     0F1B                     	;# 
   882     0F1C                     	;# 
   883     0F1D                     	;# 
   884     0F1E                     	;# 
   885     0F1F                     	;# 
   886     0F20                     	;# 
   887     0F21                     	;# 
   888     0F22                     	;# 
   889     0F23                     	;# 
   890     0F24                     	;# 
   891     0F25                     	;# 
   892     0F26                     	;# 
   893     0F27                     	;# 
   894     0F28                     	;# 
   895     0F29                     	;# 
   896     0F2A                     	;# 
   897     0F2B                     	;# 
   898     0F2C                     	;# 
   899     0F2D                     	;# 
   900     0F2E                     	;# 
   901     0F2F                     	;# 
   902     0F30                     	;# 
   903     0F31                     	;# 
   904     0F32                     	;# 
   905     0F33                     	;# 
   906     0F34                     	;# 
   907     0F35                     	;# 
   908     0F36                     	;# 
   909     0F37                     	;# 
   910     0FE4                     	;# 
   911     0FE5                     	;# 
   912     0FE6                     	;# 
   913     0FE7                     	;# 
   914     0FE8                     	;# 
   915     0FE9                     	;# 
   916     0FEA                     	;# 
   917     0FEB                     	;# 
   918     0FED                     	;# 
   919     0FEE                     	;# 
   920     0FEF                     	;# 
   921                           
   922                           	psect	stringtext1
   923     0800                     __pstringtext1:
   924     0800                     Buzzer_Siren@tick:
   925     0800  3405               	retlw	5
   926     0801  3400               	retlw	0
   927     0802  3400               	retlw	0
   928     0803  3400               	retlw	0
   929     0804                     __end_ofBuzzer_Siren@tick:
   930     008D                     _TRISBbits	set	141
   931     04CF                     _SPLLEN	set	1231
   932     04CE                     _IRCF3	set	1230
   933     04CD                     _IRCF2	set	1229
   934     04CC                     _IRCF1	set	1228
   935     04CB                     _IRCF0	set	1227
   936     04C9                     _SCS1	set	1225
   937     04C8                     _SCS0	set	1224
   938     018D                     _ANSELBbits	set	397
   939     0291                     _CCPR1L	set	657
   940     0293                     _CCP1CONbits	set	659
   941     029E                     _CCPTMRSbits	set	670
   942     041C                     _TMR6	set	1052
   943     041D                     _PR6	set	1053
   944     041E                     _T6CONbits	set	1054
   945     0E0F                     _PPSLOCKbits	set	3599
   946     0E0F                     _PPSLOCK	set	3599
   947     0E98                     _RB0PPSbits	set	3736
   948                           
   949                           	psect	cinit
   950     07FD                     start_initialization:	
   951                           ; #config settings
   952                           
   953     07FD                     __initialization:
   954     07FD                     end_of_initialization:	
   955                           ;End of C runtime variable initialization code
   956                           
   957     07FD                     __end_of__initialization:
   958     07FD  0020               	movlb	0
   959     07FE  3183  2B06         	ljmp	_main	;jump to C main() function
   960                           
   961                           	psect	cstackCOMMON
   962     0070                     __pcstackCOMMON:
   963     0070                     ?_Buzzer_Init:
   964     0070                     ??_Buzzer_Init:	
   965                           ; 1 bytes @ 0x0
   966                           
   967     0070                     ?_Buzzer_Success:	
   968                           ; 1 bytes @ 0x0
   969                           
   970     0070                     ?_Buzzer_Warning:	
   971                           ; 1 bytes @ 0x0
   972                           
   973     0070                     ?_Buzzer_Stop:	
   974                           ; 1 bytes @ 0x0
   975                           
   976     0070                     ??_Buzzer_Stop:	
   977                           ; 1 bytes @ 0x0
   978                           
   979     0070                     ?_internal_32:	
   980                           ; 1 bytes @ 0x0
   981                           
   982     0070                     ??_internal_32:	
   983                           ; 1 bytes @ 0x0
   984                           
   985     0070                     ?_main:	
   986                           ; 1 bytes @ 0x0
   987                           
   988     0070                     ?_delay_ms:	
   989                           ; 1 bytes @ 0x0
   990                           
   991     0070                     ?_delay_variable_ms:	
   992                           ; 1 bytes @ 0x0
   993                           
   994     0070                     ?___lmul:	
   995                           ; 1 bytes @ 0x0
   996                           
   997     0070                     delay_ms@ms:	
   998                           ; 4 bytes @ 0x0
   999                           
  1000     0070                     delay_variable_ms@ms:	
  1001                           ; 4 bytes @ 0x0
  1002                           
  1003     0070                     ___lmul@multiplier:	
  1004                           ; 4 bytes @ 0x0
  1005                           
  1006                           
  1007                           ; 4 bytes @ 0x0
  1008     0070                     	ds	4
  1009     0074                     ??_delay_ms:
  1010     0074                     ??_delay_variable_ms:	
  1011                           ; 1 bytes @ 0x4
  1012                           
  1013     0074                     ___lmul@multiplicand:	
  1014                           ; 1 bytes @ 0x4
  1015                           
  1016                           
  1017                           ; 4 bytes @ 0x4
  1018     0074                     	ds	1
  1019     0075                     delay_variable_ms@i:
  1020                           
  1021                           ; 4 bytes @ 0x5
  1022     0075                     	ds	3
  1023     0078                     ??___lmul:
  1024     0078                     ___lmul@product:	
  1025                           ; 1 bytes @ 0x8
  1026                           
  1027                           
  1028                           ; 4 bytes @ 0x8
  1029     0078                     	ds	4
  1030     007C                     ??___lldiv:
  1031                           
  1032                           ; 1 bytes @ 0xC
  1033     007C                     	ds	1
  1034     007D                     ??_Buzzer_Success:
  1035     007D                     ??_Buzzer_Warning:	
  1036                           ; 1 bytes @ 0xD
  1037                           
  1038     007D                     ??_Buzzer_Beep:	
  1039                           ; 1 bytes @ 0xD
  1040                           
  1041                           
  1042                           ; 1 bytes @ 0xD
  1043     007D                     	ds	1
  1044                           
  1045                           	psect	cstackBANK0
  1046     0020                     __pcstackBANK0:
  1047     0020                     ?___lldiv:
  1048     0020                     ___lldiv@divisor:	
  1049                           ; 4 bytes @ 0x0
  1050                           
  1051                           
  1052                           ; 4 bytes @ 0x0
  1053     0020                     	ds	4
  1054     0024                     ___lldiv@dividend:
  1055                           
  1056                           ; 4 bytes @ 0x4
  1057     0024                     	ds	4
  1058     0028                     ___lldiv@quotient:
  1059                           
  1060                           ; 4 bytes @ 0x8
  1061     0028                     	ds	4
  1062     002C                     ___lldiv@counter:
  1063                           
  1064                           ; 1 bytes @ 0xC
  1065     002C                     	ds	1
  1066     002D                     ?_Buzzer_Set:
  1067     002D                     Buzzer_Set@frequency_hz:	
  1068                           ; 1 bytes @ 0xD
  1069                           
  1070                           
  1071                           ; 4 bytes @ 0xD
  1072     002D                     	ds	4
  1073     0031                     Buzzer_Set@volume_pct:
  1074                           
  1075                           ; 1 bytes @ 0x11
  1076     0031                     	ds	1
  1077     0032                     ??_Buzzer_Set:
  1078                           
  1079                           ; 1 bytes @ 0x12
  1080     0032                     	ds	8
  1081     003A                     Buzzer_Set@duty_10bit:
  1082                           
  1083                           ; 2 bytes @ 0x1A
  1084     003A                     	ds	2
  1085     003C                     Buzzer_Set@prescale_bits:
  1086                           
  1087                           ; 1 bytes @ 0x1C
  1088     003C                     	ds	1
  1089     003D                     Buzzer_Set@pr_value:
  1090                           
  1091                           ; 4 bytes @ 0x1D
  1092     003D                     	ds	4
  1093     0041                     ?_Buzzer_SweepUp:
  1094     0041                     ?_Buzzer_Siren:	
  1095                           ; 1 bytes @ 0x21
  1096                           
  1097     0041                     ?_Buzzer_Countdown:	
  1098                           ; 1 bytes @ 0x21
  1099                           
  1100     0041                     ?_Buzzer_Beep:	
  1101                           ; 1 bytes @ 0x21
  1102                           
  1103     0041                     Buzzer_Beep@frequency_hz:	
  1104                           ; 1 bytes @ 0x21
  1105                           
  1106     0041                     Buzzer_SweepUp@start_hz:	
  1107                           ; 4 bytes @ 0x21
  1108                           
  1109     0041                     Buzzer_Siren@low_hz:	
  1110                           ; 4 bytes @ 0x21
  1111                           
  1112     0041                     Buzzer_Countdown@duration_ms:	
  1113                           ; 4 bytes @ 0x21
  1114                           
  1115                           
  1116                           ; 4 bytes @ 0x21
  1117     0041                     	ds	4
  1118     0045                     ??_Buzzer_Countdown:
  1119     0045                     Buzzer_Beep@volume_pct:	
  1120                           ; 1 bytes @ 0x25
  1121                           
  1122     0045                     Buzzer_SweepUp@end_hz:	
  1123                           ; 1 bytes @ 0x25
  1124                           
  1125     0045                     Buzzer_Siren@high_hz:	
  1126                           ; 4 bytes @ 0x25
  1127                           
  1128                           
  1129                           ; 4 bytes @ 0x25
  1130     0045                     	ds	1
  1131     0046                     Buzzer_Beep@duration_ms:
  1132                           
  1133                           ; 4 bytes @ 0x26
  1134     0046                     	ds	3
  1135     0049                     Buzzer_SweepUp@duration_ms:
  1136     0049                     Buzzer_Siren@duration_ms:	
  1137                           ; 4 bytes @ 0x29
  1138                           
  1139     0049                     Buzzer_Countdown@beep_freq:	
  1140                           ; 4 bytes @ 0x29
  1141                           
  1142                           
  1143                           ; 4 bytes @ 0x29
  1144     0049                     	ds	1
  1145     004A                     Buzzer_Warning@i:
  1146                           
  1147                           ; 1 bytes @ 0x2A
  1148     004A                     	ds	3
  1149     004D                     ??_Buzzer_SweepUp:
  1150     004D                     ??_Buzzer_Siren:	
  1151                           ; 1 bytes @ 0x2D
  1152                           
  1153     004D                     Buzzer_Countdown@elapsed:	
  1154                           ; 1 bytes @ 0x2D
  1155                           
  1156                           
  1157                           ; 4 bytes @ 0x2D
  1158     004D                     	ds	4
  1159     0051                     Buzzer_Siren@t:
  1160     0051                     Buzzer_Countdown@initial_delay:	
  1161                           ; 4 bytes @ 0x31
  1162                           
  1163                           
  1164                           ; 4 bytes @ 0x31
  1165     0051                     	ds	4
  1166     0055                     Buzzer_Siren@dir:
  1167     0055                     Buzzer_SweepUp@f:	
  1168                           ; 1 bytes @ 0x35
  1169                           
  1170                           
  1171                           ; 4 bytes @ 0x35
  1172     0055                     	ds	1
  1173     0056                     Buzzer_Siren@f:
  1174                           
  1175                           ; 4 bytes @ 0x36
  1176     0056                     	ds	3
  1177     0059                     Buzzer_SweepUp@k:
  1178                           
  1179                           ; 4 bytes @ 0x39
  1180     0059                     	ds	1
  1181     005A                     Buzzer_Siren@step:
  1182                           
  1183                           ; 4 bytes @ 0x3A
  1184     005A                     	ds	3
  1185     005D                     Buzzer_SweepUp@steps:
  1186                           
  1187                           ; 4 bytes @ 0x3D
  1188     005D                     	ds	4
  1189     0061                     ??_main:
  1190                           
  1191                           ; 1 bytes @ 0x41
  1192     0061                     	ds	2
  1193                           
  1194                           	psect	maintext
  1195     0306                     __pmaintext:	
  1196 ;;
  1197 ;;Main: autosize = 0, tempsize = 2, incstack = 0, save=0
  1198 ;;
  1199 ;; *************** function _main *****************
  1200 ;; Defined at:
  1201 ;;		line 4 in file "main.c"
  1202 ;; Parameters:    Size  Location     Type
  1203 ;;		None
  1204 ;; Auto vars:     Size  Location     Type
  1205 ;;		None
  1206 ;; Return value:  Size  Location     Type
  1207 ;;                  1    wreg      void 
  1208 ;; Registers used:
  1209 ;;		wreg, status,2, status,0, pclath, cstack
  1210 ;; Tracked objects:
  1211 ;;		On entry : B1F/0
  1212 ;;		On exit  : 0/0
  1213 ;;		Unchanged: 0/0
  1214 ;; Data sizes:     COMMON   BANK0   BANK1   BANK2   BANK3   BANK4   BANK5   BANK6   BANK7   BANK8   BANK9  BANK10  BANK1
      +1  BANK12  BANK13  BANK14  BANK15  BANK16  BANK17  BANK18  BANK19  BANK20  BANK21  BANK22  BANK23  BANK24  BANK25
  1215 ;;      Params:         0       0       0       0       0       0       0       0       0       0       0       0       
      +0       0       0       0       0       0       0       0       0       0       0       0       0       0       0
  1216 ;;      Locals:         0       0       0       0       0       0       0       0       0       0       0       0       
      +0       0       0       0       0       0       0       0       0       0       0       0       0       0       0
  1217 ;;      Temps:          0       2       0       0       0       0       0       0       0       0       0       0       
      +0       0       0       0       0       0       0       0       0       0       0       0       0       0       0
  1218 ;;      Totals:         0       2       0       0       0       0       0       0       0       0       0       0       
      +0       0       0       0       0       0       0       0       0       0       0       0       0       0       0
  1219 ;;Total ram usage:        2 bytes
  1220 ;; Hardware stack levels required when called: 4
  1221 ;; This function calls:
  1222 ;;		_Buzzer_Countdown
  1223 ;;		_Buzzer_Init
  1224 ;;		_Buzzer_Siren
  1225 ;;		_Buzzer_Success
  1226 ;;		_Buzzer_SweepUp
  1227 ;;		_Buzzer_Warning
  1228 ;;		_internal_32
  1229 ;; This function is called by:
  1230 ;;		Startup code after reset
  1231 ;; This function uses a non-reentrant model
  1232 ;;
  1233                           
  1234     0306                     _main:	
  1235                           ;psect for function _main
  1236                           
  1237     0306                     l1386:	
  1238                           ;incstack = 0
  1239                           ; Regs used in _main: [wreg+status,2+status,0+pclath+cstack]
  1240                           
  1241                           
  1242                           ;main.c: 6:     internal_32();
  1243     0306  3181  214C  3183   	fcall	_internal_32
  1244     0309                     l1388:
  1245                           
  1246                           ;main.c: 8:     Buzzer_Init();
  1247     0309  3181  219B  3183   	fcall	_Buzzer_Init
  1248     030C                     l1390:
  1249                           
  1250                           ;main.c: 11:     Buzzer_Success();
  1251     030C  3182  2252  3183   	fcall	_Buzzer_Success
  1252     030F                     l1392:
  1253                           
  1254                           ;main.c: 12:     _delay((unsigned long)((400)*(32000000/4000.0)));
  1255     030F  3011               	movlw	17
  1256     0310  0020               	movlb	0	; select bank0
  1257     0311  00E2               	movwf	??_main+1
  1258     0312  303C               	movlw	60
  1259     0313  00E1               	movwf	??_main
  1260     0314  30CB               	movlw	203
  1261     0315                     u1077:
  1262     0315  0B89               	decfsz	9,f
  1263     0316  2B15               	goto	u1077
  1264     0317  0BE1               	decfsz	??_main,f
  1265     0318  2B15               	goto	u1077
  1266     0319  0BE2               	decfsz	??_main+1,f
  1267     031A  2B15               	goto	u1077
  1268                           
  1269                           ;main.c: 14:     Buzzer_SweepUp(1000, 6000, 1200);
  1270     031B  3000               	movlw	0
  1271     031C  0020               	movlb	0	; select bank0
  1272     031D  00C4               	movwf	Buzzer_SweepUp@start_hz+3
  1273     031E  3000               	movlw	0
  1274     031F  00C3               	movwf	Buzzer_SweepUp@start_hz+2
  1275     0320  3003               	movlw	3
  1276     0321  00C2               	movwf	Buzzer_SweepUp@start_hz+1
  1277     0322  30E8               	movlw	232
  1278     0323  00C1               	movwf	Buzzer_SweepUp@start_hz
  1279     0324  3000               	movlw	0
  1280     0325  00C8               	movwf	Buzzer_SweepUp@end_hz+3
  1281     0326  3000               	movlw	0
  1282     0327  00C7               	movwf	Buzzer_SweepUp@end_hz+2
  1283     0328  3017               	movlw	23
  1284     0329  00C6               	movwf	Buzzer_SweepUp@end_hz+1
  1285     032A  3070               	movlw	112
  1286     032B  00C5               	movwf	Buzzer_SweepUp@end_hz
  1287     032C  3000               	movlw	0
  1288     032D  00CC               	movwf	Buzzer_SweepUp@duration_ms+3
  1289     032E  3000               	movlw	0
  1290     032F  00CB               	movwf	Buzzer_SweepUp@duration_ms+2
  1291     0330  3004               	movlw	4
  1292     0331  00CA               	movwf	Buzzer_SweepUp@duration_ms+1
  1293     0332  30B0               	movlw	176
  1294     0333  00C9               	movwf	Buzzer_SweepUp@duration_ms
  1295     0334  3183  237F  3183   	fcall	_Buzzer_SweepUp
  1296     0337                     l1394:
  1297                           
  1298                           ;main.c: 15:     _delay((unsigned long)((200)*(32000000/4000.0)));
  1299     0337  3009               	movlw	9
  1300     0338  0020               	movlb	0	; select bank0
  1301     0339  00E2               	movwf	??_main+1
  1302     033A  301E               	movlw	30
  1303     033B  00E1               	movwf	??_main
  1304     033C  30E4               	movlw	228
  1305     033D                     u1087:
  1306     033D  0B89               	decfsz	9,f
  1307     033E  2B3D               	goto	u1087
  1308     033F  0BE1               	decfsz	??_main,f
  1309     0340  2B3D               	goto	u1087
  1310     0341  0BE2               	decfsz	??_main+1,f
  1311     0342  2B3D               	goto	u1087
  1312     0343  0000               	nop
  1313     0344                     l1396:
  1314                           
  1315                           ;main.c: 17:     Buzzer_Siren(1500, 3000, 3000);
  1316     0344  3000               	movlw	0
  1317     0345  0020               	movlb	0	; select bank0
  1318     0346  00C4               	movwf	Buzzer_Siren@low_hz+3
  1319     0347  3000               	movlw	0
  1320     0348  00C3               	movwf	Buzzer_Siren@low_hz+2
  1321     0349  3005               	movlw	5
  1322     034A  00C2               	movwf	Buzzer_Siren@low_hz+1
  1323     034B  30DC               	movlw	220
  1324     034C  00C1               	movwf	Buzzer_Siren@low_hz
  1325     034D  3000               	movlw	0
  1326     034E  00C8               	movwf	Buzzer_Siren@high_hz+3
  1327     034F  3000               	movlw	0
  1328     0350  00C7               	movwf	Buzzer_Siren@high_hz+2
  1329     0351  300B               	movlw	11
  1330     0352  00C6               	movwf	Buzzer_Siren@high_hz+1
  1331     0353  30B8               	movlw	184
  1332     0354  00C5               	movwf	Buzzer_Siren@high_hz
  1333     0355  3000               	movlw	0
  1334     0356  00CC               	movwf	Buzzer_Siren@duration_ms+3
  1335     0357  3000               	movlw	0
  1336     0358  00CB               	movwf	Buzzer_Siren@duration_ms+2
  1337     0359  300B               	movlw	11
  1338     035A  00CA               	movwf	Buzzer_Siren@duration_ms+1
  1339     035B  30B8               	movlw	184
  1340     035C  00C9               	movwf	Buzzer_Siren@duration_ms
  1341     035D  3185  250C  3183   	fcall	_Buzzer_Siren
  1342     0360                     l1398:
  1343                           
  1344                           ;main.c: 20:         Buzzer_Countdown(8000);
  1345     0360  3000               	movlw	0
  1346     0361  0020               	movlb	0	; select bank0
  1347     0362  00C4               	movwf	Buzzer_Countdown@duration_ms+3
  1348     0363  3000               	movlw	0
  1349     0364  00C3               	movwf	Buzzer_Countdown@duration_ms+2
  1350     0365  301F               	movlw	31
  1351     0366  00C2               	movwf	Buzzer_Countdown@duration_ms+1
  1352     0367  3040               	movlw	64
  1353     0368  00C1               	movwf	Buzzer_Countdown@duration_ms
  1354     0369  3184  2440  3183   	fcall	_Buzzer_Countdown
  1355     036C                     l1400:
  1356                           
  1357                           ;main.c: 21:         Buzzer_Warning();
  1358     036C  3181  21F1  3183   	fcall	_Buzzer_Warning
  1359                           
  1360                           ;main.c: 22:         _delay((unsigned long)((800)*(32000000/4000.0)));
  1361     036F  3021               	movlw	33
  1362     0370  0020               	movlb	0	; select bank0
  1363     0371  00E2               	movwf	??_main+1
  1364     0372  3078               	movlw	120
  1365     0373  00E1               	movwf	??_main
  1366     0374  3098               	movlw	152
  1367     0375                     u1097:
  1368     0375  0B89               	decfsz	9,f
  1369     0376  2B75               	goto	u1097
  1370     0377  0BE1               	decfsz	??_main,f
  1371     0378  2B75               	goto	u1097
  1372     0379  0BE2               	decfsz	??_main+1,f
  1373     037A  2B75               	goto	u1097
  1374     037B  0000               	nop
  1375     037C  2B60               	goto	l1398
  1376     037D  3180  2802         	ljmp	start
  1377     037F                     __end_of_main:
  1378                           
  1379                           	psect	text1
  1380     014C                     __ptext1:	
  1381 ;; *************** function _internal_32 *****************
  1382 ;; Defined at:
  1383 ;;		line 36 in file "PIC16F1718_Internal.c"
  1384 ;; Parameters:    Size  Location     Type
  1385 ;;		None
  1386 ;; Auto vars:     Size  Location     Type
  1387 ;;		None
  1388 ;; Return value:  Size  Location     Type
  1389 ;;                  1    wreg      void 
  1390 ;; Registers used:
  1391 ;;		None
  1392 ;; Tracked objects:
  1393 ;;		On entry : 0/0
  1394 ;;		On exit  : 0/0
  1395 ;;		Unchanged: 0/0
  1396 ;; Data sizes:     COMMON   BANK0   BANK1   BANK2   BANK3   BANK4   BANK5   BANK6   BANK7   BANK8   BANK9  BANK10  BANK1
      +1  BANK12  BANK13  BANK14  BANK15  BANK16  BANK17  BANK18  BANK19  BANK20  BANK21  BANK22  BANK23  BANK24  BANK25
  1397 ;;      Params:         0       0       0       0       0       0       0       0       0       0       0       0       
      +0       0       0       0       0       0       0       0       0       0       0       0       0       0       0
  1398 ;;      Locals:         0       0       0       0       0       0       0       0       0       0       0       0       
      +0       0       0       0       0       0       0       0       0       0       0       0       0       0       0
  1399 ;;      Temps:          0       0       0       0       0       0       0       0       0       0       0       0       
      +0       0       0       0       0       0       0       0       0       0       0       0       0       0       0
  1400 ;;      Totals:         0       0       0       0       0       0       0       0       0       0       0       0       
      +0       0       0       0       0       0       0       0       0       0       0       0       0       0       0
  1401 ;;Total ram usage:        0 bytes
  1402 ;; Hardware stack levels used: 1
  1403 ;; This function calls:
  1404 ;;		Nothing
  1405 ;; This function is called by:
  1406 ;;		_main
  1407 ;; This function uses a non-reentrant model
  1408 ;;
  1409                           
  1410     014C                     _internal_32:	
  1411                           ;psect for function _internal_32
  1412                           
  1413     014C                     l882:	
  1414                           ;incstack = 0
  1415                           ; Regs used in _internal_32: []
  1416                           
  1417                           
  1418                           ;PIC16F1718_Internal.c: 38:     SCS0 = 0;
  1419     014C  0021               	movlb	1	; select bank1
  1420     014D  1019               	bcf	25,0	;volatile
  1421                           
  1422                           ;PIC16F1718_Internal.c: 39:     SCS1 = 0;
  1423     014E  1099               	bcf	25,1	;volatile
  1424                           
  1425                           ;PIC16F1718_Internal.c: 42:     IRCF0 = 0;
  1426     014F  1199               	bcf	25,3	;volatile
  1427                           
  1428                           ;PIC16F1718_Internal.c: 43:     IRCF1 = 1;
  1429     0150  1619               	bsf	25,4	;volatile
  1430                           
  1431                           ;PIC16F1718_Internal.c: 44:     IRCF2 = 1;
  1432     0151  1699               	bsf	25,5	;volatile
  1433                           
  1434                           ;PIC16F1718_Internal.c: 45:     IRCF3 = 1;
  1435     0152  1719               	bsf	25,6	;volatile
  1436                           
  1437                           ;PIC16F1718_Internal.c: 48:     SPLLEN = 1;
  1438     0153  1799               	bsf	25,7	;volatile
  1439     0154                     l17:
  1440     0154  0008               	return
  1441     0155                     __end_of_internal_32:
  1442                           
  1443                           	psect	text2
  1444     01F1                     __ptext2:	
  1445 ;; *************** function _Buzzer_Warning *****************
  1446 ;; Defined at:
  1447 ;;		line 190 in file "buzzer.c"
  1448 ;; Parameters:    Size  Location     Type
  1449 ;;		None
  1450 ;; Auto vars:     Size  Location     Type
  1451 ;;  i               1   42[BANK0 ] unsigned char 
  1452 ;; Return value:  Size  Location     Type
  1453 ;;                  1    wreg      void 
  1454 ;; Registers used:
  1455 ;;		wreg, status,2, status,0, pclath, cstack
  1456 ;; Tracked objects:
  1457 ;;		On entry : 0/0
  1458 ;;		On exit  : 0/0
  1459 ;;		Unchanged: 0/0
  1460 ;; Data sizes:     COMMON   BANK0   BANK1   BANK2   BANK3   BANK4   BANK5   BANK6   BANK7   BANK8   BANK9  BANK10  BANK1
      +1  BANK12  BANK13  BANK14  BANK15  BANK16  BANK17  BANK18  BANK19  BANK20  BANK21  BANK22  BANK23  BANK24  BANK25
  1461 ;;      Params:         0       0       0       0       0       0       0       0       0       0       0       0       
      +0       0       0       0       0       0       0       0       0       0       0       0       0       0       0
  1462 ;;      Locals:         0       1       0       0       0       0       0       0       0       0       0       0       
      +0       0       0       0       0       0       0       0       0       0       0       0       0       0       0
  1463 ;;      Temps:          1       0       0       0       0       0       0       0       0       0       0       0       
      +0       0       0       0       0       0       0       0       0       0       0       0       0       0       0
  1464 ;;      Totals:         1       1       0       0       0       0       0       0       0       0       0       0       
      +0       0       0       0       0       0       0       0       0       0       0       0       0       0       0
  1465 ;;Total ram usage:        2 bytes
  1466 ;; Hardware stack levels used: 1
  1467 ;; Hardware stack levels required when called: 3
  1468 ;; This function calls:
  1469 ;;		_Buzzer_Beep
  1470 ;;		_delay_variable_ms
  1471 ;; This function is called by:
  1472 ;;		_main
  1473 ;; This function uses a non-reentrant model
  1474 ;;
  1475                           
  1476     01F1                     _Buzzer_Warning:	
  1477                           ;psect for function _Buzzer_Warning
  1478                           
  1479     01F1                     l1354:	
  1480                           ;incstack = 0
  1481                           ; Regs used in _Buzzer_Warning: [wreg+status,2+status,0+pclath+cstack]
  1482                           
  1483                           
  1484                           ;buzzer.c: 192:     for(uint8_t i = 0; i < 3; i++) {
  1485     01F1  0020               	movlb	0	; select bank0
  1486     01F2  01CA               	clrf	Buzzer_Warning@i
  1487     01F3                     l1360:
  1488                           
  1489                           ;buzzer.c: 193:         Buzzer_Beep(880, 60, 90);
  1490     01F3  3000               	movlw	0
  1491     01F4  00C4               	movwf	Buzzer_Beep@frequency_hz+3
  1492     01F5  3000               	movlw	0
  1493     01F6  00C3               	movwf	Buzzer_Beep@frequency_hz+2
  1494     01F7  3003               	movlw	3
  1495     01F8  00C2               	movwf	Buzzer_Beep@frequency_hz+1
  1496     01F9  3070               	movlw	112
  1497     01FA  00C1               	movwf	Buzzer_Beep@frequency_hz
  1498     01FB  303C               	movlw	60
  1499     01FC  00C5               	movwf	Buzzer_Beep@volume_pct
  1500     01FD  3000               	movlw	0
  1501     01FE  00C9               	movwf	Buzzer_Beep@duration_ms+3
  1502     01FF  3000               	movlw	0
  1503     0200  00C8               	movwf	Buzzer_Beep@duration_ms+2
  1504     0201  3000               	movlw	0
  1505     0202  00C7               	movwf	Buzzer_Beep@duration_ms+1
  1506     0203  305A               	movlw	90
  1507     0204  00C6               	movwf	Buzzer_Beep@duration_ms
  1508     0205  3181  2155  3181   	fcall	_Buzzer_Beep
  1509                           
  1510                           ;buzzer.c: 194:         delay_variable_ms(90);
  1511     0208  3000               	movlw	0
  1512     0209  00F3               	movwf	delay_variable_ms@ms+3
  1513     020A  3000               	movlw	0
  1514     020B  00F2               	movwf	delay_variable_ms@ms+2
  1515     020C  3000               	movlw	0
  1516     020D  00F1               	movwf	delay_variable_ms@ms+1
  1517     020E  305A               	movlw	90
  1518     020F  00F0               	movwf	delay_variable_ms@ms
  1519     0210  3181  21C5  3181   	fcall	_delay_variable_ms
  1520     0213                     l1362:
  1521                           
  1522                           ;buzzer.c: 195:     }
  1523     0213  3001               	movlw	1
  1524     0214  00FD               	movwf	??_Buzzer_Warning
  1525     0215  087D               	movf	??_Buzzer_Warning,w
  1526     0216  0020               	movlb	0	; select bank0
  1527     0217  07CA               	addwf	Buzzer_Warning@i,f
  1528     0218                     l1364:
  1529     0218  3003               	movlw	3
  1530     0219  024A               	subwf	Buzzer_Warning@i,w
  1531     021A  1C03               	skipc
  1532     021B  2A1D               	goto	u931
  1533     021C  2A1E               	goto	u930
  1534     021D                     u931:
  1535     021D  29F3               	goto	l1360
  1536     021E                     u930:
  1537     021E                     l129:
  1538     021E  0008               	return
  1539     021F                     __end_of_Buzzer_Warning:
  1540                           
  1541                           	psect	text3
  1542     037F                     __ptext3:	
  1543 ;; *************** function _Buzzer_SweepUp *****************
  1544 ;; Defined at:
  1545 ;;		line 255 in file "buzzer.c"
  1546 ;; Parameters:    Size  Location     Type
  1547 ;;  start_hz        4   33[BANK0 ] unsigned long 
  1548 ;;  end_hz          4   37[BANK0 ] unsigned long 
  1549 ;;  duration_ms     4   41[BANK0 ] unsigned long 
  1550 ;; Auto vars:     Size  Location     Type
  1551 ;;  f               4   53[BANK0 ] unsigned long 
  1552 ;;  k               4   57[BANK0 ] unsigned long 
  1553 ;;  steps           4   61[BANK0 ] unsigned long 
  1554 ;; Return value:  Size  Location     Type
  1555 ;;                  1    wreg      void 
  1556 ;; Registers used:
  1557 ;;		wreg, status,2, status,0, pclath, cstack
  1558 ;; Tracked objects:
  1559 ;;		On entry : 0/0
  1560 ;;		On exit  : 0/0
  1561 ;;		Unchanged: 0/0
  1562 ;; Data sizes:     COMMON   BANK0   BANK1   BANK2   BANK3   BANK4   BANK5   BANK6   BANK7   BANK8   BANK9  BANK10  BANK1
      +1  BANK12  BANK13  BANK14  BANK15  BANK16  BANK17  BANK18  BANK19  BANK20  BANK21  BANK22  BANK23  BANK24  BANK25
  1563 ;;      Params:         0      12       0       0       0       0       0       0       0       0       0       0       
      +0       0       0       0       0       0       0       0       0       0       0       0       0       0       0
  1564 ;;      Locals:         0      12       0       0       0       0       0       0       0       0       0       0       
      +0       0       0       0       0       0       0       0       0       0       0       0       0       0       0
  1565 ;;      Temps:          0       8       0       0       0       0       0       0       0       0       0       0       
      +0       0       0       0       0       0       0       0       0       0       0       0       0       0       0
  1566 ;;      Totals:         0      32       0       0       0       0       0       0       0       0       0       0       
      +0       0       0       0       0       0       0       0       0       0       0       0       0       0       0
  1567 ;;Total ram usage:       32 bytes
  1568 ;; Hardware stack levels used: 1
  1569 ;; Hardware stack levels required when called: 2
  1570 ;; This function calls:
  1571 ;;		_Buzzer_Set
  1572 ;;		_Buzzer_Stop
  1573 ;;		___lldiv
  1574 ;;		___lmul
  1575 ;; This function is called by:
  1576 ;;		_main
  1577 ;;		_Buzzer_Ping
  1578 ;;		_Buzzer_ChargingStart
  1579 ;; This function uses a non-reentrant model
  1580 ;;
  1581                           
  1582     037F                     _Buzzer_SweepUp:	
  1583                           ;psect for function _Buzzer_SweepUp
  1584                           
  1585     037F                     l1284:	
  1586                           ;incstack = 0
  1587                           ; Regs used in _Buzzer_SweepUp: [wreg+status,2+status,0+pclath+cstack]
  1588                           
  1589                           
  1590                           ;buzzer.c: 255: void Buzzer_SweepUp(uint32_t start_hz, uint32_t end_hz, uint32_t duratio
      +                          n_ms);buzzer.c: 256: {;buzzer.c: 257:     if(end_hz <= start_hz) return;
  1591     037F  0020               	movlb	0	; select bank0
  1592     0380  0848               	movf	Buzzer_SweepUp@end_hz+3,w
  1593     0381  0244               	subwf	Buzzer_SweepUp@start_hz+3,w
  1594     0382  1D03               	skipz
  1595     0383  2B8E               	goto	u805
  1596     0384  0847               	movf	Buzzer_SweepUp@end_hz+2,w
  1597     0385  0243               	subwf	Buzzer_SweepUp@start_hz+2,w
  1598     0386  1D03               	skipz
  1599     0387  2B8E               	goto	u805
  1600     0388  0846               	movf	Buzzer_SweepUp@end_hz+1,w
  1601     0389  0242               	subwf	Buzzer_SweepUp@start_hz+1,w
  1602     038A  1D03               	skipz
  1603     038B  2B8E               	goto	u805
  1604     038C  0845               	movf	Buzzer_SweepUp@end_hz,w
  1605     038D  0241               	subwf	Buzzer_SweepUp@start_hz,w
  1606     038E                     u805:
  1607     038E  1C03               	skipc
  1608     038F  2B91               	goto	u801
  1609     0390  2B92               	goto	u800
  1610     0391                     u801:
  1611     0391  2B93               	goto	l1288
  1612     0392                     u800:
  1613     0392  2C3F               	goto	l168
  1614     0393                     l1288:
  1615                           
  1616                           ;buzzer.c: 259:     uint32_t steps = duration_ms / 2;
  1617     0393  0849               	movf	Buzzer_SweepUp@duration_ms,w
  1618     0394  00CD               	movwf	??_Buzzer_SweepUp
  1619     0395  084A               	movf	Buzzer_SweepUp@duration_ms+1,w
  1620     0396  00CE               	movwf	??_Buzzer_SweepUp+1
  1621     0397  084B               	movf	Buzzer_SweepUp@duration_ms+2,w
  1622     0398  00CF               	movwf	??_Buzzer_SweepUp+2
  1623     0399  084C               	movf	Buzzer_SweepUp@duration_ms+3,w
  1624     039A  00D0               	movwf	??_Buzzer_SweepUp+3
  1625     039B  3001               	movlw	1
  1626     039C                     u815:
  1627     039C  36D0               	lsrf	??_Buzzer_SweepUp+3,f
  1628     039D  0CCF               	rrf	??_Buzzer_SweepUp+2,f
  1629     039E  0CCE               	rrf	??_Buzzer_SweepUp+1,f
  1630     039F  0CCD               	rrf	??_Buzzer_SweepUp,f
  1631     03A0                     u810:
  1632     03A0  0B89               	decfsz	9,f
  1633     03A1  2B9C               	goto	u815
  1634     03A2  0850               	movf	??_Buzzer_SweepUp+3,w
  1635     03A3  00E0               	movwf	Buzzer_SweepUp@steps+3
  1636     03A4  084F               	movf	??_Buzzer_SweepUp+2,w
  1637     03A5  00DF               	movwf	Buzzer_SweepUp@steps+2
  1638     03A6  084E               	movf	??_Buzzer_SweepUp+1,w
  1639     03A7  00DE               	movwf	Buzzer_SweepUp@steps+1
  1640     03A8  084D               	movf	??_Buzzer_SweepUp,w
  1641     03A9  00DD               	movwf	Buzzer_SweepUp@steps
  1642     03AA                     l1290:
  1643                           
  1644                           ;buzzer.c: 260:     if(steps < 1) steps = 1;
  1645     03AA  0860               	movf	Buzzer_SweepUp@steps+3,w
  1646     03AB  045F               	iorwf	Buzzer_SweepUp@steps+2,w
  1647     03AC  045E               	iorwf	Buzzer_SweepUp@steps+1,w
  1648     03AD  045D               	iorwf	Buzzer_SweepUp@steps,w
  1649     03AE  1D03               	skipz
  1650     03AF  2BB1               	goto	u821
  1651     03B0  2BB2               	goto	u820
  1652     03B1                     u821:
  1653     03B1  2BBA               	goto	l169
  1654     03B2                     u820:
  1655     03B2                     l1292:
  1656     03B2  3000               	movlw	0
  1657     03B3  00E0               	movwf	Buzzer_SweepUp@steps+3
  1658     03B4  3000               	movlw	0
  1659     03B5  00DF               	movwf	Buzzer_SweepUp@steps+2
  1660     03B6  3000               	movlw	0
  1661     03B7  00DE               	movwf	Buzzer_SweepUp@steps+1
  1662     03B8  3001               	movlw	1
  1663     03B9  00DD               	movwf	Buzzer_SweepUp@steps
  1664     03BA                     l169:
  1665                           
  1666                           ;buzzer.c: 262:     for(uint32_t k = 0; k < steps; k++) {
  1667     03BA  3000               	movlw	0
  1668     03BB  00DC               	movwf	Buzzer_SweepUp@k+3
  1669     03BC  3000               	movlw	0
  1670     03BD  00DB               	movwf	Buzzer_SweepUp@k+2
  1671     03BE  3000               	movlw	0
  1672     03BF  00DA               	movwf	Buzzer_SweepUp@k+1
  1673     03C0  3000               	movlw	0
  1674     03C1  00D9               	movwf	Buzzer_SweepUp@k
  1675     03C2  2C2A               	goto	l1300
  1676     03C3                     l1294:
  1677                           
  1678                           ;buzzer.c: 263:         uint32_t f = start_hz + ((end_hz - start_hz) * k) / steps;
  1679     03C3  0860               	movf	Buzzer_SweepUp@steps+3,w
  1680     03C4  00A3               	movwf	___lldiv@divisor+3
  1681     03C5  085F               	movf	Buzzer_SweepUp@steps+2,w
  1682     03C6  00A2               	movwf	___lldiv@divisor+2
  1683     03C7  085E               	movf	Buzzer_SweepUp@steps+1,w
  1684     03C8  00A1               	movwf	___lldiv@divisor+1
  1685     03C9  085D               	movf	Buzzer_SweepUp@steps,w
  1686     03CA  00A0               	movwf	___lldiv@divisor
  1687     03CB  0841               	movf	Buzzer_SweepUp@start_hz,w
  1688     03CC  0245               	subwf	Buzzer_SweepUp@end_hz,w
  1689     03CD  00CD               	movwf	??_Buzzer_SweepUp
  1690     03CE  0842               	movf	Buzzer_SweepUp@start_hz+1,w
  1691     03CF  3B46               	subwfb	Buzzer_SweepUp@end_hz+1,w
  1692     03D0  00CE               	movwf	??_Buzzer_SweepUp+1
  1693     03D1  0843               	movf	Buzzer_SweepUp@start_hz+2,w
  1694     03D2  3B47               	subwfb	Buzzer_SweepUp@end_hz+2,w
  1695     03D3  00CF               	movwf	??_Buzzer_SweepUp+2
  1696     03D4  0844               	movf	Buzzer_SweepUp@start_hz+3,w
  1697     03D5  3B48               	subwfb	Buzzer_SweepUp@end_hz+3,w
  1698     03D6  00D0               	movwf	??_Buzzer_SweepUp+3
  1699     03D7  0850               	movf	??_Buzzer_SweepUp+3,w
  1700     03D8  00F3               	movwf	___lmul@multiplier+3
  1701     03D9  084F               	movf	??_Buzzer_SweepUp+2,w
  1702     03DA  00F2               	movwf	___lmul@multiplier+2
  1703     03DB  084E               	movf	??_Buzzer_SweepUp+1,w
  1704     03DC  00F1               	movwf	___lmul@multiplier+1
  1705     03DD  084D               	movf	??_Buzzer_SweepUp,w
  1706     03DE  00F0               	movwf	___lmul@multiplier
  1707     03DF  085C               	movf	Buzzer_SweepUp@k+3,w
  1708     03E0  00F7               	movwf	___lmul@multiplicand+3
  1709     03E1  085B               	movf	Buzzer_SweepUp@k+2,w
  1710     03E2  00F6               	movwf	___lmul@multiplicand+2
  1711     03E3  085A               	movf	Buzzer_SweepUp@k+1,w
  1712     03E4  00F5               	movwf	___lmul@multiplicand+1
  1713     03E5  0859               	movf	Buzzer_SweepUp@k,w
  1714     03E6  00F4               	movwf	___lmul@multiplicand
  1715     03E7  3182  221F  3183   	fcall	___lmul
  1716     03EA  0873               	movf	?___lmul+3,w
  1717     03EB  0020               	movlb	0	; select bank0
  1718     03EC  00A7               	movwf	___lldiv@dividend+3
  1719     03ED  0872               	movf	?___lmul+2,w
  1720     03EE  00A6               	movwf	___lldiv@dividend+2
  1721     03EF  0871               	movf	?___lmul+1,w
  1722     03F0  00A5               	movwf	___lldiv@dividend+1
  1723     03F1  0870               	movf	?___lmul,w
  1724     03F2  00A4               	movwf	___lldiv@dividend
  1725     03F3  3182  22AB  3183   	fcall	___lldiv
  1726     03F6  0020               	movlb	0	; select bank0
  1727     03F7  0820               	movf	?___lldiv,w
  1728     03F8  0741               	addwf	Buzzer_SweepUp@start_hz,w
  1729     03F9  00D1               	movwf	??_Buzzer_SweepUp+4
  1730     03FA  0821               	movf	?___lldiv+1,w
  1731     03FB  3D42               	addwfc	Buzzer_SweepUp@start_hz+1,w
  1732     03FC  00D2               	movwf	??_Buzzer_SweepUp+5
  1733     03FD  0822               	movf	?___lldiv+2,w
  1734     03FE  3D43               	addwfc	Buzzer_SweepUp@start_hz+2,w
  1735     03FF  00D3               	movwf	??_Buzzer_SweepUp+6
  1736     0400  0823               	movf	?___lldiv+3,w
  1737     0401  3D44               	addwfc	Buzzer_SweepUp@start_hz+3,w
  1738     0402  00D4               	movwf	??_Buzzer_SweepUp+7
  1739     0403  0854               	movf	??_Buzzer_SweepUp+7,w
  1740     0404  00D8               	movwf	Buzzer_SweepUp@f+3
  1741     0405  0853               	movf	??_Buzzer_SweepUp+6,w
  1742     0406  00D7               	movwf	Buzzer_SweepUp@f+2
  1743     0407  0852               	movf	??_Buzzer_SweepUp+5,w
  1744     0408  00D6               	movwf	Buzzer_SweepUp@f+1
  1745     0409  0851               	movf	??_Buzzer_SweepUp+4,w
  1746     040A  00D5               	movwf	Buzzer_SweepUp@f
  1747                           
  1748                           ;buzzer.c: 264:         Buzzer_Set(f, 70);
  1749     040B  0858               	movf	Buzzer_SweepUp@f+3,w
  1750     040C  00B0               	movwf	Buzzer_Set@frequency_hz+3
  1751     040D  0857               	movf	Buzzer_SweepUp@f+2,w
  1752     040E  00AF               	movwf	Buzzer_Set@frequency_hz+2
  1753     040F  0856               	movf	Buzzer_SweepUp@f+1,w
  1754     0410  00AE               	movwf	Buzzer_Set@frequency_hz+1
  1755     0411  0855               	movf	Buzzer_SweepUp@f,w
  1756     0412  00AD               	movwf	Buzzer_Set@frequency_hz
  1757     0413  3046               	movlw	70
  1758     0414  00B1               	movwf	Buzzer_Set@volume_pct
  1759     0415  3186  260C  3183   	fcall	_Buzzer_Set
  1760     0418                     l1296:
  1761                           
  1762                           ;buzzer.c: 265:         _delay((unsigned long)((2)*(32000000/4000.0)));
  1763     0418  3015               	movlw	21
  1764     0419  0020               	movlb	0	; select bank0
  1765     041A  00CD               	movwf	??_Buzzer_SweepUp
  1766     041B  30C6               	movlw	198
  1767     041C                     u1107:
  1768     041C  0B89               	decfsz	9,f
  1769     041D  2C1C               	goto	u1107
  1770     041E  0BCD               	decfsz	??_Buzzer_SweepUp,f
  1771     041F  2C1C               	goto	u1107
  1772     0420  0000               	nop
  1773     0421                     l1298:
  1774                           
  1775                           ;buzzer.c: 266:     }
  1776     0421  3001               	movlw	1
  1777     0422  0020               	movlb	0	; select bank0
  1778     0423  07D9               	addwf	Buzzer_SweepUp@k,f
  1779     0424  3000               	movlw	0
  1780     0425  3DDA               	addwfc	Buzzer_SweepUp@k+1,f
  1781     0426  3000               	movlw	0
  1782     0427  3DDB               	addwfc	Buzzer_SweepUp@k+2,f
  1783     0428  3000               	movlw	0
  1784     0429  3DDC               	addwfc	Buzzer_SweepUp@k+3,f
  1785     042A                     l1300:
  1786     042A  0860               	movf	Buzzer_SweepUp@steps+3,w
  1787     042B  025C               	subwf	Buzzer_SweepUp@k+3,w
  1788     042C  1D03               	skipz
  1789     042D  2C38               	goto	u835
  1790     042E  085F               	movf	Buzzer_SweepUp@steps+2,w
  1791     042F  025B               	subwf	Buzzer_SweepUp@k+2,w
  1792     0430  1D03               	skipz
  1793     0431  2C38               	goto	u835
  1794     0432  085E               	movf	Buzzer_SweepUp@steps+1,w
  1795     0433  025A               	subwf	Buzzer_SweepUp@k+1,w
  1796     0434  1D03               	skipz
  1797     0435  2C38               	goto	u835
  1798     0436  085D               	movf	Buzzer_SweepUp@steps,w
  1799     0437  0259               	subwf	Buzzer_SweepUp@k,w
  1800     0438                     u835:
  1801     0438  1C03               	skipc
  1802     0439  2C3B               	goto	u831
  1803     043A  2C3C               	goto	u830
  1804     043B                     u831:
  1805     043B  2BC3               	goto	l1294
  1806     043C                     u830:
  1807     043C                     l1302:
  1808                           
  1809                           ;buzzer.c: 267:     Buzzer_Stop();
  1810     043C  3181  2147  3183   	fcall	_Buzzer_Stop
  1811     043F                     l168:
  1812     043F  0008               	return
  1813     0440                     __end_of_Buzzer_SweepUp:
  1814                           
  1815                           	psect	text4
  1816     0252                     __ptext4:	
  1817 ;; *************** function _Buzzer_Success *****************
  1818 ;; Defined at:
  1819 ;;		line 174 in file "buzzer.c"
  1820 ;; Parameters:    Size  Location     Type
  1821 ;;		None
  1822 ;; Auto vars:     Size  Location     Type
  1823 ;;		None
  1824 ;; Return value:  Size  Location     Type
  1825 ;;                  1    wreg      void 
  1826 ;; Registers used:
  1827 ;;		wreg, status,2, status,0, pclath, cstack
  1828 ;; Tracked objects:
  1829 ;;		On entry : 0/0
  1830 ;;		On exit  : 0/0
  1831 ;;		Unchanged: 0/0
  1832 ;; Data sizes:     COMMON   BANK0   BANK1   BANK2   BANK3   BANK4   BANK5   BANK6   BANK7   BANK8   BANK9  BANK10  BANK1
      +1  BANK12  BANK13  BANK14  BANK15  BANK16  BANK17  BANK18  BANK19  BANK20  BANK21  BANK22  BANK23  BANK24  BANK25
  1833 ;;      Params:         0       0       0       0       0       0       0       0       0       0       0       0       
      +0       0       0       0       0       0       0       0       0       0       0       0       0       0       0
  1834 ;;      Locals:         0       0       0       0       0       0       0       0       0       0       0       0       
      +0       0       0       0       0       0       0       0       0       0       0       0       0       0       0
  1835 ;;      Temps:          0       0       0       0       0       0       0       0       0       0       0       0       
      +0       0       0       0       0       0       0       0       0       0       0       0       0       0       0
  1836 ;;      Totals:         0       0       0       0       0       0       0       0       0       0       0       0       
      +0       0       0       0       0       0       0       0       0       0       0       0       0       0       0
  1837 ;;Total ram usage:        0 bytes
  1838 ;; Hardware stack levels used: 1
  1839 ;; Hardware stack levels required when called: 3
  1840 ;; This function calls:
  1841 ;;		_Buzzer_Beep
  1842 ;;		_delay_variable_ms
  1843 ;; This function is called by:
  1844 ;;		_main
  1845 ;; This function uses a non-reentrant model
  1846 ;;
  1847                           
  1848     0252                     _Buzzer_Success:	
  1849                           ;psect for function _Buzzer_Success
  1850                           
  1851     0252                     l1282:	
  1852                           ;incstack = 0
  1853                           ; Regs used in _Buzzer_Success: [wreg+status,2+status,0+pclath+cstack]
  1854                           
  1855                           
  1856                           ;buzzer.c: 176:     Buzzer_Beep(523, 50, 90);
  1857     0252  3000               	movlw	0
  1858     0253  0020               	movlb	0	; select bank0
  1859     0254  00C4               	movwf	Buzzer_Beep@frequency_hz+3
  1860     0255  3000               	movlw	0
  1861     0256  00C3               	movwf	Buzzer_Beep@frequency_hz+2
  1862     0257  3002               	movlw	2
  1863     0258  00C2               	movwf	Buzzer_Beep@frequency_hz+1
  1864     0259  300B               	movlw	11
  1865     025A  00C1               	movwf	Buzzer_Beep@frequency_hz
  1866     025B  3032               	movlw	50
  1867     025C  00C5               	movwf	Buzzer_Beep@volume_pct
  1868     025D  3000               	movlw	0
  1869     025E  00C9               	movwf	Buzzer_Beep@duration_ms+3
  1870     025F  3000               	movlw	0
  1871     0260  00C8               	movwf	Buzzer_Beep@duration_ms+2
  1872     0261  3000               	movlw	0
  1873     0262  00C7               	movwf	Buzzer_Beep@duration_ms+1
  1874     0263  305A               	movlw	90
  1875     0264  00C6               	movwf	Buzzer_Beep@duration_ms
  1876     0265  3181  2155  3182   	fcall	_Buzzer_Beep
  1877                           
  1878                           ;buzzer.c: 177:     delay_variable_ms(40);
  1879     0268  3000               	movlw	0
  1880     0269  00F3               	movwf	delay_variable_ms@ms+3
  1881     026A  3000               	movlw	0
  1882     026B  00F2               	movwf	delay_variable_ms@ms+2
  1883     026C  3000               	movlw	0
  1884     026D  00F1               	movwf	delay_variable_ms@ms+1
  1885     026E  3028               	movlw	40
  1886     026F  00F0               	movwf	delay_variable_ms@ms
  1887     0270  3181  21C5  3182   	fcall	_delay_variable_ms
  1888                           
  1889                           ;buzzer.c: 178:     Buzzer_Beep(659, 50, 90);
  1890     0273  3000               	movlw	0
  1891     0274  0020               	movlb	0	; select bank0
  1892     0275  00C4               	movwf	Buzzer_Beep@frequency_hz+3
  1893     0276  3000               	movlw	0
  1894     0277  00C3               	movwf	Buzzer_Beep@frequency_hz+2
  1895     0278  3002               	movlw	2
  1896     0279  00C2               	movwf	Buzzer_Beep@frequency_hz+1
  1897     027A  3093               	movlw	147
  1898     027B  00C1               	movwf	Buzzer_Beep@frequency_hz
  1899     027C  3032               	movlw	50
  1900     027D  00C5               	movwf	Buzzer_Beep@volume_pct
  1901     027E  3000               	movlw	0
  1902     027F  00C9               	movwf	Buzzer_Beep@duration_ms+3
  1903     0280  3000               	movlw	0
  1904     0281  00C8               	movwf	Buzzer_Beep@duration_ms+2
  1905     0282  3000               	movlw	0
  1906     0283  00C7               	movwf	Buzzer_Beep@duration_ms+1
  1907     0284  305A               	movlw	90
  1908     0285  00C6               	movwf	Buzzer_Beep@duration_ms
  1909     0286  3181  2155  3182   	fcall	_Buzzer_Beep
  1910                           
  1911                           ;buzzer.c: 179:     delay_variable_ms(40);
  1912     0289  3000               	movlw	0
  1913     028A  00F3               	movwf	delay_variable_ms@ms+3
  1914     028B  3000               	movlw	0
  1915     028C  00F2               	movwf	delay_variable_ms@ms+2
  1916     028D  3000               	movlw	0
  1917     028E  00F1               	movwf	delay_variable_ms@ms+1
  1918     028F  3028               	movlw	40
  1919     0290  00F0               	movwf	delay_variable_ms@ms
  1920     0291  3181  21C5  3182   	fcall	_delay_variable_ms
  1921                           
  1922                           ;buzzer.c: 180:     Buzzer_Beep(784, 60, 160);
  1923     0294  3000               	movlw	0
  1924     0295  0020               	movlb	0	; select bank0
  1925     0296  00C4               	movwf	Buzzer_Beep@frequency_hz+3
  1926     0297  3000               	movlw	0
  1927     0298  00C3               	movwf	Buzzer_Beep@frequency_hz+2
  1928     0299  3003               	movlw	3
  1929     029A  00C2               	movwf	Buzzer_Beep@frequency_hz+1
  1930     029B  3010               	movlw	16
  1931     029C  00C1               	movwf	Buzzer_Beep@frequency_hz
  1932     029D  303C               	movlw	60
  1933     029E  00C5               	movwf	Buzzer_Beep@volume_pct
  1934     029F  3000               	movlw	0
  1935     02A0  00C9               	movwf	Buzzer_Beep@duration_ms+3
  1936     02A1  3000               	movlw	0
  1937     02A2  00C8               	movwf	Buzzer_Beep@duration_ms+2
  1938     02A3  3000               	movlw	0
  1939     02A4  00C7               	movwf	Buzzer_Beep@duration_ms+1
  1940     02A5  30A0               	movlw	160
  1941     02A6  00C6               	movwf	Buzzer_Beep@duration_ms
  1942     02A7  3181  2155  3182   	fcall	_Buzzer_Beep
  1943     02AA                     l121:
  1944     02AA  0008               	return
  1945     02AB                     __end_of_Buzzer_Success:
  1946                           
  1947                           	psect	text5
  1948     0155                     __ptext5:	
  1949 ;; *************** function _Buzzer_Beep *****************
  1950 ;; Defined at:
  1951 ;;		line 155 in file "buzzer.c"
  1952 ;; Parameters:    Size  Location     Type
  1953 ;;  frequency_hz    4   33[BANK0 ] unsigned long 
  1954 ;;  volume_pct      1   37[BANK0 ] unsigned char 
  1955 ;;  duration_ms     4   38[BANK0 ] unsigned long 
  1956 ;; Auto vars:     Size  Location     Type
  1957 ;;		None
  1958 ;; Return value:  Size  Location     Type
  1959 ;;                  1    wreg      void 
  1960 ;; Registers used:
  1961 ;;		wreg, status,2, status,0, pclath, cstack
  1962 ;; Tracked objects:
  1963 ;;		On entry : 0/0
  1964 ;;		On exit  : 0/0
  1965 ;;		Unchanged: 0/0
  1966 ;; Data sizes:     COMMON   BANK0   BANK1   BANK2   BANK3   BANK4   BANK5   BANK6   BANK7   BANK8   BANK9  BANK10  BANK1
      +1  BANK12  BANK13  BANK14  BANK15  BANK16  BANK17  BANK18  BANK19  BANK20  BANK21  BANK22  BANK23  BANK24  BANK25
  1967 ;;      Params:         0       9       0       0       0       0       0       0       0       0       0       0       
      +0       0       0       0       0       0       0       0       0       0       0       0       0       0       0
  1968 ;;      Locals:         0       0       0       0       0       0       0       0       0       0       0       0       
      +0       0       0       0       0       0       0       0       0       0       0       0       0       0       0
  1969 ;;      Temps:          0       0       0       0       0       0       0       0       0       0       0       0       
      +0       0       0       0       0       0       0       0       0       0       0       0       0       0       0
  1970 ;;      Totals:         0       9       0       0       0       0       0       0       0       0       0       0       
      +0       0       0       0       0       0       0       0       0       0       0       0       0       0       0
  1971 ;;Total ram usage:        9 bytes
  1972 ;; Hardware stack levels used: 1
  1973 ;; Hardware stack levels required when called: 2
  1974 ;; This function calls:
  1975 ;;		_Buzzer_Set
  1976 ;;		_Buzzer_Stop
  1977 ;;		_delay_ms
  1978 ;; This function is called by:
  1979 ;;		_Buzzer_Success
  1980 ;;		_Buzzer_Warning
  1981 ;;		_Buzzer_Failure
  1982 ;;		_Buzzer_Alert
  1983 ;;		_Buzzer_KeyPress
  1984 ;;		_Buzzer_MenuSelect
  1985 ;;		_Buzzer_MenuBack
  1986 ;;		_Buzzer_PowerUp
  1987 ;;		_Buzzer_PowerDown
  1988 ;;		_Buzzer_CriticalBattery
  1989 ;;		_Buzzer_Processing
  1990 ;;		_Buzzer_Error
  1991 ;; This function uses a non-reentrant model
  1992 ;;
  1993                           
  1994     0155                     _Buzzer_Beep:	
  1995                           ;psect for function _Buzzer_Beep
  1996                           
  1997     0155                     l1276:	
  1998                           ;incstack = 0
  1999                           ; Regs used in _Buzzer_Beep: [wreg+status,2+status,0+pclath+cstack]
  2000                           
  2001                           
  2002                           ;buzzer.c: 155: void Buzzer_Beep(uint32_t frequency_hz, uint8_t volume_pct, uint32_t dur
      +                          ation_ms);buzzer.c: 156: {;buzzer.c: 157:     Buzzer_Set(frequency_hz, volume_pct);
  2003     0155  0020               	movlb	0	; select bank0
  2004     0156  0844               	movf	Buzzer_Beep@frequency_hz+3,w
  2005     0157  00B0               	movwf	Buzzer_Set@frequency_hz+3
  2006     0158  0843               	movf	Buzzer_Beep@frequency_hz+2,w
  2007     0159  00AF               	movwf	Buzzer_Set@frequency_hz+2
  2008     015A  0842               	movf	Buzzer_Beep@frequency_hz+1,w
  2009     015B  00AE               	movwf	Buzzer_Set@frequency_hz+1
  2010     015C  0841               	movf	Buzzer_Beep@frequency_hz,w
  2011     015D  00AD               	movwf	Buzzer_Set@frequency_hz
  2012     015E  0845               	movf	Buzzer_Beep@volume_pct,w
  2013     015F  00B1               	movwf	Buzzer_Set@volume_pct
  2014     0160  3186  260C  3181   	fcall	_Buzzer_Set
  2015                           
  2016                           ;buzzer.c: 158:     delay_ms(duration_ms);
  2017     0163  0020               	movlb	0	; select bank0
  2018     0164  0849               	movf	Buzzer_Beep@duration_ms+3,w
  2019     0165  00F3               	movwf	delay_ms@ms+3
  2020     0166  0848               	movf	Buzzer_Beep@duration_ms+2,w
  2021     0167  00F2               	movwf	delay_ms@ms+2
  2022     0168  0847               	movf	Buzzer_Beep@duration_ms+1,w
  2023     0169  00F1               	movwf	delay_ms@ms+1
  2024     016A  0846               	movf	Buzzer_Beep@duration_ms,w
  2025     016B  00F0               	movwf	delay_ms@ms
  2026     016C  3181  2173  3181   	fcall	_delay_ms
  2027                           
  2028                           ;buzzer.c: 159:     Buzzer_Stop();
  2029     016F  3181  2147  3181   	fcall	_Buzzer_Stop
  2030     0172                     l112:
  2031     0172  0008               	return
  2032     0173                     __end_of_Buzzer_Beep:
  2033                           
  2034                           	psect	text6
  2035     0173                     __ptext6:	
  2036 ;; *************** function _delay_ms *****************
  2037 ;; Defined at:
  2038 ;;		line 15 in file "buzzer.c"
  2039 ;; Parameters:    Size  Location     Type
  2040 ;;  ms              4    0[COMMON] unsigned long 
  2041 ;; Auto vars:     Size  Location     Type
  2042 ;;		None
  2043 ;; Return value:  Size  Location     Type
  2044 ;;                  1    wreg      void 
  2045 ;; Registers used:
  2046 ;;		wreg, status,2, status,0
  2047 ;; Tracked objects:
  2048 ;;		On entry : 0/0
  2049 ;;		On exit  : 0/0
  2050 ;;		Unchanged: 0/0
  2051 ;; Data sizes:     COMMON   BANK0   BANK1   BANK2   BANK3   BANK4   BANK5   BANK6   BANK7   BANK8   BANK9  BANK10  BANK1
      +1  BANK12  BANK13  BANK14  BANK15  BANK16  BANK17  BANK18  BANK19  BANK20  BANK21  BANK22  BANK23  BANK24  BANK25
  2052 ;;      Params:         4       0       0       0       0       0       0       0       0       0       0       0       
      +0       0       0       0       0       0       0       0       0       0       0       0       0       0       0
  2053 ;;      Locals:         0       0       0       0       0       0       0       0       0       0       0       0       
      +0       0       0       0       0       0       0       0       0       0       0       0       0       0       0
  2054 ;;      Temps:          4       0       0       0       0       0       0       0       0       0       0       0       
      +0       0       0       0       0       0       0       0       0       0       0       0       0       0       0
  2055 ;;      Totals:         8       0       0       0       0       0       0       0       0       0       0       0       
      +0       0       0       0       0       0       0       0       0       0       0       0       0       0       0
  2056 ;;Total ram usage:        8 bytes
  2057 ;; Hardware stack levels used: 1
  2058 ;; This function calls:
  2059 ;;		Nothing
  2060 ;; This function is called by:
  2061 ;;		_Buzzer_Beep
  2062 ;; This function uses a non-reentrant model
  2063 ;;
  2064                           
  2065     0173                     _delay_ms:	
  2066                           ;psect for function _delay_ms
  2067                           
  2068     0173                     l1208:	
  2069                           ;incstack = 0
  2070                           ; Regs used in _delay_ms: [wreg+status,2+status,0]
  2071                           
  2072                           
  2073                           ;buzzer.c: 15: void delay_ms(uint32_t ms);buzzer.c: 16: {;buzzer.c: 17:     while(ms--) 
      +                          {
  2074     0173  297C               	goto	l1212
  2075     0174                     l1210:
  2076                           
  2077                           ;buzzer.c: 18:         _delay((unsigned long)((1)*(32000000/4000.0)));
  2078     0174  300B               	movlw	11
  2079     0175  00F4               	movwf	??_delay_ms
  2080     0176  3062               	movlw	98
  2081     0177                     u1117:
  2082     0177  0B89               	decfsz	9,f
  2083     0178  2977               	goto	u1117
  2084     0179  0BF4               	decfsz	??_delay_ms,f
  2085     017A  2977               	goto	u1117
  2086     017B  3200               	nop2
  2087     017C                     l1212:
  2088                           
  2089                           ;buzzer.c: 17:     while(ms--) {
  2090     017C  3001               	movlw	1
  2091     017D  00F4               	movwf	??_delay_ms
  2092     017E  3000               	movlw	0
  2093     017F  00F5               	movwf	??_delay_ms+1
  2094     0180  3000               	movlw	0
  2095     0181  00F6               	movwf	??_delay_ms+2
  2096     0182  3000               	movlw	0
  2097     0183  00F7               	movwf	??_delay_ms+3
  2098     0184  0874               	movf	??_delay_ms,w
  2099     0185  02F0               	subwf	delay_ms@ms,f
  2100     0186  0875               	movf	??_delay_ms+1,w
  2101     0187  3BF1               	subwfb	delay_ms@ms+1,f
  2102     0188  0876               	movf	??_delay_ms+2,w
  2103     0189  3BF2               	subwfb	delay_ms@ms+2,f
  2104     018A  0877               	movf	??_delay_ms+3,w
  2105     018B  3BF3               	subwfb	delay_ms@ms+3,f
  2106     018C  0A70               	incf	delay_ms@ms,w
  2107     018D  1D03               	skipz
  2108     018E  2999               	goto	u651
  2109     018F  0A71               	incf	delay_ms@ms+1,w
  2110     0190  1D03               	skipz
  2111     0191  2999               	goto	u651
  2112     0192  0A72               	incf	delay_ms@ms+2,w
  2113     0193  1D03               	skipz
  2114     0194  2999               	goto	u651
  2115     0195  0A73               	incf	delay_ms@ms+3,w
  2116     0196  1D03               	btfss	3,2
  2117     0197  2999               	goto	u651
  2118     0198  299A               	goto	u650
  2119     0199                     u651:
  2120     0199  2974               	goto	l1210
  2121     019A                     u650:
  2122     019A                     l91:
  2123     019A  0008               	return
  2124     019B                     __end_of_delay_ms:
  2125                           
  2126                           	psect	text7
  2127     050C                     __ptext7:	
  2128 ;; *************** function _Buzzer_Siren *****************
  2129 ;; Defined at:
  2130 ;;		line 285 in file "buzzer.c"
  2131 ;; Parameters:    Size  Location     Type
  2132 ;;  low_hz          4   33[BANK0 ] unsigned long 
  2133 ;;  high_hz         4   37[BANK0 ] unsigned long 
  2134 ;;  duration_ms     4   41[BANK0 ] unsigned long 
  2135 ;; Auto vars:     Size  Location     Type
  2136 ;;  step            4   58[BANK0 ] unsigned long 
  2137 ;;  f               4   54[BANK0 ] unsigned long 
  2138 ;;  t               4   49[BANK0 ] unsigned long 
  2139 ;;  dir             1   53[BANK0 ] char 
  2140 ;; Return value:  Size  Location     Type
  2141 ;;                  1    wreg      void 
  2142 ;; Registers used:
  2143 ;;		wreg, status,2, status,0, pclath, cstack
  2144 ;; Tracked objects:
  2145 ;;		On entry : 0/0
  2146 ;;		On exit  : 0/0
  2147 ;;		Unchanged: 0/0
  2148 ;; Data sizes:     COMMON   BANK0   BANK1   BANK2   BANK3   BANK4   BANK5   BANK6   BANK7   BANK8   BANK9  BANK10  BANK1
      +1  BANK12  BANK13  BANK14  BANK15  BANK16  BANK17  BANK18  BANK19  BANK20  BANK21  BANK22  BANK23  BANK24  BANK25
  2149 ;;      Params:         0      12       0       0       0       0       0       0       0       0       0       0       
      +0       0       0       0       0       0       0       0       0       0       0       0       0       0       0
  2150 ;;      Locals:         0      13       0       0       0       0       0       0       0       0       0       0       
      +0       0       0       0       0       0       0       0       0       0       0       0       0       0       0
  2151 ;;      Temps:          0       4       0       0       0       0       0       0       0       0       0       0       
      +0       0       0       0       0       0       0       0       0       0       0       0       0       0       0
  2152 ;;      Totals:         0      29       0       0       0       0       0       0       0       0       0       0       
      +0       0       0       0       0       0       0       0       0       0       0       0       0       0       0
  2153 ;;Total ram usage:       29 bytes
  2154 ;; Hardware stack levels used: 1
  2155 ;; Hardware stack levels required when called: 2
  2156 ;; This function calls:
  2157 ;;		_Buzzer_Set
  2158 ;;		_Buzzer_Stop
  2159 ;;		___lldiv
  2160 ;;		_delay_variable_ms
  2161 ;; This function is called by:
  2162 ;;		_main
  2163 ;; This function uses a non-reentrant model
  2164 ;;
  2165                           
  2166     050C                     _Buzzer_Siren:	
  2167                           ;psect for function _Buzzer_Siren
  2168                           
  2169     050C                     l1304:	
  2170                           ;incstack = 0
  2171                           ; Regs used in _Buzzer_Siren: [wreg+status,2+status,0+pclath+cstack]
  2172                           
  2173                           
  2174                           ;buzzer.c: 285: void Buzzer_Siren(uint32_t low_hz, uint32_t high_hz, uint32_t duration_m
      +                          s);buzzer.c: 286: {;buzzer.c: 287:     if(high_hz <= low_hz) return;
  2175     050C  0020               	movlb	0	; select bank0
  2176     050D  0848               	movf	Buzzer_Siren@high_hz+3,w
  2177     050E  0244               	subwf	Buzzer_Siren@low_hz+3,w
  2178     050F  1D03               	skipz
  2179     0510  2D1B               	goto	u845
  2180     0511  0847               	movf	Buzzer_Siren@high_hz+2,w
  2181     0512  0243               	subwf	Buzzer_Siren@low_hz+2,w
  2182     0513  1D03               	skipz
  2183     0514  2D1B               	goto	u845
  2184     0515  0846               	movf	Buzzer_Siren@high_hz+1,w
  2185     0516  0242               	subwf	Buzzer_Siren@low_hz+1,w
  2186     0517  1D03               	skipz
  2187     0518  2D1B               	goto	u845
  2188     0519  0845               	movf	Buzzer_Siren@high_hz,w
  2189     051A  0241               	subwf	Buzzer_Siren@low_hz,w
  2190     051B                     u845:
  2191     051B  1C03               	skipc
  2192     051C  2D1E               	goto	u841
  2193     051D  2D1F               	goto	u840
  2194     051E                     u841:
  2195     051E  2D20               	goto	l1308
  2196     051F                     u840:
  2197     051F  2E0B               	goto	l184
  2198     0520                     l1308:
  2199                           
  2200                           ;buzzer.c: 289:     const uint32_t tick = 5;;buzzer.c: 290:     uint32_t t = 0;
  2201     0520  3000               	movlw	0
  2202     0521  00D4               	movwf	Buzzer_Siren@t+3
  2203     0522  3000               	movlw	0
  2204     0523  00D3               	movwf	Buzzer_Siren@t+2
  2205     0524  3000               	movlw	0
  2206     0525  00D2               	movwf	Buzzer_Siren@t+1
  2207     0526  3000               	movlw	0
  2208     0527  00D1               	movwf	Buzzer_Siren@t
  2209     0528                     l1310:
  2210                           
  2211                           ;buzzer.c: 291:     int8_t dir = 1;
  2212     0528  01D5               	clrf	Buzzer_Siren@dir
  2213     0529  0AD5               	incf	Buzzer_Siren@dir,f
  2214                           
  2215                           ;buzzer.c: 292:     uint32_t f = low_hz;
  2216     052A  0844               	movf	Buzzer_Siren@low_hz+3,w
  2217     052B  00D9               	movwf	Buzzer_Siren@f+3
  2218     052C  0843               	movf	Buzzer_Siren@low_hz+2,w
  2219     052D  00D8               	movwf	Buzzer_Siren@f+2
  2220     052E  0842               	movf	Buzzer_Siren@low_hz+1,w
  2221     052F  00D7               	movwf	Buzzer_Siren@f+1
  2222     0530  0841               	movf	Buzzer_Siren@low_hz,w
  2223     0531  00D6               	movwf	Buzzer_Siren@f
  2224                           
  2225                           ;buzzer.c: 294:     while(t < duration_ms) {
  2226     0532  2DF6               	goto	l187
  2227     0533                     l1312:
  2228                           
  2229                           ;buzzer.c: 295:         Buzzer_Set(f, 70);
  2230     0533  0859               	movf	Buzzer_Siren@f+3,w
  2231     0534  00B0               	movwf	Buzzer_Set@frequency_hz+3
  2232     0535  0858               	movf	Buzzer_Siren@f+2,w
  2233     0536  00AF               	movwf	Buzzer_Set@frequency_hz+2
  2234     0537  0857               	movf	Buzzer_Siren@f+1,w
  2235     0538  00AE               	movwf	Buzzer_Set@frequency_hz+1
  2236     0539  0856               	movf	Buzzer_Siren@f,w
  2237     053A  00AD               	movwf	Buzzer_Set@frequency_hz
  2238     053B  3046               	movlw	70
  2239     053C  00B1               	movwf	Buzzer_Set@volume_pct
  2240     053D  3186  260C  3185   	fcall	_Buzzer_Set
  2241                           
  2242                           ;buzzer.c: 296:         delay_variable_ms(tick);
  2243     0540  3000               	movlw	0
  2244     0541  00F3               	movwf	delay_variable_ms@ms+3
  2245     0542  3000               	movlw	0
  2246     0543  00F2               	movwf	delay_variable_ms@ms+2
  2247     0544  3000               	movlw	0
  2248     0545  00F1               	movwf	delay_variable_ms@ms+1
  2249     0546  3005               	movlw	5
  2250     0547  00F0               	movwf	delay_variable_ms@ms
  2251     0548  3181  21C5  3185   	fcall	_delay_variable_ms
  2252     054B                     l1314:
  2253                           
  2254                           ;buzzer.c: 297:         t += tick;
  2255     054B  3005               	movlw	5
  2256     054C  0020               	movlb	0	; select bank0
  2257     054D  07D1               	addwf	Buzzer_Siren@t,f
  2258     054E  3000               	movlw	0
  2259     054F  3DD2               	addwfc	Buzzer_Siren@t+1,f
  2260     0550  3000               	movlw	0
  2261     0551  3DD3               	addwfc	Buzzer_Siren@t+2,f
  2262     0552  3000               	movlw	0
  2263     0553  3DD4               	addwfc	Buzzer_Siren@t+3,f
  2264     0554                     l1316:
  2265                           
  2266                           ;buzzer.c: 299:         uint32_t step = (high_hz - low_hz) / (1000 / tick);
  2267     0554  3000               	movlw	0
  2268     0555  00A3               	movwf	___lldiv@divisor+3
  2269     0556  3000               	movlw	0
  2270     0557  00A2               	movwf	___lldiv@divisor+2
  2271     0558  3000               	movlw	0
  2272     0559  00A1               	movwf	___lldiv@divisor+1
  2273     055A  30C8               	movlw	200
  2274     055B  00A0               	movwf	___lldiv@divisor
  2275     055C  0841               	movf	Buzzer_Siren@low_hz,w
  2276     055D  0245               	subwf	Buzzer_Siren@high_hz,w
  2277     055E  00CD               	movwf	??_Buzzer_Siren
  2278     055F  0842               	movf	Buzzer_Siren@low_hz+1,w
  2279     0560  3B46               	subwfb	Buzzer_Siren@high_hz+1,w
  2280     0561  00CE               	movwf	??_Buzzer_Siren+1
  2281     0562  0843               	movf	Buzzer_Siren@low_hz+2,w
  2282     0563  3B47               	subwfb	Buzzer_Siren@high_hz+2,w
  2283     0564  00CF               	movwf	??_Buzzer_Siren+2
  2284     0565  0844               	movf	Buzzer_Siren@low_hz+3,w
  2285     0566  3B48               	subwfb	Buzzer_Siren@high_hz+3,w
  2286     0567  00D0               	movwf	??_Buzzer_Siren+3
  2287     0568  0850               	movf	??_Buzzer_Siren+3,w
  2288     0569  00A7               	movwf	___lldiv@dividend+3
  2289     056A  084F               	movf	??_Buzzer_Siren+2,w
  2290     056B  00A6               	movwf	___lldiv@dividend+2
  2291     056C  084E               	movf	??_Buzzer_Siren+1,w
  2292     056D  00A5               	movwf	___lldiv@dividend+1
  2293     056E  084D               	movf	??_Buzzer_Siren,w
  2294     056F  00A4               	movwf	___lldiv@dividend
  2295     0570  3182  22AB  3185   	fcall	___lldiv
  2296     0573  0020               	movlb	0	; select bank0
  2297     0574  0823               	movf	?___lldiv+3,w
  2298     0575  00DD               	movwf	Buzzer_Siren@step+3
  2299     0576  0822               	movf	?___lldiv+2,w
  2300     0577  00DC               	movwf	Buzzer_Siren@step+2
  2301     0578  0821               	movf	?___lldiv+1,w
  2302     0579  00DB               	movwf	Buzzer_Siren@step+1
  2303     057A  0820               	movf	?___lldiv,w
  2304     057B  00DA               	movwf	Buzzer_Siren@step
  2305                           
  2306                           ;buzzer.c: 300:         if(step == 0) step = 1;
  2307     057C  085D               	movf	Buzzer_Siren@step+3,w
  2308     057D  045C               	iorwf	Buzzer_Siren@step+2,w
  2309     057E  045B               	iorwf	Buzzer_Siren@step+1,w
  2310     057F  045A               	iorwf	Buzzer_Siren@step,w
  2311     0580  1D03               	skipz
  2312     0581  2D83               	goto	u851
  2313     0582  2D84               	goto	u850
  2314     0583                     u851:
  2315     0583  2D8C               	goto	l189
  2316     0584                     u850:
  2317     0584                     l1318:
  2318     0584  3000               	movlw	0
  2319     0585  00DD               	movwf	Buzzer_Siren@step+3
  2320     0586  3000               	movlw	0
  2321     0587  00DC               	movwf	Buzzer_Siren@step+2
  2322     0588  3000               	movlw	0
  2323     0589  00DB               	movwf	Buzzer_Siren@step+1
  2324     058A  3001               	movlw	1
  2325     058B  00DA               	movwf	Buzzer_Siren@step
  2326     058C                     l189:
  2327                           
  2328                           ;buzzer.c: 302:         if(dir > 0) {
  2329     058C  0855               	movf	Buzzer_Siren@dir,w
  2330     058D  3A80               	xorlw	128
  2331     058E  3E7F               	addlw	-129
  2332     058F  1C03               	skipc
  2333     0590  2D92               	goto	u861
  2334     0591  2D93               	goto	u860
  2335     0592                     u861:
  2336     0592  2DC5               	goto	l1328
  2337     0593                     u860:
  2338     0593                     l1320:
  2339                           
  2340                           ;buzzer.c: 303:             if(f + step >= high_hz) {
  2341     0593  0856               	movf	Buzzer_Siren@f,w
  2342     0594  075A               	addwf	Buzzer_Siren@step,w
  2343     0595  00CD               	movwf	??_Buzzer_Siren
  2344     0596  0857               	movf	Buzzer_Siren@f+1,w
  2345     0597  3D5B               	addwfc	Buzzer_Siren@step+1,w
  2346     0598  00CE               	movwf	??_Buzzer_Siren+1
  2347     0599  0858               	movf	Buzzer_Siren@f+2,w
  2348     059A  3D5C               	addwfc	Buzzer_Siren@step+2,w
  2349     059B  00CF               	movwf	??_Buzzer_Siren+2
  2350     059C  0859               	movf	Buzzer_Siren@f+3,w
  2351     059D  3D5D               	addwfc	Buzzer_Siren@step+3,w
  2352     059E  00D0               	movwf	??_Buzzer_Siren+3
  2353     059F  0848               	movf	Buzzer_Siren@high_hz+3,w
  2354     05A0  0250               	subwf	??_Buzzer_Siren+3,w
  2355     05A1  1D03               	skipz
  2356     05A2  2DAD               	goto	u875
  2357     05A3  0847               	movf	Buzzer_Siren@high_hz+2,w
  2358     05A4  024F               	subwf	??_Buzzer_Siren+2,w
  2359     05A5  1D03               	skipz
  2360     05A6  2DAD               	goto	u875
  2361     05A7  0846               	movf	Buzzer_Siren@high_hz+1,w
  2362     05A8  024E               	subwf	??_Buzzer_Siren+1,w
  2363     05A9  1D03               	skipz
  2364     05AA  2DAD               	goto	u875
  2365     05AB  0845               	movf	Buzzer_Siren@high_hz,w
  2366     05AC  024D               	subwf	??_Buzzer_Siren,w
  2367     05AD                     u875:
  2368     05AD  1C03               	skipc
  2369     05AE  2DB0               	goto	u871
  2370     05AF  2DB1               	goto	u870
  2371     05B0                     u871:
  2372     05B0  2DBC               	goto	l1326
  2373     05B1                     u870:
  2374     05B1                     l1322:
  2375                           
  2376                           ;buzzer.c: 304:                 f = high_hz;
  2377     05B1  0848               	movf	Buzzer_Siren@high_hz+3,w
  2378     05B2  00D9               	movwf	Buzzer_Siren@f+3
  2379     05B3  0847               	movf	Buzzer_Siren@high_hz+2,w
  2380     05B4  00D8               	movwf	Buzzer_Siren@f+2
  2381     05B5  0846               	movf	Buzzer_Siren@high_hz+1,w
  2382     05B6  00D7               	movwf	Buzzer_Siren@f+1
  2383     05B7  0845               	movf	Buzzer_Siren@high_hz,w
  2384     05B8  00D6               	movwf	Buzzer_Siren@f
  2385     05B9                     l1324:
  2386                           
  2387                           ;buzzer.c: 305:                 dir = -1;
  2388     05B9  01D5               	clrf	Buzzer_Siren@dir
  2389     05BA  03D5               	decf	Buzzer_Siren@dir,f
  2390                           
  2391                           ;buzzer.c: 306:             } else {
  2392     05BB  2DF6               	goto	l187
  2393     05BC                     l1326:
  2394                           
  2395                           ;buzzer.c: 307:                 f += step;
  2396     05BC  085A               	movf	Buzzer_Siren@step,w
  2397     05BD  07D6               	addwf	Buzzer_Siren@f,f
  2398     05BE  085B               	movf	Buzzer_Siren@step+1,w
  2399     05BF  3DD7               	addwfc	Buzzer_Siren@f+1,f
  2400     05C0  085C               	movf	Buzzer_Siren@step+2,w
  2401     05C1  3DD8               	addwfc	Buzzer_Siren@f+2,f
  2402     05C2  085D               	movf	Buzzer_Siren@step+3,w
  2403     05C3  3DD9               	addwfc	Buzzer_Siren@f+3,f
  2404     05C4  2DF6               	goto	l187
  2405     05C5                     l1328:
  2406                           
  2407                           ;buzzer.c: 310:             if(f <= low_hz + step) {
  2408     05C5  0841               	movf	Buzzer_Siren@low_hz,w
  2409     05C6  075A               	addwf	Buzzer_Siren@step,w
  2410     05C7  00CD               	movwf	??_Buzzer_Siren
  2411     05C8  0842               	movf	Buzzer_Siren@low_hz+1,w
  2412     05C9  3D5B               	addwfc	Buzzer_Siren@step+1,w
  2413     05CA  00CE               	movwf	??_Buzzer_Siren+1
  2414     05CB  0843               	movf	Buzzer_Siren@low_hz+2,w
  2415     05CC  3D5C               	addwfc	Buzzer_Siren@step+2,w
  2416     05CD  00CF               	movwf	??_Buzzer_Siren+2
  2417     05CE  0844               	movf	Buzzer_Siren@low_hz+3,w
  2418     05CF  3D5D               	addwfc	Buzzer_Siren@step+3,w
  2419     05D0  00D0               	movwf	??_Buzzer_Siren+3
  2420     05D1  0859               	movf	Buzzer_Siren@f+3,w
  2421     05D2  0250               	subwf	??_Buzzer_Siren+3,w
  2422     05D3  1D03               	skipz
  2423     05D4  2DDF               	goto	u885
  2424     05D5  0858               	movf	Buzzer_Siren@f+2,w
  2425     05D6  024F               	subwf	??_Buzzer_Siren+2,w
  2426     05D7  1D03               	skipz
  2427     05D8  2DDF               	goto	u885
  2428     05D9  0857               	movf	Buzzer_Siren@f+1,w
  2429     05DA  024E               	subwf	??_Buzzer_Siren+1,w
  2430     05DB  1D03               	skipz
  2431     05DC  2DDF               	goto	u885
  2432     05DD  0856               	movf	Buzzer_Siren@f,w
  2433     05DE  024D               	subwf	??_Buzzer_Siren,w
  2434     05DF                     u885:
  2435     05DF  1C03               	skipc
  2436     05E0  2DE2               	goto	u881
  2437     05E1  2DE3               	goto	u880
  2438     05E2                     u881:
  2439     05E2  2DEE               	goto	l1334
  2440     05E3                     u880:
  2441     05E3                     l1330:
  2442                           
  2443                           ;buzzer.c: 311:                 f = low_hz;
  2444     05E3  0844               	movf	Buzzer_Siren@low_hz+3,w
  2445     05E4  00D9               	movwf	Buzzer_Siren@f+3
  2446     05E5  0843               	movf	Buzzer_Siren@low_hz+2,w
  2447     05E6  00D8               	movwf	Buzzer_Siren@f+2
  2448     05E7  0842               	movf	Buzzer_Siren@low_hz+1,w
  2449     05E8  00D7               	movwf	Buzzer_Siren@f+1
  2450     05E9  0841               	movf	Buzzer_Siren@low_hz,w
  2451     05EA  00D6               	movwf	Buzzer_Siren@f
  2452     05EB                     l1332:
  2453                           
  2454                           ;buzzer.c: 312:                 dir = 1;
  2455     05EB  01D5               	clrf	Buzzer_Siren@dir
  2456     05EC  0AD5               	incf	Buzzer_Siren@dir,f
  2457                           
  2458                           ;buzzer.c: 313:             } else {
  2459     05ED  2DF6               	goto	l187
  2460     05EE                     l1334:
  2461                           
  2462                           ;buzzer.c: 314:                 f -= step;
  2463     05EE  085A               	movf	Buzzer_Siren@step,w
  2464     05EF  02D6               	subwf	Buzzer_Siren@f,f
  2465     05F0  085B               	movf	Buzzer_Siren@step+1,w
  2466     05F1  3BD7               	subwfb	Buzzer_Siren@f+1,f
  2467     05F2  085C               	movf	Buzzer_Siren@step+2,w
  2468     05F3  3BD8               	subwfb	Buzzer_Siren@f+2,f
  2469     05F4  085D               	movf	Buzzer_Siren@step+3,w
  2470     05F5  3BD9               	subwfb	Buzzer_Siren@f+3,f
  2471     05F6                     l187:	
  2472                           ;buzzer.c: 317:     }
  2473                           
  2474                           
  2475                           ;buzzer.c: 294:     while(t < duration_ms) {
  2476     05F6  084C               	movf	Buzzer_Siren@duration_ms+3,w
  2477     05F7  0254               	subwf	Buzzer_Siren@t+3,w
  2478     05F8  1D03               	skipz
  2479     05F9  2E04               	goto	u895
  2480     05FA  084B               	movf	Buzzer_Siren@duration_ms+2,w
  2481     05FB  0253               	subwf	Buzzer_Siren@t+2,w
  2482     05FC  1D03               	skipz
  2483     05FD  2E04               	goto	u895
  2484     05FE  084A               	movf	Buzzer_Siren@duration_ms+1,w
  2485     05FF  0252               	subwf	Buzzer_Siren@t+1,w
  2486     0600  1D03               	skipz
  2487     0601  2E04               	goto	u895
  2488     0602  0849               	movf	Buzzer_Siren@duration_ms,w
  2489     0603  0251               	subwf	Buzzer_Siren@t,w
  2490     0604                     u895:
  2491     0604  1C03               	skipc
  2492     0605  2E07               	goto	u891
  2493     0606  2E08               	goto	u890
  2494     0607                     u891:
  2495     0607  2D33               	goto	l1312
  2496     0608                     u890:
  2497     0608                     l1336:
  2498                           
  2499                           ;buzzer.c: 318:     Buzzer_Stop();
  2500     0608  3181  2147  3185   	fcall	_Buzzer_Stop
  2501     060B                     l184:
  2502     060B  0008               	return
  2503     060C                     __end_of_Buzzer_Siren:
  2504                           
  2505                           	psect	text8
  2506     019B                     __ptext8:	
  2507 ;; *************** function _Buzzer_Init *****************
  2508 ;; Defined at:
  2509 ;;		line 29 in file "buzzer.c"
  2510 ;; Parameters:    Size  Location     Type
  2511 ;;		None
  2512 ;; Auto vars:     Size  Location     Type
  2513 ;;		None
  2514 ;; Return value:  Size  Location     Type
  2515 ;;                  1    wreg      void 
  2516 ;; Registers used:
  2517 ;;		wreg, status,2, status,0
  2518 ;; Tracked objects:
  2519 ;;		On entry : 0/0
  2520 ;;		On exit  : 0/0
  2521 ;;		Unchanged: 0/0
  2522 ;; Data sizes:     COMMON   BANK0   BANK1   BANK2   BANK3   BANK4   BANK5   BANK6   BANK7   BANK8   BANK9  BANK10  BANK1
      +1  BANK12  BANK13  BANK14  BANK15  BANK16  BANK17  BANK18  BANK19  BANK20  BANK21  BANK22  BANK23  BANK24  BANK25
  2523 ;;      Params:         0       0       0       0       0       0       0       0       0       0       0       0       
      +0       0       0       0       0       0       0       0       0       0       0       0       0       0       0
  2524 ;;      Locals:         0       0       0       0       0       0       0       0       0       0       0       0       
      +0       0       0       0       0       0       0       0       0       0       0       0       0       0       0
  2525 ;;      Temps:          0       0       0       0       0       0       0       0       0       0       0       0       
      +0       0       0       0       0       0       0       0       0       0       0       0       0       0       0
  2526 ;;      Totals:         0       0       0       0       0       0       0       0       0       0       0       0       
      +0       0       0       0       0       0       0       0       0       0       0       0       0       0       0
  2527 ;;Total ram usage:        0 bytes
  2528 ;; Hardware stack levels used: 1
  2529 ;; This function calls:
  2530 ;;		Nothing
  2531 ;; This function is called by:
  2532 ;;		_main
  2533 ;; This function uses a non-reentrant model
  2534 ;;
  2535                           
  2536     019B                     _Buzzer_Init:	
  2537                           ;psect for function _Buzzer_Init
  2538                           
  2539     019B                     l884:	
  2540                           ;incstack = 0
  2541                           ; Regs used in _Buzzer_Init: [wreg+status,2+status,0]
  2542                           
  2543                           
  2544                           ;buzzer.c: 32:     TRISBbits.TRISB0 = 0;
  2545     019B  0021               	movlb	1	; select bank1
  2546     019C  100D               	bcf	13,0	;volatile
  2547                           
  2548                           ;buzzer.c: 35:     ANSELBbits.ANSB0 = 0;
  2549     019D  0023               	movlb	3	; select bank3
  2550     019E  100D               	bcf	13,0	;volatile
  2551     019F                     l886:
  2552                           
  2553                           ;buzzer.c: 38:     CCPTMRSbits.C1TSEL = 0b10;
  2554     019F  0025               	movlb	5	; select bank5
  2555     01A0  081E               	movf	30,w	;volatile
  2556     01A1  39FC               	andlw	-4
  2557     01A2  3802               	iorlw	2
  2558     01A3  009E               	movwf	30	;volatile
  2559                           
  2560                           ;buzzer.c: 41:     T6CONbits.T6CKPS = 0b00;
  2561     01A4  30FC               	movlw	-4
  2562     01A5  0028               	movlb	8	; select bank8
  2563     01A6  059E               	andwf	30,f	;volatile
  2564     01A7                     l888:
  2565                           
  2566                           ;buzzer.c: 42:     T6CONbits.TMR6ON = 1;
  2567     01A7  151E               	bsf	30,2	;volatile
  2568     01A8                     l890:
  2569                           
  2570                           ;buzzer.c: 43:     PR6 = 255;
  2571     01A8  30FF               	movlw	255
  2572     01A9  009D               	movwf	29	;volatile
  2573     01AA                     l892:
  2574                           
  2575                           ;buzzer.c: 46:     CCP1CONbits.DC1B = 0b00;
  2576     01AA  30CF               	movlw	-49
  2577     01AB  0025               	movlb	5	; select bank5
  2578     01AC  0593               	andwf	19,f	;volatile
  2579     01AD                     l894:
  2580                           
  2581                           ;buzzer.c: 47:     CCP1CONbits.CCP1M = 0b1100;
  2582     01AD  0813               	movf	19,w	;volatile
  2583     01AE  39F0               	andlw	-16
  2584     01AF  380C               	iorlw	12
  2585     01B0  0093               	movwf	19	;volatile
  2586     01B1                     l896:
  2587                           
  2588                           ;buzzer.c: 50:     PPSLOCK = 0x55;
  2589     01B1  3055               	movlw	85
  2590     01B2  003C               	movlb	28	; select bank28
  2591     01B3  008F               	movwf	15	;volsfr
  2592     01B4                     l898:
  2593                           
  2594                           ;buzzer.c: 51:     PPSLOCK = 0xAA;
  2595     01B4  30AA               	movlw	170
  2596     01B5  008F               	movwf	15	;volsfr
  2597     01B6                     l900:
  2598                           
  2599                           ;buzzer.c: 52:     PPSLOCKbits.PPSLOCKED = 0x00;
  2600     01B6  100F               	bcf	15,0	;volsfr
  2601     01B7                     l902:
  2602                           
  2603                           ;buzzer.c: 53:     RB0PPSbits.RB0PPS = 0b01100;
  2604     01B7  003D               	movlb	29	; select bank29
  2605     01B8  0818               	movf	24,w	;volatile
  2606     01B9  39E0               	andlw	-32
  2607     01BA  380C               	iorlw	12
  2608     01BB  0098               	movwf	24	;volatile
  2609                           
  2610                           ;buzzer.c: 54:     PPSLOCK = 0x55;
  2611     01BC  3055               	movlw	85
  2612     01BD  003C               	movlb	28	; select bank28
  2613     01BE  008F               	movwf	15	;volsfr
  2614                           
  2615                           ;buzzer.c: 55:     PPSLOCK = 0xAA;
  2616     01BF  30AA               	movlw	170
  2617     01C0  008F               	movwf	15	;volsfr
  2618     01C1                     l904:
  2619                           
  2620                           ;buzzer.c: 56:     PPSLOCKbits.PPSLOCKED = 0x01;
  2621     01C1  140F               	bsf	15,0	;volsfr
  2622     01C2                     l906:
  2623                           
  2624                           ;buzzer.c: 59:     CCPR1L = 0;
  2625     01C2  0025               	movlb	5	; select bank5
  2626     01C3  0191               	clrf	17	;volatile
  2627     01C4                     l94:
  2628     01C4  0008               	return
  2629     01C5                     __end_of_Buzzer_Init:
  2630                           
  2631                           	psect	text9
  2632     0440                     __ptext9:	
  2633 ;; *************** function _Buzzer_Countdown *****************
  2634 ;; Defined at:
  2635 ;;		line 325 in file "buzzer.c"
  2636 ;; Parameters:    Size  Location     Type
  2637 ;;  duration_ms     4   33[BANK0 ] unsigned long 
  2638 ;; Auto vars:     Size  Location     Type
  2639 ;;  initial_dela    4   49[BANK0 ] unsigned long 
  2640 ;;  elapsed         4   45[BANK0 ] unsigned long 
  2641 ;;  beep_freq       4   41[BANK0 ] unsigned long 
  2642 ;; Return value:  Size  Location     Type
  2643 ;;                  1    wreg      void 
  2644 ;; Registers used:
  2645 ;;		wreg, status,2, status,0, pclath, cstack
  2646 ;; Tracked objects:
  2647 ;;		On entry : 0/0
  2648 ;;		On exit  : 0/0
  2649 ;;		Unchanged: 0/0
  2650 ;; Data sizes:     COMMON   BANK0   BANK1   BANK2   BANK3   BANK4   BANK5   BANK6   BANK7   BANK8   BANK9  BANK10  BANK1
      +1  BANK12  BANK13  BANK14  BANK15  BANK16  BANK17  BANK18  BANK19  BANK20  BANK21  BANK22  BANK23  BANK24  BANK25
  2651 ;;      Params:         0       4       0       0       0       0       0       0       0       0       0       0       
      +0       0       0       0       0       0       0       0       0       0       0       0       0       0       0
  2652 ;;      Locals:         0      12       0       0       0       0       0       0       0       0       0       0       
      +0       0       0       0       0       0       0       0       0       0       0       0       0       0       0
  2653 ;;      Temps:          0       4       0       0       0       0       0       0       0       0       0       0       
      +0       0       0       0       0       0       0       0       0       0       0       0       0       0       0
  2654 ;;      Totals:         0      20       0       0       0       0       0       0       0       0       0       0       
      +0       0       0       0       0       0       0       0       0       0       0       0       0       0       0
  2655 ;;Total ram usage:       20 bytes
  2656 ;; Hardware stack levels used: 1
  2657 ;; Hardware stack levels required when called: 2
  2658 ;; This function calls:
  2659 ;;		_Buzzer_Set
  2660 ;;		_Buzzer_Stop
  2661 ;;		___lldiv
  2662 ;;		_delay_variable_ms
  2663 ;; This function is called by:
  2664 ;;		_main
  2665 ;; This function uses a non-reentrant model
  2666 ;;
  2667                           
  2668     0440                     _Buzzer_Countdown:	
  2669                           ;psect for function _Buzzer_Countdown
  2670                           
  2671     0440                     l1338:	
  2672                           ;incstack = 0
  2673                           ; Regs used in _Buzzer_Countdown: [wreg+status,2+status,0+pclath+cstack]
  2674                           
  2675                           
  2676                           ;buzzer.c: 325: void Buzzer_Countdown(uint32_t duration_ms);buzzer.c: 326: {;buzzer.c: 3
      +                          27:     uint32_t beep_freq = 2200;
  2677     0440  3000               	movlw	0
  2678     0441  0020               	movlb	0	; select bank0
  2679     0442  00CC               	movwf	Buzzer_Countdown@beep_freq+3
  2680     0443  3000               	movlw	0
  2681     0444  00CB               	movwf	Buzzer_Countdown@beep_freq+2
  2682     0445  3008               	movlw	8
  2683     0446  00CA               	movwf	Buzzer_Countdown@beep_freq+1
  2684     0447  3098               	movlw	152
  2685     0448  00C9               	movwf	Buzzer_Countdown@beep_freq
  2686                           
  2687                           ;buzzer.c: 328:     uint32_t initial_delay = 1000;
  2688     0449  3000               	movlw	0
  2689     044A  00D4               	movwf	Buzzer_Countdown@initial_delay+3
  2690     044B  3000               	movlw	0
  2691     044C  00D3               	movwf	Buzzer_Countdown@initial_delay+2
  2692     044D  3003               	movlw	3
  2693     044E  00D2               	movwf	Buzzer_Countdown@initial_delay+1
  2694     044F  30E8               	movlw	232
  2695     0450  00D1               	movwf	Buzzer_Countdown@initial_delay
  2696                           
  2697                           ;buzzer.c: 329:     uint32_t elapsed = 0;
  2698     0451  3000               	movlw	0
  2699     0452  00D0               	movwf	Buzzer_Countdown@elapsed+3
  2700     0453  3000               	movlw	0
  2701     0454  00CF               	movwf	Buzzer_Countdown@elapsed+2
  2702     0455  3000               	movlw	0
  2703     0456  00CE               	movwf	Buzzer_Countdown@elapsed+1
  2704     0457  3000               	movlw	0
  2705     0458  00CD               	movwf	Buzzer_Countdown@elapsed
  2706                           
  2707                           ;buzzer.c: 331:     while(elapsed < duration_ms) {
  2708     0459  2CDE               	goto	l1350
  2709     045A                     l1340:
  2710                           
  2711                           ;buzzer.c: 332:         Buzzer_Set(beep_freq, 70);
  2712     045A  084C               	movf	Buzzer_Countdown@beep_freq+3,w
  2713     045B  00B0               	movwf	Buzzer_Set@frequency_hz+3
  2714     045C  084B               	movf	Buzzer_Countdown@beep_freq+2,w
  2715     045D  00AF               	movwf	Buzzer_Set@frequency_hz+2
  2716     045E  084A               	movf	Buzzer_Countdown@beep_freq+1,w
  2717     045F  00AE               	movwf	Buzzer_Set@frequency_hz+1
  2718     0460  0849               	movf	Buzzer_Countdown@beep_freq,w
  2719     0461  00AD               	movwf	Buzzer_Set@frequency_hz
  2720     0462  3046               	movlw	70
  2721     0463  00B1               	movwf	Buzzer_Set@volume_pct
  2722     0464  3186  260C  3184   	fcall	_Buzzer_Set
  2723                           
  2724                           ;buzzer.c: 333:         delay_variable_ms(50);
  2725     0467  3000               	movlw	0
  2726     0468  00F3               	movwf	delay_variable_ms@ms+3
  2727     0469  3000               	movlw	0
  2728     046A  00F2               	movwf	delay_variable_ms@ms+2
  2729     046B  3000               	movlw	0
  2730     046C  00F1               	movwf	delay_variable_ms@ms+1
  2731     046D  3032               	movlw	50
  2732     046E  00F0               	movwf	delay_variable_ms@ms
  2733     046F  3181  21C5  3184   	fcall	_delay_variable_ms
  2734                           
  2735                           ;buzzer.c: 334:         Buzzer_Stop();
  2736     0472  3181  2147  3184   	fcall	_Buzzer_Stop
  2737                           
  2738                           ;buzzer.c: 336:         initial_delay = (initial_delay * 8) / 10;
  2739     0475  3000               	movlw	0
  2740     0476  0020               	movlb	0	; select bank0
  2741     0477  00A3               	movwf	___lldiv@divisor+3
  2742     0478  3000               	movlw	0
  2743     0479  00A2               	movwf	___lldiv@divisor+2
  2744     047A  3000               	movlw	0
  2745     047B  00A1               	movwf	___lldiv@divisor+1
  2746     047C  300A               	movlw	10
  2747     047D  00A0               	movwf	___lldiv@divisor
  2748     047E  0851               	movf	Buzzer_Countdown@initial_delay,w
  2749     047F  00C5               	movwf	??_Buzzer_Countdown
  2750     0480  0852               	movf	Buzzer_Countdown@initial_delay+1,w
  2751     0481  00C6               	movwf	??_Buzzer_Countdown+1
  2752     0482  0853               	movf	Buzzer_Countdown@initial_delay+2,w
  2753     0483  00C7               	movwf	??_Buzzer_Countdown+2
  2754     0484  0854               	movf	Buzzer_Countdown@initial_delay+3,w
  2755     0485  00C8               	movwf	??_Buzzer_Countdown+3
  2756     0486  3003               	movlw	3
  2757     0487                     u905:
  2758     0487  35C5               	lslf	??_Buzzer_Countdown,f
  2759     0488  0DC6               	rlf	??_Buzzer_Countdown+1,f
  2760     0489  0DC7               	rlf	??_Buzzer_Countdown+2,f
  2761     048A  0DC8               	rlf	??_Buzzer_Countdown+3,f
  2762     048B                     u900:
  2763     048B  0B89               	decfsz	9,f
  2764     048C  2C87               	goto	u905
  2765     048D  0848               	movf	??_Buzzer_Countdown+3,w
  2766     048E  00A7               	movwf	___lldiv@dividend+3
  2767     048F  0847               	movf	??_Buzzer_Countdown+2,w
  2768     0490  00A6               	movwf	___lldiv@dividend+2
  2769     0491  0846               	movf	??_Buzzer_Countdown+1,w
  2770     0492  00A5               	movwf	___lldiv@dividend+1
  2771     0493  0845               	movf	??_Buzzer_Countdown,w
  2772     0494  00A4               	movwf	___lldiv@dividend
  2773     0495  3182  22AB  3184   	fcall	___lldiv
  2774     0498  0020               	movlb	0	; select bank0
  2775     0499  0823               	movf	?___lldiv+3,w
  2776     049A  00D4               	movwf	Buzzer_Countdown@initial_delay+3
  2777     049B  0822               	movf	?___lldiv+2,w
  2778     049C  00D3               	movwf	Buzzer_Countdown@initial_delay+2
  2779     049D  0821               	movf	?___lldiv+1,w
  2780     049E  00D2               	movwf	Buzzer_Countdown@initial_delay+1
  2781     049F  0820               	movf	?___lldiv,w
  2782     04A0  00D1               	movwf	Buzzer_Countdown@initial_delay
  2783     04A1                     l1342:
  2784                           
  2785                           ;buzzer.c: 337:         if(initial_delay < 50) initial_delay = 50;
  2786     04A1  0854               	movf	Buzzer_Countdown@initial_delay+3,w
  2787     04A2  1D03               	btfss	3,2
  2788     04A3  2CAF               	goto	u911
  2789     04A4  0853               	movf	Buzzer_Countdown@initial_delay+2,w
  2790     04A5  1D03               	btfss	3,2
  2791     04A6  2CAF               	goto	u911
  2792     04A7  0852               	movf	Buzzer_Countdown@initial_delay+1,w
  2793     04A8  1D03               	btfss	3,2
  2794     04A9  2CAF               	goto	u911
  2795     04AA  3032               	movlw	50
  2796     04AB  0251               	subwf	Buzzer_Countdown@initial_delay,w
  2797     04AC  1803               	btfsc	3,0
  2798     04AD  2CAF               	goto	u911
  2799     04AE  2CB0               	goto	u910
  2800     04AF                     u911:
  2801     04AF  2CB9               	goto	l1346
  2802     04B0                     u910:
  2803     04B0                     l1344:
  2804     04B0  3000               	movlw	0
  2805     04B1  0020               	movlb	0	; select bank0
  2806     04B2  00D4               	movwf	Buzzer_Countdown@initial_delay+3
  2807     04B3  3000               	movlw	0
  2808     04B4  00D3               	movwf	Buzzer_Countdown@initial_delay+2
  2809     04B5  3000               	movlw	0
  2810     04B6  00D2               	movwf	Buzzer_Countdown@initial_delay+1
  2811     04B7  3032               	movlw	50
  2812     04B8  00D1               	movwf	Buzzer_Countdown@initial_delay
  2813     04B9                     l1346:
  2814                           
  2815                           ;buzzer.c: 339:         delay_variable_ms(initial_delay);
  2816     04B9  0020               	movlb	0	; select bank0
  2817     04BA  0854               	movf	Buzzer_Countdown@initial_delay+3,w
  2818     04BB  00F3               	movwf	delay_variable_ms@ms+3
  2819     04BC  0853               	movf	Buzzer_Countdown@initial_delay+2,w
  2820     04BD  00F2               	movwf	delay_variable_ms@ms+2
  2821     04BE  0852               	movf	Buzzer_Countdown@initial_delay+1,w
  2822     04BF  00F1               	movwf	delay_variable_ms@ms+1
  2823     04C0  0851               	movf	Buzzer_Countdown@initial_delay,w
  2824     04C1  00F0               	movwf	delay_variable_ms@ms
  2825     04C2  3181  21C5  3184   	fcall	_delay_variable_ms
  2826     04C5                     l1348:
  2827                           
  2828                           ;buzzer.c: 340:         elapsed += (50 + initial_delay);
  2829     04C5  3032               	movlw	50
  2830     04C6  0020               	movlb	0	; select bank0
  2831     04C7  00C5               	movwf	??_Buzzer_Countdown
  2832     04C8  3000               	movlw	0
  2833     04C9  00C6               	movwf	??_Buzzer_Countdown+1
  2834     04CA  3000               	movlw	0
  2835     04CB  00C7               	movwf	??_Buzzer_Countdown+2
  2836     04CC  3000               	movlw	0
  2837     04CD  00C8               	movwf	??_Buzzer_Countdown+3
  2838     04CE  0851               	movf	Buzzer_Countdown@initial_delay,w
  2839     04CF  07C5               	addwf	??_Buzzer_Countdown,f
  2840     04D0  0852               	movf	Buzzer_Countdown@initial_delay+1,w
  2841     04D1  3DC6               	addwfc	??_Buzzer_Countdown+1,f
  2842     04D2  0853               	movf	Buzzer_Countdown@initial_delay+2,w
  2843     04D3  3DC7               	addwfc	??_Buzzer_Countdown+2,f
  2844     04D4  0854               	movf	Buzzer_Countdown@initial_delay+3,w
  2845     04D5  3DC8               	addwfc	??_Buzzer_Countdown+3,f
  2846     04D6  0845               	movf	??_Buzzer_Countdown,w
  2847     04D7  07CD               	addwf	Buzzer_Countdown@elapsed,f
  2848     04D8  0846               	movf	??_Buzzer_Countdown+1,w
  2849     04D9  3DCE               	addwfc	Buzzer_Countdown@elapsed+1,f
  2850     04DA  0847               	movf	??_Buzzer_Countdown+2,w
  2851     04DB  3DCF               	addwfc	Buzzer_Countdown@elapsed+2,f
  2852     04DC  0848               	movf	??_Buzzer_Countdown+3,w
  2853     04DD  3DD0               	addwfc	Buzzer_Countdown@elapsed+3,f
  2854     04DE                     l1350:
  2855                           
  2856                           ;buzzer.c: 331:     while(elapsed < duration_ms) {
  2857     04DE  0844               	movf	Buzzer_Countdown@duration_ms+3,w
  2858     04DF  0250               	subwf	Buzzer_Countdown@elapsed+3,w
  2859     04E0  1D03               	skipz
  2860     04E1  2CEC               	goto	u925
  2861     04E2  0843               	movf	Buzzer_Countdown@duration_ms+2,w
  2862     04E3  024F               	subwf	Buzzer_Countdown@elapsed+2,w
  2863     04E4  1D03               	skipz
  2864     04E5  2CEC               	goto	u925
  2865     04E6  0842               	movf	Buzzer_Countdown@duration_ms+1,w
  2866     04E7  024E               	subwf	Buzzer_Countdown@elapsed+1,w
  2867     04E8  1D03               	skipz
  2868     04E9  2CEC               	goto	u925
  2869     04EA  0841               	movf	Buzzer_Countdown@duration_ms,w
  2870     04EB  024D               	subwf	Buzzer_Countdown@elapsed,w
  2871     04EC                     u925:
  2872     04EC  1C03               	skipc
  2873     04ED  2CEF               	goto	u921
  2874     04EE  2CF0               	goto	u920
  2875     04EF                     u921:
  2876     04EF  2C5A               	goto	l1340
  2877     04F0                     u920:
  2878     04F0                     l1352:
  2879                           
  2880                           ;buzzer.c: 343:     Buzzer_Set(3000, 100);
  2881     04F0  3000               	movlw	0
  2882     04F1  00B0               	movwf	Buzzer_Set@frequency_hz+3
  2883     04F2  3000               	movlw	0
  2884     04F3  00AF               	movwf	Buzzer_Set@frequency_hz+2
  2885     04F4  300B               	movlw	11
  2886     04F5  00AE               	movwf	Buzzer_Set@frequency_hz+1
  2887     04F6  30B8               	movlw	184
  2888     04F7  00AD               	movwf	Buzzer_Set@frequency_hz
  2889     04F8  3064               	movlw	100
  2890     04F9  00B1               	movwf	Buzzer_Set@volume_pct
  2891     04FA  3186  260C  3184   	fcall	_Buzzer_Set
  2892                           
  2893                           ;buzzer.c: 344:     delay_variable_ms(500);
  2894     04FD  3000               	movlw	0
  2895     04FE  00F3               	movwf	delay_variable_ms@ms+3
  2896     04FF  3000               	movlw	0
  2897     0500  00F2               	movwf	delay_variable_ms@ms+2
  2898     0501  3001               	movlw	1
  2899     0502  00F1               	movwf	delay_variable_ms@ms+1
  2900     0503  30F4               	movlw	244
  2901     0504  00F0               	movwf	delay_variable_ms@ms
  2902     0505  3181  21C5  3184   	fcall	_delay_variable_ms
  2903                           
  2904                           ;buzzer.c: 345:     Buzzer_Stop();
  2905     0508  3181  2147  3184   	fcall	_Buzzer_Stop
  2906     050B                     l203:
  2907     050B  0008               	return
  2908     050C                     __end_of_Buzzer_Countdown:
  2909                           
  2910                           	psect	text10
  2911     01C5                     __ptext10:	
  2912 ;; *************** function _delay_variable_ms *****************
  2913 ;; Defined at:
  2914 ;;		line 163 in file "buzzer.c"
  2915 ;; Parameters:    Size  Location     Type
  2916 ;;  ms              4    0[COMMON] unsigned long 
  2917 ;; Auto vars:     Size  Location     Type
  2918 ;;  i               4    5[COMMON] unsigned long 
  2919 ;; Return value:  Size  Location     Type
  2920 ;;                  1    wreg      void 
  2921 ;; Registers used:
  2922 ;;		wreg
  2923 ;; Tracked objects:
  2924 ;;		On entry : 0/0
  2925 ;;		On exit  : 0/0
  2926 ;;		Unchanged: 0/0
  2927 ;; Data sizes:     COMMON   BANK0   BANK1   BANK2   BANK3   BANK4   BANK5   BANK6   BANK7   BANK8   BANK9  BANK10  BANK1
      +1  BANK12  BANK13  BANK14  BANK15  BANK16  BANK17  BANK18  BANK19  BANK20  BANK21  BANK22  BANK23  BANK24  BANK25
  2928 ;;      Params:         4       0       0       0       0       0       0       0       0       0       0       0       
      +0       0       0       0       0       0       0       0       0       0       0       0       0       0       0
  2929 ;;      Locals:         4       0       0       0       0       0       0       0       0       0       0       0       
      +0       0       0       0       0       0       0       0       0       0       0       0       0       0       0
  2930 ;;      Temps:          1       0       0       0       0       0       0       0       0       0       0       0       
      +0       0       0       0       0       0       0       0       0       0       0       0       0       0       0
  2931 ;;      Totals:         9       0       0       0       0       0       0       0       0       0       0       0       
      +0       0       0       0       0       0       0       0       0       0       0       0       0       0       0
  2932 ;;Total ram usage:        9 bytes
  2933 ;; Hardware stack levels used: 1
  2934 ;; This function calls:
  2935 ;;		Nothing
  2936 ;; This function is called by:
  2937 ;;		_Buzzer_Success
  2938 ;;		_Buzzer_Warning
  2939 ;;		_Buzzer_Siren
  2940 ;;		_Buzzer_Countdown
  2941 ;;		_Buzzer_Failure
  2942 ;;		_Buzzer_Alert
  2943 ;;		_Buzzer_PowerUp
  2944 ;;		_Buzzer_PowerDown
  2945 ;;		_Buzzer_CriticalBattery
  2946 ;;		_Buzzer_Processing
  2947 ;;		_Buzzer_Error
  2948 ;;		_Buzzer_CountdownIntense
  2949 ;;		_Buzzer_Ping
  2950 ;;		_Buzzer_Scanner
  2951 ;;		_Buzzer_Connected
  2952 ;;		_Buzzer_Disconnected
  2953 ;;		_Buzzer_ChargingComplete
  2954 ;;		_Buzzer_Reminder
  2955 ;;		_Buzzer_TimerComplete
  2956 ;; This function uses a non-reentrant model
  2957 ;;
  2958                           
  2959     01C5                     _delay_variable_ms:	
  2960                           ;psect for function _delay_variable_ms
  2961                           
  2962     01C5                     l1278:	
  2963                           ;incstack = 0
  2964                           ; Regs used in _delay_variable_ms: [wreg]
  2965                           
  2966                           
  2967                           ;buzzer.c: 163: void delay_variable_ms(uint32_t ms);buzzer.c: 164: {;buzzer.c: 165:     
      +                          for(uint32_t i = 0; i < ms; i++) {
  2968     01C5  3000               	movlw	0
  2969     01C6  00F8               	movwf	delay_variable_ms@i+3
  2970     01C7  3000               	movlw	0
  2971     01C8  00F7               	movwf	delay_variable_ms@i+2
  2972     01C9  3000               	movlw	0
  2973     01CA  00F6               	movwf	delay_variable_ms@i+1
  2974     01CB  3000               	movlw	0
  2975     01CC  00F5               	movwf	delay_variable_ms@i
  2976     01CD  29DE               	goto	l115
  2977     01CE                     l1280:
  2978                           
  2979                           ;buzzer.c: 166:         _delay((unsigned long)((1)*(32000000/4000.0)));
  2980     01CE  300B               	movlw	11
  2981     01CF  00F4               	movwf	??_delay_variable_ms
  2982     01D0  3062               	movlw	98
  2983     01D1                     u1127:
  2984     01D1  0B89               	decfsz	9,f
  2985     01D2  29D1               	goto	u1127
  2986     01D3  0BF4               	decfsz	??_delay_variable_ms,f
  2987     01D4  29D1               	goto	u1127
  2988     01D5  3200               	nop2
  2989                           
  2990                           ;buzzer.c: 167:     }
  2991     01D6  3001               	movlw	1
  2992     01D7  07F5               	addwf	delay_variable_ms@i,f
  2993     01D8  3000               	movlw	0
  2994     01D9  3DF6               	addwfc	delay_variable_ms@i+1,f
  2995     01DA  3000               	movlw	0
  2996     01DB  3DF7               	addwfc	delay_variable_ms@i+2,f
  2997     01DC  3000               	movlw	0
  2998     01DD  3DF8               	addwfc	delay_variable_ms@i+3,f
  2999     01DE                     l115:
  3000     01DE  0873               	movf	delay_variable_ms@ms+3,w
  3001     01DF  0278               	subwf	delay_variable_ms@i+3,w
  3002     01E0  1D03               	skipz
  3003     01E1  29EC               	goto	u795
  3004     01E2  0872               	movf	delay_variable_ms@ms+2,w
  3005     01E3  0277               	subwf	delay_variable_ms@i+2,w
  3006     01E4  1D03               	skipz
  3007     01E5  29EC               	goto	u795
  3008     01E6  0871               	movf	delay_variable_ms@ms+1,w
  3009     01E7  0276               	subwf	delay_variable_ms@i+1,w
  3010     01E8  1D03               	skipz
  3011     01E9  29EC               	goto	u795
  3012     01EA  0870               	movf	delay_variable_ms@ms,w
  3013     01EB  0275               	subwf	delay_variable_ms@i,w
  3014     01EC                     u795:
  3015     01EC  1C03               	skipc
  3016     01ED  29EF               	goto	u791
  3017     01EE  29F0               	goto	u790
  3018     01EF                     u791:
  3019     01EF  29CE               	goto	l1280
  3020     01F0                     u790:
  3021     01F0                     l118:
  3022     01F0  0008               	return
  3023     01F1                     __end_of_delay_variable_ms:
  3024                           
  3025                           	psect	text11
  3026     060C                     __ptext11:	
  3027 ;; *************** function _Buzzer_Set *****************
  3028 ;; Defined at:
  3029 ;;		line 72 in file "buzzer.c"
  3030 ;; Parameters:    Size  Location     Type
  3031 ;;  frequency_hz    4   13[BANK0 ] unsigned long 
  3032 ;;  volume_pct      1   17[BANK0 ] unsigned char 
  3033 ;; Auto vars:     Size  Location     Type
  3034 ;;  pr_value        4   29[BANK0 ] unsigned long 
  3035 ;;  fosc            4    0        unsigned long 
  3036 ;;  duty_10bit      2   26[BANK0 ] unsigned short 
  3037 ;;  prescaler       1    0        unsigned char 
  3038 ;;  prescale_bit    1   28[BANK0 ] unsigned char 
  3039 ;; Return value:  Size  Location     Type
  3040 ;;                  1    wreg      void 
  3041 ;; Registers used:
  3042 ;;		wreg, status,2, status,0, pclath, cstack
  3043 ;; Tracked objects:
  3044 ;;		On entry : 0/0
  3045 ;;		On exit  : 0/0
  3046 ;;		Unchanged: 0/0
  3047 ;; Data sizes:     COMMON   BANK0   BANK1   BANK2   BANK3   BANK4   BANK5   BANK6   BANK7   BANK8   BANK9  BANK10  BANK1
      +1  BANK12  BANK13  BANK14  BANK15  BANK16  BANK17  BANK18  BANK19  BANK20  BANK21  BANK22  BANK23  BANK24  BANK25
  3048 ;;      Params:         0       5       0       0       0       0       0       0       0       0       0       0       
      +0       0       0       0       0       0       0       0       0       0       0       0       0       0       0
  3049 ;;      Locals:         0       7       0       0       0       0       0       0       0       0       0       0       
      +0       0       0       0       0       0       0       0       0       0       0       0       0       0       0
  3050 ;;      Temps:          0       8       0       0       0       0       0       0       0       0       0       0       
      +0       0       0       0       0       0       0       0       0       0       0       0       0       0       0
  3051 ;;      Totals:         0      20       0       0       0       0       0       0       0       0       0       0       
      +0       0       0       0       0       0       0       0       0       0       0       0       0       0       0
  3052 ;;Total ram usage:       20 bytes
  3053 ;; Hardware stack levels used: 1
  3054 ;; Hardware stack levels required when called: 1
  3055 ;; This function calls:
  3056 ;;		_Buzzer_Stop
  3057 ;;		___lldiv
  3058 ;;		___lmul
  3059 ;; This function is called by:
  3060 ;;		_Buzzer_Beep
  3061 ;;		_Buzzer_SweepUp
  3062 ;;		_Buzzer_Siren
  3063 ;;		_Buzzer_Countdown
  3064 ;;		_Buzzer_SweepDown
  3065 ;;		_Buzzer_CountdownIntense
  3066 ;;		_Buzzer_Scanner
  3067 ;;		_Buzzer_Connected
  3068 ;;		_Buzzer_Disconnected
  3069 ;;		_Buzzer_ChargingComplete
  3070 ;;		_Buzzer_Reminder
  3071 ;;		_Buzzer_TimerComplete
  3072 ;; This function uses a non-reentrant model
  3073 ;;
  3074                           
  3075     060C                     _Buzzer_Set:	
  3076                           ;psect for function _Buzzer_Set
  3077                           
  3078     060C                     l1214:	
  3079                           ;incstack = 0
  3080                           ; Regs used in _Buzzer_Set: [wreg+status,2+status,0+pclath+cstack]
  3081                           
  3082                           
  3083                           ;buzzer.c: 72: void Buzzer_Set(uint32_t frequency_hz, uint8_t volume_pct);buzzer.c: 73: 
      +                          {;buzzer.c: 74:     if (frequency_hz == 0 || volume_pct == 0) {
  3084     060C  0020               	movlb	0	; select bank0
  3085     060D  0830               	movf	Buzzer_Set@frequency_hz+3,w
  3086     060E  042F               	iorwf	Buzzer_Set@frequency_hz+2,w
  3087     060F  042E               	iorwf	Buzzer_Set@frequency_hz+1,w
  3088     0610  042D               	iorwf	Buzzer_Set@frequency_hz,w
  3089     0611  1903               	skipnz
  3090     0612  2E14               	goto	u661
  3091     0613  2E15               	goto	u660
  3092     0614                     u661:
  3093     0614  2E1A               	goto	l1218
  3094     0615                     u660:
  3095     0615                     l1216:
  3096     0615  0831               	movf	Buzzer_Set@volume_pct,w
  3097     0616  1D03               	btfss	3,2
  3098     0617  2E19               	goto	u671
  3099     0618  2E1A               	goto	u670
  3100     0619                     u671:
  3101     0619  2E1E               	goto	l1222
  3102     061A                     u670:
  3103     061A                     l1218:
  3104                           
  3105                           ;buzzer.c: 75:         Buzzer_Stop();
  3106     061A  3181  2147  3186   	fcall	_Buzzer_Stop
  3107     061D  2FFC               	goto	l100
  3108     061E                     l1222:
  3109                           
  3110                           ;buzzer.c: 79:     if (volume_pct > 100) volume_pct = 100;
  3111     061E  3065               	movlw	101
  3112     061F  0231               	subwf	Buzzer_Set@volume_pct,w
  3113     0620  1C03               	skipc
  3114     0621  2E23               	goto	u681
  3115     0622  2E24               	goto	u680
  3116     0623                     u681:
  3117     0623  2E26               	goto	l101
  3118     0624                     u680:
  3119     0624                     l1224:
  3120     0624  3064               	movlw	100
  3121     0625  00B1               	movwf	Buzzer_Set@volume_pct
  3122     0626                     l101:
  3123     0626                     l1226:
  3124     0626                     l1228:
  3125                           
  3126                           ;buzzer.c: 87:     uint8_t prescale_bits = 0b00;
  3127     0626  01BC               	clrf	Buzzer_Set@prescale_bits
  3128     0627                     l1230:
  3129                           
  3130                           ;buzzer.c: 90:     uint32_t pr_value = (fosc / (4UL * frequency_hz * prescaler)) - 1;
  3131     0627  082D               	movf	Buzzer_Set@frequency_hz,w
  3132     0628  00B2               	movwf	??_Buzzer_Set
  3133     0629  082E               	movf	Buzzer_Set@frequency_hz+1,w
  3134     062A  00B3               	movwf	??_Buzzer_Set+1
  3135     062B  082F               	movf	Buzzer_Set@frequency_hz+2,w
  3136     062C  00B4               	movwf	??_Buzzer_Set+2
  3137     062D  0830               	movf	Buzzer_Set@frequency_hz+3,w
  3138     062E  00B5               	movwf	??_Buzzer_Set+3
  3139     062F  3002               	movlw	2
  3140     0630                     u695:
  3141     0630  35B2               	lslf	??_Buzzer_Set,f
  3142     0631  0DB3               	rlf	??_Buzzer_Set+1,f
  3143     0632  0DB4               	rlf	??_Buzzer_Set+2,f
  3144     0633  0DB5               	rlf	??_Buzzer_Set+3,f
  3145     0634                     u690:
  3146     0634  0B89               	decfsz	9,f
  3147     0635  2E30               	goto	u695
  3148     0636  0835               	movf	??_Buzzer_Set+3,w
  3149     0637  00F3               	movwf	___lmul@multiplier+3
  3150     0638  0834               	movf	??_Buzzer_Set+2,w
  3151     0639  00F2               	movwf	___lmul@multiplier+2
  3152     063A  0833               	movf	??_Buzzer_Set+1,w
  3153     063B  00F1               	movwf	___lmul@multiplier+1
  3154     063C  0832               	movf	??_Buzzer_Set,w
  3155     063D  00F0               	movwf	___lmul@multiplier
  3156     063E  3000               	movlw	0
  3157     063F  00F7               	movwf	___lmul@multiplicand+3
  3158     0640  3000               	movlw	0
  3159     0641  00F6               	movwf	___lmul@multiplicand+2
  3160     0642  3000               	movlw	0
  3161     0643  00F5               	movwf	___lmul@multiplicand+1
  3162     0644  3001               	movlw	1
  3163     0645  00F4               	movwf	___lmul@multiplicand
  3164     0646  3182  221F  3186   	fcall	___lmul
  3165     0649  0873               	movf	?___lmul+3,w
  3166     064A  0020               	movlb	0	; select bank0
  3167     064B  00A3               	movwf	___lldiv@divisor+3
  3168     064C  0872               	movf	?___lmul+2,w
  3169     064D  00A2               	movwf	___lldiv@divisor+2
  3170     064E  0871               	movf	?___lmul+1,w
  3171     064F  00A1               	movwf	___lldiv@divisor+1
  3172     0650  0870               	movf	?___lmul,w
  3173     0651  00A0               	movwf	___lldiv@divisor
  3174     0652  3001               	movlw	1
  3175     0653  00A7               	movwf	___lldiv@dividend+3
  3176     0654  30E8               	movlw	232
  3177     0655  00A6               	movwf	___lldiv@dividend+2
  3178     0656  3048               	movlw	72
  3179     0657  00A5               	movwf	___lldiv@dividend+1
  3180     0658  3000               	movlw	0
  3181     0659  00A4               	movwf	___lldiv@dividend
  3182     065A  3182  22AB  3186   	fcall	___lldiv
  3183     065D  30FF               	movlw	255
  3184     065E  0020               	movlb	0	; select bank0
  3185     065F  0720               	addwf	?___lldiv,w
  3186     0660  00BD               	movwf	Buzzer_Set@pr_value
  3187     0661  30FF               	movlw	255
  3188     0662  3D21               	addwfc	?___lldiv+1,w
  3189     0663  00BE               	movwf	Buzzer_Set@pr_value+1
  3190     0664  30FF               	movlw	255
  3191     0665  3D22               	addwfc	?___lldiv+2,w
  3192     0666  00BF               	movwf	Buzzer_Set@pr_value+2
  3193     0667  30FF               	movlw	255
  3194     0668  3D23               	addwfc	?___lldiv+3,w
  3195     0669  00C0               	movwf	Buzzer_Set@pr_value+3
  3196     066A                     l1232:
  3197                           
  3198                           ;buzzer.c: 92:     if (pr_value > 255) {
  3199     066A  0840               	movf	Buzzer_Set@pr_value+3,w
  3200     066B  1D03               	btfss	3,2
  3201     066C  2E76               	goto	u700
  3202     066D  083F               	movf	Buzzer_Set@pr_value+2,w
  3203     066E  1D03               	btfss	3,2
  3204     066F  2E76               	goto	u700
  3205     0670  3001               	movlw	1
  3206     0671  023E               	subwf	Buzzer_Set@pr_value+1,w
  3207     0672  1C03               	btfss	3,0
  3208     0673  2E75               	goto	u701
  3209     0674  2E76               	goto	u700
  3210     0675                     u701:
  3211     0675  2EBC               	goto	l1240
  3212     0676                     u700:
  3213     0676                     l1234:
  3214     0676                     l1236:
  3215                           
  3216                           ;buzzer.c: 94:         prescale_bits = 0b01;
  3217     0676  0020               	movlb	0	; select bank0
  3218     0677  01BC               	clrf	Buzzer_Set@prescale_bits
  3219     0678  0ABC               	incf	Buzzer_Set@prescale_bits,f
  3220     0679                     l1238:
  3221                           
  3222                           ;buzzer.c: 95:         pr_value = (fosc / (4UL * frequency_hz * prescaler)) - 1;
  3223     0679  082D               	movf	Buzzer_Set@frequency_hz,w
  3224     067A  00B2               	movwf	??_Buzzer_Set
  3225     067B  082E               	movf	Buzzer_Set@frequency_hz+1,w
  3226     067C  00B3               	movwf	??_Buzzer_Set+1
  3227     067D  082F               	movf	Buzzer_Set@frequency_hz+2,w
  3228     067E  00B4               	movwf	??_Buzzer_Set+2
  3229     067F  0830               	movf	Buzzer_Set@frequency_hz+3,w
  3230     0680  00B5               	movwf	??_Buzzer_Set+3
  3231     0681  3002               	movlw	2
  3232     0682                     u715:
  3233     0682  35B2               	lslf	??_Buzzer_Set,f
  3234     0683  0DB3               	rlf	??_Buzzer_Set+1,f
  3235     0684  0DB4               	rlf	??_Buzzer_Set+2,f
  3236     0685  0DB5               	rlf	??_Buzzer_Set+3,f
  3237     0686                     u710:
  3238     0686  0B89               	decfsz	9,f
  3239     0687  2E82               	goto	u715
  3240     0688  0835               	movf	??_Buzzer_Set+3,w
  3241     0689  00F3               	movwf	___lmul@multiplier+3
  3242     068A  0834               	movf	??_Buzzer_Set+2,w
  3243     068B  00F2               	movwf	___lmul@multiplier+2
  3244     068C  0833               	movf	??_Buzzer_Set+1,w
  3245     068D  00F1               	movwf	___lmul@multiplier+1
  3246     068E  0832               	movf	??_Buzzer_Set,w
  3247     068F  00F0               	movwf	___lmul@multiplier
  3248     0690  3000               	movlw	0
  3249     0691  00F7               	movwf	___lmul@multiplicand+3
  3250     0692  3000               	movlw	0
  3251     0693  00F6               	movwf	___lmul@multiplicand+2
  3252     0694  3000               	movlw	0
  3253     0695  00F5               	movwf	___lmul@multiplicand+1
  3254     0696  3004               	movlw	4
  3255     0697  00F4               	movwf	___lmul@multiplicand
  3256     0698  3182  221F  3186   	fcall	___lmul
  3257     069B  0873               	movf	?___lmul+3,w
  3258     069C  0020               	movlb	0	; select bank0
  3259     069D  00A3               	movwf	___lldiv@divisor+3
  3260     069E  0872               	movf	?___lmul+2,w
  3261     069F  00A2               	movwf	___lldiv@divisor+2
  3262     06A0  0871               	movf	?___lmul+1,w
  3263     06A1  00A1               	movwf	___lldiv@divisor+1
  3264     06A2  0870               	movf	?___lmul,w
  3265     06A3  00A0               	movwf	___lldiv@divisor
  3266     06A4  3001               	movlw	1
  3267     06A5  00A7               	movwf	___lldiv@dividend+3
  3268     06A6  30E8               	movlw	232
  3269     06A7  00A6               	movwf	___lldiv@dividend+2
  3270     06A8  3048               	movlw	72
  3271     06A9  00A5               	movwf	___lldiv@dividend+1
  3272     06AA  3000               	movlw	0
  3273     06AB  00A4               	movwf	___lldiv@dividend
  3274     06AC  3182  22AB  3186   	fcall	___lldiv
  3275     06AF  30FF               	movlw	255
  3276     06B0  0020               	movlb	0	; select bank0
  3277     06B1  0720               	addwf	?___lldiv,w
  3278     06B2  00BD               	movwf	Buzzer_Set@pr_value
  3279     06B3  30FF               	movlw	255
  3280     06B4  3D21               	addwfc	?___lldiv+1,w
  3281     06B5  00BE               	movwf	Buzzer_Set@pr_value+1
  3282     06B6  30FF               	movlw	255
  3283     06B7  3D22               	addwfc	?___lldiv+2,w
  3284     06B8  00BF               	movwf	Buzzer_Set@pr_value+2
  3285     06B9  30FF               	movlw	255
  3286     06BA  3D23               	addwfc	?___lldiv+3,w
  3287     06BB  00C0               	movwf	Buzzer_Set@pr_value+3
  3288     06BC                     l1240:
  3289                           
  3290                           ;buzzer.c: 98:     if (pr_value > 255) {
  3291     06BC  0020               	movlb	0	; select bank0
  3292     06BD  0840               	movf	Buzzer_Set@pr_value+3,w
  3293     06BE  1D03               	btfss	3,2
  3294     06BF  2EC9               	goto	u720
  3295     06C0  083F               	movf	Buzzer_Set@pr_value+2,w
  3296     06C1  1D03               	btfss	3,2
  3297     06C2  2EC9               	goto	u720
  3298     06C3  3001               	movlw	1
  3299     06C4  023E               	subwf	Buzzer_Set@pr_value+1,w
  3300     06C5  1C03               	btfss	3,0
  3301     06C6  2EC8               	goto	u721
  3302     06C7  2EC9               	goto	u720
  3303     06C8                     u721:
  3304     06C8  2F0F               	goto	l1246
  3305     06C9                     u720:
  3306     06C9                     l1242:
  3307                           
  3308                           ;buzzer.c: 100:         prescale_bits = 0b10;
  3309     06C9  3002               	movlw	2
  3310     06CA  0020               	movlb	0	; select bank0
  3311     06CB  00BC               	movwf	Buzzer_Set@prescale_bits
  3312     06CC                     l1244:
  3313                           
  3314                           ;buzzer.c: 101:         pr_value = (fosc / (4UL * frequency_hz * prescaler)) - 1;
  3315     06CC  082D               	movf	Buzzer_Set@frequency_hz,w
  3316     06CD  00B2               	movwf	??_Buzzer_Set
  3317     06CE  082E               	movf	Buzzer_Set@frequency_hz+1,w
  3318     06CF  00B3               	movwf	??_Buzzer_Set+1
  3319     06D0  082F               	movf	Buzzer_Set@frequency_hz+2,w
  3320     06D1  00B4               	movwf	??_Buzzer_Set+2
  3321     06D2  0830               	movf	Buzzer_Set@frequency_hz+3,w
  3322     06D3  00B5               	movwf	??_Buzzer_Set+3
  3323     06D4  3002               	movlw	2
  3324     06D5                     u735:
  3325     06D5  35B2               	lslf	??_Buzzer_Set,f
  3326     06D6  0DB3               	rlf	??_Buzzer_Set+1,f
  3327     06D7  0DB4               	rlf	??_Buzzer_Set+2,f
  3328     06D8  0DB5               	rlf	??_Buzzer_Set+3,f
  3329     06D9                     u730:
  3330     06D9  0B89               	decfsz	9,f
  3331     06DA  2ED5               	goto	u735
  3332     06DB  0835               	movf	??_Buzzer_Set+3,w
  3333     06DC  00F3               	movwf	___lmul@multiplier+3
  3334     06DD  0834               	movf	??_Buzzer_Set+2,w
  3335     06DE  00F2               	movwf	___lmul@multiplier+2
  3336     06DF  0833               	movf	??_Buzzer_Set+1,w
  3337     06E0  00F1               	movwf	___lmul@multiplier+1
  3338     06E1  0832               	movf	??_Buzzer_Set,w
  3339     06E2  00F0               	movwf	___lmul@multiplier
  3340     06E3  3000               	movlw	0
  3341     06E4  00F7               	movwf	___lmul@multiplicand+3
  3342     06E5  3000               	movlw	0
  3343     06E6  00F6               	movwf	___lmul@multiplicand+2
  3344     06E7  3000               	movlw	0
  3345     06E8  00F5               	movwf	___lmul@multiplicand+1
  3346     06E9  3010               	movlw	16
  3347     06EA  00F4               	movwf	___lmul@multiplicand
  3348     06EB  3182  221F  3186   	fcall	___lmul
  3349     06EE  0873               	movf	?___lmul+3,w
  3350     06EF  0020               	movlb	0	; select bank0
  3351     06F0  00A3               	movwf	___lldiv@divisor+3
  3352     06F1  0872               	movf	?___lmul+2,w
  3353     06F2  00A2               	movwf	___lldiv@divisor+2
  3354     06F3  0871               	movf	?___lmul+1,w
  3355     06F4  00A1               	movwf	___lldiv@divisor+1
  3356     06F5  0870               	movf	?___lmul,w
  3357     06F6  00A0               	movwf	___lldiv@divisor
  3358     06F7  3001               	movlw	1
  3359     06F8  00A7               	movwf	___lldiv@dividend+3
  3360     06F9  30E8               	movlw	232
  3361     06FA  00A6               	movwf	___lldiv@dividend+2
  3362     06FB  3048               	movlw	72
  3363     06FC  00A5               	movwf	___lldiv@dividend+1
  3364     06FD  3000               	movlw	0
  3365     06FE  00A4               	movwf	___lldiv@dividend
  3366     06FF  3182  22AB  3186   	fcall	___lldiv
  3367     0702  30FF               	movlw	255
  3368     0703  0020               	movlb	0	; select bank0
  3369     0704  0720               	addwf	?___lldiv,w
  3370     0705  00BD               	movwf	Buzzer_Set@pr_value
  3371     0706  30FF               	movlw	255
  3372     0707  3D21               	addwfc	?___lldiv+1,w
  3373     0708  00BE               	movwf	Buzzer_Set@pr_value+1
  3374     0709  30FF               	movlw	255
  3375     070A  3D22               	addwfc	?___lldiv+2,w
  3376     070B  00BF               	movwf	Buzzer_Set@pr_value+2
  3377     070C  30FF               	movlw	255
  3378     070D  3D23               	addwfc	?___lldiv+3,w
  3379     070E  00C0               	movwf	Buzzer_Set@pr_value+3
  3380     070F                     l1246:
  3381                           
  3382                           ;buzzer.c: 104:     if (pr_value > 255) {
  3383     070F  0020               	movlb	0	; select bank0
  3384     0710  0840               	movf	Buzzer_Set@pr_value+3,w
  3385     0711  1D03               	btfss	3,2
  3386     0712  2F1C               	goto	u740
  3387     0713  083F               	movf	Buzzer_Set@pr_value+2,w
  3388     0714  1D03               	btfss	3,2
  3389     0715  2F1C               	goto	u740
  3390     0716  3001               	movlw	1
  3391     0717  023E               	subwf	Buzzer_Set@pr_value+1,w
  3392     0718  1C03               	btfss	3,0
  3393     0719  2F1B               	goto	u741
  3394     071A  2F1C               	goto	u740
  3395     071B                     u741:
  3396     071B  2F62               	goto	l1252
  3397     071C                     u740:
  3398     071C                     l1248:
  3399                           
  3400                           ;buzzer.c: 106:         prescale_bits = 0b11;
  3401     071C  3003               	movlw	3
  3402     071D  0020               	movlb	0	; select bank0
  3403     071E  00BC               	movwf	Buzzer_Set@prescale_bits
  3404     071F                     l1250:
  3405                           
  3406                           ;buzzer.c: 107:         pr_value = (fosc / (4UL * frequency_hz * prescaler)) - 1;
  3407     071F  082D               	movf	Buzzer_Set@frequency_hz,w
  3408     0720  00B2               	movwf	??_Buzzer_Set
  3409     0721  082E               	movf	Buzzer_Set@frequency_hz+1,w
  3410     0722  00B3               	movwf	??_Buzzer_Set+1
  3411     0723  082F               	movf	Buzzer_Set@frequency_hz+2,w
  3412     0724  00B4               	movwf	??_Buzzer_Set+2
  3413     0725  0830               	movf	Buzzer_Set@frequency_hz+3,w
  3414     0726  00B5               	movwf	??_Buzzer_Set+3
  3415     0727  3002               	movlw	2
  3416     0728                     u755:
  3417     0728  35B2               	lslf	??_Buzzer_Set,f
  3418     0729  0DB3               	rlf	??_Buzzer_Set+1,f
  3419     072A  0DB4               	rlf	??_Buzzer_Set+2,f
  3420     072B  0DB5               	rlf	??_Buzzer_Set+3,f
  3421     072C                     u750:
  3422     072C  0B89               	decfsz	9,f
  3423     072D  2F28               	goto	u755
  3424     072E  0835               	movf	??_Buzzer_Set+3,w
  3425     072F  00F3               	movwf	___lmul@multiplier+3
  3426     0730  0834               	movf	??_Buzzer_Set+2,w
  3427     0731  00F2               	movwf	___lmul@multiplier+2
  3428     0732  0833               	movf	??_Buzzer_Set+1,w
  3429     0733  00F1               	movwf	___lmul@multiplier+1
  3430     0734  0832               	movf	??_Buzzer_Set,w
  3431     0735  00F0               	movwf	___lmul@multiplier
  3432     0736  3000               	movlw	0
  3433     0737  00F7               	movwf	___lmul@multiplicand+3
  3434     0738  3000               	movlw	0
  3435     0739  00F6               	movwf	___lmul@multiplicand+2
  3436     073A  3000               	movlw	0
  3437     073B  00F5               	movwf	___lmul@multiplicand+1
  3438     073C  3040               	movlw	64
  3439     073D  00F4               	movwf	___lmul@multiplicand
  3440     073E  3182  221F  3186   	fcall	___lmul
  3441     0741  0873               	movf	?___lmul+3,w
  3442     0742  0020               	movlb	0	; select bank0
  3443     0743  00A3               	movwf	___lldiv@divisor+3
  3444     0744  0872               	movf	?___lmul+2,w
  3445     0745  00A2               	movwf	___lldiv@divisor+2
  3446     0746  0871               	movf	?___lmul+1,w
  3447     0747  00A1               	movwf	___lldiv@divisor+1
  3448     0748  0870               	movf	?___lmul,w
  3449     0749  00A0               	movwf	___lldiv@divisor
  3450     074A  3001               	movlw	1
  3451     074B  00A7               	movwf	___lldiv@dividend+3
  3452     074C  30E8               	movlw	232
  3453     074D  00A6               	movwf	___lldiv@dividend+2
  3454     074E  3048               	movlw	72
  3455     074F  00A5               	movwf	___lldiv@dividend+1
  3456     0750  3000               	movlw	0
  3457     0751  00A4               	movwf	___lldiv@dividend
  3458     0752  3182  22AB  3186   	fcall	___lldiv
  3459     0755  30FF               	movlw	255
  3460     0756  0020               	movlb	0	; select bank0
  3461     0757  0720               	addwf	?___lldiv,w
  3462     0758  00BD               	movwf	Buzzer_Set@pr_value
  3463     0759  30FF               	movlw	255
  3464     075A  3D21               	addwfc	?___lldiv+1,w
  3465     075B  00BE               	movwf	Buzzer_Set@pr_value+1
  3466     075C  30FF               	movlw	255
  3467     075D  3D22               	addwfc	?___lldiv+2,w
  3468     075E  00BF               	movwf	Buzzer_Set@pr_value+2
  3469     075F  30FF               	movlw	255
  3470     0760  3D23               	addwfc	?___lldiv+3,w
  3471     0761  00C0               	movwf	Buzzer_Set@pr_value+3
  3472     0762                     l1252:
  3473                           
  3474                           ;buzzer.c: 110:     if (pr_value > 255) pr_value = 255;
  3475     0762  0020               	movlb	0	; select bank0
  3476     0763  0840               	movf	Buzzer_Set@pr_value+3,w
  3477     0764  1D03               	btfss	3,2
  3478     0765  2F6F               	goto	u760
  3479     0766  083F               	movf	Buzzer_Set@pr_value+2,w
  3480     0767  1D03               	btfss	3,2
  3481     0768  2F6F               	goto	u760
  3482     0769  3001               	movlw	1
  3483     076A  023E               	subwf	Buzzer_Set@pr_value+1,w
  3484     076B  1C03               	btfss	3,0
  3485     076C  2F6E               	goto	u761
  3486     076D  2F6F               	goto	u760
  3487     076E                     u761:
  3488     076E  2F78               	goto	l105
  3489     076F                     u760:
  3490     076F                     l1254:
  3491     076F  3000               	movlw	0
  3492     0770  0020               	movlb	0	; select bank0
  3493     0771  00C0               	movwf	Buzzer_Set@pr_value+3
  3494     0772  3000               	movlw	0
  3495     0773  00BF               	movwf	Buzzer_Set@pr_value+2
  3496     0774  3000               	movlw	0
  3497     0775  00BE               	movwf	Buzzer_Set@pr_value+1
  3498     0776  30FF               	movlw	255
  3499     0777  00BD               	movwf	Buzzer_Set@pr_value
  3500     0778                     l105:
  3501                           
  3502                           ;buzzer.c: 111:     if (pr_value < 1) pr_value = 1;
  3503     0778  0020               	movlb	0	; select bank0
  3504     0779  0840               	movf	Buzzer_Set@pr_value+3,w
  3505     077A  043F               	iorwf	Buzzer_Set@pr_value+2,w
  3506     077B  043E               	iorwf	Buzzer_Set@pr_value+1,w
  3507     077C  043D               	iorwf	Buzzer_Set@pr_value,w
  3508     077D  1D03               	skipz
  3509     077E  2F80               	goto	u771
  3510     077F  2F81               	goto	u770
  3511     0780                     u771:
  3512     0780  2F89               	goto	l1258
  3513     0781                     u770:
  3514     0781                     l1256:
  3515     0781  3000               	movlw	0
  3516     0782  00C0               	movwf	Buzzer_Set@pr_value+3
  3517     0783  3000               	movlw	0
  3518     0784  00BF               	movwf	Buzzer_Set@pr_value+2
  3519     0785  3000               	movlw	0
  3520     0786  00BE               	movwf	Buzzer_Set@pr_value+1
  3521     0787  3001               	movlw	1
  3522     0788  00BD               	movwf	Buzzer_Set@pr_value
  3523     0789                     l1258:
  3524                           
  3525                           ;buzzer.c: 114:     CCP1CONbits.CCP1M = 0b0000;
  3526     0789  30F0               	movlw	-16
  3527     078A  0025               	movlb	5	; select bank5
  3528     078B  0593               	andwf	19,f	;volatile
  3529     078C                     l1260:
  3530                           
  3531                           ;buzzer.c: 117:     T6CONbits.TMR6ON = 0;
  3532     078C  0028               	movlb	8	; select bank8
  3533     078D  111E               	bcf	30,2	;volatile
  3534     078E                     l1262:
  3535                           
  3536                           ;buzzer.c: 118:     T6CONbits.T6CKPS = prescale_bits;
  3537     078E  081E               	movf	30,w	;volatile
  3538     078F  0020               	movlb	0	; select bank0
  3539     0790  063C               	xorwf	Buzzer_Set@prescale_bits,w
  3540     0791  39FC               	andlw	-4
  3541     0792  063C               	xorwf	Buzzer_Set@prescale_bits,w
  3542     0793  0028               	movlb	8	; select bank8
  3543     0794  009E               	movwf	30	;volatile
  3544                           
  3545                           ;buzzer.c: 119:     PR6 = (uint8_t)pr_value;
  3546     0795  0020               	movlb	0	; select bank0
  3547     0796  083D               	movf	Buzzer_Set@pr_value,w
  3548     0797  0028               	movlb	8	; select bank8
  3549     0798  009D               	movwf	29	;volatile
  3550     0799                     l1264:
  3551                           
  3552                           ;buzzer.c: 120:     TMR6 = 0;
  3553     0799  019C               	clrf	28	;volatile
  3554     079A                     l1266:
  3555                           
  3556                           ;buzzer.c: 121:     T6CONbits.TMR6ON = 1;
  3557     079A  151E               	bsf	30,2	;volatile
  3558     079B                     l1268:
  3559                           
  3560                           ;buzzer.c: 125:     uint16_t duty_10bit = ((pr_value + 1) * 4 * volume_pct) / 200;
  3561     079B  3000               	movlw	0
  3562     079C  0020               	movlb	0	; select bank0
  3563     079D  00A3               	movwf	___lldiv@divisor+3
  3564     079E  3000               	movlw	0
  3565     079F  00A2               	movwf	___lldiv@divisor+2
  3566     07A0  3000               	movlw	0
  3567     07A1  00A1               	movwf	___lldiv@divisor+1
  3568     07A2  30C8               	movlw	200
  3569     07A3  00A0               	movwf	___lldiv@divisor
  3570     07A4  083D               	movf	Buzzer_Set@pr_value,w
  3571     07A5  00B2               	movwf	??_Buzzer_Set
  3572     07A6  083E               	movf	Buzzer_Set@pr_value+1,w
  3573     07A7  00B3               	movwf	??_Buzzer_Set+1
  3574     07A8  083F               	movf	Buzzer_Set@pr_value+2,w
  3575     07A9  00B4               	movwf	??_Buzzer_Set+2
  3576     07AA  0840               	movf	Buzzer_Set@pr_value+3,w
  3577     07AB  00B5               	movwf	??_Buzzer_Set+3
  3578     07AC  3002               	movlw	2
  3579     07AD                     u785:
  3580     07AD  35B2               	lslf	??_Buzzer_Set,f
  3581     07AE  0DB3               	rlf	??_Buzzer_Set+1,f
  3582     07AF  0DB4               	rlf	??_Buzzer_Set+2,f
  3583     07B0  0DB5               	rlf	??_Buzzer_Set+3,f
  3584     07B1                     u780:
  3585     07B1  0B89               	decfsz	9,f
  3586     07B2  2FAD               	goto	u785
  3587     07B3  3004               	movlw	4
  3588     07B4  0732               	addwf	??_Buzzer_Set,w
  3589     07B5  00F0               	movwf	___lmul@multiplier
  3590     07B6  3000               	movlw	0
  3591     07B7  3D33               	addwfc	??_Buzzer_Set+1,w
  3592     07B8  00F1               	movwf	___lmul@multiplier+1
  3593     07B9  3000               	movlw	0
  3594     07BA  3D34               	addwfc	??_Buzzer_Set+2,w
  3595     07BB  00F2               	movwf	___lmul@multiplier+2
  3596     07BC  3000               	movlw	0
  3597     07BD  3D35               	addwfc	??_Buzzer_Set+3,w
  3598     07BE  00F3               	movwf	___lmul@multiplier+3
  3599     07BF  0831               	movf	Buzzer_Set@volume_pct,w
  3600     07C0  00B6               	movwf	??_Buzzer_Set+4
  3601     07C1  01B7               	clrf	??_Buzzer_Set+5
  3602     07C2  01B8               	clrf	??_Buzzer_Set+6
  3603     07C3  01B9               	clrf	??_Buzzer_Set+7
  3604     07C4  0839               	movf	??_Buzzer_Set+7,w
  3605     07C5  00F7               	movwf	___lmul@multiplicand+3
  3606     07C6  0838               	movf	??_Buzzer_Set+6,w
  3607     07C7  00F6               	movwf	___lmul@multiplicand+2
  3608     07C8  0837               	movf	??_Buzzer_Set+5,w
  3609     07C9  00F5               	movwf	___lmul@multiplicand+1
  3610     07CA  0836               	movf	??_Buzzer_Set+4,w
  3611     07CB  00F4               	movwf	___lmul@multiplicand
  3612     07CC  3182  221F  3186   	fcall	___lmul
  3613     07CF  0873               	movf	?___lmul+3,w
  3614     07D0  0020               	movlb	0	; select bank0
  3615     07D1  00A7               	movwf	___lldiv@dividend+3
  3616     07D2  0872               	movf	?___lmul+2,w
  3617     07D3  00A6               	movwf	___lldiv@dividend+2
  3618     07D4  0871               	movf	?___lmul+1,w
  3619     07D5  00A5               	movwf	___lldiv@dividend+1
  3620     07D6  0870               	movf	?___lmul,w
  3621     07D7  00A4               	movwf	___lldiv@dividend
  3622     07D8  3182  22AB  3186   	fcall	___lldiv
  3623     07DB  0020               	movlb	0	; select bank0
  3624     07DC  0821               	movf	?___lldiv+1,w
  3625     07DD  00BB               	movwf	Buzzer_Set@duty_10bit+1
  3626     07DE  0820               	movf	?___lldiv,w
  3627     07DF  00BA               	movwf	Buzzer_Set@duty_10bit
  3628     07E0                     l1270:
  3629                           
  3630                           ;buzzer.c: 128:     CCPR1L = (uint8_t)(duty_10bit >> 2);
  3631     07E0  083B               	movf	Buzzer_Set@duty_10bit+1,w
  3632     07E1  00B3               	movwf	??_Buzzer_Set+1
  3633     07E2  083A               	movf	Buzzer_Set@duty_10bit,w
  3634     07E3  00B2               	movwf	??_Buzzer_Set
  3635     07E4  36B3               	lsrf	??_Buzzer_Set+1,f
  3636     07E5  0CB2               	rrf	??_Buzzer_Set,f
  3637     07E6  36B3               	lsrf	??_Buzzer_Set+1,f
  3638     07E7  0CB2               	rrf	??_Buzzer_Set,f
  3639     07E8  0832               	movf	??_Buzzer_Set,w
  3640     07E9  0025               	movlb	5	; select bank5
  3641     07EA  0091               	movwf	17	;volatile
  3642     07EB                     l1272:
  3643                           
  3644                           ;buzzer.c: 129:     CCP1CONbits.DC1B = (uint8_t)(duty_10bit & 0x03);
  3645     07EB  0020               	movlb	0	; select bank0
  3646     07EC  083A               	movf	Buzzer_Set@duty_10bit,w
  3647     07ED  3903               	andlw	3
  3648     07EE  00B2               	movwf	??_Buzzer_Set
  3649     07EF  0EB2               	swapf	??_Buzzer_Set,f
  3650     07F0  0025               	movlb	5	; select bank5
  3651     07F1  0813               	movf	19,w	;volatile
  3652     07F2  0020               	movlb	0	; select bank0
  3653     07F3  0632               	xorwf	??_Buzzer_Set,w
  3654     07F4  39CF               	andlw	-49
  3655     07F5  0632               	xorwf	??_Buzzer_Set,w
  3656     07F6  0025               	movlb	5	; select bank5
  3657     07F7  0093               	movwf	19	;volatile
  3658     07F8                     l1274:
  3659                           
  3660                           ;buzzer.c: 132:     CCP1CONbits.CCP1M = 0b1100;
  3661     07F8  0813               	movf	19,w	;volatile
  3662     07F9  39F0               	andlw	-16
  3663     07FA  380C               	iorlw	12
  3664     07FB  0093               	movwf	19	;volatile
  3665     07FC                     l100:
  3666     07FC  0008               	return
  3667     07FD                     __end_of_Buzzer_Set:
  3668                           
  3669                           	psect	text12
  3670     021F                     __ptext12:	
  3671 ;; *************** function ___lmul *****************
  3672 ;; Defined at:
  3673 ;;		line 15 in file "C:\Program Files\Microchip\xc8\v2.46\pic\sources\c99\common\Umul32.c"
  3674 ;; Parameters:    Size  Location     Type
  3675 ;;  multiplier      4    0[COMMON] unsigned long 
  3676 ;;  multiplicand    4    4[COMMON] unsigned long 
  3677 ;; Auto vars:     Size  Location     Type
  3678 ;;  product         4    8[COMMON] unsigned long 
  3679 ;; Return value:  Size  Location     Type
  3680 ;;                  4    0[COMMON] unsigned long 
  3681 ;; Registers used:
  3682 ;;		wreg, status,2, status,0
  3683 ;; Tracked objects:
  3684 ;;		On entry : 0/0
  3685 ;;		On exit  : 0/0
  3686 ;;		Unchanged: 0/0
  3687 ;; Data sizes:     COMMON   BANK0   BANK1   BANK2   BANK3   BANK4   BANK5   BANK6   BANK7   BANK8   BANK9  BANK10  BANK1
      +1  BANK12  BANK13  BANK14  BANK15  BANK16  BANK17  BANK18  BANK19  BANK20  BANK21  BANK22  BANK23  BANK24  BANK25
  3688 ;;      Params:         8       0       0       0       0       0       0       0       0       0       0       0       
      +0       0       0       0       0       0       0       0       0       0       0       0       0       0       0
  3689 ;;      Locals:         4       0       0       0       0       0       0       0       0       0       0       0       
      +0       0       0       0       0       0       0       0       0       0       0       0       0       0       0
  3690 ;;      Temps:          0       0       0       0       0       0       0       0       0       0       0       0       
      +0       0       0       0       0       0       0       0       0       0       0       0       0       0       0
  3691 ;;      Totals:        12       0       0       0       0       0       0       0       0       0       0       0       
      +0       0       0       0       0       0       0       0       0       0       0       0       0       0       0
  3692 ;;Total ram usage:       12 bytes
  3693 ;; Hardware stack levels used: 1
  3694 ;; This function calls:
  3695 ;;		Nothing
  3696 ;; This function is called by:
  3697 ;;		_Buzzer_Set
  3698 ;;		_Buzzer_SweepUp
  3699 ;;		_Buzzer_SweepDown
  3700 ;;		_Buzzer_CountdownIntense
  3701 ;; This function uses a non-reentrant model
  3702 ;;
  3703                           
  3704     021F                     ___lmul:	
  3705                           ;psect for function ___lmul
  3706                           
  3707     021F                     l1170:	
  3708                           ;incstack = 0
  3709                           ; Regs used in ___lmul: [wreg+status,2+status,0]
  3710                           
  3711     021F  3000               	movlw	0
  3712     0220  00FB               	movwf	___lmul@product+3
  3713     0221  3000               	movlw	0
  3714     0222  00FA               	movwf	___lmul@product+2
  3715     0223  3000               	movlw	0
  3716     0224  00F9               	movwf	___lmul@product+1
  3717     0225  3000               	movlw	0
  3718     0226  00F8               	movwf	___lmul@product
  3719     0227                     l1172:
  3720     0227  1C70               	btfss	___lmul@multiplier,0
  3721     0228  2A2A               	goto	u541
  3722     0229  2A2B               	goto	u540
  3723     022A                     u541:
  3724     022A  2A33               	goto	l1176
  3725     022B                     u540:
  3726     022B                     l1174:
  3727     022B  0874               	movf	___lmul@multiplicand,w
  3728     022C  07F8               	addwf	___lmul@product,f
  3729     022D  0875               	movf	___lmul@multiplicand+1,w
  3730     022E  3DF9               	addwfc	___lmul@product+1,f
  3731     022F  0876               	movf	___lmul@multiplicand+2,w
  3732     0230  3DFA               	addwfc	___lmul@product+2,f
  3733     0231  0877               	movf	___lmul@multiplicand+3,w
  3734     0232  3DFB               	addwfc	___lmul@product+3,f
  3735     0233                     l1176:
  3736     0233  3001               	movlw	1
  3737     0234                     u555:
  3738     0234  35F4               	lslf	___lmul@multiplicand,f
  3739     0235  0DF5               	rlf	___lmul@multiplicand+1,f
  3740     0236  0DF6               	rlf	___lmul@multiplicand+2,f
  3741     0237  0DF7               	rlf	___lmul@multiplicand+3,f
  3742     0238  0B89               	decfsz	9,f
  3743     0239  2A34               	goto	u555
  3744     023A                     l1178:
  3745     023A  3001               	movlw	1
  3746     023B                     u565:
  3747     023B  36F3               	lsrf	___lmul@multiplier+3,f
  3748     023C  0CF2               	rrf	___lmul@multiplier+2,f
  3749     023D  0CF1               	rrf	___lmul@multiplier+1,f
  3750     023E  0CF0               	rrf	___lmul@multiplier,f
  3751     023F  0B89               	decfsz	9,f
  3752     0240  2A3B               	goto	u565
  3753     0241  0873               	movf	___lmul@multiplier+3,w
  3754     0242  0472               	iorwf	___lmul@multiplier+2,w
  3755     0243  0471               	iorwf	___lmul@multiplier+1,w
  3756     0244  0470               	iorwf	___lmul@multiplier,w
  3757     0245  1D03               	skipz
  3758     0246  2A48               	goto	u571
  3759     0247  2A49               	goto	u570
  3760     0248                     u571:
  3761     0248  2A27               	goto	l1172
  3762     0249                     u570:
  3763     0249                     l1180:
  3764     0249  087B               	movf	___lmul@product+3,w
  3765     024A  00F3               	movwf	?___lmul+3
  3766     024B  087A               	movf	___lmul@product+2,w
  3767     024C  00F2               	movwf	?___lmul+2
  3768     024D  0879               	movf	___lmul@product+1,w
  3769     024E  00F1               	movwf	?___lmul+1
  3770     024F  0878               	movf	___lmul@product,w
  3771     0250  00F0               	movwf	?___lmul
  3772     0251                     l322:
  3773     0251  0008               	return
  3774     0252                     __end_of___lmul:
  3775                           
  3776                           	psect	text13
  3777     02AB                     __ptext13:	
  3778 ;; *************** function ___lldiv *****************
  3779 ;; Defined at:
  3780 ;;		line 5 in file "C:\Program Files\Microchip\xc8\v2.46\pic\sources\c99\common\__lldiv.c"
  3781 ;; Parameters:    Size  Location     Type
  3782 ;;  divisor         4    0[BANK0 ] unsigned long 
  3783 ;;  dividend        4    4[BANK0 ] unsigned long 
  3784 ;; Auto vars:     Size  Location     Type
  3785 ;;  quotient        4    8[BANK0 ] unsigned long 
  3786 ;;  counter         1   12[BANK0 ] unsigned char 
  3787 ;; Return value:  Size  Location     Type
  3788 ;;                  4    0[BANK0 ] unsigned long 
  3789 ;; Registers used:
  3790 ;;		wreg, status,2, status,0
  3791 ;; Tracked objects:
  3792 ;;		On entry : 0/0
  3793 ;;		On exit  : 0/0
  3794 ;;		Unchanged: 0/0
  3795 ;; Data sizes:     COMMON   BANK0   BANK1   BANK2   BANK3   BANK4   BANK5   BANK6   BANK7   BANK8   BANK9  BANK10  BANK1
      +1  BANK12  BANK13  BANK14  BANK15  BANK16  BANK17  BANK18  BANK19  BANK20  BANK21  BANK22  BANK23  BANK24  BANK25
  3796 ;;      Params:         0       8       0       0       0       0       0       0       0       0       0       0       
      +0       0       0       0       0       0       0       0       0       0       0       0       0       0       0
  3797 ;;      Locals:         0       5       0       0       0       0       0       0       0       0       0       0       
      +0       0       0       0       0       0       0       0       0       0       0       0       0       0       0
  3798 ;;      Temps:          1       0       0       0       0       0       0       0       0       0       0       0       
      +0       0       0       0       0       0       0       0       0       0       0       0       0       0       0
  3799 ;;      Totals:         1      13       0       0       0       0       0       0       0       0       0       0       
      +0       0       0       0       0       0       0       0       0       0       0       0       0       0       0
  3800 ;;Total ram usage:       14 bytes
  3801 ;; Hardware stack levels used: 1
  3802 ;; This function calls:
  3803 ;;		Nothing
  3804 ;; This function is called by:
  3805 ;;		_Buzzer_Set
  3806 ;;		_Buzzer_SweepUp
  3807 ;;		_Buzzer_Siren
  3808 ;;		_Buzzer_Countdown
  3809 ;;		_Buzzer_SweepDown
  3810 ;;		_Buzzer_CountdownIntense
  3811 ;; This function uses a non-reentrant model
  3812 ;;
  3813                           
  3814     02AB                     ___lldiv:	
  3815                           ;psect for function ___lldiv
  3816                           
  3817     02AB                     l1184:	
  3818                           ;incstack = 0
  3819                           ; Regs used in ___lldiv: [wreg+status,2+status,0]
  3820                           
  3821     02AB  3000               	movlw	0
  3822     02AC  0020               	movlb	0	; select bank0
  3823     02AD  00AB               	movwf	___lldiv@quotient+3
  3824     02AE  3000               	movlw	0
  3825     02AF  00AA               	movwf	___lldiv@quotient+2
  3826     02B0  3000               	movlw	0
  3827     02B1  00A9               	movwf	___lldiv@quotient+1
  3828     02B2  3000               	movlw	0
  3829     02B3  00A8               	movwf	___lldiv@quotient
  3830     02B4  0823               	movf	___lldiv@divisor+3,w
  3831     02B5  0422               	iorwf	___lldiv@divisor+2,w
  3832     02B6  0421               	iorwf	___lldiv@divisor+1,w
  3833     02B7  0420               	iorwf	___lldiv@divisor,w
  3834     02B8  1903               	skipnz
  3835     02B9  2ABB               	goto	u581
  3836     02BA  2ABC               	goto	u580
  3837     02BB                     u581:
  3838     02BB  2AFD               	goto	l1204
  3839     02BC                     u580:
  3840     02BC                     l1186:
  3841     02BC  01AC               	clrf	___lldiv@counter
  3842     02BD  0AAC               	incf	___lldiv@counter,f
  3843     02BE  2ACA               	goto	l1190
  3844     02BF                     l1188:
  3845     02BF  3001               	movlw	1
  3846     02C0                     u595:
  3847     02C0  35A0               	lslf	___lldiv@divisor,f
  3848     02C1  0DA1               	rlf	___lldiv@divisor+1,f
  3849     02C2  0DA2               	rlf	___lldiv@divisor+2,f
  3850     02C3  0DA3               	rlf	___lldiv@divisor+3,f
  3851     02C4  0B89               	decfsz	9,f
  3852     02C5  2AC0               	goto	u595
  3853     02C6  3001               	movlw	1
  3854     02C7  00FC               	movwf	??___lldiv
  3855     02C8  087C               	movf	??___lldiv,w
  3856     02C9  07AC               	addwf	___lldiv@counter,f
  3857     02CA                     l1190:
  3858     02CA  1FA3               	btfss	___lldiv@divisor+3,7
  3859     02CB  2ACD               	goto	u601
  3860     02CC  2ACE               	goto	u600
  3861     02CD                     u601:
  3862     02CD  2ABF               	goto	l1188
  3863     02CE                     u600:
  3864     02CE                     l1192:
  3865     02CE  3001               	movlw	1
  3866     02CF                     u615:
  3867     02CF  35A8               	lslf	___lldiv@quotient,f
  3868     02D0  0DA9               	rlf	___lldiv@quotient+1,f
  3869     02D1  0DAA               	rlf	___lldiv@quotient+2,f
  3870     02D2  0DAB               	rlf	___lldiv@quotient+3,f
  3871     02D3  0B89               	decfsz	9,f
  3872     02D4  2ACF               	goto	u615
  3873     02D5                     l1194:
  3874     02D5  0823               	movf	___lldiv@divisor+3,w
  3875     02D6  0227               	subwf	___lldiv@dividend+3,w
  3876     02D7  1D03               	skipz
  3877     02D8  2AE3               	goto	u625
  3878     02D9  0822               	movf	___lldiv@divisor+2,w
  3879     02DA  0226               	subwf	___lldiv@dividend+2,w
  3880     02DB  1D03               	skipz
  3881     02DC  2AE3               	goto	u625
  3882     02DD  0821               	movf	___lldiv@divisor+1,w
  3883     02DE  0225               	subwf	___lldiv@dividend+1,w
  3884     02DF  1D03               	skipz
  3885     02E0  2AE3               	goto	u625
  3886     02E1  0820               	movf	___lldiv@divisor,w
  3887     02E2  0224               	subwf	___lldiv@dividend,w
  3888     02E3                     u625:
  3889     02E3  1C03               	skipc
  3890     02E4  2AE6               	goto	u621
  3891     02E5  2AE7               	goto	u620
  3892     02E6                     u621:
  3893     02E6  2AF0               	goto	l1200
  3894     02E7                     u620:
  3895     02E7                     l1196:
  3896     02E7  0820               	movf	___lldiv@divisor,w
  3897     02E8  02A4               	subwf	___lldiv@dividend,f
  3898     02E9  0821               	movf	___lldiv@divisor+1,w
  3899     02EA  3BA5               	subwfb	___lldiv@dividend+1,f
  3900     02EB  0822               	movf	___lldiv@divisor+2,w
  3901     02EC  3BA6               	subwfb	___lldiv@dividend+2,f
  3902     02ED  0823               	movf	___lldiv@divisor+3,w
  3903     02EE  3BA7               	subwfb	___lldiv@dividend+3,f
  3904     02EF                     l1198:
  3905     02EF  1428               	bsf	___lldiv@quotient,0
  3906     02F0                     l1200:
  3907     02F0  3001               	movlw	1
  3908     02F1                     u635:
  3909     02F1  36A3               	lsrf	___lldiv@divisor+3,f
  3910     02F2  0CA2               	rrf	___lldiv@divisor+2,f
  3911     02F3  0CA1               	rrf	___lldiv@divisor+1,f
  3912     02F4  0CA0               	rrf	___lldiv@divisor,f
  3913     02F5  0B89               	decfsz	9,f
  3914     02F6  2AF1               	goto	u635
  3915     02F7                     l1202:
  3916     02F7  3001               	movlw	1
  3917     02F8  02AC               	subwf	___lldiv@counter,f
  3918     02F9  1D03               	btfss	3,2
  3919     02FA  2AFC               	goto	u641
  3920     02FB  2AFD               	goto	u640
  3921     02FC                     u641:
  3922     02FC  2ACE               	goto	l1192
  3923     02FD                     u640:
  3924     02FD                     l1204:
  3925     02FD  082B               	movf	___lldiv@quotient+3,w
  3926     02FE  00A3               	movwf	?___lldiv+3
  3927     02FF  082A               	movf	___lldiv@quotient+2,w
  3928     0300  00A2               	movwf	?___lldiv+2
  3929     0301  0829               	movf	___lldiv@quotient+1,w
  3930     0302  00A1               	movwf	?___lldiv+1
  3931     0303  0828               	movf	___lldiv@quotient,w
  3932     0304  00A0               	movwf	?___lldiv
  3933     0305                     l344:
  3934     0305  0008               	return
  3935     0306                     __end_of___lldiv:
  3936                           
  3937                           	psect	text14
  3938     0147                     __ptext14:	
  3939 ;; *************** function _Buzzer_Stop *****************
  3940 ;; Defined at:
  3941 ;;		line 142 in file "buzzer.c"
  3942 ;; Parameters:    Size  Location     Type
  3943 ;;		None
  3944 ;; Auto vars:     Size  Location     Type
  3945 ;;		None
  3946 ;; Return value:  Size  Location     Type
  3947 ;;                  1    wreg      void 
  3948 ;; Registers used:
  3949 ;;		wreg, status,2, status,0
  3950 ;; Tracked objects:
  3951 ;;		On entry : 0/0
  3952 ;;		On exit  : 0/0
  3953 ;;		Unchanged: 0/0
  3954 ;; Data sizes:     COMMON   BANK0   BANK1   BANK2   BANK3   BANK4   BANK5   BANK6   BANK7   BANK8   BANK9  BANK10  BANK1
      +1  BANK12  BANK13  BANK14  BANK15  BANK16  BANK17  BANK18  BANK19  BANK20  BANK21  BANK22  BANK23  BANK24  BANK25
  3955 ;;      Params:         0       0       0       0       0       0       0       0       0       0       0       0       
      +0       0       0       0       0       0       0       0       0       0       0       0       0       0       0
  3956 ;;      Locals:         0       0       0       0       0       0       0       0       0       0       0       0       
      +0       0       0       0       0       0       0       0       0       0       0       0       0       0       0
  3957 ;;      Temps:          0       0       0       0       0       0       0       0       0       0       0       0       
      +0       0       0       0       0       0       0       0       0       0       0       0       0       0       0
  3958 ;;      Totals:         0       0       0       0       0       0       0       0       0       0       0       0       
      +0       0       0       0       0       0       0       0       0       0       0       0       0       0       0
  3959 ;;Total ram usage:        0 bytes
  3960 ;; Hardware stack levels used: 1
  3961 ;; This function calls:
  3962 ;;		Nothing
  3963 ;; This function is called by:
  3964 ;;		_Buzzer_Set
  3965 ;;		_Buzzer_Beep
  3966 ;;		_Buzzer_SweepUp
  3967 ;;		_Buzzer_Siren
  3968 ;;		_Buzzer_Countdown
  3969 ;;		_Buzzer_SweepDown
  3970 ;;		_Buzzer_CountdownIntense
  3971 ;;		_Buzzer_Scanner
  3972 ;;		_Buzzer_Connected
  3973 ;;		_Buzzer_Disconnected
  3974 ;;		_Buzzer_ChargingComplete
  3975 ;;		_Buzzer_Reminder
  3976 ;;		_Buzzer_TimerComplete
  3977 ;; This function uses a non-reentrant model
  3978 ;;
  3979                           
  3980     0147                     _Buzzer_Stop:	
  3981                           ;psect for function _Buzzer_Stop
  3982                           
  3983     0147                     l1166:	
  3984                           ;incstack = 0
  3985                           ; Regs used in _Buzzer_Stop: [wreg+status,2+status,0]
  3986                           
  3987                           
  3988                           ;buzzer.c: 144:     CCPR1L = 0;
  3989     0147  0025               	movlb	5	; select bank5
  3990     0148  0191               	clrf	17	;volatile
  3991     0149                     l1168:
  3992                           
  3993                           ;buzzer.c: 145:     CCP1CONbits.DC1B = 0;
  3994     0149  30CF               	movlw	-49
  3995     014A  0593               	andwf	19,f	;volatile
  3996     014B                     l109:
  3997     014B  0008               	return
  3998     014C                     __end_of_Buzzer_Stop:
  3999     007E                     btemp	set	126	;btemp
  4000     007E                     wtemp0	set	126
  4001                           
  4002                           	psect	config
  4003                           
  4004                           ;Config register CONFIG1 @ 0x8007
  4005                           ;	Oscillator Selection Bits
  4006                           ;	FOSC = INTOSC, INTOSC oscillator: I/O function on CLKIN pin
  4007                           ;	Watchdog Timer Enable
  4008                           ;	WDTE = OFF, WDT disabled
  4009                           ;	Power-up Timer Enable
  4010                           ;	PWRTE = OFF, PWRT disabled
  4011                           ;	MCLR Pin Function Select
  4012                           ;	MCLRE = OFF, MCLR/VPP pin function is digital input if LVP bit is also 0.
  4013                           ;	Flash Program Memory Code Protection
  4014                           ;	CP = OFF, Program memory code protection is disabled
  4015                           ;	Brown-out Reset Enable
  4016                           ;	BOREN = OFF, Brown-out Reset disabled
  4017                           ;	Clock Out Enable
  4018                           ;	CLKOUTEN = OFF, CLKOUT function is disabled. I/O or oscillator function on the CLKOUT 
      +                          pin
  4019                           ;	Internal/External Switchover Mode
  4020                           ;	IESO = ON, Internal/External Switchover Mode is enabled
  4021                           ;	Fail-Safe Clock Monitor Enable
  4022                           ;	FCMEN = OFF, Fail-Safe Clock Monitor is disabled
  4023     8007                     	org	32775
  4024     8007  19A4               	dw	6564
  4025                           
  4026                           ;Config register CONFIG2 @ 0x8008
  4027                           ;	Flash Memory Self-Write Protection
  4028                           ;	WRT = OFF, Write protection off
  4029                           ;	Peripheral Pin Select one-way control
  4030                           ;	PPS1WAY = ON, The PPSLOCK bit cannot be cleared once it is set by software
  4031                           ;	Zero-cross detect disable
  4032                           ;	ZCDDIS = ON, ZCD disabled. ZCD can be enabled by setting the ZCDSEN bit of ZCDCON
  4033                           ;	Phase Lock Loop enable
  4034                           ;	PLLEN = OFF, 4x PLL is disabled
  4035                           ;	Stack Overflow/Underflow Reset Enable
  4036                           ;	STVREN = ON, Stack Overflow or Underflow will cause a Reset
  4037                           ;	Brown-out Reset Voltage Selection
  4038                           ;	BORV = LO, Brown-out Reset Voltage (Vbor), low trip point selected.
  4039                           ;	Low-Power Brown Out Reset
  4040                           ;	LPBOR = OFF, Low-Power BOR is disabled
  4041                           ;	In-Circuit Debugger Mode
  4042                           ;	DEBUG = 0x1, unprogrammed default
  4043                           ;	Low-Voltage Programming Enable
  4044                           ;	LVP = OFF, High-voltage on MCLR/VPP must be used for programming
  4045     8008                     	org	32776
  4046     8008  1EFF               	dw	7935

Data Sizes:
    Strings     0
    Constant    4
    Data        0
    BSS         0
    Persistent  32
    Stack       0

Auto Spaces:
    Space          Size  Autos    Used
    COMMON           14     14      14
    BANK0            80     67      67
    BANK1            80      0       0
    BANK2            80      0       0
    BANK3            80      0       0
    BANK4            80      0       0
    BANK5            80      0       0
    BANK6            80      0       0
    BANK7            80      0       0
    BANK8            80      0       0
    BANK9            80      0       0
    BANK10           80      0       0
    BANK11           80      0       0
    BANK12           80      0       0
    BANK13           80      0       0
    BANK14           80      0       0
    BANK15           80      0       0
    BANK16           80      0       0
    BANK17           80      0       0
    BANK18           80      0       0
    BANK19           80      0       0
    BANK20           80      0       0
    BANK21           80      0       0
    BANK22           80      0       0
    BANK23           80      0       0
    BANK24           80      0       0
    BANK25           32      0       0

Pointer List with Targets:

    None.

Critical Paths under _main in COMMON

    _main->_Buzzer_Warning
    _Buzzer_SweepUp->___lldiv
    _Buzzer_Siren->___lldiv
    _Buzzer_Countdown->___lldiv
    _Buzzer_Set->___lldiv
    ___lldiv->___lmul

Critical Paths under _main in BANK0

    _main->_Buzzer_SweepUp
    _Buzzer_Warning->_Buzzer_Beep
    _Buzzer_SweepUp->_Buzzer_Set
    _Buzzer_Success->_Buzzer_Beep
    _Buzzer_Beep->_Buzzer_Set
    _Buzzer_Siren->_Buzzer_Set
    _Buzzer_Countdown->_Buzzer_Set
    _Buzzer_Set->___lldiv

Critical Paths under _main in BANK1

    None.

Critical Paths under _main in BANK2

    None.

Critical Paths under _main in BANK3

    None.

Critical Paths under _main in BANK4

    None.

Critical Paths under _main in BANK5

    None.

Critical Paths under _main in BANK6

    None.

Critical Paths under _main in BANK7

    None.

Critical Paths under _main in BANK8

    None.

Critical Paths under _main in BANK9

    None.

Critical Paths under _main in BANK10

    None.

Critical Paths under _main in BANK11

    None.

Critical Paths under _main in BANK12

    None.

Critical Paths under _main in BANK13

    None.

Critical Paths under _main in BANK14

    None.

Critical Paths under _main in BANK15

    None.

Critical Paths under _main in BANK16

    None.

Critical Paths under _main in BANK17

    None.

Critical Paths under _main in BANK18

    None.

Critical Paths under _main in BANK19

    None.

Critical Paths under _main in BANK20

    None.

Critical Paths under _main in BANK21

    None.

Critical Paths under _main in BANK22

    None.

Critical Paths under _main in BANK23

    None.

Critical Paths under _main in BANK24

    None.

Critical Paths under _main in BANK25

    None.

Call Graph Tables:

 ---------------------------------------------------------------------------------
 (Depth) Function   	        Calls       Base Space   Used Autos Params    Refs
 ---------------------------------------------------------------------------------
 (0) _main                                                 2     2      0   61180
                                             65 BANK0      2     2      0
                   _Buzzer_Countdown
                        _Buzzer_Init
                       _Buzzer_Siren
                     _Buzzer_Success
                     _Buzzer_SweepUp
                     _Buzzer_Warning
                        _internal_32
 ---------------------------------------------------------------------------------
 (1) _internal_32                                          0     0      0       0
 ---------------------------------------------------------------------------------
 (1) _Buzzer_Warning                                       2     2      0   14323
                                             13 COMMON     1     1      0
                                             42 BANK0      1     1      0
                        _Buzzer_Beep
                  _delay_variable_ms
 ---------------------------------------------------------------------------------
 (1) _Buzzer_SweepUp                                      32    20     12   10106
                                             33 BANK0     32    20     12
                         _Buzzer_Set
                        _Buzzer_Stop
                            ___lldiv
                             ___lmul
 ---------------------------------------------------------------------------------
 (1) _Buzzer_Success                                       0     0      0   14277
                        _Buzzer_Beep
                  _delay_variable_ms
 ---------------------------------------------------------------------------------
 (2) _Buzzer_Beep                                          9     0      9   11343
                                             33 BANK0      9     0      9
                         _Buzzer_Set
                        _Buzzer_Stop
                           _delay_ms
 ---------------------------------------------------------------------------------
 (3) _delay_ms                                             8     4      4      98
                                              0 COMMON     8     4      4
 ---------------------------------------------------------------------------------
 (1) _Buzzer_Siren                                        29    17     12   11459
                                             33 BANK0     29    17     12
                         _Buzzer_Set
                        _Buzzer_Stop
                            ___lldiv
                  _delay_variable_ms
 ---------------------------------------------------------------------------------
 (1) _Buzzer_Init                                          0     0      0       0
 ---------------------------------------------------------------------------------
 (1) _Buzzer_Countdown                                    20    16      4   11015
                                             33 BANK0     20    16      4
                         _Buzzer_Set
                        _Buzzer_Stop
                            ___lldiv
                  _delay_variable_ms
 ---------------------------------------------------------------------------------
 (2) _delay_variable_ms                                    9     5      4    2934
                                              0 COMMON     9     5      4
 ---------------------------------------------------------------------------------
 (3) _Buzzer_Set                                          25    20      5    6163
                                             13 BANK0     20    15      5
                        _Buzzer_Stop
                            ___lldiv
                             ___lmul
 ---------------------------------------------------------------------------------
 (4) ___lmul                                              12     4      8    1308
                                              0 COMMON    12     4      8
 ---------------------------------------------------------------------------------
 (4) ___lldiv                                             14     6      8    1682
                                             12 COMMON     1     1      0
                                              0 BANK0     13     5      8
                             ___lmul (ARG)
 ---------------------------------------------------------------------------------
 (3) _Buzzer_Stop                                          0     0      0       0
 ---------------------------------------------------------------------------------
 Estimated maximum stack depth 4
 ---------------------------------------------------------------------------------

 Call Graph Graphs:

 _main (ROOT)
   _Buzzer_Countdown
     _Buzzer_Set
       _Buzzer_Stop
       ___lldiv
         ___lmul (ARG)
       ___lmul
     _Buzzer_Stop
     ___lldiv
     _delay_variable_ms
   _Buzzer_Init
   _Buzzer_Siren
     _Buzzer_Set
     _Buzzer_Stop
     ___lldiv
     _delay_variable_ms
   _Buzzer_Success
     _Buzzer_Beep
       _Buzzer_Set
       _Buzzer_Stop
       _delay_ms
     _delay_variable_ms
   _Buzzer_SweepUp
     _Buzzer_Set
     _Buzzer_Stop
     ___lldiv
     ___lmul
   _Buzzer_Warning
     _Buzzer_Beep
     _delay_variable_ms
   _internal_32

 Address spaces:
Name               Size   Autos  Total    Cost      Usage
BIGRAM             7F0      0       0       0        0.0%
NULL                 0      0       0       0        0.0%
CODE                 0      0       0       0        0.0%
BITCOMMON            E      0       0       1        0.0%
BITSFR0              0      0       0       1        0.0%
SFR0                 0      0       0       1        0.0%
COMMON               E      E       E       2      100.0%
BITSFR1              0      0       0       2        0.0%
SFR1                 0      0       0       2        0.0%
BITSFR2              0      0       0       3        0.0%
SFR2                 0      0       0       3        0.0%
STACK                0      0       0       3        0.0%
BITBANK0            50      0       0       4        0.0%
BITSFR3              0      0       0       4        0.0%
SFR3                 0      0       0       4        0.0%
BANK0               50     43      43       5       83.8%
BITSFR4              0      0       0       5        0.0%
SFR4                 0      0       0       5        0.0%
BITBANK1            50      0       0       6        0.0%
BITSFR5              0      0       0       6        0.0%
SFR5                 0      0       0       6        0.0%
BANK1               50      0       0       7        0.0%
BITSFR6              0      0       0       7        0.0%
SFR6                 0      0       0       7        0.0%
BITBANK2            50      0       0       8        0.0%
BITSFR7              0      0       0       8        0.0%
SFR7                 0      0       0       8        0.0%
BANK2               50      0       0       9        0.0%
BITSFR8              0      0       0       9        0.0%
SFR8                 0      0       0       9        0.0%
BITBANK3            50      0       0      10        0.0%
BITSFR9              0      0       0      10        0.0%
SFR9                 0      0       0      10        0.0%
BANK3               50      0       0      11        0.0%
BITSFR10             0      0       0      11        0.0%
SFR10                0      0       0      11        0.0%
BITBANK4            50      0       0      12        0.0%
BITSFR11             0      0       0      12        0.0%
SFR11                0      0       0      12        0.0%
BANK4               50      0       0      13        0.0%
BITSFR12             0      0       0      13        0.0%
SFR12                0      0       0      13        0.0%
BITSFR13             0      0       0      14        0.0%
SFR13                0      0       0      14        0.0%
ABS                  0      0       0      14        0.0%
BITBANK5            50      0       0      15        0.0%
BITSFR14             0      0       0      15        0.0%
SFR14                0      0       0      15        0.0%
BANK5               50      0       0      16        0.0%
BITSFR15             0      0       0      16        0.0%
SFR15                0      0       0      16        0.0%
BITBANK6            50      0       0      17        0.0%
BITSFR16             0      0       0      17        0.0%
SFR16                0      0       0      17        0.0%
BANK6               50      0       0      18        0.0%
BITSFR17             0      0       0      18        0.0%
SFR17                0      0       0      18        0.0%
BITBANK7            50      0       0      19        0.0%
BITSFR18             0      0       0      19        0.0%
SFR18                0      0       0      19        0.0%
BANK7               50      0       0      20        0.0%
BITSFR19             0      0       0      20        0.0%
SFR19                0      0       0      20        0.0%
BITBANK8            50      0       0      21        0.0%
BITSFR20             0      0       0      21        0.0%
SFR20                0      0       0      21        0.0%
BANK8               50      0       0      22        0.0%
BITSFR21             0      0       0      22        0.0%
SFR21                0      0       0      22        0.0%
BITBANK9            50      0       0      23        0.0%
BITSFR22             0      0       0      23        0.0%
SFR22                0      0       0      23        0.0%
BANK9               50      0       0      24        0.0%
BITSFR23             0      0       0      24        0.0%
SFR23                0      0       0      24        0.0%
BITBANK10           50      0       0      25        0.0%
BITSFR24             0      0       0      25        0.0%
SFR24                0      0       0      25        0.0%
BANK10              50      0       0      26        0.0%
BITSFR25             0      0       0      26        0.0%
SFR25                0      0       0      26        0.0%
BITBANK11           50      0       0      27        0.0%
BITSFR26             0      0       0      27        0.0%
SFR26                0      0       0      27        0.0%
BITSFR27             0      0       0      28        0.0%
SFR27                0      0       0      28        0.0%
DATA                 0      0       0      28        0.0%
BANK11              50      0       0      29        0.0%
BITSFR28             0      0       0      29        0.0%
SFR28                0      0       0      29        0.0%
BITBANK12           50      0       0      30        0.0%
BITSFR29             0      0       0      30        0.0%
SFR29                0      0       0      30        0.0%
BANK12              50      0       0      31        0.0%
BITSFR30             0      0       0      31        0.0%
SFR30                0      0       0      31        0.0%
BITBANK13           50      0       0      32        0.0%
BITSFR31             0      0       0      32        0.0%
SFR31                0      0       0      32        0.0%
BANK13              50      0       0      33        0.0%
BITBANK14           50      0       0      34        0.0%
BANK14              50      0       0      35        0.0%
BITBANK15           50      0       0      36        0.0%
BANK15              50      0       0      37        0.0%
BITBANK16           50      0       0      38        0.0%
BANK16              50      0       0      39        0.0%
BITBANK17           50      0       0      40        0.0%
BANK17              50      0       0      41        0.0%
BITBANK18           50      0       0      42        0.0%
BANK18              50      0       0      43        0.0%
BITBANK19           50      0       0      44        0.0%
BANK19              50      0       0      45        0.0%
BITBANK20           50      0       0      46        0.0%
BANK20              50      0       0      47        0.0%
BITBANK21           50      0       0      48        0.0%
BANK21              50      0       0      49        0.0%
BITBANK22           50      0       0      50        0.0%
BANK22              50      0       0      51        0.0%
BITBANK23           50      0       0      52        0.0%
BANK23              50      0       0      53        0.0%
BITBANK24           50      0       0      54        0.0%
BANK24              50      0       0      55        0.0%
BITBANK25           20      0       0      56        0.0%
BANK25              20      0       0      57        0.0%


Microchip Technology PIC Macro Assembler V2.46 build 20240104201356 
Symbol Table                                                                                   Thu Dec 25 22:06:56 2025

         Buzzer_Set@volume_pct 0031                             l17 0154                             l91 019A  
                           l94 01C4                            l100 07FC                            l101 0626  
                          l112 0172                            l105 0778                            l121 02AA  
                          l115 01DE                            l203 050B                            l109 014B  
                          l118 01F0                            l129 021E                            l322 0251  
                          l344 0305                            l184 060B                            l168 043F  
                          l169 03BA                            l187 05F6                            l189 058C  
                          l900 01B6                            l902 01B7                            l904 01C1  
                          l906 01C2                            l890 01A8                            l882 014C  
                          l892 01AA                            l884 019B                            l894 01AD  
                          l886 019F                            l896 01B1                            l888 01A7  
                          l898 01B4                            u600 02CE                            u601 02CD  
                          _PR6 041D                            u620 02E7                            u540 022B  
                          u700 0676                            u621 02E6                            u541 022A  
                          u701 0675                            u710 0686                            u615 02CF  
                          u640 02FD                            u720 06C9                            u800 0392  
                          u641 02FC                            u625 02E3                            u721 06C8  
                          u801 0391                            u570 0249                            u730 06D9  
                          u650 019A                            u810 03A0                            u635 02F1  
                          u571 0248                            u555 0234                            u715 0682  
                          u651 0199                            u580 02BC                            u740 071C  
                          u660 0615                            u900 048B                            u820 03B2  
                          u581 02BB                            u565 023B                            u741 071B  
                          u661 0614                            u821 03B1                            u805 038E  
                          u750 072C                            u670 061A                            u910 04B0  
                          u830 043C                            u735 06D5                            u671 0619  
                          u911 04AF                            u831 043B                            u815 039C  
                          u760 076F                            u680 0624                            u920 04F0  
                          u840 051F                            u761 076E                            u681 0623  
                          u921 04EF                            u905 0487                            u841 051E  
                          u770 0781                            u690 0634                            u850 0584  
                          u930 021E                            u595 02C0                            u771 0780  
                          u755 0728                            u851 0583                            u835 0438  
                          u931 021D                            u780 07B1                            u860 0593  
                          u925 04EC                            u861 0592                            u845 051B  
                          u790 01F0                            u870 05B1                            u695 0630  
                          u791 01EF                            u871 05B0                            u880 05E3  
                          u785 07AD                            u881 05E2                            u890 0608  
                          u795 01EC                            u891 0607                            u875 05AD  
                          u885 05DF                            u895 0604                            wreg 0009  
                         l1200 02F0                           l1202 02F7                           l1210 0174  
                         l1204 02FD                           l1212 017C                           l1300 042A  
                         l1230 0627                           l1222 061E                           l1214 060C  
                         l1310 0528                           l1302 043C                           l1240 06BC  
                         l1232 066A                           l1224 0624                           l1216 0615  
                         l1320 0593                           l1312 0533                           l1304 050C  
                         l1208 0173                           l1400 036C                           l1170 021F  
                         l1250 071F                           l1242 06C9                           l1234 0676  
                         l1226 0626                           l1218 061A                           l1330 05E3  
                         l1322 05B1                           l1314 054B                           l1180 0249  
                         l1172 0227                           l1260 078C                           l1252 0762  
                         l1244 06CC                           l1236 0676                           l1228 0626  
                         l1340 045A                           l1332 05EB                           l1324 05B9  
                         l1316 0554                           l1308 0520                           l1166 0147  
                         l1190 02CA                           l1174 022B                           l1270 07E0  
                         l1262 078E                           l1254 076F                           l1246 070F  
                         l1238 0679                           l1342 04A1                           l1350 04DE  
                         l1334 05EE                           l1326 05BC                           l1318 0584  
                         l1168 0149                           l1192 02CE                           l1184 02AB  
                         l1176 0233                           l1272 07EB                           l1264 0799  
                         l1256 0781                           l1248 071C                           l1280 01CE  
                         l1352 04F0                           l1344 04B0                           l1336 0608  
                         l1328 05C5                           l1360 01F3                           l1194 02D5  
                         l1186 02BC                           l1178 023A                           l1274 07F8  
                         l1266 079A                           l1258 0789                           l1346 04B9  
                         l1338 0440                           l1282 0252                           l1290 03AA  
                         l1362 0213                           l1354 01F1                           l1196 02E7  
                         l1188 02BF                           l1268 079B                           l1348 04C5  
                         l1276 0155                           l1292 03B2                           l1284 037F  
                         l1364 0218                           l1198 02EF                           l1278 01C5  
                         l1294 03C3                           l1390 030C                           l1296 0418  
                         l1288 0393                           l1392 030F                           l1298 0421  
                         l1394 0337                           l1386 0306                           l1396 0344  
                         l1388 0309                           l1398 0360                           u1107 041C  
                         u1117 0177                           u1127 01D1                           u1077 0315  
                         u1087 033D                           u1097 0375                           _SCS0 04C8  
                         _SCS1 04C9                           _TMR6 041C      Buzzer_SweepUp@duration_ms 0049  
                         _main 0306               _Buzzer_Countdown 0440                           btemp 007E  
                         start 0002            Buzzer_SweepUp@steps 005D                          ?_main 0070  
              __end_of___lldiv 0306                          _IRCF0 04CB                          _IRCF1 04CC  
                        _IRCF2 04CD                          _IRCF3 04CE         Buzzer_Beep@duration_ms 0046  
          ___lmul@multiplicand 0074                  ??_Buzzer_Beep 007D                  ??_Buzzer_Init 0070  
                ??_Buzzer_Stop 0070                          status 0003                          wtemp0 007E  
                 ?_internal_32 0070                __initialization 07FD           Buzzer_SweepUp@end_hz 0045  
                 __end_of_main 037F        Buzzer_Countdown@elapsed 004D      Buzzer_Countdown@beep_freq 0049  
                       ??_main 0061        Buzzer_Beep@frequency_hz 0041                     _Buzzer_Set 060C  
                ?_Buzzer_Siren 0041                Buzzer_Siren@dir 0055                         _CCPR1L 0291  
        Buzzer_Beep@volume_pct 0045                Buzzer_Warning@i 004A                         _SPLLEN 04CF  
              Buzzer_SweepUp@f 0055                Buzzer_SweepUp@k 0059               __end_of_delay_ms 019B  
          __end_of_Buzzer_Beep 0173            __end_of_Buzzer_Init 01C5            __end_of_Buzzer_Stop 014C  
                       ___lmul 021F                      ??___lldiv 007C                 ??_Buzzer_Siren 004D  
           Buzzer_Set@pr_value 003D        __end_of__initialization 07FD                 __pcstackCOMMON 0070  
     __end_of_Buzzer_Countdown 050C                    ?_Buzzer_Set 002D             delay_variable_ms@i 0075  
                  _Buzzer_Beep 0155                    _Buzzer_Init 019B                    _Buzzer_Stop 0147  
                   __pmaintext 0306                        ?___lmul 0070                 ___lmul@product 0078  
             Buzzer_Siren@tick 0800               Buzzer_Siren@step 005A                      ?_delay_ms 0070  
                      _PPSLOCK 0E0F    Buzzer_Countdown@duration_ms 0041             Buzzer_Siren@low_hz 0041  
         __end_of_Buzzer_Siren 060C                        ___lldiv 02AB              _delay_variable_ms 01C5  
                      __ptext1 014C                        __ptext2 01F1                        __ptext3 037F  
                      __ptext4 0252                        __ptext5 0155                        __ptext6 0173  
                      __ptext7 050C                        __ptext8 019B                        __ptext9 0440  
           ?_delay_variable_ms 0070                     ??_delay_ms 0074                      _T6CONbits 041E  
          ??_delay_variable_ms 0074                     delay_ms@ms 0070           end_of_initialization 07FD  
              ___lldiv@divisor 0020                ___lldiv@counter 002C      __end_of_delay_variable_ms 01F1  
      Buzzer_Siren@duration_ms 0049         Buzzer_Set@frequency_hz 002D                      _TRISBbits 008D  
                  _CCP1CONbits 0293                 _Buzzer_Warning 01F1                 _Buzzer_Success 0252  
               _Buzzer_SweepUp 037F                 __end_of___lmul 0252                   ??_Buzzer_Set 0032  
            ?_Buzzer_Countdown 0041            start_initialization 07FD             ??_Buzzer_Countdown 0045  
                 ?_Buzzer_Beep 0041                   ?_Buzzer_Init 0070                   ?_Buzzer_Stop 0070  
     __end_ofBuzzer_Siren@tick 0804         Buzzer_SweepUp@start_hz 0041         __end_of_Buzzer_Warning 021F  
       __end_of_Buzzer_Success 02AB         __end_of_Buzzer_SweepUp 0440        Buzzer_Set@prescale_bits 003C  
           __end_of_Buzzer_Set 07FD            delay_variable_ms@ms 0070                       ??___lmul 0078  
                  _CCPTMRSbits 029E                      ___latbits 0003                   _Buzzer_Siren 050C  
                __pcstackBANK0 0020                ?_Buzzer_Warning 0070                ?_Buzzer_Success 0070  
              ?_Buzzer_SweepUp 0041                  ??_internal_32 0070                       ?___lldiv 0020  
          __end_of_internal_32 0155            Buzzer_Siren@high_hz 0045              ___lmul@multiplier 0070  
Buzzer_Countdown@initial_delay 0051                  Buzzer_Siren@f 0056                  Buzzer_Siren@t 0051  
                   _ANSELBbits 018D                       _delay_ms 0173                       __ptext10 01C5  
                     __ptext11 060C                       __ptext12 021F                       __ptext13 02AB  
                     __ptext14 0147                    _internal_32 014C                     _RB0PPSbits 0E98  
         Buzzer_Set@duty_10bit 003A               ??_Buzzer_Warning 007D               ??_Buzzer_Success 007D  
             ??_Buzzer_SweepUp 004D               ___lldiv@dividend 0024                    _PPSLOCKbits 0E0F  
                __pstringtext1 0800               ___lldiv@quotient 0028  
