

Microchip MPLAB XC8 Assembler V2.46 build 20240104201356 
                                                                                               Thu Jan 29 22:15:01 2026

Microchip MPLAB XC8 C Compiler v2.46 (Free license) build 20240104201356 Og1 
     1                           	processor	16F1718
     2                           	pagewidth 120
     3                           	opt	flic
     4                           	psect	stringtext1,global,class=STRCODE,delta=2,noexec
     5                           	psect	stringtext2,global,class=STRCODE,delta=2,noexec
     6                           	psect	stringtext3,global,class=STRCODE,delta=2,noexec
     7                           	psect	stringtext4,global,class=STRCODE,delta=2,noexec
     8                           	psect	stringtext5,global,class=STRCODE,delta=2,noexec
     9                           	psect	stringtext6,global,class=STRCODE,delta=2,noexec
    10                           	psect	stringtext7,global,class=STRCODE,delta=2,noexec
    11                           	psect	stringtext8,global,class=STRCODE,delta=2,noexec
    12                           	psect	stringtext9,global,class=STRCODE,delta=2,noexec
    13                           	psect	stringtext10,global,class=STRCODE,delta=2,noexec
    14                           	psect	stringtext11,global,class=STRCODE,delta=2,noexec
    15                           	psect	stringtext12,global,class=STRCODE,delta=2,noexec
    16                           	psect	stringtext13,global,class=STRCODE,delta=2,noexec
    17                           	psect	stringtext14,global,class=STRCODE,delta=2,noexec
    18                           	psect	stringtext15,global,class=STRCODE,delta=2,noexec
    19                           	psect	stringtext16,global,class=STRCODE,delta=2,noexec
    20                           	psect	stringtext17,global,class=STRCODE,delta=2,noexec
    21                           	psect	stringtext18,global,class=STRCODE,delta=2,noexec
    22                           	psect	cinit,global,class=CODE,merge=1,delta=2
    23                           	psect	cstackCOMMON,global,class=COMMON,space=1,delta=1,noexec
    24                           	psect	cstackBANK0,global,class=BANK0,space=1,delta=1,noexec
    25                           	psect	maintext,global,class=CODE,merge=1,split=1,delta=2
    26                           	psect	text1,local,class=CODE,merge=1,delta=2
    27                           	psect	text2,local,class=CODE,merge=1,delta=2
    28                           	psect	text3,local,class=CODE,merge=1,delta=2
    29                           	psect	text4,local,class=CODE,merge=1,delta=2
    30                           	psect	text5,local,class=CODE,merge=1,delta=2
    31                           	psect	text6,local,class=CODE,merge=1,delta=2
    32                           	psect	text7,local,class=CODE,merge=1,delta=2,group=1
    33                           	psect	text8,local,class=CODE,merge=1,delta=2,group=1
    34                           	psect	text9,local,class=CODE,merge=1,delta=2,group=1
    35                           	psect	text10,local,class=CODE,merge=1,delta=2
    36                           	psect	text11,local,class=CODE,merge=1,delta=2
    37                           	psect	text12,local,class=CODE,merge=1,delta=2
    38                           	psect	text13,local,class=CODE,merge=1,delta=2
    39                           	psect	text14,local,class=CODE,merge=1,delta=2,group=1
    40                           	psect	text15,local,class=CODE,merge=1,delta=2
    41                           	psect	text16,local,class=CODE,merge=1,delta=2
    42                           	psect	text17,local,class=CODE,merge=1,delta=2
    43                           	psect	text18,local,class=CODE,merge=1,delta=2
    44                           	psect	text19,local,class=CODE,merge=1,delta=2
    45                           	psect	text20,local,class=CODE,merge=1,delta=2
    46                           	psect	text21,local,class=CODE,merge=1,delta=2
    47                           	psect	text22,local,class=CODE,merge=1,delta=2
    48                           	psect	text23,local,class=CODE,merge=1,delta=2
    49                           	psect	text24,local,class=CODE,merge=1,delta=2
    50                           	psect	text25,local,class=CODE,merge=1,delta=2
    51                           	psect	config,global,abs,ovrld,class=CONFIG,space=4,delta=2,noexec
    52                           	dabs	1,0x7E,2
    53     0000                     
    54                           ; Generated 07/09/2023 GMT
    55                           ; 
    56                           ; Copyright © 2023, Microchip Technology Inc. and its subsidiaries ("Microchip")
    57                           ; All rights reserved.
    58                           ; 
    59                           ; This software is developed by Microchip Technology Inc. and its subsidiaries ("Microch
      +                          ip").
    60                           ; 
    61                           ; Redistribution and use in source and binary forms, with or without modification, are
    62                           ; permitted provided that the following conditions are met:
    63                           ; 
    64                           ;     1. Redistributions of source code must retain the above copyright notice, this lis
      +                          t of
    65                           ;        conditions and the following disclaimer.
    66                           ; 
    67                           ;     2. Redistributions in binary form must reproduce the above copyright notice, this 
      +                          list
    68                           ;        of conditions and the following disclaimer in the documentation and/or other
    69                           ;        materials provided with the distribution. Publication is not required when
    70                           ;        this file is used in an embedded application.
    71                           ; 
    72                           ;     3. Microchip's name may not be used to endorse or promote products derived from th
      +                          is
    73                           ;        software without specific prior written permission.
    74                           ; 
    75                           ; THIS SOFTWARE IS PROVIDED BY MICROCHIP "AS IS" AND ANY EXPRESS OR IMPLIED WARRANTIES,
    76                           ; INCLUDING, BUT NOT LIMITED TO, THE IMPLIED WARRANTIES OF MERCHANTABILITY AND FITNESS F
      +                          OR
    77                           ; PURPOSE ARE DISCLAIMED.  IN NO EVENT SHALL MICROCHIP BE LIABLE FOR ANY DIRECT, INDIREC
      +                          T,
    78                           ; INCIDENTAL, SPECIAL, EXEMPLARY, OR CONSEQUENTIAL DAMAGES (INCLUDING BUT NOT LIMITED TO
    79                           ; PROCUREMENT OF SUBSTITUTE GOODS OR SERVICES; LOSS OF USE, DATA OR PROFITS; OR BUSINESS
    80                           ; INTERRUPTION) HOWSOEVER CAUSED AND ON ANY THEORY OF LIABILITY, WHETHER IN CONTRACT, ST
      +                          RICT
    81                           ; LIABILITY, OR TORT (INCLUDING NEGLIGENCE OR OTHERWISE) ARISING IN ANY WAY OUT OF THE U
      +                          SE OF
    82                           ; THIS SOFTWARE, EVEN IF ADVISED OF THE POSSIBILITY OF SUCH DAMAGE.
    83                           ; 
    84                           ; 
    85                           ; Code-generator required, PIC16F1718 Definitions
    86                           ; 
    87                           ; SFR Addresses
    88     0000                     	;# 
    89     0001                     	;# 
    90     0002                     	;# 
    91     0003                     	;# 
    92     0004                     	;# 
    93     0005                     	;# 
    94     0006                     	;# 
    95     0007                     	;# 
    96     0008                     	;# 
    97     0009                     	;# 
    98     000A                     	;# 
    99     000B                     	;# 
   100     000C                     	;# 
   101     000D                     	;# 
   102     000E                     	;# 
   103     0010                     	;# 
   104     0011                     	;# 
   105     0012                     	;# 
   106     0013                     	;# 
   107     0015                     	;# 
   108     0016                     	;# 
   109     0016                     	;# 
   110     0017                     	;# 
   111     0018                     	;# 
   112     0019                     	;# 
   113     001A                     	;# 
   114     001B                     	;# 
   115     001C                     	;# 
   116     008C                     	;# 
   117     008D                     	;# 
   118     008E                     	;# 
   119     0090                     	;# 
   120     0091                     	;# 
   121     0092                     	;# 
   122     0093                     	;# 
   123     0095                     	;# 
   124     0096                     	;# 
   125     0097                     	;# 
   126     0098                     	;# 
   127     0099                     	;# 
   128     009A                     	;# 
   129     009B                     	;# 
   130     009B                     	;# 
   131     009C                     	;# 
   132     009D                     	;# 
   133     009E                     	;# 
   134     009F                     	;# 
   135     010C                     	;# 
   136     010D                     	;# 
   137     010E                     	;# 
   138     0111                     	;# 
   139     0112                     	;# 
   140     0113                     	;# 
   141     0114                     	;# 
   142     0115                     	;# 
   143     0116                     	;# 
   144     0117                     	;# 
   145     0118                     	;# 
   146     0119                     	;# 
   147     011A                     	;# 
   148     011B                     	;# 
   149     011B                     	;# 
   150     011C                     	;# 
   151     018C                     	;# 
   152     018D                     	;# 
   153     018E                     	;# 
   154     0191                     	;# 
   155     0191                     	;# 
   156     0192                     	;# 
   157     0193                     	;# 
   158     0193                     	;# 
   159     0194                     	;# 
   160     0195                     	;# 
   161     0196                     	;# 
   162     0197                     	;# 
   163     0199                     	;# 
   164     0199                     	;# 
   165     0199                     	;# 
   166     019A                     	;# 
   167     019A                     	;# 
   168     019A                     	;# 
   169     019B                     	;# 
   170     019B                     	;# 
   171     019B                     	;# 
   172     019B                     	;# 
   173     019B                     	;# 
   174     019C                     	;# 
   175     019C                     	;# 
   176     019C                     	;# 
   177     019D                     	;# 
   178     019D                     	;# 
   179     019D                     	;# 
   180     019E                     	;# 
   181     019E                     	;# 
   182     019E                     	;# 
   183     019F                     	;# 
   184     019F                     	;# 
   185     019F                     	;# 
   186     019F                     	;# 
   187     019F                     	;# 
   188     020C                     	;# 
   189     020D                     	;# 
   190     020E                     	;# 
   191     0210                     	;# 
   192     0211                     	;# 
   193     0211                     	;# 
   194     0212                     	;# 
   195     0212                     	;# 
   196     0213                     	;# 
   197     0213                     	;# 
   198     0214                     	;# 
   199     0214                     	;# 
   200     0215                     	;# 
   201     0215                     	;# 
   202     0215                     	;# 
   203     0215                     	;# 
   204     0216                     	;# 
   205     0216                     	;# 
   206     0217                     	;# 
   207     0217                     	;# 
   208     028C                     	;# 
   209     028D                     	;# 
   210     028E                     	;# 
   211     0291                     	;# 
   212     0291                     	;# 
   213     0292                     	;# 
   214     0293                     	;# 
   215     0293                     	;# 
   216     0298                     	;# 
   217     0298                     	;# 
   218     0299                     	;# 
   219     029A                     	;# 
   220     029A                     	;# 
   221     029E                     	;# 
   222     030C                     	;# 
   223     030D                     	;# 
   224     030E                     	;# 
   225     038C                     	;# 
   226     038D                     	;# 
   227     038E                     	;# 
   228     0390                     	;# 
   229     0391                     	;# 
   230     0392                     	;# 
   231     0393                     	;# 
   232     0394                     	;# 
   233     0395                     	;# 
   234     0396                     	;# 
   235     0397                     	;# 
   236     0398                     	;# 
   237     0399                     	;# 
   238     039D                     	;# 
   239     039E                     	;# 
   240     039F                     	;# 
   241     0415                     	;# 
   242     0416                     	;# 
   243     0417                     	;# 
   244     041C                     	;# 
   245     041D                     	;# 
   246     041E                     	;# 
   247     0498                     	;# 
   248     0498                     	;# 
   249     0499                     	;# 
   250     049A                     	;# 
   251     049B                     	;# 
   252     049B                     	;# 
   253     049C                     	;# 
   254     049D                     	;# 
   255     049E                     	;# 
   256     049F                     	;# 
   257     0511                     	;# 
   258     0515                     	;# 
   259     0617                     	;# 
   260     0618                     	;# 
   261     0619                     	;# 
   262     0619                     	;# 
   263     061A                     	;# 
   264     061B                     	;# 
   265     061C                     	;# 
   266     061C                     	;# 
   267     0691                     	;# 
   268     0692                     	;# 
   269     0693                     	;# 
   270     0694                     	;# 
   271     0695                     	;# 
   272     0696                     	;# 
   273     0697                     	;# 
   274     0698                     	;# 
   275     0699                     	;# 
   276     069A                     	;# 
   277     069B                     	;# 
   278     069C                     	;# 
   279     069D                     	;# 
   280     069E                     	;# 
   281     069F                     	;# 
   282     0E0F                     	;# 
   283     0E10                     	;# 
   284     0E11                     	;# 
   285     0E12                     	;# 
   286     0E13                     	;# 
   287     0E14                     	;# 
   288     0E15                     	;# 
   289     0E17                     	;# 
   290     0E20                     	;# 
   291     0E21                     	;# 
   292     0E22                     	;# 
   293     0E24                     	;# 
   294     0E25                     	;# 
   295     0E28                     	;# 
   296     0E29                     	;# 
   297     0E2A                     	;# 
   298     0E2B                     	;# 
   299     0E90                     	;# 
   300     0E91                     	;# 
   301     0E92                     	;# 
   302     0E93                     	;# 
   303     0E94                     	;# 
   304     0E95                     	;# 
   305     0E96                     	;# 
   306     0E97                     	;# 
   307     0E98                     	;# 
   308     0E99                     	;# 
   309     0E9A                     	;# 
   310     0E9B                     	;# 
   311     0E9C                     	;# 
   312     0E9D                     	;# 
   313     0E9E                     	;# 
   314     0E9F                     	;# 
   315     0EA0                     	;# 
   316     0EA1                     	;# 
   317     0EA2                     	;# 
   318     0EA3                     	;# 
   319     0EA4                     	;# 
   320     0EA5                     	;# 
   321     0EA6                     	;# 
   322     0EA7                     	;# 
   323     0F0F                     	;# 
   324     0F10                     	;# 
   325     0F11                     	;# 
   326     0F12                     	;# 
   327     0F13                     	;# 
   328     0F14                     	;# 
   329     0F15                     	;# 
   330     0F16                     	;# 
   331     0F17                     	;# 
   332     0F18                     	;# 
   333     0F19                     	;# 
   334     0F1A                     	;# 
   335     0F1B                     	;# 
   336     0F1C                     	;# 
   337     0F1D                     	;# 
   338     0F1E                     	;# 
   339     0F1F                     	;# 
   340     0F20                     	;# 
   341     0F21                     	;# 
   342     0F22                     	;# 
   343     0F23                     	;# 
   344     0F24                     	;# 
   345     0F25                     	;# 
   346     0F26                     	;# 
   347     0F27                     	;# 
   348     0F28                     	;# 
   349     0F29                     	;# 
   350     0F2A                     	;# 
   351     0F2B                     	;# 
   352     0F2C                     	;# 
   353     0F2D                     	;# 
   354     0F2E                     	;# 
   355     0F2F                     	;# 
   356     0F30                     	;# 
   357     0F31                     	;# 
   358     0F32                     	;# 
   359     0F33                     	;# 
   360     0F34                     	;# 
   361     0F35                     	;# 
   362     0F36                     	;# 
   363     0F37                     	;# 
   364     0FE4                     	;# 
   365     0FE5                     	;# 
   366     0FE6                     	;# 
   367     0FE7                     	;# 
   368     0FE8                     	;# 
   369     0FE9                     	;# 
   370     0FEA                     	;# 
   371     0FEB                     	;# 
   372     0FED                     	;# 
   373     0FEE                     	;# 
   374     0FEF                     	;# 
   375     0000                     	;# 
   376     0001                     	;# 
   377     0002                     	;# 
   378     0003                     	;# 
   379     0004                     	;# 
   380     0005                     	;# 
   381     0006                     	;# 
   382     0007                     	;# 
   383     0008                     	;# 
   384     0009                     	;# 
   385     000A                     	;# 
   386     000B                     	;# 
   387     000C                     	;# 
   388     000D                     	;# 
   389     000E                     	;# 
   390     0010                     	;# 
   391     0011                     	;# 
   392     0012                     	;# 
   393     0013                     	;# 
   394     0015                     	;# 
   395     0016                     	;# 
   396     0016                     	;# 
   397     0017                     	;# 
   398     0018                     	;# 
   399     0019                     	;# 
   400     001A                     	;# 
   401     001B                     	;# 
   402     001C                     	;# 
   403     008C                     	;# 
   404     008D                     	;# 
   405     008E                     	;# 
   406     0090                     	;# 
   407     0091                     	;# 
   408     0092                     	;# 
   409     0093                     	;# 
   410     0095                     	;# 
   411     0096                     	;# 
   412     0097                     	;# 
   413     0098                     	;# 
   414     0099                     	;# 
   415     009A                     	;# 
   416     009B                     	;# 
   417     009B                     	;# 
   418     009C                     	;# 
   419     009D                     	;# 
   420     009E                     	;# 
   421     009F                     	;# 
   422     010C                     	;# 
   423     010D                     	;# 
   424     010E                     	;# 
   425     0111                     	;# 
   426     0112                     	;# 
   427     0113                     	;# 
   428     0114                     	;# 
   429     0115                     	;# 
   430     0116                     	;# 
   431     0117                     	;# 
   432     0118                     	;# 
   433     0119                     	;# 
   434     011A                     	;# 
   435     011B                     	;# 
   436     011B                     	;# 
   437     011C                     	;# 
   438     018C                     	;# 
   439     018D                     	;# 
   440     018E                     	;# 
   441     0191                     	;# 
   442     0191                     	;# 
   443     0192                     	;# 
   444     0193                     	;# 
   445     0193                     	;# 
   446     0194                     	;# 
   447     0195                     	;# 
   448     0196                     	;# 
   449     0197                     	;# 
   450     0199                     	;# 
   451     0199                     	;# 
   452     0199                     	;# 
   453     019A                     	;# 
   454     019A                     	;# 
   455     019A                     	;# 
   456     019B                     	;# 
   457     019B                     	;# 
   458     019B                     	;# 
   459     019B                     	;# 
   460     019B                     	;# 
   461     019C                     	;# 
   462     019C                     	;# 
   463     019C                     	;# 
   464     019D                     	;# 
   465     019D                     	;# 
   466     019D                     	;# 
   467     019E                     	;# 
   468     019E                     	;# 
   469     019E                     	;# 
   470     019F                     	;# 
   471     019F                     	;# 
   472     019F                     	;# 
   473     019F                     	;# 
   474     019F                     	;# 
   475     020C                     	;# 
   476     020D                     	;# 
   477     020E                     	;# 
   478     0210                     	;# 
   479     0211                     	;# 
   480     0211                     	;# 
   481     0212                     	;# 
   482     0212                     	;# 
   483     0213                     	;# 
   484     0213                     	;# 
   485     0214                     	;# 
   486     0214                     	;# 
   487     0215                     	;# 
   488     0215                     	;# 
   489     0215                     	;# 
   490     0215                     	;# 
   491     0216                     	;# 
   492     0216                     	;# 
   493     0217                     	;# 
   494     0217                     	;# 
   495     028C                     	;# 
   496     028D                     	;# 
   497     028E                     	;# 
   498     0291                     	;# 
   499     0291                     	;# 
   500     0292                     	;# 
   501     0293                     	;# 
   502     0293                     	;# 
   503     0298                     	;# 
   504     0298                     	;# 
   505     0299                     	;# 
   506     029A                     	;# 
   507     029A                     	;# 
   508     029E                     	;# 
   509     030C                     	;# 
   510     030D                     	;# 
   511     030E                     	;# 
   512     038C                     	;# 
   513     038D                     	;# 
   514     038E                     	;# 
   515     0390                     	;# 
   516     0391                     	;# 
   517     0392                     	;# 
   518     0393                     	;# 
   519     0394                     	;# 
   520     0395                     	;# 
   521     0396                     	;# 
   522     0397                     	;# 
   523     0398                     	;# 
   524     0399                     	;# 
   525     039D                     	;# 
   526     039E                     	;# 
   527     039F                     	;# 
   528     0415                     	;# 
   529     0416                     	;# 
   530     0417                     	;# 
   531     041C                     	;# 
   532     041D                     	;# 
   533     041E                     	;# 
   534     0498                     	;# 
   535     0498                     	;# 
   536     0499                     	;# 
   537     049A                     	;# 
   538     049B                     	;# 
   539     049B                     	;# 
   540     049C                     	;# 
   541     049D                     	;# 
   542     049E                     	;# 
   543     049F                     	;# 
   544     0511                     	;# 
   545     0515                     	;# 
   546     0617                     	;# 
   547     0618                     	;# 
   548     0619                     	;# 
   549     0619                     	;# 
   550     061A                     	;# 
   551     061B                     	;# 
   552     061C                     	;# 
   553     061C                     	;# 
   554     0691                     	;# 
   555     0692                     	;# 
   556     0693                     	;# 
   557     0694                     	;# 
   558     0695                     	;# 
   559     0696                     	;# 
   560     0697                     	;# 
   561     0698                     	;# 
   562     0699                     	;# 
   563     069A                     	;# 
   564     069B                     	;# 
   565     069C                     	;# 
   566     069D                     	;# 
   567     069E                     	;# 
   568     069F                     	;# 
   569     0E0F                     	;# 
   570     0E10                     	;# 
   571     0E11                     	;# 
   572     0E12                     	;# 
   573     0E13                     	;# 
   574     0E14                     	;# 
   575     0E15                     	;# 
   576     0E17                     	;# 
   577     0E20                     	;# 
   578     0E21                     	;# 
   579     0E22                     	;# 
   580     0E24                     	;# 
   581     0E25                     	;# 
   582     0E28                     	;# 
   583     0E29                     	;# 
   584     0E2A                     	;# 
   585     0E2B                     	;# 
   586     0E90                     	;# 
   587     0E91                     	;# 
   588     0E92                     	;# 
   589     0E93                     	;# 
   590     0E94                     	;# 
   591     0E95                     	;# 
   592     0E96                     	;# 
   593     0E97                     	;# 
   594     0E98                     	;# 
   595     0E99                     	;# 
   596     0E9A                     	;# 
   597     0E9B                     	;# 
   598     0E9C                     	;# 
   599     0E9D                     	;# 
   600     0E9E                     	;# 
   601     0E9F                     	;# 
   602     0EA0                     	;# 
   603     0EA1                     	;# 
   604     0EA2                     	;# 
   605     0EA3                     	;# 
   606     0EA4                     	;# 
   607     0EA5                     	;# 
   608     0EA6                     	;# 
   609     0EA7                     	;# 
   610     0F0F                     	;# 
   611     0F10                     	;# 
   612     0F11                     	;# 
   613     0F12                     	;# 
   614     0F13                     	;# 
   615     0F14                     	;# 
   616     0F15                     	;# 
   617     0F16                     	;# 
   618     0F17                     	;# 
   619     0F18                     	;# 
   620     0F19                     	;# 
   621     0F1A                     	;# 
   622     0F1B                     	;# 
   623     0F1C                     	;# 
   624     0F1D                     	;# 
   625     0F1E                     	;# 
   626     0F1F                     	;# 
   627     0F20                     	;# 
   628     0F21                     	;# 
   629     0F22                     	;# 
   630     0F23                     	;# 
   631     0F24                     	;# 
   632     0F25                     	;# 
   633     0F26                     	;# 
   634     0F27                     	;# 
   635     0F28                     	;# 
   636     0F29                     	;# 
   637     0F2A                     	;# 
   638     0F2B                     	;# 
   639     0F2C                     	;# 
   640     0F2D                     	;# 
   641     0F2E                     	;# 
   642     0F2F                     	;# 
   643     0F30                     	;# 
   644     0F31                     	;# 
   645     0F32                     	;# 
   646     0F33                     	;# 
   647     0F34                     	;# 
   648     0F35                     	;# 
   649     0F36                     	;# 
   650     0F37                     	;# 
   651     0FE4                     	;# 
   652     0FE5                     	;# 
   653     0FE6                     	;# 
   654     0FE7                     	;# 
   655     0FE8                     	;# 
   656     0FE9                     	;# 
   657     0FEA                     	;# 
   658     0FEB                     	;# 
   659     0FED                     	;# 
   660     0FEE                     	;# 
   661     0FEF                     	;# 
   662     0000                     	;# 
   663     0001                     	;# 
   664     0002                     	;# 
   665     0003                     	;# 
   666     0004                     	;# 
   667     0005                     	;# 
   668     0006                     	;# 
   669     0007                     	;# 
   670     0008                     	;# 
   671     0009                     	;# 
   672     000A                     	;# 
   673     000B                     	;# 
   674     000C                     	;# 
   675     000D                     	;# 
   676     000E                     	;# 
   677     0010                     	;# 
   678     0011                     	;# 
   679     0012                     	;# 
   680     0013                     	;# 
   681     0015                     	;# 
   682     0016                     	;# 
   683     0016                     	;# 
   684     0017                     	;# 
   685     0018                     	;# 
   686     0019                     	;# 
   687     001A                     	;# 
   688     001B                     	;# 
   689     001C                     	;# 
   690     008C                     	;# 
   691     008D                     	;# 
   692     008E                     	;# 
   693     0090                     	;# 
   694     0091                     	;# 
   695     0092                     	;# 
   696     0093                     	;# 
   697     0095                     	;# 
   698     0096                     	;# 
   699     0097                     	;# 
   700     0098                     	;# 
   701     0099                     	;# 
   702     009A                     	;# 
   703     009B                     	;# 
   704     009B                     	;# 
   705     009C                     	;# 
   706     009D                     	;# 
   707     009E                     	;# 
   708     009F                     	;# 
   709     010C                     	;# 
   710     010D                     	;# 
   711     010E                     	;# 
   712     0111                     	;# 
   713     0112                     	;# 
   714     0113                     	;# 
   715     0114                     	;# 
   716     0115                     	;# 
   717     0116                     	;# 
   718     0117                     	;# 
   719     0118                     	;# 
   720     0119                     	;# 
   721     011A                     	;# 
   722     011B                     	;# 
   723     011B                     	;# 
   724     011C                     	;# 
   725     018C                     	;# 
   726     018D                     	;# 
   727     018E                     	;# 
   728     0191                     	;# 
   729     0191                     	;# 
   730     0192                     	;# 
   731     0193                     	;# 
   732     0193                     	;# 
   733     0194                     	;# 
   734     0195                     	;# 
   735     0196                     	;# 
   736     0197                     	;# 
   737     0199                     	;# 
   738     0199                     	;# 
   739     0199                     	;# 
   740     019A                     	;# 
   741     019A                     	;# 
   742     019A                     	;# 
   743     019B                     	;# 
   744     019B                     	;# 
   745     019B                     	;# 
   746     019B                     	;# 
   747     019B                     	;# 
   748     019C                     	;# 
   749     019C                     	;# 
   750     019C                     	;# 
   751     019D                     	;# 
   752     019D                     	;# 
   753     019D                     	;# 
   754     019E                     	;# 
   755     019E                     	;# 
   756     019E                     	;# 
   757     019F                     	;# 
   758     019F                     	;# 
   759     019F                     	;# 
   760     019F                     	;# 
   761     019F                     	;# 
   762     020C                     	;# 
   763     020D                     	;# 
   764     020E                     	;# 
   765     0210                     	;# 
   766     0211                     	;# 
   767     0211                     	;# 
   768     0212                     	;# 
   769     0212                     	;# 
   770     0213                     	;# 
   771     0213                     	;# 
   772     0214                     	;# 
   773     0214                     	;# 
   774     0215                     	;# 
   775     0215                     	;# 
   776     0215                     	;# 
   777     0215                     	;# 
   778     0216                     	;# 
   779     0216                     	;# 
   780     0217                     	;# 
   781     0217                     	;# 
   782     028C                     	;# 
   783     028D                     	;# 
   784     028E                     	;# 
   785     0291                     	;# 
   786     0291                     	;# 
   787     0292                     	;# 
   788     0293                     	;# 
   789     0293                     	;# 
   790     0298                     	;# 
   791     0298                     	;# 
   792     0299                     	;# 
   793     029A                     	;# 
   794     029A                     	;# 
   795     029E                     	;# 
   796     030C                     	;# 
   797     030D                     	;# 
   798     030E                     	;# 
   799     038C                     	;# 
   800     038D                     	;# 
   801     038E                     	;# 
   802     0390                     	;# 
   803     0391                     	;# 
   804     0392                     	;# 
   805     0393                     	;# 
   806     0394                     	;# 
   807     0395                     	;# 
   808     0396                     	;# 
   809     0397                     	;# 
   810     0398                     	;# 
   811     0399                     	;# 
   812     039D                     	;# 
   813     039E                     	;# 
   814     039F                     	;# 
   815     0415                     	;# 
   816     0416                     	;# 
   817     0417                     	;# 
   818     041C                     	;# 
   819     041D                     	;# 
   820     041E                     	;# 
   821     0498                     	;# 
   822     0498                     	;# 
   823     0499                     	;# 
   824     049A                     	;# 
   825     049B                     	;# 
   826     049B                     	;# 
   827     049C                     	;# 
   828     049D                     	;# 
   829     049E                     	;# 
   830     049F                     	;# 
   831     0511                     	;# 
   832     0515                     	;# 
   833     0617                     	;# 
   834     0618                     	;# 
   835     0619                     	;# 
   836     0619                     	;# 
   837     061A                     	;# 
   838     061B                     	;# 
   839     061C                     	;# 
   840     061C                     	;# 
   841     0691                     	;# 
   842     0692                     	;# 
   843     0693                     	;# 
   844     0694                     	;# 
   845     0695                     	;# 
   846     0696                     	;# 
   847     0697                     	;# 
   848     0698                     	;# 
   849     0699                     	;# 
   850     069A                     	;# 
   851     069B                     	;# 
   852     069C                     	;# 
   853     069D                     	;# 
   854     069E                     	;# 
   855     069F                     	;# 
   856     0E0F                     	;# 
   857     0E10                     	;# 
   858     0E11                     	;# 
   859     0E12                     	;# 
   860     0E13                     	;# 
   861     0E14                     	;# 
   862     0E15                     	;# 
   863     0E17                     	;# 
   864     0E20                     	;# 
   865     0E21                     	;# 
   866     0E22                     	;# 
   867     0E24                     	;# 
   868     0E25                     	;# 
   869     0E28                     	;# 
   870     0E29                     	;# 
   871     0E2A                     	;# 
   872     0E2B                     	;# 
   873     0E90                     	;# 
   874     0E91                     	;# 
   875     0E92                     	;# 
   876     0E93                     	;# 
   877     0E94                     	;# 
   878     0E95                     	;# 
   879     0E96                     	;# 
   880     0E97                     	;# 
   881     0E98                     	;# 
   882     0E99                     	;# 
   883     0E9A                     	;# 
   884     0E9B                     	;# 
   885     0E9C                     	;# 
   886     0E9D                     	;# 
   887     0E9E                     	;# 
   888     0E9F                     	;# 
   889     0EA0                     	;# 
   890     0EA1                     	;# 
   891     0EA2                     	;# 
   892     0EA3                     	;# 
   893     0EA4                     	;# 
   894     0EA5                     	;# 
   895     0EA6                     	;# 
   896     0EA7                     	;# 
   897     0F0F                     	;# 
   898     0F10                     	;# 
   899     0F11                     	;# 
   900     0F12                     	;# 
   901     0F13                     	;# 
   902     0F14                     	;# 
   903     0F15                     	;# 
   904     0F16                     	;# 
   905     0F17                     	;# 
   906     0F18                     	;# 
   907     0F19                     	;# 
   908     0F1A                     	;# 
   909     0F1B                     	;# 
   910     0F1C                     	;# 
   911     0F1D                     	;# 
   912     0F1E                     	;# 
   913     0F1F                     	;# 
   914     0F20                     	;# 
   915     0F21                     	;# 
   916     0F22                     	;# 
   917     0F23                     	;# 
   918     0F24                     	;# 
   919     0F25                     	;# 
   920     0F26                     	;# 
   921     0F27                     	;# 
   922     0F28                     	;# 
   923     0F29                     	;# 
   924     0F2A                     	;# 
   925     0F2B                     	;# 
   926     0F2C                     	;# 
   927     0F2D                     	;# 
   928     0F2E                     	;# 
   929     0F2F                     	;# 
   930     0F30                     	;# 
   931     0F31                     	;# 
   932     0F32                     	;# 
   933     0F33                     	;# 
   934     0F34                     	;# 
   935     0F35                     	;# 
   936     0F36                     	;# 
   937     0F37                     	;# 
   938     0FE4                     	;# 
   939     0FE5                     	;# 
   940     0FE6                     	;# 
   941     0FE7                     	;# 
   942     0FE8                     	;# 
   943     0FE9                     	;# 
   944     0FEA                     	;# 
   945     0FEB                     	;# 
   946     0FED                     	;# 
   947     0FEE                     	;# 
   948     0FEF                     	;# 
   949     0000                     	;# 
   950     0001                     	;# 
   951     0002                     	;# 
   952     0003                     	;# 
   953     0004                     	;# 
   954     0005                     	;# 
   955     0006                     	;# 
   956     0007                     	;# 
   957     0008                     	;# 
   958     0009                     	;# 
   959     000A                     	;# 
   960     000B                     	;# 
   961     000C                     	;# 
   962     000D                     	;# 
   963     000E                     	;# 
   964     0010                     	;# 
   965     0011                     	;# 
   966     0012                     	;# 
   967     0013                     	;# 
   968     0015                     	;# 
   969     0016                     	;# 
   970     0016                     	;# 
   971     0017                     	;# 
   972     0018                     	;# 
   973     0019                     	;# 
   974     001A                     	;# 
   975     001B                     	;# 
   976     001C                     	;# 
   977     008C                     	;# 
   978     008D                     	;# 
   979     008E                     	;# 
   980     0090                     	;# 
   981     0091                     	;# 
   982     0092                     	;# 
   983     0093                     	;# 
   984     0095                     	;# 
   985     0096                     	;# 
   986     0097                     	;# 
   987     0098                     	;# 
   988     0099                     	;# 
   989     009A                     	;# 
   990     009B                     	;# 
   991     009B                     	;# 
   992     009C                     	;# 
   993     009D                     	;# 
   994     009E                     	;# 
   995     009F                     	;# 
   996     010C                     	;# 
   997     010D                     	;# 
   998     010E                     	;# 
   999     0111                     	;# 
  1000     0112                     	;# 
  1001     0113                     	;# 
  1002     0114                     	;# 
  1003     0115                     	;# 
  1004     0116                     	;# 
  1005     0117                     	;# 
  1006     0118                     	;# 
  1007     0119                     	;# 
  1008     011A                     	;# 
  1009     011B                     	;# 
  1010     011B                     	;# 
  1011     011C                     	;# 
  1012     018C                     	;# 
  1013     018D                     	;# 
  1014     018E                     	;# 
  1015     0191                     	;# 
  1016     0191                     	;# 
  1017     0192                     	;# 
  1018     0193                     	;# 
  1019     0193                     	;# 
  1020     0194                     	;# 
  1021     0195                     	;# 
  1022     0196                     	;# 
  1023     0197                     	;# 
  1024     0199                     	;# 
  1025     0199                     	;# 
  1026     0199                     	;# 
  1027     019A                     	;# 
  1028     019A                     	;# 
  1029     019A                     	;# 
  1030     019B                     	;# 
  1031     019B                     	;# 
  1032     019B                     	;# 
  1033     019B                     	;# 
  1034     019B                     	;# 
  1035     019C                     	;# 
  1036     019C                     	;# 
  1037     019C                     	;# 
  1038     019D                     	;# 
  1039     019D                     	;# 
  1040     019D                     	;# 
  1041     019E                     	;# 
  1042     019E                     	;# 
  1043     019E                     	;# 
  1044     019F                     	;# 
  1045     019F                     	;# 
  1046     019F                     	;# 
  1047     019F                     	;# 
  1048     019F                     	;# 
  1049     020C                     	;# 
  1050     020D                     	;# 
  1051     020E                     	;# 
  1052     0210                     	;# 
  1053     0211                     	;# 
  1054     0211                     	;# 
  1055     0212                     	;# 
  1056     0212                     	;# 
  1057     0213                     	;# 
  1058     0213                     	;# 
  1059     0214                     	;# 
  1060     0214                     	;# 
  1061     0215                     	;# 
  1062     0215                     	;# 
  1063     0215                     	;# 
  1064     0215                     	;# 
  1065     0216                     	;# 
  1066     0216                     	;# 
  1067     0217                     	;# 
  1068     0217                     	;# 
  1069     028C                     	;# 
  1070     028D                     	;# 
  1071     028E                     	;# 
  1072     0291                     	;# 
  1073     0291                     	;# 
  1074     0292                     	;# 
  1075     0293                     	;# 
  1076     0293                     	;# 
  1077     0298                     	;# 
  1078     0298                     	;# 
  1079     0299                     	;# 
  1080     029A                     	;# 
  1081     029A                     	;# 
  1082     029E                     	;# 
  1083     030C                     	;# 
  1084     030D                     	;# 
  1085     030E                     	;# 
  1086     038C                     	;# 
  1087     038D                     	;# 
  1088     038E                     	;# 
  1089     0390                     	;# 
  1090     0391                     	;# 
  1091     0392                     	;# 
  1092     0393                     	;# 
  1093     0394                     	;# 
  1094     0395                     	;# 
  1095     0396                     	;# 
  1096     0397                     	;# 
  1097     0398                     	;# 
  1098     0399                     	;# 
  1099     039D                     	;# 
  1100     039E                     	;# 
  1101     039F                     	;# 
  1102     0415                     	;# 
  1103     0416                     	;# 
  1104     0417                     	;# 
  1105     041C                     	;# 
  1106     041D                     	;# 
  1107     041E                     	;# 
  1108     0498                     	;# 
  1109     0498                     	;# 
  1110     0499                     	;# 
  1111     049A                     	;# 
  1112     049B                     	;# 
  1113     049B                     	;# 
  1114     049C                     	;# 
  1115     049D                     	;# 
  1116     049E                     	;# 
  1117     049F                     	;# 
  1118     0511                     	;# 
  1119     0515                     	;# 
  1120     0617                     	;# 
  1121     0618                     	;# 
  1122     0619                     	;# 
  1123     0619                     	;# 
  1124     061A                     	;# 
  1125     061B                     	;# 
  1126     061C                     	;# 
  1127     061C                     	;# 
  1128     0691                     	;# 
  1129     0692                     	;# 
  1130     0693                     	;# 
  1131     0694                     	;# 
  1132     0695                     	;# 
  1133     0696                     	;# 
  1134     0697                     	;# 
  1135     0698                     	;# 
  1136     0699                     	;# 
  1137     069A                     	;# 
  1138     069B                     	;# 
  1139     069C                     	;# 
  1140     069D                     	;# 
  1141     069E                     	;# 
  1142     069F                     	;# 
  1143     0E0F                     	;# 
  1144     0E10                     	;# 
  1145     0E11                     	;# 
  1146     0E12                     	;# 
  1147     0E13                     	;# 
  1148     0E14                     	;# 
  1149     0E15                     	;# 
  1150     0E17                     	;# 
  1151     0E20                     	;# 
  1152     0E21                     	;# 
  1153     0E22                     	;# 
  1154     0E24                     	;# 
  1155     0E25                     	;# 
  1156     0E28                     	;# 
  1157     0E29                     	;# 
  1158     0E2A                     	;# 
  1159     0E2B                     	;# 
  1160     0E90                     	;# 
  1161     0E91                     	;# 
  1162     0E92                     	;# 
  1163     0E93                     	;# 
  1164     0E94                     	;# 
  1165     0E95                     	;# 
  1166     0E96                     	;# 
  1167     0E97                     	;# 
  1168     0E98                     	;# 
  1169     0E99                     	;# 
  1170     0E9A                     	;# 
  1171     0E9B                     	;# 
  1172     0E9C                     	;# 
  1173     0E9D                     	;# 
  1174     0E9E                     	;# 
  1175     0E9F                     	;# 
  1176     0EA0                     	;# 
  1177     0EA1                     	;# 
  1178     0EA2                     	;# 
  1179     0EA3                     	;# 
  1180     0EA4                     	;# 
  1181     0EA5                     	;# 
  1182     0EA6                     	;# 
  1183     0EA7                     	;# 
  1184     0F0F                     	;# 
  1185     0F10                     	;# 
  1186     0F11                     	;# 
  1187     0F12                     	;# 
  1188     0F13                     	;# 
  1189     0F14                     	;# 
  1190     0F15                     	;# 
  1191     0F16                     	;# 
  1192     0F17                     	;# 
  1193     0F18                     	;# 
  1194     0F19                     	;# 
  1195     0F1A                     	;# 
  1196     0F1B                     	;# 
  1197     0F1C                     	;# 
  1198     0F1D                     	;# 
  1199     0F1E                     	;# 
  1200     0F1F                     	;# 
  1201     0F20                     	;# 
  1202     0F21                     	;# 
  1203     0F22                     	;# 
  1204     0F23                     	;# 
  1205     0F24                     	;# 
  1206     0F25                     	;# 
  1207     0F26                     	;# 
  1208     0F27                     	;# 
  1209     0F28                     	;# 
  1210     0F29                     	;# 
  1211     0F2A                     	;# 
  1212     0F2B                     	;# 
  1213     0F2C                     	;# 
  1214     0F2D                     	;# 
  1215     0F2E                     	;# 
  1216     0F2F                     	;# 
  1217     0F30                     	;# 
  1218     0F31                     	;# 
  1219     0F32                     	;# 
  1220     0F33                     	;# 
  1221     0F34                     	;# 
  1222     0F35                     	;# 
  1223     0F36                     	;# 
  1224     0F37                     	;# 
  1225     0FE4                     	;# 
  1226     0FE5                     	;# 
  1227     0FE6                     	;# 
  1228     0FE7                     	;# 
  1229     0FE8                     	;# 
  1230     0FE9                     	;# 
  1231     0FEA                     	;# 
  1232     0FEB                     	;# 
  1233     0FED                     	;# 
  1234     0FEE                     	;# 
  1235     0FEF                     	;# 
  1236     0000                     	;# 
  1237     0001                     	;# 
  1238     0002                     	;# 
  1239     0003                     	;# 
  1240     0004                     	;# 
  1241     0005                     	;# 
  1242     0006                     	;# 
  1243     0007                     	;# 
  1244     0008                     	;# 
  1245     0009                     	;# 
  1246     000A                     	;# 
  1247     000B                     	;# 
  1248     000C                     	;# 
  1249     000D                     	;# 
  1250     000E                     	;# 
  1251     0010                     	;# 
  1252     0011                     	;# 
  1253     0012                     	;# 
  1254     0013                     	;# 
  1255     0015                     	;# 
  1256     0016                     	;# 
  1257     0016                     	;# 
  1258     0017                     	;# 
  1259     0018                     	;# 
  1260     0019                     	;# 
  1261     001A                     	;# 
  1262     001B                     	;# 
  1263     001C                     	;# 
  1264     008C                     	;# 
  1265     008D                     	;# 
  1266     008E                     	;# 
  1267     0090                     	;# 
  1268     0091                     	;# 
  1269     0092                     	;# 
  1270     0093                     	;# 
  1271     0095                     	;# 
  1272     0096                     	;# 
  1273     0097                     	;# 
  1274     0098                     	;# 
  1275     0099                     	;# 
  1276     009A                     	;# 
  1277     009B                     	;# 
  1278     009B                     	;# 
  1279     009C                     	;# 
  1280     009D                     	;# 
  1281     009E                     	;# 
  1282     009F                     	;# 
  1283     010C                     	;# 
  1284     010D                     	;# 
  1285     010E                     	;# 
  1286     0111                     	;# 
  1287     0112                     	;# 
  1288     0113                     	;# 
  1289     0114                     	;# 
  1290     0115                     	;# 
  1291     0116                     	;# 
  1292     0117                     	;# 
  1293     0118                     	;# 
  1294     0119                     	;# 
  1295     011A                     	;# 
  1296     011B                     	;# 
  1297     011B                     	;# 
  1298     011C                     	;# 
  1299     018C                     	;# 
  1300     018D                     	;# 
  1301     018E                     	;# 
  1302     0191                     	;# 
  1303     0191                     	;# 
  1304     0192                     	;# 
  1305     0193                     	;# 
  1306     0193                     	;# 
  1307     0194                     	;# 
  1308     0195                     	;# 
  1309     0196                     	;# 
  1310     0197                     	;# 
  1311     0199                     	;# 
  1312     0199                     	;# 
  1313     0199                     	;# 
  1314     019A                     	;# 
  1315     019A                     	;# 
  1316     019A                     	;# 
  1317     019B                     	;# 
  1318     019B                     	;# 
  1319     019B                     	;# 
  1320     019B                     	;# 
  1321     019B                     	;# 
  1322     019C                     	;# 
  1323     019C                     	;# 
  1324     019C                     	;# 
  1325     019D                     	;# 
  1326     019D                     	;# 
  1327     019D                     	;# 
  1328     019E                     	;# 
  1329     019E                     	;# 
  1330     019E                     	;# 
  1331     019F                     	;# 
  1332     019F                     	;# 
  1333     019F                     	;# 
  1334     019F                     	;# 
  1335     019F                     	;# 
  1336     020C                     	;# 
  1337     020D                     	;# 
  1338     020E                     	;# 
  1339     0210                     	;# 
  1340     0211                     	;# 
  1341     0211                     	;# 
  1342     0212                     	;# 
  1343     0212                     	;# 
  1344     0213                     	;# 
  1345     0213                     	;# 
  1346     0214                     	;# 
  1347     0214                     	;# 
  1348     0215                     	;# 
  1349     0215                     	;# 
  1350     0215                     	;# 
  1351     0215                     	;# 
  1352     0216                     	;# 
  1353     0216                     	;# 
  1354     0217                     	;# 
  1355     0217                     	;# 
  1356     028C                     	;# 
  1357     028D                     	;# 
  1358     028E                     	;# 
  1359     0291                     	;# 
  1360     0291                     	;# 
  1361     0292                     	;# 
  1362     0293                     	;# 
  1363     0293                     	;# 
  1364     0298                     	;# 
  1365     0298                     	;# 
  1366     0299                     	;# 
  1367     029A                     	;# 
  1368     029A                     	;# 
  1369     029E                     	;# 
  1370     030C                     	;# 
  1371     030D                     	;# 
  1372     030E                     	;# 
  1373     038C                     	;# 
  1374     038D                     	;# 
  1375     038E                     	;# 
  1376     0390                     	;# 
  1377     0391                     	;# 
  1378     0392                     	;# 
  1379     0393                     	;# 
  1380     0394                     	;# 
  1381     0395                     	;# 
  1382     0396                     	;# 
  1383     0397                     	;# 
  1384     0398                     	;# 
  1385     0399                     	;# 
  1386     039D                     	;# 
  1387     039E                     	;# 
  1388     039F                     	;# 
  1389     0415                     	;# 
  1390     0416                     	;# 
  1391     0417                     	;# 
  1392     041C                     	;# 
  1393     041D                     	;# 
  1394     041E                     	;# 
  1395     0498                     	;# 
  1396     0498                     	;# 
  1397     0499                     	;# 
  1398     049A                     	;# 
  1399     049B                     	;# 
  1400     049B                     	;# 
  1401     049C                     	;# 
  1402     049D                     	;# 
  1403     049E                     	;# 
  1404     049F                     	;# 
  1405     0511                     	;# 
  1406     0515                     	;# 
  1407     0617                     	;# 
  1408     0618                     	;# 
  1409     0619                     	;# 
  1410     0619                     	;# 
  1411     061A                     	;# 
  1412     061B                     	;# 
  1413     061C                     	;# 
  1414     061C                     	;# 
  1415     0691                     	;# 
  1416     0692                     	;# 
  1417     0693                     	;# 
  1418     0694                     	;# 
  1419     0695                     	;# 
  1420     0696                     	;# 
  1421     0697                     	;# 
  1422     0698                     	;# 
  1423     0699                     	;# 
  1424     069A                     	;# 
  1425     069B                     	;# 
  1426     069C                     	;# 
  1427     069D                     	;# 
  1428     069E                     	;# 
  1429     069F                     	;# 
  1430     0E0F                     	;# 
  1431     0E10                     	;# 
  1432     0E11                     	;# 
  1433     0E12                     	;# 
  1434     0E13                     	;# 
  1435     0E14                     	;# 
  1436     0E15                     	;# 
  1437     0E17                     	;# 
  1438     0E20                     	;# 
  1439     0E21                     	;# 
  1440     0E22                     	;# 
  1441     0E24                     	;# 
  1442     0E25                     	;# 
  1443     0E28                     	;# 
  1444     0E29                     	;# 
  1445     0E2A                     	;# 
  1446     0E2B                     	;# 
  1447     0E90                     	;# 
  1448     0E91                     	;# 
  1449     0E92                     	;# 
  1450     0E93                     	;# 
  1451     0E94                     	;# 
  1452     0E95                     	;# 
  1453     0E96                     	;# 
  1454     0E97                     	;# 
  1455     0E98                     	;# 
  1456     0E99                     	;# 
  1457     0E9A                     	;# 
  1458     0E9B                     	;# 
  1459     0E9C                     	;# 
  1460     0E9D                     	;# 
  1461     0E9E                     	;# 
  1462     0E9F                     	;# 
  1463     0EA0                     	;# 
  1464     0EA1                     	;# 
  1465     0EA2                     	;# 
  1466     0EA3                     	;# 
  1467     0EA4                     	;# 
  1468     0EA5                     	;# 
  1469     0EA6                     	;# 
  1470     0EA7                     	;# 
  1471     0F0F                     	;# 
  1472     0F10                     	;# 
  1473     0F11                     	;# 
  1474     0F12                     	;# 
  1475     0F13                     	;# 
  1476     0F14                     	;# 
  1477     0F15                     	;# 
  1478     0F16                     	;# 
  1479     0F17                     	;# 
  1480     0F18                     	;# 
  1481     0F19                     	;# 
  1482     0F1A                     	;# 
  1483     0F1B                     	;# 
  1484     0F1C                     	;# 
  1485     0F1D                     	;# 
  1486     0F1E                     	;# 
  1487     0F1F                     	;# 
  1488     0F20                     	;# 
  1489     0F21                     	;# 
  1490     0F22                     	;# 
  1491     0F23                     	;# 
  1492     0F24                     	;# 
  1493     0F25                     	;# 
  1494     0F26                     	;# 
  1495     0F27                     	;# 
  1496     0F28                     	;# 
  1497     0F29                     	;# 
  1498     0F2A                     	;# 
  1499     0F2B                     	;# 
  1500     0F2C                     	;# 
  1501     0F2D                     	;# 
  1502     0F2E                     	;# 
  1503     0F2F                     	;# 
  1504     0F30                     	;# 
  1505     0F31                     	;# 
  1506     0F32                     	;# 
  1507     0F33                     	;# 
  1508     0F34                     	;# 
  1509     0F35                     	;# 
  1510     0F36                     	;# 
  1511     0F37                     	;# 
  1512     0FE4                     	;# 
  1513     0FE5                     	;# 
  1514     0FE6                     	;# 
  1515     0FE7                     	;# 
  1516     0FE8                     	;# 
  1517     0FE9                     	;# 
  1518     0FEA                     	;# 
  1519     0FEB                     	;# 
  1520     0FED                     	;# 
  1521     0FEE                     	;# 
  1522     0FEF                     	;# 
  1523     0012                     _PIR2bits	set	18
  1524     0011                     _PIR1bits	set	17
  1525     008E                     _TRISCbits	set	142
  1526     008D                     _TRISBbits	set	141
  1527     04CF                     _SPLLEN	set	1231
  1528     04CE                     _IRCF3	set	1230
  1529     04CD                     _IRCF2	set	1229
  1530     04CC                     _IRCF1	set	1228
  1531     04CB                     _IRCF0	set	1227
  1532     04C9                     _SCS1	set	1225
  1533     04C8                     _SCS0	set	1224
  1534     019A                     _TX1REG	set	410
  1535     0199                     _RC1REG	set	409
  1536     019D                     _RC1STAbits	set	413
  1537     019B                     _SPBRGL	set	411
  1538     018E                     _ANSELCbits	set	398
  1539     018D                     _ANSELBbits	set	397
  1540     0CF5                     _TXEN	set	3317
  1541     0CEC                     _CREN	set	3308
  1542     0CEF                     _SPEN	set	3311
  1543     0CF4                     _SYNC	set	3316
  1544     0CFB                     _BRG16	set	3323
  1545     0CF2                     _BRGH	set	3314
  1546     0211                     _SSPBUF	set	529
  1547     0216                     _SSPCON2bits	set	534
  1548     0214                     _SSPSTATbits	set	532
  1549     0216                     _SSPCON2	set	534
  1550     0215                     _SSPCON1bits	set	533
  1551     0212                     _SSPADD	set	530
  1552     0215                     _SSPCONbits	set	533
  1553     0E20                     _SSPCLKPPSbits	set	3616
  1554     0E21                     _SSPDATPPSbits	set	3617
  1555     0E24                     _RXPPSbits	set	3620
  1556     0E0F                     _PPSLOCKbits	set	3599
  1557     0E0F                     _PPSLOCK	set	3599
  1558     0EA5                     _RC5PPSbits	set	3749
  1559     0EA4                     _RC4PPSbits	set	3748
  1560     0E9A                     _RB2PPSbits	set	3738
  1561                           
  1562                           	psect	stringtext1
  1563     0800                     __pstringtext1:
  1564     0800                     STR_5:
  1565     0800  340A               	retlw	10
  1566     0801  343D               	retlw	61	;'='
  1567     0802  343D               	retlw	61	;'='
  1568     0803  343D               	retlw	61	;'='
  1569     0804  343D               	retlw	61	;'='
  1570     0805  343D               	retlw	61	;'='
  1571     0806  343D               	retlw	61	;'='
  1572     0807  343D               	retlw	61	;'='
  1573     0808  343D               	retlw	61	;'='
  1574     0809  343D               	retlw	61	;'='
  1575     080A  343D               	retlw	61	;'='
  1576     080B  343D               	retlw	61	;'='
  1577     080C  343D               	retlw	61	;'='
  1578     080D  343D               	retlw	61	;'='
  1579     080E  343D               	retlw	61	;'='
  1580     080F  343D               	retlw	61	;'='
  1581     0810  343D               	retlw	61	;'='
  1582     0811  343D               	retlw	61	;'='
  1583     0812  343D               	retlw	61	;'='
  1584     0813  343D               	retlw	61	;'='
  1585     0814  343D               	retlw	61	;'='
  1586     0815  343D               	retlw	61	;'='
  1587     0816  343D               	retlw	61	;'='
  1588     0817  343D               	retlw	61	;'='
  1589     0818  343D               	retlw	61	;'='
  1590     0819  343D               	retlw	61	;'='
  1591     081A  343D               	retlw	61	;'='
  1592     081B  343D               	retlw	61	;'='
  1593     081C  343D               	retlw	61	;'='
  1594     081D  343D               	retlw	61	;'='
  1595     081E  343D               	retlw	61	;'='
  1596     081F  343D               	retlw	61	;'='
  1597     0820  343D               	retlw	61	;'='
  1598     0821  343D               	retlw	61	;'='
  1599     0822  343D               	retlw	61	;'='
  1600     0823  343D               	retlw	61	;'='
  1601     0824  343D               	retlw	61	;'='
  1602     0825  340A               	retlw	10
  1603     0826  3400               	retlw	0
  1604                           
  1605                           	psect	stringtext2
  1606     0827                     __pstringtext2:
  1607     0827                     STR_6:
  1608     0827  3420               	retlw	32	;' '
  1609     0828  3420               	retlw	32	;' '
  1610     0829  3432               	retlw	50	;'2'
  1611     082A  3434               	retlw	52	;'4'
  1612     082B  3441               	retlw	65	;'A'
  1613     082C  3441               	retlw	65	;'A'
  1614     082D  3435               	retlw	53	;'5'
  1615     082E  3431               	retlw	49	;'1'
  1616     082F  3432               	retlw	50	;'2'
  1617     0830  3420               	retlw	32	;' '
  1618     0831  3445               	retlw	69	;'E'
  1619     0832  3445               	retlw	69	;'E'
  1620     0833  3450               	retlw	80	;'P'
  1621     0834  3452               	retlw	82	;'R'
  1622     0835  344F               	retlw	79	;'O'
  1623     0836  344D               	retlw	77	;'M'
  1624     0837  3420               	retlw	32	;' '
  1625     0838  3449               	retlw	73	;'I'
  1626     0839  3432               	retlw	50	;'2'
  1627     083A  3443               	retlw	67	;'C'
  1628     083B  3420               	retlw	32	;' '
  1629     083C  3444               	retlw	68	;'D'
  1630     083D  3445               	retlw	69	;'E'
  1631     083E  344D               	retlw	77	;'M'
  1632     083F  344F               	retlw	79	;'O'
  1633     0840  340A               	retlw	10
  1634     0841  3400               	retlw	0
  1635                           
  1636                           	psect	stringtext3
  1637     0842                     __pstringtext3:
  1638     0842                     STR_1:
  1639     0842  340A               	retlw	10
  1640     0843  3449               	retlw	73	;'I'
  1641     0844  3432               	retlw	50	;'2'
  1642     0845  3443               	retlw	67	;'C'
  1643     0846  3420               	retlw	32	;' '
  1644     0847  3453               	retlw	83	;'S'
  1645     0848  3443               	retlw	67	;'C'
  1646     0849  3441               	retlw	65	;'A'
  1647     084A  344E               	retlw	78	;'N'
  1648     084B  3420               	retlw	32	;' '
  1649     084C  3428               	retlw	40	;'('
  1650     084D  3430               	retlw	48	;'0'
  1651     084E  3478               	retlw	120	;'x'
  1652     084F  3430               	retlw	48	;'0'
  1653     0850  3438               	retlw	56	;'8'
  1654     0851  342E               	retlw	46	;'.'
  1655     0852  342E               	retlw	46	;'.'
  1656     0853  3430               	retlw	48	;'0'
  1657     0854  3478               	retlw	120	;'x'
  1658     0855  3437               	retlw	55	;'7'
  1659     0856  3437               	retlw	55	;'7'
  1660     0857  3429               	retlw	41	;')'
  1661     0858  340A               	retlw	10
  1662     0859  3400               	retlw	0
  1663                           
  1664                           	psect	stringtext4
  1665     085A                     __pstringtext4:
  1666     085A                     STR_3:
  1667     085A  3441               	retlw	65	;'A'
  1668     085B  3443               	retlw	67	;'C'
  1669     085C  344B               	retlw	75	;'K'
  1670     085D  3420               	retlw	32	;' '
  1671     085E  3440               	retlw	64	;'@'
  1672     085F  3420               	retlw	32	;' '
  1673     0860  3437               	retlw	55	;'7'
  1674     0861  342D               	retlw	45	;'-'
  1675     0862  3462               	retlw	98	;'b'
  1676     0863  3469               	retlw	105	;'i'
  1677     0864  3474               	retlw	116	;'t'
  1678     0865  3420               	retlw	32	;' '
  1679     0866  3461               	retlw	97	;'a'
  1680     0867  3464               	retlw	100	;'d'
  1681     0868  3464               	retlw	100	;'d'
  1682     0869  3472               	retlw	114	;'r'
  1683     086A  343A               	retlw	58	;':'
  1684     086B  3420               	retlw	32	;' '
  1685     086C  3400               	retlw	0
  1686                           
  1687                           	psect	stringtext5
  1688     086D                     __pstringtext5:
  1689     086D                     STR_12:
  1690     086D  3457               	retlw	87	;'W'
  1691     086E  3472               	retlw	114	;'r'
  1692     086F  3469               	retlw	105	;'i'
  1693     0870  3474               	retlw	116	;'t'
  1694     0871  3465               	retlw	101	;'e'
  1695     0872  3420               	retlw	32	;' '
  1696     0873  3453               	retlw	83	;'S'
  1697     0874  3474               	retlw	116	;'t'
  1698     0875  3461               	retlw	97	;'a'
  1699     0876  3474               	retlw	116	;'t'
  1700     0877  3475               	retlw	117	;'u'
  1701     0878  3473               	retlw	115	;'s'
  1702     0879  343A               	retlw	58	;':'
  1703     087A  3420               	retlw	32	;' '
  1704     087B  3400               	retlw	0
  1705                           
  1706                           	psect	stringtext6
  1707     087C                     __pstringtext6:
  1708     087C                     STR_8:
  1709     087C  340A               	retlw	10
  1710     087D  3457               	retlw	87	;'W'
  1711     087E  3452               	retlw	82	;'R'
  1712     087F  3449               	retlw	73	;'I'
  1713     0880  3454               	retlw	84	;'T'
  1714     0881  3445               	retlw	69	;'E'
  1715     0882  3420               	retlw	32	;' '
  1716     0883  3443               	retlw	67	;'C'
  1717     0884  3459               	retlw	89	;'Y'
  1718     0885  3443               	retlw	67	;'C'
  1719     0886  344C               	retlw	76	;'L'
  1720     0887  3445               	retlw	69	;'E'
  1721     0888  340A               	retlw	10
  1722     0889  3400               	retlw	0
  1723                           
  1724                           	psect	stringtext7
  1725     088A                     __pstringtext7:
  1726     088A                     STR_2:
  1727     088A  3453               	retlw	83	;'S'
  1728     088B  3474               	retlw	116	;'t'
  1729     088C  3461               	retlw	97	;'a'
  1730     088D  3472               	retlw	114	;'r'
  1731     088E  3474               	retlw	116	;'t'
  1732     088F  3420               	retlw	32	;' '
  1733     0890  3466               	retlw	102	;'f'
  1734     0891  3461               	retlw	97	;'a'
  1735     0892  3469               	retlw	105	;'i'
  1736     0893  346C               	retlw	108	;'l'
  1737     0894  3465               	retlw	101	;'e'
  1738     0895  3464               	retlw	100	;'d'
  1739     0896  340A               	retlw	10
  1740     0897  3400               	retlw	0
  1741                           
  1742                           	psect	stringtext8
  1743     0898                     __pstringtext8:
  1744     0898                     STR_18:
  1745     0898  3452               	retlw	82	;'R'
  1746     0899  3465               	retlw	101	;'e'
  1747     089A  3461               	retlw	97	;'a'
  1748     089B  3464               	retlw	100	;'d'
  1749     089C  3420               	retlw	32	;' '
  1750     089D  3453               	retlw	83	;'S'
  1751     089E  3474               	retlw	116	;'t'
  1752     089F  3461               	retlw	97	;'a'
  1753     08A0  3474               	retlw	116	;'t'
  1754     08A1  3475               	retlw	117	;'u'
  1755     08A2  3473               	retlw	115	;'s'
  1756     08A3  343A               	retlw	58	;':'
  1757     08A4  3420               	retlw	32	;' '
  1758     08A5  3400               	retlw	0
  1759                           
  1760                           	psect	stringtext9
  1761     08A6                     __pstringtext9:
  1762     08A6                     STR_15:
  1763     08A6  340A               	retlw	10
  1764     08A7  3452               	retlw	82	;'R'
  1765     08A8  3445               	retlw	69	;'E'
  1766     08A9  3441               	retlw	65	;'A'
  1767     08AA  3444               	retlw	68	;'D'
  1768     08AB  3420               	retlw	32	;' '
  1769     08AC  3443               	retlw	67	;'C'
  1770     08AD  3459               	retlw	89	;'Y'
  1771     08AE  3443               	retlw	67	;'C'
  1772     08AF  344C               	retlw	76	;'L'
  1773     08B0  3445               	retlw	69	;'E'
  1774     08B1  340A               	retlw	10
  1775     08B2  3400               	retlw	0
  1776                           
  1777                           	psect	stringtext10
  1778     08B3                     __pstringtext10:
  1779     08B3                     STR_21:
  1780     08B3  3452               	retlw	82	;'R'
  1781     08B4  3465               	retlw	101	;'e'
  1782     08B5  3461               	retlw	97	;'a'
  1783     08B6  3464               	retlw	100	;'d'
  1784     08B7  3420               	retlw	32	;' '
  1785     08B8  3444               	retlw	68	;'D'
  1786     08B9  3461               	retlw	97	;'a'
  1787     08BA  3474               	retlw	116	;'t'
  1788     08BB  3461               	retlw	97	;'a'
  1789     08BC  343A               	retlw	58	;':'
  1790     08BD  3420               	retlw	32	;' '
  1791     08BE  3400               	retlw	0
  1792                           
  1793                           	psect	stringtext11
  1794     08BF                     __pstringtext11:
  1795     08BF                     STR_24:
  1796     08BF  3457               	retlw	87	;'W'
  1797     08C0  3472               	retlw	114	;'r'
  1798     08C1  3469               	retlw	105	;'i'
  1799     08C2  3474               	retlw	116	;'t'
  1800     08C3  3474               	retlw	116	;'t'
  1801     08C4  3465               	retlw	101	;'e'
  1802     08C5  346E               	retlw	110	;'n'
  1803     08C6  343A               	retlw	58	;':'
  1804     08C7  3420               	retlw	32	;' '
  1805     08C8  3400               	retlw	0
  1806                           
  1807                           	psect	stringtext12
  1808     08C9                     __pstringtext12:
  1809     08C9                     STR_14:
  1810     08C9  3420               	retlw	32	;' '
  1811     08CA  3428               	retlw	40	;'('
  1812     08CB  3446               	retlw	70	;'F'
  1813     08CC  3441               	retlw	65	;'A'
  1814     08CD  3449               	retlw	73	;'I'
  1815     08CE  344C               	retlw	76	;'L'
  1816     08CF  3429               	retlw	41	;')'
  1817     08D0  340A               	retlw	10
  1818     08D1  3400               	retlw	0
  1819                           
  1820                           	psect	stringtext13
  1821     08D2                     __pstringtext13:
  1822     08D2                     STR_23:
  1823     08D2  340A               	retlw	10
  1824     08D3  3452               	retlw	82	;'R'
  1825     08D4  3445               	retlw	69	;'E'
  1826     08D5  3453               	retlw	83	;'S'
  1827     08D6  3455               	retlw	85	;'U'
  1828     08D7  344C               	retlw	76	;'L'
  1829     08D8  3454               	retlw	84	;'T'
  1830     08D9  340A               	retlw	10
  1831     08DA  3400               	retlw	0
  1832                           
  1833                           	psect	stringtext14
  1834     08DB                     __pstringtext14:
  1835     08DB                     STR_10:
  1836     08DB  3420               	retlw	32	;' '
  1837     08DC  3420               	retlw	32	;' '
  1838     08DD  3444               	retlw	68	;'D'
  1839     08DE  3461               	retlw	97	;'a'
  1840     08DF  3474               	retlw	116	;'t'
  1841     08E0  3461               	retlw	97	;'a'
  1842     08E1  343A               	retlw	58	;':'
  1843     08E2  3420               	retlw	32	;' '
  1844     08E3  3400               	retlw	0
  1845                           
  1846                           	psect	stringtext15
  1847     08E4                     __pstringtext15:
  1848     08E4                     STR_25:
  1849     08E4  3420               	retlw	32	;' '
  1850     08E5  3420               	retlw	32	;' '
  1851     08E6  3452               	retlw	82	;'R'
  1852     08E7  3465               	retlw	101	;'e'
  1853     08E8  3461               	retlw	97	;'a'
  1854     08E9  3464               	retlw	100	;'d'
  1855     08EA  343A               	retlw	58	;':'
  1856     08EB  3420               	retlw	32	;' '
  1857     08EC  3400               	retlw	0
  1858                           
  1859                           	psect	stringtext16
  1860     08ED                     __pstringtext16:
  1861     08ED                     STR_13:
  1862     08ED  3420               	retlw	32	;' '
  1863     08EE  3428               	retlw	40	;'('
  1864     08EF  344F               	retlw	79	;'O'
  1865     08F0  344B               	retlw	75	;'K'
  1866     08F1  3429               	retlw	41	;')'
  1867     08F2  340A               	retlw	10
  1868     08F3  3400               	retlw	0
  1869                           
  1870                           	psect	stringtext17
  1871     08F4                     __pstringtext17:
  1872     08F4                     STR_9:
  1873     08F4  3441               	retlw	65	;'A'
  1874     08F5  3464               	retlw	100	;'d'
  1875     08F6  3464               	retlw	100	;'d'
  1876     08F7  3472               	retlw	114	;'r'
  1877     08F8  343A               	retlw	58	;':'
  1878     08F9  3420               	retlw	32	;' '
  1879     08FA  3400               	retlw	0
  1880                           
  1881                           	psect	stringtext18
  1882     0000                     __pstringtext18:
  1883     0858                     
  1884                           	psect	cinit
  1885     07FD                     start_initialization:	
  1886                           ; #config settings
  1887                           
  1888     07FD                     __initialization:
  1889     07FD                     end_of_initialization:	
  1890                           ;End of C runtime variable initialization code
  1891                           
  1892     07FD                     __end_of__initialization:
  1893     07FD  0020               	movlb	0
  1894     07FE  3186  2EAF         	ljmp	_main	;jump to C main() function
  1895                           
  1896                           	psect	cstackCOMMON
  1897     0070                     __pcstackCOMMON:
  1898     0070                     ?_I2C_ClearErrors:
  1899     0070                     ??_I2C_ClearErrors:	
  1900                           ; 1 bytes @ 0x0
  1901                           
  1902     0070                     ?_internal_32:	
  1903                           ; 1 bytes @ 0x0
  1904                           
  1905     0070                     ??_internal_32:	
  1906                           ; 1 bytes @ 0x0
  1907                           
  1908     0070                     ?_I2C_WaitIF:	
  1909                           ; 1 bytes @ 0x0
  1910                           
  1911     0070                     ?_I2C_Init:	
  1912                           ; 1 bytes @ 0x0
  1913                           
  1914     0070                     ??_I2C_Init:	
  1915                           ; 1 bytes @ 0x0
  1916                           
  1917     0070                     ?_I2C_WaitIdle:	
  1918                           ; 1 bytes @ 0x0
  1919                           
  1920     0070                     ?_I2C_Start:	
  1921                           ; 1 bytes @ 0x0
  1922                           
  1923     0070                     ?_I2C_RepeatedStart:	
  1924                           ; 1 bytes @ 0x0
  1925                           
  1926     0070                     ?_I2C_Stop:	
  1927                           ; 1 bytes @ 0x0
  1928                           
  1929     0070                     ?_I2C_WriteByte:	
  1930                           ; 1 bytes @ 0x0
  1931                           
  1932     0070                     ?_I2C_ScanBus:	
  1933                           ; 1 bytes @ 0x0
  1934                           
  1935     0070                     ?_initMain:	
  1936                           ; 1 bytes @ 0x0
  1937                           
  1938     0070                     ??_initMain:	
  1939                           ; 1 bytes @ 0x0
  1940                           
  1941     0070                     ?_main:	
  1942                           ; 1 bytes @ 0x0
  1943                           
  1944     0070                     ?_EEPROM24AA512_Ctrl:	
  1945                           ; 1 bytes @ 0x0
  1946                           
  1947     0070                     ??_EEPROM24AA512_Ctrl:	
  1948                           ; 1 bytes @ 0x0
  1949                           
  1950     0070                     ?_EEPROM24AA512_AckPoll:	
  1951                           ; 1 bytes @ 0x0
  1952                           
  1953     0070                     ?_EUSART_Write:	
  1954                           ; 1 bytes @ 0x0
  1955                           
  1956     0070                     ??_EUSART_Write:	
  1957                           ; 1 bytes @ 0x0
  1958                           
  1959     0070                     ?___wmul:	
  1960                           ; 1 bytes @ 0x0
  1961                           
  1962     0070                     ?___awdiv:	
  1963                           ; 2 bytes @ 0x0
  1964                           
  1965     0070                     ?___awmod:	
  1966                           ; 2 bytes @ 0x0
  1967                           
  1968     0070                     ?___aldiv:	
  1969                           ; 2 bytes @ 0x0
  1970                           
  1971     0070                     EEPROM24AA512_Ctrl@read:	
  1972                           ; 4 bytes @ 0x0
  1973                           
  1974     0070                     EUSART_Write@txData:	
  1975                           ; 1 bytes @ 0x0
  1976                           
  1977     0070                     I2C_WaitIF@timeout_ms:	
  1978                           ; 1 bytes @ 0x0
  1979                           
  1980     0070                     I2C_WaitIdle@timeout_ms:	
  1981                           ; 2 bytes @ 0x0
  1982                           
  1983     0070                     ___wmul@multiplier:	
  1984                           ; 2 bytes @ 0x0
  1985                           
  1986     0070                     ___awdiv@divisor:	
  1987                           ; 2 bytes @ 0x0
  1988                           
  1989     0070                     ___awmod@divisor:	
  1990                           ; 2 bytes @ 0x0
  1991                           
  1992     0070                     ___aldiv@divisor:	
  1993                           ; 2 bytes @ 0x0
  1994                           
  1995                           
  1996                           ; 4 bytes @ 0x0
  1997     0070                     	ds	1
  1998     0071                     ?_EUSART_Write_Text:
  1999     0071                     EUSART_Write_Text@text:	
  2000                           ; 1 bytes @ 0x1
  2001                           
  2002                           
  2003                           ; 2 bytes @ 0x1
  2004     0071                     	ds	1
  2005     0072                     ??_I2C_WaitIF:
  2006     0072                     ??_I2C_WaitIdle:	
  2007                           ; 1 bytes @ 0x2
  2008                           
  2009     0072                     ___wmul@multiplicand:	
  2010                           ; 1 bytes @ 0x2
  2011                           
  2012     0072                     ___awdiv@dividend:	
  2013                           ; 2 bytes @ 0x2
  2014                           
  2015     0072                     ___awmod@dividend:	
  2016                           ; 2 bytes @ 0x2
  2017                           
  2018                           
  2019                           ; 2 bytes @ 0x2
  2020     0072                     	ds	1
  2021     0073                     ??_EUSART_Write_Text:
  2022     0073                     ??_I2C_Start:	
  2023                           ; 1 bytes @ 0x3
  2024                           
  2025     0073                     ??_I2C_RepeatedStart:	
  2026                           ; 1 bytes @ 0x3
  2027                           
  2028     0073                     ??_I2C_Stop:	
  2029                           ; 1 bytes @ 0x3
  2030                           
  2031     0073                     ??_I2C_WriteByte:	
  2032                           ; 1 bytes @ 0x3
  2033                           
  2034     0073                     ?_I2C_ReadByte:	
  2035                           ; 1 bytes @ 0x3
  2036                           
  2037     0073                     I2C_Start@st:	
  2038                           ; 1 bytes @ 0x3
  2039                           
  2040     0073                     I2C_RepeatedStart@st:	
  2041                           ; 1 bytes @ 0x3
  2042                           
  2043     0073                     I2C_Stop@st:	
  2044                           ; 1 bytes @ 0x3
  2045                           
  2046     0073                     I2C_WriteByte@data:	
  2047                           ; 1 bytes @ 0x3
  2048                           
  2049     0073                     I2C_ReadByte@ack:	
  2050                           ; 1 bytes @ 0x3
  2051                           
  2052                           
  2053                           ; 1 bytes @ 0x3
  2054     0073                     	ds	1
  2055     0074                     ??_I2C_ReadByte:
  2056     0074                     ??___wmul:	
  2057                           ; 1 bytes @ 0x4
  2058                           
  2059     0074                     ??___awdiv:	
  2060                           ; 1 bytes @ 0x4
  2061                           
  2062     0074                     ??___awmod:	
  2063                           ; 1 bytes @ 0x4
  2064                           
  2065     0074                     I2C_WriteByte@st:	
  2066                           ; 1 bytes @ 0x4
  2067                           
  2068     0074                     I2C_ReadByte@data:	
  2069                           ; 1 bytes @ 0x4
  2070                           
  2071     0074                     EUSART_Write_Text@i:	
  2072                           ; 1 bytes @ 0x4
  2073                           
  2074     0074                     ___wmul@product:	
  2075                           ; 2 bytes @ 0x4
  2076                           
  2077     0074                     ___aldiv@dividend:	
  2078                           ; 2 bytes @ 0x4
  2079                           
  2080                           
  2081                           ; 4 bytes @ 0x4
  2082     0074                     	ds	1
  2083     0075                     ??_EEPROM24AA512_AckPoll:
  2084     0075                     I2C_ReadByte@st:	
  2085                           ; 1 bytes @ 0x5
  2086                           
  2087     0075                     ___awdiv@counter:	
  2088                           ; 1 bytes @ 0x5
  2089                           
  2090     0075                     ___awmod@counter:	
  2091                           ; 1 bytes @ 0x5
  2092                           
  2093                           
  2094                           ; 1 bytes @ 0x5
  2095     0075                     	ds	1
  2096     0076                     ?_EEPROM24AA512_ReadByte:
  2097     0076                     EEPROM24AA512_AckPoll@st:	
  2098                           ; 1 bytes @ 0x6
  2099                           
  2100     0076                     ___awdiv@sign:	
  2101                           ; 1 bytes @ 0x6
  2102                           
  2103     0076                     ___awmod@sign:	
  2104                           ; 1 bytes @ 0x6
  2105                           
  2106     0076                     EEPROM24AA512_ReadByte@addr:	
  2107                           ; 1 bytes @ 0x6
  2108                           
  2109                           
  2110                           ; 2 bytes @ 0x6
  2111     0076                     	ds	1
  2112     0077                     EEPROM24AA512_AckPoll@t:
  2113     0077                     ___awdiv@quotient:	
  2114                           ; 2 bytes @ 0x7
  2115                           
  2116                           
  2117                           ; 2 bytes @ 0x7
  2118     0077                     	ds	1
  2119     0078                     ??___aldiv:
  2120     0078                     EEPROM24AA512_ReadByte@data:	
  2121                           ; 1 bytes @ 0x8
  2122                           
  2123                           
  2124                           ; 1 bytes @ 0x8
  2125     0078                     	ds	1
  2126     0079                     ?_EEPROM24AA512_WriteByte:
  2127     0079                     ??_EEPROM24AA512_ReadByte:	
  2128                           ; 1 bytes @ 0x9
  2129                           
  2130     0079                     ?_itoa:	
  2131                           ; 1 bytes @ 0x9
  2132                           
  2133     0079                     EEPROM24AA512_ReadByte@st:	
  2134                           ; 1 bytes @ 0x9
  2135                           
  2136     0079                     EEPROM24AA512_WriteByte@addr:	
  2137                           ; 1 bytes @ 0x9
  2138                           
  2139     0079                     EUSART_Initialize@x:	
  2140                           ; 2 bytes @ 0x9
  2141                           
  2142     0079                     itoa@d:	
  2143                           ; 2 bytes @ 0x9
  2144                           
  2145                           
  2146                           ; 2 bytes @ 0x9
  2147     0079                     	ds	2
  2148     007B                     ?_EUSART_Write_Integer:
  2149     007B                     ??_itoa:	
  2150                           ; 1 bytes @ 0xB
  2151                           
  2152     007B                     EEPROM24AA512_WriteByte@data:	
  2153                           ; 1 bytes @ 0xB
  2154                           
  2155     007B                     EUSART_Write_Integer@value_to_send:	
  2156                           ; 1 bytes @ 0xB
  2157                           
  2158                           
  2159                           ; 2 bytes @ 0xB
  2160     007B                     	ds	1
  2161     007C                     ??_EEPROM24AA512_WriteByte:
  2162     007C                     EEPROM24AA512_WriteByte@st:	
  2163                           ; 1 bytes @ 0xC
  2164                           
  2165                           
  2166                           ; 1 bytes @ 0xC
  2167     007C                     	ds	1
  2168     007D                     ??_EUSART_Write_Integer:
  2169                           
  2170                           ; 1 bytes @ 0xD
  2171     007D                     	ds	1
  2172                           
  2173                           	psect	cstackBANK0
  2174     0020                     __pcstackBANK0:
  2175     0020                     ___aldiv@counter:
  2176     0020                     itoa@num:	
  2177                           ; 1 bytes @ 0x0
  2178                           
  2179                           
  2180                           ; 2 bytes @ 0x0
  2181     0020                     	ds	1
  2182     0021                     ___aldiv@sign:
  2183                           
  2184                           ; 1 bytes @ 0x1
  2185     0021                     	ds	1
  2186     0022                     itoa@temp:
  2187     0022                     ___aldiv@quotient:	
  2188                           ; 2 bytes @ 0x2
  2189                           
  2190                           
  2191                           ; 4 bytes @ 0x2
  2192     0022                     	ds	2
  2193     0024                     itoa@buf:
  2194                           
  2195                           ; 1 bytes @ 0x4
  2196     0024                     	ds	1
  2197     0025                     itoa@div:
  2198                           
  2199                           ; 2 bytes @ 0x5
  2200     0025                     	ds	1
  2201     0026                     ?_EUSART_Initialize:
  2202     0026                     EUSART_Initialize@baudrate:	
  2203                           ; 1 bytes @ 0x6
  2204                           
  2205                           
  2206                           ; 4 bytes @ 0x6
  2207     0026                     	ds	1
  2208     0027                     EUSART_Write_Integer@buffer:
  2209                           
  2210                           ; 20 bytes @ 0x7
  2211     0027                     	ds	3
  2212     002A                     ??_EUSART_Initialize:
  2213                           
  2214                           ; 1 bytes @ 0xA
  2215     002A                     	ds	17
  2216     003B                     EUSART_Write_Integer@ptr:
  2217                           
  2218                           ; 1 bytes @ 0x1B
  2219     003B                     	ds	1
  2220     003C                     EUSART_Write_Integer@temp_ptr:
  2221                           
  2222                           ; 1 bytes @ 0x1C
  2223     003C                     	ds	1
  2224     003D                     ??_I2C_ScanBus:
  2225                           
  2226                           ; 1 bytes @ 0x1D
  2227     003D                     	ds	2
  2228     003F                     I2C_ScanBus@ctrlW:
  2229                           
  2230                           ; 1 bytes @ 0x1F
  2231     003F                     	ds	1
  2232     0040                     I2C_ScanBus@st:
  2233                           
  2234                           ; 1 bytes @ 0x20
  2235     0040                     	ds	1
  2236     0041                     I2C_ScanBus@addr7:
  2237                           
  2238                           ; 1 bytes @ 0x21
  2239     0041                     	ds	1
  2240     0042                     ??_main:
  2241                           
  2242                           ; 1 bytes @ 0x22
  2243     0042                     	ds	2
  2244     0044                     _main$493:
  2245                           
  2246                           ; 2 bytes @ 0x24
  2247     0044                     	ds	2
  2248     0046                     _main$501:
  2249                           
  2250                           ; 2 bytes @ 0x26
  2251     0046                     	ds	2
  2252     0048                     main@writeVal:
  2253                           
  2254                           ; 1 bytes @ 0x28
  2255     0048                     	ds	1
  2256     0049                     main@readVal:
  2257                           
  2258                           ; 1 bytes @ 0x29
  2259     0049                     	ds	1
  2260     004A                     main@address:
  2261                           
  2262                           ; 2 bytes @ 0x2A
  2263     004A                     	ds	2
  2264     004C                     main@st:
  2265                           
  2266                           ; 1 bytes @ 0x2C
  2267     004C                     	ds	1
  2268                           
  2269                           	psect	maintext
  2270     06AF                     __pmaintext:	
  2271 ;;
  2272 ;;Main: autosize = 0, tempsize = 2, incstack = 0, save=0
  2273 ;;
  2274 ;; *************** function _main *****************
  2275 ;; Defined at:
  2276 ;;		line 96 in file "main.c"
  2277 ;; Parameters:    Size  Location     Type
  2278 ;;		None
  2279 ;; Auto vars:     Size  Location     Type
  2280 ;;  st              1   44[BANK0 ] enum E6055
  2281 ;;  address         2   42[BANK0 ] unsigned short 
  2282 ;;  readVal         1   41[BANK0 ] unsigned char 
  2283 ;;  writeVal        1   40[BANK0 ] unsigned char 
  2284 ;; Return value:  Size  Location     Type
  2285 ;;                  1    wreg      void 
  2286 ;; Registers used:
  2287 ;;		wreg, fsr0l, fsr0h, fsr1l, fsr1h, status,2, status,0, pclath, cstack
  2288 ;; Tracked objects:
  2289 ;;		On entry : B1F/0
  2290 ;;		On exit  : 0/0
  2291 ;;		Unchanged: 0/0
  2292 ;; Data sizes:     COMMON   BANK0   BANK1   BANK2   BANK3   BANK4   BANK5   BANK6   BANK7   BANK8   BANK9  BANK10  BANK1
      +1  BANK12  BANK13  BANK14  BANK15  BANK16  BANK17  BANK18  BANK19  BANK20  BANK21  BANK22  BANK23  BANK24  BANK25
  2293 ;;      Params:         0       0       0       0       0       0       0       0       0       0       0       0       
      +0       0       0       0       0       0       0       0       0       0       0       0       0       0       0
  2294 ;;      Locals:         0       9       0       0       0       0       0       0       0       0       0       0       
      +0       0       0       0       0       0       0       0       0       0       0       0       0       0       0
  2295 ;;      Temps:          0       2       0       0       0       0       0       0       0       0       0       0       
      +0       0       0       0       0       0       0       0       0       0       0       0       0       0       0
  2296 ;;      Totals:         0      11       0       0       0       0       0       0       0       0       0       0       
      +0       0       0       0       0       0       0       0       0       0       0       0       0       0       0
  2297 ;;Total ram usage:       11 bytes
  2298 ;; Hardware stack levels required when called: 4
  2299 ;; This function calls:
  2300 ;;		_EEPROM24AA512_ReadByte
  2301 ;;		_EEPROM24AA512_WriteByte
  2302 ;;		_EUSART_Initialize
  2303 ;;		_EUSART_Write_Integer
  2304 ;;		_EUSART_Write_Text
  2305 ;;		_I2C_Init
  2306 ;;		_I2C_ScanBus
  2307 ;;		_initMain
  2308 ;; This function is called by:
  2309 ;;		Startup code after reset
  2310 ;; This function uses a non-reentrant model
  2311 ;;
  2312                           
  2313     06AF                     _main:	
  2314                           ;psect for function _main
  2315                           
  2316     06AF                     l2123:	
  2317                           ;incstack = 0
  2318                           ; Regs used in _main: [wreg-fsr1h+status,2+status,0+pclath+cstack]
  2319                           
  2320                           
  2321                           ;main.c: 98:     initMain();
  2322     06AF  3183  230D  3186   	fcall	_initMain
  2323                           
  2324                           ;main.c: 100:     EUSART_Initialize(19200);
  2325     06B2  3000               	movlw	0
  2326     06B3  0020               	movlb	0	; select bank0
  2327     06B4  00A9               	movwf	EUSART_Initialize@baudrate+3
  2328     06B5  3000               	movlw	0
  2329     06B6  00A8               	movwf	EUSART_Initialize@baudrate+2
  2330     06B7  304B               	movlw	75
  2331     06B8  00A7               	movwf	EUSART_Initialize@baudrate+1
  2332     06B9  3000               	movlw	0
  2333     06BA  00A6               	movwf	EUSART_Initialize@baudrate
  2334     06BB  3183  23D9  3186   	fcall	_EUSART_Initialize
  2335                           
  2336                           ;main.c: 101:     I2C_Init();
  2337     06BE  3181  218A  3186   	fcall	_I2C_Init
  2338     06C1                     l2125:
  2339                           
  2340                           ;main.c: 103:     I2C_ScanBus();
  2341     06C1  3184  2429  3186   	fcall	_I2C_ScanBus
  2342     06C4                     l2127:
  2343                           
  2344                           ;main.c: 105:     EUSART_Write_Text("\n====================================\n");
  2345     06C4  3000               	movlw	low (STR_5| (0+32768))
  2346     06C5  00F1               	movwf	EUSART_Write_Text@text
  2347     06C6  3088               	movlw	high (STR_5| (0+32768))
  2348     06C7  00F2               	movwf	EUSART_Write_Text@text+1
  2349     06C8  3181  219E  3186   	fcall	_EUSART_Write_Text
  2350     06CB                     l2129:
  2351                           
  2352                           ;main.c: 106:     EUSART_Write_Text("  24AA512 EEPROM I2C DEMO\n");
  2353     06CB  3027               	movlw	low (STR_6| (0+32768))
  2354     06CC  00F1               	movwf	EUSART_Write_Text@text
  2355     06CD  3088               	movlw	high (STR_6| (0+32768))
  2356     06CE  00F2               	movwf	EUSART_Write_Text@text+1
  2357     06CF  3181  219E  3186   	fcall	_EUSART_Write_Text
  2358     06D2                     l2131:
  2359                           
  2360                           ;main.c: 107:     EUSART_Write_Text("====================================\n");
  2361     06D2  3001               	movlw	low ((STR_5+1)| (0+32768))
  2362     06D3  00F1               	movwf	EUSART_Write_Text@text
  2363     06D4  3088               	movlw	high ((STR_5+1)| (0+32768))
  2364     06D5  00F2               	movwf	EUSART_Write_Text@text+1
  2365     06D6  3181  219E  3186   	fcall	_EUSART_Write_Text
  2366     06D9                     l2133:
  2367                           
  2368                           ;main.c: 109:     uint16_t address = 0x0000;
  2369     06D9  0020               	movlb	0	; select bank0
  2370     06DA  01CA               	clrf	main@address
  2371     06DB  01CB               	clrf	main@address+1
  2372     06DC                     l2135:
  2373                           
  2374                           ;main.c: 110:     uint8_t writeVal = 10;
  2375     06DC  300A               	movlw	10
  2376     06DD  00C8               	movwf	main@writeVal
  2377     06DE                     l2137:
  2378                           
  2379                           ;main.c: 111:     uint8_t readVal = 0;
  2380     06DE  01C9               	clrf	main@readVal
  2381     06DF                     l2139:
  2382                           
  2383                           ;main.c: 114:     {;main.c: 115:         I2C_Status_t st;;main.c: 118:         EUSART_Wr
      +                          ite_Text("\nWRITE CYCLE\n");
  2384     06DF  307C               	movlw	low (STR_8| (0+32768))
  2385     06E0  00F1               	movwf	EUSART_Write_Text@text
  2386     06E1  3088               	movlw	high (STR_8| (0+32768))
  2387     06E2  00F2               	movwf	EUSART_Write_Text@text+1
  2388     06E3  3181  219E  3186   	fcall	_EUSART_Write_Text
  2389     06E6                     l2141:
  2390                           
  2391                           ;main.c: 119:         EUSART_Write_Text("Addr: ");
  2392     06E6  30F4               	movlw	low (STR_9| (0+32768))
  2393     06E7  00F1               	movwf	EUSART_Write_Text@text
  2394     06E8  3088               	movlw	high (STR_9| (0+32768))
  2395     06E9  00F2               	movwf	EUSART_Write_Text@text+1
  2396     06EA  3181  219E  3186   	fcall	_EUSART_Write_Text
  2397     06ED                     l2143:
  2398                           
  2399                           ;main.c: 120:         EUSART_Write_Integer(address);
  2400     06ED  0020               	movlb	0	; select bank0
  2401     06EE  084B               	movf	main@address+1,w
  2402     06EF  00FC               	movwf	EUSART_Write_Integer@value_to_send+1
  2403     06F0  084A               	movf	main@address,w
  2404     06F1  00FB               	movwf	EUSART_Write_Integer@value_to_send
  2405     06F2  3182  223F  3186   	fcall	_EUSART_Write_Integer
  2406     06F5                     l2145:
  2407                           
  2408                           ;main.c: 121:         EUSART_Write_Text("  Data: ");
  2409     06F5  30DB               	movlw	low (STR_10| (0+32768))
  2410     06F6  00F1               	movwf	EUSART_Write_Text@text
  2411     06F7  3088               	movlw	high (STR_10| (0+32768))
  2412     06F8  00F2               	movwf	EUSART_Write_Text@text+1
  2413     06F9  3181  219E  3186   	fcall	_EUSART_Write_Text
  2414     06FC                     l2147:
  2415                           
  2416                           ;main.c: 122:         EUSART_Write_Integer(writeVal);
  2417     06FC  0020               	movlb	0	; select bank0
  2418     06FD  0848               	movf	main@writeVal,w
  2419     06FE  00C2               	movwf	??_main
  2420     06FF  01C3               	clrf	??_main+1
  2421     0700  0842               	movf	??_main,w
  2422     0701  00FB               	movwf	EUSART_Write_Integer@value_to_send
  2423     0702  0843               	movf	??_main+1,w
  2424     0703  00FC               	movwf	EUSART_Write_Integer@value_to_send+1
  2425     0704  3182  223F  3186   	fcall	_EUSART_Write_Integer
  2426     0707                     l2149:
  2427                           
  2428                           ;main.c: 123:         EUSART_Write_Text("\n");
  2429     0707  3058               	movlw	low ((STR_1+22)| (0+32768))
  2430     0708  00F1               	movwf	EUSART_Write_Text@text
  2431     0709  3088               	movlw	high ((STR_1+22)| (0+32768))
  2432     070A  00F2               	movwf	EUSART_Write_Text@text+1
  2433     070B  3181  219E  3186   	fcall	_EUSART_Write_Text
  2434     070E                     l2151:
  2435                           
  2436                           ;main.c: 125:         st = EEPROM24AA512_WriteByte(address, writeVal);
  2437     070E  0020               	movlb	0	; select bank0
  2438     070F  084B               	movf	main@address+1,w
  2439     0710  00FA               	movwf	EEPROM24AA512_WriteByte@addr+1
  2440     0711  084A               	movf	main@address,w
  2441     0712  00F9               	movwf	EEPROM24AA512_WriteByte@addr
  2442     0713  0848               	movf	main@writeVal,w
  2443     0714  00FB               	movwf	EEPROM24AA512_WriteByte@data
  2444     0715  3183  234B  3186   	fcall	_EEPROM24AA512_WriteByte
  2445     0718  0020               	movlb	0	; select bank0
  2446     0719  00CC               	movwf	main@st
  2447     071A                     l2153:
  2448                           
  2449                           ;main.c: 127:         EUSART_Write_Text("Write Status: ");
  2450     071A  306D               	movlw	low (STR_12| (0+32768))
  2451     071B  00F1               	movwf	EUSART_Write_Text@text
  2452     071C  3088               	movlw	high (STR_12| (0+32768))
  2453     071D  00F2               	movwf	EUSART_Write_Text@text+1
  2454     071E  3181  219E  3186   	fcall	_EUSART_Write_Text
  2455     0721                     l2155:
  2456                           
  2457                           ;main.c: 128:         EUSART_Write_Integer(st);
  2458     0721  0020               	movlb	0	; select bank0
  2459     0722  084C               	movf	main@st,w
  2460     0723  00C2               	movwf	??_main
  2461     0724  01C3               	clrf	??_main+1
  2462     0725  0842               	movf	??_main,w
  2463     0726  00FB               	movwf	EUSART_Write_Integer@value_to_send
  2464     0727  0843               	movf	??_main+1,w
  2465     0728  00FC               	movwf	EUSART_Write_Integer@value_to_send+1
  2466     0729  3182  223F  3186   	fcall	_EUSART_Write_Integer
  2467     072C                     l2157:
  2468                           
  2469                           ;main.c: 129:         EUSART_Write_Text(st == I2C_OK ? " (OK)\n" : " (FAIL)\n");
  2470     072C  0020               	movlb	0	; select bank0
  2471     072D  084C               	movf	main@st,w
  2472     072E  1903               	btfsc	3,2
  2473     072F  2F31               	goto	u1901
  2474     0730  2F32               	goto	u1900
  2475     0731                     u1901:
  2476     0731  2F37               	goto	l2161
  2477     0732                     u1900:
  2478     0732                     l2159:
  2479     0732  30C9               	movlw	low (STR_14| (0+32768))
  2480     0733  00C4               	movwf	_main$493
  2481     0734  3088               	movlw	high (STR_14| (0+32768))
  2482     0735  00C5               	movwf	_main$493+1
  2483     0736  2F3B               	goto	l2163
  2484     0737                     l2161:
  2485     0737  30ED               	movlw	low (STR_13| (0+32768))
  2486     0738  00C4               	movwf	_main$493
  2487     0739  3088               	movlw	high (STR_13| (0+32768))
  2488     073A  00C5               	movwf	_main$493+1
  2489     073B                     l2163:
  2490     073B  0845               	movf	_main$493+1,w
  2491     073C  00F2               	movwf	EUSART_Write_Text@text+1
  2492     073D  0844               	movf	_main$493,w
  2493     073E  00F1               	movwf	EUSART_Write_Text@text
  2494     073F  3181  219E  3186   	fcall	_EUSART_Write_Text
  2495     0742                     l2165:
  2496                           
  2497                           ;main.c: 132:         EUSART_Write_Text("\nREAD CYCLE\n");
  2498     0742  30A6               	movlw	low (STR_15| (0+32768))
  2499     0743  00F1               	movwf	EUSART_Write_Text@text
  2500     0744  3088               	movlw	high (STR_15| (0+32768))
  2501     0745  00F2               	movwf	EUSART_Write_Text@text+1
  2502     0746  3181  219E  3186   	fcall	_EUSART_Write_Text
  2503     0749                     l2167:
  2504                           
  2505                           ;main.c: 133:         EUSART_Write_Text("Addr: ");
  2506     0749  30F4               	movlw	low (STR_9| (0+32768))
  2507     074A  00F1               	movwf	EUSART_Write_Text@text
  2508     074B  3088               	movlw	high (STR_9| (0+32768))
  2509     074C  00F2               	movwf	EUSART_Write_Text@text+1
  2510     074D  3181  219E  3186   	fcall	_EUSART_Write_Text
  2511     0750                     l2169:
  2512                           
  2513                           ;main.c: 134:         EUSART_Write_Integer(address);
  2514     0750  0020               	movlb	0	; select bank0
  2515     0751  084B               	movf	main@address+1,w
  2516     0752  00FC               	movwf	EUSART_Write_Integer@value_to_send+1
  2517     0753  084A               	movf	main@address,w
  2518     0754  00FB               	movwf	EUSART_Write_Integer@value_to_send
  2519     0755  3182  223F  3186   	fcall	_EUSART_Write_Integer
  2520     0758                     l2171:
  2521                           
  2522                           ;main.c: 135:         EUSART_Write_Text("\n");
  2523     0758  3058               	movlw	low ((STR_1+22)| (0+32768))
  2524     0759  00F1               	movwf	EUSART_Write_Text@text
  2525     075A  3088               	movlw	high ((STR_1+22)| (0+32768))
  2526     075B  00F2               	movwf	EUSART_Write_Text@text+1
  2527     075C  3181  219E  3186   	fcall	_EUSART_Write_Text
  2528     075F                     l2173:
  2529                           
  2530                           ;main.c: 137:         st = EEPROM24AA512_ReadByte(address, &readVal);
  2531     075F  0020               	movlb	0	; select bank0
  2532     0760  084B               	movf	main@address+1,w
  2533     0761  00F7               	movwf	EEPROM24AA512_ReadByte@addr+1
  2534     0762  084A               	movf	main@address,w
  2535     0763  00F6               	movwf	EEPROM24AA512_ReadByte@addr
  2536     0764  3049               	movlw	(low (main@readVal| 0))& (0+255)
  2537     0765  00F8               	movwf	EEPROM24AA512_ReadByte@data
  2538     0766  3184  24CE  3186   	fcall	_EEPROM24AA512_ReadByte
  2539     0769  0020               	movlb	0	; select bank0
  2540     076A  00CC               	movwf	main@st
  2541     076B                     l2175:
  2542                           
  2543                           ;main.c: 139:         EUSART_Write_Text("Read Status: ");
  2544     076B  3098               	movlw	low (STR_18| (0+32768))
  2545     076C  00F1               	movwf	EUSART_Write_Text@text
  2546     076D  3088               	movlw	high (STR_18| (0+32768))
  2547     076E  00F2               	movwf	EUSART_Write_Text@text+1
  2548     076F  3181  219E  3186   	fcall	_EUSART_Write_Text
  2549     0772                     l2177:
  2550                           
  2551                           ;main.c: 140:         EUSART_Write_Integer(st);
  2552     0772  0020               	movlb	0	; select bank0
  2553     0773  084C               	movf	main@st,w
  2554     0774  00C2               	movwf	??_main
  2555     0775  01C3               	clrf	??_main+1
  2556     0776  0842               	movf	??_main,w
  2557     0777  00FB               	movwf	EUSART_Write_Integer@value_to_send
  2558     0778  0843               	movf	??_main+1,w
  2559     0779  00FC               	movwf	EUSART_Write_Integer@value_to_send+1
  2560     077A  3182  223F  3186   	fcall	_EUSART_Write_Integer
  2561     077D                     l2179:
  2562                           
  2563                           ;main.c: 141:         EUSART_Write_Text(st == I2C_OK ? " (OK)\n" : " (FAIL)\n");
  2564     077D  0020               	movlb	0	; select bank0
  2565     077E  084C               	movf	main@st,w
  2566     077F  1903               	btfsc	3,2
  2567     0780  2F82               	goto	u1911
  2568     0781  2F83               	goto	u1910
  2569     0782                     u1911:
  2570     0782  2F88               	goto	l2183
  2571     0783                     u1910:
  2572     0783                     l2181:
  2573     0783  30C9               	movlw	low (STR_14| (0+32768))
  2574     0784  00C6               	movwf	_main$501
  2575     0785  3088               	movlw	high (STR_14| (0+32768))
  2576     0786  00C7               	movwf	_main$501+1
  2577     0787  2F8C               	goto	l2185
  2578     0788                     l2183:
  2579     0788  30ED               	movlw	low (STR_13| (0+32768))
  2580     0789  00C6               	movwf	_main$501
  2581     078A  3088               	movlw	high (STR_13| (0+32768))
  2582     078B  00C7               	movwf	_main$501+1
  2583     078C                     l2185:
  2584     078C  0847               	movf	_main$501+1,w
  2585     078D  00F2               	movwf	EUSART_Write_Text@text+1
  2586     078E  0846               	movf	_main$501,w
  2587     078F  00F1               	movwf	EUSART_Write_Text@text
  2588     0790  3181  219E  3186   	fcall	_EUSART_Write_Text
  2589     0793                     l2187:
  2590                           
  2591                           ;main.c: 143:         if (st == I2C_OK)
  2592     0793  0020               	movlb	0	; select bank0
  2593     0794  084C               	movf	main@st,w
  2594     0795  1D03               	btfss	3,2
  2595     0796  2F98               	goto	u1921
  2596     0797  2F99               	goto	u1920
  2597     0798                     u1921:
  2598     0798  2FB2               	goto	l2195
  2599     0799                     u1920:
  2600     0799                     l2189:
  2601                           
  2602                           ;main.c: 144:         {;main.c: 145:             EUSART_Write_Text("Read Data: ");
  2603     0799  30B3               	movlw	low (STR_21| (0+32768))
  2604     079A  00F1               	movwf	EUSART_Write_Text@text
  2605     079B  3088               	movlw	high (STR_21| (0+32768))
  2606     079C  00F2               	movwf	EUSART_Write_Text@text+1
  2607     079D  3181  219E  3186   	fcall	_EUSART_Write_Text
  2608     07A0                     l2191:
  2609                           
  2610                           ;main.c: 146:             EUSART_Write_Integer(readVal);
  2611     07A0  0020               	movlb	0	; select bank0
  2612     07A1  0849               	movf	main@readVal,w
  2613     07A2  00C2               	movwf	??_main
  2614     07A3  01C3               	clrf	??_main+1
  2615     07A4  0842               	movf	??_main,w
  2616     07A5  00FB               	movwf	EUSART_Write_Integer@value_to_send
  2617     07A6  0843               	movf	??_main+1,w
  2618     07A7  00FC               	movwf	EUSART_Write_Integer@value_to_send+1
  2619     07A8  3182  223F  3186   	fcall	_EUSART_Write_Integer
  2620     07AB                     l2193:
  2621                           
  2622                           ;main.c: 147:             EUSART_Write_Text("\n");
  2623     07AB  3058               	movlw	low ((STR_1+22)| (0+32768))
  2624     07AC  00F1               	movwf	EUSART_Write_Text@text
  2625     07AD  3088               	movlw	high ((STR_1+22)| (0+32768))
  2626     07AE  00F2               	movwf	EUSART_Write_Text@text+1
  2627     07AF  3181  219E  3186   	fcall	_EUSART_Write_Text
  2628     07B2                     l2195:
  2629                           
  2630                           ;main.c: 151:         EUSART_Write_Text("\nRESULT\n");
  2631     07B2  30D2               	movlw	low (STR_23| (0+32768))
  2632     07B3  00F1               	movwf	EUSART_Write_Text@text
  2633     07B4  3088               	movlw	high (STR_23| (0+32768))
  2634     07B5  00F2               	movwf	EUSART_Write_Text@text+1
  2635     07B6  3181  219E  3186   	fcall	_EUSART_Write_Text
  2636     07B9                     l2197:
  2637                           
  2638                           ;main.c: 152:         EUSART_Write_Text("Written: ");
  2639     07B9  30BF               	movlw	low (STR_24| (0+32768))
  2640     07BA  00F1               	movwf	EUSART_Write_Text@text
  2641     07BB  3088               	movlw	high (STR_24| (0+32768))
  2642     07BC  00F2               	movwf	EUSART_Write_Text@text+1
  2643     07BD  3181  219E  3186   	fcall	_EUSART_Write_Text
  2644                           
  2645                           ;main.c: 153:         EUSART_Write_Integer(writeVal);
  2646     07C0  0020               	movlb	0	; select bank0
  2647     07C1  0848               	movf	main@writeVal,w
  2648     07C2  00C2               	movwf	??_main
  2649     07C3  01C3               	clrf	??_main+1
  2650     07C4  0842               	movf	??_main,w
  2651     07C5  00FB               	movwf	EUSART_Write_Integer@value_to_send
  2652     07C6  0843               	movf	??_main+1,w
  2653     07C7  00FC               	movwf	EUSART_Write_Integer@value_to_send+1
  2654     07C8  3182  223F  3186   	fcall	_EUSART_Write_Integer
  2655     07CB                     l2199:
  2656                           
  2657                           ;main.c: 154:         EUSART_Write_Text("  Read: ");
  2658     07CB  30E4               	movlw	low (STR_25| (0+32768))
  2659     07CC  00F1               	movwf	EUSART_Write_Text@text
  2660     07CD  3088               	movlw	high (STR_25| (0+32768))
  2661     07CE  00F2               	movwf	EUSART_Write_Text@text+1
  2662     07CF  3181  219E  3186   	fcall	_EUSART_Write_Text
  2663     07D2                     l2201:
  2664                           
  2665                           ;main.c: 155:         EUSART_Write_Integer(readVal);
  2666     07D2  0020               	movlb	0	; select bank0
  2667     07D3  0849               	movf	main@readVal,w
  2668     07D4  00C2               	movwf	??_main
  2669     07D5  01C3               	clrf	??_main+1
  2670     07D6  0842               	movf	??_main,w
  2671     07D7  00FB               	movwf	EUSART_Write_Integer@value_to_send
  2672     07D8  0843               	movf	??_main+1,w
  2673     07D9  00FC               	movwf	EUSART_Write_Integer@value_to_send+1
  2674     07DA  3182  223F  3186   	fcall	_EUSART_Write_Integer
  2675                           
  2676                           ;main.c: 156:         EUSART_Write_Text("\n");
  2677     07DD  3058               	movlw	low ((STR_1+22)| (0+32768))
  2678     07DE  00F1               	movwf	EUSART_Write_Text@text
  2679     07DF  3088               	movlw	high ((STR_1+22)| (0+32768))
  2680     07E0  00F2               	movwf	EUSART_Write_Text@text+1
  2681     07E1  3181  219E  3186   	fcall	_EUSART_Write_Text
  2682     07E4                     l2203:
  2683                           
  2684                           ;main.c: 159:         writeVal += 3;
  2685     07E4  3003               	movlw	3
  2686     07E5  0020               	movlb	0	; select bank0
  2687     07E6  00C2               	movwf	??_main
  2688     07E7  0842               	movf	??_main,w
  2689     07E8  07C8               	addwf	main@writeVal,f
  2690     07E9                     l2205:
  2691                           
  2692                           ;main.c: 160:         address++;
  2693     07E9  3001               	movlw	1
  2694     07EA  07CA               	addwf	main@address,f
  2695     07EB  3000               	movlw	0
  2696     07EC  3DCB               	addwfc	main@address+1,f
  2697     07ED                     l2207:
  2698                           
  2699                           ;main.c: 162:         _delay((unsigned long)((3000)*(32000000/4000.0)));
  2700     07ED  307A               	movlw	122
  2701     07EE  0020               	movlb	0	; select bank0
  2702     07EF  00C3               	movwf	??_main+1
  2703     07F0  30C1               	movlw	193
  2704     07F1  00C2               	movwf	??_main
  2705     07F2  3081               	movlw	129
  2706     07F3                     u2167:
  2707     07F3  0B89               	decfsz	9,f
  2708     07F4  2FF3               	goto	u2167
  2709     07F5  0BC2               	decfsz	??_main,f
  2710     07F6  2FF3               	goto	u2167
  2711     07F7  0BC3               	decfsz	??_main+1,f
  2712     07F8  2FF3               	goto	u2167
  2713     07F9  3200               	nop2
  2714     07FA  2EDF               	goto	l2139
  2715     07FB  3180  2802         	ljmp	start
  2716     07FD                     __end_of_main:
  2717                           
  2718                           	psect	text1
  2719     030D                     __ptext1:	
  2720 ;; *************** function _initMain *****************
  2721 ;; Defined at:
  2722 ;;		line 62 in file "main.c"
  2723 ;; Parameters:    Size  Location     Type
  2724 ;;		None
  2725 ;; Auto vars:     Size  Location     Type
  2726 ;;		None
  2727 ;; Return value:  Size  Location     Type
  2728 ;;                  1    wreg      void 
  2729 ;; Registers used:
  2730 ;;		wreg, status,2, status,0, pclath, cstack
  2731 ;; Tracked objects:
  2732 ;;		On entry : 0/0
  2733 ;;		On exit  : 0/0
  2734 ;;		Unchanged: 0/0
  2735 ;; Data sizes:     COMMON   BANK0   BANK1   BANK2   BANK3   BANK4   BANK5   BANK6   BANK7   BANK8   BANK9  BANK10  BANK1
      +1  BANK12  BANK13  BANK14  BANK15  BANK16  BANK17  BANK18  BANK19  BANK20  BANK21  BANK22  BANK23  BANK24  BANK25
  2736 ;;      Params:         0       0       0       0       0       0       0       0       0       0       0       0       
      +0       0       0       0       0       0       0       0       0       0       0       0       0       0       0
  2737 ;;      Locals:         0       0       0       0       0       0       0       0       0       0       0       0       
      +0       0       0       0       0       0       0       0       0       0       0       0       0       0       0
  2738 ;;      Temps:          1       0       0       0       0       0       0       0       0       0       0       0       
      +0       0       0       0       0       0       0       0       0       0       0       0       0       0       0
  2739 ;;      Totals:         1       0       0       0       0       0       0       0       0       0       0       0       
      +0       0       0       0       0       0       0       0       0       0       0       0       0       0       0
  2740 ;;Total ram usage:        1 bytes
  2741 ;; Hardware stack levels used: 1
  2742 ;; Hardware stack levels required when called: 1
  2743 ;; This function calls:
  2744 ;;		_internal_32
  2745 ;; This function is called by:
  2746 ;;		_main
  2747 ;; This function uses a non-reentrant model
  2748 ;;
  2749                           
  2750     030D                     _initMain:	
  2751                           ;psect for function _initMain
  2752                           
  2753     030D                     l1991:	
  2754                           ;incstack = 0
  2755                           ; Regs used in _initMain: [wreg+status,2+status,0+pclath+cstack]
  2756                           
  2757                           
  2758                           ;main.c: 65:     internal_32();
  2759     030D  3181  216D  3183   	fcall	_internal_32
  2760     0310                     l1993:
  2761                           
  2762                           ;main.c: 66:     _delay((unsigned long)((10)*(32000000/4000.0)));
  2763     0310  3068               	movlw	104
  2764     0311  00F0               	movwf	??_initMain
  2765     0312  30E4               	movlw	228
  2766     0313                     u2177:
  2767     0313  0B89               	decfsz	9,f
  2768     0314  2B13               	goto	u2177
  2769     0315  0BF0               	decfsz	??_initMain,f
  2770     0316  2B13               	goto	u2177
  2771     0317  3200               	nop2
  2772     0318                     l1995:
  2773                           
  2774                           ;main.c: 69:     TRISBbits.TRISB2 = 0;
  2775     0318  0021               	movlb	1	; select bank1
  2776     0319  110D               	bcf	13,2	;volatile
  2777     031A                     l1997:
  2778                           
  2779                           ;main.c: 70:     ANSELBbits.ANSB2 = 0;
  2780     031A  0023               	movlb	3	; select bank3
  2781     031B  110D               	bcf	13,2	;volatile
  2782     031C                     l1999:
  2783                           
  2784                           ;main.c: 73:     ANSELCbits.ANSC4 = 0;
  2785     031C  120E               	bcf	14,4	;volatile
  2786     031D                     l2001:
  2787                           
  2788                           ;main.c: 74:     ANSELCbits.ANSC5 = 0;
  2789     031D  128E               	bcf	14,5	;volatile
  2790     031E                     l2003:
  2791                           
  2792                           ;main.c: 75:     TRISCbits.TRISC4 = 1;
  2793     031E  0021               	movlb	1	; select bank1
  2794     031F  160E               	bsf	14,4	;volatile
  2795     0320                     l2005:
  2796                           
  2797                           ;main.c: 76:     TRISCbits.TRISC5 = 1;
  2798     0320  168E               	bsf	14,5	;volatile
  2799     0321                     l2007:
  2800                           
  2801                           ;main.c: 79:     PPSLOCK = 0x55; PPSLOCK = 0xAA; PPSLOCKbits.PPSLOCKED = 0;
  2802     0321  3055               	movlw	85
  2803     0322  003C               	movlb	28	; select bank28
  2804     0323  008F               	movwf	15	;volsfr
  2805     0324                     l2009:
  2806     0324  30AA               	movlw	170
  2807     0325  008F               	movwf	15	;volsfr
  2808     0326                     l2011:
  2809     0326  100F               	bcf	15,0	;volsfr
  2810     0327                     l2013:
  2811                           
  2812                           ;main.c: 81:     RB2PPSbits.RB2PPS = 0x14;
  2813     0327  003D               	movlb	29	; select bank29
  2814     0328  081A               	movf	26,w	;volatile
  2815     0329  39E0               	andlw	-32
  2816     032A  3814               	iorlw	20
  2817     032B  009A               	movwf	26	;volatile
  2818     032C                     l2015:
  2819                           
  2820                           ;main.c: 82:     RXPPSbits.RXPPS = 0x0B;
  2821     032C  003C               	movlb	28	; select bank28
  2822     032D  0824               	movf	36,w	;volatile
  2823     032E  39E0               	andlw	-32
  2824     032F  380B               	iorlw	11
  2825     0330  00A4               	movwf	36	;volatile
  2826     0331                     l2017:
  2827                           
  2828                           ;main.c: 84:     RC4PPSbits.RC4PPS = 0x11;
  2829     0331  003D               	movlb	29	; select bank29
  2830     0332  0824               	movf	36,w	;volatile
  2831     0333  39E0               	andlw	-32
  2832     0334  3811               	iorlw	17
  2833     0335  00A4               	movwf	36	;volatile
  2834     0336                     l2019:
  2835                           
  2836                           ;main.c: 85:     SSPDATPPSbits.SSPDATPPS = 0x14;
  2837     0336  003C               	movlb	28	; select bank28
  2838     0337  0821               	movf	33,w	;volatile
  2839     0338  39E0               	andlw	-32
  2840     0339  3814               	iorlw	20
  2841     033A  00A1               	movwf	33	;volatile
  2842     033B                     l2021:
  2843                           
  2844                           ;main.c: 87:     SSPCLKPPSbits.SSPCLKPPS = 0x15;
  2845     033B  0820               	movf	32,w	;volatile
  2846     033C  39E0               	andlw	-32
  2847     033D  3815               	iorlw	21
  2848     033E  00A0               	movwf	32	;volatile
  2849     033F                     l2023:
  2850                           
  2851                           ;main.c: 88:     RC5PPSbits.RC5PPS = 0x10;
  2852     033F  003D               	movlb	29	; select bank29
  2853     0340  0825               	movf	37,w	;volatile
  2854     0341  39E0               	andlw	-32
  2855     0342  3810               	iorlw	16
  2856     0343  00A5               	movwf	37	;volatile
  2857     0344                     l2025:
  2858                           
  2859                           ;main.c: 90:     PPSLOCK = 0x55; PPSLOCK = 0xAA; PPSLOCKbits.PPSLOCKED = 1;
  2860     0344  3055               	movlw	85
  2861     0345  003C               	movlb	28	; select bank28
  2862     0346  008F               	movwf	15	;volsfr
  2863     0347                     l2027:
  2864     0347  30AA               	movlw	170
  2865     0348  008F               	movwf	15	;volsfr
  2866     0349                     l2029:
  2867     0349  140F               	bsf	15,0	;volsfr
  2868     034A                     l161:
  2869     034A  0008               	return
  2870     034B                     __end_of_initMain:
  2871                           
  2872                           	psect	text2
  2873     016D                     __ptext2:	
  2874 ;; *************** function _internal_32 *****************
  2875 ;; Defined at:
  2876 ;;		line 36 in file "PIC16F1718_Internal.c"
  2877 ;; Parameters:    Size  Location     Type
  2878 ;;		None
  2879 ;; Auto vars:     Size  Location     Type
  2880 ;;		None
  2881 ;; Return value:  Size  Location     Type
  2882 ;;                  1    wreg      void 
  2883 ;; Registers used:
  2884 ;;		None
  2885 ;; Tracked objects:
  2886 ;;		On entry : 0/0
  2887 ;;		On exit  : 0/0
  2888 ;;		Unchanged: 0/0
  2889 ;; Data sizes:     COMMON   BANK0   BANK1   BANK2   BANK3   BANK4   BANK5   BANK6   BANK7   BANK8   BANK9  BANK10  BANK1
      +1  BANK12  BANK13  BANK14  BANK15  BANK16  BANK17  BANK18  BANK19  BANK20  BANK21  BANK22  BANK23  BANK24  BANK25
  2890 ;;      Params:         0       0       0       0       0       0       0       0       0       0       0       0       
      +0       0       0       0       0       0       0       0       0       0       0       0       0       0       0
  2891 ;;      Locals:         0       0       0       0       0       0       0       0       0       0       0       0       
      +0       0       0       0       0       0       0       0       0       0       0       0       0       0       0
  2892 ;;      Temps:          0       0       0       0       0       0       0       0       0       0       0       0       
      +0       0       0       0       0       0       0       0       0       0       0       0       0       0       0
  2893 ;;      Totals:         0       0       0       0       0       0       0       0       0       0       0       0       
      +0       0       0       0       0       0       0       0       0       0       0       0       0       0       0
  2894 ;;Total ram usage:        0 bytes
  2895 ;; Hardware stack levels used: 1
  2896 ;; This function calls:
  2897 ;;		Nothing
  2898 ;; This function is called by:
  2899 ;;		_initMain
  2900 ;; This function uses a non-reentrant model
  2901 ;;
  2902                           
  2903     016D                     _internal_32:	
  2904                           ;psect for function _internal_32
  2905                           
  2906     016D                     l1803:	
  2907                           ;incstack = 0
  2908                           ; Regs used in _internal_32: []
  2909                           
  2910                           
  2911                           ;PIC16F1718_Internal.c: 38:     SCS0 = 0;
  2912     016D  0021               	movlb	1	; select bank1
  2913     016E  1019               	bcf	25,0	;volatile
  2914                           
  2915                           ;PIC16F1718_Internal.c: 39:     SCS1 = 0;
  2916     016F  1099               	bcf	25,1	;volatile
  2917                           
  2918                           ;PIC16F1718_Internal.c: 42:     IRCF0 = 0;
  2919     0170  1199               	bcf	25,3	;volatile
  2920                           
  2921                           ;PIC16F1718_Internal.c: 43:     IRCF1 = 1;
  2922     0171  1619               	bsf	25,4	;volatile
  2923                           
  2924                           ;PIC16F1718_Internal.c: 44:     IRCF2 = 1;
  2925     0172  1699               	bsf	25,5	;volatile
  2926                           
  2927                           ;PIC16F1718_Internal.c: 45:     IRCF3 = 1;
  2928     0173  1719               	bsf	25,6	;volatile
  2929                           
  2930                           ;PIC16F1718_Internal.c: 48:     SPLLEN = 1;
  2931     0174  1799               	bsf	25,7	;volatile
  2932     0175                     l17:
  2933     0175  0008               	return
  2934     0176                     __end_of_internal_32:
  2935                           
  2936                           	psect	text3
  2937     0429                     __ptext3:	
  2938 ;; *************** function _I2C_ScanBus *****************
  2939 ;; Defined at:
  2940 ;;		line 28 in file "main.c"
  2941 ;; Parameters:    Size  Location     Type
  2942 ;;		None
  2943 ;; Auto vars:     Size  Location     Type
  2944 ;;  st              1   32[BANK0 ] enum E6055
  2945 ;;  ctrlW           1   31[BANK0 ] unsigned char 
  2946 ;;  addr7           1   33[BANK0 ] unsigned char 
  2947 ;; Return value:  Size  Location     Type
  2948 ;;                  1    wreg      void 
  2949 ;; Registers used:
  2950 ;;		wreg, fsr0l, fsr0h, fsr1l, fsr1h, status,2, status,0, pclath, cstack
  2951 ;; Tracked objects:
  2952 ;;		On entry : 0/0
  2953 ;;		On exit  : 0/0
  2954 ;;		Unchanged: 0/0
  2955 ;; Data sizes:     COMMON   BANK0   BANK1   BANK2   BANK3   BANK4   BANK5   BANK6   BANK7   BANK8   BANK9  BANK10  BANK1
      +1  BANK12  BANK13  BANK14  BANK15  BANK16  BANK17  BANK18  BANK19  BANK20  BANK21  BANK22  BANK23  BANK24  BANK25
  2956 ;;      Params:         0       0       0       0       0       0       0       0       0       0       0       0       
      +0       0       0       0       0       0       0       0       0       0       0       0       0       0       0
  2957 ;;      Locals:         0       3       0       0       0       0       0       0       0       0       0       0       
      +0       0       0       0       0       0       0       0       0       0       0       0       0       0       0
  2958 ;;      Temps:          0       2       0       0       0       0       0       0       0       0       0       0       
      +0       0       0       0       0       0       0       0       0       0       0       0       0       0       0
  2959 ;;      Totals:         0       5       0       0       0       0       0       0       0       0       0       0       
      +0       0       0       0       0       0       0       0       0       0       0       0       0       0       0
  2960 ;;Total ram usage:        5 bytes
  2961 ;; Hardware stack levels used: 1
  2962 ;; Hardware stack levels required when called: 3
  2963 ;; This function calls:
  2964 ;;		_EUSART_Write_Integer
  2965 ;;		_EUSART_Write_Text
  2966 ;;		_I2C_Start
  2967 ;;		_I2C_Stop
  2968 ;;		_I2C_WriteByte
  2969 ;; This function is called by:
  2970 ;;		_main
  2971 ;; This function uses a non-reentrant model
  2972 ;;
  2973                           
  2974     0429                     _I2C_ScanBus:	
  2975                           ;psect for function _I2C_ScanBus
  2976                           
  2977     0429                     l1959:	
  2978                           ;incstack = 0
  2979                           ; Regs used in _I2C_ScanBus: [wreg-fsr1h+status,2+status,0+pclath+cstack]
  2980                           
  2981                           
  2982                           ;main.c: 30:     EUSART_Write_Text("\nI2C SCAN (0x08..0x77)\n");
  2983     0429  3042               	movlw	low (STR_1| (0+32768))
  2984     042A  00F1               	movwf	EUSART_Write_Text@text
  2985     042B  3088               	movlw	high (STR_1| (0+32768))
  2986     042C  00F2               	movwf	EUSART_Write_Text@text+1
  2987     042D  3181  219E  3184   	fcall	_EUSART_Write_Text
  2988     0430                     l1961:
  2989                           
  2990                           ;main.c: 32:     for (uint8_t addr7 = 0x08; addr7 <= 0x77; addr7++)
  2991     0430  3008               	movlw	8
  2992     0431  0020               	movlb	0	; select bank0
  2993     0432  00C1               	movwf	I2C_ScanBus@addr7
  2994     0433                     l1967:
  2995                           
  2996                           ;main.c: 33:     {;main.c: 34:         uint8_t ctrlW = (uint8_t)((addr7 << 1) | 0);
  2997     0433  3541               	lslf	I2C_ScanBus@addr7,w
  2998     0434  00BF               	movwf	I2C_ScanBus@ctrlW
  2999     0435                     l1969:
  3000                           
  3001                           ;main.c: 36:         I2C_Status_t st = I2C_Start();
  3002     0435  3182  2288  3184   	fcall	_I2C_Start
  3003     0438  0020               	movlb	0	; select bank0
  3004     0439  00C0               	movwf	I2C_ScanBus@st
  3005     043A                     l1971:
  3006                           
  3007                           ;main.c: 37:         if (st != I2C_OK)
  3008     043A  0840               	movf	I2C_ScanBus@st,w
  3009     043B  1903               	btfsc	3,2
  3010     043C  2C3E               	goto	u1731
  3011     043D  2C3F               	goto	u1730
  3012     043E                     u1731:
  3013     043E  2C47               	goto	l1977
  3014     043F                     u1730:
  3015     043F                     l1973:
  3016                           
  3017                           ;main.c: 38:         {;main.c: 39:             EUSART_Write_Text("Start failed\n");
  3018     043F  308A               	movlw	low (STR_2| (0+32768))
  3019     0440  00F1               	movwf	EUSART_Write_Text@text
  3020     0441  3088               	movlw	high (STR_2| (0+32768))
  3021     0442  00F2               	movwf	EUSART_Write_Text@text+1
  3022     0443  3181  219E  3184   	fcall	_EUSART_Write_Text
  3023     0446  2C7A               	goto	l157
  3024     0447                     l1977:
  3025                           
  3026                           ;main.c: 43:         st = I2C_WriteByte(ctrlW);
  3027     0447  083F               	movf	I2C_ScanBus@ctrlW,w
  3028     0448  3182  22DB  3184   	fcall	_I2C_WriteByte
  3029     044B  0020               	movlb	0	; select bank0
  3030     044C  00C0               	movwf	I2C_ScanBus@st
  3031                           
  3032                           ;main.c: 44:         I2C_Stop();
  3033     044D  3181  21F8  3184   	fcall	_I2C_Stop
  3034     0450                     l1979:
  3035                           
  3036                           ;main.c: 46:         if (st == I2C_OK)
  3037     0450  0020               	movlb	0	; select bank0
  3038     0451  0840               	movf	I2C_ScanBus@st,w
  3039     0452  1D03               	btfss	3,2
  3040     0453  2C55               	goto	u1741
  3041     0454  2C56               	goto	u1740
  3042     0455                     u1741:
  3043     0455  2C6F               	goto	l1987
  3044     0456                     u1740:
  3045     0456                     l1981:
  3046                           
  3047                           ;main.c: 47:         {;main.c: 48:             EUSART_Write_Text("ACK @ 7-bit addr: ");
  3048     0456  305A               	movlw	low (STR_3| (0+32768))
  3049     0457  00F1               	movwf	EUSART_Write_Text@text
  3050     0458  3088               	movlw	high (STR_3| (0+32768))
  3051     0459  00F2               	movwf	EUSART_Write_Text@text+1
  3052     045A  3181  219E  3184   	fcall	_EUSART_Write_Text
  3053     045D                     l1983:
  3054                           
  3055                           ;main.c: 49:             EUSART_Write_Integer(addr7);
  3056     045D  0020               	movlb	0	; select bank0
  3057     045E  0841               	movf	I2C_ScanBus@addr7,w
  3058     045F  00BD               	movwf	??_I2C_ScanBus
  3059     0460  01BE               	clrf	??_I2C_ScanBus+1
  3060     0461  083D               	movf	??_I2C_ScanBus,w
  3061     0462  00FB               	movwf	EUSART_Write_Integer@value_to_send
  3062     0463  083E               	movf	??_I2C_ScanBus+1,w
  3063     0464  00FC               	movwf	EUSART_Write_Integer@value_to_send+1
  3064     0465  3182  223F  3184   	fcall	_EUSART_Write_Integer
  3065     0468                     l1985:
  3066                           
  3067                           ;main.c: 50:             EUSART_Write_Text("\n");
  3068     0468  3058               	movlw	low ((STR_1+22)| (0+32768))
  3069     0469  00F1               	movwf	EUSART_Write_Text@text
  3070     046A  3088               	movlw	high ((STR_1+22)| (0+32768))
  3071     046B  00F2               	movwf	EUSART_Write_Text@text+1
  3072     046C  3181  219E  3184   	fcall	_EUSART_Write_Text
  3073     046F                     l1987:
  3074                           
  3075                           ;main.c: 52:     }
  3076     046F  3001               	movlw	1
  3077     0470  0020               	movlb	0	; select bank0
  3078     0471  00BD               	movwf	??_I2C_ScanBus
  3079     0472  083D               	movf	??_I2C_ScanBus,w
  3080     0473  07C1               	addwf	I2C_ScanBus@addr7,f
  3081     0474                     l1989:
  3082     0474  3078               	movlw	120
  3083     0475  0241               	subwf	I2C_ScanBus@addr7,w
  3084     0476  1C03               	skipc
  3085     0477  2C79               	goto	u1751
  3086     0478  2C7A               	goto	u1750
  3087     0479                     u1751:
  3088     0479  2C33               	goto	l1967
  3089     047A                     u1750:
  3090     047A                     l157:
  3091     047A  0008               	return
  3092     047B                     __end_of_I2C_ScanBus:
  3093                           
  3094                           	psect	text4
  3095     019E                     __ptext4:	
  3096 ;; *************** function _EUSART_Write_Text *****************
  3097 ;; Defined at:
  3098 ;;		line 127 in file "EUSART.c"
  3099 ;; Parameters:    Size  Location     Type
  3100 ;;  text            2    1[COMMON] PTR unsigned char 
  3101 ;;		 -> STR_26(2), STR_25(9), STR_24(10), STR_23(9), 
  3102 ;;		 -> STR_22(2), STR_21(12), STR_20(9), STR_19(7), 
  3103 ;;		 -> STR_18(14), STR_17(2), STR_16(7), STR_15(13), 
  3104 ;;		 -> STR_14(9), STR_13(7), STR_12(15), STR_11(2), 
  3105 ;;		 -> STR_10(9), STR_9(7), STR_8(14), STR_7(38), 
  3106 ;;		 -> STR_6(27), STR_5(39), STR_4(2), STR_3(19), 
  3107 ;;		 -> STR_2(14), STR_1(24), 
  3108 ;; Auto vars:     Size  Location     Type
  3109 ;;  i               2    4[COMMON] int 
  3110 ;; Return value:  Size  Location     Type
  3111 ;;                  1    wreg      void 
  3112 ;; Registers used:
  3113 ;;		wreg, fsr0l, fsr0h, status,2, status,0, pclath, cstack
  3114 ;; Tracked objects:
  3115 ;;		On entry : 0/0
  3116 ;;		On exit  : 0/0
  3117 ;;		Unchanged: 0/0
  3118 ;; Data sizes:     COMMON   BANK0   BANK1   BANK2   BANK3   BANK4   BANK5   BANK6   BANK7   BANK8   BANK9  BANK10  BANK1
      +1  BANK12  BANK13  BANK14  BANK15  BANK16  BANK17  BANK18  BANK19  BANK20  BANK21  BANK22  BANK23  BANK24  BANK25
  3119 ;;      Params:         2       0       0       0       0       0       0       0       0       0       0       0       
      +0       0       0       0       0       0       0       0       0       0       0       0       0       0       0
  3120 ;;      Locals:         2       0       0       0       0       0       0       0       0       0       0       0       
      +0       0       0       0       0       0       0       0       0       0       0       0       0       0       0
  3121 ;;      Temps:          1       0       0       0       0       0       0       0       0       0       0       0       
      +0       0       0       0       0       0       0       0       0       0       0       0       0       0       0
  3122 ;;      Totals:         5       0       0       0       0       0       0       0       0       0       0       0       
      +0       0       0       0       0       0       0       0       0       0       0       0       0       0       0
  3123 ;;Total ram usage:        5 bytes
  3124 ;; Hardware stack levels used: 1
  3125 ;; Hardware stack levels required when called: 1
  3126 ;; This function calls:
  3127 ;;		_EUSART_Write
  3128 ;; This function is called by:
  3129 ;;		_I2C_ScanBus
  3130 ;;		_main
  3131 ;; This function uses a non-reentrant model
  3132 ;;
  3133                           
  3134     019E                     _EUSART_Write_Text:	
  3135                           ;psect for function _EUSART_Write_Text
  3136                           
  3137     019E                     l1869:	
  3138                           ;incstack = 0
  3139                           ; Regs used in _EUSART_Write_Text: [wreg-fsr0h+status,2+status,0+pclath+cstack]
  3140                           
  3141                           
  3142                           ;EUSART.c: 127: void EUSART_Write_Text(char *text);EUSART.c: 128: {;EUSART.c: 129:   int
      +                           i;;EUSART.c: 130:   for(i=0;text[i]!='\0';i++)
  3143     019E  01F4               	clrf	EUSART_Write_Text@i
  3144     019F  01F5               	clrf	EUSART_Write_Text@i+1
  3145     01A0  29AF               	goto	l1875
  3146     01A1                     l1871:
  3147                           
  3148                           ;EUSART.c: 131:    EUSART_Write(text[i]);
  3149     01A1  0871               	movf	EUSART_Write_Text@text,w
  3150     01A2  0774               	addwf	EUSART_Write_Text@i,w
  3151     01A3  0084               	movwf	4
  3152     01A4  0872               	movf	EUSART_Write_Text@text+1,w
  3153     01A5  3D75               	addwfc	EUSART_Write_Text@i+1,w
  3154     01A6  0085               	movwf	5
  3155     01A7  0800               	movf	0,w	;code access
  3156     01A8  3181  2180  3181   	fcall	_EUSART_Write
  3157     01AB                     l1873:
  3158     01AB  3001               	movlw	1
  3159     01AC  07F4               	addwf	EUSART_Write_Text@i,f
  3160     01AD  3000               	movlw	0
  3161     01AE  3DF5               	addwfc	EUSART_Write_Text@i+1,f
  3162     01AF                     l1875:
  3163     01AF  0871               	movf	EUSART_Write_Text@text,w
  3164     01B0  0774               	addwf	EUSART_Write_Text@i,w
  3165     01B1  0084               	movwf	4
  3166     01B2  0872               	movf	EUSART_Write_Text@text+1,w
  3167     01B3  3D75               	addwfc	EUSART_Write_Text@i+1,w
  3168     01B4  0085               	movwf	5
  3169     01B5  0012               	moviw fsr0++
  3170     01B6  1D03               	btfss	3,2
  3171     01B7  29B9               	goto	u1591
  3172     01B8  29BA               	goto	u1590
  3173     01B9                     u1591:
  3174     01B9  29A1               	goto	l1871
  3175     01BA                     u1590:
  3176     01BA                     l305:
  3177     01BA  0008               	return
  3178     01BB                     __end_of_EUSART_Write_Text:
  3179                           
  3180                           	psect	text5
  3181     023F                     __ptext5:	
  3182 ;; *************** function _EUSART_Write_Integer *****************
  3183 ;; Defined at:
  3184 ;;		line 185 in file "EUSART.c"
  3185 ;; Parameters:    Size  Location     Type
  3186 ;;  value_to_sen    2   11[COMMON] int 
  3187 ;; Auto vars:     Size  Location     Type
  3188 ;;  buffer         20    7[BANK0 ] unsigned char [20]
  3189 ;;  temp_ptr        1   28[BANK0 ] PTR unsigned char 
  3190 ;;		 -> EUSART_Write_Integer@buffer(20), 
  3191 ;;  ptr             1   27[BANK0 ] PTR unsigned char 
  3192 ;;		 -> EUSART_Write_Integer@buffer(20), 
  3193 ;; Return value:  Size  Location     Type
  3194 ;;                  1    wreg      void 
  3195 ;; Registers used:
  3196 ;;		wreg, fsr0l, fsr0h, fsr1l, fsr1h, status,2, status,0, pclath, cstack
  3197 ;; Tracked objects:
  3198 ;;		On entry : 0/0
  3199 ;;		On exit  : 0/0
  3200 ;;		Unchanged: 0/0
  3201 ;; Data sizes:     COMMON   BANK0   BANK1   BANK2   BANK3   BANK4   BANK5   BANK6   BANK7   BANK8   BANK9  BANK10  BANK1
      +1  BANK12  BANK13  BANK14  BANK15  BANK16  BANK17  BANK18  BANK19  BANK20  BANK21  BANK22  BANK23  BANK24  BANK25
  3202 ;;      Params:         2       0       0       0       0       0       0       0       0       0       0       0       
      +0       0       0       0       0       0       0       0       0       0       0       0       0       0       0
  3203 ;;      Locals:         0      22       0       0       0       0       0       0       0       0       0       0       
      +0       0       0       0       0       0       0       0       0       0       0       0       0       0       0
  3204 ;;      Temps:          1       0       0       0       0       0       0       0       0       0       0       0       
      +0       0       0       0       0       0       0       0       0       0       0       0       0       0       0
  3205 ;;      Totals:         3      22       0       0       0       0       0       0       0       0       0       0       
      +0       0       0       0       0       0       0       0       0       0       0       0       0       0       0
  3206 ;;Total ram usage:       25 bytes
  3207 ;; Hardware stack levels used: 1
  3208 ;; Hardware stack levels required when called: 2
  3209 ;; This function calls:
  3210 ;;		_EUSART_Write
  3211 ;;		_itoa
  3212 ;; This function is called by:
  3213 ;;		_I2C_ScanBus
  3214 ;;		_main
  3215 ;; This function uses a non-reentrant model
  3216 ;;
  3217                           
  3218     023F                     _EUSART_Write_Integer:	
  3219                           ;psect for function _EUSART_Write_Integer
  3220                           
  3221     023F                     l1877:	
  3222                           ;incstack = 0
  3223                           ; Regs used in _EUSART_Write_Integer: [wreg-fsr1h+status,2+status,0+pclath+cstack]
  3224                           
  3225                           
  3226                           ;EUSART.c: 185: void EUSART_Write_Integer(int value_to_send);EUSART.c: 186: {;EUSART.c: 
      +                          187:     char buffer[20];;EUSART.c: 188:     char *ptr = buffer;
  3227     023F  3027               	movlw	(low (EUSART_Write_Integer@buffer| 0))& (0+255)
  3228     0240  0020               	movlb	0	; select bank0
  3229     0241  00BB               	movwf	EUSART_Write_Integer@ptr
  3230     0242                     l1879:
  3231                           
  3232                           ;EUSART.c: 190:     itoa(&ptr, value_to_send);
  3233     0242  087C               	movf	EUSART_Write_Integer@value_to_send+1,w
  3234     0243  00FA               	movwf	itoa@d+1
  3235     0244  087B               	movf	EUSART_Write_Integer@value_to_send,w
  3236     0245  00F9               	movwf	itoa@d
  3237     0246  303B               	movlw	(low (EUSART_Write_Integer@ptr| 0))& (0+255)
  3238     0247  3186  2616  3182   	fcall	_itoa
  3239     024A                     l1881:
  3240                           
  3241                           ;EUSART.c: 193:     char *temp_ptr = buffer;
  3242     024A  3027               	movlw	(low (EUSART_Write_Integer@buffer| 0))& (0+255)
  3243     024B  0020               	movlb	0	; select bank0
  3244     024C  00BC               	movwf	EUSART_Write_Integer@temp_ptr
  3245                           
  3246                           ;EUSART.c: 194:     while (*temp_ptr != '\0') {
  3247     024D  2A5A               	goto	l1887
  3248     024E                     l1883:
  3249                           
  3250                           ;EUSART.c: 195:         EUSART_Write(*temp_ptr++);
  3251     024E  083C               	movf	EUSART_Write_Integer@temp_ptr,w
  3252     024F  0086               	movwf	6
  3253     0250  0187               	clrf	7
  3254     0251  0801               	movf	1,w
  3255     0252  3181  2180  3182   	fcall	_EUSART_Write
  3256     0255                     l1885:
  3257     0255  3001               	movlw	1
  3258     0256  00FD               	movwf	??_EUSART_Write_Integer
  3259     0257  087D               	movf	??_EUSART_Write_Integer,w
  3260     0258  0020               	movlb	0	; select bank0
  3261     0259  07BC               	addwf	EUSART_Write_Integer@temp_ptr,f
  3262     025A                     l1887:
  3263                           
  3264                           ;EUSART.c: 194:     while (*temp_ptr != '\0') {
  3265     025A  083C               	movf	EUSART_Write_Integer@temp_ptr,w
  3266     025B  0086               	movwf	6
  3267     025C  0187               	clrf	7
  3268     025D  0801               	movf	1,w
  3269     025E  1D03               	btfss	3,2
  3270     025F  2A61               	goto	u1601
  3271     0260  2A62               	goto	u1600
  3272     0261                     u1601:
  3273     0261  2A4E               	goto	l1883
  3274     0262                     u1600:
  3275     0262                     l321:
  3276     0262  0008               	return
  3277     0263                     __end_of_EUSART_Write_Integer:
  3278                           
  3279                           	psect	text6
  3280     0616                     __ptext6:	
  3281 ;; *************** function _itoa *****************
  3282 ;; Defined at:
  3283 ;;		line 149 in file "EUSART.c"
  3284 ;; Parameters:    Size  Location     Type
  3285 ;;  buf             1    wreg     PTR PTR unsigned char 
  3286 ;;		 -> EUSART_Write_Integer@ptr(1), 
  3287 ;;  d               2    9[COMMON] int 
  3288 ;; Auto vars:     Size  Location     Type
  3289 ;;  buf             1    4[BANK0 ] PTR PTR unsigned char 
  3290 ;;		 -> EUSART_Write_Integer@ptr(1), 
  3291 ;;  num             2    0[BANK0 ] int 
  3292 ;;  div             2    5[BANK0 ] int 
  3293 ;;  temp            2    2[BANK0 ] int 
  3294 ;; Return value:  Size  Location     Type
  3295 ;;                  1    wreg      void 
  3296 ;; Registers used:
  3297 ;;		wreg, fsr0l, fsr0h, fsr1l, fsr1h, status,2, status,0, pclath, cstack
  3298 ;; Tracked objects:
  3299 ;;		On entry : 0/0
  3300 ;;		On exit  : 0/0
  3301 ;;		Unchanged: 0/0
  3302 ;; Data sizes:     COMMON   BANK0   BANK1   BANK2   BANK3   BANK4   BANK5   BANK6   BANK7   BANK8   BANK9  BANK10  BANK1
      +1  BANK12  BANK13  BANK14  BANK15  BANK16  BANK17  BANK18  BANK19  BANK20  BANK21  BANK22  BANK23  BANK24  BANK25
  3303 ;;      Params:         2       0       0       0       0       0       0       0       0       0       0       0       
      +0       0       0       0       0       0       0       0       0       0       0       0       0       0       0
  3304 ;;      Locals:         0       7       0       0       0       0       0       0       0       0       0       0       
      +0       0       0       0       0       0       0       0       0       0       0       0       0       0       0
  3305 ;;      Temps:          0       0       0       0       0       0       0       0       0       0       0       0       
      +0       0       0       0       0       0       0       0       0       0       0       0       0       0       0
  3306 ;;      Totals:         2       7       0       0       0       0       0       0       0       0       0       0       
      +0       0       0       0       0       0       0       0       0       0       0       0       0       0       0
  3307 ;;Total ram usage:        9 bytes
  3308 ;; Hardware stack levels used: 1
  3309 ;; Hardware stack levels required when called: 1
  3310 ;; This function calls:
  3311 ;;		___awdiv
  3312 ;;		___awmod
  3313 ;;		___wmul
  3314 ;; This function is called by:
  3315 ;;		_EUSART_Write_Integer
  3316 ;; This function uses a non-reentrant model
  3317 ;;
  3318                           
  3319     0616                     _itoa:	
  3320                           ;psect for function _itoa
  3321                           
  3322                           
  3323                           ;incstack = 0
  3324                           ; Regs used in _itoa: [wreg-fsr1h+status,2+status,0+pclath+cstack]
  3325                           ;itoa@buf stored from wreg
  3326     0616  0020               	movlb	0	; select bank0
  3327     0617  00A4               	movwf	itoa@buf
  3328     0618                     l1785:
  3329                           
  3330                           ;EUSART.c: 149: void itoa(char **buf, int d);EUSART.c: 150: {;EUSART.c: 151:     int div
      +                           = 1;
  3331     0618  3001               	movlw	1
  3332     0619  00A5               	movwf	itoa@div
  3333     061A  3000               	movlw	0
  3334     061B  00A6               	movwf	itoa@div+1
  3335                           
  3336                           ;EUSART.c: 152:     if (d < 0)
  3337     061C  1FFA               	btfss	itoa@d+1,7
  3338     061D  2E1F               	goto	u1481
  3339     061E  2E20               	goto	u1480
  3340     061F                     u1481:
  3341     061F  2E2E               	goto	l1791
  3342     0620                     u1480:
  3343     0620                     l1787:
  3344                           
  3345                           ;EUSART.c: 153:     {;EUSART.c: 154:         *((*buf)++) = '-';
  3346     0620  0824               	movf	itoa@buf,w
  3347     0621  0086               	movwf	6
  3348     0622  0187               	clrf	7
  3349     0623  3F40               	moviw [0]fsr1
  3350     0624  0084               	movwf	4
  3351     0625  0185               	clrf	5
  3352     0626  0A81               	incf	1,f
  3353     0627  302D               	movlw	45
  3354     0628  0080               	movwf	0
  3355     0629                     l1789:
  3356                           
  3357                           ;EUSART.c: 155:         d = -d;
  3358     0629  09F9               	comf	itoa@d,f
  3359     062A  09FA               	comf	itoa@d+1,f
  3360     062B  0AF9               	incf	itoa@d,f
  3361     062C  1903               	skipnz
  3362     062D  0AFA               	incf	itoa@d+1,f
  3363     062E                     l1791:
  3364                           
  3365                           ;EUSART.c: 158:     int temp = d;
  3366     062E  087A               	movf	itoa@d+1,w
  3367     062F  00A3               	movwf	itoa@temp+1
  3368     0630  0879               	movf	itoa@d,w
  3369     0631  00A2               	movwf	itoa@temp
  3370                           
  3371                           ;EUSART.c: 159:     while (temp / 10)
  3372     0632  2E54               	goto	l309
  3373     0633                     l1793:
  3374                           
  3375                           ;EUSART.c: 160:     {;EUSART.c: 161:         temp /= 10;
  3376     0633  300A               	movlw	10
  3377     0634  00F0               	movwf	___awdiv@divisor
  3378     0635  3000               	movlw	0
  3379     0636  00F1               	movwf	___awdiv@divisor+1
  3380     0637  0020               	movlb	0	; select bank0
  3381     0638  0823               	movf	itoa@temp+1,w
  3382     0639  00F3               	movwf	___awdiv@dividend+1
  3383     063A  0822               	movf	itoa@temp,w
  3384     063B  00F2               	movwf	___awdiv@dividend
  3385     063C  3185  2527  3186   	fcall	___awdiv
  3386     063F  0871               	movf	?___awdiv+1,w
  3387     0640  0020               	movlb	0	; select bank0
  3388     0641  00A3               	movwf	itoa@temp+1
  3389     0642  0870               	movf	?___awdiv,w
  3390     0643  00A2               	movwf	itoa@temp
  3391                           
  3392                           ;EUSART.c: 162:         div *= 10;
  3393     0644  300A               	movlw	10
  3394     0645  00F0               	movwf	___wmul@multiplier
  3395     0646  3000               	movlw	0
  3396     0647  00F1               	movwf	___wmul@multiplier+1
  3397     0648  0826               	movf	itoa@div+1,w
  3398     0649  00F3               	movwf	___wmul@multiplicand+1
  3399     064A  0825               	movf	itoa@div,w
  3400     064B  00F2               	movwf	___wmul@multiplicand
  3401     064C  3181  21D9  3186   	fcall	___wmul
  3402     064F  0871               	movf	?___wmul+1,w
  3403     0650  0020               	movlb	0	; select bank0
  3404     0651  00A6               	movwf	itoa@div+1
  3405     0652  0870               	movf	?___wmul,w
  3406     0653  00A5               	movwf	itoa@div
  3407     0654                     l309:	
  3408                           ;EUSART.c: 163:     }
  3409                           
  3410                           
  3411                           ;EUSART.c: 159:     while (temp / 10)
  3412     0654  300A               	movlw	10
  3413     0655  00F0               	movwf	___awdiv@divisor
  3414     0656  3000               	movlw	0
  3415     0657  00F1               	movwf	___awdiv@divisor+1
  3416     0658  0823               	movf	itoa@temp+1,w
  3417     0659  00F3               	movwf	___awdiv@dividend+1
  3418     065A  0822               	movf	itoa@temp,w
  3419     065B  00F2               	movwf	___awdiv@dividend
  3420     065C  3185  2527  3186   	fcall	___awdiv
  3421     065F  0870               	movf	?___awdiv,w
  3422     0660  0471               	iorwf	?___awdiv+1,w
  3423     0661  1D03               	btfss	3,2
  3424     0662  2E64               	goto	u1491
  3425     0663  2E65               	goto	u1490
  3426     0664                     u1491:
  3427     0664  2E33               	goto	l1793
  3428     0665                     u1490:
  3429     0665  2EA0               	goto	l1799
  3430     0666                     l1795:
  3431                           
  3432                           ;EUSART.c: 166:     {;EUSART.c: 167:         int num = d / div;
  3433     0666  0826               	movf	itoa@div+1,w
  3434     0667  00F1               	movwf	___awdiv@divisor+1
  3435     0668  0825               	movf	itoa@div,w
  3436     0669  00F0               	movwf	___awdiv@divisor
  3437     066A  087A               	movf	itoa@d+1,w
  3438     066B  00F3               	movwf	___awdiv@dividend+1
  3439     066C  0879               	movf	itoa@d,w
  3440     066D  00F2               	movwf	___awdiv@dividend
  3441     066E  3185  2527  3186   	fcall	___awdiv
  3442     0671  0871               	movf	?___awdiv+1,w
  3443     0672  0020               	movlb	0	; select bank0
  3444     0673  00A1               	movwf	itoa@num+1
  3445     0674  0870               	movf	?___awdiv,w
  3446     0675  00A0               	movwf	itoa@num
  3447                           
  3448                           ;EUSART.c: 168:         d %= div;
  3449     0676  0826               	movf	itoa@div+1,w
  3450     0677  00F1               	movwf	___awmod@divisor+1
  3451     0678  0825               	movf	itoa@div,w
  3452     0679  00F0               	movwf	___awmod@divisor
  3453     067A  087A               	movf	itoa@d+1,w
  3454     067B  00F3               	movwf	___awmod@dividend+1
  3455     067C  0879               	movf	itoa@d,w
  3456     067D  00F2               	movwf	___awmod@dividend
  3457     067E  3184  247B  3186   	fcall	___awmod
  3458     0681  0871               	movf	?___awmod+1,w
  3459     0682  00FA               	movwf	itoa@d+1
  3460     0683  0870               	movf	?___awmod,w
  3461     0684  00F9               	movwf	itoa@d
  3462                           
  3463                           ;EUSART.c: 169:         div /= 10;
  3464     0685  300A               	movlw	10
  3465     0686  00F0               	movwf	___awdiv@divisor
  3466     0687  3000               	movlw	0
  3467     0688  00F1               	movwf	___awdiv@divisor+1
  3468     0689  0020               	movlb	0	; select bank0
  3469     068A  0826               	movf	itoa@div+1,w
  3470     068B  00F3               	movwf	___awdiv@dividend+1
  3471     068C  0825               	movf	itoa@div,w
  3472     068D  00F2               	movwf	___awdiv@dividend
  3473     068E  3185  2527  3186   	fcall	___awdiv
  3474     0691  0871               	movf	?___awdiv+1,w
  3475     0692  0020               	movlb	0	; select bank0
  3476     0693  00A6               	movwf	itoa@div+1
  3477     0694  0870               	movf	?___awdiv,w
  3478     0695  00A5               	movwf	itoa@div
  3479     0696                     l1797:
  3480                           
  3481                           ;EUSART.c: 170:         *((*buf)++) = num + '0';
  3482     0696  0824               	movf	itoa@buf,w
  3483     0697  0086               	movwf	6
  3484     0698  0187               	clrf	7
  3485     0699  3F40               	moviw [0]fsr1
  3486     069A  0084               	movwf	4
  3487     069B  0185               	clrf	5
  3488     069C  0A81               	incf	1,f
  3489     069D  0820               	movf	itoa@num,w
  3490     069E  3E30               	addlw	48
  3491     069F  0080               	movwf	0
  3492     06A0                     l1799:
  3493                           
  3494                           ;EUSART.c: 165:     while (div != 0)
  3495     06A0  0020               	movlb	0	; select bank0
  3496     06A1  0825               	movf	itoa@div,w
  3497     06A2  0426               	iorwf	itoa@div+1,w
  3498     06A3  1D03               	btfss	3,2
  3499     06A4  2EA6               	goto	u1501
  3500     06A5  2EA7               	goto	u1500
  3501     06A6                     u1501:
  3502     06A6  2E66               	goto	l1795
  3503     06A7                     u1500:
  3504     06A7                     l1801:
  3505                           
  3506                           ;EUSART.c: 172:     *(*buf) = '\0';
  3507     06A7  0824               	movf	itoa@buf,w
  3508     06A8  0086               	movwf	6
  3509     06A9  0187               	clrf	7
  3510     06AA  0801               	movf	1,w
  3511     06AB  0086               	movwf	6
  3512     06AC  0187               	clrf	7
  3513     06AD  0181               	clrf	1
  3514     06AE                     l315:
  3515     06AE  0008               	return
  3516     06AF                     __end_of_itoa:
  3517                           
  3518                           	psect	text7
  3519     01D9                     __ptext7:	
  3520 ;; *************** function ___wmul *****************
  3521 ;; Defined at:
  3522 ;;		line 15 in file "C:\Program Files\Microchip\xc8\v2.46\pic\sources\c99\common\Umul16.c"
  3523 ;; Parameters:    Size  Location     Type
  3524 ;;  multiplier      2    0[COMMON] unsigned int 
  3525 ;;  multiplicand    2    2[COMMON] unsigned int 
  3526 ;; Auto vars:     Size  Location     Type
  3527 ;;  product         2    4[COMMON] unsigned int 
  3528 ;; Return value:  Size  Location     Type
  3529 ;;                  2    0[COMMON] unsigned int 
  3530 ;; Registers used:
  3531 ;;		wreg, status,2, status,0
  3532 ;; Tracked objects:
  3533 ;;		On entry : 0/0
  3534 ;;		On exit  : 0/0
  3535 ;;		Unchanged: 0/0
  3536 ;; Data sizes:     COMMON   BANK0   BANK1   BANK2   BANK3   BANK4   BANK5   BANK6   BANK7   BANK8   BANK9  BANK10  BANK1
      +1  BANK12  BANK13  BANK14  BANK15  BANK16  BANK17  BANK18  BANK19  BANK20  BANK21  BANK22  BANK23  BANK24  BANK25
  3537 ;;      Params:         4       0       0       0       0       0       0       0       0       0       0       0       
      +0       0       0       0       0       0       0       0       0       0       0       0       0       0       0
  3538 ;;      Locals:         2       0       0       0       0       0       0       0       0       0       0       0       
      +0       0       0       0       0       0       0       0       0       0       0       0       0       0       0
  3539 ;;      Temps:          0       0       0       0       0       0       0       0       0       0       0       0       
      +0       0       0       0       0       0       0       0       0       0       0       0       0       0       0
  3540 ;;      Totals:         6       0       0       0       0       0       0       0       0       0       0       0       
      +0       0       0       0       0       0       0       0       0       0       0       0       0       0       0
  3541 ;;Total ram usage:        6 bytes
  3542 ;; Hardware stack levels used: 1
  3543 ;; This function calls:
  3544 ;;		Nothing
  3545 ;; This function is called by:
  3546 ;;		_itoa
  3547 ;; This function uses a non-reentrant model
  3548 ;;
  3549                           
  3550     01D9                     ___wmul:	
  3551                           ;psect for function ___wmul
  3552                           
  3553     01D9                     l1621:	
  3554                           ;incstack = 0
  3555                           ; Regs used in ___wmul: [wreg+status,2+status,0]
  3556                           
  3557     01D9  01F4               	clrf	___wmul@product
  3558     01DA  01F5               	clrf	___wmul@product+1
  3559     01DB                     l1623:
  3560     01DB  1C70               	btfss	___wmul@multiplier,0
  3561     01DC  29DE               	goto	u1151
  3562     01DD  29DF               	goto	u1150
  3563     01DE                     u1151:
  3564     01DE  29E3               	goto	l389
  3565     01DF                     u1150:
  3566     01DF                     l1625:
  3567     01DF  0872               	movf	___wmul@multiplicand,w
  3568     01E0  07F4               	addwf	___wmul@product,f
  3569     01E1  0873               	movf	___wmul@multiplicand+1,w
  3570     01E2  3DF5               	addwfc	___wmul@product+1,f
  3571     01E3                     l389:
  3572     01E3  3001               	movlw	1
  3573     01E4                     u1165:
  3574     01E4  35F2               	lslf	___wmul@multiplicand,f
  3575     01E5  0DF3               	rlf	___wmul@multiplicand+1,f
  3576     01E6  0B89               	decfsz	9,f
  3577     01E7  29E4               	goto	u1165
  3578     01E8                     l1627:
  3579     01E8  3001               	movlw	1
  3580     01E9                     u1175:
  3581     01E9  36F1               	lsrf	___wmul@multiplier+1,f
  3582     01EA  0CF0               	rrf	___wmul@multiplier,f
  3583     01EB  0B89               	decfsz	9,f
  3584     01EC  29E9               	goto	u1175
  3585     01ED                     l1629:
  3586     01ED  0870               	movf	___wmul@multiplier,w
  3587     01EE  0471               	iorwf	___wmul@multiplier+1,w
  3588     01EF  1D03               	btfss	3,2
  3589     01F0  29F2               	goto	u1181
  3590     01F1  29F3               	goto	u1180
  3591     01F2                     u1181:
  3592     01F2  29DB               	goto	l1623
  3593     01F3                     u1180:
  3594     01F3                     l1631:
  3595     01F3  0875               	movf	___wmul@product+1,w
  3596     01F4  00F1               	movwf	?___wmul+1
  3597     01F5  0874               	movf	___wmul@product,w
  3598     01F6  00F0               	movwf	?___wmul
  3599     01F7                     l391:
  3600     01F7  0008               	return
  3601     01F8                     __end_of___wmul:
  3602                           
  3603                           	psect	text8
  3604     047B                     __ptext8:	
  3605 ;; *************** function ___awmod *****************
  3606 ;; Defined at:
  3607 ;;		line 5 in file "C:\Program Files\Microchip\xc8\v2.46\pic\sources\c99\common\awmod.c"
  3608 ;; Parameters:    Size  Location     Type
  3609 ;;  divisor         2    0[COMMON] int 
  3610 ;;  dividend        2    2[COMMON] int 
  3611 ;; Auto vars:     Size  Location     Type
  3612 ;;  sign            1    6[COMMON] unsigned char 
  3613 ;;  counter         1    5[COMMON] unsigned char 
  3614 ;; Return value:  Size  Location     Type
  3615 ;;                  2    0[COMMON] int 
  3616 ;; Registers used:
  3617 ;;		wreg, status,2, status,0
  3618 ;; Tracked objects:
  3619 ;;		On entry : 0/0
  3620 ;;		On exit  : 0/0
  3621 ;;		Unchanged: 0/0
  3622 ;; Data sizes:     COMMON   BANK0   BANK1   BANK2   BANK3   BANK4   BANK5   BANK6   BANK7   BANK8   BANK9  BANK10  BANK1
      +1  BANK12  BANK13  BANK14  BANK15  BANK16  BANK17  BANK18  BANK19  BANK20  BANK21  BANK22  BANK23  BANK24  BANK25
  3623 ;;      Params:         4       0       0       0       0       0       0       0       0       0       0       0       
      +0       0       0       0       0       0       0       0       0       0       0       0       0       0       0
  3624 ;;      Locals:         2       0       0       0       0       0       0       0       0       0       0       0       
      +0       0       0       0       0       0       0       0       0       0       0       0       0       0       0
  3625 ;;      Temps:          1       0       0       0       0       0       0       0       0       0       0       0       
      +0       0       0       0       0       0       0       0       0       0       0       0       0       0       0
  3626 ;;      Totals:         7       0       0       0       0       0       0       0       0       0       0       0       
      +0       0       0       0       0       0       0       0       0       0       0       0       0       0       0
  3627 ;;Total ram usage:        7 bytes
  3628 ;; Hardware stack levels used: 1
  3629 ;; This function calls:
  3630 ;;		Nothing
  3631 ;; This function is called by:
  3632 ;;		_itoa
  3633 ;; This function uses a non-reentrant model
  3634 ;;
  3635                           
  3636     047B                     ___awmod:	
  3637                           ;psect for function ___awmod
  3638                           
  3639     047B                     l1679:	
  3640                           ;incstack = 0
  3641                           ; Regs used in ___awmod: [wreg+status,2+status,0]
  3642                           
  3643     047B  01F6               	clrf	___awmod@sign
  3644     047C                     l1681:
  3645     047C  1FF3               	btfss	___awmod@dividend+1,7
  3646     047D  2C7F               	goto	u1291
  3647     047E  2C80               	goto	u1290
  3648     047F                     u1291:
  3649     047F  2C87               	goto	l1687
  3650     0480                     u1290:
  3651     0480                     l1683:
  3652     0480  09F2               	comf	___awmod@dividend,f
  3653     0481  09F3               	comf	___awmod@dividend+1,f
  3654     0482  0AF2               	incf	___awmod@dividend,f
  3655     0483  1903               	skipnz
  3656     0484  0AF3               	incf	___awmod@dividend+1,f
  3657     0485                     l1685:
  3658     0485  01F6               	clrf	___awmod@sign
  3659     0486  0AF6               	incf	___awmod@sign,f
  3660     0487                     l1687:
  3661     0487  1FF1               	btfss	___awmod@divisor+1,7
  3662     0488  2C8A               	goto	u1301
  3663     0489  2C8B               	goto	u1300
  3664     048A                     u1301:
  3665     048A  2C90               	goto	l1691
  3666     048B                     u1300:
  3667     048B                     l1689:
  3668     048B  09F0               	comf	___awmod@divisor,f
  3669     048C  09F1               	comf	___awmod@divisor+1,f
  3670     048D  0AF0               	incf	___awmod@divisor,f
  3671     048E  1903               	skipnz
  3672     048F  0AF1               	incf	___awmod@divisor+1,f
  3673     0490                     l1691:
  3674     0490  0870               	movf	___awmod@divisor,w
  3675     0491  0471               	iorwf	___awmod@divisor+1,w
  3676     0492  1903               	btfsc	3,2
  3677     0493  2C95               	goto	u1311
  3678     0494  2C96               	goto	u1310
  3679     0495                     u1311:
  3680     0495  2CBF               	goto	l1709
  3681     0496                     u1310:
  3682     0496                     l1693:
  3683     0496  01F5               	clrf	___awmod@counter
  3684     0497  0AF5               	incf	___awmod@counter,f
  3685     0498  2CA2               	goto	l1699
  3686     0499                     l1695:
  3687     0499  3001               	movlw	1
  3688     049A                     u1325:
  3689     049A  35F0               	lslf	___awmod@divisor,f
  3690     049B  0DF1               	rlf	___awmod@divisor+1,f
  3691     049C  0B89               	decfsz	9,f
  3692     049D  2C9A               	goto	u1325
  3693     049E                     l1697:
  3694     049E  3001               	movlw	1
  3695     049F  00F4               	movwf	??___awmod
  3696     04A0  0874               	movf	??___awmod,w
  3697     04A1  07F5               	addwf	___awmod@counter,f
  3698     04A2                     l1699:
  3699     04A2  1FF1               	btfss	___awmod@divisor+1,7
  3700     04A3  2CA5               	goto	u1331
  3701     04A4  2CA6               	goto	u1330
  3702     04A5                     u1331:
  3703     04A5  2C99               	goto	l1695
  3704     04A6                     u1330:
  3705     04A6                     l1701:
  3706     04A6  0871               	movf	___awmod@divisor+1,w
  3707     04A7  0273               	subwf	___awmod@dividend+1,w
  3708     04A8  1D03               	skipz
  3709     04A9  2CAC               	goto	u1345
  3710     04AA  0870               	movf	___awmod@divisor,w
  3711     04AB  0272               	subwf	___awmod@dividend,w
  3712     04AC                     u1345:
  3713     04AC  1C03               	skipc
  3714     04AD  2CAF               	goto	u1341
  3715     04AE  2CB0               	goto	u1340
  3716     04AF                     u1341:
  3717     04AF  2CB4               	goto	l1705
  3718     04B0                     u1340:
  3719     04B0                     l1703:
  3720     04B0  0870               	movf	___awmod@divisor,w
  3721     04B1  02F2               	subwf	___awmod@dividend,f
  3722     04B2  0871               	movf	___awmod@divisor+1,w
  3723     04B3  3BF3               	subwfb	___awmod@dividend+1,f
  3724     04B4                     l1705:
  3725     04B4  3001               	movlw	1
  3726     04B5                     u1355:
  3727     04B5  36F1               	lsrf	___awmod@divisor+1,f
  3728     04B6  0CF0               	rrf	___awmod@divisor,f
  3729     04B7  0B89               	decfsz	9,f
  3730     04B8  2CB5               	goto	u1355
  3731     04B9                     l1707:
  3732     04B9  3001               	movlw	1
  3733     04BA  02F5               	subwf	___awmod@counter,f
  3734     04BB  1D03               	btfss	3,2
  3735     04BC  2CBE               	goto	u1361
  3736     04BD  2CBF               	goto	u1360
  3737     04BE                     u1361:
  3738     04BE  2CA6               	goto	l1701
  3739     04BF                     u1360:
  3740     04BF                     l1709:
  3741     04BF  0876               	movf	___awmod@sign,w
  3742     04C0  1903               	btfsc	3,2
  3743     04C1  2CC3               	goto	u1371
  3744     04C2  2CC4               	goto	u1370
  3745     04C3                     u1371:
  3746     04C3  2CC9               	goto	l1713
  3747     04C4                     u1370:
  3748     04C4                     l1711:
  3749     04C4  09F2               	comf	___awmod@dividend,f
  3750     04C5  09F3               	comf	___awmod@dividend+1,f
  3751     04C6  0AF2               	incf	___awmod@dividend,f
  3752     04C7  1903               	skipnz
  3753     04C8  0AF3               	incf	___awmod@dividend+1,f
  3754     04C9                     l1713:
  3755     04C9  0873               	movf	___awmod@dividend+1,w
  3756     04CA  00F1               	movwf	?___awmod+1
  3757     04CB  0872               	movf	___awmod@dividend,w
  3758     04CC  00F0               	movwf	?___awmod
  3759     04CD                     l555:
  3760     04CD  0008               	return
  3761     04CE                     __end_of___awmod:
  3762                           
  3763                           	psect	text9
  3764     0527                     __ptext9:	
  3765 ;; *************** function ___awdiv *****************
  3766 ;; Defined at:
  3767 ;;		line 5 in file "C:\Program Files\Microchip\xc8\v2.46\pic\sources\c99\common\awdiv.c"
  3768 ;; Parameters:    Size  Location     Type
  3769 ;;  divisor         2    0[COMMON] int 
  3770 ;;  dividend        2    2[COMMON] int 
  3771 ;; Auto vars:     Size  Location     Type
  3772 ;;  quotient        2    7[COMMON] int 
  3773 ;;  sign            1    6[COMMON] unsigned char 
  3774 ;;  counter         1    5[COMMON] unsigned char 
  3775 ;; Return value:  Size  Location     Type
  3776 ;;                  2    0[COMMON] int 
  3777 ;; Registers used:
  3778 ;;		wreg, status,2, status,0
  3779 ;; Tracked objects:
  3780 ;;		On entry : 0/0
  3781 ;;		On exit  : 0/0
  3782 ;;		Unchanged: 0/0
  3783 ;; Data sizes:     COMMON   BANK0   BANK1   BANK2   BANK3   BANK4   BANK5   BANK6   BANK7   BANK8   BANK9  BANK10  BANK1
      +1  BANK12  BANK13  BANK14  BANK15  BANK16  BANK17  BANK18  BANK19  BANK20  BANK21  BANK22  BANK23  BANK24  BANK25
  3784 ;;      Params:         4       0       0       0       0       0       0       0       0       0       0       0       
      +0       0       0       0       0       0       0       0       0       0       0       0       0       0       0
  3785 ;;      Locals:         4       0       0       0       0       0       0       0       0       0       0       0       
      +0       0       0       0       0       0       0       0       0       0       0       0       0       0       0
  3786 ;;      Temps:          1       0       0       0       0       0       0       0       0       0       0       0       
      +0       0       0       0       0       0       0       0       0       0       0       0       0       0       0
  3787 ;;      Totals:         9       0       0       0       0       0       0       0       0       0       0       0       
      +0       0       0       0       0       0       0       0       0       0       0       0       0       0       0
  3788 ;;Total ram usage:        9 bytes
  3789 ;; Hardware stack levels used: 1
  3790 ;; This function calls:
  3791 ;;		Nothing
  3792 ;; This function is called by:
  3793 ;;		_itoa
  3794 ;; This function uses a non-reentrant model
  3795 ;;
  3796                           
  3797     0527                     ___awdiv:	
  3798                           ;psect for function ___awdiv
  3799                           
  3800     0527                     l1635:	
  3801                           ;incstack = 0
  3802                           ; Regs used in ___awdiv: [wreg+status,2+status,0]
  3803                           
  3804     0527  01F6               	clrf	___awdiv@sign
  3805     0528                     l1637:
  3806     0528  1FF1               	btfss	___awdiv@divisor+1,7
  3807     0529  2D2B               	goto	u1191
  3808     052A  2D2C               	goto	u1190
  3809     052B                     u1191:
  3810     052B  2D33               	goto	l1643
  3811     052C                     u1190:
  3812     052C                     l1639:
  3813     052C  09F0               	comf	___awdiv@divisor,f
  3814     052D  09F1               	comf	___awdiv@divisor+1,f
  3815     052E  0AF0               	incf	___awdiv@divisor,f
  3816     052F  1903               	skipnz
  3817     0530  0AF1               	incf	___awdiv@divisor+1,f
  3818     0531                     l1641:
  3819     0531  01F6               	clrf	___awdiv@sign
  3820     0532  0AF6               	incf	___awdiv@sign,f
  3821     0533                     l1643:
  3822     0533  1FF3               	btfss	___awdiv@dividend+1,7
  3823     0534  2D36               	goto	u1201
  3824     0535  2D37               	goto	u1200
  3825     0536                     u1201:
  3826     0536  2D40               	goto	l1649
  3827     0537                     u1200:
  3828     0537                     l1645:
  3829     0537  09F2               	comf	___awdiv@dividend,f
  3830     0538  09F3               	comf	___awdiv@dividend+1,f
  3831     0539  0AF2               	incf	___awdiv@dividend,f
  3832     053A  1903               	skipnz
  3833     053B  0AF3               	incf	___awdiv@dividend+1,f
  3834     053C                     l1647:
  3835     053C  3001               	movlw	1
  3836     053D  00F4               	movwf	??___awdiv
  3837     053E  0874               	movf	??___awdiv,w
  3838     053F  06F6               	xorwf	___awdiv@sign,f
  3839     0540                     l1649:
  3840     0540  01F7               	clrf	___awdiv@quotient
  3841     0541  01F8               	clrf	___awdiv@quotient+1
  3842     0542                     l1651:
  3843     0542  0870               	movf	___awdiv@divisor,w
  3844     0543  0471               	iorwf	___awdiv@divisor+1,w
  3845     0544  1903               	btfsc	3,2
  3846     0545  2D47               	goto	u1211
  3847     0546  2D48               	goto	u1210
  3848     0547                     u1211:
  3849     0547  2D77               	goto	l1671
  3850     0548                     u1210:
  3851     0548                     l1653:
  3852     0548  01F5               	clrf	___awdiv@counter
  3853     0549  0AF5               	incf	___awdiv@counter,f
  3854     054A  2D54               	goto	l1659
  3855     054B                     l1655:
  3856     054B  3001               	movlw	1
  3857     054C                     u1225:
  3858     054C  35F0               	lslf	___awdiv@divisor,f
  3859     054D  0DF1               	rlf	___awdiv@divisor+1,f
  3860     054E  0B89               	decfsz	9,f
  3861     054F  2D4C               	goto	u1225
  3862     0550                     l1657:
  3863     0550  3001               	movlw	1
  3864     0551  00F4               	movwf	??___awdiv
  3865     0552  0874               	movf	??___awdiv,w
  3866     0553  07F5               	addwf	___awdiv@counter,f
  3867     0554                     l1659:
  3868     0554  1FF1               	btfss	___awdiv@divisor+1,7
  3869     0555  2D57               	goto	u1231
  3870     0556  2D58               	goto	u1230
  3871     0557                     u1231:
  3872     0557  2D4B               	goto	l1655
  3873     0558                     u1230:
  3874     0558                     l1661:
  3875     0558  3001               	movlw	1
  3876     0559                     u1245:
  3877     0559  35F7               	lslf	___awdiv@quotient,f
  3878     055A  0DF8               	rlf	___awdiv@quotient+1,f
  3879     055B  0B89               	decfsz	9,f
  3880     055C  2D59               	goto	u1245
  3881     055D  0871               	movf	___awdiv@divisor+1,w
  3882     055E  0273               	subwf	___awdiv@dividend+1,w
  3883     055F  1D03               	skipz
  3884     0560  2D63               	goto	u1255
  3885     0561  0870               	movf	___awdiv@divisor,w
  3886     0562  0272               	subwf	___awdiv@dividend,w
  3887     0563                     u1255:
  3888     0563  1C03               	skipc
  3889     0564  2D66               	goto	u1251
  3890     0565  2D67               	goto	u1250
  3891     0566                     u1251:
  3892     0566  2D6C               	goto	l1667
  3893     0567                     u1250:
  3894     0567                     l1663:
  3895     0567  0870               	movf	___awdiv@divisor,w
  3896     0568  02F2               	subwf	___awdiv@dividend,f
  3897     0569  0871               	movf	___awdiv@divisor+1,w
  3898     056A  3BF3               	subwfb	___awdiv@dividend+1,f
  3899     056B                     l1665:
  3900     056B  1477               	bsf	___awdiv@quotient,0
  3901     056C                     l1667:
  3902     056C  3001               	movlw	1
  3903     056D                     u1265:
  3904     056D  36F1               	lsrf	___awdiv@divisor+1,f
  3905     056E  0CF0               	rrf	___awdiv@divisor,f
  3906     056F  0B89               	decfsz	9,f
  3907     0570  2D6D               	goto	u1265
  3908     0571                     l1669:
  3909     0571  3001               	movlw	1
  3910     0572  02F5               	subwf	___awdiv@counter,f
  3911     0573  1D03               	btfss	3,2
  3912     0574  2D76               	goto	u1271
  3913     0575  2D77               	goto	u1270
  3914     0576                     u1271:
  3915     0576  2D58               	goto	l1661
  3916     0577                     u1270:
  3917     0577                     l1671:
  3918     0577  0876               	movf	___awdiv@sign,w
  3919     0578  1903               	btfsc	3,2
  3920     0579  2D7B               	goto	u1281
  3921     057A  2D7C               	goto	u1280
  3922     057B                     u1281:
  3923     057B  2D81               	goto	l1675
  3924     057C                     u1280:
  3925     057C                     l1673:
  3926     057C  09F7               	comf	___awdiv@quotient,f
  3927     057D  09F8               	comf	___awdiv@quotient+1,f
  3928     057E  0AF7               	incf	___awdiv@quotient,f
  3929     057F  1903               	skipnz
  3930     0580  0AF8               	incf	___awdiv@quotient+1,f
  3931     0581                     l1675:
  3932     0581  0878               	movf	___awdiv@quotient+1,w
  3933     0582  00F1               	movwf	?___awdiv+1
  3934     0583  0877               	movf	___awdiv@quotient,w
  3935     0584  00F0               	movwf	?___awdiv
  3936     0585                     l542:
  3937     0585  0008               	return
  3938     0586                     __end_of___awdiv:
  3939                           
  3940                           	psect	text10
  3941     0180                     __ptext10:	
  3942 ;; *************** function _EUSART_Write *****************
  3943 ;; Defined at:
  3944 ;;		line 108 in file "EUSART.c"
  3945 ;; Parameters:    Size  Location     Type
  3946 ;;  txData          1    wreg     unsigned char 
  3947 ;; Auto vars:     Size  Location     Type
  3948 ;;  txData          1    0[COMMON] unsigned char 
  3949 ;; Return value:  Size  Location     Type
  3950 ;;                  1    wreg      void 
  3951 ;; Registers used:
  3952 ;;		wreg
  3953 ;; Tracked objects:
  3954 ;;		On entry : 0/0
  3955 ;;		On exit  : 0/0
  3956 ;;		Unchanged: 0/0
  3957 ;; Data sizes:     COMMON   BANK0   BANK1   BANK2   BANK3   BANK4   BANK5   BANK6   BANK7   BANK8   BANK9  BANK10  BANK1
      +1  BANK12  BANK13  BANK14  BANK15  BANK16  BANK17  BANK18  BANK19  BANK20  BANK21  BANK22  BANK23  BANK24  BANK25
  3958 ;;      Params:         0       0       0       0       0       0       0       0       0       0       0       0       
      +0       0       0       0       0       0       0       0       0       0       0       0       0       0       0
  3959 ;;      Locals:         1       0       0       0       0       0       0       0       0       0       0       0       
      +0       0       0       0       0       0       0       0       0       0       0       0       0       0       0
  3960 ;;      Temps:          0       0       0       0       0       0       0       0       0       0       0       0       
      +0       0       0       0       0       0       0       0       0       0       0       0       0       0       0
  3961 ;;      Totals:         1       0       0       0       0       0       0       0       0       0       0       0       
      +0       0       0       0       0       0       0       0       0       0       0       0       0       0       0
  3962 ;;Total ram usage:        1 bytes
  3963 ;; Hardware stack levels used: 1
  3964 ;; This function calls:
  3965 ;;		Nothing
  3966 ;; This function is called by:
  3967 ;;		_EUSART_Write_Text
  3968 ;;		_EUSART_Write_Integer
  3969 ;; This function uses a non-reentrant model
  3970 ;;
  3971                           
  3972     0180                     _EUSART_Write:	
  3973                           ;psect for function _EUSART_Write
  3974                           
  3975                           
  3976                           ;incstack = 0
  3977                           ; Regs used in _EUSART_Write: [wreg]
  3978                           ;EUSART_Write@txData stored from wreg
  3979     0180  00F0               	movwf	EUSART_Write@txData
  3980     0181                     l1781:
  3981     0181                     l296:	
  3982                           ;EUSART.c: 111:     {;EUSART.c: 112:     }
  3983                           
  3984                           
  3985                           ;EUSART.c: 110:     while(0 == PIR1bits.TXIF)
  3986     0181  0020               	movlb	0	; select bank0
  3987     0182  1E11               	btfss	17,4	;volatile
  3988     0183  2985               	goto	u1471
  3989     0184  2986               	goto	u1470
  3990     0185                     u1471:
  3991     0185  2981               	goto	l296
  3992     0186                     u1470:
  3993     0186                     l1783:
  3994                           
  3995                           ;EUSART.c: 114:     TX1REG = txData;
  3996     0186  0870               	movf	EUSART_Write@txData,w
  3997     0187  0023               	movlb	3	; select bank3
  3998     0188  009A               	movwf	26	;volatile
  3999     0189                     l299:
  4000     0189  0008               	return
  4001     018A                     __end_of_EUSART_Write:
  4002                           
  4003                           	psect	text11
  4004     018A                     __ptext11:	
  4005 ;; *************** function _I2C_Init *****************
  4006 ;; Defined at:
  4007 ;;		line 41 in file "I2C.c"
  4008 ;; Parameters:    Size  Location     Type
  4009 ;;		None
  4010 ;; Auto vars:     Size  Location     Type
  4011 ;;		None
  4012 ;; Return value:  Size  Location     Type
  4013 ;;                  1    wreg      void 
  4014 ;; Registers used:
  4015 ;;		wreg, status,2, status,0, pclath, cstack
  4016 ;; Tracked objects:
  4017 ;;		On entry : 0/0
  4018 ;;		On exit  : 0/0
  4019 ;;		Unchanged: 0/0
  4020 ;; Data sizes:     COMMON   BANK0   BANK1   BANK2   BANK3   BANK4   BANK5   BANK6   BANK7   BANK8   BANK9  BANK10  BANK1
      +1  BANK12  BANK13  BANK14  BANK15  BANK16  BANK17  BANK18  BANK19  BANK20  BANK21  BANK22  BANK23  BANK24  BANK25
  4021 ;;      Params:         0       0       0       0       0       0       0       0       0       0       0       0       
      +0       0       0       0       0       0       0       0       0       0       0       0       0       0       0
  4022 ;;      Locals:         0       0       0       0       0       0       0       0       0       0       0       0       
      +0       0       0       0       0       0       0       0       0       0       0       0       0       0       0
  4023 ;;      Temps:          1       0       0       0       0       0       0       0       0       0       0       0       
      +0       0       0       0       0       0       0       0       0       0       0       0       0       0       0
  4024 ;;      Totals:         1       0       0       0       0       0       0       0       0       0       0       0       
      +0       0       0       0       0       0       0       0       0       0       0       0       0       0       0
  4025 ;;Total ram usage:        1 bytes
  4026 ;; Hardware stack levels used: 1
  4027 ;; Hardware stack levels required when called: 1
  4028 ;; This function calls:
  4029 ;;		_I2C_ClearErrors
  4030 ;; This function is called by:
  4031 ;;		_main
  4032 ;; This function uses a non-reentrant model
  4033 ;;
  4034                           
  4035     018A                     _I2C_Init:	
  4036                           ;psect for function _I2C_Init
  4037                           
  4038     018A                     l1949:	
  4039                           ;incstack = 0
  4040                           ; Regs used in _I2C_Init: [wreg+status,2+status,0+pclath+cstack]
  4041                           
  4042                           
  4043                           ;I2C.c: 44:     SSPCONbits.SSPM = 0x08;
  4044     018A  0024               	movlb	4	; select bank4
  4045     018B  0815               	movf	21,w	;volatile
  4046     018C  39F0               	andlw	-16
  4047     018D  3808               	iorlw	8
  4048     018E  0095               	movwf	21	;volatile
  4049     018F                     l1951:
  4050                           
  4051                           ;I2C.c: 47:     SSPCONbits.SSPEN = 1;
  4052     018F  1695               	bsf	21,5	;volatile
  4053     0190                     l1953:
  4054                           
  4055                           ;I2C.c: 50:     SSPADD = 79;
  4056     0190  304F               	movlw	79
  4057     0191  0092               	movwf	18	;volatile
  4058     0192                     l1955:
  4059                           
  4060                           ;I2C.c: 52:     I2C_ClearErrors();
  4061     0192  3181  2166  3181   	fcall	_I2C_ClearErrors
  4062     0195                     l1957:
  4063                           
  4064                           ;I2C.c: 53:     _delay((unsigned long)((10)*(32000000/4000.0)));
  4065     0195  3068               	movlw	104
  4066     0196  00F0               	movwf	??_I2C_Init
  4067     0197  30E4               	movlw	228
  4068     0198                     u2187:
  4069     0198  0B89               	decfsz	9,f
  4070     0199  2998               	goto	u2187
  4071     019A  0BF0               	decfsz	??_I2C_Init,f
  4072     019B  2998               	goto	u2187
  4073     019C  3200               	nop2
  4074     019D                     l67:
  4075     019D  0008               	return
  4076     019E                     __end_of_I2C_Init:
  4077                           
  4078                           	psect	text12
  4079     0166                     __ptext12:	
  4080 ;; *************** function _I2C_ClearErrors *****************
  4081 ;; Defined at:
  4082 ;;		line 62 in file "I2C.c"
  4083 ;; Parameters:    Size  Location     Type
  4084 ;;		None
  4085 ;; Auto vars:     Size  Location     Type
  4086 ;;		None
  4087 ;; Return value:  Size  Location     Type
  4088 ;;                  1    wreg      void 
  4089 ;; Registers used:
  4090 ;;		None
  4091 ;; Tracked objects:
  4092 ;;		On entry : 0/0
  4093 ;;		On exit  : 0/0
  4094 ;;		Unchanged: 0/0
  4095 ;; Data sizes:     COMMON   BANK0   BANK1   BANK2   BANK3   BANK4   BANK5   BANK6   BANK7   BANK8   BANK9  BANK10  BANK1
      +1  BANK12  BANK13  BANK14  BANK15  BANK16  BANK17  BANK18  BANK19  BANK20  BANK21  BANK22  BANK23  BANK24  BANK25
  4096 ;;      Params:         0       0       0       0       0       0       0       0       0       0       0       0       
      +0       0       0       0       0       0       0       0       0       0       0       0       0       0       0
  4097 ;;      Locals:         0       0       0       0       0       0       0       0       0       0       0       0       
      +0       0       0       0       0       0       0       0       0       0       0       0       0       0       0
  4098 ;;      Temps:          0       0       0       0       0       0       0       0       0       0       0       0       
      +0       0       0       0       0       0       0       0       0       0       0       0       0       0       0
  4099 ;;      Totals:         0       0       0       0       0       0       0       0       0       0       0       0       
      +0       0       0       0       0       0       0       0       0       0       0       0       0       0       0
  4100 ;;Total ram usage:        0 bytes
  4101 ;; Hardware stack levels used: 1
  4102 ;; This function calls:
  4103 ;;		Nothing
  4104 ;; This function is called by:
  4105 ;;		_I2C_Init
  4106 ;; This function uses a non-reentrant model
  4107 ;;
  4108                           
  4109     0166                     _I2C_ClearErrors:	
  4110                           ;psect for function _I2C_ClearErrors
  4111                           
  4112     0166                     l1805:	
  4113                           ;incstack = 0
  4114                           ; Regs used in _I2C_ClearErrors: []
  4115                           
  4116                           
  4117                           ;I2C.c: 65:     SSPCON1bits.SSPOV = 0;
  4118     0166  0024               	movlb	4	; select bank4
  4119     0167  1315               	bcf	21,6	;volatile
  4120                           
  4121                           ;I2C.c: 66:     SSPCON1bits.WCOL = 0;
  4122     0168  1395               	bcf	21,7	;volatile
  4123                           
  4124                           ;I2C.c: 69:     PIR2bits.BCL1IF = 0;
  4125     0169  0020               	movlb	0	; select bank0
  4126     016A  1192               	bcf	18,3	;volatile
  4127                           
  4128                           ;I2C.c: 72:     PIR1bits.SSP1IF = 0;
  4129     016B  1191               	bcf	17,3	;volatile
  4130     016C                     l70:
  4131     016C  0008               	return
  4132     016D                     __end_of_I2C_ClearErrors:
  4133                           
  4134                           	psect	text13
  4135     03D9                     __ptext13:	
  4136 ;; *************** function _EUSART_Initialize *****************
  4137 ;; Defined at:
  4138 ;;		line 36 in file "EUSART.c"
  4139 ;; Parameters:    Size  Location     Type
  4140 ;;  baudrate        4    6[BANK0 ] const long 
  4141 ;; Auto vars:     Size  Location     Type
  4142 ;;  x               2    9[COMMON] unsigned int 
  4143 ;; Return value:  Size  Location     Type
  4144 ;;                  1    wreg      unsigned char 
  4145 ;; Registers used:
  4146 ;;		wreg, status,2, status,0, pclath, cstack
  4147 ;; Tracked objects:
  4148 ;;		On entry : 0/0
  4149 ;;		On exit  : 0/0
  4150 ;;		Unchanged: 0/0
  4151 ;; Data sizes:     COMMON   BANK0   BANK1   BANK2   BANK3   BANK4   BANK5   BANK6   BANK7   BANK8   BANK9  BANK10  BANK1
      +1  BANK12  BANK13  BANK14  BANK15  BANK16  BANK17  BANK18  BANK19  BANK20  BANK21  BANK22  BANK23  BANK24  BANK25
  4152 ;;      Params:         0       4       0       0       0       0       0       0       0       0       0       0       
      +0       0       0       0       0       0       0       0       0       0       0       0       0       0       0
  4153 ;;      Locals:         2       0       0       0       0       0       0       0       0       0       0       0       
      +0       0       0       0       0       0       0       0       0       0       0       0       0       0       0
  4154 ;;      Temps:          0      12       0       0       0       0       0       0       0       0       0       0       
      +0       0       0       0       0       0       0       0       0       0       0       0       0       0       0
  4155 ;;      Totals:         2      16       0       0       0       0       0       0       0       0       0       0       
      +0       0       0       0       0       0       0       0       0       0       0       0       0       0       0
  4156 ;;Total ram usage:       18 bytes
  4157 ;; Hardware stack levels used: 1
  4158 ;; Hardware stack levels required when called: 1
  4159 ;; This function calls:
  4160 ;;		___aldiv
  4161 ;; This function is called by:
  4162 ;;		_main
  4163 ;; This function uses a non-reentrant model
  4164 ;;
  4165                           
  4166     03D9                     _EUSART_Initialize:	
  4167                           ;psect for function _EUSART_Initialize
  4168                           
  4169     03D9                     l2031:	
  4170                           ;incstack = 0
  4171                           ; Regs used in _EUSART_Initialize: [wreg+status,2+status,0+pclath+cstack]
  4172                           
  4173                           
  4174                           ;EUSART.c: 36: char EUSART_Initialize(const long int baudrate);EUSART.c: 37: {;EUSART.c:
      +                           38:     unsigned int x;;EUSART.c: 39:  x = (32000000 - baudrate*64)/(baudrate*64);
  4175     03D9  0020               	movlb	0	; select bank0
  4176     03DA  0826               	movf	EUSART_Initialize@baudrate,w
  4177     03DB  00AA               	movwf	??_EUSART_Initialize
  4178     03DC  0827               	movf	EUSART_Initialize@baudrate+1,w
  4179     03DD  00AB               	movwf	??_EUSART_Initialize+1
  4180     03DE  0828               	movf	EUSART_Initialize@baudrate+2,w
  4181     03DF  00AC               	movwf	??_EUSART_Initialize+2
  4182     03E0  0829               	movf	EUSART_Initialize@baudrate+3,w
  4183     03E1  00AD               	movwf	??_EUSART_Initialize+3
  4184     03E2  3006               	movlw	6
  4185     03E3                     u1765:
  4186     03E3  35AA               	lslf	??_EUSART_Initialize,f
  4187     03E4  0DAB               	rlf	??_EUSART_Initialize+1,f
  4188     03E5  0DAC               	rlf	??_EUSART_Initialize+2,f
  4189     03E6  0DAD               	rlf	??_EUSART_Initialize+3,f
  4190     03E7                     u1760:
  4191     03E7  0B89               	decfsz	9,f
  4192     03E8  2BE3               	goto	u1765
  4193     03E9  082D               	movf	??_EUSART_Initialize+3,w
  4194     03EA  00F3               	movwf	___aldiv@divisor+3
  4195     03EB  082C               	movf	??_EUSART_Initialize+2,w
  4196     03EC  00F2               	movwf	___aldiv@divisor+2
  4197     03ED  082B               	movf	??_EUSART_Initialize+1,w
  4198     03EE  00F1               	movwf	___aldiv@divisor+1
  4199     03EF  082A               	movf	??_EUSART_Initialize,w
  4200     03F0  00F0               	movwf	___aldiv@divisor
  4201     03F1  0826               	movf	EUSART_Initialize@baudrate,w
  4202     03F2  00AE               	movwf	??_EUSART_Initialize+4
  4203     03F3  0827               	movf	EUSART_Initialize@baudrate+1,w
  4204     03F4  00AF               	movwf	??_EUSART_Initialize+5
  4205     03F5  0828               	movf	EUSART_Initialize@baudrate+2,w
  4206     03F6  00B0               	movwf	??_EUSART_Initialize+6
  4207     03F7  0829               	movf	EUSART_Initialize@baudrate+3,w
  4208     03F8  00B1               	movwf	??_EUSART_Initialize+7
  4209     03F9  3006               	movlw	6
  4210     03FA                     u1775:
  4211     03FA  35AE               	lslf	??_EUSART_Initialize+4,f
  4212     03FB  0DAF               	rlf	??_EUSART_Initialize+5,f
  4213     03FC  0DB0               	rlf	??_EUSART_Initialize+6,f
  4214     03FD  0DB1               	rlf	??_EUSART_Initialize+7,f
  4215     03FE                     u1770:
  4216     03FE  0B89               	decfsz	9,f
  4217     03FF  2BFA               	goto	u1775
  4218     0400  3000               	movlw	0
  4219     0401  00B2               	movwf	??_EUSART_Initialize+8
  4220     0402  3048               	movlw	72
  4221     0403  00B3               	movwf	??_EUSART_Initialize+9
  4222     0404  30E8               	movlw	232
  4223     0405  00B4               	movwf	??_EUSART_Initialize+10
  4224     0406  3001               	movlw	1
  4225     0407  00B5               	movwf	??_EUSART_Initialize+11
  4226     0408  082E               	movf	??_EUSART_Initialize+4,w
  4227     0409  02B2               	subwf	??_EUSART_Initialize+8,f
  4228     040A  082F               	movf	??_EUSART_Initialize+5,w
  4229     040B  3BB3               	subwfb	??_EUSART_Initialize+9,f
  4230     040C  0830               	movf	??_EUSART_Initialize+6,w
  4231     040D  3BB4               	subwfb	??_EUSART_Initialize+10,f
  4232     040E  0831               	movf	??_EUSART_Initialize+7,w
  4233     040F  3BB5               	subwfb	??_EUSART_Initialize+11,f
  4234     0410  0835               	movf	??_EUSART_Initialize+11,w
  4235     0411  00F7               	movwf	___aldiv@dividend+3
  4236     0412  0834               	movf	??_EUSART_Initialize+10,w
  4237     0413  00F6               	movwf	___aldiv@dividend+2
  4238     0414  0833               	movf	??_EUSART_Initialize+9,w
  4239     0415  00F5               	movwf	___aldiv@dividend+1
  4240     0416  0832               	movf	??_EUSART_Initialize+8,w
  4241     0417  00F4               	movwf	___aldiv@dividend
  4242     0418  3185  2586  3183   	fcall	___aldiv
  4243     041B  0871               	movf	?___aldiv+1,w
  4244     041C  00FA               	movwf	EUSART_Initialize@x+1
  4245     041D  0870               	movf	?___aldiv,w
  4246     041E  00F9               	movwf	EUSART_Initialize@x
  4247     041F                     l2033:
  4248                           
  4249                           ;EUSART.c: 41:  SPBRGL = x;
  4250     041F  0879               	movf	EUSART_Initialize@x,w
  4251     0420  0023               	movlb	3	; select bank3
  4252     0421  009B               	movwf	27	;volatile
  4253     0422                     l2035:
  4254                           
  4255                           ;EUSART.c: 42:     BRGH = 0;
  4256     0422  111E               	bcf	30,2	;volatile
  4257     0423                     l2037:
  4258                           
  4259                           ;EUSART.c: 43:     BRG16 = 0;
  4260     0423  119F               	bcf	31,3	;volatile
  4261     0424                     l2039:
  4262                           
  4263                           ;EUSART.c: 44:     SYNC = 0;
  4264     0424  121E               	bcf	30,4	;volatile
  4265     0425                     l2041:
  4266                           
  4267                           ;EUSART.c: 45:     SPEN = 1;
  4268     0425  179D               	bsf	29,7	;volatile
  4269     0426                     l2043:
  4270                           
  4271                           ;EUSART.c: 46:     CREN = 1;
  4272     0426  161D               	bsf	29,4	;volatile
  4273     0427                     l2045:
  4274                           
  4275                           ;EUSART.c: 47:     TXEN = 1;
  4276     0427  169E               	bsf	30,5	;volatile
  4277     0428                     l280:
  4278     0428  0008               	return
  4279     0429                     __end_of_EUSART_Initialize:
  4280                           
  4281                           	psect	text14
  4282     0586                     __ptext14:	
  4283 ;; *************** function ___aldiv *****************
  4284 ;; Defined at:
  4285 ;;		line 5 in file "C:\Program Files\Microchip\xc8\v2.46\pic\sources\c99\common\aldiv.c"
  4286 ;; Parameters:    Size  Location     Type
  4287 ;;  divisor         4    0[COMMON] long 
  4288 ;;  dividend        4    4[COMMON] long 
  4289 ;; Auto vars:     Size  Location     Type
  4290 ;;  quotient        4    2[BANK0 ] long 
  4291 ;;  sign            1    1[BANK0 ] unsigned char 
  4292 ;;  counter         1    0[BANK0 ] unsigned char 
  4293 ;; Return value:  Size  Location     Type
  4294 ;;                  4    0[COMMON] long 
  4295 ;; Registers used:
  4296 ;;		wreg, status,2, status,0
  4297 ;; Tracked objects:
  4298 ;;		On entry : 0/0
  4299 ;;		On exit  : 0/0
  4300 ;;		Unchanged: 0/0
  4301 ;; Data sizes:     COMMON   BANK0   BANK1   BANK2   BANK3   BANK4   BANK5   BANK6   BANK7   BANK8   BANK9  BANK10  BANK1
      +1  BANK12  BANK13  BANK14  BANK15  BANK16  BANK17  BANK18  BANK19  BANK20  BANK21  BANK22  BANK23  BANK24  BANK25
  4302 ;;      Params:         8       0       0       0       0       0       0       0       0       0       0       0       
      +0       0       0       0       0       0       0       0       0       0       0       0       0       0       0
  4303 ;;      Locals:         0       6       0       0       0       0       0       0       0       0       0       0       
      +0       0       0       0       0       0       0       0       0       0       0       0       0       0       0
  4304 ;;      Temps:          1       0       0       0       0       0       0       0       0       0       0       0       
      +0       0       0       0       0       0       0       0       0       0       0       0       0       0       0
  4305 ;;      Totals:         9       6       0       0       0       0       0       0       0       0       0       0       
      +0       0       0       0       0       0       0       0       0       0       0       0       0       0       0
  4306 ;;Total ram usage:       15 bytes
  4307 ;; Hardware stack levels used: 1
  4308 ;; This function calls:
  4309 ;;		Nothing
  4310 ;; This function is called by:
  4311 ;;		_EUSART_Initialize
  4312 ;; This function uses a non-reentrant model
  4313 ;;
  4314                           
  4315     0586                     ___aldiv:	
  4316                           ;psect for function ___aldiv
  4317                           
  4318     0586                     l1909:	
  4319                           ;incstack = 0
  4320                           ; Regs used in ___aldiv: [wreg+status,2+status,0]
  4321                           
  4322     0586  0020               	movlb	0	; select bank0
  4323     0587  01A1               	clrf	___aldiv@sign
  4324     0588                     l1911:
  4325     0588  1FF3               	btfss	___aldiv@divisor+3,7
  4326     0589  2D8B               	goto	u1631
  4327     058A  2D8C               	goto	u1630
  4328     058B                     u1631:
  4329     058B  2D99               	goto	l454
  4330     058C                     u1630:
  4331     058C                     l1913:
  4332     058C  09F0               	comf	___aldiv@divisor,f
  4333     058D  09F1               	comf	___aldiv@divisor+1,f
  4334     058E  09F2               	comf	___aldiv@divisor+2,f
  4335     058F  09F3               	comf	___aldiv@divisor+3,f
  4336     0590  0AF0               	incf	___aldiv@divisor,f
  4337     0591  1903               	skipnz
  4338     0592  0AF1               	incf	___aldiv@divisor+1,f
  4339     0593  1903               	skipnz
  4340     0594  0AF2               	incf	___aldiv@divisor+2,f
  4341     0595  1903               	skipnz
  4342     0596  0AF3               	incf	___aldiv@divisor+3,f
  4343     0597  01A1               	clrf	___aldiv@sign
  4344     0598  0AA1               	incf	___aldiv@sign,f
  4345     0599                     l454:
  4346     0599  1FF7               	btfss	___aldiv@dividend+3,7
  4347     059A  2D9C               	goto	u1641
  4348     059B  2D9D               	goto	u1640
  4349     059C                     u1641:
  4350     059C  2DAC               	goto	l1919
  4351     059D                     u1640:
  4352     059D                     l1915:
  4353     059D  09F4               	comf	___aldiv@dividend,f
  4354     059E  09F5               	comf	___aldiv@dividend+1,f
  4355     059F  09F6               	comf	___aldiv@dividend+2,f
  4356     05A0  09F7               	comf	___aldiv@dividend+3,f
  4357     05A1  0AF4               	incf	___aldiv@dividend,f
  4358     05A2  1903               	skipnz
  4359     05A3  0AF5               	incf	___aldiv@dividend+1,f
  4360     05A4  1903               	skipnz
  4361     05A5  0AF6               	incf	___aldiv@dividend+2,f
  4362     05A6  1903               	skipnz
  4363     05A7  0AF7               	incf	___aldiv@dividend+3,f
  4364     05A8                     l1917:
  4365     05A8  3001               	movlw	1
  4366     05A9  00F8               	movwf	??___aldiv
  4367     05AA  0878               	movf	??___aldiv,w
  4368     05AB  06A1               	xorwf	___aldiv@sign,f
  4369     05AC                     l1919:
  4370     05AC  3000               	movlw	0
  4371     05AD  00A5               	movwf	___aldiv@quotient+3
  4372     05AE  3000               	movlw	0
  4373     05AF  00A4               	movwf	___aldiv@quotient+2
  4374     05B0  3000               	movlw	0
  4375     05B1  00A3               	movwf	___aldiv@quotient+1
  4376     05B2  3000               	movlw	0
  4377     05B3  00A2               	movwf	___aldiv@quotient
  4378     05B4                     l1921:
  4379     05B4  0873               	movf	___aldiv@divisor+3,w
  4380     05B5  0472               	iorwf	___aldiv@divisor+2,w
  4381     05B6  0471               	iorwf	___aldiv@divisor+1,w
  4382     05B7  0470               	iorwf	___aldiv@divisor,w
  4383     05B8  1903               	skipnz
  4384     05B9  2DBB               	goto	u1651
  4385     05BA  2DBC               	goto	u1650
  4386     05BB                     u1651:
  4387     05BB  2DFD               	goto	l1941
  4388     05BC                     u1650:
  4389     05BC                     l1923:
  4390     05BC  01A0               	clrf	___aldiv@counter
  4391     05BD  0AA0               	incf	___aldiv@counter,f
  4392     05BE  2DCA               	goto	l1927
  4393     05BF                     l1925:
  4394     05BF  3001               	movlw	1
  4395     05C0                     u1665:
  4396     05C0  35F0               	lslf	___aldiv@divisor,f
  4397     05C1  0DF1               	rlf	___aldiv@divisor+1,f
  4398     05C2  0DF2               	rlf	___aldiv@divisor+2,f
  4399     05C3  0DF3               	rlf	___aldiv@divisor+3,f
  4400     05C4  0B89               	decfsz	9,f
  4401     05C5  2DC0               	goto	u1665
  4402     05C6  3001               	movlw	1
  4403     05C7  00F8               	movwf	??___aldiv
  4404     05C8  0878               	movf	??___aldiv,w
  4405     05C9  07A0               	addwf	___aldiv@counter,f
  4406     05CA                     l1927:
  4407     05CA  1FF3               	btfss	___aldiv@divisor+3,7
  4408     05CB  2DCD               	goto	u1671
  4409     05CC  2DCE               	goto	u1670
  4410     05CD                     u1671:
  4411     05CD  2DBF               	goto	l1925
  4412     05CE                     u1670:
  4413     05CE                     l1929:
  4414     05CE  3001               	movlw	1
  4415     05CF                     u1685:
  4416     05CF  35A2               	lslf	___aldiv@quotient,f
  4417     05D0  0DA3               	rlf	___aldiv@quotient+1,f
  4418     05D1  0DA4               	rlf	___aldiv@quotient+2,f
  4419     05D2  0DA5               	rlf	___aldiv@quotient+3,f
  4420     05D3  0B89               	decfsz	9,f
  4421     05D4  2DCF               	goto	u1685
  4422     05D5                     l1931:
  4423     05D5  0873               	movf	___aldiv@divisor+3,w
  4424     05D6  0277               	subwf	___aldiv@dividend+3,w
  4425     05D7  1D03               	skipz
  4426     05D8  2DE3               	goto	u1695
  4427     05D9  0872               	movf	___aldiv@divisor+2,w
  4428     05DA  0276               	subwf	___aldiv@dividend+2,w
  4429     05DB  1D03               	skipz
  4430     05DC  2DE3               	goto	u1695
  4431     05DD  0871               	movf	___aldiv@divisor+1,w
  4432     05DE  0275               	subwf	___aldiv@dividend+1,w
  4433     05DF  1D03               	skipz
  4434     05E0  2DE3               	goto	u1695
  4435     05E1  0870               	movf	___aldiv@divisor,w
  4436     05E2  0274               	subwf	___aldiv@dividend,w
  4437     05E3                     u1695:
  4438     05E3  1C03               	skipc
  4439     05E4  2DE6               	goto	u1691
  4440     05E5  2DE7               	goto	u1690
  4441     05E6                     u1691:
  4442     05E6  2DF0               	goto	l1937
  4443     05E7                     u1690:
  4444     05E7                     l1933:
  4445     05E7  0870               	movf	___aldiv@divisor,w
  4446     05E8  02F4               	subwf	___aldiv@dividend,f
  4447     05E9  0871               	movf	___aldiv@divisor+1,w
  4448     05EA  3BF5               	subwfb	___aldiv@dividend+1,f
  4449     05EB  0872               	movf	___aldiv@divisor+2,w
  4450     05EC  3BF6               	subwfb	___aldiv@dividend+2,f
  4451     05ED  0873               	movf	___aldiv@divisor+3,w
  4452     05EE  3BF7               	subwfb	___aldiv@dividend+3,f
  4453     05EF                     l1935:
  4454     05EF  1422               	bsf	___aldiv@quotient,0
  4455     05F0                     l1937:
  4456     05F0  3001               	movlw	1
  4457     05F1                     u1705:
  4458     05F1  36F3               	lsrf	___aldiv@divisor+3,f
  4459     05F2  0CF2               	rrf	___aldiv@divisor+2,f
  4460     05F3  0CF1               	rrf	___aldiv@divisor+1,f
  4461     05F4  0CF0               	rrf	___aldiv@divisor,f
  4462     05F5  0B89               	decfsz	9,f
  4463     05F6  2DF1               	goto	u1705
  4464     05F7                     l1939:
  4465     05F7  3001               	movlw	1
  4466     05F8  02A0               	subwf	___aldiv@counter,f
  4467     05F9  1D03               	btfss	3,2
  4468     05FA  2DFC               	goto	u1711
  4469     05FB  2DFD               	goto	u1710
  4470     05FC                     u1711:
  4471     05FC  2DCE               	goto	l1929
  4472     05FD                     u1710:
  4473     05FD                     l1941:
  4474     05FD  0821               	movf	___aldiv@sign,w
  4475     05FE  1903               	btfsc	3,2
  4476     05FF  2E01               	goto	u1721
  4477     0600  2E02               	goto	u1720
  4478     0601                     u1721:
  4479     0601  2E0D               	goto	l1945
  4480     0602                     u1720:
  4481     0602                     l1943:
  4482     0602  09A2               	comf	___aldiv@quotient,f
  4483     0603  09A3               	comf	___aldiv@quotient+1,f
  4484     0604  09A4               	comf	___aldiv@quotient+2,f
  4485     0605  09A5               	comf	___aldiv@quotient+3,f
  4486     0606  0AA2               	incf	___aldiv@quotient,f
  4487     0607  1903               	skipnz
  4488     0608  0AA3               	incf	___aldiv@quotient+1,f
  4489     0609  1903               	skipnz
  4490     060A  0AA4               	incf	___aldiv@quotient+2,f
  4491     060B  1903               	skipnz
  4492     060C  0AA5               	incf	___aldiv@quotient+3,f
  4493     060D                     l1945:
  4494     060D  0825               	movf	___aldiv@quotient+3,w
  4495     060E  00F3               	movwf	?___aldiv+3
  4496     060F  0824               	movf	___aldiv@quotient+2,w
  4497     0610  00F2               	movwf	?___aldiv+2
  4498     0611  0823               	movf	___aldiv@quotient+1,w
  4499     0612  00F1               	movwf	?___aldiv+1
  4500     0613  0822               	movf	___aldiv@quotient,w
  4501     0614  00F0               	movwf	?___aldiv
  4502     0615                     l464:
  4503     0615  0008               	return
  4504     0616                     __end_of___aldiv:
  4505                           
  4506                           	psect	text15
  4507     034B                     __ptext15:	
  4508 ;; *************** function _EEPROM24AA512_WriteByte *****************
  4509 ;; Defined at:
  4510 ;;		line 59 in file "EEPROM_24AA512.c"
  4511 ;; Parameters:    Size  Location     Type
  4512 ;;  addr            2    9[COMMON] unsigned short 
  4513 ;;  data            1   11[COMMON] unsigned char 
  4514 ;; Auto vars:     Size  Location     Type
  4515 ;;  st              1   12[COMMON] enum E6036
  4516 ;; Return value:  Size  Location     Type
  4517 ;;                  1    wreg      enum E6055
  4518 ;; Registers used:
  4519 ;;		wreg, status,2, status,0, pclath, cstack
  4520 ;; Tracked objects:
  4521 ;;		On entry : 0/0
  4522 ;;		On exit  : 0/0
  4523 ;;		Unchanged: 0/0
  4524 ;; Data sizes:     COMMON   BANK0   BANK1   BANK2   BANK3   BANK4   BANK5   BANK6   BANK7   BANK8   BANK9  BANK10  BANK1
      +1  BANK12  BANK13  BANK14  BANK15  BANK16  BANK17  BANK18  BANK19  BANK20  BANK21  BANK22  BANK23  BANK24  BANK25
  4525 ;;      Params:         3       0       0       0       0       0       0       0       0       0       0       0       
      +0       0       0       0       0       0       0       0       0       0       0       0       0       0       0
  4526 ;;      Locals:         1       0       0       0       0       0       0       0       0       0       0       0       
      +0       0       0       0       0       0       0       0       0       0       0       0       0       0       0
  4527 ;;      Temps:          0       0       0       0       0       0       0       0       0       0       0       0       
      +0       0       0       0       0       0       0       0       0       0       0       0       0       0       0
  4528 ;;      Totals:         4       0       0       0       0       0       0       0       0       0       0       0       
      +0       0       0       0       0       0       0       0       0       0       0       0       0       0       0
  4529 ;;Total ram usage:        4 bytes
  4530 ;; Hardware stack levels used: 1
  4531 ;; Hardware stack levels required when called: 3
  4532 ;; This function calls:
  4533 ;;		_EEPROM24AA512_AckPoll
  4534 ;;		_EEPROM24AA512_Ctrl
  4535 ;;		_I2C_Start
  4536 ;;		_I2C_Stop
  4537 ;;		_I2C_WriteByte
  4538 ;; This function is called by:
  4539 ;;		_main
  4540 ;; This function uses a non-reentrant model
  4541 ;;
  4542                           
  4543     034B                     _EEPROM24AA512_WriteByte:	
  4544                           ;psect for function _EEPROM24AA512_WriteByte
  4545                           
  4546     034B                     l2049:	
  4547                           ;incstack = 0
  4548                           ; Regs used in _EEPROM24AA512_WriteByte: [wreg+status,2+status,0+pclath+cstack]
  4549                           
  4550                           
  4551                           ;EEPROM_24AA512.c: 59: I2C_Status_t EEPROM24AA512_WriteByte(uint16_t addr, uint8_t data)
      +                          ;EEPROM_24AA512.c: 60: {;EEPROM_24AA512.c: 61:     I2C_Status_t st;;EEPROM_24AA512.c: 63
      +                          :     if ((st = I2C_Start()) != I2C_OK) return st;
  4552     034B  3182  2288  3183   	fcall	_I2C_Start
  4553     034E  00FC               	movwf	EEPROM24AA512_WriteByte@st
  4554     034F  087C               	movf	EEPROM24AA512_WriteByte@st,w
  4555     0350  1903               	btfsc	3,2
  4556     0351  2B53               	goto	u1781
  4557     0352  2B54               	goto	u1780
  4558     0353                     u1781:
  4559     0353  2B56               	goto	l2055
  4560     0354                     u1780:
  4561     0354                     l2051:
  4562     0354  087C               	movf	EEPROM24AA512_WriteByte@st,w
  4563     0355  2B8B               	goto	l203
  4564     0356                     l2055:
  4565                           
  4566                           ;EEPROM_24AA512.c: 64:     if ((st = I2C_WriteByte(EEPROM24AA512_Ctrl(0))) != I2C_OK) go
      +                          to stop;
  4567     0356  3000               	movlw	0
  4568     0357  3181  2176  3183   	fcall	_EEPROM24AA512_Ctrl
  4569     035A  3182  22DB  3183   	fcall	_I2C_WriteByte
  4570     035D  00FC               	movwf	EEPROM24AA512_WriteByte@st
  4571     035E  087C               	movf	EEPROM24AA512_WriteByte@st,w
  4572     035F  1903               	btfsc	3,2
  4573     0360  2B62               	goto	u1791
  4574     0361  2B63               	goto	u1790
  4575     0362                     u1791:
  4576     0362  2B64               	goto	l2059
  4577     0363                     u1790:
  4578     0363  2B7F               	goto	l2071
  4579     0364                     l2059:
  4580                           
  4581                           ;EEPROM_24AA512.c: 65:     if ((st = I2C_WriteByte(addr >> 8)) != I2C_OK) goto stop;
  4582     0364  087A               	movf	EEPROM24AA512_WriteByte@addr+1,w
  4583     0365  3182  22DB  3183   	fcall	_I2C_WriteByte
  4584     0368  00FC               	movwf	EEPROM24AA512_WriteByte@st
  4585     0369  087C               	movf	EEPROM24AA512_WriteByte@st,w
  4586     036A  1903               	btfsc	3,2
  4587     036B  2B6D               	goto	u1801
  4588     036C  2B6E               	goto	u1800
  4589     036D                     u1801:
  4590     036D  2B6F               	goto	l2063
  4591     036E                     u1800:
  4592     036E  2B7F               	goto	l2071
  4593     036F                     l2063:
  4594                           
  4595                           ;EEPROM_24AA512.c: 66:     if ((st = I2C_WriteByte(addr & 0xFF)) != I2C_OK) goto stop;
  4596     036F  0879               	movf	EEPROM24AA512_WriteByte@addr,w
  4597     0370  3182  22DB  3183   	fcall	_I2C_WriteByte
  4598     0373  00FC               	movwf	EEPROM24AA512_WriteByte@st
  4599     0374  087C               	movf	EEPROM24AA512_WriteByte@st,w
  4600     0375  1903               	btfsc	3,2
  4601     0376  2B78               	goto	u1811
  4602     0377  2B79               	goto	u1810
  4603     0378                     u1811:
  4604     0378  2B7A               	goto	l2067
  4605     0379                     u1810:
  4606     0379  2B7F               	goto	l2071
  4607     037A                     l2067:
  4608                           
  4609                           ;EEPROM_24AA512.c: 67:     if ((st = I2C_WriteByte(data)) != I2C_OK) goto stop;
  4610     037A  087B               	movf	EEPROM24AA512_WriteByte@data,w
  4611     037B  3182  22DB  3183   	fcall	_I2C_WriteByte
  4612     037E  00FC               	movwf	EEPROM24AA512_WriteByte@st
  4613     037F                     l2071:
  4614                           
  4615                           ;EEPROM_24AA512.c: 70:     I2C_Stop();
  4616     037F  3181  21F8  3183   	fcall	_I2C_Stop
  4617     0382                     l2073:
  4618                           
  4619                           ;EEPROM_24AA512.c: 71:     if (st != I2C_OK) return st;
  4620     0382  087C               	movf	EEPROM24AA512_WriteByte@st,w
  4621     0383  1903               	btfsc	3,2
  4622     0384  2B86               	goto	u1821
  4623     0385  2B87               	goto	u1820
  4624     0386                     u1821:
  4625     0386  2B88               	goto	l2079
  4626     0387                     u1820:
  4627     0387  2B54               	goto	l2051
  4628     0388                     l2079:
  4629                           
  4630                           ;EEPROM_24AA512.c: 73:     return EEPROM24AA512_AckPoll();
  4631     0388  3182  22AD  3183   	fcall	_EEPROM24AA512_AckPoll
  4632     038B                     l203:
  4633     038B  0008               	return
  4634     038C                     __end_of_EEPROM24AA512_WriteByte:
  4635                           
  4636                           	psect	text16
  4637     02AD                     __ptext16:	
  4638 ;; *************** function _EEPROM24AA512_AckPoll *****************
  4639 ;; Defined at:
  4640 ;;		line 38 in file "EEPROM_24AA512.c"
  4641 ;; Parameters:    Size  Location     Type
  4642 ;;		None
  4643 ;; Auto vars:     Size  Location     Type
  4644 ;;  st              1    6[COMMON] enum E6036
  4645 ;;  t               2    7[COMMON] unsigned short 
  4646 ;; Return value:  Size  Location     Type
  4647 ;;                  1    wreg      enum E6036
  4648 ;; Registers used:
  4649 ;;		wreg, status,2, status,0, pclath, cstack
  4650 ;; Tracked objects:
  4651 ;;		On entry : 0/0
  4652 ;;		On exit  : 0/0
  4653 ;;		Unchanged: 0/0
  4654 ;; Data sizes:     COMMON   BANK0   BANK1   BANK2   BANK3   BANK4   BANK5   BANK6   BANK7   BANK8   BANK9  BANK10  BANK1
      +1  BANK12  BANK13  BANK14  BANK15  BANK16  BANK17  BANK18  BANK19  BANK20  BANK21  BANK22  BANK23  BANK24  BANK25
  4655 ;;      Params:         0       0       0       0       0       0       0       0       0       0       0       0       
      +0       0       0       0       0       0       0       0       0       0       0       0       0       0       0
  4656 ;;      Locals:         3       0       0       0       0       0       0       0       0       0       0       0       
      +0       0       0       0       0       0       0       0       0       0       0       0       0       0       0
  4657 ;;      Temps:          1       0       0       0       0       0       0       0       0       0       0       0       
      +0       0       0       0       0       0       0       0       0       0       0       0       0       0       0
  4658 ;;      Totals:         4       0       0       0       0       0       0       0       0       0       0       0       
      +0       0       0       0       0       0       0       0       0       0       0       0       0       0       0
  4659 ;;Total ram usage:        4 bytes
  4660 ;; Hardware stack levels used: 1
  4661 ;; Hardware stack levels required when called: 2
  4662 ;; This function calls:
  4663 ;;		_EEPROM24AA512_Ctrl
  4664 ;;		_I2C_Start
  4665 ;;		_I2C_Stop
  4666 ;;		_I2C_WriteByte
  4667 ;; This function is called by:
  4668 ;;		_EEPROM24AA512_WriteByte
  4669 ;;		_EEPROM24AA512_WritePage
  4670 ;; This function uses a non-reentrant model
  4671 ;;
  4672                           
  4673     02AD                     _EEPROM24AA512_AckPoll:	
  4674                           ;psect for function _EEPROM24AA512_AckPoll
  4675                           
  4676     02AD                     l1889:	
  4677                           ;incstack = 0
  4678                           ; Regs used in _EEPROM24AA512_AckPoll: [wreg+status,2+status,0+pclath+cstack]
  4679                           
  4680                           
  4681                           ;EEPROM_24AA512.c: 40:     for (uint16_t t = 0; t < 200; t++)
  4682     02AD  01F7               	clrf	EEPROM24AA512_AckPoll@t
  4683     02AE  01F8               	clrf	EEPROM24AA512_AckPoll@t+1
  4684     02AF                     l1895:
  4685                           
  4686                           ;EEPROM_24AA512.c: 41:     {;EEPROM_24AA512.c: 42:         I2C_Start();
  4687     02AF  3182  2288  3182   	fcall	_I2C_Start
  4688                           
  4689                           ;EEPROM_24AA512.c: 43:         I2C_Status_t st = I2C_WriteByte(EEPROM24AA512_Ctrl(0));
  4690     02B2  3000               	movlw	0
  4691     02B3  3181  2176  3182   	fcall	_EEPROM24AA512_Ctrl
  4692     02B6  3182  22DB  3182   	fcall	_I2C_WriteByte
  4693     02B9  00F6               	movwf	EEPROM24AA512_AckPoll@st
  4694                           
  4695                           ;EEPROM_24AA512.c: 44:         I2C_Stop();
  4696     02BA  3181  21F8  3182   	fcall	_I2C_Stop
  4697     02BD                     l1897:
  4698                           
  4699                           ;EEPROM_24AA512.c: 46:         if (st == I2C_OK)
  4700     02BD  0876               	movf	EEPROM24AA512_AckPoll@st,w
  4701     02BE  1D03               	btfss	3,2
  4702     02BF  2AC1               	goto	u1611
  4703     02C0  2AC2               	goto	u1610
  4704     02C1                     u1611:
  4705     02C1  2AC4               	goto	l1903
  4706     02C2                     u1610:
  4707     02C2                     l1899:
  4708                           
  4709                           ;EEPROM_24AA512.c: 47:             return I2C_OK;
  4710     02C2  3000               	movlw	0
  4711     02C3  2ADA               	goto	l199
  4712     02C4                     l1903:
  4713                           
  4714                           ;EEPROM_24AA512.c: 49:         _delay((unsigned long)((1)*(32000000/4000.0)));
  4715     02C4  300B               	movlw	11
  4716     02C5  00F5               	movwf	??_EEPROM24AA512_AckPoll
  4717     02C6  3062               	movlw	98
  4718     02C7                     u2197:
  4719     02C7  0B89               	decfsz	9,f
  4720     02C8  2AC7               	goto	u2197
  4721     02C9  0BF5               	decfsz	??_EEPROM24AA512_AckPoll,f
  4722     02CA  2AC7               	goto	u2197
  4723     02CB  3200               	nop2
  4724                           
  4725                           ;EEPROM_24AA512.c: 50:     }
  4726     02CC  3001               	movlw	1
  4727     02CD  07F7               	addwf	EEPROM24AA512_AckPoll@t,f
  4728     02CE  3000               	movlw	0
  4729     02CF  3DF8               	addwfc	EEPROM24AA512_AckPoll@t+1,f
  4730     02D0  3000               	movlw	0
  4731     02D1  0278               	subwf	EEPROM24AA512_AckPoll@t+1,w
  4732     02D2  30C8               	movlw	200
  4733     02D3  1903               	skipnz
  4734     02D4  0277               	subwf	EEPROM24AA512_AckPoll@t,w
  4735     02D5  1C03               	skipc
  4736     02D6  2AD8               	goto	u1621
  4737     02D7  2AD9               	goto	u1620
  4738     02D8                     u1621:
  4739     02D8  2AAF               	goto	l1895
  4740     02D9                     u1620:
  4741     02D9                     l1905:
  4742                           
  4743                           ;EEPROM_24AA512.c: 51:     return I2C_TIMEOUT;
  4744     02D9  3002               	movlw	2
  4745     02DA                     l199:
  4746     02DA  0008               	return
  4747     02DB                     __end_of_EEPROM24AA512_AckPoll:
  4748                           
  4749                           	psect	text17
  4750     04CE                     __ptext17:	
  4751 ;; *************** function _EEPROM24AA512_ReadByte *****************
  4752 ;; Defined at:
  4753 ;;		line 81 in file "EEPROM_24AA512.c"
  4754 ;; Parameters:    Size  Location     Type
  4755 ;;  addr            2    6[COMMON] unsigned short 
  4756 ;;  data            1    8[COMMON] PTR unsigned char 
  4757 ;;		 -> main@readVal(1), 
  4758 ;; Auto vars:     Size  Location     Type
  4759 ;;  st              1    9[COMMON] enum E6036
  4760 ;; Return value:  Size  Location     Type
  4761 ;;                  1    wreg      enum E6055
  4762 ;; Registers used:
  4763 ;;		wreg, fsr1l, fsr1h, status,2, status,0, pclath, cstack
  4764 ;; Tracked objects:
  4765 ;;		On entry : 0/0
  4766 ;;		On exit  : 0/0
  4767 ;;		Unchanged: 0/0
  4768 ;; Data sizes:     COMMON   BANK0   BANK1   BANK2   BANK3   BANK4   BANK5   BANK6   BANK7   BANK8   BANK9  BANK10  BANK1
      +1  BANK12  BANK13  BANK14  BANK15  BANK16  BANK17  BANK18  BANK19  BANK20  BANK21  BANK22  BANK23  BANK24  BANK25
  4769 ;;      Params:         3       0       0       0       0       0       0       0       0       0       0       0       
      +0       0       0       0       0       0       0       0       0       0       0       0       0       0       0
  4770 ;;      Locals:         1       0       0       0       0       0       0       0       0       0       0       0       
      +0       0       0       0       0       0       0       0       0       0       0       0       0       0       0
  4771 ;;      Temps:          0       0       0       0       0       0       0       0       0       0       0       0       
      +0       0       0       0       0       0       0       0       0       0       0       0       0       0       0
  4772 ;;      Totals:         4       0       0       0       0       0       0       0       0       0       0       0       
      +0       0       0       0       0       0       0       0       0       0       0       0       0       0       0
  4773 ;;Total ram usage:        4 bytes
  4774 ;; Hardware stack levels used: 1
  4775 ;; Hardware stack levels required when called: 2
  4776 ;; This function calls:
  4777 ;;		_EEPROM24AA512_Ctrl
  4778 ;;		_I2C_ReadByte
  4779 ;;		_I2C_RepeatedStart
  4780 ;;		_I2C_Start
  4781 ;;		_I2C_Stop
  4782 ;;		_I2C_WriteByte
  4783 ;; This function is called by:
  4784 ;;		_main
  4785 ;; This function uses a non-reentrant model
  4786 ;;
  4787                           
  4788     04CE                     _EEPROM24AA512_ReadByte:	
  4789                           ;psect for function _EEPROM24AA512_ReadByte
  4790                           
  4791     04CE                     l2083:	
  4792                           ;incstack = 0
  4793                           ; Regs used in _EEPROM24AA512_ReadByte: [wreg+fsr1l+fsr1h+status,2+status,0+pclath+cstac
      +                          k]
  4794                           
  4795                           
  4796                           ;EEPROM_24AA512.c: 81: I2C_Status_t EEPROM24AA512_ReadByte(uint16_t addr, uint8_t *data)
      +                          ;EEPROM_24AA512.c: 82: {;EEPROM_24AA512.c: 83:     I2C_Status_t st;;EEPROM_24AA512.c: 85
      +                          :     if (data == ((void*)0)) return I2C_TIMEOUT;
  4797     04CE  0878               	movf	EEPROM24AA512_ReadByte@data,w
  4798     04CF  1D03               	btfss	3,2
  4799     04D0  2CD2               	goto	u1831
  4800     04D1  2CD3               	goto	u1830
  4801     04D2                     u1831:
  4802     04D2  2CD5               	goto	l2089
  4803     04D3                     u1830:
  4804     04D3                     l2085:
  4805     04D3  3002               	movlw	2
  4806     04D4  2D26               	goto	l213
  4807     04D5                     l2089:
  4808                           
  4809                           ;EEPROM_24AA512.c: 87:     if ((st = I2C_Start()) != I2C_OK) return st;
  4810     04D5  3182  2288  3184   	fcall	_I2C_Start
  4811     04D8  00F9               	movwf	EEPROM24AA512_ReadByte@st
  4812     04D9  0879               	movf	EEPROM24AA512_ReadByte@st,w
  4813     04DA  1903               	btfsc	3,2
  4814     04DB  2CDD               	goto	u1841
  4815     04DC  2CDE               	goto	u1840
  4816     04DD                     u1841:
  4817     04DD  2CE0               	goto	l2095
  4818     04DE                     u1840:
  4819     04DE                     l2091:
  4820     04DE  0879               	movf	EEPROM24AA512_ReadByte@st,w
  4821     04DF  2D26               	goto	l213
  4822     04E0                     l2095:
  4823                           
  4824                           ;EEPROM_24AA512.c: 88:     if ((st = I2C_WriteByte(EEPROM24AA512_Ctrl(0))) != I2C_OK) go
      +                          to stop;
  4825     04E0  3000               	movlw	0
  4826     04E1  3181  2176  3184   	fcall	_EEPROM24AA512_Ctrl
  4827     04E4  3182  22DB  3184   	fcall	_I2C_WriteByte
  4828     04E7  00F9               	movwf	EEPROM24AA512_ReadByte@st
  4829     04E8  0879               	movf	EEPROM24AA512_ReadByte@st,w
  4830     04E9  1903               	btfsc	3,2
  4831     04EA  2CEC               	goto	u1851
  4832     04EB  2CED               	goto	u1850
  4833     04EC                     u1851:
  4834     04EC  2CEE               	goto	l2099
  4835     04ED                     u1850:
  4836     04ED  2D22               	goto	l2117
  4837     04EE                     l2099:
  4838                           
  4839                           ;EEPROM_24AA512.c: 89:     if ((st = I2C_WriteByte(addr >> 8)) != I2C_OK) goto stop;
  4840     04EE  0877               	movf	EEPROM24AA512_ReadByte@addr+1,w
  4841     04EF  3182  22DB  3184   	fcall	_I2C_WriteByte
  4842     04F2  00F9               	movwf	EEPROM24AA512_ReadByte@st
  4843     04F3  0879               	movf	EEPROM24AA512_ReadByte@st,w
  4844     04F4  1903               	btfsc	3,2
  4845     04F5  2CF7               	goto	u1861
  4846     04F6  2CF8               	goto	u1860
  4847     04F7                     u1861:
  4848     04F7  2CF9               	goto	l2103
  4849     04F8                     u1860:
  4850     04F8  2D22               	goto	l2117
  4851     04F9                     l2103:
  4852                           
  4853                           ;EEPROM_24AA512.c: 90:     if ((st = I2C_WriteByte(addr & 0xFF)) != I2C_OK) goto stop;
  4854     04F9  0876               	movf	EEPROM24AA512_ReadByte@addr,w
  4855     04FA  3182  22DB  3184   	fcall	_I2C_WriteByte
  4856     04FD  00F9               	movwf	EEPROM24AA512_ReadByte@st
  4857     04FE  0879               	movf	EEPROM24AA512_ReadByte@st,w
  4858     04FF  1903               	btfsc	3,2
  4859     0500  2D02               	goto	u1871
  4860     0501  2D03               	goto	u1870
  4861     0502                     u1871:
  4862     0502  2D04               	goto	l2107
  4863     0503                     u1870:
  4864     0503  2D22               	goto	l2117
  4865     0504                     l2107:
  4866                           
  4867                           ;EEPROM_24AA512.c: 92:     if ((st = I2C_RepeatedStart()) != I2C_OK) goto stop;
  4868     0504  3182  2263  3184   	fcall	_I2C_RepeatedStart
  4869     0507  00F9               	movwf	EEPROM24AA512_ReadByte@st
  4870     0508  0879               	movf	EEPROM24AA512_ReadByte@st,w
  4871     0509  1903               	btfsc	3,2
  4872     050A  2D0C               	goto	u1881
  4873     050B  2D0D               	goto	u1880
  4874     050C                     u1881:
  4875     050C  2D0E               	goto	l2111
  4876     050D                     u1880:
  4877     050D  2D22               	goto	l2117
  4878     050E                     l2111:
  4879                           
  4880                           ;EEPROM_24AA512.c: 93:     if ((st = I2C_WriteByte(EEPROM24AA512_Ctrl(1))) != I2C_OK) go
      +                          to stop;
  4881     050E  3001               	movlw	1
  4882     050F  3181  2176  3184   	fcall	_EEPROM24AA512_Ctrl
  4883     0512  3182  22DB  3184   	fcall	_I2C_WriteByte
  4884     0515  00F9               	movwf	EEPROM24AA512_ReadByte@st
  4885     0516  0879               	movf	EEPROM24AA512_ReadByte@st,w
  4886     0517  1903               	btfsc	3,2
  4887     0518  2D1A               	goto	u1891
  4888     0519  2D1B               	goto	u1890
  4889     051A                     u1891:
  4890     051A  2D1C               	goto	l2115
  4891     051B                     u1890:
  4892     051B  2D22               	goto	l2117
  4893     051C                     l2115:
  4894                           
  4895                           ;EEPROM_24AA512.c: 95:     st = I2C_ReadByte(data, 0);
  4896     051C  01F3               	clrf	I2C_ReadByte@ack
  4897     051D  0878               	movf	EEPROM24AA512_ReadByte@data,w
  4898     051E  3183  238C  3184   	fcall	_I2C_ReadByte
  4899     0521  00F9               	movwf	EEPROM24AA512_ReadByte@st
  4900     0522                     l2117:
  4901                           
  4902                           ;EEPROM_24AA512.c: 98:     I2C_Stop();
  4903     0522  3181  21F8  3184   	fcall	_I2C_Stop
  4904     0525  2CDE               	goto	l2091
  4905     0526                     l213:
  4906     0526  0008               	return
  4907     0527                     __end_of_EEPROM24AA512_ReadByte:
  4908                           
  4909                           	psect	text18
  4910     02DB                     __ptext18:	
  4911 ;; *************** function _I2C_WriteByte *****************
  4912 ;; Defined at:
  4913 ;;		line 161 in file "I2C.c"
  4914 ;; Parameters:    Size  Location     Type
  4915 ;;  data            1    wreg     unsigned char 
  4916 ;; Auto vars:     Size  Location     Type
  4917 ;;  data            1    3[COMMON] unsigned char 
  4918 ;;  st              1    4[COMMON] enum E6036
  4919 ;; Return value:  Size  Location     Type
  4920 ;;                  1    wreg      enum E6036
  4921 ;; Registers used:
  4922 ;;		wreg, status,2, status,0, pclath, cstack
  4923 ;; Tracked objects:
  4924 ;;		On entry : 0/0
  4925 ;;		On exit  : 0/0
  4926 ;;		Unchanged: 0/0
  4927 ;; Data sizes:     COMMON   BANK0   BANK1   BANK2   BANK3   BANK4   BANK5   BANK6   BANK7   BANK8   BANK9  BANK10  BANK1
      +1  BANK12  BANK13  BANK14  BANK15  BANK16  BANK17  BANK18  BANK19  BANK20  BANK21  BANK22  BANK23  BANK24  BANK25
  4928 ;;      Params:         0       0       0       0       0       0       0       0       0       0       0       0       
      +0       0       0       0       0       0       0       0       0       0       0       0       0       0       0
  4929 ;;      Locals:         2       0       0       0       0       0       0       0       0       0       0       0       
      +0       0       0       0       0       0       0       0       0       0       0       0       0       0       0
  4930 ;;      Temps:          0       0       0       0       0       0       0       0       0       0       0       0       
      +0       0       0       0       0       0       0       0       0       0       0       0       0       0       0
  4931 ;;      Totals:         2       0       0       0       0       0       0       0       0       0       0       0       
      +0       0       0       0       0       0       0       0       0       0       0       0       0       0       0
  4932 ;;Total ram usage:        2 bytes
  4933 ;; Hardware stack levels used: 1
  4934 ;; Hardware stack levels required when called: 1
  4935 ;; This function calls:
  4936 ;;		_I2C_WaitIF
  4937 ;;		_I2C_WaitIdle
  4938 ;; This function is called by:
  4939 ;;		_I2C_ScanBus
  4940 ;;		_EEPROM24AA512_AckPoll
  4941 ;;		_EEPROM24AA512_WriteByte
  4942 ;;		_EEPROM24AA512_ReadByte
  4943 ;;		_EEPROM24AA512_WritePage
  4944 ;;		_EEPROM24AA512_ReadSequential
  4945 ;; This function uses a non-reentrant model
  4946 ;;
  4947                           
  4948     02DB                     _I2C_WriteByte:	
  4949                           ;psect for function _I2C_WriteByte
  4950                           
  4951                           
  4952                           ;incstack = 0
  4953                           ; Regs used in _I2C_WriteByte: [wreg+status,2+status,0+pclath+cstack]
  4954                           ;I2C_WriteByte@data stored from wreg
  4955     02DB  00F3               	movwf	I2C_WriteByte@data
  4956     02DC                     l1749:
  4957                           
  4958                           ;I2C.c: 161: I2C_Status_t I2C_WriteByte(uint8_t data);I2C.c: 162: {;I2C.c: 163:     I2C_
      +                          Status_t st;;I2C.c: 165:     st = I2C_WaitIdle(50);
  4959     02DC  3032               	movlw	50
  4960     02DD  00F0               	movwf	I2C_WaitIdle@timeout_ms
  4961     02DE  3000               	movlw	0
  4962     02DF  00F1               	movwf	I2C_WaitIdle@timeout_ms+1
  4963     02E0  3182  221B  3182   	fcall	_I2C_WaitIdle
  4964     02E3  00F4               	movwf	I2C_WriteByte@st
  4965     02E4                     l1751:
  4966                           
  4967                           ;I2C.c: 166:     if (st != I2C_OK) return st;
  4968     02E4  0874               	movf	I2C_WriteByte@st,w
  4969     02E5  1903               	btfsc	3,2
  4970     02E6  2AE8               	goto	u1421
  4971     02E7  2AE9               	goto	u1420
  4972     02E8                     u1421:
  4973     02E8  2AEB               	goto	l95
  4974     02E9                     u1420:
  4975     02E9                     l1753:
  4976     02E9  0874               	movf	I2C_WriteByte@st,w
  4977     02EA  2B0C               	goto	l96
  4978     02EB                     l95:
  4979                           
  4980                           ;I2C.c: 168:     PIR1bits.SSP1IF = 0;
  4981     02EB  0020               	movlb	0	; select bank0
  4982     02EC  1191               	bcf	17,3	;volatile
  4983     02ED                     l1757:
  4984                           
  4985                           ;I2C.c: 169:     SSPBUF = data;
  4986     02ED  0873               	movf	I2C_WriteByte@data,w
  4987     02EE  0024               	movlb	4	; select bank4
  4988     02EF  0091               	movwf	17	;volatile
  4989     02F0                     l1759:
  4990                           
  4991                           ;I2C.c: 171:     st = I2C_WaitIF(50);
  4992     02F0  3032               	movlw	50
  4993     02F1  00F0               	movwf	I2C_WaitIF@timeout_ms
  4994     02F2  3000               	movlw	0
  4995     02F3  00F1               	movwf	I2C_WaitIF@timeout_ms+1
  4996     02F4  3181  21BB  3182   	fcall	_I2C_WaitIF
  4997     02F7  00F4               	movwf	I2C_WriteByte@st
  4998     02F8                     l1761:
  4999                           
  5000                           ;I2C.c: 172:     if (st != I2C_OK) return st;
  5001     02F8  0874               	movf	I2C_WriteByte@st,w
  5002     02F9  1903               	btfsc	3,2
  5003     02FA  2AFC               	goto	u1431
  5004     02FB  2AFD               	goto	u1430
  5005     02FC                     u1431:
  5006     02FC  2AFE               	goto	l97
  5007     02FD                     u1430:
  5008     02FD  2AE9               	goto	l1753
  5009     02FE                     l97:
  5010                           
  5011                           ;I2C.c: 175:     if (PIR2bits.BCL1IF)
  5012     02FE  0020               	movlb	0	; select bank0
  5013     02FF  1D92               	btfss	18,3	;volatile
  5014     0300  2B02               	goto	u1441
  5015     0301  2B03               	goto	u1440
  5016     0302                     u1441:
  5017     0302  2B06               	goto	l98
  5018     0303                     u1440:
  5019     0303                     l1767:
  5020                           
  5021                           ;I2C.c: 176:     {;I2C.c: 177:         PIR2bits.BCL1IF = 0;
  5022     0303  1192               	bcf	18,3	;volatile
  5023     0304                     l1769:
  5024                           
  5025                           ;I2C.c: 178:         return I2C_BUS_COLLISION;
  5026     0304  3003               	movlw	3
  5027     0305  2B0C               	goto	l96
  5028     0306                     l98:	
  5029                           ;I2C.c: 179:     }
  5030                           
  5031                           
  5032                           ;I2C.c: 182:     PIR1bits.SSP1IF = 0;
  5033     0306  1191               	bcf	17,3	;volatile
  5034     0307                     l1773:
  5035                           
  5036                           ;I2C.c: 183:     return (SSPCON2bits.ACKSTAT == 0) ? I2C_OK : I2C_NAK;
  5037     0307  0024               	movlb	4	; select bank4
  5038     0308  0E16               	swapf	22,w	;volatile
  5039     0309  0C89               	rrf	9,f
  5040     030A  0C89               	rrf	9,f
  5041     030B  3901               	andlw	1
  5042     030C                     l96:
  5043     030C  0008               	return
  5044     030D                     __end_of_I2C_WriteByte:
  5045                           
  5046                           	psect	text19
  5047     01F8                     __ptext19:	
  5048 ;; *************** function _I2C_Stop *****************
  5049 ;; Defined at:
  5050 ;;		line 138 in file "I2C.c"
  5051 ;; Parameters:    Size  Location     Type
  5052 ;;		None
  5053 ;; Auto vars:     Size  Location     Type
  5054 ;;  st              1    3[COMMON] enum E6036
  5055 ;; Return value:  Size  Location     Type
  5056 ;;                  1    wreg      enum E6036
  5057 ;; Registers used:
  5058 ;;		wreg, status,2, status,0, pclath, cstack
  5059 ;; Tracked objects:
  5060 ;;		On entry : 0/0
  5061 ;;		On exit  : 0/0
  5062 ;;		Unchanged: 0/0
  5063 ;; Data sizes:     COMMON   BANK0   BANK1   BANK2   BANK3   BANK4   BANK5   BANK6   BANK7   BANK8   BANK9  BANK10  BANK1
      +1  BANK12  BANK13  BANK14  BANK15  BANK16  BANK17  BANK18  BANK19  BANK20  BANK21  BANK22  BANK23  BANK24  BANK25
  5064 ;;      Params:         0       0       0       0       0       0       0       0       0       0       0       0       
      +0       0       0       0       0       0       0       0       0       0       0       0       0       0       0
  5065 ;;      Locals:         1       0       0       0       0       0       0       0       0       0       0       0       
      +0       0       0       0       0       0       0       0       0       0       0       0       0       0       0
  5066 ;;      Temps:          0       0       0       0       0       0       0       0       0       0       0       0       
      +0       0       0       0       0       0       0       0       0       0       0       0       0       0       0
  5067 ;;      Totals:         1       0       0       0       0       0       0       0       0       0       0       0       
      +0       0       0       0       0       0       0       0       0       0       0       0       0       0       0
  5068 ;;Total ram usage:        1 bytes
  5069 ;; Hardware stack levels used: 1
  5070 ;; Hardware stack levels required when called: 1
  5071 ;; This function calls:
  5072 ;;		_I2C_WaitIF
  5073 ;;		_I2C_WaitIdle
  5074 ;; This function is called by:
  5075 ;;		_I2C_ScanBus
  5076 ;;		_EEPROM24AA512_AckPoll
  5077 ;;		_EEPROM24AA512_WriteByte
  5078 ;;		_EEPROM24AA512_ReadByte
  5079 ;;		_EEPROM24AA512_WritePage
  5080 ;;		_EEPROM24AA512_ReadSequential
  5081 ;; This function uses a non-reentrant model
  5082 ;;
  5083                           
  5084     01F8                     _I2C_Stop:	
  5085                           ;psect for function _I2C_Stop
  5086                           
  5087     01F8                     l1737:	
  5088                           ;incstack = 0
  5089                           ; Regs used in _I2C_Stop: [wreg+status,2+status,0+pclath+cstack]
  5090                           
  5091                           
  5092                           ;I2C.c: 140:     I2C_Status_t st;;I2C.c: 142:     st = I2C_WaitIdle(50);
  5093     01F8  3032               	movlw	50
  5094     01F9  00F0               	movwf	I2C_WaitIdle@timeout_ms
  5095     01FA  3000               	movlw	0
  5096     01FB  00F1               	movwf	I2C_WaitIdle@timeout_ms+1
  5097     01FC  3182  221B  3181   	fcall	_I2C_WaitIdle
  5098     01FF  00F3               	movwf	I2C_Stop@st
  5099     0200                     l1739:
  5100                           
  5101                           ;I2C.c: 143:     if (st != I2C_OK) return st;
  5102     0200  0873               	movf	I2C_Stop@st,w
  5103     0201  1903               	btfsc	3,2
  5104     0202  2A04               	goto	u1401
  5105     0203  2A05               	goto	u1400
  5106     0204                     u1401:
  5107     0204  2A06               	goto	l90
  5108     0205                     u1400:
  5109     0205  2A1A               	goto	l91
  5110     0206                     l90:
  5111                           
  5112                           ;I2C.c: 145:     PIR1bits.SSP1IF = 0;
  5113     0206  0020               	movlb	0	; select bank0
  5114     0207  1191               	bcf	17,3	;volatile
  5115                           
  5116                           ;I2C.c: 146:     SSPCON2bits.PEN = 1;
  5117     0208  0024               	movlb	4	; select bank4
  5118     0209  1516               	bsf	22,2	;volatile
  5119     020A                     l1743:
  5120                           
  5121                           ;I2C.c: 148:     st = I2C_WaitIF(50);
  5122     020A  3032               	movlw	50
  5123     020B  00F0               	movwf	I2C_WaitIF@timeout_ms
  5124     020C  3000               	movlw	0
  5125     020D  00F1               	movwf	I2C_WaitIF@timeout_ms+1
  5126     020E  3181  21BB  3181   	fcall	_I2C_WaitIF
  5127     0211  00F3               	movwf	I2C_Stop@st
  5128     0212                     l1745:
  5129                           
  5130                           ;I2C.c: 149:     if (st != I2C_OK) return st;
  5131     0212  0873               	movf	I2C_Stop@st,w
  5132     0213  1903               	btfsc	3,2
  5133     0214  2A16               	goto	u1411
  5134     0215  2A17               	goto	u1410
  5135     0216                     u1411:
  5136     0216  2A18               	goto	l92
  5137     0217                     u1410:
  5138     0217  2A1A               	goto	l91
  5139     0218                     l92:
  5140                           
  5141                           ;I2C.c: 151:     PIR1bits.SSP1IF = 0;
  5142     0218  0020               	movlb	0	; select bank0
  5143     0219  1191               	bcf	17,3	;volatile
  5144     021A                     l91:	
  5145                           ;I2C.c: 152:     return I2C_OK;;	Return value of _I2C_Stop is never used
  5146                           
  5147     021A  0008               	return
  5148     021B                     __end_of_I2C_Stop:
  5149                           
  5150                           	psect	text20
  5151     0288                     __ptext20:	
  5152 ;; *************** function _I2C_Start *****************
  5153 ;; Defined at:
  5154 ;;		line 98 in file "I2C.c"
  5155 ;; Parameters:    Size  Location     Type
  5156 ;;		None
  5157 ;; Auto vars:     Size  Location     Type
  5158 ;;  st              1    3[COMMON] enum E6036
  5159 ;; Return value:  Size  Location     Type
  5160 ;;                  1    wreg      enum E6036
  5161 ;; Registers used:
  5162 ;;		wreg, status,2, status,0, pclath, cstack
  5163 ;; Tracked objects:
  5164 ;;		On entry : 0/0
  5165 ;;		On exit  : 0/0
  5166 ;;		Unchanged: 0/0
  5167 ;; Data sizes:     COMMON   BANK0   BANK1   BANK2   BANK3   BANK4   BANK5   BANK6   BANK7   BANK8   BANK9  BANK10  BANK1
      +1  BANK12  BANK13  BANK14  BANK15  BANK16  BANK17  BANK18  BANK19  BANK20  BANK21  BANK22  BANK23  BANK24  BANK25
  5168 ;;      Params:         0       0       0       0       0       0       0       0       0       0       0       0       
      +0       0       0       0       0       0       0       0       0       0       0       0       0       0       0
  5169 ;;      Locals:         1       0       0       0       0       0       0       0       0       0       0       0       
      +0       0       0       0       0       0       0       0       0       0       0       0       0       0       0
  5170 ;;      Temps:          0       0       0       0       0       0       0       0       0       0       0       0       
      +0       0       0       0       0       0       0       0       0       0       0       0       0       0       0
  5171 ;;      Totals:         1       0       0       0       0       0       0       0       0       0       0       0       
      +0       0       0       0       0       0       0       0       0       0       0       0       0       0       0
  5172 ;;Total ram usage:        1 bytes
  5173 ;; Hardware stack levels used: 1
  5174 ;; Hardware stack levels required when called: 1
  5175 ;; This function calls:
  5176 ;;		_I2C_WaitIF
  5177 ;;		_I2C_WaitIdle
  5178 ;; This function is called by:
  5179 ;;		_I2C_ScanBus
  5180 ;;		_EEPROM24AA512_AckPoll
  5181 ;;		_EEPROM24AA512_WriteByte
  5182 ;;		_EEPROM24AA512_ReadByte
  5183 ;;		_EEPROM24AA512_WritePage
  5184 ;;		_EEPROM24AA512_ReadSequential
  5185 ;; This function uses a non-reentrant model
  5186 ;;
  5187                           
  5188     0288                     _I2C_Start:	
  5189                           ;psect for function _I2C_Start
  5190                           
  5191     0288                     l1717:	
  5192                           ;incstack = 0
  5193                           ; Regs used in _I2C_Start: [wreg+status,2+status,0+pclath+cstack]
  5194                           
  5195                           
  5196                           ;I2C.c: 100:     I2C_Status_t st;;I2C.c: 102:     st = I2C_WaitIdle(50);
  5197     0288  3032               	movlw	50
  5198     0289  00F0               	movwf	I2C_WaitIdle@timeout_ms
  5199     028A  3000               	movlw	0
  5200     028B  00F1               	movwf	I2C_WaitIdle@timeout_ms+1
  5201     028C  3182  221B  3182   	fcall	_I2C_WaitIdle
  5202     028F  00F3               	movwf	I2C_Start@st
  5203     0290                     l1719:
  5204                           
  5205                           ;I2C.c: 103:     if (st != I2C_OK) return st;
  5206     0290  0873               	movf	I2C_Start@st,w
  5207     0291  1903               	btfsc	3,2
  5208     0292  2A94               	goto	u1381
  5209     0293  2A95               	goto	u1380
  5210     0294                     u1381:
  5211     0294  2A97               	goto	l80
  5212     0295                     u1380:
  5213     0295                     l1721:
  5214     0295  0873               	movf	I2C_Start@st,w
  5215     0296  2AAC               	goto	l81
  5216     0297                     l80:
  5217                           
  5218                           ;I2C.c: 105:     PIR1bits.SSP1IF = 0;
  5219     0297  0020               	movlb	0	; select bank0
  5220     0298  1191               	bcf	17,3	;volatile
  5221                           
  5222                           ;I2C.c: 106:     SSPCON2bits.SEN = 1;
  5223     0299  0024               	movlb	4	; select bank4
  5224     029A  1416               	bsf	22,0	;volatile
  5225     029B                     l1725:
  5226                           
  5227                           ;I2C.c: 108:     st = I2C_WaitIF(50);
  5228     029B  3032               	movlw	50
  5229     029C  00F0               	movwf	I2C_WaitIF@timeout_ms
  5230     029D  3000               	movlw	0
  5231     029E  00F1               	movwf	I2C_WaitIF@timeout_ms+1
  5232     029F  3181  21BB  3182   	fcall	_I2C_WaitIF
  5233     02A2  00F3               	movwf	I2C_Start@st
  5234     02A3                     l1727:
  5235                           
  5236                           ;I2C.c: 109:     if (st != I2C_OK) return st;
  5237     02A3  0873               	movf	I2C_Start@st,w
  5238     02A4  1903               	btfsc	3,2
  5239     02A5  2AA7               	goto	u1391
  5240     02A6  2AA8               	goto	u1390
  5241     02A7                     u1391:
  5242     02A7  2AA9               	goto	l82
  5243     02A8                     u1390:
  5244     02A8  2A95               	goto	l1721
  5245     02A9                     l82:
  5246                           
  5247                           ;I2C.c: 111:     PIR1bits.SSP1IF = 0;
  5248     02A9  0020               	movlb	0	; select bank0
  5249     02AA  1191               	bcf	17,3	;volatile
  5250     02AB                     l1733:
  5251                           
  5252                           ;I2C.c: 112:     return I2C_OK;
  5253     02AB  3000               	movlw	0
  5254     02AC                     l81:
  5255     02AC  0008               	return
  5256     02AD                     __end_of_I2C_Start:
  5257                           
  5258                           	psect	text21
  5259     0263                     __ptext21:	
  5260 ;; *************** function _I2C_RepeatedStart *****************
  5261 ;; Defined at:
  5262 ;;		line 118 in file "I2C.c"
  5263 ;; Parameters:    Size  Location     Type
  5264 ;;		None
  5265 ;; Auto vars:     Size  Location     Type
  5266 ;;  st              1    3[COMMON] enum E6036
  5267 ;; Return value:  Size  Location     Type
  5268 ;;                  1    wreg      enum E6036
  5269 ;; Registers used:
  5270 ;;		wreg, status,2, status,0, pclath, cstack
  5271 ;; Tracked objects:
  5272 ;;		On entry : 0/0
  5273 ;;		On exit  : 0/0
  5274 ;;		Unchanged: 0/0
  5275 ;; Data sizes:     COMMON   BANK0   BANK1   BANK2   BANK3   BANK4   BANK5   BANK6   BANK7   BANK8   BANK9  BANK10  BANK1
      +1  BANK12  BANK13  BANK14  BANK15  BANK16  BANK17  BANK18  BANK19  BANK20  BANK21  BANK22  BANK23  BANK24  BANK25
  5276 ;;      Params:         0       0       0       0       0       0       0       0       0       0       0       0       
      +0       0       0       0       0       0       0       0       0       0       0       0       0       0       0
  5277 ;;      Locals:         1       0       0       0       0       0       0       0       0       0       0       0       
      +0       0       0       0       0       0       0       0       0       0       0       0       0       0       0
  5278 ;;      Temps:          0       0       0       0       0       0       0       0       0       0       0       0       
      +0       0       0       0       0       0       0       0       0       0       0       0       0       0       0
  5279 ;;      Totals:         1       0       0       0       0       0       0       0       0       0       0       0       
      +0       0       0       0       0       0       0       0       0       0       0       0       0       0       0
  5280 ;;Total ram usage:        1 bytes
  5281 ;; Hardware stack levels used: 1
  5282 ;; Hardware stack levels required when called: 1
  5283 ;; This function calls:
  5284 ;;		_I2C_WaitIF
  5285 ;;		_I2C_WaitIdle
  5286 ;; This function is called by:
  5287 ;;		_EEPROM24AA512_ReadByte
  5288 ;;		_EEPROM24AA512_ReadSequential
  5289 ;; This function uses a non-reentrant model
  5290 ;;
  5291                           
  5292     0263                     _I2C_RepeatedStart:	
  5293                           ;psect for function _I2C_RepeatedStart
  5294                           
  5295     0263                     l1807:	
  5296                           ;incstack = 0
  5297                           ; Regs used in _I2C_RepeatedStart: [wreg+status,2+status,0+pclath+cstack]
  5298                           
  5299                           
  5300                           ;I2C.c: 120:     I2C_Status_t st;;I2C.c: 122:     st = I2C_WaitIdle(50);
  5301     0263  3032               	movlw	50
  5302     0264  00F0               	movwf	I2C_WaitIdle@timeout_ms
  5303     0265  3000               	movlw	0
  5304     0266  00F1               	movwf	I2C_WaitIdle@timeout_ms+1
  5305     0267  3182  221B  3182   	fcall	_I2C_WaitIdle
  5306     026A  00F3               	movwf	I2C_RepeatedStart@st
  5307     026B                     l1809:
  5308                           
  5309                           ;I2C.c: 123:     if (st != I2C_OK) return st;
  5310     026B  0873               	movf	I2C_RepeatedStart@st,w
  5311     026C  1903               	btfsc	3,2
  5312     026D  2A6F               	goto	u1511
  5313     026E  2A70               	goto	u1510
  5314     026F                     u1511:
  5315     026F  2A72               	goto	l85
  5316     0270                     u1510:
  5317     0270                     l1811:
  5318     0270  0873               	movf	I2C_RepeatedStart@st,w
  5319     0271  2A87               	goto	l86
  5320     0272                     l85:
  5321                           
  5322                           ;I2C.c: 125:     PIR1bits.SSP1IF = 0;
  5323     0272  0020               	movlb	0	; select bank0
  5324     0273  1191               	bcf	17,3	;volatile
  5325                           
  5326                           ;I2C.c: 126:     SSPCON2bits.RSEN = 1;
  5327     0274  0024               	movlb	4	; select bank4
  5328     0275  1496               	bsf	22,1	;volatile
  5329     0276                     l1815:
  5330                           
  5331                           ;I2C.c: 128:     st = I2C_WaitIF(50);
  5332     0276  3032               	movlw	50
  5333     0277  00F0               	movwf	I2C_WaitIF@timeout_ms
  5334     0278  3000               	movlw	0
  5335     0279  00F1               	movwf	I2C_WaitIF@timeout_ms+1
  5336     027A  3181  21BB  3182   	fcall	_I2C_WaitIF
  5337     027D  00F3               	movwf	I2C_RepeatedStart@st
  5338     027E                     l1817:
  5339                           
  5340                           ;I2C.c: 129:     if (st != I2C_OK) return st;
  5341     027E  0873               	movf	I2C_RepeatedStart@st,w
  5342     027F  1903               	btfsc	3,2
  5343     0280  2A82               	goto	u1521
  5344     0281  2A83               	goto	u1520
  5345     0282                     u1521:
  5346     0282  2A84               	goto	l87
  5347     0283                     u1520:
  5348     0283  2A70               	goto	l1811
  5349     0284                     l87:
  5350                           
  5351                           ;I2C.c: 131:     PIR1bits.SSP1IF = 0;
  5352     0284  0020               	movlb	0	; select bank0
  5353     0285  1191               	bcf	17,3	;volatile
  5354     0286                     l1823:
  5355                           
  5356                           ;I2C.c: 132:     return I2C_OK;
  5357     0286  3000               	movlw	0
  5358     0287                     l86:
  5359     0287  0008               	return
  5360     0288                     __end_of_I2C_RepeatedStart:
  5361                           
  5362                           	psect	text22
  5363     038C                     __ptext22:	
  5364 ;; *************** function _I2C_ReadByte *****************
  5365 ;; Defined at:
  5366 ;;		line 192 in file "I2C.c"
  5367 ;; Parameters:    Size  Location     Type
  5368 ;;  data            1    wreg     PTR unsigned char 
  5369 ;;		 -> main@readVal(1), 
  5370 ;;  ack             1    3[COMMON] _Bool 
  5371 ;; Auto vars:     Size  Location     Type
  5372 ;;  data            1    4[COMMON] PTR unsigned char 
  5373 ;;		 -> main@readVal(1), 
  5374 ;;  st              1    5[COMMON] enum E6036
  5375 ;; Return value:  Size  Location     Type
  5376 ;;                  1    wreg      enum E6036
  5377 ;; Registers used:
  5378 ;;		wreg, fsr1l, fsr1h, status,2, status,0, pclath, cstack
  5379 ;; Tracked objects:
  5380 ;;		On entry : 0/0
  5381 ;;		On exit  : 0/0
  5382 ;;		Unchanged: 0/0
  5383 ;; Data sizes:     COMMON   BANK0   BANK1   BANK2   BANK3   BANK4   BANK5   BANK6   BANK7   BANK8   BANK9  BANK10  BANK1
      +1  BANK12  BANK13  BANK14  BANK15  BANK16  BANK17  BANK18  BANK19  BANK20  BANK21  BANK22  BANK23  BANK24  BANK25
  5384 ;;      Params:         1       0       0       0       0       0       0       0       0       0       0       0       
      +0       0       0       0       0       0       0       0       0       0       0       0       0       0       0
  5385 ;;      Locals:         2       0       0       0       0       0       0       0       0       0       0       0       
      +0       0       0       0       0       0       0       0       0       0       0       0       0       0       0
  5386 ;;      Temps:          0       0       0       0       0       0       0       0       0       0       0       0       
      +0       0       0       0       0       0       0       0       0       0       0       0       0       0       0
  5387 ;;      Totals:         3       0       0       0       0       0       0       0       0       0       0       0       
      +0       0       0       0       0       0       0       0       0       0       0       0       0       0       0
  5388 ;;Total ram usage:        3 bytes
  5389 ;; Hardware stack levels used: 1
  5390 ;; Hardware stack levels required when called: 1
  5391 ;; This function calls:
  5392 ;;		_I2C_WaitIF
  5393 ;;		_I2C_WaitIdle
  5394 ;; This function is called by:
  5395 ;;		_EEPROM24AA512_ReadByte
  5396 ;;		_EEPROM24AA512_ReadSequential
  5397 ;; This function uses a non-reentrant model
  5398 ;;
  5399                           
  5400     038C                     _I2C_ReadByte:	
  5401                           ;psect for function _I2C_ReadByte
  5402                           
  5403                           
  5404                           ;incstack = 0
  5405                           ; Regs used in _I2C_ReadByte: [wreg+fsr1l+fsr1h+status,2+status,0+pclath+cstack]
  5406                           ;I2C_ReadByte@data stored from wreg
  5407     038C  00F4               	movwf	I2C_ReadByte@data
  5408     038D                     l1827:
  5409                           
  5410                           ;I2C.c: 192: I2C_Status_t I2C_ReadByte(uint8_t *data, _Bool ack);I2C.c: 193: {;I2C.c: 19
      +                          4:     I2C_Status_t st;;I2C.c: 196:     if (data == ((void*)0)) return I2C_TIMEOUT;
  5411     038D  0874               	movf	I2C_ReadByte@data,w
  5412     038E  1D03               	btfss	3,2
  5413     038F  2B91               	goto	u1531
  5414     0390  2B92               	goto	u1530
  5415     0391                     u1531:
  5416     0391  2B94               	goto	l1833
  5417     0392                     u1530:
  5418     0392                     l1829:
  5419     0392  3002               	movlw	2
  5420     0393  2BD8               	goto	l102
  5421     0394                     l1833:
  5422                           
  5423                           ;I2C.c: 198:     st = I2C_WaitIdle(50);
  5424     0394  3032               	movlw	50
  5425     0395  00F0               	movwf	I2C_WaitIdle@timeout_ms
  5426     0396  3000               	movlw	0
  5427     0397  00F1               	movwf	I2C_WaitIdle@timeout_ms+1
  5428     0398  3182  221B  3183   	fcall	_I2C_WaitIdle
  5429     039B  00F5               	movwf	I2C_ReadByte@st
  5430     039C                     l1835:
  5431                           
  5432                           ;I2C.c: 199:     if (st != I2C_OK) return st;
  5433     039C  0875               	movf	I2C_ReadByte@st,w
  5434     039D  1903               	btfsc	3,2
  5435     039E  2BA0               	goto	u1541
  5436     039F  2BA1               	goto	u1540
  5437     03A0                     u1541:
  5438     03A0  2BA3               	goto	l103
  5439     03A1                     u1540:
  5440     03A1                     l1837:
  5441     03A1  0875               	movf	I2C_ReadByte@st,w
  5442     03A2  2BD8               	goto	l102
  5443     03A3                     l103:
  5444                           
  5445                           ;I2C.c: 202:     PIR1bits.SSP1IF = 0;
  5446     03A3  0020               	movlb	0	; select bank0
  5447     03A4  1191               	bcf	17,3	;volatile
  5448                           
  5449                           ;I2C.c: 203:     SSPCON2bits.RCEN = 1;
  5450     03A5  0024               	movlb	4	; select bank4
  5451     03A6  1596               	bsf	22,3	;volatile
  5452     03A7                     l1841:
  5453                           
  5454                           ;I2C.c: 205:     st = I2C_WaitIF(50);
  5455     03A7  3032               	movlw	50
  5456     03A8  00F0               	movwf	I2C_WaitIF@timeout_ms
  5457     03A9  3000               	movlw	0
  5458     03AA  00F1               	movwf	I2C_WaitIF@timeout_ms+1
  5459     03AB  3181  21BB  3183   	fcall	_I2C_WaitIF
  5460     03AE  00F5               	movwf	I2C_ReadByte@st
  5461     03AF                     l1843:
  5462                           
  5463                           ;I2C.c: 206:     if (st != I2C_OK) return st;
  5464     03AF  0875               	movf	I2C_ReadByte@st,w
  5465     03B0  1903               	btfsc	3,2
  5466     03B1  2BB3               	goto	u1551
  5467     03B2  2BB4               	goto	u1550
  5468     03B3                     u1551:
  5469     03B3  2BB5               	goto	l1849
  5470     03B4                     u1550:
  5471     03B4  2BA1               	goto	l1837
  5472     03B5                     l1849:
  5473                           
  5474                           ;I2C.c: 208:     *data = SSPBUF;
  5475     03B5  0874               	movf	I2C_ReadByte@data,w
  5476     03B6  0086               	movwf	6
  5477     03B7  0187               	clrf	7
  5478     03B8  0024               	movlb	4	; select bank4
  5479     03B9  0811               	movf	17,w	;volatile
  5480     03BA  0081               	movwf	1
  5481     03BB                     l1851:
  5482                           
  5483                           ;I2C.c: 211:     PIR1bits.SSP1IF = 0;
  5484     03BB  0020               	movlb	0	; select bank0
  5485     03BC  1191               	bcf	17,3	;volatile
  5486     03BD                     l1853:
  5487                           
  5488                           ;I2C.c: 212:     SSPCON2bits.ACKDT = (ack ? 0 : 1);
  5489     03BD  0873               	movf	I2C_ReadByte@ack,w
  5490     03BE  1903               	btfsc	3,2
  5491     03BF  2BC1               	goto	u1561
  5492     03C0  2BC4               	goto	u1560
  5493     03C1                     u1561:
  5494     03C1  0024               	movlb	4	; select bank4
  5495     03C2  1696               	bsf	22,5	;volatile
  5496     03C3  2BC6               	goto	u1574
  5497     03C4                     u1560:
  5498     03C4  0024               	movlb	4	; select bank4
  5499     03C5  1296               	bcf	22,5	;volatile
  5500     03C6                     u1574:
  5501     03C6                     l1855:
  5502                           
  5503                           ;I2C.c: 213:     SSPCON2bits.ACKEN = 1;
  5504     03C6  1616               	bsf	22,4	;volatile
  5505     03C7                     l1857:
  5506                           
  5507                           ;I2C.c: 215:     st = I2C_WaitIF(50);
  5508     03C7  3032               	movlw	50
  5509     03C8  00F0               	movwf	I2C_WaitIF@timeout_ms
  5510     03C9  3000               	movlw	0
  5511     03CA  00F1               	movwf	I2C_WaitIF@timeout_ms+1
  5512     03CB  3181  21BB  3183   	fcall	_I2C_WaitIF
  5513     03CE  00F5               	movwf	I2C_ReadByte@st
  5514     03CF                     l1859:
  5515                           
  5516                           ;I2C.c: 216:     if (st != I2C_OK) return st;
  5517     03CF  0875               	movf	I2C_ReadByte@st,w
  5518     03D0  1903               	btfsc	3,2
  5519     03D1  2BD3               	goto	u1581
  5520     03D2  2BD4               	goto	u1580
  5521     03D3                     u1581:
  5522     03D3  2BD5               	goto	l105
  5523     03D4                     u1580:
  5524     03D4  2BA1               	goto	l1837
  5525     03D5                     l105:
  5526                           
  5527                           ;I2C.c: 218:     PIR1bits.SSP1IF = 0;
  5528     03D5  0020               	movlb	0	; select bank0
  5529     03D6  1191               	bcf	17,3	;volatile
  5530     03D7                     l1865:
  5531                           
  5532                           ;I2C.c: 219:     return I2C_OK;
  5533     03D7  3000               	movlw	0
  5534     03D8                     l102:
  5535     03D8  0008               	return
  5536     03D9                     __end_of_I2C_ReadByte:
  5537                           
  5538                           	psect	text23
  5539     021B                     __ptext23:	
  5540 ;; *************** function _I2C_WaitIdle *****************
  5541 ;; Defined at:
  5542 ;;		line 81 in file "I2C.c"
  5543 ;; Parameters:    Size  Location     Type
  5544 ;;  timeout_ms      2    0[COMMON] unsigned short 
  5545 ;; Auto vars:     Size  Location     Type
  5546 ;;		None
  5547 ;; Return value:  Size  Location     Type
  5548 ;;                  1    wreg      enum E6036
  5549 ;; Registers used:
  5550 ;;		wreg, status,2, status,0
  5551 ;; Tracked objects:
  5552 ;;		On entry : 0/0
  5553 ;;		On exit  : 0/0
  5554 ;;		Unchanged: 0/0
  5555 ;; Data sizes:     COMMON   BANK0   BANK1   BANK2   BANK3   BANK4   BANK5   BANK6   BANK7   BANK8   BANK9  BANK10  BANK1
      +1  BANK12  BANK13  BANK14  BANK15  BANK16  BANK17  BANK18  BANK19  BANK20  BANK21  BANK22  BANK23  BANK24  BANK25
  5556 ;;      Params:         2       0       0       0       0       0       0       0       0       0       0       0       
      +0       0       0       0       0       0       0       0       0       0       0       0       0       0       0
  5557 ;;      Locals:         0       0       0       0       0       0       0       0       0       0       0       0       
      +0       0       0       0       0       0       0       0       0       0       0       0       0       0       0
  5558 ;;      Temps:          1       0       0       0       0       0       0       0       0       0       0       0       
      +0       0       0       0       0       0       0       0       0       0       0       0       0       0       0
  5559 ;;      Totals:         3       0       0       0       0       0       0       0       0       0       0       0       
      +0       0       0       0       0       0       0       0       0       0       0       0       0       0       0
  5560 ;;Total ram usage:        3 bytes
  5561 ;; Hardware stack levels used: 1
  5562 ;; This function calls:
  5563 ;;		Nothing
  5564 ;; This function is called by:
  5565 ;;		_I2C_Start
  5566 ;;		_I2C_RepeatedStart
  5567 ;;		_I2C_Stop
  5568 ;;		_I2C_WriteByte
  5569 ;;		_I2C_ReadByte
  5570 ;; This function uses a non-reentrant model
  5571 ;;
  5572                           
  5573     021B                     _I2C_WaitIdle:	
  5574                           ;psect for function _I2C_WaitIdle
  5575                           
  5576     021B                     l1603:	
  5577                           ;incstack = 0
  5578                           ; Regs used in _I2C_WaitIdle: [wreg+status,2+status,0]
  5579                           
  5580                           
  5581                           ;I2C.c: 81: I2C_Status_t I2C_WaitIdle(uint16_t timeout_ms);I2C.c: 82: {;I2C.c: 83:     w
      +                          hile (timeout_ms--)
  5582     021B  2A31               	goto	l1615
  5583     021C                     l1605:
  5584                           
  5585                           ;I2C.c: 84:     {;I2C.c: 87:         if ((SSPCON2 & 0x1F) == 0 && SSPSTATbits.R_nW == 0)
  5586     021C  0024               	movlb	4	; select bank4
  5587     021D  0816               	movf	22,w	;volatile
  5588     021E  391F               	andlw	31
  5589     021F  1D03               	btfss	3,2
  5590     0220  2A22               	goto	u1121
  5591     0221  2A23               	goto	u1120
  5592     0222                     u1121:
  5593     0222  2A29               	goto	l1613
  5594     0223                     u1120:
  5595     0223                     l1607:
  5596     0223  1914               	btfsc	20,2	;volatile
  5597     0224  2A26               	goto	u1131
  5598     0225  2A27               	goto	u1130
  5599     0226                     u1131:
  5600     0226  2A29               	goto	l1613
  5601     0227                     u1130:
  5602     0227                     l1609:
  5603                           
  5604                           ;I2C.c: 88:             return I2C_OK;
  5605     0227  3000               	movlw	0
  5606     0228  2A3E               	goto	l76
  5607     0229                     l1613:
  5608                           
  5609                           ;I2C.c: 90:         _delay((unsigned long)((1)*(32000000/4000.0)));
  5610     0229  300B               	movlw	11
  5611     022A  00F2               	movwf	??_I2C_WaitIdle
  5612     022B  3062               	movlw	98
  5613     022C                     u2207:
  5614     022C  0B89               	decfsz	9,f
  5615     022D  2A2C               	goto	u2207
  5616     022E  0BF2               	decfsz	??_I2C_WaitIdle,f
  5617     022F  2A2C               	goto	u2207
  5618     0230  3200               	nop2
  5619     0231                     l1615:
  5620                           
  5621                           ;I2C.c: 83:     while (timeout_ms--)
  5622     0231  3001               	movlw	1
  5623     0232  02F0               	subwf	I2C_WaitIdle@timeout_ms,f
  5624     0233  3000               	movlw	0
  5625     0234  3BF1               	subwfb	I2C_WaitIdle@timeout_ms+1,f
  5626     0235  0A70               	incf	I2C_WaitIdle@timeout_ms,w
  5627     0236  1D03               	skipz
  5628     0237  2A3C               	goto	u1141
  5629     0238  0A71               	incf	I2C_WaitIdle@timeout_ms+1,w
  5630     0239  1D03               	btfss	3,2
  5631     023A  2A3C               	goto	u1141
  5632     023B  2A3D               	goto	u1140
  5633     023C                     u1141:
  5634     023C  2A1C               	goto	l1605
  5635     023D                     u1140:
  5636     023D                     l1617:
  5637                           
  5638                           ;I2C.c: 92:     return I2C_TIMEOUT;
  5639     023D  3002               	movlw	2
  5640     023E                     l76:
  5641     023E  0008               	return
  5642     023F                     __end_of_I2C_WaitIdle:
  5643                           
  5644                           	psect	text24
  5645     01BB                     __ptext24:	
  5646 ;; *************** function _I2C_WaitIF *****************
  5647 ;; Defined at:
  5648 ;;		line 23 in file "I2C.c"
  5649 ;; Parameters:    Size  Location     Type
  5650 ;;  timeout_ms      2    0[COMMON] unsigned short 
  5651 ;; Auto vars:     Size  Location     Type
  5652 ;;		None
  5653 ;; Return value:  Size  Location     Type
  5654 ;;                  1    wreg      enum E6036
  5655 ;; Registers used:
  5656 ;;		wreg, status,2, status,0
  5657 ;; Tracked objects:
  5658 ;;		On entry : 0/0
  5659 ;;		On exit  : 0/0
  5660 ;;		Unchanged: 0/0
  5661 ;; Data sizes:     COMMON   BANK0   BANK1   BANK2   BANK3   BANK4   BANK5   BANK6   BANK7   BANK8   BANK9  BANK10  BANK1
      +1  BANK12  BANK13  BANK14  BANK15  BANK16  BANK17  BANK18  BANK19  BANK20  BANK21  BANK22  BANK23  BANK24  BANK25
  5662 ;;      Params:         2       0       0       0       0       0       0       0       0       0       0       0       
      +0       0       0       0       0       0       0       0       0       0       0       0       0       0       0
  5663 ;;      Locals:         0       0       0       0       0       0       0       0       0       0       0       0       
      +0       0       0       0       0       0       0       0       0       0       0       0       0       0       0
  5664 ;;      Temps:          1       0       0       0       0       0       0       0       0       0       0       0       
      +0       0       0       0       0       0       0       0       0       0       0       0       0       0       0
  5665 ;;      Totals:         3       0       0       0       0       0       0       0       0       0       0       0       
      +0       0       0       0       0       0       0       0       0       0       0       0       0       0       0
  5666 ;;Total ram usage:        3 bytes
  5667 ;; Hardware stack levels used: 1
  5668 ;; This function calls:
  5669 ;;		Nothing
  5670 ;; This function is called by:
  5671 ;;		_I2C_Start
  5672 ;;		_I2C_RepeatedStart
  5673 ;;		_I2C_Stop
  5674 ;;		_I2C_WriteByte
  5675 ;;		_I2C_ReadByte
  5676 ;; This function uses a non-reentrant model
  5677 ;;
  5678                           
  5679     01BB                     _I2C_WaitIF:	
  5680                           ;psect for function _I2C_WaitIF
  5681                           
  5682     01BB                     l1589:	
  5683                           ;incstack = 0
  5684                           ; Regs used in _I2C_WaitIF: [wreg+status,2+status,0]
  5685                           
  5686                           
  5687                           ;I2C.c: 23: static I2C_Status_t I2C_WaitIF(uint16_t timeout_ms);I2C.c: 24: {;I2C.c: 25: 
      +                              while (timeout_ms--)
  5688     01BB  29CB               	goto	l1597
  5689     01BC                     l61:
  5690                           
  5691                           ;I2C.c: 26:     {;I2C.c: 27:         if (PIR1bits.SSP1IF)
  5692     01BC  0020               	movlb	0	; select bank0
  5693     01BD  1D91               	btfss	17,3	;volatile
  5694     01BE  29C0               	goto	u1101
  5695     01BF  29C1               	goto	u1100
  5696     01C0                     u1101:
  5697     01C0  29C3               	goto	l1595
  5698     01C1                     u1100:
  5699     01C1                     l1591:
  5700                           
  5701                           ;I2C.c: 28:             return I2C_OK;
  5702     01C1  3000               	movlw	0
  5703     01C2  29D8               	goto	l63
  5704     01C3                     l1595:
  5705                           
  5706                           ;I2C.c: 30:         _delay((unsigned long)((1)*(32000000/4000.0)));
  5707     01C3  300B               	movlw	11
  5708     01C4  00F2               	movwf	??_I2C_WaitIF
  5709     01C5  3062               	movlw	98
  5710     01C6                     u2217:
  5711     01C6  0B89               	decfsz	9,f
  5712     01C7  29C6               	goto	u2217
  5713     01C8  0BF2               	decfsz	??_I2C_WaitIF,f
  5714     01C9  29C6               	goto	u2217
  5715     01CA  3200               	nop2
  5716     01CB                     l1597:
  5717                           
  5718                           ;I2C.c: 25:     while (timeout_ms--)
  5719     01CB  3001               	movlw	1
  5720     01CC  02F0               	subwf	I2C_WaitIF@timeout_ms,f
  5721     01CD  3000               	movlw	0
  5722     01CE  3BF1               	subwfb	I2C_WaitIF@timeout_ms+1,f
  5723     01CF  0A70               	incf	I2C_WaitIF@timeout_ms,w
  5724     01D0  1D03               	skipz
  5725     01D1  29D6               	goto	u1111
  5726     01D2  0A71               	incf	I2C_WaitIF@timeout_ms+1,w
  5727     01D3  1D03               	btfss	3,2
  5728     01D4  29D6               	goto	u1111
  5729     01D5  29D7               	goto	u1110
  5730     01D6                     u1111:
  5731     01D6  29BC               	goto	l61
  5732     01D7                     u1110:
  5733     01D7                     l1599:
  5734                           
  5735                           ;I2C.c: 32:     return I2C_TIMEOUT;
  5736     01D7  3002               	movlw	2
  5737     01D8                     l63:
  5738     01D8  0008               	return
  5739     01D9                     __end_of_I2C_WaitIF:
  5740                           
  5741                           	psect	text25
  5742     0176                     __ptext25:	
  5743 ;; *************** function _EEPROM24AA512_Ctrl *****************
  5744 ;; Defined at:
  5745 ;;		line 27 in file "EEPROM_24AA512.c"
  5746 ;; Parameters:    Size  Location     Type
  5747 ;;  read            1    wreg     _Bool 
  5748 ;; Auto vars:     Size  Location     Type
  5749 ;;  read            1    0[COMMON] _Bool 
  5750 ;; Return value:  Size  Location     Type
  5751 ;;                  1    wreg      unsigned char 
  5752 ;; Registers used:
  5753 ;;		wreg, status,2, status,0
  5754 ;; Tracked objects:
  5755 ;;		On entry : 0/0
  5756 ;;		On exit  : 0/0
  5757 ;;		Unchanged: 0/0
  5758 ;; Data sizes:     COMMON   BANK0   BANK1   BANK2   BANK3   BANK4   BANK5   BANK6   BANK7   BANK8   BANK9  BANK10  BANK1
      +1  BANK12  BANK13  BANK14  BANK15  BANK16  BANK17  BANK18  BANK19  BANK20  BANK21  BANK22  BANK23  BANK24  BANK25
  5759 ;;      Params:         0       0       0       0       0       0       0       0       0       0       0       0       
      +0       0       0       0       0       0       0       0       0       0       0       0       0       0       0
  5760 ;;      Locals:         1       0       0       0       0       0       0       0       0       0       0       0       
      +0       0       0       0       0       0       0       0       0       0       0       0       0       0       0
  5761 ;;      Temps:          0       0       0       0       0       0       0       0       0       0       0       0       
      +0       0       0       0       0       0       0       0       0       0       0       0       0       0       0
  5762 ;;      Totals:         1       0       0       0       0       0       0       0       0       0       0       0       
      +0       0       0       0       0       0       0       0       0       0       0       0       0       0       0
  5763 ;;Total ram usage:        1 bytes
  5764 ;; Hardware stack levels used: 1
  5765 ;; This function calls:
  5766 ;;		Nothing
  5767 ;; This function is called by:
  5768 ;;		_EEPROM24AA512_AckPoll
  5769 ;;		_EEPROM24AA512_WriteByte
  5770 ;;		_EEPROM24AA512_ReadByte
  5771 ;;		_EEPROM24AA512_WritePage
  5772 ;;		_EEPROM24AA512_ReadSequential
  5773 ;; This function uses a non-reentrant model
  5774 ;;
  5775                           
  5776     0176                     _EEPROM24AA512_Ctrl:	
  5777                           ;psect for function _EEPROM24AA512_Ctrl
  5778                           
  5779                           
  5780                           ;incstack = 0
  5781                           ; Regs used in _EEPROM24AA512_Ctrl: [wreg+status,2+status,0]
  5782                           ;EEPROM24AA512_Ctrl@read stored from wreg
  5783     0176  00F0               	movwf	EEPROM24AA512_Ctrl@read
  5784     0177                     l1777:
  5785                           
  5786                           ;EEPROM_24AA512.c: 27: static uint8_t EEPROM24AA512_Ctrl(_Bool read);EEPROM_24AA512.c: 2
      +                          8: {;EEPROM_24AA512.c: 29:     return (uint8_t)((0x50 << 1) | (read ? 1 : 0));
  5787     0177  0870               	movf	EEPROM24AA512_Ctrl@read,w
  5788     0178  1D03               	btfss	3,2
  5789     0179  297B               	goto	u1451
  5790     017A  297D               	goto	u1450
  5791     017B                     u1451:
  5792     017B  3001               	movlw	1
  5793     017C  297E               	goto	u1460
  5794     017D                     u1450:
  5795     017D  3000               	movlw	0
  5796     017E                     u1460:
  5797     017E  38A0               	iorlw	160
  5798     017F                     l193:
  5799     017F  0008               	return
  5800     0180                     __end_of_EEPROM24AA512_Ctrl:
  5801     007E                     btemp	set	126	;btemp
  5802     007E                     wtemp0	set	126
  5803                           
  5804                           	psect	config
  5805                           
  5806                           ;Config register CONFIG1 @ 0x8007
  5807                           ;	Oscillator Selection Bits
  5808                           ;	FOSC = INTOSC, INTOSC oscillator: I/O function on CLKIN pin
  5809                           ;	Watchdog Timer Enable
  5810                           ;	WDTE = OFF, WDT disabled
  5811                           ;	Power-up Timer Enable
  5812                           ;	PWRTE = OFF, PWRT disabled
  5813                           ;	MCLR Pin Function Select
  5814                           ;	MCLRE = OFF, MCLR/VPP pin function is digital input if LVP bit is also 0.
  5815                           ;	Flash Program Memory Code Protection
  5816                           ;	CP = OFF, Program memory code protection is disabled
  5817                           ;	Brown-out Reset Enable
  5818                           ;	BOREN = OFF, Brown-out Reset disabled
  5819                           ;	Clock Out Enable
  5820                           ;	CLKOUTEN = OFF, CLKOUT function is disabled. I/O or oscillator function on the CLKOUT 
      +                          pin
  5821                           ;	Internal/External Switchover Mode
  5822                           ;	IESO = ON, Internal/External Switchover Mode is enabled
  5823                           ;	Fail-Safe Clock Monitor Enable
  5824                           ;	FCMEN = OFF, Fail-Safe Clock Monitor is disabled
  5825     8007                     	org	32775
  5826     8007  19A4               	dw	6564
  5827                           
  5828                           ;Config register CONFIG2 @ 0x8008
  5829                           ;	Flash Memory Self-Write Protection
  5830                           ;	WRT = OFF, Write protection off
  5831                           ;	Peripheral Pin Select one-way control
  5832                           ;	PPS1WAY = ON, The PPSLOCK bit cannot be cleared once it is set by software
  5833                           ;	Zero-cross detect disable
  5834                           ;	ZCDDIS = ON, ZCD disabled. ZCD can be enabled by setting the ZCDSEN bit of ZCDCON
  5835                           ;	Phase Lock Loop enable
  5836                           ;	PLLEN = OFF, 4x PLL is disabled
  5837                           ;	Stack Overflow/Underflow Reset Enable
  5838                           ;	STVREN = ON, Stack Overflow or Underflow will cause a Reset
  5839                           ;	Brown-out Reset Voltage Selection
  5840                           ;	BORV = LO, Brown-out Reset Voltage (Vbor), low trip point selected.
  5841                           ;	Low-Power Brown Out Reset
  5842                           ;	LPBOR = OFF, Low-Power BOR is disabled
  5843                           ;	In-Circuit Debugger Mode
  5844                           ;	DEBUG = 0x1, unprogrammed default
  5845                           ;	Low-Voltage Programming Enable
  5846                           ;	LVP = OFF, High-voltage on MCLR/VPP must be used for programming
  5847     8008                     	org	32776
  5848     8008  1EFF               	dw	7935

Data Sizes:
    Strings     251
    Constant    0
    Data        0
    BSS         0
    Persistent  32
    Stack       0

Auto Spaces:
    Space          Size  Autos    Used
    COMMON           14     14      14
    BANK0            80     45      45
    BANK1            80      0       0
    BANK2            80      0       0
    BANK3            80      0       0
    BANK4            80      0       0
    BANK5            80      0       0
    BANK6            80      0       0
    BANK7            80      0       0
    BANK8            80      0       0
    BANK9            80      0       0
    BANK10           80      0       0
    BANK11           80      0       0
    BANK12           80      0       0
    BANK13           80      0       0
    BANK14           80      0       0
    BANK15           80      0       0
    BANK16           80      0       0
    BANK17           80      0       0
    BANK18           80      0       0
    BANK19           80      0       0
    BANK20           80      0       0
    BANK21           80      0       0
    BANK22           80      0       0
    BANK23           80      0       0
    BANK24           80      0       0
    BANK25           32      0       0

Pointer List with Targets:

    EEPROM24AA512_ReadByte@data	PTR unsigned char  size(1) Largest target is 1
		 -> main@readVal(BANK0[1]), 

    EUSART_Write_Integer@ptr	PTR unsigned char  size(1) Largest target is 20
		 -> EUSART_Write_Integer@buffer(BANK0[20]), 

    EUSART_Write_Integer@temp_ptr	PTR unsigned char  size(1) Largest target is 20
		 -> EUSART_Write_Integer@buffer(BANK0[20]), 

    EUSART_Write_Text@text	PTR unsigned char  size(2) Largest target is 39
		 -> STR_1(CODE[24]), STR_10(CODE[9]), STR_11(CODE[2]), STR_12(CODE[15]), 
		 -> STR_13(CODE[7]), STR_14(CODE[9]), STR_15(CODE[13]), STR_16(CODE[7]), 
		 -> STR_17(CODE[2]), STR_18(CODE[14]), STR_19(CODE[7]), STR_2(CODE[14]), 
		 -> STR_20(CODE[9]), STR_21(CODE[12]), STR_22(CODE[2]), STR_23(CODE[9]), 
		 -> STR_24(CODE[10]), STR_25(CODE[9]), STR_26(CODE[2]), STR_3(CODE[19]), 
		 -> STR_4(CODE[2]), STR_5(CODE[39]), STR_6(CODE[27]), STR_7(CODE[38]), 
		 -> STR_8(CODE[14]), STR_9(CODE[7]), 

    I2C_ReadByte@data	PTR unsigned char  size(1) Largest target is 1
		 -> main@readVal(BANK0[1]), 

    itoa@buf	PTR PTR unsigned char  size(1) Largest target is 1
		 -> EUSART_Write_Integer@ptr(BANK0[1]), 

    main$493	PTR const unsigned char  size(2) Largest target is 9
		 -> STR_13(CODE[7]), STR_14(CODE[9]), 

    main$501	PTR const unsigned char  size(2) Largest target is 9
		 -> STR_19(CODE[7]), STR_20(CODE[9]), 


Critical Paths under _main in COMMON

    _main->_EUSART_Write_Integer
    _I2C_ScanBus->_EUSART_Write_Integer
    _EUSART_Write_Text->_EUSART_Write
    _EUSART_Write_Integer->_itoa
    _itoa->___awdiv
    _EUSART_Initialize->___aldiv
    _EEPROM24AA512_WriteByte->_EEPROM24AA512_AckPoll
    _EEPROM24AA512_AckPoll->_I2C_WriteByte
    _EEPROM24AA512_ReadByte->_I2C_ReadByte
    _I2C_WriteByte->_I2C_WaitIF
    _I2C_WriteByte->_I2C_WaitIdle
    _I2C_Stop->_I2C_WaitIF
    _I2C_Stop->_I2C_WaitIdle
    _I2C_Start->_I2C_WaitIF
    _I2C_Start->_I2C_WaitIdle
    _I2C_RepeatedStart->_I2C_WaitIF
    _I2C_RepeatedStart->_I2C_WaitIdle
    _I2C_ReadByte->_I2C_WaitIF
    _I2C_ReadByte->_I2C_WaitIdle

Critical Paths under _main in BANK0

    _main->_I2C_ScanBus
    _I2C_ScanBus->_EUSART_Write_Integer
    _EUSART_Write_Integer->_itoa
    _EUSART_Initialize->___aldiv

Critical Paths under _main in BANK1

    None.

Critical Paths under _main in BANK2

    None.

Critical Paths under _main in BANK3

    None.

Critical Paths under _main in BANK4

    None.

Critical Paths under _main in BANK5

    None.

Critical Paths under _main in BANK6

    None.

Critical Paths under _main in BANK7

    None.

Critical Paths under _main in BANK8

    None.

Critical Paths under _main in BANK9

    None.

Critical Paths under _main in BANK10

    None.

Critical Paths under _main in BANK11

    None.

Critical Paths under _main in BANK12

    None.

Critical Paths under _main in BANK13

    None.

Critical Paths under _main in BANK14

    None.

Critical Paths under _main in BANK15

    None.

Critical Paths under _main in BANK16

    None.

Critical Paths under _main in BANK17

    None.

Critical Paths under _main in BANK18

    None.

Critical Paths under _main in BANK19

    None.

Critical Paths under _main in BANK20

    None.

Critical Paths under _main in BANK21

    None.

Critical Paths under _main in BANK22

    None.

Critical Paths under _main in BANK23

    None.

Critical Paths under _main in BANK24

    None.

Critical Paths under _main in BANK25

    None.

Call Graph Tables:

 ---------------------------------------------------------------------------------
 (Depth) Function   	        Calls       Base Space   Used Autos Params    Refs
 ---------------------------------------------------------------------------------
 (0) _main                                                11    11      0   25443
                                             34 BANK0     11    11      0
             _EEPROM24AA512_ReadByte
            _EEPROM24AA512_WriteByte
                  _EUSART_Initialize
               _EUSART_Write_Integer
                  _EUSART_Write_Text
                           _I2C_Init
                        _I2C_ScanBus
                           _initMain
 ---------------------------------------------------------------------------------
 (1) _initMain                                             1     1      0       0
                                              0 COMMON     1     1      0
                        _internal_32
 ---------------------------------------------------------------------------------
 (2) _internal_32                                          0     0      0       0
 ---------------------------------------------------------------------------------
 (1) _I2C_ScanBus                                          5     5      0    7918
                                             29 BANK0      5     5      0
               _EUSART_Write_Integer
                  _EUSART_Write_Text
                          _I2C_Start
                           _I2C_Stop
                      _I2C_WriteByte
 ---------------------------------------------------------------------------------
 (2) _EUSART_Write_Text                                    5     3      2    1936
                                              1 COMMON     5     3      2
                       _EUSART_Write
 ---------------------------------------------------------------------------------
 (2) _EUSART_Write_Integer                                25    23      2    2923
                                             11 COMMON     3     1      2
                                              7 BANK0     22    22      0
                       _EUSART_Write
                               _itoa
 ---------------------------------------------------------------------------------
 (3) _itoa                                                 9     7      2    2069
                                              9 COMMON     2     0      2
                                              0 BANK0      7     7      0
                            ___awdiv
                            ___awmod
                             ___wmul
 ---------------------------------------------------------------------------------
 (4) ___wmul                                               6     2      4     244
                                              0 COMMON     6     2      4
 ---------------------------------------------------------------------------------
 (4) ___awmod                                              7     3      4     448
                                              0 COMMON     7     3      4
 ---------------------------------------------------------------------------------
 (4) ___awdiv                                              9     5      4     908
                                              0 COMMON     9     5      4
 ---------------------------------------------------------------------------------
 (3) _EUSART_Write                                         1     1      0      22
                                              0 COMMON     1     1      0
 ---------------------------------------------------------------------------------
 (1) _I2C_Init                                             1     1      0       0
                                              0 COMMON     1     1      0
                    _I2C_ClearErrors
 ---------------------------------------------------------------------------------
 (2) _I2C_ClearErrors                                      0     0      0       0
 ---------------------------------------------------------------------------------
 (1) _EUSART_Initialize                                   18    14      4     595
                                              9 COMMON     2     2      0
                                              6 BANK0     16    12      4
                            ___aldiv
 ---------------------------------------------------------------------------------
 (2) ___aldiv                                             15     7      8     452
                                              0 COMMON     9     1      8
                                              0 BANK0      6     6      0
 ---------------------------------------------------------------------------------
 (1) _EEPROM24AA512_WriteByte                              4     1      3    6202
                                              9 COMMON     4     1      3
              _EEPROM24AA512_AckPoll
                 _EEPROM24AA512_Ctrl
                          _I2C_Start
                           _I2C_Stop
                      _I2C_WriteByte
 ---------------------------------------------------------------------------------
 (2) _EEPROM24AA512_AckPoll                                4     4      0    2991
                                              5 COMMON     4     4      0
                 _EEPROM24AA512_Ctrl
                          _I2C_Start
                           _I2C_Stop
                      _I2C_WriteByte
 ---------------------------------------------------------------------------------
 (1) _EEPROM24AA512_ReadByte                               4     1      3    5482
                                              6 COMMON     4     1      3
                 _EEPROM24AA512_Ctrl
                       _I2C_ReadByte
                  _I2C_RepeatedStart
                          _I2C_Start
                           _I2C_Stop
                      _I2C_WriteByte
 ---------------------------------------------------------------------------------
 (2) _I2C_WriteByte                                        2     2      0     992
                                              3 COMMON     2     2      0
                         _I2C_WaitIF
                       _I2C_WaitIdle
 ---------------------------------------------------------------------------------
 (2) _I2C_Stop                                             1     1      0     938
                                              3 COMMON     1     1      0
                         _I2C_WaitIF
                       _I2C_WaitIdle
 ---------------------------------------------------------------------------------
 (2) _I2C_Start                                            1     1      0     970
                                              3 COMMON     1     1      0
                         _I2C_WaitIF
                       _I2C_WaitIdle
 ---------------------------------------------------------------------------------
 (2) _I2C_RepeatedStart                                    1     1      0     970
                                              3 COMMON     1     1      0
                         _I2C_WaitIF
                       _I2C_WaitIdle
 ---------------------------------------------------------------------------------
 (2) _I2C_ReadByte                                         3     2      1    1299
                                              3 COMMON     3     2      1
                         _I2C_WaitIF
                       _I2C_WaitIdle
 ---------------------------------------------------------------------------------
 (3) _I2C_WaitIdle                                         3     1      2     402
                                              0 COMMON     3     1      2
 ---------------------------------------------------------------------------------
 (3) _I2C_WaitIF                                           3     1      2     478
                                              0 COMMON     3     1      2
 ---------------------------------------------------------------------------------
 (2) _EEPROM24AA512_Ctrl                                   1     1      0      22
                                              0 COMMON     1     1      0
 ---------------------------------------------------------------------------------
 Estimated maximum stack depth 4
 ---------------------------------------------------------------------------------

 Call Graph Graphs:

 _main (ROOT)
   _EEPROM24AA512_ReadByte
     _EEPROM24AA512_Ctrl
     _I2C_ReadByte
       _I2C_WaitIF
       _I2C_WaitIdle
     _I2C_RepeatedStart
       _I2C_WaitIF
       _I2C_WaitIdle
     _I2C_Start
       _I2C_WaitIF
       _I2C_WaitIdle
     _I2C_Stop
       _I2C_WaitIF
       _I2C_WaitIdle
     _I2C_WriteByte
       _I2C_WaitIF
       _I2C_WaitIdle
   _EEPROM24AA512_WriteByte
     _EEPROM24AA512_AckPoll
       _EEPROM24AA512_Ctrl
       _I2C_Start
       _I2C_Stop
       _I2C_WriteByte
     _EEPROM24AA512_Ctrl
     _I2C_Start
     _I2C_Stop
     _I2C_WriteByte
   _EUSART_Initialize
     ___aldiv
   _EUSART_Write_Integer
     _EUSART_Write
     _itoa
       ___awdiv
       ___awmod
       ___wmul
   _EUSART_Write_Text
     _EUSART_Write
   _I2C_Init
     _I2C_ClearErrors
   _I2C_ScanBus
     _EUSART_Write_Integer
     _EUSART_Write_Text
     _I2C_Start
     _I2C_Stop
     _I2C_WriteByte
   _initMain
     _internal_32

 Address spaces:
Name               Size   Autos  Total    Cost      Usage
BIGRAM             7F0      0       0       0        0.0%
NULL                 0      0       0       0        0.0%
CODE                 0      0       0       0        0.0%
BITCOMMON            E      0       0       1        0.0%
BITSFR0              0      0       0       1        0.0%
SFR0                 0      0       0       1        0.0%
COMMON               E      E       E       2      100.0%
BITSFR1              0      0       0       2        0.0%
SFR1                 0      0       0       2        0.0%
BITSFR2              0      0       0       3        0.0%
SFR2                 0      0       0       3        0.0%
STACK                0      0       0       3        0.0%
BITBANK0            50      0       0       4        0.0%
BITSFR3              0      0       0       4        0.0%
SFR3                 0      0       0       4        0.0%
BANK0               50     2D      2D       5       56.2%
BITSFR4              0      0       0       5        0.0%
SFR4                 0      0       0       5        0.0%
BITBANK1            50      0       0       6        0.0%
BITSFR5              0      0       0       6        0.0%
SFR5                 0      0       0       6        0.0%
BANK1               50      0       0       7        0.0%
BITSFR6              0      0       0       7        0.0%
SFR6                 0      0       0       7        0.0%
BITBANK2            50      0       0       8        0.0%
BITSFR7              0      0       0       8        0.0%
SFR7                 0      0       0       8        0.0%
BANK2               50      0       0       9        0.0%
BITSFR8              0      0       0       9        0.0%
SFR8                 0      0       0       9        0.0%
BITBANK3            50      0       0      10        0.0%
BITSFR9              0      0       0      10        0.0%
SFR9                 0      0       0      10        0.0%
BANK3               50      0       0      11        0.0%
BITSFR10             0      0       0      11        0.0%
SFR10                0      0       0      11        0.0%
BITBANK4            50      0       0      12        0.0%
BITSFR11             0      0       0      12        0.0%
SFR11                0      0       0      12        0.0%
BANK4               50      0       0      13        0.0%
BITSFR12             0      0       0      13        0.0%
SFR12                0      0       0      13        0.0%
BITSFR13             0      0       0      14        0.0%
SFR13                0      0       0      14        0.0%
ABS                  0      0       0      14        0.0%
BITBANK5            50      0       0      15        0.0%
BITSFR14             0      0       0      15        0.0%
SFR14                0      0       0      15        0.0%
BANK5               50      0       0      16        0.0%
BITSFR15             0      0       0      16        0.0%
SFR15                0      0       0      16        0.0%
BITBANK6            50      0       0      17        0.0%
BITSFR16             0      0       0      17        0.0%
SFR16                0      0       0      17        0.0%
BANK6               50      0       0      18        0.0%
BITSFR17             0      0       0      18        0.0%
SFR17                0      0       0      18        0.0%
BITBANK7            50      0       0      19        0.0%
BITSFR18             0      0       0      19        0.0%
SFR18                0      0       0      19        0.0%
BANK7               50      0       0      20        0.0%
BITSFR19             0      0       0      20        0.0%
SFR19                0      0       0      20        0.0%
BITBANK8            50      0       0      21        0.0%
BITSFR20             0      0       0      21        0.0%
SFR20                0      0       0      21        0.0%
BANK8               50      0       0      22        0.0%
BITSFR21             0      0       0      22        0.0%
SFR21                0      0       0      22        0.0%
BITBANK9            50      0       0      23        0.0%
BITSFR22             0      0       0      23        0.0%
SFR22                0      0       0      23        0.0%
BANK9               50      0       0      24        0.0%
BITSFR23             0      0       0      24        0.0%
SFR23                0      0       0      24        0.0%
BITBANK10           50      0       0      25        0.0%
BITSFR24             0      0       0      25        0.0%
SFR24                0      0       0      25        0.0%
BANK10              50      0       0      26        0.0%
BITSFR25             0      0       0      26        0.0%
SFR25                0      0       0      26        0.0%
BITBANK11           50      0       0      27        0.0%
BITSFR26             0      0       0      27        0.0%
SFR26                0      0       0      27        0.0%
BITSFR27             0      0       0      28        0.0%
SFR27                0      0       0      28        0.0%
DATA                 0      0       0      28        0.0%
BANK11              50      0       0      29        0.0%
BITSFR28             0      0       0      29        0.0%
SFR28                0      0       0      29        0.0%
BITBANK12           50      0       0      30        0.0%
BITSFR29             0      0       0      30        0.0%
SFR29                0      0       0      30        0.0%
BANK12              50      0       0      31        0.0%
BITSFR30             0      0       0      31        0.0%
SFR30                0      0       0      31        0.0%
BITBANK13           50      0       0      32        0.0%
BITSFR31             0      0       0      32        0.0%
SFR31                0      0       0      32        0.0%
BANK13              50      0       0      33        0.0%
BITBANK14           50      0       0      34        0.0%
BANK14              50      0       0      35        0.0%
BITBANK15           50      0       0      36        0.0%
BANK15              50      0       0      37        0.0%
BITBANK16           50      0       0      38        0.0%
BANK16              50      0       0      39        0.0%
BITBANK17           50      0       0      40        0.0%
BANK17              50      0       0      41        0.0%
BITBANK18           50      0       0      42        0.0%
BANK18              50      0       0      43        0.0%
BITBANK19           50      0       0      44        0.0%
BANK19              50      0       0      45        0.0%
BITBANK20           50      0       0      46        0.0%
BANK20              50      0       0      47        0.0%
BITBANK21           50      0       0      48        0.0%
BANK21              50      0       0      49        0.0%
BITBANK22           50      0       0      50        0.0%
BANK22              50      0       0      51        0.0%
BITBANK23           50      0       0      52        0.0%
BANK23              50      0       0      53        0.0%
BITBANK24           50      0       0      54        0.0%
BANK24              50      0       0      55        0.0%
BITBANK25           20      0       0      56        0.0%
BANK25              20      0       0      57        0.0%


Microchip Technology PIC Macro Assembler V2.46 build 20240104201356 
Symbol Table                                                                                   Thu Jan 29 22:15:01 2026

                      _SSPSTATbits 0214                                 l17 0175  
                               l61 01BC                                 l70 016C  
                               l63 01D8                                 l80 0297  
                               l81 02AC                                 l82 02A9  
                               l90 0206                                 l91 021A  
                               l67 019D                                 l76 023E  
                               l92 0218                                 l85 0272  
                               l86 0287                                 l87 0284  
                               l95 02EB                                 l96 030C  
                               l97 02FE                                 l98 0306  
                     ___awdiv@sign 0076                ___wmul@multiplicand 0072  
                              l102 03D8                                l103 03A3  
                              l105 03D5                                l203 038B  
                              l213 0526                                l321 0262  
                              l305 01BA                                l161 034A  
                              l315 06AE                                l309 0654  
                              l157 047A                                l280 0428  
                              l193 017F                                l454 0599  
                              l542 0585                                l199 02DA  
                              l391 01F7                                l464 0615  
                              l296 0181                                l299 0189  
                              l555 04CD                                l389 01E3  
               _EEPROM24AA512_Ctrl 0176                       ___awmod@sign 0076  
                              wreg 0009                        main@address 004A  
                             l2001 031D                               l2011 0326  
                             l2003 031E                               l2021 033B  
                             l2013 0327                               l2005 0320  
                             l2111 050E                               l2103 04F9  
                             l2031 03D9                               l2023 033F  
                             l2015 032C                               l2007 0321  
                             l2041 0425                               l2033 041F  
                             l2025 0344                               l2017 0331  
                             l2009 0324                               l2201 07D2  
                             l2115 051C                               l2107 0504  
                             l2051 0354                               l2043 0426  
                             l2035 0422                               l2027 0347  
                             l2019 0336                               l2203 07E4  
                             l2131 06D2                               l2123 06AF  
                             l2117 0522                               l2045 0427  
                             l2037 0423                               l2029 0349  
                             l2205 07E9                               l2141 06E6  
                             l2133 06D9                               l2125 06C1  
                             l2063 036F                               l2071 037F  
                             l2055 0356                               l2039 0424  
                             l2207 07ED                               l2151 070E  
                             l2143 06ED                               l2135 06DC  
                             l2127 06C4                               l2073 0382  
                             l2049 034B                               l2161 0737  
                             l2153 071A                               l2145 06F5  
                             l2137 06DE                               l2129 06CB  
                             l1603 021B                               l2091 04DE  
                             l2083 04CE                               l2067 037A  
                             l2059 0364                               l2171 0758  
                             l2163 073B                               l2155 0721  
                             l2147 06FC                               l2139 06DF  
                             l1613 0229                               l1605 021C  
                             l2085 04D3                               l1701 04A6  
                             l1621 01D9                               l2181 0783  
                             l2173 075F                               l2165 0742  
                             l2157 072C                               l2149 0707  
                             l1607 0223                               l1615 0231  
                             l2095 04E0                               l2079 0388  
                             l1711 04C4                               l1703 04B0  
                             l1631 01F3                               l1623 01DB  
                             l2191 07A0                               l2183 0788  
                             l2175 076B                               l2167 0749  
                             l2159 0732                               l1617 023D  
                             l1609 0227                               l1721 0295  
                             l2089 04D5                               l1641 0531  
                             l1713 04C9                               l1705 04B4  
                             l1625 01DF                               l1801 06A7  
                             l2193 07AB                               l2185 078C  
                             l2177 0772                               l2169 0750  
                             l1811 0270                               l2099 04EE  
                             l1651 0542                               l1643 0533  
                             l1635 0527                               l1707 04B9  
                             l1627 01E8                               l1803 016D  
                             l2195 07B2                               l2187 0793  
                             l2179 077D                               l1733 02AB  
                             l1725 029B                               l1717 0288  
                             l1805 0166                               l1661 0558  
                             l1653 0548                               l1645 0537  
                             l1637 0528                               l1709 04BF  
                             l1629 01ED                               l2197 07B9  
                             l2189 0799                               l1591 01C1  
                             l1823 0286                               l1815 0276  
                             l1807 0263                               l1727 02A3  
                             l1719 0290                               l1743 020A  
                             l1751 02E4                               l1903 02C4  
                             l1911 0588                               l1663 0567  
                             l1655 054B                               l1671 0577  
                             l1647 053C                               l1639 052C  
                             l2199 07CB                               l1841 03A7  
                             l1833 0394                               l1817 027E  
                             l1809 026B                               l1745 0212  
                             l1737 01F8                               l1761 02F8  
                             l1753 02E9                               l1905 02D9  
                             l1921 05B4                               l1913 058C  
                             l1673 057C                               l1665 056B  
                             l1657 0550                               l1649 0540  
                             l1681 047C                               l1595 01C3  
                             l1851 03BB                               l1843 03AF  
                             l1835 039C                               l1827 038D  
                             l1739 0200                               l1931 05D5  
                             l1923 05BC                               l1915 059D  
                             l1675 0581                               l1667 056C  
                             l1659 0554                               l1691 0490  
                             l1683 0480                               l1597 01CB  
                             l1589 01BB                               l1853 03BD  
                             l1837 03A1                               l1829 0392  
                             l1773 0307                               l1757 02ED  
                             l1749 02DC                               l1933 05E7  
                             l1925 05BF                               l1941 05FD  
                             l1917 05A8                               l1909 0586  
                             l1781 0181                               l1669 0571  
                             l1693 0496                               l1685 0485  
                             l1599 01D7                               l1855 03C6  
                             l1767 0303                               l1759 02F0  
                             l1943 0602                               l1935 05EF  
                             l1927 05CA                               l1919 05AC  
                             l1951 018F                               l1783 0186  
                             l1695 0499                               l1687 0487  
                             l1679 047B                               l1791 062E  
                             l1871 01A1                               l1777 0177  
                             l1865 03D7                               l1857 03C7  
                             l1849 03B5                               l1769 0304  
                             l1945 060D                               l1937 05F0  
                             l1929 05CE                               l1953 0190  
                             l1697 049E                               l1689 048B  
                             l1793 0633                               l1785 0618  
                             l1881 024A                               l1873 01AB  
                             l1961 0430                               l1859 03CF  
                             l1939 05F7                               l1955 0192  
                             l1699 04A2                               l1795 0666  
                             l1787 0620                               l1883 024E  
                             l1875 01AF                               l1971 043A  
                             l1957 0195                               l1949 018A  
                             l1797 0696                               l1789 0629  
                             l1885 0255                               l1877 023F  
                             l1869 019E                               l1981 0456  
                             l1973 043F                               l1895 02AF  
                             l1799 06A0                               l1887 025A  
                             l1879 0242                               l1983 045D  
                             l1967 0433                               l1959 0429  
                             l1991 030D                               l1897 02BD  
                             l1889 02AD                               l1985 0468  
                             l1977 0447                               l1969 0435  
                             l1993 0310         EUSART_Write_Integer@buffer 0027  
                             l1899 02C2                               l1987 046F  
                             l1979 0450                               l1995 0318  
                             l1989 0474                               l1997 031A  
                             l1999 031C                               STR_1 0842  
                             STR_2 088A                               STR_3 085A  
                             STR_4 0858                               STR_5 0800  
                             STR_6 0827                               STR_7 0801  
                             STR_8 087C                               STR_9 08F4  
              ?_EEPROM24AA512_Ctrl 0070                               _BRGH 0CF2  
                             _CREN 0CEC                               u1100 01C1  
                             u1101 01C0                               u1110 01D7  
                             u1111 01D6                               u1120 0223  
                             u1200 0537                               u1121 0222  
                             u1201 0536                               u1130 0227  
                             u1210 0548                               u1131 0226  
                             u1211 0547                               u1140 023D  
                             u1300 048B                               u1141 023C  
                             u1301 048A                               u1230 0558  
                             u1310 0496                               u1150 01DF  
                             u1231 0557                               u1311 0495  
                             u1151 01DE                               u1400 0205  
                             u1401 0204                               u1225 054C  
                             u1410 0217                               u1250 0567  
                             u1330 04A6                               u1411 0216  
                             u1251 0566                               u1331 04A5  
                             u1420 02E9                               u1340 04B0  
                             u1180 01F3                               u1500 06A7  
                             u1421 02E8                               u1245 0559  
                             u1341 04AF                               u1325 049A  
                             u1181 01F2                               u1165 01E4  
                             u1501 06A6                               u1510 0270  
                             u1430 02FD                               u1270 0577  
                             u1190 052C                               u2207 022C  
                             u1511 026F                               u1431 02FC  
                             u1271 0576                               u1255 0563  
                             u1191 052B                               u1175 01E9  
                             u1520 0283                               u1440 0303  
                             u1280 057C                               u1360 04BF  
                             u1600 0262                               u2217 01C6  
                             u1521 0282                               u1441 0302  
                             u1281 057B                               u1265 056D  
                             u1361 04BE                               u1345 04AC  
                             u1601 0261                               u1450 017D  
                             u1530 0392                               u1610 02C2  
                             u1370 04C4                               u1290 0480  
                             u1451 017B                               u1531 0391  
                             u1611 02C1                               u1371 04C3  
                             u1355 04B5                               u1291 047F  
                             u1460 017E                               u1540 03A1  
                             u1380 0295                               u1620 02D9  
                             u1541 03A0                               u1381 0294  
                             u1621 02D8                               u1550 03B4  
                             u1390 02A8                               u1710 05FD  
                             u1630 058C                               u1470 0186  
                             u1551 03B3                               u1391 02A7  
                             u1711 05FC                               u1631 058B  
                             u1471 0185                               u2167 07F3  
                             u1560 03C4                               u1800 036E  
                             u1720 0602                               u1640 059D  
                             u1480 0620                               u1561 03C1  
                             u1801 036D                               u1721 0601  
                             u1705 05F1                               u1641 059C  
                             u1481 061F                               u2177 0313  
                             u1810 0379                               u1650 05BC  
                             u1490 0665                               u1730 043F  
                             u1811 0378                               u1651 05BB  
                             u2187 0198                               u1491 0664  
                             u1731 043E                               u1580 03D4  
                             u1820 0387                               u1740 0456  
                             u1900 0732                               u1581 03D3  
                             u2197 02C7                               u1821 0386  
                             u1741 0455                               u1901 0731  
                             u1574 03C6                               u1830 04D3  
                             u1670 05CE                               u1590 01BA  
                             u1750 047A                               u1910 0783  
                             u1831 04D2                               u1671 05CD  
                             u1591 01B9                               u1751 0479  
                             u1911 0782                               u1840 04DE  
                             u1760 03E7                               u1920 0799  
                             u1841 04DD                               u1665 05C0  
                             u1921 0798                               u1850 04ED  
                             u1690 05E7                               u1770 03FE  
                             u1851 04EC                               u1691 05E6  
                             u1860 04F8                               u1780 0354  
                             u1861 04F7                               u1781 0353  
                             u1685 05CF                               u1765 03E3  
                             u1870 0503                               u1790 0363  
                             u1871 0502                               u1791 0362  
                             u1695 05E3                               u1775 03FA  
                             u1880 050D                               u1881 050C  
                             u1890 051B                               u1891 051A  
                             _SCS0 04C8                               _SCS1 04C9  
                             _SPEN 0CEF                        main@readVal 0049  
                             _TXEN 0CF5                               _SYNC 0CF4  
                             _main 06AF                               _itoa 0616  
                 __end_of_I2C_Init 019E                               fsr0h 0005  
                             fsr1h 0007                               indf0 0000  
                             fsr0l 0004                               indf1 0001  
                             fsr1l 0006                               btemp 007E  
                 __end_of_I2C_Stop 021B                               start 0002  
             ??_EEPROM24AA512_Ctrl 0070                      ?_EUSART_Write 0070  
                  __end_of___aldiv 0616                              ?_main 0070  
                            ?_itoa 0079                    __end_of___awdiv 0586  
                            STR_10 08DB                              STR_11 0858  
                            STR_20 08C9                              STR_12 086D  
                            STR_13 08ED                              STR_21 08B3  
                            STR_22 0858                              STR_14 08C9  
                            STR_23 08D2                              STR_15 08A6  
                            STR_16 08F4                              STR_24 08BF  
                            _BRG16 0CFB                              STR_17 0858  
                            STR_25 08E4                              STR_26 0858  
                            STR_18 0898                              STR_19 08ED  
                  __end_of___awmod 04CE                    ___awdiv@divisor 0070  
                            _IRCF0 04CB                              _IRCF1 04CC  
                            _IRCF2 04CD                              _IRCF3 04CE  
                  ___awdiv@counter 0075          ??_EEPROM24AA512_WriteByte 007C  
                     _I2C_ReadByte 038C                  __end_of_I2C_Start 02AD  
                            itoa@d 0079                       _I2C_WaitIdle 021B  
             I2C_WaitIF@timeout_ms 0070                              status 0003  
                            wtemp0 007E             EEPROM24AA512_AckPoll@t 0077  
                     ?_internal_32 0070                       main@writeVal 0048  
                  __initialization 07FD                       __end_of_main 07FD  
                     __end_of_itoa 06AF                     ??_EUSART_Write 0070  
                           ??_main 0042                             ??_itoa 007B  
              I2C_RepeatedStart@st 0073                   ___awdiv@dividend 0072  
                     ??_I2C_WaitIF 0072                             _RC1REG 0199  
           EEPROM24AA512_Ctrl@read 0070                             _SPBRGL 019B  
                           _TX1REG 019A                             _SPLLEN 04CF  
                           _SSPADD 0212                             _SSPBUF 0211  
                        ??___aldiv 0078                             ___wmul 01D9  
                        ??___awdiv 0074                          ??___awmod 0074  
                 __end_of_initMain 034B              _EEPROM24AA512_AckPoll 02AD  
                 ___awdiv@quotient 0077                    ___awmod@divisor 0070  
                  ___awmod@counter 0075                 __end_of_I2C_WaitIF 01D9  
                           main@st 004C           ??_EEPROM24AA512_ReadByte 0079  
       EEPROM24AA512_ReadByte@addr 0076         EEPROM24AA512_ReadByte@data 0078  
                        ?_I2C_Init 0070                          ?_I2C_Stop 0070  
          EEPROM24AA512_AckPoll@st 0076                    I2C_WriteByte@st 0074  
          __end_of__initialization 07FD                     __pcstackCOMMON 0070  
                    _I2C_WriteByte 02DB                         ??_I2C_Init 0070  
                       ??_I2C_Stop 0073               __end_of_EUSART_Write 018A  
                       __pmaintext 06AF                     ?_I2C_WriteByte 0070  
           ?_EEPROM24AA512_AckPoll 0070                            ?___wmul 0070  
                       I2C_Stop@st 0073                      ??_I2C_ScanBus 003D  
                   I2C_ReadByte@st 0075                            _PPSLOCK 0E0F  
                          _SSPCON2 0216             I2C_WaitIdle@timeout_ms 0070  
                        ?_initMain 0070                          _I2C_Start 0288  
                 I2C_ReadByte@data 0074                            ___aldiv 0586  
                          ___awdiv 0527                            ___awmod 047B  
                ??_I2C_ClearErrors 0070                            __ptext1 030D  
                          __ptext2 016D                            __ptext3 0429  
                          __ptext4 019E                            __ptext5 023F  
                          __ptext6 0616                            __ptext7 01D9  
                          __ptext8 047B                            __ptext9 0527  
                 ___awmod@dividend 0072                   ___aldiv@dividend 0074  
              __end_of_I2C_ScanBus 047B               end_of_initialization 07FD  
                       ??_initMain 0070                            itoa@div 0025  
                          itoa@buf 0024                            itoa@num 0020  
           _EEPROM24AA512_ReadByte 04CE                         ?_I2C_Start 0070  
                _EUSART_Initialize 03D9                   I2C_ScanBus@addr7 0041  
                  ??_I2C_WriteByte 0073                   I2C_ScanBus@ctrlW 003F  
               ?_EUSART_Initialize 0026                   ___aldiv@quotient 0022  
               EUSART_Initialize@x 0079                ??_EUSART_Initialize 002A  
         ?_EEPROM24AA512_WriteByte 0079                          _TRISBbits 008D  
                        _TRISCbits 008E                          _RXPPSbits 0E24  
        __end_of_EUSART_Initialize 0429       __end_of_EUSART_Write_Integer 0263  
                   __end_of___wmul 01F8                       _EUSART_Write 0180  
                      _I2C_ScanBus 0429                start_initialization 07FD  
EUSART_Write_Integer@value_to_send 007B                  _EUSART_Write_Text 019E  
                      ??_I2C_Start 0073            ??_EEPROM24AA512_AckPoll 0075  
               ?_EUSART_Write_Text 0071                           ??___wmul 0074  
  __end_of_EEPROM24AA512_WriteByte 038C                  _I2C_RepeatedStart 0263  
              ??_EUSART_Write_Text 0073                 ?_I2C_RepeatedStart 0070  
                        ___latbits 0003                      __pcstackBANK0 0020  
                    ?_I2C_ReadByte 0073                ??_I2C_RepeatedStart 0073  
        __end_of_EUSART_Write_Text 01BB                      ?_I2C_WaitIdle 0070  
      EEPROM24AA512_WriteByte@addr 0079        EEPROM24AA512_WriteByte@data 007B  
                  _I2C_ClearErrors 0166                      ??_internal_32 0070  
        EEPROM24AA512_WriteByte@st 007C          __end_of_I2C_RepeatedStart 0288  
                         ?___aldiv 0070                           ?___awdiv 0070  
                         ?___awmod 0070          EUSART_Initialize@baudrate 0026  
                    I2C_ScanBus@st 0040                        I2C_Start@st 0073  
                         _I2C_Init 018A                           _I2C_Stop 01F8  
                   ??_I2C_ReadByte 0074                    I2C_ReadByte@ack 0073  
             _EUSART_Write_Integer 023F                     ??_I2C_WaitIdle 0072  
          ?_EEPROM24AA512_ReadByte 0076                    ___aldiv@divisor 0070  
                  ___aldiv@counter 0020                     ___wmul@product 0074  
                         _PIR1bits 0011                           _PIR2bits 0012  
          EUSART_Write_Integer@ptr 003B         __end_of_EEPROM24AA512_Ctrl 0180  
              __end_of_internal_32 0176                  ___wmul@multiplier 0070  
         EEPROM24AA512_ReadByte@st 0079              ?_EUSART_Write_Integer 007B  
          __end_of_I2C_ClearErrors 016D     __end_of_EEPROM24AA512_ReadByte 0527  
                       _I2C_WaitIF 01BB       EUSART_Write_Integer@temp_ptr 003C  
            __end_of_I2C_WriteByte 030D                       ?_I2C_ScanBus 0070  
                       _ANSELBbits 018D                         _ANSELCbits 018E  
                         _main$501 0046                           _main$493 0044  
                         __ptext10 0180                           __ptext11 018A  
                         __ptext20 0288                           __ptext12 0166  
                         __ptext21 0263                           __ptext13 03D9  
                         __ptext22 038C                           __ptext14 0586  
                         __ptext23 021B                           __ptext15 034B  
                         __ptext24 01BB                           __ptext16 02AD  
                         __ptext25 0176                           __ptext17 04CE  
                         __ptext18 02DB                           __ptext19 01F8  
                         _initMain 030D                      _SSPDATPPSbits 0E21  
                      _internal_32 016D                         _RB2PPSbits 0E9A  
             __end_of_I2C_ReadByte 03D9                         _RC1STAbits 019D  
    __end_of_EEPROM24AA512_AckPoll 02DB                         _RC4PPSbits 0EA4  
                    _SSPCLKPPSbits 0E20                         _RC5PPSbits 0EA5  
             __end_of_I2C_WaitIdle 023F             ??_EUSART_Write_Integer 007D  
                   __pstringtext10 08B3                     __pstringtext11 08BF  
                   __pstringtext12 08C9                     __pstringtext13 08D2  
                   __pstringtext14 08DB                     __pstringtext15 08E4  
                   __pstringtext16 08ED                     __pstringtext17 08F4  
                   __pstringtext18 0000                           itoa@temp 0022  
                 ?_I2C_ClearErrors 0070                        ?_I2C_WaitIF 0070  
                      _PPSLOCKbits 0E0F                      __pstringtext1 0800  
                    __pstringtext2 0827                      __pstringtext3 0842  
                    __pstringtext4 085A                      __pstringtext5 086D  
                    __pstringtext6 087C                      __pstringtext7 088A  
                    __pstringtext8 0898                      __pstringtext9 08A6  
            EUSART_Write_Text@text 0071                       ___aldiv@sign 0021  
                      _SSPCON1bits 0215                        _SSPCON2bits 0216  
          _EEPROM24AA512_WriteByte 034B                 EUSART_Write@txData 0070  
                I2C_WriteByte@data 0073                         _SSPCONbits 0215  
               EUSART_Write_Text@i 0074  
