

Microchip MPLAB XC8 Assembler V2.46 build 20240104201356 
                                                                                               Thu Jan 29 20:10:35 2026

Microchip MPLAB XC8 C Compiler v2.46 (Free license) build 20240104201356 Og1 
     1                           	processor	16F1718
     2                           	pagewidth 120
     3                           	opt	flic
     4                           	psect	idataBANK0,global,class=CODE,delta=2,noexec
     5                           	psect	stringtext1,global,class=STRCODE,delta=2,noexec
     6                           	psect	stringtext2,global,class=STRCODE,delta=2,noexec
     7                           	psect	stringtext3,global,class=STRCODE,delta=2,noexec
     8                           	psect	stringtext4,global,class=STRCODE,delta=2,noexec
     9                           	psect	stringtext5,global,class=STRCODE,delta=2,noexec
    10                           	psect	stringtext6,global,class=STRCODE,delta=2,noexec
    11                           	psect	stringtext7,global,class=STRCODE,delta=2,noexec
    12                           	psect	stringtext8,global,class=STRCODE,delta=2,noexec
    13                           	psect	stringtext9,global,class=STRCODE,delta=2,noexec
    14                           	psect	stringtext10,global,class=STRCODE,delta=2,noexec
    15                           	psect	stringtext11,global,class=STRCODE,delta=2,noexec
    16                           	psect	stringtext12,global,class=STRCODE,delta=2,noexec
    17                           	psect	stringtext13,global,class=STRCODE,delta=2,noexec
    18                           	psect	stringtext14,global,class=STRCODE,delta=2,noexec
    19                           	psect	stringtext15,global,class=STRCODE,delta=2,noexec
    20                           	psect	cinit,global,class=CODE,merge=1,delta=2
    21                           	psect	bssBANK0,global,class=BANK0,space=1,delta=1,noexec
    22                           	psect	dataBANK0,global,class=BANK0,space=1,delta=1,noexec
    23                           	psect	bssBANK1,global,class=BANK1,space=1,delta=1,noexec
    24                           	psect	clrtext,global,class=CODE,delta=2
    25                           	psect	cstackBANK1,global,class=BANK1,space=1,delta=1,noexec
    26                           	psect	cstackCOMMON,global,class=COMMON,space=1,delta=1,noexec
    27                           	psect	cstackBANK0,global,class=BANK0,space=1,delta=1,noexec
    28                           	psect	maintext,global,class=CODE,merge=1,split=1,delta=2
    29                           	psect	text1,local,class=CODE,merge=1,delta=2,group=2
    30                           	psect	text2,local,class=CODE,merge=1,delta=2
    31                           	psect	text3,local,class=CODE,merge=1,delta=2
    32                           	psect	text4,local,class=CODE,merge=1,delta=2
    33                           	psect	text5,local,class=CODE,merge=1,delta=2
    34                           	psect	text6,local,class=CODE,merge=1,delta=2
    35                           	psect	text7,local,class=CODE,merge=1,delta=2
    36                           	psect	text8,local,class=CODE,merge=1,delta=2,group=2
    37                           	psect	text9,local,class=CODE,merge=1,delta=2
    38                           	psect	text10,local,class=CODE,merge=1,delta=2
    39                           	psect	text11,local,class=CODE,merge=1,delta=2
    40                           	psect	text12,local,class=CODE,merge=1,delta=2
    41                           	psect	text13,local,class=CODE,merge=1,delta=2
    42                           	psect	text14,local,class=CODE,merge=1,delta=2
    43                           	psect	text15,local,class=CODE,merge=1,delta=2,group=1
    44                           	psect	text16,local,class=CODE,merge=1,delta=2,group=1
    45                           	psect	text17,local,class=CODE,merge=1,delta=2
    46                           	psect	text18,local,class=CODE,merge=1,delta=2
    47                           	psect	text19,local,class=CODE,merge=1,delta=2
    48                           	psect	text20,local,class=CODE,merge=1,delta=2
    49                           	psect	text21,local,class=CODE,merge=1,delta=2
    50                           	psect	text22,local,class=CODE,merge=1,delta=2,group=1
    51                           	psect	text23,local,class=CODE,merge=1,delta=2,group=1
    52                           	psect	text24,local,class=CODE,merge=1,delta=2
    53                           	psect	text25,local,class=CODE,merge=1,delta=2
    54                           	psect	text26,local,class=CODE,merge=1,delta=2
    55                           	psect	text27,local,class=CODE,merge=1,delta=2
    56                           	psect	text28,local,class=CODE,merge=1,delta=2
    57                           	psect	text29,local,class=CODE,merge=1,inline,delta=2
    58                           	psect	text30,local,class=CODE,merge=1,inline,delta=2
    59                           	psect	text31,local,class=CODE,merge=1,delta=2,group=1
    60                           	psect	text32,local,class=CODE,merge=1,delta=2
    61                           	psect	text33,local,class=CODE,merge=1,delta=2,group=1
    62                           	psect	text34,local,class=CODE,merge=1,delta=2
    63                           	psect	text35,local,class=CODE,merge=1,delta=2
    64                           	psect	text36,local,class=CODE,merge=1,delta=2
    65                           	psect	text37,local,class=CODE,merge=1,delta=2,group=1
    66                           	psect	config,global,abs,ovrld,class=CONFIG,space=4,delta=2,noexec
    67                           	dabs	1,0xCA0,32
    68                           	dabs	1,0xC30,64
    69                           	dabs	1,0xC20,16
    70                           	dabs	1,0xBA0,80
    71                           	dabs	1,0x2730,0,_work
    72                           	dabs	1,0x2790,0,_line
    73                           	dabs	1,0x7E,2
    74     0000                     
    75                           ; Generated 07/09/2023 GMT
    76                           ; 
    77                           ; Copyright © 2023, Microchip Technology Inc. and its subsidiaries ("Microchip")
    78                           ; All rights reserved.
    79                           ; 
    80                           ; This software is developed by Microchip Technology Inc. and its subsidiaries ("Microch
      +                          ip").
    81                           ; 
    82                           ; Redistribution and use in source and binary forms, with or without modification, are
    83                           ; permitted provided that the following conditions are met:
    84                           ; 
    85                           ;     1. Redistributions of source code must retain the above copyright notice, this lis
      +                          t of
    86                           ;        conditions and the following disclaimer.
    87                           ; 
    88                           ;     2. Redistributions in binary form must reproduce the above copyright notice, this 
      +                          list
    89                           ;        of conditions and the following disclaimer in the documentation and/or other
    90                           ;        materials provided with the distribution. Publication is not required when
    91                           ;        this file is used in an embedded application.
    92                           ; 
    93                           ;     3. Microchip's name may not be used to endorse or promote products derived from th
      +                          is
    94                           ;        software without specific prior written permission.
    95                           ; 
    96                           ; THIS SOFTWARE IS PROVIDED BY MICROCHIP "AS IS" AND ANY EXPRESS OR IMPLIED WARRANTIES,
    97                           ; INCLUDING, BUT NOT LIMITED TO, THE IMPLIED WARRANTIES OF MERCHANTABILITY AND FITNESS F
      +                          OR
    98                           ; PURPOSE ARE DISCLAIMED.  IN NO EVENT SHALL MICROCHIP BE LIABLE FOR ANY DIRECT, INDIREC
      +                          T,
    99                           ; INCIDENTAL, SPECIAL, EXEMPLARY, OR CONSEQUENTIAL DAMAGES (INCLUDING BUT NOT LIMITED TO
   100                           ; PROCUREMENT OF SUBSTITUTE GOODS OR SERVICES; LOSS OF USE, DATA OR PROFITS; OR BUSINESS
   101                           ; INTERRUPTION) HOWSOEVER CAUSED AND ON ANY THEORY OF LIABILITY, WHETHER IN CONTRACT, ST
      +                          RICT
   102                           ; LIABILITY, OR TORT (INCLUDING NEGLIGENCE OR OTHERWISE) ARISING IN ANY WAY OUT OF THE U
      +                          SE OF
   103                           ; THIS SOFTWARE, EVEN IF ADVISED OF THE POSSIBILITY OF SUCH DAMAGE.
   104                           ; 
   105                           ; 
   106                           ; Code-generator required, PIC16F1718 Definitions
   107                           ; 
   108                           ; SFR Addresses
   109     0000                     	;# 
   110     0001                     	;# 
   111     0002                     	;# 
   112     0003                     	;# 
   113     0004                     	;# 
   114     0005                     	;# 
   115     0006                     	;# 
   116     0007                     	;# 
   117     0008                     	;# 
   118     0009                     	;# 
   119     000A                     	;# 
   120     000B                     	;# 
   121     000C                     	;# 
   122     000D                     	;# 
   123     000E                     	;# 
   124     0010                     	;# 
   125     0011                     	;# 
   126     0012                     	;# 
   127     0013                     	;# 
   128     0015                     	;# 
   129     0016                     	;# 
   130     0016                     	;# 
   131     0017                     	;# 
   132     0018                     	;# 
   133     0019                     	;# 
   134     001A                     	;# 
   135     001B                     	;# 
   136     001C                     	;# 
   137     008C                     	;# 
   138     008D                     	;# 
   139     008E                     	;# 
   140     0090                     	;# 
   141     0091                     	;# 
   142     0092                     	;# 
   143     0093                     	;# 
   144     0095                     	;# 
   145     0096                     	;# 
   146     0097                     	;# 
   147     0098                     	;# 
   148     0099                     	;# 
   149     009A                     	;# 
   150     009B                     	;# 
   151     009B                     	;# 
   152     009C                     	;# 
   153     009D                     	;# 
   154     009E                     	;# 
   155     009F                     	;# 
   156     010C                     	;# 
   157     010D                     	;# 
   158     010E                     	;# 
   159     0111                     	;# 
   160     0112                     	;# 
   161     0113                     	;# 
   162     0114                     	;# 
   163     0115                     	;# 
   164     0116                     	;# 
   165     0117                     	;# 
   166     0118                     	;# 
   167     0119                     	;# 
   168     011A                     	;# 
   169     011B                     	;# 
   170     011B                     	;# 
   171     011C                     	;# 
   172     018C                     	;# 
   173     018D                     	;# 
   174     018E                     	;# 
   175     0191                     	;# 
   176     0191                     	;# 
   177     0192                     	;# 
   178     0193                     	;# 
   179     0193                     	;# 
   180     0194                     	;# 
   181     0195                     	;# 
   182     0196                     	;# 
   183     0197                     	;# 
   184     0199                     	;# 
   185     0199                     	;# 
   186     0199                     	;# 
   187     019A                     	;# 
   188     019A                     	;# 
   189     019A                     	;# 
   190     019B                     	;# 
   191     019B                     	;# 
   192     019B                     	;# 
   193     019B                     	;# 
   194     019B                     	;# 
   195     019C                     	;# 
   196     019C                     	;# 
   197     019C                     	;# 
   198     019D                     	;# 
   199     019D                     	;# 
   200     019D                     	;# 
   201     019E                     	;# 
   202     019E                     	;# 
   203     019E                     	;# 
   204     019F                     	;# 
   205     019F                     	;# 
   206     019F                     	;# 
   207     019F                     	;# 
   208     019F                     	;# 
   209     020C                     	;# 
   210     020D                     	;# 
   211     020E                     	;# 
   212     0210                     	;# 
   213     0211                     	;# 
   214     0211                     	;# 
   215     0212                     	;# 
   216     0212                     	;# 
   217     0213                     	;# 
   218     0213                     	;# 
   219     0214                     	;# 
   220     0214                     	;# 
   221     0215                     	;# 
   222     0215                     	;# 
   223     0215                     	;# 
   224     0215                     	;# 
   225     0216                     	;# 
   226     0216                     	;# 
   227     0217                     	;# 
   228     0217                     	;# 
   229     028C                     	;# 
   230     028D                     	;# 
   231     028E                     	;# 
   232     0291                     	;# 
   233     0291                     	;# 
   234     0292                     	;# 
   235     0293                     	;# 
   236     0293                     	;# 
   237     0298                     	;# 
   238     0298                     	;# 
   239     0299                     	;# 
   240     029A                     	;# 
   241     029A                     	;# 
   242     029E                     	;# 
   243     030C                     	;# 
   244     030D                     	;# 
   245     030E                     	;# 
   246     038C                     	;# 
   247     038D                     	;# 
   248     038E                     	;# 
   249     0390                     	;# 
   250     0391                     	;# 
   251     0392                     	;# 
   252     0393                     	;# 
   253     0394                     	;# 
   254     0395                     	;# 
   255     0396                     	;# 
   256     0397                     	;# 
   257     0398                     	;# 
   258     0399                     	;# 
   259     039D                     	;# 
   260     039E                     	;# 
   261     039F                     	;# 
   262     0415                     	;# 
   263     0416                     	;# 
   264     0417                     	;# 
   265     041C                     	;# 
   266     041D                     	;# 
   267     041E                     	;# 
   268     0498                     	;# 
   269     0498                     	;# 
   270     0499                     	;# 
   271     049A                     	;# 
   272     049B                     	;# 
   273     049B                     	;# 
   274     049C                     	;# 
   275     049D                     	;# 
   276     049E                     	;# 
   277     049F                     	;# 
   278     0511                     	;# 
   279     0515                     	;# 
   280     0617                     	;# 
   281     0618                     	;# 
   282     0619                     	;# 
   283     0619                     	;# 
   284     061A                     	;# 
   285     061B                     	;# 
   286     061C                     	;# 
   287     061C                     	;# 
   288     0691                     	;# 
   289     0692                     	;# 
   290     0693                     	;# 
   291     0694                     	;# 
   292     0695                     	;# 
   293     0696                     	;# 
   294     0697                     	;# 
   295     0698                     	;# 
   296     0699                     	;# 
   297     069A                     	;# 
   298     069B                     	;# 
   299     069C                     	;# 
   300     069D                     	;# 
   301     069E                     	;# 
   302     069F                     	;# 
   303     0E0F                     	;# 
   304     0E10                     	;# 
   305     0E11                     	;# 
   306     0E12                     	;# 
   307     0E13                     	;# 
   308     0E14                     	;# 
   309     0E15                     	;# 
   310     0E17                     	;# 
   311     0E20                     	;# 
   312     0E21                     	;# 
   313     0E22                     	;# 
   314     0E24                     	;# 
   315     0E25                     	;# 
   316     0E28                     	;# 
   317     0E29                     	;# 
   318     0E2A                     	;# 
   319     0E2B                     	;# 
   320     0E90                     	;# 
   321     0E91                     	;# 
   322     0E92                     	;# 
   323     0E93                     	;# 
   324     0E94                     	;# 
   325     0E95                     	;# 
   326     0E96                     	;# 
   327     0E97                     	;# 
   328     0E98                     	;# 
   329     0E99                     	;# 
   330     0E9A                     	;# 
   331     0E9B                     	;# 
   332     0E9C                     	;# 
   333     0E9D                     	;# 
   334     0E9E                     	;# 
   335     0E9F                     	;# 
   336     0EA0                     	;# 
   337     0EA1                     	;# 
   338     0EA2                     	;# 
   339     0EA3                     	;# 
   340     0EA4                     	;# 
   341     0EA5                     	;# 
   342     0EA6                     	;# 
   343     0EA7                     	;# 
   344     0F0F                     	;# 
   345     0F10                     	;# 
   346     0F11                     	;# 
   347     0F12                     	;# 
   348     0F13                     	;# 
   349     0F14                     	;# 
   350     0F15                     	;# 
   351     0F16                     	;# 
   352     0F17                     	;# 
   353     0F18                     	;# 
   354     0F19                     	;# 
   355     0F1A                     	;# 
   356     0F1B                     	;# 
   357     0F1C                     	;# 
   358     0F1D                     	;# 
   359     0F1E                     	;# 
   360     0F1F                     	;# 
   361     0F20                     	;# 
   362     0F21                     	;# 
   363     0F22                     	;# 
   364     0F23                     	;# 
   365     0F24                     	;# 
   366     0F25                     	;# 
   367     0F26                     	;# 
   368     0F27                     	;# 
   369     0F28                     	;# 
   370     0F29                     	;# 
   371     0F2A                     	;# 
   372     0F2B                     	;# 
   373     0F2C                     	;# 
   374     0F2D                     	;# 
   375     0F2E                     	;# 
   376     0F2F                     	;# 
   377     0F30                     	;# 
   378     0F31                     	;# 
   379     0F32                     	;# 
   380     0F33                     	;# 
   381     0F34                     	;# 
   382     0F35                     	;# 
   383     0F36                     	;# 
   384     0F37                     	;# 
   385     0FE4                     	;# 
   386     0FE5                     	;# 
   387     0FE6                     	;# 
   388     0FE7                     	;# 
   389     0FE8                     	;# 
   390     0FE9                     	;# 
   391     0FEA                     	;# 
   392     0FEB                     	;# 
   393     0FED                     	;# 
   394     0FEE                     	;# 
   395     0FEF                     	;# 
   396     0000                     	;# 
   397     0001                     	;# 
   398     0002                     	;# 
   399     0003                     	;# 
   400     0004                     	;# 
   401     0005                     	;# 
   402     0006                     	;# 
   403     0007                     	;# 
   404     0008                     	;# 
   405     0009                     	;# 
   406     000A                     	;# 
   407     000B                     	;# 
   408     000C                     	;# 
   409     000D                     	;# 
   410     000E                     	;# 
   411     0010                     	;# 
   412     0011                     	;# 
   413     0012                     	;# 
   414     0013                     	;# 
   415     0015                     	;# 
   416     0016                     	;# 
   417     0016                     	;# 
   418     0017                     	;# 
   419     0018                     	;# 
   420     0019                     	;# 
   421     001A                     	;# 
   422     001B                     	;# 
   423     001C                     	;# 
   424     008C                     	;# 
   425     008D                     	;# 
   426     008E                     	;# 
   427     0090                     	;# 
   428     0091                     	;# 
   429     0092                     	;# 
   430     0093                     	;# 
   431     0095                     	;# 
   432     0096                     	;# 
   433     0097                     	;# 
   434     0098                     	;# 
   435     0099                     	;# 
   436     009A                     	;# 
   437     009B                     	;# 
   438     009B                     	;# 
   439     009C                     	;# 
   440     009D                     	;# 
   441     009E                     	;# 
   442     009F                     	;# 
   443     010C                     	;# 
   444     010D                     	;# 
   445     010E                     	;# 
   446     0111                     	;# 
   447     0112                     	;# 
   448     0113                     	;# 
   449     0114                     	;# 
   450     0115                     	;# 
   451     0116                     	;# 
   452     0117                     	;# 
   453     0118                     	;# 
   454     0119                     	;# 
   455     011A                     	;# 
   456     011B                     	;# 
   457     011B                     	;# 
   458     011C                     	;# 
   459     018C                     	;# 
   460     018D                     	;# 
   461     018E                     	;# 
   462     0191                     	;# 
   463     0191                     	;# 
   464     0192                     	;# 
   465     0193                     	;# 
   466     0193                     	;# 
   467     0194                     	;# 
   468     0195                     	;# 
   469     0196                     	;# 
   470     0197                     	;# 
   471     0199                     	;# 
   472     0199                     	;# 
   473     0199                     	;# 
   474     019A                     	;# 
   475     019A                     	;# 
   476     019A                     	;# 
   477     019B                     	;# 
   478     019B                     	;# 
   479     019B                     	;# 
   480     019B                     	;# 
   481     019B                     	;# 
   482     019C                     	;# 
   483     019C                     	;# 
   484     019C                     	;# 
   485     019D                     	;# 
   486     019D                     	;# 
   487     019D                     	;# 
   488     019E                     	;# 
   489     019E                     	;# 
   490     019E                     	;# 
   491     019F                     	;# 
   492     019F                     	;# 
   493     019F                     	;# 
   494     019F                     	;# 
   495     019F                     	;# 
   496     020C                     	;# 
   497     020D                     	;# 
   498     020E                     	;# 
   499     0210                     	;# 
   500     0211                     	;# 
   501     0211                     	;# 
   502     0212                     	;# 
   503     0212                     	;# 
   504     0213                     	;# 
   505     0213                     	;# 
   506     0214                     	;# 
   507     0214                     	;# 
   508     0215                     	;# 
   509     0215                     	;# 
   510     0215                     	;# 
   511     0215                     	;# 
   512     0216                     	;# 
   513     0216                     	;# 
   514     0217                     	;# 
   515     0217                     	;# 
   516     028C                     	;# 
   517     028D                     	;# 
   518     028E                     	;# 
   519     0291                     	;# 
   520     0291                     	;# 
   521     0292                     	;# 
   522     0293                     	;# 
   523     0293                     	;# 
   524     0298                     	;# 
   525     0298                     	;# 
   526     0299                     	;# 
   527     029A                     	;# 
   528     029A                     	;# 
   529     029E                     	;# 
   530     030C                     	;# 
   531     030D                     	;# 
   532     030E                     	;# 
   533     038C                     	;# 
   534     038D                     	;# 
   535     038E                     	;# 
   536     0390                     	;# 
   537     0391                     	;# 
   538     0392                     	;# 
   539     0393                     	;# 
   540     0394                     	;# 
   541     0395                     	;# 
   542     0396                     	;# 
   543     0397                     	;# 
   544     0398                     	;# 
   545     0399                     	;# 
   546     039D                     	;# 
   547     039E                     	;# 
   548     039F                     	;# 
   549     0415                     	;# 
   550     0416                     	;# 
   551     0417                     	;# 
   552     041C                     	;# 
   553     041D                     	;# 
   554     041E                     	;# 
   555     0498                     	;# 
   556     0498                     	;# 
   557     0499                     	;# 
   558     049A                     	;# 
   559     049B                     	;# 
   560     049B                     	;# 
   561     049C                     	;# 
   562     049D                     	;# 
   563     049E                     	;# 
   564     049F                     	;# 
   565     0511                     	;# 
   566     0515                     	;# 
   567     0617                     	;# 
   568     0618                     	;# 
   569     0619                     	;# 
   570     0619                     	;# 
   571     061A                     	;# 
   572     061B                     	;# 
   573     061C                     	;# 
   574     061C                     	;# 
   575     0691                     	;# 
   576     0692                     	;# 
   577     0693                     	;# 
   578     0694                     	;# 
   579     0695                     	;# 
   580     0696                     	;# 
   581     0697                     	;# 
   582     0698                     	;# 
   583     0699                     	;# 
   584     069A                     	;# 
   585     069B                     	;# 
   586     069C                     	;# 
   587     069D                     	;# 
   588     069E                     	;# 
   589     069F                     	;# 
   590     0E0F                     	;# 
   591     0E10                     	;# 
   592     0E11                     	;# 
   593     0E12                     	;# 
   594     0E13                     	;# 
   595     0E14                     	;# 
   596     0E15                     	;# 
   597     0E17                     	;# 
   598     0E20                     	;# 
   599     0E21                     	;# 
   600     0E22                     	;# 
   601     0E24                     	;# 
   602     0E25                     	;# 
   603     0E28                     	;# 
   604     0E29                     	;# 
   605     0E2A                     	;# 
   606     0E2B                     	;# 
   607     0E90                     	;# 
   608     0E91                     	;# 
   609     0E92                     	;# 
   610     0E93                     	;# 
   611     0E94                     	;# 
   612     0E95                     	;# 
   613     0E96                     	;# 
   614     0E97                     	;# 
   615     0E98                     	;# 
   616     0E99                     	;# 
   617     0E9A                     	;# 
   618     0E9B                     	;# 
   619     0E9C                     	;# 
   620     0E9D                     	;# 
   621     0E9E                     	;# 
   622     0E9F                     	;# 
   623     0EA0                     	;# 
   624     0EA1                     	;# 
   625     0EA2                     	;# 
   626     0EA3                     	;# 
   627     0EA4                     	;# 
   628     0EA5                     	;# 
   629     0EA6                     	;# 
   630     0EA7                     	;# 
   631     0F0F                     	;# 
   632     0F10                     	;# 
   633     0F11                     	;# 
   634     0F12                     	;# 
   635     0F13                     	;# 
   636     0F14                     	;# 
   637     0F15                     	;# 
   638     0F16                     	;# 
   639     0F17                     	;# 
   640     0F18                     	;# 
   641     0F19                     	;# 
   642     0F1A                     	;# 
   643     0F1B                     	;# 
   644     0F1C                     	;# 
   645     0F1D                     	;# 
   646     0F1E                     	;# 
   647     0F1F                     	;# 
   648     0F20                     	;# 
   649     0F21                     	;# 
   650     0F22                     	;# 
   651     0F23                     	;# 
   652     0F24                     	;# 
   653     0F25                     	;# 
   654     0F26                     	;# 
   655     0F27                     	;# 
   656     0F28                     	;# 
   657     0F29                     	;# 
   658     0F2A                     	;# 
   659     0F2B                     	;# 
   660     0F2C                     	;# 
   661     0F2D                     	;# 
   662     0F2E                     	;# 
   663     0F2F                     	;# 
   664     0F30                     	;# 
   665     0F31                     	;# 
   666     0F32                     	;# 
   667     0F33                     	;# 
   668     0F34                     	;# 
   669     0F35                     	;# 
   670     0F36                     	;# 
   671     0F37                     	;# 
   672     0FE4                     	;# 
   673     0FE5                     	;# 
   674     0FE6                     	;# 
   675     0FE7                     	;# 
   676     0FE8                     	;# 
   677     0FE9                     	;# 
   678     0FEA                     	;# 
   679     0FEB                     	;# 
   680     0FED                     	;# 
   681     0FEE                     	;# 
   682     0FEF                     	;# 
   683     0000                     	;# 
   684     0001                     	;# 
   685     0002                     	;# 
   686     0003                     	;# 
   687     0004                     	;# 
   688     0005                     	;# 
   689     0006                     	;# 
   690     0007                     	;# 
   691     0008                     	;# 
   692     0009                     	;# 
   693     000A                     	;# 
   694     000B                     	;# 
   695     000C                     	;# 
   696     000D                     	;# 
   697     000E                     	;# 
   698     0010                     	;# 
   699     0011                     	;# 
   700     0012                     	;# 
   701     0013                     	;# 
   702     0015                     	;# 
   703     0016                     	;# 
   704     0016                     	;# 
   705     0017                     	;# 
   706     0018                     	;# 
   707     0019                     	;# 
   708     001A                     	;# 
   709     001B                     	;# 
   710     001C                     	;# 
   711     008C                     	;# 
   712     008D                     	;# 
   713     008E                     	;# 
   714     0090                     	;# 
   715     0091                     	;# 
   716     0092                     	;# 
   717     0093                     	;# 
   718     0095                     	;# 
   719     0096                     	;# 
   720     0097                     	;# 
   721     0098                     	;# 
   722     0099                     	;# 
   723     009A                     	;# 
   724     009B                     	;# 
   725     009B                     	;# 
   726     009C                     	;# 
   727     009D                     	;# 
   728     009E                     	;# 
   729     009F                     	;# 
   730     010C                     	;# 
   731     010D                     	;# 
   732     010E                     	;# 
   733     0111                     	;# 
   734     0112                     	;# 
   735     0113                     	;# 
   736     0114                     	;# 
   737     0115                     	;# 
   738     0116                     	;# 
   739     0117                     	;# 
   740     0118                     	;# 
   741     0119                     	;# 
   742     011A                     	;# 
   743     011B                     	;# 
   744     011B                     	;# 
   745     011C                     	;# 
   746     018C                     	;# 
   747     018D                     	;# 
   748     018E                     	;# 
   749     0191                     	;# 
   750     0191                     	;# 
   751     0192                     	;# 
   752     0193                     	;# 
   753     0193                     	;# 
   754     0194                     	;# 
   755     0195                     	;# 
   756     0196                     	;# 
   757     0197                     	;# 
   758     0199                     	;# 
   759     0199                     	;# 
   760     0199                     	;# 
   761     019A                     	;# 
   762     019A                     	;# 
   763     019A                     	;# 
   764     019B                     	;# 
   765     019B                     	;# 
   766     019B                     	;# 
   767     019B                     	;# 
   768     019B                     	;# 
   769     019C                     	;# 
   770     019C                     	;# 
   771     019C                     	;# 
   772     019D                     	;# 
   773     019D                     	;# 
   774     019D                     	;# 
   775     019E                     	;# 
   776     019E                     	;# 
   777     019E                     	;# 
   778     019F                     	;# 
   779     019F                     	;# 
   780     019F                     	;# 
   781     019F                     	;# 
   782     019F                     	;# 
   783     020C                     	;# 
   784     020D                     	;# 
   785     020E                     	;# 
   786     0210                     	;# 
   787     0211                     	;# 
   788     0211                     	;# 
   789     0212                     	;# 
   790     0212                     	;# 
   791     0213                     	;# 
   792     0213                     	;# 
   793     0214                     	;# 
   794     0214                     	;# 
   795     0215                     	;# 
   796     0215                     	;# 
   797     0215                     	;# 
   798     0215                     	;# 
   799     0216                     	;# 
   800     0216                     	;# 
   801     0217                     	;# 
   802     0217                     	;# 
   803     028C                     	;# 
   804     028D                     	;# 
   805     028E                     	;# 
   806     0291                     	;# 
   807     0291                     	;# 
   808     0292                     	;# 
   809     0293                     	;# 
   810     0293                     	;# 
   811     0298                     	;# 
   812     0298                     	;# 
   813     0299                     	;# 
   814     029A                     	;# 
   815     029A                     	;# 
   816     029E                     	;# 
   817     030C                     	;# 
   818     030D                     	;# 
   819     030E                     	;# 
   820     038C                     	;# 
   821     038D                     	;# 
   822     038E                     	;# 
   823     0390                     	;# 
   824     0391                     	;# 
   825     0392                     	;# 
   826     0393                     	;# 
   827     0394                     	;# 
   828     0395                     	;# 
   829     0396                     	;# 
   830     0397                     	;# 
   831     0398                     	;# 
   832     0399                     	;# 
   833     039D                     	;# 
   834     039E                     	;# 
   835     039F                     	;# 
   836     0415                     	;# 
   837     0416                     	;# 
   838     0417                     	;# 
   839     041C                     	;# 
   840     041D                     	;# 
   841     041E                     	;# 
   842     0498                     	;# 
   843     0498                     	;# 
   844     0499                     	;# 
   845     049A                     	;# 
   846     049B                     	;# 
   847     049B                     	;# 
   848     049C                     	;# 
   849     049D                     	;# 
   850     049E                     	;# 
   851     049F                     	;# 
   852     0511                     	;# 
   853     0515                     	;# 
   854     0617                     	;# 
   855     0618                     	;# 
   856     0619                     	;# 
   857     0619                     	;# 
   858     061A                     	;# 
   859     061B                     	;# 
   860     061C                     	;# 
   861     061C                     	;# 
   862     0691                     	;# 
   863     0692                     	;# 
   864     0693                     	;# 
   865     0694                     	;# 
   866     0695                     	;# 
   867     0696                     	;# 
   868     0697                     	;# 
   869     0698                     	;# 
   870     0699                     	;# 
   871     069A                     	;# 
   872     069B                     	;# 
   873     069C                     	;# 
   874     069D                     	;# 
   875     069E                     	;# 
   876     069F                     	;# 
   877     0E0F                     	;# 
   878     0E10                     	;# 
   879     0E11                     	;# 
   880     0E12                     	;# 
   881     0E13                     	;# 
   882     0E14                     	;# 
   883     0E15                     	;# 
   884     0E17                     	;# 
   885     0E20                     	;# 
   886     0E21                     	;# 
   887     0E22                     	;# 
   888     0E24                     	;# 
   889     0E25                     	;# 
   890     0E28                     	;# 
   891     0E29                     	;# 
   892     0E2A                     	;# 
   893     0E2B                     	;# 
   894     0E90                     	;# 
   895     0E91                     	;# 
   896     0E92                     	;# 
   897     0E93                     	;# 
   898     0E94                     	;# 
   899     0E95                     	;# 
   900     0E96                     	;# 
   901     0E97                     	;# 
   902     0E98                     	;# 
   903     0E99                     	;# 
   904     0E9A                     	;# 
   905     0E9B                     	;# 
   906     0E9C                     	;# 
   907     0E9D                     	;# 
   908     0E9E                     	;# 
   909     0E9F                     	;# 
   910     0EA0                     	;# 
   911     0EA1                     	;# 
   912     0EA2                     	;# 
   913     0EA3                     	;# 
   914     0EA4                     	;# 
   915     0EA5                     	;# 
   916     0EA6                     	;# 
   917     0EA7                     	;# 
   918     0F0F                     	;# 
   919     0F10                     	;# 
   920     0F11                     	;# 
   921     0F12                     	;# 
   922     0F13                     	;# 
   923     0F14                     	;# 
   924     0F15                     	;# 
   925     0F16                     	;# 
   926     0F17                     	;# 
   927     0F18                     	;# 
   928     0F19                     	;# 
   929     0F1A                     	;# 
   930     0F1B                     	;# 
   931     0F1C                     	;# 
   932     0F1D                     	;# 
   933     0F1E                     	;# 
   934     0F1F                     	;# 
   935     0F20                     	;# 
   936     0F21                     	;# 
   937     0F22                     	;# 
   938     0F23                     	;# 
   939     0F24                     	;# 
   940     0F25                     	;# 
   941     0F26                     	;# 
   942     0F27                     	;# 
   943     0F28                     	;# 
   944     0F29                     	;# 
   945     0F2A                     	;# 
   946     0F2B                     	;# 
   947     0F2C                     	;# 
   948     0F2D                     	;# 
   949     0F2E                     	;# 
   950     0F2F                     	;# 
   951     0F30                     	;# 
   952     0F31                     	;# 
   953     0F32                     	;# 
   954     0F33                     	;# 
   955     0F34                     	;# 
   956     0F35                     	;# 
   957     0F36                     	;# 
   958     0F37                     	;# 
   959     0FE4                     	;# 
   960     0FE5                     	;# 
   961     0FE6                     	;# 
   962     0FE7                     	;# 
   963     0FE8                     	;# 
   964     0FE9                     	;# 
   965     0FEA                     	;# 
   966     0FEB                     	;# 
   967     0FED                     	;# 
   968     0FEE                     	;# 
   969     0FEF                     	;# 
   970     0000                     	;# 
   971     0001                     	;# 
   972     0002                     	;# 
   973     0003                     	;# 
   974     0004                     	;# 
   975     0005                     	;# 
   976     0006                     	;# 
   977     0007                     	;# 
   978     0008                     	;# 
   979     0009                     	;# 
   980     000A                     	;# 
   981     000B                     	;# 
   982     000C                     	;# 
   983     000D                     	;# 
   984     000E                     	;# 
   985     0010                     	;# 
   986     0011                     	;# 
   987     0012                     	;# 
   988     0013                     	;# 
   989     0015                     	;# 
   990     0016                     	;# 
   991     0016                     	;# 
   992     0017                     	;# 
   993     0018                     	;# 
   994     0019                     	;# 
   995     001A                     	;# 
   996     001B                     	;# 
   997     001C                     	;# 
   998     008C                     	;# 
   999     008D                     	;# 
  1000     008E                     	;# 
  1001     0090                     	;# 
  1002     0091                     	;# 
  1003     0092                     	;# 
  1004     0093                     	;# 
  1005     0095                     	;# 
  1006     0096                     	;# 
  1007     0097                     	;# 
  1008     0098                     	;# 
  1009     0099                     	;# 
  1010     009A                     	;# 
  1011     009B                     	;# 
  1012     009B                     	;# 
  1013     009C                     	;# 
  1014     009D                     	;# 
  1015     009E                     	;# 
  1016     009F                     	;# 
  1017     010C                     	;# 
  1018     010D                     	;# 
  1019     010E                     	;# 
  1020     0111                     	;# 
  1021     0112                     	;# 
  1022     0113                     	;# 
  1023     0114                     	;# 
  1024     0115                     	;# 
  1025     0116                     	;# 
  1026     0117                     	;# 
  1027     0118                     	;# 
  1028     0119                     	;# 
  1029     011A                     	;# 
  1030     011B                     	;# 
  1031     011B                     	;# 
  1032     011C                     	;# 
  1033     018C                     	;# 
  1034     018D                     	;# 
  1035     018E                     	;# 
  1036     0191                     	;# 
  1037     0191                     	;# 
  1038     0192                     	;# 
  1039     0193                     	;# 
  1040     0193                     	;# 
  1041     0194                     	;# 
  1042     0195                     	;# 
  1043     0196                     	;# 
  1044     0197                     	;# 
  1045     0199                     	;# 
  1046     0199                     	;# 
  1047     0199                     	;# 
  1048     019A                     	;# 
  1049     019A                     	;# 
  1050     019A                     	;# 
  1051     019B                     	;# 
  1052     019B                     	;# 
  1053     019B                     	;# 
  1054     019B                     	;# 
  1055     019B                     	;# 
  1056     019C                     	;# 
  1057     019C                     	;# 
  1058     019C                     	;# 
  1059     019D                     	;# 
  1060     019D                     	;# 
  1061     019D                     	;# 
  1062     019E                     	;# 
  1063     019E                     	;# 
  1064     019E                     	;# 
  1065     019F                     	;# 
  1066     019F                     	;# 
  1067     019F                     	;# 
  1068     019F                     	;# 
  1069     019F                     	;# 
  1070     020C                     	;# 
  1071     020D                     	;# 
  1072     020E                     	;# 
  1073     0210                     	;# 
  1074     0211                     	;# 
  1075     0211                     	;# 
  1076     0212                     	;# 
  1077     0212                     	;# 
  1078     0213                     	;# 
  1079     0213                     	;# 
  1080     0214                     	;# 
  1081     0214                     	;# 
  1082     0215                     	;# 
  1083     0215                     	;# 
  1084     0215                     	;# 
  1085     0215                     	;# 
  1086     0216                     	;# 
  1087     0216                     	;# 
  1088     0217                     	;# 
  1089     0217                     	;# 
  1090     028C                     	;# 
  1091     028D                     	;# 
  1092     028E                     	;# 
  1093     0291                     	;# 
  1094     0291                     	;# 
  1095     0292                     	;# 
  1096     0293                     	;# 
  1097     0293                     	;# 
  1098     0298                     	;# 
  1099     0298                     	;# 
  1100     0299                     	;# 
  1101     029A                     	;# 
  1102     029A                     	;# 
  1103     029E                     	;# 
  1104     030C                     	;# 
  1105     030D                     	;# 
  1106     030E                     	;# 
  1107     038C                     	;# 
  1108     038D                     	;# 
  1109     038E                     	;# 
  1110     0390                     	;# 
  1111     0391                     	;# 
  1112     0392                     	;# 
  1113     0393                     	;# 
  1114     0394                     	;# 
  1115     0395                     	;# 
  1116     0396                     	;# 
  1117     0397                     	;# 
  1118     0398                     	;# 
  1119     0399                     	;# 
  1120     039D                     	;# 
  1121     039E                     	;# 
  1122     039F                     	;# 
  1123     0415                     	;# 
  1124     0416                     	;# 
  1125     0417                     	;# 
  1126     041C                     	;# 
  1127     041D                     	;# 
  1128     041E                     	;# 
  1129     0498                     	;# 
  1130     0498                     	;# 
  1131     0499                     	;# 
  1132     049A                     	;# 
  1133     049B                     	;# 
  1134     049B                     	;# 
  1135     049C                     	;# 
  1136     049D                     	;# 
  1137     049E                     	;# 
  1138     049F                     	;# 
  1139     0511                     	;# 
  1140     0515                     	;# 
  1141     0617                     	;# 
  1142     0618                     	;# 
  1143     0619                     	;# 
  1144     0619                     	;# 
  1145     061A                     	;# 
  1146     061B                     	;# 
  1147     061C                     	;# 
  1148     061C                     	;# 
  1149     0691                     	;# 
  1150     0692                     	;# 
  1151     0693                     	;# 
  1152     0694                     	;# 
  1153     0695                     	;# 
  1154     0696                     	;# 
  1155     0697                     	;# 
  1156     0698                     	;# 
  1157     0699                     	;# 
  1158     069A                     	;# 
  1159     069B                     	;# 
  1160     069C                     	;# 
  1161     069D                     	;# 
  1162     069E                     	;# 
  1163     069F                     	;# 
  1164     0E0F                     	;# 
  1165     0E10                     	;# 
  1166     0E11                     	;# 
  1167     0E12                     	;# 
  1168     0E13                     	;# 
  1169     0E14                     	;# 
  1170     0E15                     	;# 
  1171     0E17                     	;# 
  1172     0E20                     	;# 
  1173     0E21                     	;# 
  1174     0E22                     	;# 
  1175     0E24                     	;# 
  1176     0E25                     	;# 
  1177     0E28                     	;# 
  1178     0E29                     	;# 
  1179     0E2A                     	;# 
  1180     0E2B                     	;# 
  1181     0E90                     	;# 
  1182     0E91                     	;# 
  1183     0E92                     	;# 
  1184     0E93                     	;# 
  1185     0E94                     	;# 
  1186     0E95                     	;# 
  1187     0E96                     	;# 
  1188     0E97                     	;# 
  1189     0E98                     	;# 
  1190     0E99                     	;# 
  1191     0E9A                     	;# 
  1192     0E9B                     	;# 
  1193     0E9C                     	;# 
  1194     0E9D                     	;# 
  1195     0E9E                     	;# 
  1196     0E9F                     	;# 
  1197     0EA0                     	;# 
  1198     0EA1                     	;# 
  1199     0EA2                     	;# 
  1200     0EA3                     	;# 
  1201     0EA4                     	;# 
  1202     0EA5                     	;# 
  1203     0EA6                     	;# 
  1204     0EA7                     	;# 
  1205     0F0F                     	;# 
  1206     0F10                     	;# 
  1207     0F11                     	;# 
  1208     0F12                     	;# 
  1209     0F13                     	;# 
  1210     0F14                     	;# 
  1211     0F15                     	;# 
  1212     0F16                     	;# 
  1213     0F17                     	;# 
  1214     0F18                     	;# 
  1215     0F19                     	;# 
  1216     0F1A                     	;# 
  1217     0F1B                     	;# 
  1218     0F1C                     	;# 
  1219     0F1D                     	;# 
  1220     0F1E                     	;# 
  1221     0F1F                     	;# 
  1222     0F20                     	;# 
  1223     0F21                     	;# 
  1224     0F22                     	;# 
  1225     0F23                     	;# 
  1226     0F24                     	;# 
  1227     0F25                     	;# 
  1228     0F26                     	;# 
  1229     0F27                     	;# 
  1230     0F28                     	;# 
  1231     0F29                     	;# 
  1232     0F2A                     	;# 
  1233     0F2B                     	;# 
  1234     0F2C                     	;# 
  1235     0F2D                     	;# 
  1236     0F2E                     	;# 
  1237     0F2F                     	;# 
  1238     0F30                     	;# 
  1239     0F31                     	;# 
  1240     0F32                     	;# 
  1241     0F33                     	;# 
  1242     0F34                     	;# 
  1243     0F35                     	;# 
  1244     0F36                     	;# 
  1245     0F37                     	;# 
  1246     0FE4                     	;# 
  1247     0FE5                     	;# 
  1248     0FE6                     	;# 
  1249     0FE7                     	;# 
  1250     0FE8                     	;# 
  1251     0FE9                     	;# 
  1252     0FEA                     	;# 
  1253     0FEB                     	;# 
  1254     0FED                     	;# 
  1255     0FEE                     	;# 
  1256     0FEF                     	;_work
  1257                           
  1258                           	psect	idataBANK0
  1259     0004                     __pidataBANK0:
  1260                           
  1261                           ;initializer for _gga_hdop_x100
  1262     0004  340F               	retlw	15
  1263     0005  3427               	retlw	39
  1264     000D                     _PORTBbits	set	13
  1265     000B                     _INTCONbits	set	11
  1266     0011                     _PIR1bits	set	17
  1267     008D                     _TRISBbits	set	141
  1268     04CF                     _SPLLEN	set	1231
  1269     04CE                     _IRCF3	set	1230
  1270     04CD                     _IRCF2	set	1229
  1271     04CC                     _IRCF1	set	1228
  1272     04CB                     _IRCF0	set	1227
  1273     04C9                     _SCS1	set	1225
  1274     04C8                     _SCS0	set	1224
  1275     010D                     _LATBbits	set	269
  1276     019A                     _TX1REG	set	410
  1277     0199                     _RC1REG	set	409
  1278     019D                     _RC1STAbits	set	413
  1279     019B                     _SPBRGL	set	411
  1280     018D                     _ANSELBbits	set	397
  1281     0CF5                     _TXEN	set	3317
  1282     0CEC                     _CREN	set	3308
  1283     0CEF                     _SPEN	set	3311
  1284     0CF4                     _SYNC	set	3316
  1285     0CFB                     _BRG16	set	3323
  1286     0CF2                     _BRGH	set	3314
  1287     0E24                     _RXPPSbits	set	3620
  1288     0E0F                     _PPSLOCKbits	set	3599
  1289     0E0F                     _PPSLOCK	set	3599
  1290     0E9A                     _RB2PPSbits	set	3738
  1291                           
  1292                           	psect	stringtext1
  1293     1000                     __pstringtext1:
  1294     1000                     STR_7:
  1295     1000  340D               	retlw	13
  1296     1001  340A               	retlw	10
  1297     1002  343D               	retlw	61	;'='
  1298     1003  343D               	retlw	61	;'='
  1299     1004  343D               	retlw	61	;'='
  1300     1005  3420               	retlw	32	;' '
  1301     1006  344E               	retlw	78	;'N'
  1302     1007  3445               	retlw	69	;'E'
  1303     1008  344F               	retlw	79	;'O'
  1304     1009  342D               	retlw	45	;'-'
  1305     100A  3436               	retlw	54	;'6'
  1306     100B  344D               	retlw	77	;'M'
  1307     100C  3420               	retlw	32	;' '
  1308     100D  3451               	retlw	81	;'Q'
  1309     100E  3455               	retlw	85	;'U'
  1310     100F  3441               	retlw	65	;'A'
  1311     1010  344C               	retlw	76	;'L'
  1312     1011  3449               	retlw	73	;'I'
  1313     1012  3454               	retlw	84	;'T'
  1314     1013  3459               	retlw	89	;'Y'
  1315     1014  3420               	retlw	32	;' '
  1316     1015  3446               	retlw	70	;'F'
  1317     1016  3449               	retlw	73	;'I'
  1318     1017  344C               	retlw	76	;'L'
  1319     1018  3454               	retlw	84	;'T'
  1320     1019  3445               	retlw	69	;'E'
  1321     101A  3452               	retlw	82	;'R'
  1322     101B  3420               	retlw	32	;' '
  1323     101C  342B               	retlw	43	;'+'
  1324     101D  3420               	retlw	32	;' '
  1325     101E  3441               	retlw	65	;'A'
  1326     101F  3456               	retlw	86	;'V'
  1327     1020  3445               	retlw	69	;'E'
  1328     1021  3452               	retlw	82	;'R'
  1329     1022  3441               	retlw	65	;'A'
  1330     1023  3447               	retlw	71	;'G'
  1331     1024  3449               	retlw	73	;'I'
  1332     1025  344E               	retlw	78	;'N'
  1333     1026  3447               	retlw	71	;'G'
  1334     1027  3420               	retlw	32	;' '
  1335     1028  343D               	retlw	61	;'='
  1336     1029  343D               	retlw	61	;'='
  1337     102A  343D               	retlw	61	;'='
  1338     102B  340D               	retlw	13
  1339     102C  340A               	retlw	10
  1340     102D  3400               	retlw	0
  1341                           
  1342                           	psect	stringtext2
  1343     102E                     __pstringtext2:
  1344     102E                     STR_8:
  1345     102E  3446               	retlw	70	;'F'
  1346     102F  3469               	retlw	105	;'i'
  1347     1030  346C               	retlw	108	;'l'
  1348     1031  3474               	retlw	116	;'t'
  1349     1032  3465               	retlw	101	;'e'
  1350     1033  3472               	retlw	114	;'r'
  1351     1034  343A               	retlw	58	;':'
  1352     1035  3420               	retlw	32	;' '
  1353     1036  3466               	retlw	102	;'f'
  1354     1037  3469               	retlw	105	;'i'
  1355     1038  3478               	retlw	120	;'x'
  1356     1039  3471               	retlw	113	;'q'
  1357     103A  343E               	retlw	62	;'>'
  1358     103B  343D               	retlw	61	;'='
  1359     103C  3431               	retlw	49	;'1'
  1360     103D  342C               	retlw	44	;','
  1361     103E  3420               	retlw	32	;' '
  1362     103F  3473               	retlw	115	;'s'
  1363     1040  3461               	retlw	97	;'a'
  1364     1041  3474               	retlw	116	;'t'
  1365     1042  3473               	retlw	115	;'s'
  1366     1043  343E               	retlw	62	;'>'
  1367     1044  343D               	retlw	61	;'='
  1368     1045  3436               	retlw	54	;'6'
  1369     1046  342C               	retlw	44	;','
  1370     1047  3420               	retlw	32	;' '
  1371     1048  3468               	retlw	104	;'h'
  1372     1049  3464               	retlw	100	;'d'
  1373     104A  346F               	retlw	111	;'o'
  1374     104B  3470               	retlw	112	;'p'
  1375     104C  343C               	retlw	60	;'<'
  1376     104D  343D               	retlw	61	;'='
  1377     104E  3432               	retlw	50	;'2'
  1378     104F  342E               	retlw	46	;'.'
  1379     1050  3435               	retlw	53	;'5'
  1380     1051  3430               	retlw	48	;'0'
  1381     1052  340D               	retlw	13
  1382     1053  340A               	retlw	10
  1383     1054  3400               	retlw	0
  1384                           
  1385                           	psect	stringtext3
  1386     1055                     __pstringtext3:
  1387     1055                     STR_10:
  1388     1055  3420               	retlw	32	;' '
  1389     1056  3473               	retlw	115	;'s'
  1390     1057  3461               	retlw	97	;'a'
  1391     1058  346D               	retlw	109	;'m'
  1392     1059  3470               	retlw	112	;'p'
  1393     105A  346C               	retlw	108	;'l'
  1394     105B  3465               	retlw	101	;'e'
  1395     105C  3473               	retlw	115	;'s'
  1396     105D  340D               	retlw	13
  1397     105E  340A               	retlw	10
  1398     105F  340D               	retlw	13
  1399     1060  340A               	retlw	10
  1400     1061  3400               	retlw	0
  1401                           
  1402                           	psect	stringtext4
  1403     1062                     __pstringtext4:
  1404     1062                     STR_9:
  1405     1062  3441               	retlw	65	;'A'
  1406     1063  3476               	retlw	118	;'v'
  1407     1064  3465               	retlw	101	;'e'
  1408     1065  3472               	retlw	114	;'r'
  1409     1066  3461               	retlw	97	;'a'
  1410     1067  3467               	retlw	103	;'g'
  1411     1068  3469               	retlw	105	;'i'
  1412     1069  346E               	retlw	110	;'n'
  1413     106A  3467               	retlw	103	;'g'
  1414     106B  343A               	retlw	58	;':'
  1415     106C  3420               	retlw	32	;' '
  1416     106D  3400               	retlw	0
  1417                           
  1418                           	psect	stringtext5
  1419     106E                     __pstringtext5:
  1420     106E                     STR_1:
  1421     106E  3441               	retlw	65	;'A'
  1422     106F  3456               	retlw	86	;'V'
  1423     1070  3447               	retlw	71	;'G'
  1424     1071  3420               	retlw	32	;' '
  1425     1072  344D               	retlw	77	;'M'
  1426     1073  3461               	retlw	97	;'a'
  1427     1074  3470               	retlw	112	;'p'
  1428     1075  3473               	retlw	115	;'s'
  1429     1076  343A               	retlw	58	;':'
  1430     1077  3420               	retlw	32	;' '
  1431     1078  3400               	retlw	0
  1432                           
  1433                           	psect	stringtext6
  1434     1079                     __pstringtext6:
  1435     1079                     STR_3:
  1436     1079  3420               	retlw	32	;' '
  1437     107A  3420               	retlw	32	;' '
  1438     107B  3428               	retlw	40	;'('
  1439     107C  3466               	retlw	102	;'f'
  1440     107D  3469               	retlw	105	;'i'
  1441     107E  3478               	retlw	120	;'x'
  1442     107F  3471               	retlw	113	;'q'
  1443     1080  343D               	retlw	61	;'='
  1444     1081  3400               	retlw	0
  1445                           
  1446                           	psect	stringtext7
  1447     1082                     __pstringtext7:
  1448     1082                     STR_5:
  1449     1082  3420               	retlw	32	;' '
  1450     1083  3468               	retlw	104	;'h'
  1451     1084  3464               	retlw	100	;'d'
  1452     1085  346F               	retlw	111	;'o'
  1453     1086  3470               	retlw	112	;'p'
  1454     1087  343D               	retlw	61	;'='
  1455     1088  3400               	retlw	0
  1456                           
  1457                           	psect	stringtext8
  1458     1089                     __pstringtext8:
  1459     1089                     STR_4:
  1460     1089  3420               	retlw	32	;' '
  1461     108A  3473               	retlw	115	;'s'
  1462     108B  3461               	retlw	97	;'a'
  1463     108C  3474               	retlw	116	;'t'
  1464     108D  3473               	retlw	115	;'s'
  1465     108E  343D               	retlw	61	;'='
  1466     108F  3400               	retlw	0
  1467                           
  1468                           	psect	stringtext9
  1469     1090                     __pstringtext9:
  1470     1090                     STR_13:
  1471     1090  3424               	retlw	36	;'$'
  1472     1091  3447               	retlw	71	;'G'
  1473     1092  344E               	retlw	78	;'N'
  1474     1093  3447               	retlw	71	;'G'
  1475     1094  3447               	retlw	71	;'G'
  1476     1095  3441               	retlw	65	;'A'
  1477     1096  3400               	retlw	0
  1478                           
  1479                           	psect	stringtext10
  1480     1097                     __pstringtext10:
  1481     1097                     STR_11:
  1482     1097  3424               	retlw	36	;'$'
  1483     1098  3447               	retlw	71	;'G'
  1484     1099  3450               	retlw	80	;'P'
  1485     109A  3447               	retlw	71	;'G'
  1486     109B  3447               	retlw	71	;'G'
  1487     109C  3441               	retlw	65	;'A'
  1488     109D  3400               	retlw	0
  1489                           
  1490                           	psect	stringtext11
  1491     109E                     __pstringtext11:
  1492     109E                     STR_16:
  1493     109E  3424               	retlw	36	;'$'
  1494     109F  3447               	retlw	71	;'G'
  1495     10A0  344E               	retlw	78	;'N'
  1496     10A1  3452               	retlw	82	;'R'
  1497     10A2  344D               	retlw	77	;'M'
  1498     10A3  3443               	retlw	67	;'C'
  1499     10A4  3400               	retlw	0
  1500                           
  1501                           	psect	stringtext12
  1502     10A5                     __pstringtext12:
  1503     10A5                     STR_15:
  1504     10A5  3424               	retlw	36	;'$'
  1505     10A6  3447               	retlw	71	;'G'
  1506     10A7  3450               	retlw	80	;'P'
  1507     10A8  3452               	retlw	82	;'R'
  1508     10A9  344D               	retlw	77	;'M'
  1509     10AA  3443               	retlw	67	;'C'
  1510     10AB  3400               	retlw	0
  1511                           
  1512                           	psect	stringtext13
  1513     10AC                     __pstringtext13:
  1514     10AC                     STR_6:
  1515     10AC  3429               	retlw	41	;')'
  1516     10AD  340D               	retlw	13
  1517     10AE  340A               	retlw	10
  1518     10AF  3400               	retlw	0
  1519                           
  1520                           	psect	stringtext14
  1521     10B0                     __pstringtext14:
  1522     10B0                     STR_2:
  1523     10B0  342C               	retlw	44	;','
  1524     10B1  3420               	retlw	32	;' '
  1525     10B2  3400               	retlw	0
  1526                           
  1527                           	psect	stringtext15
  1528     0000                     __pstringtext15:
  1529     1090                     
  1530                           	psect	cinit
  1531     07DB                     start_initialization:	
  1532                           ; #config settings
  1533                           
  1534     07DB                     __initialization:	;BIGRAM
  1535                           
  1536                           ; Initialize objects allocated to BANK0
  1537     07DB  3180  2004  3187   	fcall	__pidataBANK0	;fetch initializer
  1538     07DE  00EE               	movwf	__pdataBANK0& (0+127)
  1539     07DF  3180  2005  3187   	fcall	__pidataBANK0+1	;fetch initializer
  1540     07E2  00EF               	movwf	(__pdataBANK0+1)& (0+127)
  1541                           
  1542                           ; Clear objects allocated to BIGRAM
  1543     07E3  3030               	movlw	low (0+10032)
  1544     07E4  0084               	movwf	4
  1545     07E5  3027               	movlw	high (0+10032)
  1546     07E6  0085               	movwf	5
  1547     07E7  30C0               	movlw	192
  1548     07E8  00FE               	movwf	btemp
  1549     07E9  3000               	movlw	0
  1550     07EA  00FF               	movwf	btemp+1
  1551     07EB  3188  206D  3187   	fcall	clear_ram0
  1552                           
  1553                           ; Clear objects allocated to BANK0
  1554     07EE  01EA               	clrf	__pbssBANK0& (0+127)
  1555     07EF  01EB               	clrf	(__pbssBANK0+1)& (0+127)
  1556     07F0  01EC               	clrf	(__pbssBANK0+2)& (0+127)
  1557     07F1  01ED               	clrf	(__pbssBANK0+3)& (0+127)
  1558                           
  1559                           ; Clear objects allocated to BANK1
  1560     07F2  30A0               	movlw	low __pbssBANK1
  1561     07F3  0084               	movwf	4
  1562     07F4  3000               	movlw	high __pbssBANK1
  1563     07F5  0085               	movwf	5
  1564     07F6  3038               	movlw	56
  1565     07F7  00FE               	movwf	btemp
  1566     07F8  3000               	movlw	0
  1567     07F9  00FF               	movwf	btemp+1
  1568     07FA  3188  206D  3187   	fcall	clear_ram0
  1569     07FD                     end_of_initialization:	
  1570                           ;End of C runtime variable initialization code
  1571                           
  1572     07FD                     __end_of__initialization:
  1573     07FD  0020               	movlb	0
  1574     07FE  3183  2BF6         	ljmp	_main	;jump to C main() function
  1575                           
  1576                           	psect	bssBANK0
  1577     006A                     __pbssBANK0:
  1578     006A                     _avg_count:
  1579     006A                     	ds	1
  1580     006B                     _gga_seen:
  1581     006B                     	ds	1
  1582     006C                     _gga_sats:
  1583     006C                     	ds	1
  1584     006D                     _gga_fixq:
  1585     006D                     	ds	1
  1586                           
  1587                           	psect	dataBANK0
  1588     006E                     __pdataBANK0:
  1589     006E                     _gga_hdop_x100:
  1590     006E                     	ds	2
  1591                           
  1592                           	psect	bssBANK1
  1593     00A0                     __pbssBANK1:
  1594     00A0                     _sum_lon:
  1595     00A0                     	ds	8
  1596     00A8                     _sum_lat:
  1597     00A8                     	ds	8
  1598     00B0                     _fld:
  1599     00B0                     	ds	40
  1600                           
  1601                           	psect	clrtext
  1602     086D                     clear_ram0:	
  1603                           ;	Called with FSR0 containing the base address, and
  1604                           ;	btemp/btemp+1 has the size to clear
  1605                           
  1606     086D  0064               	clrwdt	;clear the watchdog before getting into this loop
  1607     086E                     clrloop0:
  1608     086E  0180               	clrf	0	;clear RAM location pointed to by FSR
  1609     086F  3101               	addfsr 0,1
  1610     0870  3001               	movlw	1
  1611     0871  02FE               	subwf	btemp,f
  1612     0872  3000               	movlw	0
  1613     0873  3BFF               	subwfb	btemp+1,f
  1614     0874  087F               	movf	btemp+1,w
  1615     0875  047E               	iorwf	btemp,w
  1616     0876  1D03               	skipz
  1617     0877  286E               	goto	clrloop0	;have we reached the end yet?
  1618     0878  3400               	retlw	0	;all done for this memory range, return
  1619                           
  1620                           	psect	cstackBANK1
  1621     00D8                     __pcstackBANK1:
  1622     00D8                     main@nf:
  1623                           
  1624                           ; 1 bytes @ 0x0
  1625     00D8                     	ds	1
  1626     00D9                     main@lat:
  1627                           
  1628                           ; 4 bytes @ 0x1
  1629     00D9                     	ds	4
  1630     00DD                     main@lon:
  1631                           
  1632                           ; 4 bytes @ 0x5
  1633     00DD                     	ds	4
  1634                           
  1635                           	psect	cstackCOMMON
  1636     0070                     __pcstackCOMMON:
  1637     0070                     ?_SUART_Write_Char:
  1638     0070                     ?_EUSART_Read:	
  1639                           ; 1 bytes @ 0x0
  1640                           
  1641     0070                     ??_EUSART_Read:	
  1642                           ; 1 bytes @ 0x0
  1643                           
  1644     0070                     ?_internal_32:	
  1645                           ; 1 bytes @ 0x0
  1646                           
  1647     0070                     ??_internal_32:	
  1648                           ; 1 bytes @ 0x0
  1649                           
  1650     0070                     ?_SUART_Init:	
  1651                           ; 1 bytes @ 0x0
  1652                           
  1653     0070                     ??_SUART_Init:	
  1654                           ; 1 bytes @ 0x0
  1655                           
  1656     0070                     ?_suart_putc:	
  1657                           ; 1 bytes @ 0x0
  1658                           
  1659     0070                     ?_split_csv:	
  1660                           ; 1 bytes @ 0x0
  1661                           
  1662     0070                     ?_quality_ok:	
  1663                           ; 1 bytes @ 0x0
  1664                           
  1665     0070                     ??_quality_ok:	
  1666                           ; 1 bytes @ 0x0
  1667                           
  1668     0070                     ?_avg_reset:	
  1669                           ; 1 bytes @ 0x0
  1670                           
  1671     0070                     ??_avg_reset:	
  1672                           ; 1 bytes @ 0x0
  1673                           
  1674     0070                     ?_avg_add:	
  1675                           ; 1 bytes @ 0x0
  1676                           
  1677     0070                     ?_avg_ready:	
  1678                           ; 1 bytes @ 0x0
  1679                           
  1680     0070                     ??_avg_ready:	
  1681                           ; 1 bytes @ 0x0
  1682                           
  1683     0070                     ?_avg_print:	
  1684                           ; 1 bytes @ 0x0
  1685                           
  1686     0070                     ?_initMain:	
  1687                           ; 1 bytes @ 0x0
  1688                           
  1689     0070                     ??_initMain:	
  1690                           ; 1 bytes @ 0x0
  1691                           
  1692     0070                     ?_main:	
  1693                           ; 1 bytes @ 0x0
  1694                           
  1695     0070                     ?_SUART_Lock:	
  1696                           ; 1 bytes @ 0x0
  1697                           
  1698     0070                     ??_SUART_Lock:	
  1699                           ; 1 bytes @ 0x0
  1700                           
  1701     0070                     ?_SUART_Unlock:	
  1702                           ; 1 bytes @ 0x0
  1703                           
  1704     0070                     ??_SUART_Unlock:	
  1705                           ; 1 bytes @ 0x0
  1706                           
  1707     0070                     ?_SUART_Transmit:	
  1708                           ; 1 bytes @ 0x0
  1709                           
  1710     0070                     ??___omul:	
  1711                           ; 1 bytes @ 0x0
  1712                           
  1713     0070                     ?_strncpy:	
  1714                           ; 1 bytes @ 0x0
  1715                           
  1716     0070                     ?_strncmp:	
  1717                           ; 2 bytes @ 0x0
  1718                           
  1719     0070                     ?_hex_nibble:	
  1720                           ; 2 bytes @ 0x0
  1721                           
  1722     0070                     ?_gps_read_line:	
  1723                           ; 2 bytes @ 0x0
  1724                           
  1725     0070                     ?___wmul:	
  1726                           ; 2 bytes @ 0x0
  1727                           
  1728     0070                     ?___lwmod:	
  1729                           ; 2 bytes @ 0x0
  1730                           
  1731     0070                     ?___aldiv:	
  1732                           ; 2 bytes @ 0x0
  1733                           
  1734     0070                     ?___almod:	
  1735                           ; 4 bytes @ 0x0
  1736                           
  1737     0070                     SUART_Lock@gie:	
  1738                           ; 4 bytes @ 0x0
  1739                           
  1740     0070                     SUART_Unlock@gie:	
  1741                           ; 1 bytes @ 0x0
  1742                           
  1743     0070                     gps_read_line@buf:	
  1744                           ; 1 bytes @ 0x0
  1745                           
  1746     0070                     split_csv@s:	
  1747                           ; 2 bytes @ 0x0
  1748                           
  1749     0070                     ___wmul@multiplier:	
  1750                           ; 2 bytes @ 0x0
  1751                           
  1752     0070                     ___lwmod@divisor:	
  1753                           ; 2 bytes @ 0x0
  1754                           
  1755     0070                     strncmp@l:	
  1756                           ; 2 bytes @ 0x0
  1757                           
  1758     0070                     strncpy@d:	
  1759                           ; 2 bytes @ 0x0
  1760                           
  1761     0070                     avg_add@lat:	
  1762                           ; 2 bytes @ 0x0
  1763                           
  1764     0070                     ___aldiv@divisor:	
  1765                           ; 4 bytes @ 0x0
  1766                           
  1767     0070                     ___almod@divisor:	
  1768                           ; 4 bytes @ 0x0
  1769                           
  1770                           
  1771                           ; 4 bytes @ 0x0
  1772     0070                     	ds	1
  1773     0071                     ??_SUART_Transmit:
  1774     0071                     ___omul@product:	
  1775                           ; 1 bytes @ 0x1
  1776                           
  1777                           
  1778                           ; 8 bytes @ 0x1
  1779     0071                     	ds	1
  1780     0072                     ??_hex_nibble:
  1781     0072                     hex_nibble@c:	
  1782                           ; 1 bytes @ 0x2
  1783                           
  1784     0072                     split_csv@out:	
  1785                           ; 1 bytes @ 0x2
  1786                           
  1787     0072                     SUART_Transmit@DataValue:	
  1788                           ; 1 bytes @ 0x2
  1789                           
  1790     0072                     gps_read_line@maxlen:	
  1791                           ; 1 bytes @ 0x2
  1792                           
  1793     0072                     ___wmul@multiplicand:	
  1794                           ; 2 bytes @ 0x2
  1795                           
  1796     0072                     ___lwmod@dividend:	
  1797                           ; 2 bytes @ 0x2
  1798                           
  1799     0072                     strncmp@r:	
  1800                           ; 2 bytes @ 0x2
  1801                           
  1802     0072                     strncpy@s:	
  1803                           ; 2 bytes @ 0x2
  1804                           
  1805                           
  1806                           ; 2 bytes @ 0x2
  1807     0072                     	ds	1
  1808     0073                     ?_nmea_checksum_ok:
  1809     0073                     split_csv@maxf:	
  1810                           ; 1 bytes @ 0x3
  1811                           
  1812     0073                     SUART_Transmit@gie:	
  1813                           ; 1 bytes @ 0x3
  1814                           
  1815     0073                     nmea_checksum_ok@s:	
  1816                           ; 1 bytes @ 0x3
  1817                           
  1818                           
  1819                           ; 2 bytes @ 0x3
  1820     0073                     	ds	1
  1821     0074                     ??_gps_read_line:
  1822     0074                     ??_split_csv:	
  1823                           ; 1 bytes @ 0x4
  1824                           
  1825     0074                     ??___wmul:	
  1826                           ; 1 bytes @ 0x4
  1827                           
  1828     0074                     ??___lwmod:	
  1829                           ; 1 bytes @ 0x4
  1830                           
  1831     0074                     SUART_Transmit@i:	
  1832                           ; 1 bytes @ 0x4
  1833                           
  1834     0074                     ___wmul@product:	
  1835                           ; 1 bytes @ 0x4
  1836                           
  1837     0074                     strncmp@n:	
  1838                           ; 2 bytes @ 0x4
  1839                           
  1840     0074                     strncpy@n:	
  1841                           ; 2 bytes @ 0x4
  1842                           
  1843     0074                     avg_add@lon:	
  1844                           ; 2 bytes @ 0x4
  1845                           
  1846     0074                     ___aldiv@dividend:	
  1847                           ; 4 bytes @ 0x4
  1848                           
  1849     0074                     ___almod@dividend:	
  1850                           ; 4 bytes @ 0x4
  1851                           
  1852                           
  1853                           ; 4 bytes @ 0x4
  1854     0074                     	ds	1
  1855     0075                     ?_SUART_Write_Text:
  1856     0075                     ??_SUART_Write_Char:	
  1857                           ; 1 bytes @ 0x5
  1858                           
  1859     0075                     ??_nmea_checksum_ok:	
  1860                           ; 1 bytes @ 0x5
  1861                           
  1862     0075                     SUART_Write_Char@a:	
  1863                           ; 1 bytes @ 0x5
  1864                           
  1865     0075                     ___lwmod@counter:	
  1866                           ; 1 bytes @ 0x5
  1867                           
  1868     0075                     SUART_Write_Text@text:	
  1869                           ; 1 bytes @ 0x5
  1870                           
  1871                           
  1872                           ; 2 bytes @ 0x5
  1873     0075                     	ds	1
  1874     0076                     ??_strncpy:
  1875     0076                     ??_strncmp:	
  1876                           ; 1 bytes @ 0x6
  1877                           
  1878     0076                     ??_suart_putc:	
  1879                           ; 1 bytes @ 0x6
  1880                           
  1881     0076                     ?_parse_u8:	
  1882                           ; 1 bytes @ 0x6
  1883                           
  1884     0076                     ?_parse_hdop_x100:	
  1885                           ; 1 bytes @ 0x6
  1886                           
  1887     0076                     ?___lwdiv:	
  1888                           ; 1 bytes @ 0x6
  1889                           
  1890     0076                     suart_putc@c:	
  1891                           ; 2 bytes @ 0x6
  1892                           
  1893     0076                     gps_read_line@c:	
  1894                           ; 1 bytes @ 0x6
  1895                           
  1896     0076                     parse_u8@s:	
  1897                           ; 1 bytes @ 0x6
  1898                           
  1899     0076                     parse_hdop_x100@s:	
  1900                           ; 2 bytes @ 0x6
  1901                           
  1902     0076                     ___lwdiv@divisor:	
  1903                           ; 2 bytes @ 0x6
  1904                           
  1905                           
  1906                           ; 2 bytes @ 0x6
  1907     0076                     	ds	1
  1908     0077                     ??_SUART_Write_Text:
  1909     0077                     nmea_checksum_ok@cs:	
  1910                           ; 1 bytes @ 0x7
  1911                           
  1912     0077                     split_csv@n:	
  1913                           ; 1 bytes @ 0x7
  1914                           
  1915     0077                     gps_read_line@n:	
  1916                           ; 1 bytes @ 0x7
  1917                           
  1918                           
  1919                           ; 2 bytes @ 0x7
  1920     0077                     	ds	1
  1921     0078                     ??___aldiv:
  1922     0078                     ??___almod:	
  1923                           ; 1 bytes @ 0x8
  1924                           
  1925     0078                     parse_u8@out:	
  1926                           ; 1 bytes @ 0x8
  1927                           
  1928     0078                     parse_hdop_x100@out:	
  1929                           ; 1 bytes @ 0x8
  1930                           
  1931     0078                     nmea_checksum_ok@hi:	
  1932                           ; 1 bytes @ 0x8
  1933                           
  1934     0078                     split_csv@p:	
  1935                           ; 2 bytes @ 0x8
  1936                           
  1937     0078                     SUART_Write_Text@i:	
  1938                           ; 2 bytes @ 0x8
  1939                           
  1940     0078                     ___lwdiv@dividend:	
  1941                           ; 2 bytes @ 0x8
  1942                           
  1943                           
  1944                           ; 2 bytes @ 0x8
  1945     0078                     	ds	1
  1946     0079                     ??_parse_u8:
  1947     0079                     ??_parse_hdop_x100:	
  1948                           ; 1 bytes @ 0x9
  1949                           
  1950     0079                     ??___aodiv:	
  1951                           ; 1 bytes @ 0x9
  1952                           
  1953     0079                     ___almod@counter:	
  1954                           ; 1 bytes @ 0x9
  1955                           
  1956     0079                     EUSART_Initialize@x:	
  1957                           ; 1 bytes @ 0x9
  1958                           
  1959                           
  1960                           ; 2 bytes @ 0x9
  1961     0079                     	ds	1
  1962     007A                     ?_suart_puts:
  1963     007A                     ??___lwdiv:	
  1964                           ; 1 bytes @ 0xA
  1965                           
  1966     007A                     ?_coord_to_microdeg:	
  1967                           ; 1 bytes @ 0xA
  1968                           
  1969     007A                     ___almod@sign:	
  1970                           ; 2 bytes @ 0xA
  1971                           
  1972     007A                     suart_puts@s:	
  1973                           ; 1 bytes @ 0xA
  1974                           
  1975     007A                     nmea_checksum_ok@lo:	
  1976                           ; 2 bytes @ 0xA
  1977                           
  1978     007A                     coord_to_microdeg@field:	
  1979                           ; 2 bytes @ 0xA
  1980                           
  1981     007A                     strncpy@cp:	
  1982                           ; 2 bytes @ 0xA
  1983                           
  1984                           
  1985                           ; 2 bytes @ 0xA
  1986     007A                     	ds	1
  1987     007B                     ??_suart_print_int32:
  1988     007B                     parse_u8@v:	
  1989                           ; 1 bytes @ 0xB
  1990                           
  1991     007B                     ___lwdiv@quotient:	
  1992                           ; 2 bytes @ 0xB
  1993                           
  1994                           
  1995                           ; 2 bytes @ 0xB
  1996     007B                     	ds	1
  1997     007C                     ??_suart_puts:
  1998     007C                     ??_suart_print_microdeg:	
  1999                           ; 1 bytes @ 0xC
  2000                           
  2001     007C                     coord_to_microdeg@is_lat:	
  2002                           ; 1 bytes @ 0xC
  2003                           
  2004     007C                     nmea_checksum_ok@p:	
  2005                           ; 1 bytes @ 0xC
  2006                           
  2007                           
  2008                           ; 2 bytes @ 0xC
  2009     007C                     	ds	1
  2010     007D                     ??_handle_gga:
  2011     007D                     coord_to_microdeg@out:	
  2012                           ; 1 bytes @ 0xD
  2013                           
  2014     007D                     ___lwdiv@counter:	
  2015                           ; 1 bytes @ 0xD
  2016                           
  2017                           
  2018                           ; 1 bytes @ 0xD
  2019     007D                     	ds	1
  2020                           
  2021                           	psect	cstackBANK0
  2022     0020                     __pcstackBANK0:
  2023     0020                     ?_suart_print_uint16:
  2024     0020                     ??_avg_add:	
  2025                           ; 1 bytes @ 0x0
  2026                           
  2027     0020                     ?___omul:	
  2028                           ; 1 bytes @ 0x0
  2029                           
  2030     0020                     ___aldiv@counter:	
  2031                           ; 8 bytes @ 0x0
  2032                           
  2033     0020                     suart_print_uint16@v:	
  2034                           ; 1 bytes @ 0x0
  2035                           
  2036     0020                     parse_hdop_x100@whole:	
  2037                           ; 2 bytes @ 0x0
  2038                           
  2039     0020                     ___omul@multiplier:	
  2040                           ; 2 bytes @ 0x0
  2041                           
  2042                           
  2043                           ; 8 bytes @ 0x0
  2044     0020                     	ds	1
  2045     0021                     ___aldiv@sign:
  2046                           
  2047                           ; 1 bytes @ 0x1
  2048     0021                     	ds	1
  2049     0022                     ??_suart_print_uint16:
  2050     0022                     parse_hdop_x100@frac:	
  2051                           ; 1 bytes @ 0x2
  2052                           
  2053     0022                     ___aldiv@quotient:	
  2054                           ; 2 bytes @ 0x2
  2055                           
  2056                           
  2057                           ; 4 bytes @ 0x2
  2058     0022                     	ds	1
  2059     0023                     suart_print_uint16@buf:
  2060                           
  2061                           ; 6 bytes @ 0x3
  2062     0023                     	ds	1
  2063     0024                     parse_hdop_x100@frac_scale:
  2064                           
  2065                           ; 2 bytes @ 0x4
  2066     0024                     	ds	2
  2067     0026                     ?_EUSART_Initialize:
  2068     0026                     ?_suart_print_int32:	
  2069                           ; 1 bytes @ 0x6
  2070                           
  2071     0026                     ?_handle_gga:	
  2072                           ; 1 bytes @ 0x6
  2073                           
  2074     0026                     handle_gga@nmea:	
  2075                           ; 1 bytes @ 0x6
  2076                           
  2077     0026                     suart_print_int32@v:	
  2078                           ; 2 bytes @ 0x6
  2079                           
  2080     0026                     EUSART_Initialize@baudrate:	
  2081                           ; 4 bytes @ 0x6
  2082                           
  2083                           
  2084                           ; 4 bytes @ 0x6
  2085     0026                     	ds	2
  2086     0028                     handle_gga@nf:
  2087     0028                     ___omul@multiplicand:	
  2088                           ; 1 bytes @ 0x8
  2089                           
  2090                           
  2091                           ; 8 bytes @ 0x8
  2092     0028                     	ds	1
  2093     0029                     suart_print_uint16@i:
  2094     0029                     handle_gga@fixq:	
  2095                           ; 1 bytes @ 0x9
  2096                           
  2097                           
  2098                           ; 1 bytes @ 0x9
  2099     0029                     	ds	1
  2100     002A                     ??_EUSART_Initialize:
  2101     002A                     handle_gga@sats:	
  2102                           ; 1 bytes @ 0xA
  2103                           
  2104     002A                     suart_print_int32@buf:	
  2105                           ; 1 bytes @ 0xA
  2106                           
  2107                           
  2108                           ; 12 bytes @ 0xA
  2109     002A                     	ds	1
  2110     002B                     handle_gga@hd:
  2111                           
  2112                           ; 2 bytes @ 0xB
  2113     002B                     	ds	5
  2114     0030                     ?___aodiv:
  2115     0030                     ___aodiv@divisor:	
  2116                           ; 8 bytes @ 0x10
  2117                           
  2118                           
  2119                           ; 8 bytes @ 0x10
  2120     0030                     	ds	6
  2121     0036                     suart_print_int32@i:
  2122                           
  2123                           ; 1 bytes @ 0x16
  2124     0036                     	ds	1
  2125     0037                     ?_suart_print_microdeg:
  2126     0037                     suart_print_microdeg@udeg:	
  2127                           ; 1 bytes @ 0x17
  2128                           
  2129                           
  2130                           ; 4 bytes @ 0x17
  2131     0037                     	ds	1
  2132     0038                     ___aodiv@dividend:
  2133                           
  2134                           ; 8 bytes @ 0x18
  2135     0038                     	ds	3
  2136     003B                     suart_print_microdeg@whole:
  2137                           
  2138                           ; 4 bytes @ 0x1B
  2139     003B                     	ds	4
  2140     003F                     suart_print_microdeg@frac:
  2141                           
  2142                           ; 4 bytes @ 0x1F
  2143     003F                     	ds	1
  2144     0040                     ___aodiv@counter:
  2145                           
  2146                           ; 1 bytes @ 0x20
  2147     0040                     	ds	1
  2148     0041                     ___aodiv@sign:
  2149                           
  2150                           ; 1 bytes @ 0x21
  2151     0041                     	ds	1
  2152     0042                     ___aodiv@quotient:
  2153                           
  2154                           ; 8 bytes @ 0x22
  2155     0042                     	ds	1
  2156     0043                     suart_print_microdeg@div:
  2157                           
  2158                           ; 4 bytes @ 0x23
  2159     0043                     	ds	7
  2160     004A                     ??_coord_to_microdeg:
  2161     004A                     ??_avg_print:	
  2162                           ; 1 bytes @ 0x2A
  2163                           
  2164                           
  2165                           ; 1 bytes @ 0x2A
  2166     004A                     	ds	2
  2167     004C                     avg_print@lat_avg:
  2168                           
  2169                           ; 4 bytes @ 0x2C
  2170     004C                     	ds	4
  2171     0050                     avg_print@lon_avg:
  2172                           
  2173                           ; 4 bytes @ 0x30
  2174     0050                     	ds	2
  2175     0052                     coord_to_microdeg@min_int:
  2176                           
  2177                           ; 2 bytes @ 0x32
  2178     0052                     	ds	2
  2179     0054                     _avg_print$1058:
  2180     0054                     coord_to_microdeg@micro:	
  2181                           ; 2 bytes @ 0x34
  2182                           
  2183                           
  2184                           ; 8 bytes @ 0x34
  2185     0054                     	ds	8
  2186     005C                     coord_to_microdeg@deg:
  2187                           
  2188                           ; 2 bytes @ 0x3C
  2189     005C                     	ds	2
  2190     005E                     coord_to_microdeg@i:
  2191                           
  2192                           ; 2 bytes @ 0x3E
  2193     005E                     	ds	2
  2194     0060                     coord_to_microdeg@frac:
  2195                           
  2196                           ; 2 bytes @ 0x40
  2197     0060                     	ds	2
  2198     0062                     coord_to_microdeg@scale:
  2199                           
  2200                           ; 2 bytes @ 0x42
  2201     0062                     	ds	2
  2202     0064                     coord_to_microdeg@dlen:
  2203                           
  2204                           ; 2 bytes @ 0x44
  2205     0064                     	ds	2
  2206     0066                     coord_to_microdeg@i_213:
  2207                           
  2208                           ; 2 bytes @ 0x46
  2209     0066                     	ds	2
  2210     0068                     ??_main:
  2211                           
  2212                           ; 1 bytes @ 0x48
  2213     0068                     	ds	2
  2214                           
  2215                           	psect	maintext
  2216     03F6                     __pmaintext:	
  2217 ;;
  2218 ;;Main: autosize = 0, tempsize = 2, incstack = 0, save=0
  2219 ;;
  2220 ;; *************** function _main *****************
  2221 ;; Defined at:
  2222 ;;		line 323 in file "main.c"
  2223 ;; Parameters:    Size  Location     Type
  2224 ;;		None
  2225 ;; Auto vars:     Size  Location     Type
  2226 ;;  lon             4    5[BANK1 ] long 
  2227 ;;  lat             4    1[BANK1 ] long 
  2228 ;;  nf              1    0[BANK1 ] unsigned char 
  2229 ;; Return value:  Size  Location     Type
  2230 ;;                  1    wreg      void 
  2231 ;; Registers used:
  2232 ;;		wreg, fsr0l, fsr0h, fsr1l, fsr1h, status,2, status,0, pclath, cstack
  2233 ;; Tracked objects:
  2234 ;;		On entry : B1F/0
  2235 ;;		On exit  : 0/0
  2236 ;;		Unchanged: 0/0
  2237 ;; Data sizes:     COMMON   BANK0   BANK1   BANK2   BANK3   BANK4   BANK5   BANK6   BANK7   BANK8   BANK9  BANK10  BANK1
      +1  BANK12  BANK13  BANK14  BANK15  BANK16  BANK17  BANK18  BANK19  BANK20  BANK21  BANK22  BANK23  BANK24  BANK25
  2238 ;;      Params:         0       0       0       0       0       0       0       0       0       0       0       0       
      +0       0       0       0       0       0       0       0       0       0       0       0       0       0       0
  2239 ;;      Locals:         0       0       9       0       0       0       0       0       0       0       0       0       
      +0       0       0       0       0       0       0       0       0       0       0       0       0       0       0
  2240 ;;      Temps:          0       2       0       0       0       0       0       0       0       0       0       0       
      +0       0       0       0       0       0       0       0       0       0       0       0       0       0       0
  2241 ;;      Totals:         0       2       9       0       0       0       0       0       0       0       0       0       
      +0       0       0       0       0       0       0       0       0       0       0       0       0       0       0
  2242 ;;Total ram usage:       11 bytes
  2243 ;; Hardware stack levels required when called: 7
  2244 ;; This function calls:
  2245 ;;		_EUSART_Initialize
  2246 ;;		_SUART_Init
  2247 ;;		_avg_add
  2248 ;;		_avg_print
  2249 ;;		_avg_ready
  2250 ;;		_avg_reset
  2251 ;;		_coord_to_microdeg
  2252 ;;		_gps_read_line
  2253 ;;		_handle_gga
  2254 ;;		_initMain
  2255 ;;		_nmea_checksum_ok
  2256 ;;		_quality_ok
  2257 ;;		_split_csv
  2258 ;;		_strncmp
  2259 ;;		_strncpy
  2260 ;;		_suart_putc
  2261 ;;		_suart_puts
  2262 ;; This function is called by:
  2263 ;;		Startup code after reset
  2264 ;; This function uses a non-reentrant model
  2265 ;;
  2266                           
  2267     03F6                     _main:	
  2268                           ;psect for function _main
  2269                           
  2270     03F6                     l2768:	
  2271                           ;incstack = 0
  2272                           ; Regs used in _main: [wreg-fsr1h+status,2+status,0+pclath+cstack]
  2273                           
  2274                           
  2275                           ;main.c: 325:     initMain();
  2276     03F6  3189  2131  3183   	fcall	_initMain
  2277     03F9                     l2770:
  2278                           
  2279                           ;main.c: 326:     SUART_Init();
  2280     03F9  3188  2032  3183   	fcall	_SUART_Init
  2281                           
  2282                           ;main.c: 327:     _delay((unsigned long)((200)*(32000000/4000.0)));
  2283     03FC  3009               	movlw	9
  2284     03FD  0020               	movlb	0	; select bank0
  2285     03FE  00E9               	movwf	??_main+1
  2286     03FF  301E               	movlw	30
  2287     0400  00E8               	movwf	??_main
  2288     0401  30E4               	movlw	228
  2289     0402                     u3477:
  2290     0402  0B89               	decfsz	9,f
  2291     0403  2C02               	goto	u3477
  2292     0404  0BE8               	decfsz	??_main,f
  2293     0405  2C02               	goto	u3477
  2294     0406  0BE9               	decfsz	??_main+1,f
  2295     0407  2C02               	goto	u3477
  2296     0408  0000               	nop
  2297     0409                     l2772:
  2298                           
  2299                           ;main.c: 329:     EUSART_Initialize(9600);
  2300     0409  3000               	movlw	0
  2301     040A  0020               	movlb	0	; select bank0
  2302     040B  00A9               	movwf	EUSART_Initialize@baudrate+3
  2303     040C  3000               	movlw	0
  2304     040D  00A8               	movwf	EUSART_Initialize@baudrate+2
  2305     040E  3025               	movlw	37
  2306     040F  00A7               	movwf	EUSART_Initialize@baudrate+1
  2307     0410  3080               	movlw	128
  2308     0411  00A6               	movwf	EUSART_Initialize@baudrate
  2309     0412  318B  2304  3183   	fcall	_EUSART_Initialize
  2310     0415                     l2774:
  2311                           
  2312                           ;main.c: 331:     suart_puts("\r\n=== NEO-6M QUALITY FILTER + AVERAGING ===\r\n");
  2313     0415  3000               	movlw	low (STR_7| (0+32768))
  2314     0416  00FA               	movwf	suart_puts@s
  2315     0417  3090               	movlw	high (STR_7| (0+32768))
  2316     0418  00FB               	movwf	suart_puts@s+1
  2317     0419  3188  2052  3183   	fcall	_suart_puts
  2318     041C                     l2776:
  2319                           
  2320                           ;main.c: 332:     suart_puts("Filter: fixq>=1, sats>=6, hdop<=2.50\r\n");
  2321     041C  302E               	movlw	low (STR_8| (0+32768))
  2322     041D  00FA               	movwf	suart_puts@s
  2323     041E  3090               	movlw	high (STR_8| (0+32768))
  2324     041F  00FB               	movwf	suart_puts@s+1
  2325     0420  3188  2052  3183   	fcall	_suart_puts
  2326     0423                     l2778:
  2327                           
  2328                           ;main.c: 333:     suart_puts("Averaging: ");
  2329     0423  3062               	movlw	low (STR_9| (0+32768))
  2330     0424  00FA               	movwf	suart_puts@s
  2331     0425  3090               	movlw	high (STR_9| (0+32768))
  2332     0426  00FB               	movwf	suart_puts@s+1
  2333     0427  3188  2052  3183   	fcall	_suart_puts
  2334     042A                     l2780:
  2335                           
  2336                           ;main.c: 334:     suart_putc((char)('0' + (8 / 10)));
  2337     042A  3030               	movlw	48
  2338     042B  3188  203E  3183   	fcall	_suart_putc
  2339     042E                     l2782:
  2340                           
  2341                           ;main.c: 335:     suart_putc((char)('0' + (8 % 10)));
  2342     042E  3038               	movlw	56
  2343     042F  3188  203E  3183   	fcall	_suart_putc
  2344     0432                     l2784:
  2345                           
  2346                           ;main.c: 336:     suart_puts(" samples\r\n\r\n");
  2347     0432  3055               	movlw	low (STR_10| (0+32768))
  2348     0433  00FA               	movwf	suart_puts@s
  2349     0434  3090               	movlw	high (STR_10| (0+32768))
  2350     0435  00FB               	movwf	suart_puts@s+1
  2351     0436  3188  2052  3183   	fcall	_suart_puts
  2352     0439                     l2786:
  2353                           
  2354                           ;main.c: 338:     avg_reset();
  2355     0439  3188  2089  3183   	fcall	_avg_reset
  2356     043C                     l2788:
  2357                           
  2358                           ;main.c: 341:     {;main.c: 342:         gps_read_line(line, (unsigned int)sizeof(line))
      +                          ;
  2359     043C  3090               	movlw	144
  2360     043D  00F0               	movwf	gps_read_line@buf
  2361     043E  3027               	movlw	39
  2362     043F  00F1               	movwf	gps_read_line@buf+1
  2363     0440  3060               	movlw	96
  2364     0441  00F2               	movwf	gps_read_line@maxlen
  2365     0442  3000               	movlw	0
  2366     0443  00F3               	movwf	gps_read_line@maxlen+1
  2367     0444  318B  23F8  3183   	fcall	_gps_read_line
  2368     0447                     l2790:
  2369                           
  2370                           ;main.c: 343:         if (!nmea_checksum_ok(line)) continue;
  2371     0447  3090               	movlw	144
  2372     0448  00F3               	movwf	nmea_checksum_ok@s
  2373     0449  3027               	movlw	39
  2374     044A  00F4               	movwf	nmea_checksum_ok@s+1
  2375     044B  318E  2619  3183   	fcall	_nmea_checksum_ok
  2376     044E  3A00               	xorlw	0
  2377     044F  1D03               	skipz
  2378     0450  2C52               	goto	u3261
  2379     0451  2C53               	goto	u3260
  2380     0452                     u3261:
  2381     0452  2C54               	goto	l2794
  2382     0453                     u3260:
  2383     0453  2C3C               	goto	l2788
  2384     0454                     l2794:
  2385                           
  2386                           ;main.c: 346:         if (!strncmp(line, "$GPGGA", 6) || !strncmp(line, "$GNGGA", 6)) {
  2387     0454  3090               	movlw	144
  2388     0455  00F0               	movwf	strncmp@l
  2389     0456  3027               	movlw	39
  2390     0457  00F1               	movwf	strncmp@l+1
  2391     0458  3097               	movlw	low (STR_11| (0+32768))
  2392     0459  00F2               	movwf	strncmp@r
  2393     045A  3090               	movlw	high (STR_11| (0+32768))
  2394     045B  00F3               	movwf	strncmp@r+1
  2395     045C  3006               	movlw	6
  2396     045D  00F4               	movwf	strncmp@n
  2397     045E  3000               	movlw	0
  2398     045F  00F5               	movwf	strncmp@n+1
  2399     0460  318B  23A6  3183   	fcall	_strncmp
  2400     0463  0870               	movf	?_strncmp,w
  2401     0464  0471               	iorwf	?_strncmp+1,w
  2402     0465  1903               	btfsc	3,2
  2403     0466  2C68               	goto	u3271
  2404     0467  2C69               	goto	u3270
  2405     0468                     u3271:
  2406     0468  2C7E               	goto	l2798
  2407     0469                     u3270:
  2408     0469                     l2796:
  2409     0469  3090               	movlw	144
  2410     046A  00F0               	movwf	strncmp@l
  2411     046B  3027               	movlw	39
  2412     046C  00F1               	movwf	strncmp@l+1
  2413     046D  3090               	movlw	low (STR_13| (0+32768))
  2414     046E  00F2               	movwf	strncmp@r
  2415     046F  3090               	movlw	high (STR_13| (0+32768))
  2416     0470  00F3               	movwf	strncmp@r+1
  2417     0471  3006               	movlw	6
  2418     0472  00F4               	movwf	strncmp@n
  2419     0473  3000               	movlw	0
  2420     0474  00F5               	movwf	strncmp@n+1
  2421     0475  318B  23A6  3183   	fcall	_strncmp
  2422     0478  0870               	movf	?_strncmp,w
  2423     0479  0471               	iorwf	?_strncmp+1,w
  2424     047A  1D03               	btfss	3,2
  2425     047B  2C7D               	goto	u3281
  2426     047C  2C7E               	goto	u3280
  2427     047D                     u3281:
  2428     047D  2C8F               	goto	l2804
  2429     047E                     u3280:
  2430     047E                     l2798:
  2431                           
  2432                           ;main.c: 347:             handle_gga(line);
  2433     047E  3090               	movlw	144
  2434     047F  0020               	movlb	0	; select bank0
  2435     0480  00A6               	movwf	handle_gga@nmea
  2436     0481  3027               	movlw	39
  2437     0482  00A7               	movwf	handle_gga@nmea+1
  2438     0483  318C  2461  3183   	fcall	_handle_gga
  2439     0486                     l2800:
  2440                           
  2441                           ;main.c: 349:             if (!quality_ok()) avg_reset();
  2442     0486  3188  20DC  3183   	fcall	_quality_ok
  2443     0489  3A00               	xorlw	0
  2444     048A  1D03               	skipz
  2445     048B  2C8D               	goto	u3291
  2446     048C  2C8E               	goto	u3290
  2447     048D                     u3291:
  2448     048D  2C3C               	goto	l2788
  2449     048E                     u3290:
  2450     048E  2C39               	goto	l2786
  2451     048F                     l2804:
  2452                           
  2453                           ;main.c: 354:         if (strncmp(line, "$GPRMC", 6) && strncmp(line, "$GNRMC", 6)) cont
      +                          inue;
  2454     048F  3090               	movlw	144
  2455     0490  00F0               	movwf	strncmp@l
  2456     0491  3027               	movlw	39
  2457     0492  00F1               	movwf	strncmp@l+1
  2458     0493  30A5               	movlw	low (STR_15| (0+32768))
  2459     0494  00F2               	movwf	strncmp@r
  2460     0495  3090               	movlw	high (STR_15| (0+32768))
  2461     0496  00F3               	movwf	strncmp@r+1
  2462     0497  3006               	movlw	6
  2463     0498  00F4               	movwf	strncmp@n
  2464     0499  3000               	movlw	0
  2465     049A  00F5               	movwf	strncmp@n+1
  2466     049B  318B  23A6  3183   	fcall	_strncmp
  2467     049E  0870               	movf	?_strncmp,w
  2468     049F  0471               	iorwf	?_strncmp+1,w
  2469     04A0  1903               	btfsc	3,2
  2470     04A1  2CA3               	goto	u3301
  2471     04A2  2CA4               	goto	u3300
  2472     04A3                     u3301:
  2473     04A3  2CBA               	goto	l2810
  2474     04A4                     u3300:
  2475     04A4                     l2806:
  2476     04A4  3090               	movlw	144
  2477     04A5  00F0               	movwf	strncmp@l
  2478     04A6  3027               	movlw	39
  2479     04A7  00F1               	movwf	strncmp@l+1
  2480     04A8  309E               	movlw	low (STR_16| (0+32768))
  2481     04A9  00F2               	movwf	strncmp@r
  2482     04AA  3090               	movlw	high (STR_16| (0+32768))
  2483     04AB  00F3               	movwf	strncmp@r+1
  2484     04AC  3006               	movlw	6
  2485     04AD  00F4               	movwf	strncmp@n
  2486     04AE  3000               	movlw	0
  2487     04AF  00F5               	movwf	strncmp@n+1
  2488     04B0  318B  23A6  3183   	fcall	_strncmp
  2489     04B3  0870               	movf	?_strncmp,w
  2490     04B4  0471               	iorwf	?_strncmp+1,w
  2491     04B5  1903               	btfsc	3,2
  2492     04B6  2CB8               	goto	u3311
  2493     04B7  2CB9               	goto	u3310
  2494     04B8                     u3311:
  2495     04B8  2CBA               	goto	l2810
  2496     04B9                     u3310:
  2497     04B9  2C3C               	goto	l2788
  2498     04BA                     l2810:
  2499                           
  2500                           ;main.c: 357:         strncpy(work, line, sizeof(work) - 1);
  2501     04BA  3030               	movlw	48
  2502     04BB  00F0               	movwf	strncpy@d
  2503     04BC  3027               	movlw	39
  2504     04BD  00F1               	movwf	strncpy@d+1
  2505     04BE  3090               	movlw	144
  2506     04BF  00F2               	movwf	strncpy@s
  2507     04C0  3027               	movlw	39
  2508     04C1  00F3               	movwf	strncpy@s+1
  2509     04C2  305F               	movlw	95
  2510     04C3  00F4               	movwf	strncpy@n
  2511     04C4  3000               	movlw	0
  2512     04C5  00F5               	movwf	strncpy@n+1
  2513     04C6  318A  2226  3183   	fcall	_strncpy
  2514     04C9                     l2812:
  2515                           
  2516                           ;main.c: 358:         work[sizeof(work) - 1] = 0;
  2517     04C9  308F               	movlw	143
  2518     04CA  0086               	movwf	6
  2519     04CB  3027               	movlw	39
  2520     04CC  0087               	movwf	7
  2521     04CD  0181               	clrf	1
  2522     04CE                     l2814:
  2523                           
  2524                           ;main.c: 360:         uint8_t nf = split_csv(work, fld, 20);
  2525     04CE  3030               	movlw	48
  2526     04CF  00F0               	movwf	split_csv@s
  2527     04D0  3027               	movlw	39
  2528     04D1  00F1               	movwf	split_csv@s+1
  2529     04D2  30B0               	movlw	(low (_fld| 0))& (0+255)
  2530     04D3  00F2               	movwf	split_csv@out
  2531     04D4  3014               	movlw	20
  2532     04D5  00F3               	movwf	split_csv@maxf
  2533     04D6  318D  2534  3183   	fcall	_split_csv
  2534     04D9  0021               	movlb	1	; select bank1
  2535     04DA  00D8               	movwf	main@nf^(0+128)
  2536     04DB                     l2816:
  2537                           
  2538                           ;main.c: 361:         if (nf < 7) continue;
  2539     04DB  3007               	movlw	7
  2540     04DC  0258               	subwf	main@nf^(0+128),w
  2541     04DD  1803               	skipnc
  2542     04DE  2CE0               	goto	u3321
  2543     04DF  2CE1               	goto	u3320
  2544     04E0                     u3321:
  2545     04E0  2CE2               	goto	l2820
  2546     04E1                     u3320:
  2547     04E1  2C3C               	goto	l2788
  2548     04E2                     l2820:
  2549                           
  2550                           ;main.c: 364:         if (!fld[2] || fld[2][0] != 'A') {
  2551     04E2  0834               	movf	(low ((_fld| 0+4)))^(0+128),w
  2552     04E3  0435               	iorwf	((low ((_fld| 0+4))+1))^(0+128),w
  2553     04E4  1903               	btfsc	3,2
  2554     04E5  2CE7               	goto	u3331
  2555     04E6  2CE8               	goto	u3330
  2556     04E7                     u3331:
  2557     04E7  2C39               	goto	l2786
  2558     04E8                     u3330:
  2559     04E8                     l2822:
  2560     04E8  0834               	movf	(low ((_fld| 0+4)))^(0+128),w
  2561     04E9  0086               	movwf	6
  2562     04EA  0835               	movf	((low ((_fld| 0+4))+1))^(0+128),w
  2563     04EB  0087               	movwf	7
  2564     04EC  3041               	movlw	65
  2565     04ED  0601               	xorwf	1,w
  2566     04EE  1903               	btfsc	3,2
  2567     04EF  2CF1               	goto	u3341
  2568     04F0  2CF2               	goto	u3340
  2569     04F1                     u3341:
  2570     04F1  2CF3               	goto	l2826
  2571     04F2                     u3340:
  2572     04F2  2C39               	goto	l2786
  2573     04F3                     l2826:
  2574                           
  2575                           ;main.c: 370:         if (!quality_ok()) {
  2576     04F3  3188  20DC  3183   	fcall	_quality_ok
  2577     04F6  3A00               	xorlw	0
  2578     04F7  1D03               	skipz
  2579     04F8  2CFA               	goto	u3351
  2580     04F9  2CFB               	goto	u3350
  2581     04FA                     u3351:
  2582     04FA  2CFC               	goto	l2830
  2583     04FB                     u3350:
  2584     04FB  2C39               	goto	l2786
  2585     04FC                     l2830:
  2586                           
  2587                           ;main.c: 377:         int32_t lat = 0, lon = 0;
  2588     04FC  3000               	movlw	0
  2589     04FD  0021               	movlb	1	; select bank1
  2590     04FE  00DC               	movwf	(main@lat+3)^(0+128)
  2591     04FF  3000               	movlw	0
  2592     0500  00DB               	movwf	(main@lat+2)^(0+128)
  2593     0501  3000               	movlw	0
  2594     0502  00DA               	movwf	(main@lat+1)^(0+128)
  2595     0503  3000               	movlw	0
  2596     0504  00D9               	movwf	main@lat^(0+128)
  2597     0505  3000               	movlw	0
  2598     0506  00E0               	movwf	(main@lon+3)^(0+128)
  2599     0507  3000               	movlw	0
  2600     0508  00DF               	movwf	(main@lon+2)^(0+128)
  2601     0509  3000               	movlw	0
  2602     050A  00DE               	movwf	(main@lon+1)^(0+128)
  2603     050B  3000               	movlw	0
  2604     050C  00DD               	movwf	main@lon^(0+128)
  2605     050D                     l2832:
  2606                           
  2607                           ;main.c: 378:         if (!coord_to_microdeg(fld[3], 1, &lat)) continue;
  2608     050D  0837               	movf	((low ((_fld| 0+6))+1))^(0+128),w
  2609     050E  00FB               	movwf	coord_to_microdeg@field+1
  2610     050F  0836               	movf	(low ((_fld| 0+6)))^(0+128),w
  2611     0510  00FA               	movwf	coord_to_microdeg@field
  2612     0511  01FC               	clrf	coord_to_microdeg@is_lat
  2613     0512  0AFC               	incf	coord_to_microdeg@is_lat,f
  2614     0513  30D9               	movlw	(low (main@lat| 0))& (0+255)
  2615     0514  00FD               	movwf	coord_to_microdeg@out
  2616     0515  3185  2589  3183   	fcall	_coord_to_microdeg
  2617     0518  087A               	movf	?_coord_to_microdeg,w
  2618     0519  047B               	iorwf	?_coord_to_microdeg+1,w
  2619     051A  1D03               	btfss	3,2
  2620     051B  2D1D               	goto	u3361
  2621     051C  2D1E               	goto	u3360
  2622     051D                     u3361:
  2623     051D  2D1F               	goto	l2836
  2624     051E                     u3360:
  2625     051E  2C3C               	goto	l2788
  2626     051F                     l2836:
  2627                           
  2628                           ;main.c: 379:         if (fld[4] && fld[4][0] == 'S') lat = -lat;
  2629     051F  0021               	movlb	1	; select bank1
  2630     0520  0838               	movf	(low ((_fld| 0+8)))^(0+128),w
  2631     0521  0439               	iorwf	((low ((_fld| 0+8))+1))^(0+128),w
  2632     0522  1903               	btfsc	3,2
  2633     0523  2D25               	goto	u3371
  2634     0524  2D26               	goto	u3370
  2635     0525                     u3371:
  2636     0525  2D3B               	goto	l2842
  2637     0526                     u3370:
  2638     0526                     l2838:
  2639     0526  0838               	movf	(low ((_fld| 0+8)))^(0+128),w
  2640     0527  0086               	movwf	6
  2641     0528  0839               	movf	((low ((_fld| 0+8))+1))^(0+128),w
  2642     0529  0087               	movwf	7
  2643     052A  3053               	movlw	83
  2644     052B  0601               	xorwf	1,w
  2645     052C  1D03               	btfss	3,2
  2646     052D  2D2F               	goto	u3381
  2647     052E  2D30               	goto	u3380
  2648     052F                     u3381:
  2649     052F  2D3B               	goto	l2842
  2650     0530                     u3380:
  2651     0530                     l2840:
  2652     0530  09D9               	comf	main@lat^(0+128),f
  2653     0531  09DA               	comf	(main@lat+1)^(0+128),f
  2654     0532  09DB               	comf	(main@lat+2)^(0+128),f
  2655     0533  09DC               	comf	(main@lat+3)^(0+128),f
  2656     0534  0AD9               	incf	main@lat^(0+128),f
  2657     0535  1903               	skipnz
  2658     0536  0ADA               	incf	(main@lat+1)^(0+128),f
  2659     0537  1903               	skipnz
  2660     0538  0ADB               	incf	(main@lat+2)^(0+128),f
  2661     0539  1903               	skipnz
  2662     053A  0ADC               	incf	(main@lat+3)^(0+128),f
  2663     053B                     l2842:
  2664                           
  2665                           ;main.c: 381:         if (!coord_to_microdeg(fld[5], 0, &lon)) continue;
  2666     053B  083B               	movf	((low ((_fld| 0+10))+1))^(0+128),w
  2667     053C  00FB               	movwf	coord_to_microdeg@field+1
  2668     053D  083A               	movf	(low ((_fld| 0+10)))^(0+128),w
  2669     053E  00FA               	movwf	coord_to_microdeg@field
  2670     053F  01FC               	clrf	coord_to_microdeg@is_lat
  2671     0540  30DD               	movlw	(low (main@lon| 0))& (0+255)
  2672     0541  00FD               	movwf	coord_to_microdeg@out
  2673     0542  3185  2589  3183   	fcall	_coord_to_microdeg
  2674     0545  087A               	movf	?_coord_to_microdeg,w
  2675     0546  047B               	iorwf	?_coord_to_microdeg+1,w
  2676     0547  1D03               	btfss	3,2
  2677     0548  2D4A               	goto	u3391
  2678     0549  2D4B               	goto	u3390
  2679     054A                     u3391:
  2680     054A  2D4C               	goto	l2846
  2681     054B                     u3390:
  2682     054B  2C3C               	goto	l2788
  2683     054C                     l2846:
  2684                           
  2685                           ;main.c: 382:         if (fld[6] && fld[6][0] == 'W') lon = -lon;
  2686     054C  0021               	movlb	1	; select bank1
  2687     054D  083C               	movf	(low ((_fld| 0+12)))^(0+128),w
  2688     054E  043D               	iorwf	((low ((_fld| 0+12))+1))^(0+128),w
  2689     054F  1903               	btfsc	3,2
  2690     0550  2D52               	goto	u3401
  2691     0551  2D53               	goto	u3400
  2692     0552                     u3401:
  2693     0552  2D68               	goto	l2852
  2694     0553                     u3400:
  2695     0553                     l2848:
  2696     0553  083C               	movf	(low ((_fld| 0+12)))^(0+128),w
  2697     0554  0086               	movwf	6
  2698     0555  083D               	movf	((low ((_fld| 0+12))+1))^(0+128),w
  2699     0556  0087               	movwf	7
  2700     0557  3057               	movlw	87
  2701     0558  0601               	xorwf	1,w
  2702     0559  1D03               	btfss	3,2
  2703     055A  2D5C               	goto	u3411
  2704     055B  2D5D               	goto	u3410
  2705     055C                     u3411:
  2706     055C  2D68               	goto	l2852
  2707     055D                     u3410:
  2708     055D                     l2850:
  2709     055D  09DD               	comf	main@lon^(0+128),f
  2710     055E  09DE               	comf	(main@lon+1)^(0+128),f
  2711     055F  09DF               	comf	(main@lon+2)^(0+128),f
  2712     0560  09E0               	comf	(main@lon+3)^(0+128),f
  2713     0561  0ADD               	incf	main@lon^(0+128),f
  2714     0562  1903               	skipnz
  2715     0563  0ADE               	incf	(main@lon+1)^(0+128),f
  2716     0564  1903               	skipnz
  2717     0565  0ADF               	incf	(main@lon+2)^(0+128),f
  2718     0566  1903               	skipnz
  2719     0567  0AE0               	incf	(main@lon+3)^(0+128),f
  2720     0568                     l2852:
  2721                           
  2722                           ;main.c: 385:         avg_add(lat, lon);
  2723     0568  085C               	movf	(main@lat+3)^(0+128),w
  2724     0569  00F3               	movwf	avg_add@lat+3
  2725     056A  085B               	movf	(main@lat+2)^(0+128),w
  2726     056B  00F2               	movwf	avg_add@lat+2
  2727     056C  085A               	movf	(main@lat+1)^(0+128),w
  2728     056D  00F1               	movwf	avg_add@lat+1
  2729     056E  0859               	movf	main@lat^(0+128),w
  2730     056F  00F0               	movwf	avg_add@lat
  2731     0570  0860               	movf	(main@lon+3)^(0+128),w
  2732     0571  00F7               	movwf	avg_add@lon+3
  2733     0572  085F               	movf	(main@lon+2)^(0+128),w
  2734     0573  00F6               	movwf	avg_add@lon+2
  2735     0574  085E               	movf	(main@lon+1)^(0+128),w
  2736     0575  00F5               	movwf	avg_add@lon+1
  2737     0576  085D               	movf	main@lon^(0+128),w
  2738     0577  00F4               	movwf	avg_add@lon
  2739     0578  318C  24CA  3183   	fcall	_avg_add
  2740     057B                     l2854:
  2741                           
  2742                           ;main.c: 388:         if (avg_ready()) {
  2743     057B  3188  2063  3183   	fcall	_avg_ready
  2744     057E  3A00               	xorlw	0
  2745     057F  1903               	skipnz
  2746     0580  2D82               	goto	u3421
  2747     0581  2D83               	goto	u3420
  2748     0582                     u3421:
  2749     0582  2C3C               	goto	l2788
  2750     0583                     u3420:
  2751     0583                     l2856:
  2752                           
  2753                           ;main.c: 389:             avg_print();
  2754     0583  3181  2193  3183   	fcall	_avg_print
  2755     0586  2C3C               	goto	l2788
  2756     0587  3180  2802         	ljmp	start
  2757     0589                     __end_of_main:
  2758                           
  2759                           	psect	text1
  2760     0BA6                     __ptext1:	
  2761 ;; *************** function _strncmp *****************
  2762 ;; Defined at:
  2763 ;;		line 3 in file "C:\Program Files\Microchip\xc8\v2.46\pic\sources\c99\common\strncmp.c"
  2764 ;; Parameters:    Size  Location     Type
  2765 ;;  l               2    0[COMMON] PTR const unsigned char 
  2766 ;;		 -> line(96), 
  2767 ;;  r               2    2[COMMON] PTR const unsigned char 
  2768 ;;		 -> STR_18(7), STR_17(7), STR_14(7), STR_12(7), 
  2769 ;;  n               2    4[COMMON] unsigned int 
  2770 ;; Auto vars:     Size  Location     Type
  2771 ;;		None
  2772 ;; Return value:  Size  Location     Type
  2773 ;;                  2    0[COMMON] int 
  2774 ;; Registers used:
  2775 ;;		wreg, fsr0l, fsr0h, fsr1l, fsr1h, status,2, status,0, pclath
  2776 ;; Tracked objects:
  2777 ;;		On entry : 0/0
  2778 ;;		On exit  : 0/0
  2779 ;;		Unchanged: 0/0
  2780 ;; Data sizes:     COMMON   BANK0   BANK1   BANK2   BANK3   BANK4   BANK5   BANK6   BANK7   BANK8   BANK9  BANK10  BANK1
      +1  BANK12  BANK13  BANK14  BANK15  BANK16  BANK17  BANK18  BANK19  BANK20  BANK21  BANK22  BANK23  BANK24  BANK25
  2781 ;;      Params:         6       0       0       0       0       0       0       0       0       0       0       0       
      +0       0       0       0       0       0       0       0       0       0       0       0       0       0       0
  2782 ;;      Locals:         0       0       0       0       0       0       0       0       0       0       0       0       
      +0       0       0       0       0       0       0       0       0       0       0       0       0       0       0
  2783 ;;      Temps:          1       0       0       0       0       0       0       0       0       0       0       0       
      +0       0       0       0       0       0       0       0       0       0       0       0       0       0       0
  2784 ;;      Totals:         7       0       0       0       0       0       0       0       0       0       0       0       
      +0       0       0       0       0       0       0       0       0       0       0       0       0       0       0
  2785 ;;Total ram usage:        7 bytes
  2786 ;; Hardware stack levels used: 1
  2787 ;; This function calls:
  2788 ;;		Nothing
  2789 ;; This function is called by:
  2790 ;;		_main
  2791 ;; This function uses a non-reentrant model
  2792 ;;
  2793                           
  2794     0BA6                     _strncmp:	
  2795                           ;psect for function _strncmp
  2796                           
  2797     0BA6                     l2682:	
  2798                           ;incstack = 0
  2799                           ; Regs used in _strncmp: [wreg-fsr1h+status,2+status,0+pclath]
  2800                           
  2801     0BA6  3001               	movlw	1
  2802     0BA7  02F4               	subwf	strncmp@n,f
  2803     0BA8  3000               	movlw	0
  2804     0BA9  3BF5               	subwfb	strncmp@n+1,f
  2805     0BAA  0A74               	incf	strncmp@n,w
  2806     0BAB  1D03               	skipz
  2807     0BAC  2BB1               	goto	u3121
  2808     0BAD  0A75               	incf	strncmp@n+1,w
  2809     0BAE  1D03               	btfss	3,2
  2810     0BAF  2BB1               	goto	u3121
  2811     0BB0  2BB2               	goto	u3120
  2812     0BB1                     u3121:
  2813     0BB1  2BC1               	goto	l2690
  2814     0BB2                     u3120:
  2815     0BB2                     l2684:
  2816     0BB2  01F0               	clrf	?_strncmp
  2817     0BB3  01F1               	clrf	?_strncmp+1
  2818     0BB4  2BF7               	goto	l919
  2819     0BB5                     l2688:
  2820     0BB5  3001               	movlw	1
  2821     0BB6  07F0               	addwf	strncmp@l,f
  2822     0BB7  3000               	movlw	0
  2823     0BB8  3DF1               	addwfc	strncmp@l+1,f
  2824     0BB9  3001               	movlw	1
  2825     0BBA  07F2               	addwf	strncmp@r,f
  2826     0BBB  3000               	movlw	0
  2827     0BBC  3DF3               	addwfc	strncmp@r+1,f
  2828     0BBD  3001               	movlw	1
  2829     0BBE  02F4               	subwf	strncmp@n,f
  2830     0BBF  3000               	movlw	0
  2831     0BC0  3BF5               	subwfb	strncmp@n+1,f
  2832     0BC1                     l2690:
  2833     0BC1  0870               	movf	strncmp@l,w
  2834     0BC2  0086               	movwf	6
  2835     0BC3  0871               	movf	strncmp@l+1,w
  2836     0BC4  0087               	movwf	7
  2837     0BC5  0801               	movf	1,w
  2838     0BC6  1903               	btfsc	3,2
  2839     0BC7  2BC9               	goto	u3131
  2840     0BC8  2BCA               	goto	u3130
  2841     0BC9                     u3131:
  2842     0BC9  2BE9               	goto	l2698
  2843     0BCA                     u3130:
  2844     0BCA                     l2692:
  2845     0BCA  0872               	movf	strncmp@r,w
  2846     0BCB  0084               	movwf	4
  2847     0BCC  0873               	movf	strncmp@r+1,w
  2848     0BCD  0085               	movwf	5
  2849     0BCE  0012               	moviw fsr0++
  2850     0BCF  1903               	btfsc	3,2
  2851     0BD0  2BD2               	goto	u3141
  2852     0BD1  2BD3               	goto	u3140
  2853     0BD2                     u3141:
  2854     0BD2  2BE9               	goto	l2698
  2855     0BD3                     u3140:
  2856     0BD3                     l2694:
  2857     0BD3  0874               	movf	strncmp@n,w
  2858     0BD4  0475               	iorwf	strncmp@n+1,w
  2859     0BD5  1903               	btfsc	3,2
  2860     0BD6  2BD8               	goto	u3151
  2861     0BD7  2BD9               	goto	u3150
  2862     0BD8                     u3151:
  2863     0BD8  2BE9               	goto	l2698
  2864     0BD9                     u3150:
  2865     0BD9                     l2696:
  2866     0BD9  0872               	movf	strncmp@r,w
  2867     0BDA  0084               	movwf	4
  2868     0BDB  0873               	movf	strncmp@r+1,w
  2869     0BDC  0085               	movwf	5
  2870     0BDD  0800               	movf	0,w	;code access
  2871     0BDE  00F6               	movwf	??_strncmp
  2872     0BDF  0870               	movf	strncmp@l,w
  2873     0BE0  0086               	movwf	6
  2874     0BE1  0871               	movf	strncmp@l+1,w
  2875     0BE2  0087               	movwf	7
  2876     0BE3  0801               	movf	1,w
  2877     0BE4  0676               	xorwf	??_strncmp,w
  2878     0BE5  1903               	skipnz
  2879     0BE6  2BE8               	goto	u3161
  2880     0BE7  2BE9               	goto	u3160
  2881     0BE8                     u3161:
  2882     0BE8  2BB5               	goto	l2688
  2883     0BE9                     u3160:
  2884     0BE9                     l2698:
  2885     0BE9  0870               	movf	strncmp@l,w
  2886     0BEA  0086               	movwf	6
  2887     0BEB  0871               	movf	strncmp@l+1,w
  2888     0BEC  0087               	movwf	7
  2889     0BED  0872               	movf	strncmp@r,w
  2890     0BEE  0084               	movwf	4
  2891     0BEF  0873               	movf	strncmp@r+1,w
  2892     0BF0  0085               	movwf	5
  2893     0BF1  0800               	movf	0,w	;code access
  2894     0BF2  0201               	subwf	1,w
  2895     0BF3  00F0               	movwf	?_strncmp
  2896     0BF4  01F1               	clrf	?_strncmp+1
  2897     0BF5  1C03               	skipc
  2898     0BF6  03F1               	decf	?_strncmp+1,f
  2899     0BF7                     l919:
  2900     0BF7  0008               	return
  2901     0BF8                     __end_of_strncmp:
  2902                           
  2903                           	psect	text2
  2904     08DC                     __ptext2:	
  2905 ;; *************** function _quality_ok *****************
  2906 ;; Defined at:
  2907 ;;		line 219 in file "main.c"
  2908 ;; Parameters:    Size  Location     Type
  2909 ;;		None
  2910 ;; Auto vars:     Size  Location     Type
  2911 ;;		None
  2912 ;; Return value:  Size  Location     Type
  2913 ;;                  1    wreg      unsigned char 
  2914 ;; Registers used:
  2915 ;;		wreg, status,2, status,0
  2916 ;; Tracked objects:
  2917 ;;		On entry : 0/0
  2918 ;;		On exit  : 0/0
  2919 ;;		Unchanged: 0/0
  2920 ;; Data sizes:     COMMON   BANK0   BANK1   BANK2   BANK3   BANK4   BANK5   BANK6   BANK7   BANK8   BANK9  BANK10  BANK1
      +1  BANK12  BANK13  BANK14  BANK15  BANK16  BANK17  BANK18  BANK19  BANK20  BANK21  BANK22  BANK23  BANK24  BANK25
  2921 ;;      Params:         0       0       0       0       0       0       0       0       0       0       0       0       
      +0       0       0       0       0       0       0       0       0       0       0       0       0       0       0
  2922 ;;      Locals:         0       0       0       0       0       0       0       0       0       0       0       0       
      +0       0       0       0       0       0       0       0       0       0       0       0       0       0       0
  2923 ;;      Temps:          0       0       0       0       0       0       0       0       0       0       0       0       
      +0       0       0       0       0       0       0       0       0       0       0       0       0       0       0
  2924 ;;      Totals:         0       0       0       0       0       0       0       0       0       0       0       0       
      +0       0       0       0       0       0       0       0       0       0       0       0       0       0       0
  2925 ;;Total ram usage:        0 bytes
  2926 ;; Hardware stack levels used: 1
  2927 ;; This function calls:
  2928 ;;		Nothing
  2929 ;; This function is called by:
  2930 ;;		_main
  2931 ;; This function uses a non-reentrant model
  2932 ;;
  2933                           
  2934     08DC                     _quality_ok:	
  2935                           ;psect for function _quality_ok
  2936                           
  2937     08DC                     l2532:	
  2938                           ;incstack = 0
  2939                           ; Regs used in _quality_ok: [wreg+status,2+status,0]
  2940                           
  2941                           
  2942                           ;main.c: 221:     if (!gga_seen) return 0;
  2943     08DC  0020               	movlb	0	; select bank0
  2944     08DD  086B               	movf	_gga_seen,w	;volatile
  2945     08DE  1D03               	btfss	3,2
  2946     08DF  28E1               	goto	u2991
  2947     08E0  28E2               	goto	u2990
  2948     08E1                     u2991:
  2949     08E1  28E4               	goto	l2538
  2950     08E2                     u2990:
  2951     08E2                     l2534:
  2952     08E2  3000               	movlw	0
  2953     08E3  28FC               	goto	l178
  2954     08E4                     l2538:
  2955                           
  2956                           ;main.c: 222:     if (gga_fixq < 1) return 0;
  2957     08E4  086D               	movf	_gga_fixq,w	;volatile
  2958     08E5  1D03               	btfss	3,2
  2959     08E6  28E8               	goto	u3001
  2960     08E7  28E9               	goto	u3000
  2961     08E8                     u3001:
  2962     08E8  28EA               	goto	l2544
  2963     08E9                     u3000:
  2964     08E9  28E2               	goto	l2534
  2965     08EA                     l2544:
  2966                           
  2967                           ;main.c: 223:     if (gga_sats < 6) return 0;
  2968     08EA  3006               	movlw	6
  2969     08EB  026C               	subwf	_gga_sats,w	;volatile
  2970     08EC  1803               	skipnc
  2971     08ED  28EF               	goto	u3011
  2972     08EE  28F0               	goto	u3010
  2973     08EF                     u3011:
  2974     08EF  28F1               	goto	l2550
  2975     08F0                     u3010:
  2976     08F0  28E2               	goto	l2534
  2977     08F1                     l2550:
  2978                           
  2979                           ;main.c: 224:     if (gga_hdop_x100 > 250) return 0;
  2980     08F1  3000               	movlw	0
  2981     08F2  026F               	subwf	_gga_hdop_x100+1,w	;volatile
  2982     08F3  30FB               	movlw	251
  2983     08F4  1903               	skipnz
  2984     08F5  026E               	subwf	_gga_hdop_x100,w	;volatile
  2985     08F6  1C03               	skipc
  2986     08F7  28F9               	goto	u3021
  2987     08F8  28FA               	goto	u3020
  2988     08F9                     u3021:
  2989     08F9  28FB               	goto	l2556
  2990     08FA                     u3020:
  2991     08FA  28E2               	goto	l2534
  2992     08FB                     l2556:
  2993                           
  2994                           ;main.c: 225:     return 1;
  2995     08FB  3001               	movlw	1
  2996     08FC                     l178:
  2997     08FC  0008               	return
  2998     08FD                     __end_of_quality_ok:
  2999                           
  3000                           	psect	text3
  3001     0E19                     __ptext3:	
  3002 ;; *************** function _nmea_checksum_ok *****************
  3003 ;; Defined at:
  3004 ;;		line 74 in file "main.c"
  3005 ;; Parameters:    Size  Location     Type
  3006 ;;  s               2    3[COMMON] PTR const unsigned char 
  3007 ;;		 -> line(96), 
  3008 ;; Auto vars:     Size  Location     Type
  3009 ;;  p               2   12[COMMON] PTR const unsigned char 
  3010 ;;		 -> line(96), 
  3011 ;;  lo              2   10[COMMON] int 
  3012 ;;  hi              2    8[COMMON] int 
  3013 ;;  cs              1    7[COMMON] unsigned char 
  3014 ;; Return value:  Size  Location     Type
  3015 ;;                  1    wreg      unsigned char 
  3016 ;; Registers used:
  3017 ;;		wreg, fsr1l, fsr1h, status,2, status,0, pclath, cstack
  3018 ;; Tracked objects:
  3019 ;;		On entry : 0/0
  3020 ;;		On exit  : 0/0
  3021 ;;		Unchanged: 0/0
  3022 ;; Data sizes:     COMMON   BANK0   BANK1   BANK2   BANK3   BANK4   BANK5   BANK6   BANK7   BANK8   BANK9  BANK10  BANK1
      +1  BANK12  BANK13  BANK14  BANK15  BANK16  BANK17  BANK18  BANK19  BANK20  BANK21  BANK22  BANK23  BANK24  BANK25
  3023 ;;      Params:         2       0       0       0       0       0       0       0       0       0       0       0       
      +0       0       0       0       0       0       0       0       0       0       0       0       0       0       0
  3024 ;;      Locals:         7       0       0       0       0       0       0       0       0       0       0       0       
      +0       0       0       0       0       0       0       0       0       0       0       0       0       0       0
  3025 ;;      Temps:          2       0       0       0       0       0       0       0       0       0       0       0       
      +0       0       0       0       0       0       0       0       0       0       0       0       0       0       0
  3026 ;;      Totals:        11       0       0       0       0       0       0       0       0       0       0       0       
      +0       0       0       0       0       0       0       0       0       0       0       0       0       0       0
  3027 ;;Total ram usage:       11 bytes
  3028 ;; Hardware stack levels used: 1
  3029 ;; Hardware stack levels required when called: 1
  3030 ;; This function calls:
  3031 ;;		_hex_nibble
  3032 ;; This function is called by:
  3033 ;;		_main
  3034 ;; This function uses a non-reentrant model
  3035 ;;
  3036                           
  3037     0E19                     _nmea_checksum_ok:	
  3038                           ;psect for function _nmea_checksum_ok
  3039                           
  3040     0E19                     l2402:	
  3041                           ;incstack = 0
  3042                           ; Regs used in _nmea_checksum_ok: [wreg+fsr1l+fsr1h+status,2+status,0+pclath+cstack]
  3043                           
  3044                           
  3045                           ;main.c: 74: static uint8_t nmea_checksum_ok(const char *s);main.c: 75: {;main.c: 76:   
      +                            if (!s || s[0] != '$') return 0;
  3046     0E19  0873               	movf	nmea_checksum_ok@s,w
  3047     0E1A  0474               	iorwf	nmea_checksum_ok@s+1,w
  3048     0E1B  1903               	btfsc	3,2
  3049     0E1C  2E1E               	goto	u2761
  3050     0E1D  2E1F               	goto	u2760
  3051     0E1E                     u2761:
  3052     0E1E  2E29               	goto	l2406
  3053     0E1F                     u2760:
  3054     0E1F                     l2404:
  3055     0E1F  0873               	movf	nmea_checksum_ok@s,w
  3056     0E20  0086               	movwf	6
  3057     0E21  0874               	movf	nmea_checksum_ok@s+1,w
  3058     0E22  0087               	movwf	7
  3059     0E23  3024               	movlw	36
  3060     0E24  0601               	xorwf	1,w
  3061     0E25  1903               	btfsc	3,2
  3062     0E26  2E28               	goto	u2771
  3063     0E27  2E29               	goto	u2770
  3064     0E28                     u2771:
  3065     0E28  2E2B               	goto	l2410
  3066     0E29                     u2770:
  3067     0E29                     l2406:
  3068     0E29  3000               	movlw	0
  3069     0E2A  2EA5               	goto	l88
  3070     0E2B                     l2410:
  3071                           
  3072                           ;main.c: 77:     uint8_t cs = 0;
  3073     0E2B  01F7               	clrf	nmea_checksum_ok@cs
  3074     0E2C                     l2412:
  3075                           
  3076                           ;main.c: 78:     const char *p = s + 1;
  3077     0E2C  0873               	movf	nmea_checksum_ok@s,w
  3078     0E2D  3E01               	addlw	1
  3079     0E2E  00FC               	movwf	nmea_checksum_ok@p
  3080     0E2F  3000               	movlw	0
  3081     0E30  3D74               	addwfc	nmea_checksum_ok@s+1,w
  3082     0E31  00FD               	movwf	nmea_checksum_ok@p+1
  3083                           
  3084                           ;main.c: 79:     while (*p && *p != '*' && *p != '\r' && *p != '\n') cs ^= (uint8_t)(*p+
      +                          +);
  3085     0E32  2E3F               	goto	l2418
  3086     0E33                     l2414:
  3087     0E33  087C               	movf	nmea_checksum_ok@p,w
  3088     0E34  0086               	movwf	6
  3089     0E35  087D               	movf	nmea_checksum_ok@p+1,w
  3090     0E36  0087               	movwf	7
  3091     0E37  0801               	movf	1,w
  3092     0E38  00F5               	movwf	??_nmea_checksum_ok
  3093     0E39  0875               	movf	??_nmea_checksum_ok,w
  3094     0E3A  06F7               	xorwf	nmea_checksum_ok@cs,f
  3095     0E3B                     l2416:
  3096     0E3B  3001               	movlw	1
  3097     0E3C  07FC               	addwf	nmea_checksum_ok@p,f
  3098     0E3D  3000               	movlw	0
  3099     0E3E  3DFD               	addwfc	nmea_checksum_ok@p+1,f
  3100     0E3F                     l2418:
  3101     0E3F  087C               	movf	nmea_checksum_ok@p,w
  3102     0E40  0086               	movwf	6
  3103     0E41  087D               	movf	nmea_checksum_ok@p+1,w
  3104     0E42  0087               	movwf	7
  3105     0E43  0801               	movf	1,w
  3106     0E44  1903               	btfsc	3,2
  3107     0E45  2E47               	goto	u2781
  3108     0E46  2E48               	goto	u2780
  3109     0E47                     u2781:
  3110     0E47  2E66               	goto	l2426
  3111     0E48                     u2780:
  3112     0E48                     l2420:
  3113     0E48  087C               	movf	nmea_checksum_ok@p,w
  3114     0E49  0086               	movwf	6
  3115     0E4A  087D               	movf	nmea_checksum_ok@p+1,w
  3116     0E4B  0087               	movwf	7
  3117     0E4C  302A               	movlw	42
  3118     0E4D  0601               	xorwf	1,w
  3119     0E4E  1903               	btfsc	3,2
  3120     0E4F  2E51               	goto	u2791
  3121     0E50  2E52               	goto	u2790
  3122     0E51                     u2791:
  3123     0E51  2E66               	goto	l2426
  3124     0E52                     u2790:
  3125     0E52                     l2422:
  3126     0E52  087C               	movf	nmea_checksum_ok@p,w
  3127     0E53  0086               	movwf	6
  3128     0E54  087D               	movf	nmea_checksum_ok@p+1,w
  3129     0E55  0087               	movwf	7
  3130     0E56  300D               	movlw	13
  3131     0E57  0601               	xorwf	1,w
  3132     0E58  1903               	btfsc	3,2
  3133     0E59  2E5B               	goto	u2801
  3134     0E5A  2E5C               	goto	u2800
  3135     0E5B                     u2801:
  3136     0E5B  2E66               	goto	l2426
  3137     0E5C                     u2800:
  3138     0E5C                     l2424:
  3139     0E5C  087C               	movf	nmea_checksum_ok@p,w
  3140     0E5D  0086               	movwf	6
  3141     0E5E  087D               	movf	nmea_checksum_ok@p+1,w
  3142     0E5F  0087               	movwf	7
  3143     0E60  300A               	movlw	10
  3144     0E61  0601               	xorwf	1,w
  3145     0E62  1D03               	btfss	3,2
  3146     0E63  2E65               	goto	u2811
  3147     0E64  2E66               	goto	u2810
  3148     0E65                     u2811:
  3149     0E65  2E33               	goto	l2414
  3150     0E66                     u2810:
  3151     0E66                     l2426:
  3152                           
  3153                           ;main.c: 80:     if (*p != '*') return 0;
  3154     0E66  087C               	movf	nmea_checksum_ok@p,w
  3155     0E67  0086               	movwf	6
  3156     0E68  087D               	movf	nmea_checksum_ok@p+1,w
  3157     0E69  0087               	movwf	7
  3158     0E6A  302A               	movlw	42
  3159     0E6B  0601               	xorwf	1,w
  3160     0E6C  1903               	btfsc	3,2
  3161     0E6D  2E6F               	goto	u2821
  3162     0E6E  2E70               	goto	u2820
  3163     0E6F                     u2821:
  3164     0E6F  2E71               	goto	l2432
  3165     0E70                     u2820:
  3166     0E70  2E29               	goto	l2406
  3167     0E71                     l2432:
  3168                           
  3169                           ;main.c: 81:     int hi = hex_nibble(*(p+1));
  3170     0E71  087C               	movf	nmea_checksum_ok@p,w
  3171     0E72  0086               	movwf	6
  3172     0E73  087D               	movf	nmea_checksum_ok@p+1,w
  3173     0E74  0087               	movwf	7
  3174     0E75  3141               	addfsr 1,1
  3175     0E76  0801               	movf	1,w
  3176     0E77  3189  21E4  318E   	fcall	_hex_nibble
  3177     0E7A  0871               	movf	?_hex_nibble+1,w
  3178     0E7B  00F9               	movwf	nmea_checksum_ok@hi+1
  3179     0E7C  0870               	movf	?_hex_nibble,w
  3180     0E7D  00F8               	movwf	nmea_checksum_ok@hi
  3181                           
  3182                           ;main.c: 82:     int lo = hex_nibble(*(p+2));
  3183     0E7E  087C               	movf	nmea_checksum_ok@p,w
  3184     0E7F  0086               	movwf	6
  3185     0E80  087D               	movf	nmea_checksum_ok@p+1,w
  3186     0E81  0087               	movwf	7
  3187     0E82  3142               	addfsr 1,2
  3188     0E83  0801               	movf	1,w
  3189     0E84  3189  21E4  318E   	fcall	_hex_nibble
  3190     0E87  0871               	movf	?_hex_nibble+1,w
  3191     0E88  00FB               	movwf	nmea_checksum_ok@lo+1
  3192     0E89  0870               	movf	?_hex_nibble,w
  3193     0E8A  00FA               	movwf	nmea_checksum_ok@lo
  3194     0E8B                     l2434:
  3195                           
  3196                           ;main.c: 83:     if (hi < 0 || lo < 0) return 0;
  3197     0E8B  1BF9               	btfsc	nmea_checksum_ok@hi+1,7
  3198     0E8C  2E8E               	goto	u2831
  3199     0E8D  2E8F               	goto	u2830
  3200     0E8E                     u2831:
  3201     0E8E  2E29               	goto	l2406
  3202     0E8F                     u2830:
  3203     0E8F                     l2436:
  3204     0E8F  1FFB               	btfss	nmea_checksum_ok@lo+1,7
  3205     0E90  2E92               	goto	u2841
  3206     0E91  2E93               	goto	u2840
  3207     0E92                     u2841:
  3208     0E92  2E94               	goto	l2442
  3209     0E93                     u2840:
  3210     0E93  2E29               	goto	l2406
  3211     0E94                     l2442:
  3212                           
  3213                           ;main.c: 84:     return (cs == (uint8_t)((hi<<4) | lo));
  3214     0E94  0878               	movf	nmea_checksum_ok@hi,w
  3215     0E95  00F5               	movwf	??_nmea_checksum_ok
  3216     0E96  3004               	movlw	4
  3217     0E97                     u2855:
  3218     0E97  35F5               	lslf	??_nmea_checksum_ok,f
  3219     0E98  0B89               	decfsz	9,f
  3220     0E99  2E97               	goto	u2855
  3221     0E9A  087A               	movf	nmea_checksum_ok@lo,w
  3222     0E9B  0475               	iorwf	??_nmea_checksum_ok,w
  3223     0E9C  00F6               	movwf	??_nmea_checksum_ok+1
  3224     0E9D  0876               	movf	??_nmea_checksum_ok+1,w
  3225     0E9E  0677               	xorwf	nmea_checksum_ok@cs,w
  3226     0E9F  1903               	skipnz
  3227     0EA0  2EA2               	goto	u2861
  3228     0EA1  2EA4               	goto	u2860
  3229     0EA2                     u2861:
  3230     0EA2  3001               	movlw	1
  3231     0EA3  2EA5               	goto	u2870
  3232     0EA4                     u2860:
  3233     0EA4  3000               	movlw	0
  3234     0EA5                     u2870:
  3235     0EA5                     l88:
  3236     0EA5  0008               	return
  3237     0EA6                     __end_of_nmea_checksum_ok:
  3238                           
  3239                           	psect	text4
  3240     09E4                     __ptext4:	
  3241 ;; *************** function _hex_nibble *****************
  3242 ;; Defined at:
  3243 ;;		line 66 in file "main.c"
  3244 ;; Parameters:    Size  Location     Type
  3245 ;;  c               1    wreg     unsigned char 
  3246 ;; Auto vars:     Size  Location     Type
  3247 ;;  c               1    2[COMMON] unsigned char 
  3248 ;; Return value:  Size  Location     Type
  3249 ;;                  2    0[COMMON] int 
  3250 ;; Registers used:
  3251 ;;		wreg
  3252 ;; Tracked objects:
  3253 ;;		On entry : 0/0
  3254 ;;		On exit  : 0/0
  3255 ;;		Unchanged: 0/0
  3256 ;; Data sizes:     COMMON   BANK0   BANK1   BANK2   BANK3   BANK4   BANK5   BANK6   BANK7   BANK8   BANK9  BANK10  BANK1
      +1  BANK12  BANK13  BANK14  BANK15  BANK16  BANK17  BANK18  BANK19  BANK20  BANK21  BANK22  BANK23  BANK24  BANK25
  3257 ;;      Params:         2       0       0       0       0       0       0       0       0       0       0       0       
      +0       0       0       0       0       0       0       0       0       0       0       0       0       0       0
  3258 ;;      Locals:         1       0       0       0       0       0       0       0       0       0       0       0       
      +0       0       0       0       0       0       0       0       0       0       0       0       0       0       0
  3259 ;;      Temps:          0       0       0       0       0       0       0       0       0       0       0       0       
      +0       0       0       0       0       0       0       0       0       0       0       0       0       0       0
  3260 ;;      Totals:         3       0       0       0       0       0       0       0       0       0       0       0       
      +0       0       0       0       0       0       0       0       0       0       0       0       0       0       0
  3261 ;;Total ram usage:        3 bytes
  3262 ;; Hardware stack levels used: 1
  3263 ;; This function calls:
  3264 ;;		Nothing
  3265 ;; This function is called by:
  3266 ;;		_nmea_checksum_ok
  3267 ;; This function uses a non-reentrant model
  3268 ;;
  3269                           
  3270     09E4                     _hex_nibble:	
  3271                           ;psect for function _hex_nibble
  3272                           
  3273                           
  3274                           ;incstack = 0
  3275                           ; Regs used in _hex_nibble: [wreg]
  3276                           ;hex_nibble@c stored from wreg
  3277     09E4  00F2               	movwf	hex_nibble@c
  3278     09E5                     l2176:
  3279                           
  3280                           ;main.c: 66: static int hex_nibble(char c);main.c: 67: {;main.c: 68:     if (c >= '0' &&
      +                           c <= '9') return (int)(c - '0');
  3281     09E5  3030               	movlw	48
  3282     09E6  0272               	subwf	hex_nibble@c,w
  3283     09E7  1C03               	skipc
  3284     09E8  29EA               	goto	u2281
  3285     09E9  29EB               	goto	u2280
  3286     09EA                     u2281:
  3287     09EA  29F9               	goto	l2184
  3288     09EB                     u2280:
  3289     09EB                     l2178:
  3290     09EB  303A               	movlw	58
  3291     09EC  0272               	subwf	hex_nibble@c,w
  3292     09ED  1803               	skipnc
  3293     09EE  29F0               	goto	u2291
  3294     09EF  29F1               	goto	u2290
  3295     09F0                     u2291:
  3296     09F0  29F9               	goto	l2184
  3297     09F1                     u2290:
  3298     09F1                     l2180:
  3299     09F1  0872               	movf	hex_nibble@c,w
  3300     09F2  3ED0               	addlw	208
  3301     09F3  00F0               	movwf	?_hex_nibble
  3302     09F4  30FF               	movlw	255
  3303     09F5  1803               	skipnc
  3304     09F6  3000               	movlw	0
  3305     09F7  00F1               	movwf	?_hex_nibble+1
  3306     09F8  2A25               	goto	l80
  3307     09F9                     l2184:
  3308                           
  3309                           ;main.c: 69:     if (c >= 'A' && c <= 'F') return (int)(c - 'A' + 10);
  3310     09F9  3041               	movlw	65
  3311     09FA  0272               	subwf	hex_nibble@c,w
  3312     09FB  1C03               	skipc
  3313     09FC  29FE               	goto	u2301
  3314     09FD  29FF               	goto	u2300
  3315     09FE                     u2301:
  3316     09FE  2A0D               	goto	l2192
  3317     09FF                     u2300:
  3318     09FF                     l2186:
  3319     09FF  3047               	movlw	71
  3320     0A00  0272               	subwf	hex_nibble@c,w
  3321     0A01  1803               	skipnc
  3322     0A02  2A04               	goto	u2311
  3323     0A03  2A05               	goto	u2310
  3324     0A04                     u2311:
  3325     0A04  2A0D               	goto	l2192
  3326     0A05                     u2310:
  3327     0A05                     l2188:
  3328     0A05  0872               	movf	hex_nibble@c,w
  3329     0A06  3EC9               	addlw	201
  3330     0A07  00F0               	movwf	?_hex_nibble
  3331     0A08  30FF               	movlw	255
  3332     0A09  1803               	skipnc
  3333     0A0A  3000               	movlw	0
  3334     0A0B  00F1               	movwf	?_hex_nibble+1
  3335     0A0C  2A25               	goto	l80
  3336     0A0D                     l2192:
  3337                           
  3338                           ;main.c: 70:     if (c >= 'a' && c <= 'f') return (int)(c - 'a' + 10);
  3339     0A0D  3061               	movlw	97
  3340     0A0E  0272               	subwf	hex_nibble@c,w
  3341     0A0F  1C03               	skipc
  3342     0A10  2A12               	goto	u2321
  3343     0A11  2A13               	goto	u2320
  3344     0A12                     u2321:
  3345     0A12  2A21               	goto	l2200
  3346     0A13                     u2320:
  3347     0A13                     l2194:
  3348     0A13  3067               	movlw	103
  3349     0A14  0272               	subwf	hex_nibble@c,w
  3350     0A15  1803               	skipnc
  3351     0A16  2A18               	goto	u2331
  3352     0A17  2A19               	goto	u2330
  3353     0A18                     u2331:
  3354     0A18  2A21               	goto	l2200
  3355     0A19                     u2330:
  3356     0A19                     l2196:
  3357     0A19  0872               	movf	hex_nibble@c,w
  3358     0A1A  3EA9               	addlw	169
  3359     0A1B  00F0               	movwf	?_hex_nibble
  3360     0A1C  30FF               	movlw	255
  3361     0A1D  1803               	skipnc
  3362     0A1E  3000               	movlw	0
  3363     0A1F  00F1               	movwf	?_hex_nibble+1
  3364     0A20  2A25               	goto	l80
  3365     0A21                     l2200:
  3366                           
  3367                           ;main.c: 71:     return -1;
  3368     0A21  30FF               	movlw	255
  3369     0A22  00F0               	movwf	?_hex_nibble
  3370     0A23  30FF               	movlw	255
  3371     0A24  00F1               	movwf	?_hex_nibble+1
  3372     0A25                     l80:
  3373     0A25  0008               	return
  3374     0A26                     __end_of_hex_nibble:
  3375                           
  3376                           	psect	text5
  3377     0931                     __ptext5:	
  3378 ;; *************** function _initMain *****************
  3379 ;; Defined at:
  3380 ;;		line 301 in file "main.c"
  3381 ;; Parameters:    Size  Location     Type
  3382 ;;		None
  3383 ;; Auto vars:     Size  Location     Type
  3384 ;;		None
  3385 ;; Return value:  Size  Location     Type
  3386 ;;                  1    wreg      void 
  3387 ;; Registers used:
  3388 ;;		wreg, status,2, status,0, pclath, cstack
  3389 ;; Tracked objects:
  3390 ;;		On entry : 0/0
  3391 ;;		On exit  : 0/0
  3392 ;;		Unchanged: 0/0
  3393 ;; Data sizes:     COMMON   BANK0   BANK1   BANK2   BANK3   BANK4   BANK5   BANK6   BANK7   BANK8   BANK9  BANK10  BANK1
      +1  BANK12  BANK13  BANK14  BANK15  BANK16  BANK17  BANK18  BANK19  BANK20  BANK21  BANK22  BANK23  BANK24  BANK25
  3394 ;;      Params:         0       0       0       0       0       0       0       0       0       0       0       0       
      +0       0       0       0       0       0       0       0       0       0       0       0       0       0       0
  3395 ;;      Locals:         0       0       0       0       0       0       0       0       0       0       0       0       
      +0       0       0       0       0       0       0       0       0       0       0       0       0       0       0
  3396 ;;      Temps:          2       0       0       0       0       0       0       0       0       0       0       0       
      +0       0       0       0       0       0       0       0       0       0       0       0       0       0       0
  3397 ;;      Totals:         2       0       0       0       0       0       0       0       0       0       0       0       
      +0       0       0       0       0       0       0       0       0       0       0       0       0       0       0
  3398 ;;Total ram usage:        2 bytes
  3399 ;; Hardware stack levels used: 1
  3400 ;; Hardware stack levels required when called: 1
  3401 ;; This function calls:
  3402 ;;		_internal_32
  3403 ;; This function is called by:
  3404 ;;		_main
  3405 ;; This function uses a non-reentrant model
  3406 ;;
  3407                           
  3408     0931                     _initMain:	
  3409                           ;psect for function _initMain
  3410                           
  3411     0931                     l2624:	
  3412                           ;incstack = 0
  3413                           ; Regs used in _initMain: [wreg+status,2+status,0+pclath+cstack]
  3414                           
  3415                           
  3416                           ;main.c: 303:     internal_32();
  3417     0931  3188  205A  3189   	fcall	_internal_32
  3418     0934                     l2626:
  3419                           
  3420                           ;main.c: 304:     _delay((unsigned long)((100)*(32000000/4000.0)));
  3421     0934  3005               	movlw	5
  3422     0935  00F1               	movwf	??_initMain+1
  3423     0936  300F               	movlw	15
  3424     0937  00F0               	movwf	??_initMain
  3425     0938  30F1               	movlw	241
  3426     0939                     u3487:
  3427     0939  0B89               	decfsz	9,f
  3428     093A  2939               	goto	u3487
  3429     093B  0BF0               	decfsz	??_initMain,f
  3430     093C  2939               	goto	u3487
  3431     093D  0BF1               	decfsz	??_initMain+1,f
  3432     093E  2939               	goto	u3487
  3433     093F  0000               	nop
  3434     0940                     l2628:
  3435                           
  3436                           ;main.c: 307:     TRISBbits.TRISB0 = 1; ANSELBbits.ANSB0 = 0;
  3437     0940  0021               	movlb	1	; select bank1
  3438     0941  140D               	bsf	13,0	;volatile
  3439     0942                     l2630:
  3440     0942  0023               	movlb	3	; select bank3
  3441     0943  100D               	bcf	13,0	;volatile
  3442     0944                     l2632:
  3443                           
  3444                           ;main.c: 308:     TRISBbits.TRISB1 = 0; ANSELBbits.ANSB1 = 0;
  3445     0944  0021               	movlb	1	; select bank1
  3446     0945  108D               	bcf	13,1	;volatile
  3447     0946                     l2634:
  3448     0946  0023               	movlb	3	; select bank3
  3449     0947  108D               	bcf	13,1	;volatile
  3450     0948                     l2636:
  3451                           
  3452                           ;main.c: 309:     LATBbits.LATB1 = 1;
  3453     0948  0022               	movlb	2	; select bank2
  3454     0949  148D               	bsf	13,1	;volatile
  3455     094A                     l2638:
  3456                           
  3457                           ;main.c: 312:     TRISBbits.TRISB2 = 0; ANSELBbits.ANSB2 = 0;
  3458     094A  0021               	movlb	1	; select bank1
  3459     094B  110D               	bcf	13,2	;volatile
  3460     094C                     l2640:
  3461     094C  0023               	movlb	3	; select bank3
  3462     094D  110D               	bcf	13,2	;volatile
  3463     094E                     l2642:
  3464                           
  3465                           ;main.c: 313:     TRISBbits.TRISB3 = 1; ANSELBbits.ANSB3 = 0;
  3466     094E  0021               	movlb	1	; select bank1
  3467     094F  158D               	bsf	13,3	;volatile
  3468     0950                     l2644:
  3469     0950  0023               	movlb	3	; select bank3
  3470     0951  118D               	bcf	13,3	;volatile
  3471     0952                     l2646:
  3472                           
  3473                           ;main.c: 316:     PPSLOCK = 0x55; PPSLOCK = 0xAA; PPSLOCKbits.PPSLOCKED = 0x00;
  3474     0952  3055               	movlw	85
  3475     0953  003C               	movlb	28	; select bank28
  3476     0954  008F               	movwf	15	;volsfr
  3477     0955                     l2648:
  3478     0955  30AA               	movlw	170
  3479     0956  008F               	movwf	15	;volsfr
  3480     0957                     l2650:
  3481     0957  100F               	bcf	15,0	;volsfr
  3482     0958                     l2652:
  3483                           
  3484                           ;main.c: 317:     RB2PPSbits.RB2PPS = 0x14;
  3485     0958  003D               	movlb	29	; select bank29
  3486     0959  081A               	movf	26,w	;volatile
  3487     095A  39E0               	andlw	-32
  3488     095B  3814               	iorlw	20
  3489     095C  009A               	movwf	26	;volatile
  3490     095D                     l2654:
  3491                           
  3492                           ;main.c: 318:     RXPPSbits.RXPPS = 0x0B;
  3493     095D  003C               	movlb	28	; select bank28
  3494     095E  0824               	movf	36,w	;volatile
  3495     095F  39E0               	andlw	-32
  3496     0960  380B               	iorlw	11
  3497     0961  00A4               	movwf	36	;volatile
  3498     0962                     l2656:
  3499                           
  3500                           ;main.c: 319:     PPSLOCK = 0x55; PPSLOCK = 0xAA; PPSLOCKbits.PPSLOCKED = 0x01;
  3501     0962  3055               	movlw	85
  3502     0963  008F               	movwf	15	;volsfr
  3503     0964                     l2658:
  3504     0964  30AA               	movlw	170
  3505     0965  008F               	movwf	15	;volsfr
  3506     0966                     l2660:
  3507     0966  140F               	bsf	15,0	;volsfr
  3508     0967                     l210:
  3509     0967  0008               	return
  3510     0968                     __end_of_initMain:
  3511                           
  3512                           	psect	text6
  3513     085A                     __ptext6:	
  3514 ;; *************** function _internal_32 *****************
  3515 ;; Defined at:
  3516 ;;		line 36 in file "PIC16F1718_Internal.c"
  3517 ;; Parameters:    Size  Location     Type
  3518 ;;		None
  3519 ;; Auto vars:     Size  Location     Type
  3520 ;;		None
  3521 ;; Return value:  Size  Location     Type
  3522 ;;                  1    wreg      void 
  3523 ;; Registers used:
  3524 ;;		None
  3525 ;; Tracked objects:
  3526 ;;		On entry : 0/0
  3527 ;;		On exit  : 0/0
  3528 ;;		Unchanged: 0/0
  3529 ;; Data sizes:     COMMON   BANK0   BANK1   BANK2   BANK3   BANK4   BANK5   BANK6   BANK7   BANK8   BANK9  BANK10  BANK1
      +1  BANK12  BANK13  BANK14  BANK15  BANK16  BANK17  BANK18  BANK19  BANK20  BANK21  BANK22  BANK23  BANK24  BANK25
  3530 ;;      Params:         0       0       0       0       0       0       0       0       0       0       0       0       
      +0       0       0       0       0       0       0       0       0       0       0       0       0       0       0
  3531 ;;      Locals:         0       0       0       0       0       0       0       0       0       0       0       0       
      +0       0       0       0       0       0       0       0       0       0       0       0       0       0       0
  3532 ;;      Temps:          0       0       0       0       0       0       0       0       0       0       0       0       
      +0       0       0       0       0       0       0       0       0       0       0       0       0       0       0
  3533 ;;      Totals:         0       0       0       0       0       0       0       0       0       0       0       0       
      +0       0       0       0       0       0       0       0       0       0       0       0       0       0       0
  3534 ;;Total ram usage:        0 bytes
  3535 ;; Hardware stack levels used: 1
  3536 ;; This function calls:
  3537 ;;		Nothing
  3538 ;; This function is called by:
  3539 ;;		_initMain
  3540 ;; This function uses a non-reentrant model
  3541 ;;
  3542                           
  3543     085A                     _internal_32:	
  3544                           ;psect for function _internal_32
  3545                           
  3546     085A                     l2352:	
  3547                           ;incstack = 0
  3548                           ; Regs used in _internal_32: []
  3549                           
  3550                           
  3551                           ;PIC16F1718_Internal.c: 38:     SCS0 = 0;
  3552     085A  0021               	movlb	1	; select bank1
  3553     085B  1019               	bcf	25,0	;volatile
  3554                           
  3555                           ;PIC16F1718_Internal.c: 39:     SCS1 = 0;
  3556     085C  1099               	bcf	25,1	;volatile
  3557                           
  3558                           ;PIC16F1718_Internal.c: 42:     IRCF0 = 0;
  3559     085D  1199               	bcf	25,3	;volatile
  3560                           
  3561                           ;PIC16F1718_Internal.c: 43:     IRCF1 = 1;
  3562     085E  1619               	bsf	25,4	;volatile
  3563                           
  3564                           ;PIC16F1718_Internal.c: 44:     IRCF2 = 1;
  3565     085F  1699               	bsf	25,5	;volatile
  3566                           
  3567                           ;PIC16F1718_Internal.c: 45:     IRCF3 = 1;
  3568     0860  1719               	bsf	25,6	;volatile
  3569                           
  3570                           ;PIC16F1718_Internal.c: 48:     SPLLEN = 1;
  3571     0861  1799               	bsf	25,7	;volatile
  3572     0862                     l317:
  3573     0862  0008               	return
  3574     0863                     __end_of_internal_32:
  3575                           
  3576                           	psect	text7
  3577     0C61                     __ptext7:	
  3578 ;; *************** function _handle_gga *****************
  3579 ;; Defined at:
  3580 ;;		line 229 in file "main.c"
  3581 ;; Parameters:    Size  Location     Type
  3582 ;;  nmea            2    6[BANK0 ] PTR const unsigned char 
  3583 ;;		 -> line(96), 
  3584 ;; Auto vars:     Size  Location     Type
  3585 ;;  hd              2   11[BANK0 ] unsigned short 
  3586 ;;  sats            1   10[BANK0 ] unsigned char 
  3587 ;;  fixq            1    9[BANK0 ] unsigned char 
  3588 ;;  nf              1    8[BANK0 ] unsigned char 
  3589 ;; Return value:  Size  Location     Type
  3590 ;;                  1    wreg      void 
  3591 ;; Registers used:
  3592 ;;		wreg, fsr0l, fsr0h, fsr1l, fsr1h, status,2, status,0, pclath, cstack
  3593 ;; Tracked objects:
  3594 ;;		On entry : 0/0
  3595 ;;		On exit  : 0/0
  3596 ;;		Unchanged: 0/0
  3597 ;; Data sizes:     COMMON   BANK0   BANK1   BANK2   BANK3   BANK4   BANK5   BANK6   BANK7   BANK8   BANK9  BANK10  BANK1
      +1  BANK12  BANK13  BANK14  BANK15  BANK16  BANK17  BANK18  BANK19  BANK20  BANK21  BANK22  BANK23  BANK24  BANK25
  3598 ;;      Params:         0       2       0       0       0       0       0       0       0       0       0       0       
      +0       0       0       0       0       0       0       0       0       0       0       0       0       0       0
  3599 ;;      Locals:         0       5       0       0       0       0       0       0       0       0       0       0       
      +0       0       0       0       0       0       0       0       0       0       0       0       0       0       0
  3600 ;;      Temps:          0       0       0       0       0       0       0       0       0       0       0       0       
      +0       0       0       0       0       0       0       0       0       0       0       0       0       0       0
  3601 ;;      Totals:         0       7       0       0       0       0       0       0       0       0       0       0       
      +0       0       0       0       0       0       0       0       0       0       0       0       0       0       0
  3602 ;;Total ram usage:        7 bytes
  3603 ;; Hardware stack levels used: 1
  3604 ;; Hardware stack levels required when called: 2
  3605 ;; This function calls:
  3606 ;;		_parse_hdop_x100
  3607 ;;		_parse_u8
  3608 ;;		_split_csv
  3609 ;;		_strncpy
  3610 ;; This function is called by:
  3611 ;;		_main
  3612 ;; This function uses a non-reentrant model
  3613 ;;
  3614                           
  3615     0C61                     _handle_gga:	
  3616                           ;psect for function _handle_gga
  3617                           
  3618     0C61                     l2560:	
  3619                           ;incstack = 0
  3620                           ; Regs used in _handle_gga: [wreg-fsr1h+status,2+status,0+pclath+cstack]
  3621                           
  3622                           
  3623                           ;main.c: 229: static void handle_gga(const char *nmea);main.c: 230: {;main.c: 231:     s
      +                          trncpy(work, nmea, sizeof(work) - 1);
  3624     0C61  3030               	movlw	48
  3625     0C62  00F0               	movwf	strncpy@d
  3626     0C63  3027               	movlw	39
  3627     0C64  00F1               	movwf	strncpy@d+1
  3628     0C65  0020               	movlb	0	; select bank0
  3629     0C66  0827               	movf	handle_gga@nmea+1,w
  3630     0C67  00F3               	movwf	strncpy@s+1
  3631     0C68  0826               	movf	handle_gga@nmea,w
  3632     0C69  00F2               	movwf	strncpy@s
  3633     0C6A  305F               	movlw	95
  3634     0C6B  00F4               	movwf	strncpy@n
  3635     0C6C  3000               	movlw	0
  3636     0C6D  00F5               	movwf	strncpy@n+1
  3637     0C6E  318A  2226  318C   	fcall	_strncpy
  3638     0C71                     l2562:
  3639                           
  3640                           ;main.c: 232:     work[sizeof(work) - 1] = 0;
  3641     0C71  308F               	movlw	143
  3642     0C72  0086               	movwf	6
  3643     0C73  3027               	movlw	39
  3644     0C74  0087               	movwf	7
  3645     0C75  0181               	clrf	1
  3646     0C76                     l2564:
  3647                           
  3648                           ;main.c: 234:     uint8_t nf = split_csv(work, fld, 20);
  3649     0C76  3030               	movlw	48
  3650     0C77  00F0               	movwf	split_csv@s
  3651     0C78  3027               	movlw	39
  3652     0C79  00F1               	movwf	split_csv@s+1
  3653     0C7A  30B0               	movlw	(low (_fld| 0))& (0+255)
  3654     0C7B  00F2               	movwf	split_csv@out
  3655     0C7C  3014               	movlw	20
  3656     0C7D  00F3               	movwf	split_csv@maxf
  3657     0C7E  318D  2534  318C   	fcall	_split_csv
  3658     0C81  0020               	movlb	0	; select bank0
  3659     0C82  00A8               	movwf	handle_gga@nf
  3660     0C83                     l2566:
  3661                           
  3662                           ;main.c: 235:     if (nf < 9) return;
  3663     0C83  3009               	movlw	9
  3664     0C84  0228               	subwf	handle_gga@nf,w
  3665     0C85  1803               	skipnc
  3666     0C86  2C88               	goto	u3031
  3667     0C87  2C89               	goto	u3030
  3668     0C88                     u3031:
  3669     0C88  2C8A               	goto	l2570
  3670     0C89                     u3030:
  3671     0C89  2CC9               	goto	l185
  3672     0C8A                     l2570:
  3673                           
  3674                           ;main.c: 237:     uint8_t fixq = 0, sats = 0;
  3675     0C8A  01A9               	clrf	handle_gga@fixq
  3676     0C8B  01AA               	clrf	handle_gga@sats
  3677                           
  3678                           ;main.c: 238:     uint16_t hd = 0;
  3679     0C8C  01AB               	clrf	handle_gga@hd
  3680     0C8D  01AC               	clrf	handle_gga@hd+1
  3681     0C8E                     l2572:
  3682                           
  3683                           ;main.c: 240:     if (!parse_u8(fld[6], &fixq)) return;
  3684     0C8E  0021               	movlb	1	; select bank1
  3685     0C8F  083D               	movf	((low ((_fld| 0+12))+1))^(0+128),w
  3686     0C90  00F7               	movwf	parse_u8@s+1
  3687     0C91  083C               	movf	(low ((_fld| 0+12)))^(0+128),w
  3688     0C92  00F6               	movwf	parse_u8@s
  3689     0C93  3029               	movlw	(low (handle_gga@fixq| 0))& (0+255)
  3690     0C94  00F8               	movwf	parse_u8@out
  3691     0C95  318A  22B6  318C   	fcall	_parse_u8
  3692     0C98  3A00               	xorlw	0
  3693     0C99  1D03               	skipz
  3694     0C9A  2C9C               	goto	u3041
  3695     0C9B  2C9D               	goto	u3040
  3696     0C9C                     u3041:
  3697     0C9C  2C9E               	goto	l2576
  3698     0C9D                     u3040:
  3699     0C9D  2CC9               	goto	l185
  3700     0C9E                     l2576:
  3701                           
  3702                           ;main.c: 241:     if (!parse_u8(fld[7], &sats)) return;
  3703     0C9E  0021               	movlb	1	; select bank1
  3704     0C9F  083F               	movf	((low ((_fld| 0+14))+1))^(0+128),w
  3705     0CA0  00F7               	movwf	parse_u8@s+1
  3706     0CA1  083E               	movf	(low ((_fld| 0+14)))^(0+128),w
  3707     0CA2  00F6               	movwf	parse_u8@s
  3708     0CA3  302A               	movlw	(low (handle_gga@sats| 0))& (0+255)
  3709     0CA4  00F8               	movwf	parse_u8@out
  3710     0CA5  318A  22B6  318C   	fcall	_parse_u8
  3711     0CA8  3A00               	xorlw	0
  3712     0CA9  1D03               	skipz
  3713     0CAA  2CAC               	goto	u3051
  3714     0CAB  2CAD               	goto	u3050
  3715     0CAC                     u3051:
  3716     0CAC  2CAE               	goto	l2580
  3717     0CAD                     u3050:
  3718     0CAD  2CC9               	goto	l185
  3719     0CAE                     l2580:
  3720                           
  3721                           ;main.c: 242:     if (!parse_hdop_x100(fld[8], &hd)) return;
  3722     0CAE  0021               	movlb	1	; select bank1
  3723     0CAF  0841               	movf	((low ((_fld| 0+16))+1))^(0+128),w
  3724     0CB0  00F7               	movwf	parse_hdop_x100@s+1
  3725     0CB1  0840               	movf	(low ((_fld| 0+16)))^(0+128),w
  3726     0CB2  00F6               	movwf	parse_hdop_x100@s
  3727     0CB3  302B               	movlw	(low (handle_gga@hd| 0))& (0+255)
  3728     0CB4  00F8               	movwf	parse_hdop_x100@out
  3729     0CB5  3182  229E  318C   	fcall	_parse_hdop_x100
  3730     0CB8  3A00               	xorlw	0
  3731     0CB9  1D03               	skipz
  3732     0CBA  2CBC               	goto	u3061
  3733     0CBB  2CBD               	goto	u3060
  3734     0CBC                     u3061:
  3735     0CBC  2CBE               	goto	l2584
  3736     0CBD                     u3060:
  3737     0CBD  2CC9               	goto	l185
  3738     0CBE                     l2584:
  3739                           
  3740                           ;main.c: 244:     gga_fixq = fixq;
  3741     0CBE  0020               	movlb	0	; select bank0
  3742     0CBF  0829               	movf	handle_gga@fixq,w
  3743     0CC0  00ED               	movwf	_gga_fixq	;volatile
  3744                           
  3745                           ;main.c: 245:     gga_sats = sats;
  3746     0CC1  082A               	movf	handle_gga@sats,w
  3747     0CC2  00EC               	movwf	_gga_sats	;volatile
  3748                           
  3749                           ;main.c: 246:     gga_hdop_x100 = hd;
  3750     0CC3  082C               	movf	handle_gga@hd+1,w
  3751     0CC4  00EF               	movwf	_gga_hdop_x100+1	;volatile
  3752     0CC5  082B               	movf	handle_gga@hd,w
  3753     0CC6  00EE               	movwf	_gga_hdop_x100	;volatile
  3754                           
  3755                           ;main.c: 247:     gga_seen = 1;
  3756     0CC7  3001               	movlw	1
  3757     0CC8  00EB               	movwf	_gga_seen	;volatile
  3758     0CC9                     l185:
  3759     0CC9  0008               	return
  3760     0CCA                     __end_of_handle_gga:
  3761                           
  3762                           	psect	text8
  3763     0A26                     __ptext8:	
  3764 ;; *************** function _strncpy *****************
  3765 ;; Defined at:
  3766 ;;		line 3 in file "C:\Program Files\Microchip\xc8\v2.46\pic\sources\c99\common\strncpy.c"
  3767 ;; Parameters:    Size  Location     Type
  3768 ;;  d               2    0[COMMON] PTR unsigned char 
  3769 ;;		 -> work(96), 
  3770 ;;  s               2    2[COMMON] PTR const unsigned char 
  3771 ;;		 -> line(96), 
  3772 ;;  n               2    4[COMMON] unsigned int 
  3773 ;; Auto vars:     Size  Location     Type
  3774 ;;  cp              2   10[COMMON] PTR unsigned char 
  3775 ;;		 -> work(96), 
  3776 ;; Return value:  Size  Location     Type
  3777 ;;                  2    0[COMMON] PTR unsigned char 
  3778 ;; Registers used:
  3779 ;;		wreg, fsr0l, fsr0h, fsr1l, fsr1h, status,2, status,0
  3780 ;; Tracked objects:
  3781 ;;		On entry : 0/0
  3782 ;;		On exit  : 0/0
  3783 ;;		Unchanged: 0/0
  3784 ;; Data sizes:     COMMON   BANK0   BANK1   BANK2   BANK3   BANK4   BANK5   BANK6   BANK7   BANK8   BANK9  BANK10  BANK1
      +1  BANK12  BANK13  BANK14  BANK15  BANK16  BANK17  BANK18  BANK19  BANK20  BANK21  BANK22  BANK23  BANK24  BANK25
  3785 ;;      Params:         6       0       0       0       0       0       0       0       0       0       0       0       
      +0       0       0       0       0       0       0       0       0       0       0       0       0       0       0
  3786 ;;      Locals:         2       0       0       0       0       0       0       0       0       0       0       0       
      +0       0       0       0       0       0       0       0       0       0       0       0       0       0       0
  3787 ;;      Temps:          4       0       0       0       0       0       0       0       0       0       0       0       
      +0       0       0       0       0       0       0       0       0       0       0       0       0       0       0
  3788 ;;      Totals:        12       0       0       0       0       0       0       0       0       0       0       0       
      +0       0       0       0       0       0       0       0       0       0       0       0       0       0       0
  3789 ;;Total ram usage:       12 bytes
  3790 ;; Hardware stack levels used: 1
  3791 ;; This function calls:
  3792 ;;		Nothing
  3793 ;; This function is called by:
  3794 ;;		_handle_gga
  3795 ;;		_main
  3796 ;; This function uses a non-reentrant model
  3797 ;;
  3798                           
  3799     0A26                     _strncpy:	
  3800                           ;psect for function _strncpy
  3801                           
  3802     0A26                     l2332:	
  3803                           ;incstack = 0
  3804                           ; Regs used in _strncpy: [wreg-fsr1h+status,2+status,0]
  3805                           
  3806     0A26  0871               	movf	strncpy@d+1,w
  3807     0A27  00FB               	movwf	strncpy@cp+1
  3808     0A28  0870               	movf	strncpy@d,w
  3809     0A29  00FA               	movwf	strncpy@cp
  3810     0A2A  2A4D               	goto	l2340
  3811     0A2B                     l2334:
  3812     0A2B  3001               	movlw	1
  3813     0A2C  02F4               	subwf	strncpy@n,f
  3814     0A2D  3000               	movlw	0
  3815     0A2E  3BF5               	subwfb	strncpy@n+1,f
  3816     0A2F                     l2336:
  3817     0A2F  087B               	movf	strncpy@cp+1,w
  3818     0A30  00F7               	movwf	??_strncpy+1
  3819     0A31  087A               	movf	strncpy@cp,w
  3820     0A32  00F6               	movwf	??_strncpy
  3821     0A33  0AFA               	incf	strncpy@cp,f
  3822     0A34  1903               	skipnz
  3823     0A35  0AFB               	incf	strncpy@cp+1,f
  3824     0A36  0876               	movf	??_strncpy,w
  3825     0A37  0086               	movwf	6
  3826     0A38  0877               	movf	??_strncpy+1,w
  3827     0A39  0087               	movwf	7
  3828     0A3A  0873               	movf	strncpy@s+1,w
  3829     0A3B  00F9               	movwf	??_strncpy+3
  3830     0A3C  0872               	movf	strncpy@s,w
  3831     0A3D  00F8               	movwf	??_strncpy+2
  3832     0A3E  0AF2               	incf	strncpy@s,f
  3833     0A3F  1903               	skipnz
  3834     0A40  0AF3               	incf	strncpy@s+1,f
  3835     0A41  0878               	movf	??_strncpy+2,w
  3836     0A42  0084               	movwf	4
  3837     0A43  0879               	movf	??_strncpy+3,w
  3838     0A44  0085               	movwf	5
  3839     0A45  0800               	movf	0,w
  3840     0A46  3FC0               	movwi [0]fsr1
  3841     0A47  0889               	movf	9,f
  3842     0A48  1D03               	btfss	3,2
  3843     0A49  2A4B               	goto	u2571
  3844     0A4A  2A4C               	goto	u2570
  3845     0A4B                     u2571:
  3846     0A4B  2A4D               	goto	l2340
  3847     0A4C                     u2570:
  3848     0A4C  2A5D               	goto	l2346
  3849     0A4D                     l2340:
  3850     0A4D  0874               	movf	strncpy@n,w
  3851     0A4E  0475               	iorwf	strncpy@n+1,w
  3852     0A4F  1D03               	btfss	3,2
  3853     0A50  2A52               	goto	u2581
  3854     0A51  2A53               	goto	u2580
  3855     0A52                     u2581:
  3856     0A52  2A2B               	goto	l2334
  3857     0A53                     u2580:
  3858     0A53  2A5D               	goto	l2346
  3859     0A54                     l2342:
  3860     0A54  087A               	movf	strncpy@cp,w
  3861     0A55  0086               	movwf	6
  3862     0A56  087B               	movf	strncpy@cp+1,w
  3863     0A57  0087               	movwf	7
  3864     0A58  0181               	clrf	1
  3865     0A59                     l2344:
  3866     0A59  3001               	movlw	1
  3867     0A5A  07FA               	addwf	strncpy@cp,f
  3868     0A5B  3000               	movlw	0
  3869     0A5C  3DFB               	addwfc	strncpy@cp+1,f
  3870     0A5D                     l2346:
  3871     0A5D  3001               	movlw	1
  3872     0A5E  02F4               	subwf	strncpy@n,f
  3873     0A5F  3000               	movlw	0
  3874     0A60  3BF5               	subwfb	strncpy@n+1,f
  3875     0A61  0A74               	incf	strncpy@n,w
  3876     0A62  1D03               	skipz
  3877     0A63  2A68               	goto	u2591
  3878     0A64  0A75               	incf	strncpy@n+1,w
  3879     0A65  1D03               	btfss	3,2
  3880     0A66  2A68               	goto	u2591
  3881     0A67  2A69               	goto	u2590
  3882     0A68                     u2591:
  3883     0A68  2A54               	goto	l2342
  3884     0A69                     u2590:
  3885     0A69                     l934:
  3886     0A69  0008               	return
  3887     0A6A                     __end_of_strncpy:
  3888                           
  3889                           	psect	text9
  3890     0D34                     __ptext9:	
  3891 ;; *************** function _split_csv *****************
  3892 ;; Defined at:
  3893 ;;		line 117 in file "main.c"
  3894 ;; Parameters:    Size  Location     Type
  3895 ;;  s               2    0[COMMON] PTR unsigned char 
  3896 ;;		 -> work(96), 
  3897 ;;  out             1    2[COMMON] PTR PTR unsigned char 
  3898 ;;		 -> fld(40), 
  3899 ;;  maxf            1    3[COMMON] unsigned char 
  3900 ;; Auto vars:     Size  Location     Type
  3901 ;;  p               2    8[COMMON] PTR unsigned char 
  3902 ;;		 -> work(96), 
  3903 ;;  n               1    7[COMMON] unsigned char 
  3904 ;; Return value:  Size  Location     Type
  3905 ;;                  1    wreg      unsigned char 
  3906 ;; Registers used:
  3907 ;;		wreg, fsr1l, fsr1h, status,2, status,0
  3908 ;; Tracked objects:
  3909 ;;		On entry : 0/0
  3910 ;;		On exit  : 0/0
  3911 ;;		Unchanged: 0/0
  3912 ;; Data sizes:     COMMON   BANK0   BANK1   BANK2   BANK3   BANK4   BANK5   BANK6   BANK7   BANK8   BANK9  BANK10  BANK1
      +1  BANK12  BANK13  BANK14  BANK15  BANK16  BANK17  BANK18  BANK19  BANK20  BANK21  BANK22  BANK23  BANK24  BANK25
  3913 ;;      Params:         4       0       0       0       0       0       0       0       0       0       0       0       
      +0       0       0       0       0       0       0       0       0       0       0       0       0       0       0
  3914 ;;      Locals:         3       0       0       0       0       0       0       0       0       0       0       0       
      +0       0       0       0       0       0       0       0       0       0       0       0       0       0       0
  3915 ;;      Temps:          3       0       0       0       0       0       0       0       0       0       0       0       
      +0       0       0       0       0       0       0       0       0       0       0       0       0       0       0
  3916 ;;      Totals:        10       0       0       0       0       0       0       0       0       0       0       0       
      +0       0       0       0       0       0       0       0       0       0       0       0       0       0       0
  3917 ;;Total ram usage:       10 bytes
  3918 ;; Hardware stack levels used: 1
  3919 ;; This function calls:
  3920 ;;		Nothing
  3921 ;; This function is called by:
  3922 ;;		_handle_gga
  3923 ;;		_main
  3924 ;; This function uses a non-reentrant model
  3925 ;;
  3926                           
  3927     0D34                     _split_csv:	
  3928                           ;psect for function _split_csv
  3929                           
  3930     0D34                     l2212:	
  3931                           ;incstack = 0
  3932                           ; Regs used in _split_csv: [wreg+fsr1l+fsr1h+status,2+status,0]
  3933                           
  3934                           
  3935                           ;main.c: 117: static uint8_t split_csv(char *s, char *out[], uint8_t maxf);main.c: 118: 
      +                          {;main.c: 119:     uint8_t n = 0;
  3936     0D34  01F7               	clrf	split_csv@n
  3937     0D35                     l2214:
  3938                           
  3939                           ;main.c: 120:     if (!s || !*s) return 0;
  3940     0D35  0870               	movf	split_csv@s,w
  3941     0D36  0471               	iorwf	split_csv@s+1,w
  3942     0D37  1903               	btfsc	3,2
  3943     0D38  2D3A               	goto	u2361
  3944     0D39  2D3B               	goto	u2360
  3945     0D3A                     u2361:
  3946     0D3A  2D44               	goto	l2218
  3947     0D3B                     u2360:
  3948     0D3B                     l2216:
  3949     0D3B  0870               	movf	split_csv@s,w
  3950     0D3C  0086               	movwf	6
  3951     0D3D  0871               	movf	split_csv@s+1,w
  3952     0D3E  0087               	movwf	7
  3953     0D3F  0801               	movf	1,w
  3954     0D40  1D03               	btfss	3,2
  3955     0D41  2D43               	goto	u2371
  3956     0D42  2D44               	goto	u2370
  3957     0D43                     u2371:
  3958     0D43  2D46               	goto	l2222
  3959     0D44                     u2370:
  3960     0D44                     l2218:
  3961     0D44  3000               	movlw	0
  3962     0D45  2D9D               	goto	l114
  3963     0D46                     l2222:
  3964                           
  3965                           ;main.c: 121:     out[n++] = s;
  3966     0D46  0872               	movf	split_csv@out,w
  3967     0D47  0086               	movwf	6
  3968     0D48  0187               	clrf	7
  3969     0D49  0870               	movf	split_csv@s,w
  3970     0D4A  3FC0               	movwi [0]fsr1
  3971     0D4B  0871               	movf	split_csv@s+1,w
  3972     0D4C  3FC1               	movwi [1]fsr1
  3973     0D4D                     l2224:
  3974     0D4D  3001               	movlw	1
  3975     0D4E  00F4               	movwf	??_split_csv
  3976     0D4F  0874               	movf	??_split_csv,w
  3977     0D50  07F7               	addwf	split_csv@n,f
  3978     0D51                     l2226:
  3979                           
  3980                           ;main.c: 123:     for (char *p = s; *p && n < maxf; ++p) {
  3981     0D51  0871               	movf	split_csv@s+1,w
  3982     0D52  00F9               	movwf	split_csv@p+1
  3983     0D53  0870               	movf	split_csv@s,w
  3984     0D54  00F8               	movwf	split_csv@p
  3985     0D55  2D8D               	goto	l2242
  3986     0D56                     l2228:
  3987                           
  3988                           ;main.c: 124:         if (*p == ',') { *p = 0; out[n++] = p + 1; }
  3989     0D56  0878               	movf	split_csv@p,w
  3990     0D57  0086               	movwf	6
  3991     0D58  0879               	movf	split_csv@p+1,w
  3992     0D59  0087               	movwf	7
  3993     0D5A  302C               	movlw	44
  3994     0D5B  0601               	xorwf	1,w
  3995     0D5C  1D03               	btfss	3,2
  3996     0D5D  2D5F               	goto	u2381
  3997     0D5E  2D60               	goto	u2380
  3998     0D5F                     u2381:
  3999     0D5F  2D79               	goto	l2236
  4000     0D60                     u2380:
  4001     0D60                     l2230:
  4002     0D60  0878               	movf	split_csv@p,w
  4003     0D61  0086               	movwf	6
  4004     0D62  0879               	movf	split_csv@p+1,w
  4005     0D63  0087               	movwf	7
  4006     0D64  0181               	clrf	1
  4007     0D65                     l2232:
  4008     0D65  0878               	movf	split_csv@p,w
  4009     0D66  3E01               	addlw	1
  4010     0D67  00F4               	movwf	??_split_csv
  4011     0D68  3000               	movlw	0
  4012     0D69  3D79               	addwfc	split_csv@p+1,w
  4013     0D6A  00F5               	movwf	??_split_csv+1
  4014     0D6B  3577               	lslf	split_csv@n,w
  4015     0D6C  0772               	addwf	split_csv@out,w
  4016     0D6D  00F6               	movwf	??_split_csv+2
  4017     0D6E  0876               	movf	??_split_csv+2,w
  4018     0D6F  0086               	movwf	6
  4019     0D70  0187               	clrf	7
  4020     0D71  0874               	movf	??_split_csv,w
  4021     0D72  3FC0               	movwi [0]fsr1
  4022     0D73  0875               	movf	??_split_csv+1,w
  4023     0D74  3FC1               	movwi [1]fsr1
  4024     0D75                     l2234:
  4025     0D75  3001               	movlw	1
  4026     0D76  00F4               	movwf	??_split_csv
  4027     0D77  0874               	movf	??_split_csv,w
  4028     0D78  07F7               	addwf	split_csv@n,f
  4029     0D79                     l2236:
  4030                           
  4031                           ;main.c: 125:         if (*p == '*') { *p = 0; break; }
  4032     0D79  0878               	movf	split_csv@p,w
  4033     0D7A  0086               	movwf	6
  4034     0D7B  0879               	movf	split_csv@p+1,w
  4035     0D7C  0087               	movwf	7
  4036     0D7D  302A               	movlw	42
  4037     0D7E  0601               	xorwf	1,w
  4038     0D7F  1D03               	btfss	3,2
  4039     0D80  2D82               	goto	u2391
  4040     0D81  2D83               	goto	u2390
  4041     0D82                     u2391:
  4042     0D82  2D89               	goto	l2240
  4043     0D83                     u2390:
  4044     0D83                     l2238:
  4045     0D83  0878               	movf	split_csv@p,w
  4046     0D84  0086               	movwf	6
  4047     0D85  0879               	movf	split_csv@p+1,w
  4048     0D86  0087               	movwf	7
  4049     0D87  0181               	clrf	1
  4050     0D88  2D9C               	goto	l2246
  4051     0D89                     l2240:
  4052                           
  4053                           ;main.c: 126:     }
  4054     0D89  3001               	movlw	1
  4055     0D8A  07F8               	addwf	split_csv@p,f
  4056     0D8B  3000               	movlw	0
  4057     0D8C  3DF9               	addwfc	split_csv@p+1,f
  4058     0D8D                     l2242:
  4059     0D8D  0878               	movf	split_csv@p,w
  4060     0D8E  0086               	movwf	6
  4061     0D8F  0879               	movf	split_csv@p+1,w
  4062     0D90  0087               	movwf	7
  4063     0D91  0801               	movf	1,w
  4064     0D92  1903               	btfsc	3,2
  4065     0D93  2D95               	goto	u2401
  4066     0D94  2D96               	goto	u2400
  4067     0D95                     u2401:
  4068     0D95  2D9C               	goto	l2246
  4069     0D96                     u2400:
  4070     0D96                     l2244:
  4071     0D96  0873               	movf	split_csv@maxf,w
  4072     0D97  0277               	subwf	split_csv@n,w
  4073     0D98  1C03               	skipc
  4074     0D99  2D9B               	goto	u2411
  4075     0D9A  2D9C               	goto	u2410
  4076     0D9B                     u2411:
  4077     0D9B  2D56               	goto	l2228
  4078     0D9C                     u2410:
  4079     0D9C                     l2246:
  4080                           
  4081                           ;main.c: 127:     return n;
  4082     0D9C  0877               	movf	split_csv@n,w
  4083     0D9D                     l114:
  4084     0D9D  0008               	return
  4085     0D9E                     __end_of_split_csv:
  4086                           
  4087                           	psect	text10
  4088     0AB6                     __ptext10:	
  4089 ;; *************** function _parse_u8 *****************
  4090 ;; Defined at:
  4091 ;;		line 131 in file "main.c"
  4092 ;; Parameters:    Size  Location     Type
  4093 ;;  s               2    6[COMMON] PTR const unsigned char 
  4094 ;;		 -> work(96), 
  4095 ;;  out             1    8[COMMON] PTR unsigned char 
  4096 ;;		 -> handle_gga@sats(1), handle_gga@fixq(1), 
  4097 ;; Auto vars:     Size  Location     Type
  4098 ;;  v               2   11[COMMON] unsigned short 
  4099 ;; Return value:  Size  Location     Type
  4100 ;;                  1    wreg      unsigned char 
  4101 ;; Registers used:
  4102 ;;		wreg, fsr1l, fsr1h, status,2, status,0, pclath, cstack
  4103 ;; Tracked objects:
  4104 ;;		On entry : 0/0
  4105 ;;		On exit  : 0/0
  4106 ;;		Unchanged: 0/0
  4107 ;; Data sizes:     COMMON   BANK0   BANK1   BANK2   BANK3   BANK4   BANK5   BANK6   BANK7   BANK8   BANK9  BANK10  BANK1
      +1  BANK12  BANK13  BANK14  BANK15  BANK16  BANK17  BANK18  BANK19  BANK20  BANK21  BANK22  BANK23  BANK24  BANK25
  4108 ;;      Params:         3       0       0       0       0       0       0       0       0       0       0       0       
      +0       0       0       0       0       0       0       0       0       0       0       0       0       0       0
  4109 ;;      Locals:         2       0       0       0       0       0       0       0       0       0       0       0       
      +0       0       0       0       0       0       0       0       0       0       0       0       0       0       0
  4110 ;;      Temps:          2       0       0       0       0       0       0       0       0       0       0       0       
      +0       0       0       0       0       0       0       0       0       0       0       0       0       0       0
  4111 ;;      Totals:         7       0       0       0       0       0       0       0       0       0       0       0       
      +0       0       0       0       0       0       0       0       0       0       0       0       0       0       0
  4112 ;;Total ram usage:        7 bytes
  4113 ;; Hardware stack levels used: 1
  4114 ;; Hardware stack levels required when called: 1
  4115 ;; This function calls:
  4116 ;;		___wmul
  4117 ;; This function is called by:
  4118 ;;		_handle_gga
  4119 ;; This function uses a non-reentrant model
  4120 ;;
  4121                           
  4122     0AB6                     _parse_u8:	
  4123                           ;psect for function _parse_u8
  4124                           
  4125     0AB6                     l2250:	
  4126                           ;incstack = 0
  4127                           ; Regs used in _parse_u8: [wreg+fsr1l+fsr1h+status,2+status,0+pclath+cstack]
  4128                           
  4129                           
  4130                           ;main.c: 131: static uint8_t parse_u8(const char *s, uint8_t *out);main.c: 132: {;main.c
      +                          : 133:     if (!s || !*s) return 0;
  4131     0AB6  0876               	movf	parse_u8@s,w
  4132     0AB7  0477               	iorwf	parse_u8@s+1,w
  4133     0AB8  1903               	btfsc	3,2
  4134     0AB9  2ABB               	goto	u2421
  4135     0ABA  2ABC               	goto	u2420
  4136     0ABB                     u2421:
  4137     0ABB  2AC5               	goto	l2254
  4138     0ABC                     u2420:
  4139     0ABC                     l2252:
  4140     0ABC  0876               	movf	parse_u8@s,w
  4141     0ABD  0086               	movwf	6
  4142     0ABE  0877               	movf	parse_u8@s+1,w
  4143     0ABF  0087               	movwf	7
  4144     0AC0  0801               	movf	1,w
  4145     0AC1  1D03               	btfss	3,2
  4146     0AC2  2AC4               	goto	u2431
  4147     0AC3  2AC5               	goto	u2430
  4148     0AC4                     u2431:
  4149     0AC4  2AC7               	goto	l2258
  4150     0AC5                     u2430:
  4151     0AC5                     l2254:
  4152     0AC5  3000               	movlw	0
  4153     0AC6  2B03               	goto	l127
  4154     0AC7                     l2258:
  4155                           
  4156                           ;main.c: 134:     uint16_t v = 0;
  4157     0AC7  01FB               	clrf	parse_u8@v
  4158     0AC8  01FC               	clrf	parse_u8@v+1
  4159                           
  4160                           ;main.c: 135:     while (*s && (((unsigned char)(((unsigned char)*s)-'0')) < 10)) {
  4161     0AC9  2AE7               	goto	l2264
  4162     0ACA                     l2260:
  4163                           
  4164                           ;main.c: 136:         v = (uint16_t)(v * 10 + (uint8_t)(*s - '0'));
  4165     0ACA  0876               	movf	parse_u8@s,w
  4166     0ACB  0086               	movwf	6
  4167     0ACC  0877               	movf	parse_u8@s+1,w
  4168     0ACD  0087               	movwf	7
  4169     0ACE  0801               	movf	1,w
  4170     0ACF  3ED0               	addlw	208
  4171     0AD0  00F9               	movwf	??_parse_u8
  4172     0AD1  01FA               	clrf	??_parse_u8+1
  4173     0AD2  087C               	movf	parse_u8@v+1,w
  4174     0AD3  00F1               	movwf	___wmul@multiplier+1
  4175     0AD4  087B               	movf	parse_u8@v,w
  4176     0AD5  00F0               	movwf	___wmul@multiplier
  4177     0AD6  300A               	movlw	10
  4178     0AD7  00F2               	movwf	___wmul@multiplicand
  4179     0AD8  3000               	movlw	0
  4180     0AD9  00F3               	movwf	___wmul@multiplicand+1
  4181     0ADA  3188  20BD  318A   	fcall	___wmul
  4182     0ADD  0879               	movf	??_parse_u8,w
  4183     0ADE  0770               	addwf	?___wmul,w
  4184     0ADF  00FB               	movwf	parse_u8@v
  4185     0AE0  087A               	movf	??_parse_u8+1,w
  4186     0AE1  3D71               	addwfc	?___wmul+1,w
  4187     0AE2  00FC               	movwf	parse_u8@v+1
  4188     0AE3                     l2262:
  4189                           
  4190                           ;main.c: 137:         s++;
  4191     0AE3  3001               	movlw	1
  4192     0AE4  07F6               	addwf	parse_u8@s,f
  4193     0AE5  3000               	movlw	0
  4194     0AE6  3DF7               	addwfc	parse_u8@s+1,f
  4195     0AE7                     l2264:
  4196                           
  4197                           ;main.c: 135:     while (*s && (((unsigned char)(((unsigned char)*s)-'0')) < 10)) {
  4198     0AE7  0876               	movf	parse_u8@s,w
  4199     0AE8  0086               	movwf	6
  4200     0AE9  0877               	movf	parse_u8@s+1,w
  4201     0AEA  0087               	movwf	7
  4202     0AEB  0801               	movf	1,w
  4203     0AEC  1903               	btfsc	3,2
  4204     0AED  2AEF               	goto	u2441
  4205     0AEE  2AF0               	goto	u2440
  4206     0AEF                     u2441:
  4207     0AEF  2AFD               	goto	l2268
  4208     0AF0                     u2440:
  4209     0AF0                     l2266:
  4210     0AF0  0876               	movf	parse_u8@s,w
  4211     0AF1  0086               	movwf	6
  4212     0AF2  0877               	movf	parse_u8@s+1,w
  4213     0AF3  0087               	movwf	7
  4214     0AF4  30D0               	movlw	208
  4215     0AF5  0701               	addwf	1,w
  4216     0AF6  00F9               	movwf	??_parse_u8
  4217     0AF7  300A               	movlw	10
  4218     0AF8  0279               	subwf	??_parse_u8,w
  4219     0AF9  1C03               	skipc
  4220     0AFA  2AFC               	goto	u2451
  4221     0AFB  2AFD               	goto	u2450
  4222     0AFC                     u2451:
  4223     0AFC  2ACA               	goto	l2260
  4224     0AFD                     u2450:
  4225     0AFD                     l2268:
  4226                           
  4227                           ;main.c: 139:     *out = (uint8_t)v;
  4228     0AFD  0878               	movf	parse_u8@out,w
  4229     0AFE  0086               	movwf	6
  4230     0AFF  0187               	clrf	7
  4231     0B00  087B               	movf	parse_u8@v,w
  4232     0B01  0081               	movwf	1
  4233     0B02                     l2270:
  4234                           
  4235                           ;main.c: 140:     return 1;
  4236     0B02  3001               	movlw	1
  4237     0B03                     l127:
  4238     0B03  0008               	return
  4239     0B04                     __end_of_parse_u8:
  4240                           
  4241                           	psect	text11
  4242     029E                     __ptext11:	
  4243 ;; *************** function _parse_hdop_x100 *****************
  4244 ;; Defined at:
  4245 ;;		line 145 in file "main.c"
  4246 ;; Parameters:    Size  Location     Type
  4247 ;;  s               2    6[COMMON] PTR const unsigned char 
  4248 ;;		 -> work(96), 
  4249 ;;  out             1    8[COMMON] PTR unsigned short 
  4250 ;;		 -> handle_gga@hd(2), 
  4251 ;; Auto vars:     Size  Location     Type
  4252 ;;  frac_scale      2    4[BANK0 ] unsigned short 
  4253 ;;  frac            2    2[BANK0 ] unsigned short 
  4254 ;;  whole           2    0[BANK0 ] unsigned short 
  4255 ;; Return value:  Size  Location     Type
  4256 ;;                  1    wreg      unsigned char 
  4257 ;; Registers used:
  4258 ;;		wreg, fsr1l, fsr1h, status,2, status,0, pclath, cstack
  4259 ;; Tracked objects:
  4260 ;;		On entry : 0/0
  4261 ;;		On exit  : 0/0
  4262 ;;		Unchanged: 0/0
  4263 ;; Data sizes:     COMMON   BANK0   BANK1   BANK2   BANK3   BANK4   BANK5   BANK6   BANK7   BANK8   BANK9  BANK10  BANK1
      +1  BANK12  BANK13  BANK14  BANK15  BANK16  BANK17  BANK18  BANK19  BANK20  BANK21  BANK22  BANK23  BANK24  BANK25
  4264 ;;      Params:         3       0       0       0       0       0       0       0       0       0       0       0       
      +0       0       0       0       0       0       0       0       0       0       0       0       0       0       0
  4265 ;;      Locals:         0       6       0       0       0       0       0       0       0       0       0       0       
      +0       0       0       0       0       0       0       0       0       0       0       0       0       0       0
  4266 ;;      Temps:          4       0       0       0       0       0       0       0       0       0       0       0       
      +0       0       0       0       0       0       0       0       0       0       0       0       0       0       0
  4267 ;;      Totals:         7       6       0       0       0       0       0       0       0       0       0       0       
      +0       0       0       0       0       0       0       0       0       0       0       0       0       0       0
  4268 ;;Total ram usage:       13 bytes
  4269 ;; Hardware stack levels used: 1
  4270 ;; Hardware stack levels required when called: 1
  4271 ;; This function calls:
  4272 ;;		___wmul
  4273 ;; This function is called by:
  4274 ;;		_handle_gga
  4275 ;; This function uses a non-reentrant model
  4276 ;;
  4277                           
  4278     029E                     _parse_hdop_x100:	
  4279                           ;psect for function _parse_hdop_x100
  4280                           
  4281     029E                     l2274:	
  4282                           ;incstack = 0
  4283                           ; Regs used in _parse_hdop_x100: [wreg+fsr1l+fsr1h+status,2+status,0+pclath+cstack]
  4284                           
  4285                           
  4286                           ;main.c: 145: static uint8_t parse_hdop_x100(const char *s, uint16_t *out);main.c: 146: 
      +                          {;main.c: 147:     if (!s || !*s) return 0;
  4287     029E  0876               	movf	parse_hdop_x100@s,w
  4288     029F  0477               	iorwf	parse_hdop_x100@s+1,w
  4289     02A0  1903               	btfsc	3,2
  4290     02A1  2AA3               	goto	u2461
  4291     02A2  2AA4               	goto	u2460
  4292     02A3                     u2461:
  4293     02A3  2AAD               	goto	l2278
  4294     02A4                     u2460:
  4295     02A4                     l2276:
  4296     02A4  0876               	movf	parse_hdop_x100@s,w
  4297     02A5  0086               	movwf	6
  4298     02A6  0877               	movf	parse_hdop_x100@s+1,w
  4299     02A7  0087               	movwf	7
  4300     02A8  0801               	movf	1,w
  4301     02A9  1D03               	btfss	3,2
  4302     02AA  2AAC               	goto	u2471
  4303     02AB  2AAD               	goto	u2470
  4304     02AC                     u2471:
  4305     02AC  2AAF               	goto	l2282
  4306     02AD                     u2470:
  4307     02AD                     l2278:
  4308     02AD  3000               	movlw	0
  4309     02AE  2BF5               	goto	l138
  4310     02AF                     l2282:
  4311                           
  4312                           ;main.c: 148:     uint16_t whole = 0;
  4313     02AF  0020               	movlb	0	; select bank0
  4314     02B0  01A0               	clrf	parse_hdop_x100@whole
  4315     02B1  01A1               	clrf	parse_hdop_x100@whole+1
  4316                           
  4317                           ;main.c: 149:     uint16_t frac = 0;
  4318     02B2  01A2               	clrf	parse_hdop_x100@frac
  4319     02B3  01A3               	clrf	parse_hdop_x100@frac+1
  4320     02B4                     l2284:
  4321                           
  4322                           ;main.c: 150:     uint16_t frac_scale = 1;
  4323     02B4  3001               	movlw	1
  4324     02B5  00A4               	movwf	parse_hdop_x100@frac_scale
  4325     02B6  3000               	movlw	0
  4326     02B7  00A5               	movwf	parse_hdop_x100@frac_scale+1
  4327                           
  4328                           ;main.c: 153:     while (*s && (((unsigned char)(((unsigned char)*s)-'0')) < 10)) {
  4329     02B8  2ADC               	goto	l2290
  4330     02B9                     l2286:
  4331                           
  4332                           ;main.c: 154:         whole = (uint16_t)(whole * 10 + (uint16_t)(*s - '0'));
  4333     02B9  0876               	movf	parse_hdop_x100@s,w
  4334     02BA  0086               	movwf	6
  4335     02BB  0877               	movf	parse_hdop_x100@s+1,w
  4336     02BC  0087               	movwf	7
  4337     02BD  0801               	movf	1,w
  4338     02BE  00F9               	movwf	??_parse_hdop_x100
  4339     02BF  01FA               	clrf	??_parse_hdop_x100+1
  4340     02C0  0821               	movf	parse_hdop_x100@whole+1,w
  4341     02C1  00F1               	movwf	___wmul@multiplier+1
  4342     02C2  0820               	movf	parse_hdop_x100@whole,w
  4343     02C3  00F0               	movwf	___wmul@multiplier
  4344     02C4  300A               	movlw	10
  4345     02C5  00F2               	movwf	___wmul@multiplicand
  4346     02C6  3000               	movlw	0
  4347     02C7  00F3               	movwf	___wmul@multiplicand+1
  4348     02C8  3188  20BD  3182   	fcall	___wmul
  4349     02CB  0879               	movf	??_parse_hdop_x100,w
  4350     02CC  0770               	addwf	?___wmul,w
  4351     02CD  00FB               	movwf	??_parse_hdop_x100+2
  4352     02CE  087A               	movf	??_parse_hdop_x100+1,w
  4353     02CF  3D71               	addwfc	?___wmul+1,w
  4354     02D0  00FC               	movwf	??_parse_hdop_x100+3
  4355     02D1  087B               	movf	??_parse_hdop_x100+2,w
  4356     02D2  3ED0               	addlw	208
  4357     02D3  0020               	movlb	0	; select bank0
  4358     02D4  00A0               	movwf	parse_hdop_x100@whole
  4359     02D5  30FF               	movlw	255
  4360     02D6  3D7C               	addwfc	??_parse_hdop_x100+3,w
  4361     02D7  00A1               	movwf	parse_hdop_x100@whole+1
  4362     02D8                     l2288:
  4363                           
  4364                           ;main.c: 155:         s++;
  4365     02D8  3001               	movlw	1
  4366     02D9  07F6               	addwf	parse_hdop_x100@s,f
  4367     02DA  3000               	movlw	0
  4368     02DB  3DF7               	addwfc	parse_hdop_x100@s+1,f
  4369     02DC                     l2290:
  4370                           
  4371                           ;main.c: 153:     while (*s && (((unsigned char)(((unsigned char)*s)-'0')) < 10)) {
  4372     02DC  0876               	movf	parse_hdop_x100@s,w
  4373     02DD  0086               	movwf	6
  4374     02DE  0877               	movf	parse_hdop_x100@s+1,w
  4375     02DF  0087               	movwf	7
  4376     02E0  0801               	movf	1,w
  4377     02E1  1903               	btfsc	3,2
  4378     02E2  2AE4               	goto	u2481
  4379     02E3  2AE5               	goto	u2480
  4380     02E4                     u2481:
  4381     02E4  2AF2               	goto	l2294
  4382     02E5                     u2480:
  4383     02E5                     l2292:
  4384     02E5  0876               	movf	parse_hdop_x100@s,w
  4385     02E6  0086               	movwf	6
  4386     02E7  0877               	movf	parse_hdop_x100@s+1,w
  4387     02E8  0087               	movwf	7
  4388     02E9  30D0               	movlw	208
  4389     02EA  0701               	addwf	1,w
  4390     02EB  00F9               	movwf	??_parse_hdop_x100
  4391     02EC  300A               	movlw	10
  4392     02ED  0279               	subwf	??_parse_hdop_x100,w
  4393     02EE  1C03               	skipc
  4394     02EF  2AF1               	goto	u2491
  4395     02F0  2AF2               	goto	u2490
  4396     02F1                     u2491:
  4397     02F1  2AB9               	goto	l2286
  4398     02F2                     u2490:
  4399     02F2                     l2294:
  4400                           
  4401                           ;main.c: 158:     if (*s == '.') {
  4402     02F2  0876               	movf	parse_hdop_x100@s,w
  4403     02F3  0086               	movwf	6
  4404     02F4  0877               	movf	parse_hdop_x100@s+1,w
  4405     02F5  0087               	movwf	7
  4406     02F6  302E               	movlw	46
  4407     02F7  0601               	xorwf	1,w
  4408     02F8  1D03               	btfss	3,2
  4409     02F9  2AFB               	goto	u2501
  4410     02FA  2AFC               	goto	u2500
  4411     02FB                     u2501:
  4412     02FB  2B92               	goto	l2318
  4413     02FC                     u2500:
  4414     02FC                     l2296:
  4415                           
  4416                           ;main.c: 159:         s++;
  4417     02FC  3001               	movlw	1
  4418     02FD  07F6               	addwf	parse_hdop_x100@s,f
  4419     02FE  3000               	movlw	0
  4420     02FF  3DF7               	addwfc	parse_hdop_x100@s+1,f
  4421     0300                     l2298:
  4422                           
  4423                           ;main.c: 161:         if (*s && (((unsigned char)(((unsigned char)*s)-'0')) < 10)) { fra
      +                          c = (uint16_t)(frac * 10 + (uint16_t)(*s - '0')); frac_scale *= 10; s++; }
  4424     0300  0876               	movf	parse_hdop_x100@s,w
  4425     0301  0086               	movwf	6
  4426     0302  0877               	movf	parse_hdop_x100@s+1,w
  4427     0303  0087               	movwf	7
  4428     0304  0801               	movf	1,w
  4429     0305  1903               	btfsc	3,2
  4430     0306  2B08               	goto	u2511
  4431     0307  2B09               	goto	u2510
  4432     0308                     u2511:
  4433     0308  2B49               	goto	l2308
  4434     0309                     u2510:
  4435     0309                     l2300:
  4436     0309  0876               	movf	parse_hdop_x100@s,w
  4437     030A  0086               	movwf	6
  4438     030B  0877               	movf	parse_hdop_x100@s+1,w
  4439     030C  0087               	movwf	7
  4440     030D  30D0               	movlw	208
  4441     030E  0701               	addwf	1,w
  4442     030F  00F9               	movwf	??_parse_hdop_x100
  4443     0310  300A               	movlw	10
  4444     0311  0279               	subwf	??_parse_hdop_x100,w
  4445     0312  1803               	skipnc
  4446     0313  2B15               	goto	u2521
  4447     0314  2B16               	goto	u2520
  4448     0315                     u2521:
  4449     0315  2B49               	goto	l2308
  4450     0316                     u2520:
  4451     0316                     l2302:
  4452     0316  0876               	movf	parse_hdop_x100@s,w
  4453     0317  0086               	movwf	6
  4454     0318  0877               	movf	parse_hdop_x100@s+1,w
  4455     0319  0087               	movwf	7
  4456     031A  0801               	movf	1,w
  4457     031B  00F9               	movwf	??_parse_hdop_x100
  4458     031C  01FA               	clrf	??_parse_hdop_x100+1
  4459     031D  0823               	movf	parse_hdop_x100@frac+1,w
  4460     031E  00F1               	movwf	___wmul@multiplier+1
  4461     031F  0822               	movf	parse_hdop_x100@frac,w
  4462     0320  00F0               	movwf	___wmul@multiplier
  4463     0321  300A               	movlw	10
  4464     0322  00F2               	movwf	___wmul@multiplicand
  4465     0323  3000               	movlw	0
  4466     0324  00F3               	movwf	___wmul@multiplicand+1
  4467     0325  3188  20BD  3182   	fcall	___wmul
  4468     0328  0879               	movf	??_parse_hdop_x100,w
  4469     0329  0770               	addwf	?___wmul,w
  4470     032A  00FB               	movwf	??_parse_hdop_x100+2
  4471     032B  087A               	movf	??_parse_hdop_x100+1,w
  4472     032C  3D71               	addwfc	?___wmul+1,w
  4473     032D  00FC               	movwf	??_parse_hdop_x100+3
  4474     032E  087B               	movf	??_parse_hdop_x100+2,w
  4475     032F  3ED0               	addlw	208
  4476     0330  0020               	movlb	0	; select bank0
  4477     0331  00A2               	movwf	parse_hdop_x100@frac
  4478     0332  30FF               	movlw	255
  4479     0333  3D7C               	addwfc	??_parse_hdop_x100+3,w
  4480     0334  00A3               	movwf	parse_hdop_x100@frac+1
  4481     0335                     l2304:
  4482     0335  300A               	movlw	10
  4483     0336  00F0               	movwf	___wmul@multiplier
  4484     0337  3000               	movlw	0
  4485     0338  00F1               	movwf	___wmul@multiplier+1
  4486     0339  0825               	movf	parse_hdop_x100@frac_scale+1,w
  4487     033A  00F3               	movwf	___wmul@multiplicand+1
  4488     033B  0824               	movf	parse_hdop_x100@frac_scale,w
  4489     033C  00F2               	movwf	___wmul@multiplicand
  4490     033D  3188  20BD  3182   	fcall	___wmul
  4491     0340  0871               	movf	?___wmul+1,w
  4492     0341  0020               	movlb	0	; select bank0
  4493     0342  00A5               	movwf	parse_hdop_x100@frac_scale+1
  4494     0343  0870               	movf	?___wmul,w
  4495     0344  00A4               	movwf	parse_hdop_x100@frac_scale
  4496     0345                     l2306:
  4497     0345  3001               	movlw	1
  4498     0346  07F6               	addwf	parse_hdop_x100@s,f
  4499     0347  3000               	movlw	0
  4500     0348  3DF7               	addwfc	parse_hdop_x100@s+1,f
  4501     0349                     l2308:
  4502                           
  4503                           ;main.c: 162:         if (*s && (((unsigned char)(((unsigned char)*s)-'0')) < 10)) { fra
      +                          c = (uint16_t)(frac * 10 + (uint16_t)(*s - '0')); frac_scale *= 10; s++; }
  4504     0349  0876               	movf	parse_hdop_x100@s,w
  4505     034A  0086               	movwf	6
  4506     034B  0877               	movf	parse_hdop_x100@s+1,w
  4507     034C  0087               	movwf	7
  4508     034D  0801               	movf	1,w
  4509     034E  1903               	btfsc	3,2
  4510     034F  2B51               	goto	u2531
  4511     0350  2B52               	goto	u2530
  4512     0351                     u2531:
  4513     0351  2B92               	goto	l2318
  4514     0352                     u2530:
  4515     0352                     l2310:
  4516     0352  0876               	movf	parse_hdop_x100@s,w
  4517     0353  0086               	movwf	6
  4518     0354  0877               	movf	parse_hdop_x100@s+1,w
  4519     0355  0087               	movwf	7
  4520     0356  30D0               	movlw	208
  4521     0357  0701               	addwf	1,w
  4522     0358  00F9               	movwf	??_parse_hdop_x100
  4523     0359  300A               	movlw	10
  4524     035A  0279               	subwf	??_parse_hdop_x100,w
  4525     035B  1803               	skipnc
  4526     035C  2B5E               	goto	u2541
  4527     035D  2B5F               	goto	u2540
  4528     035E                     u2541:
  4529     035E  2B92               	goto	l2318
  4530     035F                     u2540:
  4531     035F                     l2312:
  4532     035F  0876               	movf	parse_hdop_x100@s,w
  4533     0360  0086               	movwf	6
  4534     0361  0877               	movf	parse_hdop_x100@s+1,w
  4535     0362  0087               	movwf	7
  4536     0363  0801               	movf	1,w
  4537     0364  00F9               	movwf	??_parse_hdop_x100
  4538     0365  01FA               	clrf	??_parse_hdop_x100+1
  4539     0366  0823               	movf	parse_hdop_x100@frac+1,w
  4540     0367  00F1               	movwf	___wmul@multiplier+1
  4541     0368  0822               	movf	parse_hdop_x100@frac,w
  4542     0369  00F0               	movwf	___wmul@multiplier
  4543     036A  300A               	movlw	10
  4544     036B  00F2               	movwf	___wmul@multiplicand
  4545     036C  3000               	movlw	0
  4546     036D  00F3               	movwf	___wmul@multiplicand+1
  4547     036E  3188  20BD  3182   	fcall	___wmul
  4548     0371  0879               	movf	??_parse_hdop_x100,w
  4549     0372  0770               	addwf	?___wmul,w
  4550     0373  00FB               	movwf	??_parse_hdop_x100+2
  4551     0374  087A               	movf	??_parse_hdop_x100+1,w
  4552     0375  3D71               	addwfc	?___wmul+1,w
  4553     0376  00FC               	movwf	??_parse_hdop_x100+3
  4554     0377  087B               	movf	??_parse_hdop_x100+2,w
  4555     0378  3ED0               	addlw	208
  4556     0379  0020               	movlb	0	; select bank0
  4557     037A  00A2               	movwf	parse_hdop_x100@frac
  4558     037B  30FF               	movlw	255
  4559     037C  3D7C               	addwfc	??_parse_hdop_x100+3,w
  4560     037D  00A3               	movwf	parse_hdop_x100@frac+1
  4561     037E                     l2314:
  4562     037E  300A               	movlw	10
  4563     037F  00F0               	movwf	___wmul@multiplier
  4564     0380  3000               	movlw	0
  4565     0381  00F1               	movwf	___wmul@multiplier+1
  4566     0382  0825               	movf	parse_hdop_x100@frac_scale+1,w
  4567     0383  00F3               	movwf	___wmul@multiplicand+1
  4568     0384  0824               	movf	parse_hdop_x100@frac_scale,w
  4569     0385  00F2               	movwf	___wmul@multiplicand
  4570     0386  3188  20BD  3182   	fcall	___wmul
  4571     0389  0871               	movf	?___wmul+1,w
  4572     038A  0020               	movlb	0	; select bank0
  4573     038B  00A5               	movwf	parse_hdop_x100@frac_scale+1
  4574     038C  0870               	movf	?___wmul,w
  4575     038D  00A4               	movwf	parse_hdop_x100@frac_scale
  4576     038E                     l2316:
  4577     038E  3001               	movlw	1
  4578     038F  07F6               	addwf	parse_hdop_x100@s,f
  4579     0390  3000               	movlw	0
  4580     0391  3DF7               	addwfc	parse_hdop_x100@s+1,f
  4581     0392                     l2318:
  4582                           
  4583                           ;main.c: 167:     if (frac_scale == 1) {
  4584     0392  0324               	decf	parse_hdop_x100@frac_scale,w
  4585     0393  0425               	iorwf	parse_hdop_x100@frac_scale+1,w
  4586     0394  1D03               	btfss	3,2
  4587     0395  2B97               	goto	u2551
  4588     0396  2B98               	goto	u2550
  4589     0397                     u2551:
  4590     0397  2BAB               	goto	l2322
  4591     0398                     u2550:
  4592     0398                     l2320:
  4593                           
  4594                           ;main.c: 168:         *out = (uint16_t)(whole * 100);
  4595     0398  0821               	movf	parse_hdop_x100@whole+1,w
  4596     0399  00F1               	movwf	___wmul@multiplier+1
  4597     039A  0820               	movf	parse_hdop_x100@whole,w
  4598     039B  00F0               	movwf	___wmul@multiplier
  4599     039C  3064               	movlw	100
  4600     039D  00F2               	movwf	___wmul@multiplicand
  4601     039E  3000               	movlw	0
  4602     039F  00F3               	movwf	___wmul@multiplicand+1
  4603     03A0  3188  20BD  3182   	fcall	___wmul
  4604     03A3  0878               	movf	parse_hdop_x100@out,w
  4605     03A4  0086               	movwf	6
  4606     03A5  0187               	clrf	7
  4607     03A6  0870               	movf	?___wmul,w
  4608     03A7  3FC0               	movwi [0]fsr1
  4609     03A8  0871               	movf	?___wmul+1,w
  4610     03A9  3FC1               	movwi [1]fsr1
  4611                           
  4612                           ;main.c: 169:     } else if (frac_scale == 10) {
  4613     03AA  2BF4               	goto	l2328
  4614     03AB                     l2322:
  4615     03AB  300A               	movlw	10
  4616     03AC  0624               	xorwf	parse_hdop_x100@frac_scale,w
  4617     03AD  0425               	iorwf	parse_hdop_x100@frac_scale+1,w
  4618     03AE  1D03               	btfss	3,2
  4619     03AF  2BB1               	goto	u2561
  4620     03B0  2BB2               	goto	u2560
  4621     03B1                     u2561:
  4622     03B1  2BDB               	goto	l2326
  4623     03B2                     u2560:
  4624     03B2                     l2324:
  4625                           
  4626                           ;main.c: 170:         *out = (uint16_t)(whole * 100 + frac * 10);
  4627     03B2  0821               	movf	parse_hdop_x100@whole+1,w
  4628     03B3  00F1               	movwf	___wmul@multiplier+1
  4629     03B4  0820               	movf	parse_hdop_x100@whole,w
  4630     03B5  00F0               	movwf	___wmul@multiplier
  4631     03B6  3064               	movlw	100
  4632     03B7  00F2               	movwf	___wmul@multiplicand
  4633     03B8  3000               	movlw	0
  4634     03B9  00F3               	movwf	___wmul@multiplicand+1
  4635     03BA  3188  20BD  3182   	fcall	___wmul
  4636     03BD  0870               	movf	?___wmul,w
  4637     03BE  00F9               	movwf	??_parse_hdop_x100
  4638     03BF  0871               	movf	?___wmul+1,w
  4639     03C0  00FA               	movwf	??_parse_hdop_x100+1
  4640     03C1  0020               	movlb	0	; select bank0
  4641     03C2  0823               	movf	parse_hdop_x100@frac+1,w
  4642     03C3  00F1               	movwf	___wmul@multiplier+1
  4643     03C4  0822               	movf	parse_hdop_x100@frac,w
  4644     03C5  00F0               	movwf	___wmul@multiplier
  4645     03C6  300A               	movlw	10
  4646     03C7  00F2               	movwf	___wmul@multiplicand
  4647     03C8  3000               	movlw	0
  4648     03C9  00F3               	movwf	___wmul@multiplicand+1
  4649     03CA  3188  20BD  3182   	fcall	___wmul
  4650     03CD  0870               	movf	?___wmul,w
  4651     03CE  0779               	addwf	??_parse_hdop_x100,w
  4652     03CF  00FB               	movwf	??_parse_hdop_x100+2
  4653     03D0  0871               	movf	?___wmul+1,w
  4654     03D1  3D7A               	addwfc	??_parse_hdop_x100+1,w
  4655     03D2  00FC               	movwf	??_parse_hdop_x100+3
  4656     03D3  0878               	movf	parse_hdop_x100@out,w
  4657     03D4  0086               	movwf	6
  4658     03D5  0187               	clrf	7
  4659     03D6  087B               	movf	??_parse_hdop_x100+2,w
  4660     03D7  3FC0               	movwi [0]fsr1
  4661     03D8  087C               	movf	??_parse_hdop_x100+3,w
  4662     03D9  3FC1               	movwi [1]fsr1
  4663                           
  4664                           ;main.c: 171:     } else {
  4665     03DA  2BF4               	goto	l2328
  4666     03DB                     l2326:
  4667                           
  4668                           ;main.c: 172:         *out = (uint16_t)(whole * 100 + frac);
  4669     03DB  0821               	movf	parse_hdop_x100@whole+1,w
  4670     03DC  00F1               	movwf	___wmul@multiplier+1
  4671     03DD  0820               	movf	parse_hdop_x100@whole,w
  4672     03DE  00F0               	movwf	___wmul@multiplier
  4673     03DF  3064               	movlw	100
  4674     03E0  00F2               	movwf	___wmul@multiplicand
  4675     03E1  3000               	movlw	0
  4676     03E2  00F3               	movwf	___wmul@multiplicand+1
  4677     03E3  3188  20BD  3182   	fcall	___wmul
  4678     03E6  0020               	movlb	0	; select bank0
  4679     03E7  0822               	movf	parse_hdop_x100@frac,w
  4680     03E8  0770               	addwf	?___wmul,w
  4681     03E9  00F9               	movwf	??_parse_hdop_x100
  4682     03EA  0823               	movf	parse_hdop_x100@frac+1,w
  4683     03EB  3D71               	addwfc	?___wmul+1,w
  4684     03EC  00FA               	movwf	??_parse_hdop_x100+1
  4685     03ED  0878               	movf	parse_hdop_x100@out,w
  4686     03EE  0086               	movwf	6
  4687     03EF  0187               	clrf	7
  4688     03F0  0879               	movf	??_parse_hdop_x100,w
  4689     03F1  3FC0               	movwi [0]fsr1
  4690     03F2  087A               	movf	??_parse_hdop_x100+1,w
  4691     03F3  3FC1               	movwi [1]fsr1
  4692     03F4                     l2328:
  4693                           
  4694                           ;main.c: 174:     return 1;
  4695     03F4  3001               	movlw	1
  4696     03F5                     l138:
  4697     03F5  0008               	return
  4698     03F6                     __end_of_parse_hdop_x100:
  4699                           
  4700                           	psect	text12
  4701     0BF8                     __ptext12:	
  4702 ;; *************** function _gps_read_line *****************
  4703 ;; Defined at:
  4704 ;;		line 89 in file "main.c"
  4705 ;; Parameters:    Size  Location     Type
  4706 ;;  buf             2    0[COMMON] PTR unsigned char 
  4707 ;;		 -> line(96), 
  4708 ;;  maxlen          2    2[COMMON] unsigned int 
  4709 ;; Auto vars:     Size  Location     Type
  4710 ;;  n               2    7[COMMON] unsigned int 
  4711 ;;  c               1    6[COMMON] unsigned char 
  4712 ;; Return value:  Size  Location     Type
  4713 ;;                  2    0[COMMON] unsigned int 
  4714 ;; Registers used:
  4715 ;;		wreg, fsr1l, fsr1h, status,2, status,0, pclath, cstack
  4716 ;; Tracked objects:
  4717 ;;		On entry : 0/0
  4718 ;;		On exit  : 0/0
  4719 ;;		Unchanged: 0/0
  4720 ;; Data sizes:     COMMON   BANK0   BANK1   BANK2   BANK3   BANK4   BANK5   BANK6   BANK7   BANK8   BANK9  BANK10  BANK1
      +1  BANK12  BANK13  BANK14  BANK15  BANK16  BANK17  BANK18  BANK19  BANK20  BANK21  BANK22  BANK23  BANK24  BANK25
  4721 ;;      Params:         4       0       0       0       0       0       0       0       0       0       0       0       
      +0       0       0       0       0       0       0       0       0       0       0       0       0       0       0
  4722 ;;      Locals:         3       0       0       0       0       0       0       0       0       0       0       0       
      +0       0       0       0       0       0       0       0       0       0       0       0       0       0       0
  4723 ;;      Temps:          2       0       0       0       0       0       0       0       0       0       0       0       
      +0       0       0       0       0       0       0       0       0       0       0       0       0       0       0
  4724 ;;      Totals:         9       0       0       0       0       0       0       0       0       0       0       0       
      +0       0       0       0       0       0       0       0       0       0       0       0       0       0       0
  4725 ;;Total ram usage:        9 bytes
  4726 ;; Hardware stack levels used: 1
  4727 ;; Hardware stack levels required when called: 1
  4728 ;; This function calls:
  4729 ;;		_EUSART_Read
  4730 ;; This function is called by:
  4731 ;;		_main
  4732 ;; This function uses a non-reentrant model
  4733 ;;
  4734                           
  4735     0BF8                     _gps_read_line:	
  4736                           ;psect for function _gps_read_line
  4737                           
  4738     0BF8                     l2446:	
  4739                           ;incstack = 0
  4740                           ; Regs used in _gps_read_line: [wreg+fsr1l+fsr1h+status,2+status,0+pclath+cstack]
  4741                           
  4742                           
  4743                           ;main.c: 89: static unsigned int gps_read_line(char *buf, unsigned int maxlen);main.c: 9
      +                          0: {;main.c: 91:     unsigned int n = 0;
  4744     0BF8  01F7               	clrf	gps_read_line@n
  4745     0BF9  01F8               	clrf	gps_read_line@n+1
  4746     0BFA                     l2448:
  4747                           
  4748                           ;main.c: 92:     char c;;main.c: 94:     if (maxlen < 4) return 0;
  4749     0BFA  3000               	movlw	0
  4750     0BFB  0273               	subwf	gps_read_line@maxlen+1,w
  4751     0BFC  3004               	movlw	4
  4752     0BFD  1903               	skipnz
  4753     0BFE  0272               	subwf	gps_read_line@maxlen,w
  4754     0BFF  1803               	skipnc
  4755     0C00  2C02               	goto	u2881
  4756     0C01  2C03               	goto	u2880
  4757     0C02                     u2881:
  4758     0C02  2C04               	goto	l2452
  4759     0C03                     u2880:
  4760     0C03  2C60               	goto	l101
  4761     0C04                     l2452:
  4762     0C04  3188  2079  318B   	fcall	_EUSART_Read
  4763     0C07  00F6               	movwf	gps_read_line@c
  4764     0C08                     l2454:
  4765     0C08  3024               	movlw	36
  4766     0C09  0676               	xorwf	gps_read_line@c,w
  4767     0C0A  1D03               	btfss	3,2
  4768     0C0B  2C0D               	goto	u2891
  4769     0C0C  2C0E               	goto	u2890
  4770     0C0D                     u2891:
  4771     0C0D  2C04               	goto	l2452
  4772     0C0E                     u2890:
  4773     0C0E                     l2456:
  4774                           
  4775                           ;main.c: 97:     buf[n++] = '$';
  4776     0C0E  0877               	movf	gps_read_line@n,w
  4777     0C0F  0770               	addwf	gps_read_line@buf,w
  4778     0C10  00F4               	movwf	??_gps_read_line
  4779     0C11  0878               	movf	gps_read_line@n+1,w
  4780     0C12  3D71               	addwfc	gps_read_line@buf+1,w
  4781     0C13  00F5               	movwf	??_gps_read_line+1
  4782     0C14  0874               	movf	??_gps_read_line,w
  4783     0C15  0086               	movwf	6
  4784     0C16  0875               	movf	??_gps_read_line+1,w
  4785     0C17  0087               	movwf	7
  4786     0C18  3024               	movlw	36
  4787     0C19  0081               	movwf	1
  4788     0C1A                     l2458:
  4789     0C1A  3001               	movlw	1
  4790     0C1B  07F7               	addwf	gps_read_line@n,f
  4791     0C1C  3000               	movlw	0
  4792     0C1D  3DF8               	addwfc	gps_read_line@n+1,f
  4793                           
  4794                           ;main.c: 99:     while (n < (maxlen - 1)) {
  4795     0C1E  2C49               	goto	l2478
  4796     0C1F                     l2460:
  4797                           
  4798                           ;main.c: 100:         c = EUSART_Read();
  4799     0C1F  3188  2079  318B   	fcall	_EUSART_Read
  4800     0C22  00F6               	movwf	gps_read_line@c
  4801     0C23                     l2462:
  4802                           
  4803                           ;main.c: 102:         if (c == '$') {
  4804     0C23  3024               	movlw	36
  4805     0C24  0676               	xorwf	gps_read_line@c,w
  4806     0C25  1D03               	btfss	3,2
  4807     0C26  2C28               	goto	u2901
  4808     0C27  2C29               	goto	u2900
  4809     0C28                     u2901:
  4810     0C28  2C32               	goto	l2470
  4811     0C29                     u2900:
  4812     0C29                     l2464:
  4813                           
  4814                           ;main.c: 103:             n = 0;
  4815     0C29  01F7               	clrf	gps_read_line@n
  4816     0C2A  01F8               	clrf	gps_read_line@n+1
  4817     0C2B                     l2466:
  4818                           
  4819                           ;main.c: 104:             buf[n++] = '$';
  4820     0C2B  0870               	movf	gps_read_line@buf,w
  4821     0C2C  0086               	movwf	6
  4822     0C2D  0871               	movf	gps_read_line@buf+1,w
  4823     0C2E  0087               	movwf	7
  4824     0C2F  3024               	movlw	36
  4825     0C30  0081               	movwf	1
  4826     0C31  2C1A               	goto	l2458
  4827     0C32                     l2470:
  4828                           
  4829                           ;main.c: 108:         buf[n++] = c;
  4830     0C32  0877               	movf	gps_read_line@n,w
  4831     0C33  0770               	addwf	gps_read_line@buf,w
  4832     0C34  00F4               	movwf	??_gps_read_line
  4833     0C35  0878               	movf	gps_read_line@n+1,w
  4834     0C36  3D71               	addwfc	gps_read_line@buf+1,w
  4835     0C37  00F5               	movwf	??_gps_read_line+1
  4836     0C38  0874               	movf	??_gps_read_line,w
  4837     0C39  0086               	movwf	6
  4838     0C3A  0875               	movf	??_gps_read_line+1,w
  4839     0C3B  0087               	movwf	7
  4840     0C3C  0876               	movf	gps_read_line@c,w
  4841     0C3D  0081               	movwf	1
  4842     0C3E                     l2472:
  4843     0C3E  3001               	movlw	1
  4844     0C3F  07F7               	addwf	gps_read_line@n,f
  4845     0C40  3000               	movlw	0
  4846     0C41  3DF8               	addwfc	gps_read_line@n+1,f
  4847     0C42                     l2474:
  4848                           
  4849                           ;main.c: 109:         if (c == '\n') break;
  4850     0C42  300A               	movlw	10
  4851     0C43  0676               	xorwf	gps_read_line@c,w
  4852     0C44  1D03               	btfss	3,2
  4853     0C45  2C47               	goto	u2911
  4854     0C46  2C48               	goto	u2910
  4855     0C47                     u2911:
  4856     0C47  2C49               	goto	l2478
  4857     0C48                     u2910:
  4858     0C48  2C59               	goto	l2480
  4859     0C49                     l2478:
  4860                           
  4861                           ;main.c: 99:     while (n < (maxlen - 1)) {
  4862     0C49  0872               	movf	gps_read_line@maxlen,w
  4863     0C4A  3EFF               	addlw	255
  4864     0C4B  00F4               	movwf	??_gps_read_line
  4865     0C4C  30FF               	movlw	255
  4866     0C4D  3D73               	addwfc	gps_read_line@maxlen+1,w
  4867     0C4E  00F5               	movwf	??_gps_read_line+1
  4868     0C4F  0875               	movf	??_gps_read_line+1,w
  4869     0C50  0278               	subwf	gps_read_line@n+1,w
  4870     0C51  1D03               	skipz
  4871     0C52  2C55               	goto	u2925
  4872     0C53  0874               	movf	??_gps_read_line,w
  4873     0C54  0277               	subwf	gps_read_line@n,w
  4874     0C55                     u2925:
  4875     0C55  1C03               	skipc
  4876     0C56  2C58               	goto	u2921
  4877     0C57  2C59               	goto	u2920
  4878     0C58                     u2921:
  4879     0C58  2C1F               	goto	l2460
  4880     0C59                     u2920:
  4881     0C59                     l2480:
  4882                           
  4883                           ;main.c: 112:     buf[n] = '\0';
  4884     0C59  0877               	movf	gps_read_line@n,w
  4885     0C5A  0770               	addwf	gps_read_line@buf,w
  4886     0C5B  0086               	movwf	6
  4887     0C5C  0878               	movf	gps_read_line@n+1,w
  4888     0C5D  3D71               	addwfc	gps_read_line@buf+1,w
  4889     0C5E  0087               	movwf	7
  4890     0C5F  0181               	clrf	1
  4891     0C60                     l101:
  4892     0C60  0008               	return
  4893     0C61                     __end_of_gps_read_line:
  4894                           
  4895                           	psect	text13
  4896     0879                     __ptext13:	
  4897 ;; *************** function _EUSART_Read *****************
  4898 ;; Defined at:
  4899 ;;		line 62 in file "EUSART.c"
  4900 ;; Parameters:    Size  Location     Type
  4901 ;;		None
  4902 ;; Auto vars:     Size  Location     Type
  4903 ;;		None
  4904 ;; Return value:  Size  Location     Type
  4905 ;;                  1    wreg      unsigned char 
  4906 ;; Registers used:
  4907 ;;		wreg
  4908 ;; Tracked objects:
  4909 ;;		On entry : 0/0
  4910 ;;		On exit  : 0/0
  4911 ;;		Unchanged: 0/0
  4912 ;; Data sizes:     COMMON   BANK0   BANK1   BANK2   BANK3   BANK4   BANK5   BANK6   BANK7   BANK8   BANK9  BANK10  BANK1
      +1  BANK12  BANK13  BANK14  BANK15  BANK16  BANK17  BANK18  BANK19  BANK20  BANK21  BANK22  BANK23  BANK24  BANK25
  4913 ;;      Params:         0       0       0       0       0       0       0       0       0       0       0       0       
      +0       0       0       0       0       0       0       0       0       0       0       0       0       0       0
  4914 ;;      Locals:         0       0       0       0       0       0       0       0       0       0       0       0       
      +0       0       0       0       0       0       0       0       0       0       0       0       0       0       0
  4915 ;;      Temps:          0       0       0       0       0       0       0       0       0       0       0       0       
      +0       0       0       0       0       0       0       0       0       0       0       0       0       0       0
  4916 ;;      Totals:         0       0       0       0       0       0       0       0       0       0       0       0       
      +0       0       0       0       0       0       0       0       0       0       0       0       0       0       0
  4917 ;;Total ram usage:        0 bytes
  4918 ;; Hardware stack levels used: 1
  4919 ;; This function calls:
  4920 ;;		Nothing
  4921 ;; This function is called by:
  4922 ;;		_gps_read_line
  4923 ;;		_EUSART_Read_Text
  4924 ;; This function uses a non-reentrant model
  4925 ;;
  4926                           
  4927     0879                     _EUSART_Read:	
  4928                           ;psect for function _EUSART_Read
  4929                           
  4930     0879                     l2204:	
  4931                           ;incstack = 0
  4932                           ; Regs used in _EUSART_Read: [wreg]
  4933                           
  4934                           
  4935                           ;EUSART.c: 65:    RC1STAbits.SREN = 1;
  4936     0879  0023               	movlb	3	; select bank3
  4937     087A  169D               	bsf	29,5	;volatile
  4938     087B                     l262:	
  4939                           ;EUSART.c: 67:     {;EUSART.c: 68:     }
  4940                           
  4941                           
  4942                           ;EUSART.c: 66:     while(!PIR1bits.RCIF)
  4943     087B  0020               	movlb	0	; select bank0
  4944     087C  1E91               	btfss	17,5	;volatile
  4945     087D  287F               	goto	u2341
  4946     087E  2880               	goto	u2340
  4947     087F                     u2341:
  4948     087F  287B               	goto	l262
  4949     0880                     u2340:
  4950     0880                     l264:
  4951                           
  4952                           ;EUSART.c: 70:     if(1 == RC1STAbits.OERR)
  4953     0880  0023               	movlb	3	; select bank3
  4954     0881  1C9D               	btfss	29,1	;volatile
  4955     0882  2884               	goto	u2351
  4956     0883  2885               	goto	u2350
  4957     0884                     u2351:
  4958     0884  2887               	goto	l2208
  4959     0885                     u2350:
  4960     0885                     l2206:
  4961                           
  4962                           ;EUSART.c: 71:     {;EUSART.c: 74:         RC1STAbits.SPEN = 0;
  4963     0885  139D               	bcf	29,7	;volatile
  4964                           
  4965                           ;EUSART.c: 75:         RC1STAbits.SPEN = 1;
  4966     0886  179D               	bsf	29,7	;volatile
  4967     0887                     l2208:
  4968                           
  4969                           ;EUSART.c: 78:     return RC1REG;
  4970     0887  0819               	movf	25,w	;volatile
  4971     0888                     l266:
  4972     0888  0008               	return
  4973     0889                     __end_of_EUSART_Read:
  4974                           
  4975                           	psect	text14
  4976     0589                     __ptext14:	
  4977 ;; *************** function _coord_to_microdeg *****************
  4978 ;; Defined at:
  4979 ;;		line 178 in file "main.c"
  4980 ;; Parameters:    Size  Location     Type
  4981 ;;  field           2   10[COMMON] PTR const unsigned char 
  4982 ;;		 -> work(96), 
  4983 ;;  is_lat          1   12[COMMON] unsigned char 
  4984 ;;  out             1   13[COMMON] PTR long 
  4985 ;;		 -> main@lon(4), main@lat(4), 
  4986 ;; Auto vars:     Size  Location     Type
  4987 ;;  i               2   62[BANK0 ] int 
  4988 ;;  micro           8   52[BANK0 ] long long 
  4989 ;;  i               2   70[BANK0 ] int 
  4990 ;;  dlen            2   68[BANK0 ] int 
  4991 ;;  scale           2   66[BANK0 ] int 
  4992 ;;  frac            2   64[BANK0 ] int 
  4993 ;;  deg             2   60[BANK0 ] int 
  4994 ;;  min_int         2   50[BANK0 ] int 
  4995 ;; Return value:  Size  Location     Type
  4996 ;;                  2   10[COMMON] int 
  4997 ;; Registers used:
  4998 ;;		wreg, fsr1l, fsr1h, status,2, status,0, pclath, cstack
  4999 ;; Tracked objects:
  5000 ;;		On entry : 0/0
  5001 ;;		On exit  : 0/0
  5002 ;;		Unchanged: 0/0
  5003 ;; Data sizes:     COMMON   BANK0   BANK1   BANK2   BANK3   BANK4   BANK5   BANK6   BANK7   BANK8   BANK9  BANK10  BANK1
      +1  BANK12  BANK13  BANK14  BANK15  BANK16  BANK17  BANK18  BANK19  BANK20  BANK21  BANK22  BANK23  BANK24  BANK25
  5004 ;;      Params:         4       0       0       0       0       0       0       0       0       0       0       0       
      +0       0       0       0       0       0       0       0       0       0       0       0       0       0       0
  5005 ;;      Locals:         0      22       0       0       0       0       0       0       0       0       0       0       
      +0       0       0       0       0       0       0       0       0       0       0       0       0       0       0
  5006 ;;      Temps:          0       8       0       0       0       0       0       0       0       0       0       0       
      +0       0       0       0       0       0       0       0       0       0       0       0       0       0       0
  5007 ;;      Totals:         4      30       0       0       0       0       0       0       0       0       0       0       
      +0       0       0       0       0       0       0       0       0       0       0       0       0       0       0
  5008 ;;Total ram usage:       34 bytes
  5009 ;; Hardware stack levels used: 1
  5010 ;; Hardware stack levels required when called: 1
  5011 ;; This function calls:
  5012 ;;		___aodiv
  5013 ;;		___omul
  5014 ;;		___wmul
  5015 ;; This function is called by:
  5016 ;;		_main
  5017 ;; This function uses a non-reentrant model
  5018 ;;
  5019                           
  5020     0589                     _coord_to_microdeg:	
  5021                           ;psect for function _coord_to_microdeg
  5022                           
  5023     0589                     l2484:	
  5024                           ;incstack = 0
  5025                           ; Regs used in _coord_to_microdeg: [wreg+fsr1l+fsr1h+status,2+status,0+pclath+cstack]
  5026                           
  5027                           
  5028                           ;main.c: 178: int coord_to_microdeg(const char *field, unsigned char is_lat, int32_t *ou
      +                          t);main.c: 179: {;main.c: 180:     int dlen = is_lat ? 2 : 3;
  5029     0589  087C               	movf	coord_to_microdeg@is_lat,w
  5030     058A  1D03               	btfss	3,2
  5031     058B  2D8D               	goto	u2931
  5032     058C  2D8E               	goto	u2930
  5033     058D                     u2931:
  5034     058D  2D94               	goto	l2488
  5035     058E                     u2930:
  5036     058E                     l2486:
  5037     058E  3003               	movlw	3
  5038     058F  0020               	movlb	0	; select bank0
  5039     0590  00E4               	movwf	coord_to_microdeg@dlen
  5040     0591  3000               	movlw	0
  5041     0592  00E5               	movwf	coord_to_microdeg@dlen+1
  5042     0593  2D99               	goto	l2490
  5043     0594                     l2488:
  5044     0594  3002               	movlw	2
  5045     0595  0020               	movlb	0	; select bank0
  5046     0596  00E4               	movwf	coord_to_microdeg@dlen
  5047     0597  3000               	movlw	0
  5048     0598  00E5               	movwf	coord_to_microdeg@dlen+1
  5049     0599                     l2490:
  5050                           
  5051                           ;main.c: 181:     int deg = 0;
  5052     0599  01DC               	clrf	coord_to_microdeg@deg
  5053     059A  01DD               	clrf	coord_to_microdeg@deg+1
  5054     059B                     l2492:
  5055                           
  5056                           ;main.c: 183:     for (int i = 0; i < dlen; i++)
  5057     059B  01DE               	clrf	coord_to_microdeg@i
  5058     059C  01DF               	clrf	coord_to_microdeg@i+1
  5059     059D  2DC4               	goto	l2498
  5060     059E                     l2494:
  5061                           
  5062                           ;main.c: 184:         deg = deg * 10 + (field[i] - '0');
  5063     059E  0020               	movlb	0	; select bank0
  5064     059F  085E               	movf	coord_to_microdeg@i,w
  5065     05A0  077A               	addwf	coord_to_microdeg@field,w
  5066     05A1  0086               	movwf	6
  5067     05A2  085F               	movf	coord_to_microdeg@i+1,w
  5068     05A3  3D7B               	addwfc	coord_to_microdeg@field+1,w
  5069     05A4  0087               	movwf	7
  5070     05A5  0801               	movf	1,w
  5071     05A6  00CA               	movwf	??_coord_to_microdeg
  5072     05A7  01CB               	clrf	??_coord_to_microdeg+1
  5073     05A8  085D               	movf	coord_to_microdeg@deg+1,w
  5074     05A9  00F1               	movwf	___wmul@multiplier+1
  5075     05AA  085C               	movf	coord_to_microdeg@deg,w
  5076     05AB  00F0               	movwf	___wmul@multiplier
  5077     05AC  300A               	movlw	10
  5078     05AD  00F2               	movwf	___wmul@multiplicand
  5079     05AE  3000               	movlw	0
  5080     05AF  00F3               	movwf	___wmul@multiplicand+1
  5081     05B0  3188  20BD  3185   	fcall	___wmul
  5082     05B3  0020               	movlb	0	; select bank0
  5083     05B4  084A               	movf	??_coord_to_microdeg,w
  5084     05B5  0770               	addwf	?___wmul,w
  5085     05B6  00CC               	movwf	??_coord_to_microdeg+2
  5086     05B7  084B               	movf	??_coord_to_microdeg+1,w
  5087     05B8  3D71               	addwfc	?___wmul+1,w
  5088     05B9  00CD               	movwf	??_coord_to_microdeg+3
  5089     05BA  084C               	movf	??_coord_to_microdeg+2,w
  5090     05BB  3ED0               	addlw	208
  5091     05BC  00DC               	movwf	coord_to_microdeg@deg
  5092     05BD  30FF               	movlw	255
  5093     05BE  3D4D               	addwfc	??_coord_to_microdeg+3,w
  5094     05BF  00DD               	movwf	coord_to_microdeg@deg+1
  5095     05C0                     l2496:
  5096     05C0  3001               	movlw	1
  5097     05C1  07DE               	addwf	coord_to_microdeg@i,f
  5098     05C2  3000               	movlw	0
  5099     05C3  3DDF               	addwfc	coord_to_microdeg@i+1,f
  5100     05C4                     l2498:
  5101     05C4  085F               	movf	coord_to_microdeg@i+1,w
  5102     05C5  3A80               	xorlw	128
  5103     05C6  00CA               	movwf	??_coord_to_microdeg
  5104     05C7  0865               	movf	coord_to_microdeg@dlen+1,w
  5105     05C8  3A80               	xorlw	128
  5106     05C9  024A               	subwf	??_coord_to_microdeg,w
  5107     05CA  1D03               	skipz
  5108     05CB  2DCE               	goto	u2945
  5109     05CC  0864               	movf	coord_to_microdeg@dlen,w
  5110     05CD  025E               	subwf	coord_to_microdeg@i,w
  5111     05CE                     u2945:
  5112     05CE  1C03               	skipc
  5113     05CF  2DD1               	goto	u2941
  5114     05D0  2DD2               	goto	u2940
  5115     05D1                     u2941:
  5116     05D1  2D9E               	goto	l2494
  5117     05D2                     u2940:
  5118     05D2                     l2500:
  5119                           
  5120                           ;main.c: 186:     int min_int = (field[dlen] - '0') * 10 + (field[dlen+1] - '0');
  5121     05D2  0020               	movlb	0	; select bank0
  5122     05D3  0864               	movf	coord_to_microdeg@dlen,w
  5123     05D4  077A               	addwf	coord_to_microdeg@field,w
  5124     05D5  00CA               	movwf	??_coord_to_microdeg
  5125     05D6  0865               	movf	coord_to_microdeg@dlen+1,w
  5126     05D7  3D7B               	addwfc	coord_to_microdeg@field+1,w
  5127     05D8  00CB               	movwf	??_coord_to_microdeg+1
  5128     05D9  084A               	movf	??_coord_to_microdeg,w
  5129     05DA  0086               	movwf	6
  5130     05DB  084B               	movf	??_coord_to_microdeg+1,w
  5131     05DC  0087               	movwf	7
  5132     05DD  3141               	addfsr 1,1
  5133     05DE  0801               	movf	1,w
  5134     05DF  00CC               	movwf	??_coord_to_microdeg+2
  5135     05E0  01CD               	clrf	??_coord_to_microdeg+3
  5136     05E1  0864               	movf	coord_to_microdeg@dlen,w
  5137     05E2  077A               	addwf	coord_to_microdeg@field,w
  5138     05E3  0086               	movwf	6
  5139     05E4  0865               	movf	coord_to_microdeg@dlen+1,w
  5140     05E5  3D7B               	addwfc	coord_to_microdeg@field+1,w
  5141     05E6  0087               	movwf	7
  5142     05E7  0801               	movf	1,w
  5143     05E8  00CE               	movwf	??_coord_to_microdeg+4
  5144     05E9  01CF               	clrf	??_coord_to_microdeg+5
  5145     05EA  084E               	movf	??_coord_to_microdeg+4,w
  5146     05EB  00F0               	movwf	___wmul@multiplier
  5147     05EC  084F               	movf	??_coord_to_microdeg+5,w
  5148     05ED  00F1               	movwf	___wmul@multiplier+1
  5149     05EE  300A               	movlw	10
  5150     05EF  00F2               	movwf	___wmul@multiplicand
  5151     05F0  3000               	movlw	0
  5152     05F1  00F3               	movwf	___wmul@multiplicand+1
  5153     05F2  3188  20BD  3185   	fcall	___wmul
  5154     05F5  0020               	movlb	0	; select bank0
  5155     05F6  084C               	movf	??_coord_to_microdeg+2,w
  5156     05F7  0770               	addwf	?___wmul,w
  5157     05F8  00D0               	movwf	??_coord_to_microdeg+6
  5158     05F9  084D               	movf	??_coord_to_microdeg+3,w
  5159     05FA  3D71               	addwfc	?___wmul+1,w
  5160     05FB  00D1               	movwf	??_coord_to_microdeg+7
  5161     05FC  0850               	movf	??_coord_to_microdeg+6,w
  5162     05FD  3EF0               	addlw	240
  5163     05FE  00D2               	movwf	coord_to_microdeg@min_int
  5164     05FF  30FD               	movlw	253
  5165     0600  3D51               	addwfc	??_coord_to_microdeg+7,w
  5166     0601  00D3               	movwf	coord_to_microdeg@min_int+1
  5167     0602                     l2502:
  5168                           
  5169                           ;main.c: 188:     int frac = 0;
  5170     0602  01E0               	clrf	coord_to_microdeg@frac
  5171     0603  01E1               	clrf	coord_to_microdeg@frac+1
  5172     0604                     l2504:
  5173                           
  5174                           ;main.c: 189:     int scale = 1;
  5175     0604  3001               	movlw	1
  5176     0605  00E2               	movwf	coord_to_microdeg@scale
  5177     0606  3000               	movlw	0
  5178     0607  00E3               	movwf	coord_to_microdeg@scale+1
  5179     0608                     l2506:
  5180                           
  5181                           ;main.c: 190:     int i = dlen + 2;
  5182     0608  0864               	movf	coord_to_microdeg@dlen,w
  5183     0609  3E02               	addlw	2
  5184     060A  00E6               	movwf	coord_to_microdeg@i_213
  5185     060B  3000               	movlw	0
  5186     060C  3D65               	addwfc	coord_to_microdeg@dlen+1,w
  5187     060D  00E7               	movwf	coord_to_microdeg@i_213+1
  5188     060E                     l2508:
  5189                           
  5190                           ;main.c: 192:     if (field[i] == '.') {
  5191     060E  0866               	movf	coord_to_microdeg@i_213,w
  5192     060F  077A               	addwf	coord_to_microdeg@field,w
  5193     0610  0086               	movwf	6
  5194     0611  0867               	movf	coord_to_microdeg@i_213+1,w
  5195     0612  3D7B               	addwfc	coord_to_microdeg@field+1,w
  5196     0613  0087               	movwf	7
  5197     0614  302E               	movlw	46
  5198     0615  0601               	xorwf	1,w
  5199     0616  1D03               	btfss	3,2
  5200     0617  2E19               	goto	u2951
  5201     0618  2E1A               	goto	u2950
  5202     0619                     u2951:
  5203     0619  2E77               	goto	l2524
  5204     061A                     u2950:
  5205     061A                     l2510:
  5206                           
  5207                           ;main.c: 193:         i++;
  5208     061A  3001               	movlw	1
  5209     061B  07E6               	addwf	coord_to_microdeg@i_213,f
  5210     061C  3000               	movlw	0
  5211     061D  3DE7               	addwfc	coord_to_microdeg@i_213+1,f
  5212                           
  5213                           ;main.c: 194:         while (field[i] && field[i] >= '0' && field[i] <= '9' && scale < 1
      +                          000000) {
  5214     061E  2E54               	goto	l2518
  5215     061F                     l2512:
  5216                           
  5217                           ;main.c: 195:             frac = frac * 10 + (field[i++] - '0');
  5218     061F  0866               	movf	coord_to_microdeg@i_213,w
  5219     0620  077A               	addwf	coord_to_microdeg@field,w
  5220     0621  0086               	movwf	6
  5221     0622  0867               	movf	coord_to_microdeg@i_213+1,w
  5222     0623  3D7B               	addwfc	coord_to_microdeg@field+1,w
  5223     0624  0087               	movwf	7
  5224     0625  0801               	movf	1,w
  5225     0626  00CA               	movwf	??_coord_to_microdeg
  5226     0627  01CB               	clrf	??_coord_to_microdeg+1
  5227     0628  0861               	movf	coord_to_microdeg@frac+1,w
  5228     0629  00F1               	movwf	___wmul@multiplier+1
  5229     062A  0860               	movf	coord_to_microdeg@frac,w
  5230     062B  00F0               	movwf	___wmul@multiplier
  5231     062C  300A               	movlw	10
  5232     062D  00F2               	movwf	___wmul@multiplicand
  5233     062E  3000               	movlw	0
  5234     062F  00F3               	movwf	___wmul@multiplicand+1
  5235     0630  3188  20BD  3185   	fcall	___wmul
  5236     0633  0020               	movlb	0	; select bank0
  5237     0634  084A               	movf	??_coord_to_microdeg,w
  5238     0635  0770               	addwf	?___wmul,w
  5239     0636  00CC               	movwf	??_coord_to_microdeg+2
  5240     0637  084B               	movf	??_coord_to_microdeg+1,w
  5241     0638  3D71               	addwfc	?___wmul+1,w
  5242     0639  00CD               	movwf	??_coord_to_microdeg+3
  5243     063A  084C               	movf	??_coord_to_microdeg+2,w
  5244     063B  3ED0               	addlw	208
  5245     063C  00E0               	movwf	coord_to_microdeg@frac
  5246     063D  30FF               	movlw	255
  5247     063E  3D4D               	addwfc	??_coord_to_microdeg+3,w
  5248     063F  00E1               	movwf	coord_to_microdeg@frac+1
  5249     0640                     l2514:
  5250     0640  3001               	movlw	1
  5251     0641  07E6               	addwf	coord_to_microdeg@i_213,f
  5252     0642  3000               	movlw	0
  5253     0643  3DE7               	addwfc	coord_to_microdeg@i_213+1,f
  5254     0644                     l2516:
  5255                           
  5256                           ;main.c: 196:             scale *= 10;
  5257     0644  300A               	movlw	10
  5258     0645  00F0               	movwf	___wmul@multiplier
  5259     0646  3000               	movlw	0
  5260     0647  00F1               	movwf	___wmul@multiplier+1
  5261     0648  0863               	movf	coord_to_microdeg@scale+1,w
  5262     0649  00F3               	movwf	___wmul@multiplicand+1
  5263     064A  0862               	movf	coord_to_microdeg@scale,w
  5264     064B  00F2               	movwf	___wmul@multiplicand
  5265     064C  3188  20BD  3185   	fcall	___wmul
  5266     064F  0871               	movf	?___wmul+1,w
  5267     0650  0020               	movlb	0	; select bank0
  5268     0651  00E3               	movwf	coord_to_microdeg@scale+1
  5269     0652  0870               	movf	?___wmul,w
  5270     0653  00E2               	movwf	coord_to_microdeg@scale
  5271     0654                     l2518:
  5272                           
  5273                           ;main.c: 194:         while (field[i] && field[i] >= '0' && field[i] <= '9' && scale < 1
      +                          000000) {
  5274     0654  0866               	movf	coord_to_microdeg@i_213,w
  5275     0655  077A               	addwf	coord_to_microdeg@field,w
  5276     0656  0086               	movwf	6
  5277     0657  0867               	movf	coord_to_microdeg@i_213+1,w
  5278     0658  3D7B               	addwfc	coord_to_microdeg@field+1,w
  5279     0659  0087               	movwf	7
  5280     065A  0801               	movf	1,w
  5281     065B  1903               	btfsc	3,2
  5282     065C  2E5E               	goto	u2961
  5283     065D  2E5F               	goto	u2960
  5284     065E                     u2961:
  5285     065E  2E77               	goto	l2524
  5286     065F                     u2960:
  5287     065F                     l2520:
  5288     065F  0866               	movf	coord_to_microdeg@i_213,w
  5289     0660  077A               	addwf	coord_to_microdeg@field,w
  5290     0661  0086               	movwf	6
  5291     0662  0867               	movf	coord_to_microdeg@i_213+1,w
  5292     0663  3D7B               	addwfc	coord_to_microdeg@field+1,w
  5293     0664  0087               	movwf	7
  5294     0665  3030               	movlw	48
  5295     0666  0201               	subwf	1,w
  5296     0667  1C03               	skipc
  5297     0668  2E6A               	goto	u2971
  5298     0669  2E6B               	goto	u2970
  5299     066A                     u2971:
  5300     066A  2E77               	goto	l2524
  5301     066B                     u2970:
  5302     066B                     l2522:
  5303     066B  0866               	movf	coord_to_microdeg@i_213,w
  5304     066C  077A               	addwf	coord_to_microdeg@field,w
  5305     066D  0086               	movwf	6
  5306     066E  0867               	movf	coord_to_microdeg@i_213+1,w
  5307     066F  3D7B               	addwfc	coord_to_microdeg@field+1,w
  5308     0670  0087               	movwf	7
  5309     0671  303A               	movlw	58
  5310     0672  0201               	subwf	1,w
  5311     0673  1C03               	skipc
  5312     0674  2E76               	goto	u2981
  5313     0675  2E77               	goto	u2980
  5314     0676                     u2981:
  5315     0676  2E1F               	goto	l2512
  5316     0677                     u2980:
  5317     0677                     l2524:
  5318                           
  5319                           ;main.c: 200:     int64_t micro = (int64_t)deg * 1000000LL;
  5320     0677  085C               	movf	coord_to_microdeg@deg,w
  5321     0678  00A0               	movwf	___omul@multiplier
  5322     0679  085D               	movf	coord_to_microdeg@deg+1,w
  5323     067A  00A1               	movwf	___omul@multiplier+1
  5324     067B  0D89               	rlf	9,f
  5325     067C  3B89               	subwfb	9,f
  5326     067D  0989               	comf	9,f
  5327     067E  00A2               	movwf	___omul@multiplier+2
  5328     067F  00A3               	movwf	___omul@multiplier+3
  5329     0680  00A4               	movwf	___omul@multiplier+4
  5330     0681  00A5               	movwf	___omul@multiplier+5
  5331     0682  00A6               	movwf	___omul@multiplier+6
  5332     0683  00A7               	movwf	___omul@multiplier+7
  5333     0684  3000               	movlw	0
  5334     0685  00AF               	movwf	___omul@multiplicand+7
  5335     0686  3000               	movlw	0
  5336     0687  00AE               	movwf	___omul@multiplicand+6
  5337     0688  3000               	movlw	0
  5338     0689  00AD               	movwf	___omul@multiplicand+5
  5339     068A  3000               	movlw	0
  5340     068B  00AC               	movwf	___omul@multiplicand+4
  5341     068C  3000               	movlw	0
  5342     068D  00AB               	movwf	___omul@multiplicand+3
  5343     068E  300F               	movlw	15
  5344     068F  00AA               	movwf	___omul@multiplicand+2
  5345     0690  3042               	movlw	66
  5346     0691  00A9               	movwf	___omul@multiplicand+1
  5347     0692  3040               	movlw	64
  5348     0693  00A8               	movwf	___omul@multiplicand
  5349     0694  318A  226A  3185   	fcall	___omul
  5350     0697  0020               	movlb	0	; select bank0
  5351     0698  0820               	movf	?___omul,w
  5352     0699  00D4               	movwf	coord_to_microdeg@micro
  5353     069A  0821               	movf	?___omul+1,w
  5354     069B  00D5               	movwf	coord_to_microdeg@micro+1
  5355     069C  0822               	movf	?___omul+2,w
  5356     069D  00D6               	movwf	coord_to_microdeg@micro+2
  5357     069E  0823               	movf	?___omul+3,w
  5358     069F  00D7               	movwf	coord_to_microdeg@micro+3
  5359     06A0  0824               	movf	?___omul+4,w
  5360     06A1  00D8               	movwf	coord_to_microdeg@micro+4
  5361     06A2  0825               	movf	?___omul+5,w
  5362     06A3  00D9               	movwf	coord_to_microdeg@micro+5
  5363     06A4  0826               	movf	?___omul+6,w
  5364     06A5  00DA               	movwf	coord_to_microdeg@micro+6
  5365     06A6  0827               	movf	?___omul+7,w
  5366     06A7  00DB               	movwf	coord_to_microdeg@micro+7
  5367                           
  5368                           ;main.c: 201:     micro += ((int64_t)min_int * 1000000LL + 30) / 60;
  5369     06A8  303C               	movlw	60
  5370     06A9  00B0               	movwf	___aodiv@divisor
  5371     06AA  01B1               	clrf	___aodiv@divisor+1
  5372     06AB  01B2               	clrf	___aodiv@divisor+2
  5373     06AC  01B3               	clrf	___aodiv@divisor+3
  5374     06AD  01B4               	clrf	___aodiv@divisor+4
  5375     06AE  01B5               	clrf	___aodiv@divisor+5
  5376     06AF  01B6               	clrf	___aodiv@divisor+6
  5377     06B0  01B7               	clrf	___aodiv@divisor+7
  5378     06B1  301E               	movlw	30
  5379     06B2  00CA               	movwf	??_coord_to_microdeg
  5380     06B3  3000               	movlw	0
  5381     06B4  00CB               	movwf	??_coord_to_microdeg+1
  5382     06B5  3000               	movlw	0
  5383     06B6  00CC               	movwf	??_coord_to_microdeg+2
  5384     06B7  3000               	movlw	0
  5385     06B8  00CD               	movwf	??_coord_to_microdeg+3
  5386     06B9  3000               	movlw	0
  5387     06BA  00CE               	movwf	??_coord_to_microdeg+4
  5388     06BB  3000               	movlw	0
  5389     06BC  00CF               	movwf	??_coord_to_microdeg+5
  5390     06BD  3000               	movlw	0
  5391     06BE  00D0               	movwf	??_coord_to_microdeg+6
  5392     06BF  3000               	movlw	0
  5393     06C0  00D1               	movwf	??_coord_to_microdeg+7
  5394     06C1  0852               	movf	coord_to_microdeg@min_int,w
  5395     06C2  00A0               	movwf	___omul@multiplier
  5396     06C3  0853               	movf	coord_to_microdeg@min_int+1,w
  5397     06C4  00A1               	movwf	___omul@multiplier+1
  5398     06C5  0D89               	rlf	9,f
  5399     06C6  3B89               	subwfb	9,f
  5400     06C7  0989               	comf	9,f
  5401     06C8  00A2               	movwf	___omul@multiplier+2
  5402     06C9  00A3               	movwf	___omul@multiplier+3
  5403     06CA  00A4               	movwf	___omul@multiplier+4
  5404     06CB  00A5               	movwf	___omul@multiplier+5
  5405     06CC  00A6               	movwf	___omul@multiplier+6
  5406     06CD  00A7               	movwf	___omul@multiplier+7
  5407     06CE  3000               	movlw	0
  5408     06CF  00AF               	movwf	___omul@multiplicand+7
  5409     06D0  3000               	movlw	0
  5410     06D1  00AE               	movwf	___omul@multiplicand+6
  5411     06D2  3000               	movlw	0
  5412     06D3  00AD               	movwf	___omul@multiplicand+5
  5413     06D4  3000               	movlw	0
  5414     06D5  00AC               	movwf	___omul@multiplicand+4
  5415     06D6  3000               	movlw	0
  5416     06D7  00AB               	movwf	___omul@multiplicand+3
  5417     06D8  300F               	movlw	15
  5418     06D9  00AA               	movwf	___omul@multiplicand+2
  5419     06DA  3042               	movlw	66
  5420     06DB  00A9               	movwf	___omul@multiplicand+1
  5421     06DC  3040               	movlw	64
  5422     06DD  00A8               	movwf	___omul@multiplicand
  5423     06DE  318A  226A  3185   	fcall	___omul
  5424     06E1  0020               	movlb	0	; select bank0
  5425     06E2  3020               	movlw	low ?___omul
  5426     06E3  0086               	movwf	6
  5427     06E4  3000               	movlw	high ?___omul
  5428     06E5  0087               	movwf	7
  5429     06E6  3F40               	moviw [0]fsr1
  5430     06E7  07CA               	addwf	??_coord_to_microdeg,f
  5431     06E8  3F41               	moviw [1]fsr1
  5432     06E9  3DCB               	addwfc	??_coord_to_microdeg+1,f
  5433     06EA  3F42               	moviw [2]fsr1
  5434     06EB  3DCC               	addwfc	??_coord_to_microdeg+2,f
  5435     06EC  3F43               	moviw [3]fsr1
  5436     06ED  3DCD               	addwfc	??_coord_to_microdeg+3,f
  5437     06EE  3F44               	moviw [4]fsr1
  5438     06EF  3DCE               	addwfc	??_coord_to_microdeg+4,f
  5439     06F0  3F45               	moviw [5]fsr1
  5440     06F1  3DCF               	addwfc	??_coord_to_microdeg+5,f
  5441     06F2  3F46               	moviw [6]fsr1
  5442     06F3  3DD0               	addwfc	??_coord_to_microdeg+6,f
  5443     06F4  3F47               	moviw [7]fsr1
  5444     06F5  3DD1               	addwfc	??_coord_to_microdeg+7,f
  5445     06F6  0851               	movf	??_coord_to_microdeg+7,w
  5446     06F7  00BF               	movwf	___aodiv@dividend+7
  5447     06F8  0850               	movf	??_coord_to_microdeg+6,w
  5448     06F9  00BE               	movwf	___aodiv@dividend+6
  5449     06FA  084F               	movf	??_coord_to_microdeg+5,w
  5450     06FB  00BD               	movwf	___aodiv@dividend+5
  5451     06FC  084E               	movf	??_coord_to_microdeg+4,w
  5452     06FD  00BC               	movwf	___aodiv@dividend+4
  5453     06FE  084D               	movf	??_coord_to_microdeg+3,w
  5454     06FF  00BB               	movwf	___aodiv@dividend+3
  5455     0700  084C               	movf	??_coord_to_microdeg+2,w
  5456     0701  00BA               	movwf	___aodiv@dividend+2
  5457     0702  084B               	movf	??_coord_to_microdeg+1,w
  5458     0703  00B9               	movwf	___aodiv@dividend+1
  5459     0704  084A               	movf	??_coord_to_microdeg,w
  5460     0705  00B8               	movwf	___aodiv@dividend
  5461     0706  3180  208F  3185   	fcall	___aodiv
  5462     0709  0020               	movlb	0	; select bank0
  5463     070A  0830               	movf	?___aodiv,w
  5464     070B  07D4               	addwf	coord_to_microdeg@micro,f
  5465     070C  0831               	movf	?___aodiv+1,w
  5466     070D  3DD5               	addwfc	coord_to_microdeg@micro+1,f
  5467     070E  0832               	movf	?___aodiv+2,w
  5468     070F  3DD6               	addwfc	coord_to_microdeg@micro+2,f
  5469     0710  0833               	movf	?___aodiv+3,w
  5470     0711  3DD7               	addwfc	coord_to_microdeg@micro+3,f
  5471     0712  0834               	movf	?___aodiv+4,w
  5472     0713  3DD8               	addwfc	coord_to_microdeg@micro+4,f
  5473     0714  0835               	movf	?___aodiv+5,w
  5474     0715  3DD9               	addwfc	coord_to_microdeg@micro+5,f
  5475     0716  0836               	movf	?___aodiv+6,w
  5476     0717  3DDA               	addwfc	coord_to_microdeg@micro+6,f
  5477     0718  0837               	movf	?___aodiv+7,w
  5478     0719  3DDB               	addwfc	coord_to_microdeg@micro+7,f
  5479                           
  5480                           ;main.c: 202:     micro += ((int64_t)frac * 1000000LL + (int64_t)scale * 30)
  5481     071A  0862               	movf	coord_to_microdeg@scale,w
  5482     071B  00A0               	movwf	___omul@multiplier
  5483     071C  0863               	movf	coord_to_microdeg@scale+1,w
  5484     071D  00A1               	movwf	___omul@multiplier+1
  5485     071E  0D89               	rlf	9,f
  5486     071F  3B89               	subwfb	9,f
  5487     0720  0989               	comf	9,f
  5488     0721  00A2               	movwf	___omul@multiplier+2
  5489     0722  00A3               	movwf	___omul@multiplier+3
  5490     0723  00A4               	movwf	___omul@multiplier+4
  5491     0724  00A5               	movwf	___omul@multiplier+5
  5492     0725  00A6               	movwf	___omul@multiplier+6
  5493     0726  00A7               	movwf	___omul@multiplier+7
  5494     0727  303C               	movlw	60
  5495     0728  00A8               	movwf	___omul@multiplicand
  5496     0729  01A9               	clrf	___omul@multiplicand+1
  5497     072A  01AA               	clrf	___omul@multiplicand+2
  5498     072B  01AB               	clrf	___omul@multiplicand+3
  5499     072C  01AC               	clrf	___omul@multiplicand+4
  5500     072D  01AD               	clrf	___omul@multiplicand+5
  5501     072E  01AE               	clrf	___omul@multiplicand+6
  5502     072F  01AF               	clrf	___omul@multiplicand+7
  5503     0730  318A  226A  3185   	fcall	___omul
  5504     0733  0020               	movlb	0	; select bank0
  5505     0734  0820               	movf	?___omul,w
  5506     0735  00B0               	movwf	___aodiv@divisor
  5507     0736  0821               	movf	?___omul+1,w
  5508     0737  00B1               	movwf	___aodiv@divisor+1
  5509     0738  0822               	movf	?___omul+2,w
  5510     0739  00B2               	movwf	___aodiv@divisor+2
  5511     073A  0823               	movf	?___omul+3,w
  5512     073B  00B3               	movwf	___aodiv@divisor+3
  5513     073C  0824               	movf	?___omul+4,w
  5514     073D  00B4               	movwf	___aodiv@divisor+4
  5515     073E  0825               	movf	?___omul+5,w
  5516     073F  00B5               	movwf	___aodiv@divisor+5
  5517     0740  0826               	movf	?___omul+6,w
  5518     0741  00B6               	movwf	___aodiv@divisor+6
  5519     0742  0827               	movf	?___omul+7,w
  5520     0743  00B7               	movwf	___aodiv@divisor+7
  5521     0744  0862               	movf	coord_to_microdeg@scale,w
  5522     0745  00A0               	movwf	___omul@multiplier
  5523     0746  0863               	movf	coord_to_microdeg@scale+1,w
  5524     0747  00A1               	movwf	___omul@multiplier+1
  5525     0748  0D89               	rlf	9,f
  5526     0749  3B89               	subwfb	9,f
  5527     074A  0989               	comf	9,f
  5528     074B  00A2               	movwf	___omul@multiplier+2
  5529     074C  00A3               	movwf	___omul@multiplier+3
  5530     074D  00A4               	movwf	___omul@multiplier+4
  5531     074E  00A5               	movwf	___omul@multiplier+5
  5532     074F  00A6               	movwf	___omul@multiplier+6
  5533     0750  00A7               	movwf	___omul@multiplier+7
  5534     0751  301E               	movlw	30
  5535     0752  00A8               	movwf	___omul@multiplicand
  5536     0753  01A9               	clrf	___omul@multiplicand+1
  5537     0754  01AA               	clrf	___omul@multiplicand+2
  5538     0755  01AB               	clrf	___omul@multiplicand+3
  5539     0756  01AC               	clrf	___omul@multiplicand+4
  5540     0757  01AD               	clrf	___omul@multiplicand+5
  5541     0758  01AE               	clrf	___omul@multiplicand+6
  5542     0759  01AF               	clrf	___omul@multiplicand+7
  5543     075A  318A  226A  3185   	fcall	___omul
  5544     075D  0020               	movlb	0	; select bank0
  5545     075E  3020               	movlw	low ?___omul
  5546     075F  0086               	movwf	6
  5547     0760  3000               	movlw	high ?___omul
  5548     0761  0087               	movwf	7
  5549     0762  3F40               	moviw [0]fsr1
  5550     0763  00CA               	movwf	??_coord_to_microdeg
  5551     0764  3F41               	moviw [1]fsr1
  5552     0765  00CB               	movwf	??_coord_to_microdeg+1
  5553     0766  3F42               	moviw [2]fsr1
  5554     0767  00CC               	movwf	??_coord_to_microdeg+2
  5555     0768  3F43               	moviw [3]fsr1
  5556     0769  00CD               	movwf	??_coord_to_microdeg+3
  5557     076A  3F44               	moviw [4]fsr1
  5558     076B  00CE               	movwf	??_coord_to_microdeg+4
  5559     076C  3F45               	moviw [5]fsr1
  5560     076D  00CF               	movwf	??_coord_to_microdeg+5
  5561     076E  3F46               	moviw [6]fsr1
  5562     076F  00D0               	movwf	??_coord_to_microdeg+6
  5563     0770  3F47               	moviw [7]fsr1
  5564     0771  00D1               	movwf	??_coord_to_microdeg+7
  5565     0772  0860               	movf	coord_to_microdeg@frac,w
  5566     0773  00A0               	movwf	___omul@multiplier
  5567     0774  0861               	movf	coord_to_microdeg@frac+1,w
  5568     0775  00A1               	movwf	___omul@multiplier+1
  5569     0776  0D89               	rlf	9,f
  5570     0777  3B89               	subwfb	9,f
  5571     0778  0989               	comf	9,f
  5572     0779  00A2               	movwf	___omul@multiplier+2
  5573     077A  00A3               	movwf	___omul@multiplier+3
  5574     077B  00A4               	movwf	___omul@multiplier+4
  5575     077C  00A5               	movwf	___omul@multiplier+5
  5576     077D  00A6               	movwf	___omul@multiplier+6
  5577     077E  00A7               	movwf	___omul@multiplier+7
  5578     077F  3000               	movlw	0
  5579     0780  00AF               	movwf	___omul@multiplicand+7
  5580     0781  3000               	movlw	0
  5581     0782  00AE               	movwf	___omul@multiplicand+6
  5582     0783  3000               	movlw	0
  5583     0784  00AD               	movwf	___omul@multiplicand+5
  5584     0785  3000               	movlw	0
  5585     0786  00AC               	movwf	___omul@multiplicand+4
  5586     0787  3000               	movlw	0
  5587     0788  00AB               	movwf	___omul@multiplicand+3
  5588     0789  300F               	movlw	15
  5589     078A  00AA               	movwf	___omul@multiplicand+2
  5590     078B  3042               	movlw	66
  5591     078C  00A9               	movwf	___omul@multiplicand+1
  5592     078D  3040               	movlw	64
  5593     078E  00A8               	movwf	___omul@multiplicand
  5594     078F  318A  226A  3185   	fcall	___omul
  5595     0792  0020               	movlb	0	; select bank0
  5596     0793  3020               	movlw	low ?___omul
  5597     0794  0086               	movwf	6
  5598     0795  3000               	movlw	high ?___omul
  5599     0796  0087               	movwf	7
  5600     0797  3F40               	moviw [0]fsr1
  5601     0798  07CA               	addwf	??_coord_to_microdeg,f
  5602     0799  3F41               	moviw [1]fsr1
  5603     079A  3DCB               	addwfc	??_coord_to_microdeg+1,f
  5604     079B  3F42               	moviw [2]fsr1
  5605     079C  3DCC               	addwfc	??_coord_to_microdeg+2,f
  5606     079D  3F43               	moviw [3]fsr1
  5607     079E  3DCD               	addwfc	??_coord_to_microdeg+3,f
  5608     079F  3F44               	moviw [4]fsr1
  5609     07A0  3DCE               	addwfc	??_coord_to_microdeg+4,f
  5610     07A1  3F45               	moviw [5]fsr1
  5611     07A2  3DCF               	addwfc	??_coord_to_microdeg+5,f
  5612     07A3  3F46               	moviw [6]fsr1
  5613     07A4  3DD0               	addwfc	??_coord_to_microdeg+6,f
  5614     07A5  3F47               	moviw [7]fsr1
  5615     07A6  3DD1               	addwfc	??_coord_to_microdeg+7,f
  5616     07A7  0851               	movf	??_coord_to_microdeg+7,w
  5617     07A8  00BF               	movwf	___aodiv@dividend+7
  5618     07A9  0850               	movf	??_coord_to_microdeg+6,w
  5619     07AA  00BE               	movwf	___aodiv@dividend+6
  5620     07AB  084F               	movf	??_coord_to_microdeg+5,w
  5621     07AC  00BD               	movwf	___aodiv@dividend+5
  5622     07AD  084E               	movf	??_coord_to_microdeg+4,w
  5623     07AE  00BC               	movwf	___aodiv@dividend+4
  5624     07AF  084D               	movf	??_coord_to_microdeg+3,w
  5625     07B0  00BB               	movwf	___aodiv@dividend+3
  5626     07B1  084C               	movf	??_coord_to_microdeg+2,w
  5627     07B2  00BA               	movwf	___aodiv@dividend+2
  5628     07B3  084B               	movf	??_coord_to_microdeg+1,w
  5629     07B4  00B9               	movwf	___aodiv@dividend+1
  5630     07B5  084A               	movf	??_coord_to_microdeg,w
  5631     07B6  00B8               	movwf	___aodiv@dividend
  5632     07B7  3180  208F  3185   	fcall	___aodiv
  5633     07BA  0020               	movlb	0	; select bank0
  5634     07BB  0830               	movf	?___aodiv,w
  5635     07BC  07D4               	addwf	coord_to_microdeg@micro,f
  5636     07BD  0831               	movf	?___aodiv+1,w
  5637     07BE  3DD5               	addwfc	coord_to_microdeg@micro+1,f
  5638     07BF  0832               	movf	?___aodiv+2,w
  5639     07C0  3DD6               	addwfc	coord_to_microdeg@micro+2,f
  5640     07C1  0833               	movf	?___aodiv+3,w
  5641     07C2  3DD7               	addwfc	coord_to_microdeg@micro+3,f
  5642     07C3  0834               	movf	?___aodiv+4,w
  5643     07C4  3DD8               	addwfc	coord_to_microdeg@micro+4,f
  5644     07C5  0835               	movf	?___aodiv+5,w
  5645     07C6  3DD9               	addwfc	coord_to_microdeg@micro+5,f
  5646     07C7  0836               	movf	?___aodiv+6,w
  5647     07C8  3DDA               	addwfc	coord_to_microdeg@micro+6,f
  5648     07C9  0837               	movf	?___aodiv+7,w
  5649     07CA  3DDB               	addwfc	coord_to_microdeg@micro+7,f
  5650     07CB                     l2526:
  5651                           
  5652                           ;main.c: 205:     *out = (int32_t)micro;
  5653     07CB  087D               	movf	coord_to_microdeg@out,w
  5654     07CC  0086               	movwf	6
  5655     07CD  0187               	clrf	7
  5656     07CE  0854               	movf	coord_to_microdeg@micro,w
  5657     07CF  3FC0               	movwi [0]fsr1
  5658     07D0  0855               	movf	coord_to_microdeg@micro+1,w
  5659     07D1  3FC1               	movwi [1]fsr1
  5660     07D2  0856               	movf	coord_to_microdeg@micro+2,w
  5661     07D3  3FC2               	movwi [2]fsr1
  5662     07D4  0857               	movf	coord_to_microdeg@micro+3,w
  5663     07D5  3FC3               	movwi [3]fsr1
  5664     07D6                     l2528:
  5665                           
  5666                           ;main.c: 206:     return 1;
  5667     07D6  3001               	movlw	1
  5668     07D7  00FA               	movwf	?_coord_to_microdeg
  5669     07D8  3000               	movlw	0
  5670     07D9  00FB               	movwf	?_coord_to_microdeg+1
  5671     07DA                     l166:
  5672     07DA  0008               	return
  5673     07DB                     __end_of_coord_to_microdeg:
  5674                           
  5675                           	psect	text15
  5676     08BD                     __ptext15:	
  5677 ;; *************** function ___wmul *****************
  5678 ;; Defined at:
  5679 ;;		line 15 in file "C:\Program Files\Microchip\xc8\v2.46\pic\sources\c99\common\Umul16.c"
  5680 ;; Parameters:    Size  Location     Type
  5681 ;;  multiplier      2    0[COMMON] unsigned int 
  5682 ;;  multiplicand    2    2[COMMON] unsigned int 
  5683 ;; Auto vars:     Size  Location     Type
  5684 ;;  product         2    4[COMMON] unsigned int 
  5685 ;; Return value:  Size  Location     Type
  5686 ;;                  2    0[COMMON] unsigned int 
  5687 ;; Registers used:
  5688 ;;		wreg, status,2, status,0
  5689 ;; Tracked objects:
  5690 ;;		On entry : 0/0
  5691 ;;		On exit  : 0/0
  5692 ;;		Unchanged: 0/0
  5693 ;; Data sizes:     COMMON   BANK0   BANK1   BANK2   BANK3   BANK4   BANK5   BANK6   BANK7   BANK8   BANK9  BANK10  BANK1
      +1  BANK12  BANK13  BANK14  BANK15  BANK16  BANK17  BANK18  BANK19  BANK20  BANK21  BANK22  BANK23  BANK24  BANK25
  5694 ;;      Params:         4       0       0       0       0       0       0       0       0       0       0       0       
      +0       0       0       0       0       0       0       0       0       0       0       0       0       0       0
  5695 ;;      Locals:         2       0       0       0       0       0       0       0       0       0       0       0       
      +0       0       0       0       0       0       0       0       0       0       0       0       0       0       0
  5696 ;;      Temps:          0       0       0       0       0       0       0       0       0       0       0       0       
      +0       0       0       0       0       0       0       0       0       0       0       0       0       0       0
  5697 ;;      Totals:         6       0       0       0       0       0       0       0       0       0       0       0       
      +0       0       0       0       0       0       0       0       0       0       0       0       0       0       0
  5698 ;;Total ram usage:        6 bytes
  5699 ;; Hardware stack levels used: 1
  5700 ;; This function calls:
  5701 ;;		Nothing
  5702 ;; This function is called by:
  5703 ;;		_parse_u8
  5704 ;;		_parse_hdop_x100
  5705 ;;		_coord_to_microdeg
  5706 ;;		_itoa
  5707 ;; This function uses a non-reentrant model
  5708 ;;
  5709                           
  5710     08BD                     ___wmul:	
  5711                           ;psect for function ___wmul
  5712                           
  5713     08BD                     l2074:	
  5714                           ;incstack = 0
  5715                           ; Regs used in ___wmul: [wreg+status,2+status,0]
  5716                           
  5717     08BD  01F4               	clrf	___wmul@product
  5718     08BE  01F5               	clrf	___wmul@product+1
  5719     08BF                     l2076:
  5720     08BF  1C70               	btfss	___wmul@multiplier,0
  5721     08C0  28C2               	goto	u2051
  5722     08C1  28C3               	goto	u2050
  5723     08C2                     u2051:
  5724     08C2  28C7               	goto	l459
  5725     08C3                     u2050:
  5726     08C3                     l2078:
  5727     08C3  0872               	movf	___wmul@multiplicand,w
  5728     08C4  07F4               	addwf	___wmul@product,f
  5729     08C5  0873               	movf	___wmul@multiplicand+1,w
  5730     08C6  3DF5               	addwfc	___wmul@product+1,f
  5731     08C7                     l459:
  5732     08C7  3001               	movlw	1
  5733     08C8                     u2065:
  5734     08C8  35F2               	lslf	___wmul@multiplicand,f
  5735     08C9  0DF3               	rlf	___wmul@multiplicand+1,f
  5736     08CA  0B89               	decfsz	9,f
  5737     08CB  28C8               	goto	u2065
  5738     08CC                     l2080:
  5739     08CC  3001               	movlw	1
  5740     08CD                     u2075:
  5741     08CD  36F1               	lsrf	___wmul@multiplier+1,f
  5742     08CE  0CF0               	rrf	___wmul@multiplier,f
  5743     08CF  0B89               	decfsz	9,f
  5744     08D0  28CD               	goto	u2075
  5745     08D1                     l2082:
  5746     08D1  0870               	movf	___wmul@multiplier,w
  5747     08D2  0471               	iorwf	___wmul@multiplier+1,w
  5748     08D3  1D03               	btfss	3,2
  5749     08D4  28D6               	goto	u2081
  5750     08D5  28D7               	goto	u2080
  5751     08D6                     u2081:
  5752     08D6  28BF               	goto	l2076
  5753     08D7                     u2080:
  5754     08D7                     l2084:
  5755     08D7  0875               	movf	___wmul@product+1,w
  5756     08D8  00F1               	movwf	?___wmul+1
  5757     08D9  0874               	movf	___wmul@product,w
  5758     08DA  00F0               	movwf	?___wmul
  5759     08DB                     l461:
  5760     08DB  0008               	return
  5761     08DC                     __end_of___wmul:
  5762                           
  5763                           	psect	text16
  5764     0A6A                     __ptext16:	
  5765 ;; *************** function ___omul *****************
  5766 ;; Defined at:
  5767 ;;		line 91 in file "C:\Program Files\Microchip\xc8\v2.46\pic\sources\c99\common\Umul64.c"
  5768 ;; Parameters:    Size  Location     Type
  5769 ;;  multiplier      8    0[BANK0 ] unsigned long long 
  5770 ;;  multiplicand    8    8[BANK0 ] unsigned long long 
  5771 ;; Auto vars:     Size  Location     Type
  5772 ;;  product         8    1[COMMON] unsigned long long 
  5773 ;; Return value:  Size  Location     Type
  5774 ;;                  8    0[BANK0 ] unsigned long long 
  5775 ;; Registers used:
  5776 ;;		wreg, fsr1l, fsr1h, status,2, status,0
  5777 ;; Tracked objects:
  5778 ;;		On entry : 0/0
  5779 ;;		On exit  : 0/0
  5780 ;;		Unchanged: 0/0
  5781 ;; Data sizes:     COMMON   BANK0   BANK1   BANK2   BANK3   BANK4   BANK5   BANK6   BANK7   BANK8   BANK9  BANK10  BANK1
      +1  BANK12  BANK13  BANK14  BANK15  BANK16  BANK17  BANK18  BANK19  BANK20  BANK21  BANK22  BANK23  BANK24  BANK25
  5782 ;;      Params:         0      16       0       0       0       0       0       0       0       0       0       0       
      +0       0       0       0       0       0       0       0       0       0       0       0       0       0       0
  5783 ;;      Locals:         8       0       0       0       0       0       0       0       0       0       0       0       
      +0       0       0       0       0       0       0       0       0       0       0       0       0       0       0
  5784 ;;      Temps:          1       0       0       0       0       0       0       0       0       0       0       0       
      +0       0       0       0       0       0       0       0       0       0       0       0       0       0       0
  5785 ;;      Totals:         9      16       0       0       0       0       0       0       0       0       0       0       
      +0       0       0       0       0       0       0       0       0       0       0       0       0       0       0
  5786 ;;Total ram usage:       25 bytes
  5787 ;; Hardware stack levels used: 1
  5788 ;; This function calls:
  5789 ;;		Nothing
  5790 ;; This function is called by:
  5791 ;;		_coord_to_microdeg
  5792 ;; This function uses a non-reentrant model
  5793 ;;
  5794                           
  5795     0A6A                     ___omul:	
  5796                           ;psect for function ___omul
  5797                           
  5798     0A6A                     l2354:	
  5799                           ;incstack = 0
  5800                           ; Regs used in ___omul: [wreg+fsr1l+fsr1h+status,2+status,0]
  5801                           
  5802     0A6A  3071               	movlw	low ___omul@product
  5803     0A6B  0086               	movwf	6
  5804     0A6C  3000               	movlw	high ___omul@product
  5805     0A6D  0087               	movwf	7
  5806     0A6E  3008               	movlw	8
  5807     0A6F  00F0               	movwf	??___omul
  5808     0A70  3000               	movlw	0
  5809     0A71                     u2620:
  5810     0A71  001E               	movwi fsr1++
  5811     0A72  0BF0               	decfsz	??___omul,f
  5812     0A73  2A71               	goto	u2620
  5813     0A74                     l2356:
  5814     0A74  0020               	movlb	0	; select bank0
  5815     0A75  1C20               	btfss	___omul@multiplier,0
  5816     0A76  2A78               	goto	u2631
  5817     0A77  2A79               	goto	u2630
  5818     0A78                     u2631:
  5819     0A78  2A89               	goto	l2360
  5820     0A79                     u2630:
  5821     0A79                     l2358:
  5822     0A79  0828               	movf	___omul@multiplicand,w
  5823     0A7A  07F1               	addwf	___omul@product,f
  5824     0A7B  0829               	movf	___omul@multiplicand+1,w
  5825     0A7C  3DF2               	addwfc	___omul@product+1,f
  5826     0A7D  082A               	movf	___omul@multiplicand+2,w
  5827     0A7E  3DF3               	addwfc	___omul@product+2,f
  5828     0A7F  082B               	movf	___omul@multiplicand+3,w
  5829     0A80  3DF4               	addwfc	___omul@product+3,f
  5830     0A81  082C               	movf	___omul@multiplicand+4,w
  5831     0A82  3DF5               	addwfc	___omul@product+4,f
  5832     0A83  082D               	movf	___omul@multiplicand+5,w
  5833     0A84  3DF6               	addwfc	___omul@product+5,f
  5834     0A85  082E               	movf	___omul@multiplicand+6,w
  5835     0A86  3DF7               	addwfc	___omul@product+6,f
  5836     0A87  082F               	movf	___omul@multiplicand+7,w
  5837     0A88  3DF8               	addwfc	___omul@product+7,f
  5838     0A89                     l2360:
  5839     0A89  35A8               	lslf	___omul@multiplicand,f
  5840     0A8A  0DA9               	rlf	___omul@multiplicand+1,f
  5841     0A8B  0DAA               	rlf	___omul@multiplicand+2,f
  5842     0A8C  0DAB               	rlf	___omul@multiplicand+3,f
  5843     0A8D  0DAC               	rlf	___omul@multiplicand+4,f
  5844     0A8E  0DAD               	rlf	___omul@multiplicand+5,f
  5845     0A8F  0DAE               	rlf	___omul@multiplicand+6,f
  5846     0A90  0DAF               	rlf	___omul@multiplicand+7,f
  5847     0A91                     l2362:
  5848     0A91  36A7               	lsrf	___omul@multiplier+7,f
  5849     0A92  0CA6               	rrf	___omul@multiplier+6,f
  5850     0A93  0CA5               	rrf	___omul@multiplier+5,f
  5851     0A94  0CA4               	rrf	___omul@multiplier+4,f
  5852     0A95  0CA3               	rrf	___omul@multiplier+3,f
  5853     0A96  0CA2               	rrf	___omul@multiplier+2,f
  5854     0A97  0CA1               	rrf	___omul@multiplier+1,f
  5855     0A98  0CA0               	rrf	___omul@multiplier,f
  5856     0A99  0820               	movf	___omul@multiplier,w
  5857     0A9A  0421               	iorwf	___omul@multiplier+1,w
  5858     0A9B  0422               	iorwf	___omul@multiplier+2,w
  5859     0A9C  0423               	iorwf	___omul@multiplier+3,w
  5860     0A9D  0424               	iorwf	___omul@multiplier+4,w
  5861     0A9E  0425               	iorwf	___omul@multiplier+5,w
  5862     0A9F  0426               	iorwf	___omul@multiplier+6,w
  5863     0AA0  0427               	iorwf	___omul@multiplier+7,w
  5864     0AA1  1D03               	skipz
  5865     0AA2  2AA4               	goto	u2641
  5866     0AA3  2AA5               	goto	u2640
  5867     0AA4                     u2641:
  5868     0AA4  2A74               	goto	l2356
  5869     0AA5                     u2640:
  5870     0AA5                     l478:
  5871     0AA5  0871               	movf	___omul@product,w
  5872     0AA6  00A0               	movwf	?___omul
  5873     0AA7  0872               	movf	___omul@product+1,w
  5874     0AA8  00A1               	movwf	?___omul+1
  5875     0AA9  0873               	movf	___omul@product+2,w
  5876     0AAA  00A2               	movwf	?___omul+2
  5877     0AAB  0874               	movf	___omul@product+3,w
  5878     0AAC  00A3               	movwf	?___omul+3
  5879     0AAD  0875               	movf	___omul@product+4,w
  5880     0AAE  00A4               	movwf	?___omul+4
  5881     0AAF  0876               	movf	___omul@product+5,w
  5882     0AB0  00A5               	movwf	?___omul+5
  5883     0AB1  0877               	movf	___omul@product+6,w
  5884     0AB2  00A6               	movwf	?___omul+6
  5885     0AB3  0878               	movf	___omul@product+7,w
  5886     0AB4  00A7               	movwf	?___omul+7
  5887     0AB5                     l479:
  5888     0AB5  0008               	return
  5889     0AB6                     __end_of___omul:
  5890                           
  5891                           	psect	text17
  5892     0863                     __ptext17:	
  5893 ;; *************** function _avg_ready *****************
  5894 ;; Defined at:
  5895 ;;		line 271 in file "main.c"
  5896 ;; Parameters:    Size  Location     Type
  5897 ;;		None
  5898 ;; Auto vars:     Size  Location     Type
  5899 ;;		None
  5900 ;; Return value:  Size  Location     Type
  5901 ;;                  1    wreg      unsigned char 
  5902 ;; Registers used:
  5903 ;;		wreg
  5904 ;; Tracked objects:
  5905 ;;		On entry : 0/0
  5906 ;;		On exit  : 0/0
  5907 ;;		Unchanged: 0/0
  5908 ;; Data sizes:     COMMON   BANK0   BANK1   BANK2   BANK3   BANK4   BANK5   BANK6   BANK7   BANK8   BANK9  BANK10  BANK1
      +1  BANK12  BANK13  BANK14  BANK15  BANK16  BANK17  BANK18  BANK19  BANK20  BANK21  BANK22  BANK23  BANK24  BANK25
  5909 ;;      Params:         0       0       0       0       0       0       0       0       0       0       0       0       
      +0       0       0       0       0       0       0       0       0       0       0       0       0       0       0
  5910 ;;      Locals:         0       0       0       0       0       0       0       0       0       0       0       0       
      +0       0       0       0       0       0       0       0       0       0       0       0       0       0       0
  5911 ;;      Temps:          0       0       0       0       0       0       0       0       0       0       0       0       
      +0       0       0       0       0       0       0       0       0       0       0       0       0       0       0
  5912 ;;      Totals:         0       0       0       0       0       0       0       0       0       0       0       0       
      +0       0       0       0       0       0       0       0       0       0       0       0       0       0       0
  5913 ;;Total ram usage:        0 bytes
  5914 ;; Hardware stack levels used: 1
  5915 ;; This function calls:
  5916 ;;		Nothing
  5917 ;; This function is called by:
  5918 ;;		_main
  5919 ;; This function uses a non-reentrant model
  5920 ;;
  5921                           
  5922     0863                     _avg_ready:	
  5923                           ;psect for function _avg_ready
  5924                           
  5925     0863                     l2590:	
  5926                           ;incstack = 0
  5927                           ; Regs used in _avg_ready: [wreg]
  5928                           
  5929                           
  5930                           ;main.c: 273:     return (avg_count >= 8);
  5931     0863  3008               	movlw	8
  5932     0864  0020               	movlb	0	; select bank0
  5933     0865  026A               	subwf	_avg_count,w
  5934     0866  1803               	skipnc
  5935     0867  2869               	goto	u3081
  5936     0868  286B               	goto	u3080
  5937     0869                     u3081:
  5938     0869  3001               	movlw	1
  5939     086A  286C               	goto	u3090
  5940     086B                     u3080:
  5941     086B  3000               	movlw	0
  5942     086C                     u3090:
  5943     086C                     l204:
  5944     086C  0008               	return
  5945     086D                     __end_of_avg_ready:
  5946                           
  5947                           	psect	text18
  5948     0193                     __ptext18:	
  5949 ;; *************** function _avg_print *****************
  5950 ;; Defined at:
  5951 ;;		line 276 in file "main.c"
  5952 ;; Parameters:    Size  Location     Type
  5953 ;;		None
  5954 ;; Auto vars:     Size  Location     Type
  5955 ;;  lon_avg         4   48[BANK0 ] long 
  5956 ;;  lat_avg         4   44[BANK0 ] long 
  5957 ;; Return value:  Size  Location     Type
  5958 ;;                  1    wreg      void 
  5959 ;; Registers used:
  5960 ;;		wreg, fsr0l, fsr0h, fsr1l, fsr1h, status,2, status,0, pclath, cstack
  5961 ;; Tracked objects:
  5962 ;;		On entry : 0/0
  5963 ;;		On exit  : 0/0
  5964 ;;		Unchanged: 0/0
  5965 ;; Data sizes:     COMMON   BANK0   BANK1   BANK2   BANK3   BANK4   BANK5   BANK6   BANK7   BANK8   BANK9  BANK10  BANK1
      +1  BANK12  BANK13  BANK14  BANK15  BANK16  BANK17  BANK18  BANK19  BANK20  BANK21  BANK22  BANK23  BANK24  BANK25
  5966 ;;      Params:         0       0       0       0       0       0       0       0       0       0       0       0       
      +0       0       0       0       0       0       0       0       0       0       0       0       0       0       0
  5967 ;;      Locals:         0      10       0       0       0       0       0       0       0       0       0       0       
      +0       0       0       0       0       0       0       0       0       0       0       0       0       0       0
  5968 ;;      Temps:          0       2       0       0       0       0       0       0       0       0       0       0       
      +0       0       0       0       0       0       0       0       0       0       0       0       0       0       0
  5969 ;;      Totals:         0      12       0       0       0       0       0       0       0       0       0       0       
      +0       0       0       0       0       0       0       0       0       0       0       0       0       0       0
  5970 ;;Total ram usage:       12 bytes
  5971 ;; Hardware stack levels used: 1
  5972 ;; Hardware stack levels required when called: 6
  5973 ;; This function calls:
  5974 ;;		___aodiv
  5975 ;;		___lwdiv
  5976 ;;		___lwmod
  5977 ;;		_avg_reset
  5978 ;;		_suart_print_microdeg
  5979 ;;		_suart_print_uint16
  5980 ;;		_suart_putc
  5981 ;;		_suart_puts
  5982 ;; This function is called by:
  5983 ;;		_main
  5984 ;; This function uses a non-reentrant model
  5985 ;;
  5986                           
  5987     0193                     _avg_print:	
  5988                           ;psect for function _avg_print
  5989                           
  5990     0193                     l2594:	
  5991                           ;incstack = 0
  5992                           ; Regs used in _avg_print: [wreg-fsr1h+status,2+status,0+pclath+cstack]
  5993                           
  5994                           
  5995                           ;main.c: 278:     int32_t lat_avg = (int32_t)(sum_lat / (int64_t)8);
  5996     0193  3008               	movlw	8
  5997     0194  0020               	movlb	0	; select bank0
  5998     0195  00B0               	movwf	___aodiv@divisor
  5999     0196  01B1               	clrf	___aodiv@divisor+1
  6000     0197  01B2               	clrf	___aodiv@divisor+2
  6001     0198  01B3               	clrf	___aodiv@divisor+3
  6002     0199  01B4               	clrf	___aodiv@divisor+4
  6003     019A  01B5               	clrf	___aodiv@divisor+5
  6004     019B  01B6               	clrf	___aodiv@divisor+6
  6005     019C  01B7               	clrf	___aodiv@divisor+7
  6006     019D  0021               	movlb	1	; select bank1
  6007     019E  0828               	movf	_sum_lat^(0+128),w
  6008     019F  0020               	movlb	0	; select bank0
  6009     01A0  00B8               	movwf	___aodiv@dividend
  6010     01A1  0021               	movlb	1	; select bank1
  6011     01A2  0829               	movf	(_sum_lat+1)^(0+128),w
  6012     01A3  0020               	movlb	0	; select bank0
  6013     01A4  00B9               	movwf	___aodiv@dividend+1
  6014     01A5  0021               	movlb	1	; select bank1
  6015     01A6  082A               	movf	(_sum_lat+2)^(0+128),w
  6016     01A7  0020               	movlb	0	; select bank0
  6017     01A8  00BA               	movwf	___aodiv@dividend+2
  6018     01A9  0021               	movlb	1	; select bank1
  6019     01AA  082B               	movf	(_sum_lat+3)^(0+128),w
  6020     01AB  0020               	movlb	0	; select bank0
  6021     01AC  00BB               	movwf	___aodiv@dividend+3
  6022     01AD  0021               	movlb	1	; select bank1
  6023     01AE  082C               	movf	(_sum_lat+4)^(0+128),w
  6024     01AF  0020               	movlb	0	; select bank0
  6025     01B0  00BC               	movwf	___aodiv@dividend+4
  6026     01B1  0021               	movlb	1	; select bank1
  6027     01B2  082D               	movf	(_sum_lat+5)^(0+128),w
  6028     01B3  0020               	movlb	0	; select bank0
  6029     01B4  00BD               	movwf	___aodiv@dividend+5
  6030     01B5  0021               	movlb	1	; select bank1
  6031     01B6  082E               	movf	(_sum_lat+6)^(0+128),w
  6032     01B7  0020               	movlb	0	; select bank0
  6033     01B8  00BE               	movwf	___aodiv@dividend+6
  6034     01B9  0021               	movlb	1	; select bank1
  6035     01BA  082F               	movf	(_sum_lat+7)^(0+128),w
  6036     01BB  0020               	movlb	0	; select bank0
  6037     01BC  00BF               	movwf	___aodiv@dividend+7
  6038     01BD  3180  208F  3181   	fcall	___aodiv
  6039     01C0  0020               	movlb	0	; select bank0
  6040     01C1  0833               	movf	?___aodiv+3,w
  6041     01C2  00CF               	movwf	avg_print@lat_avg+3
  6042     01C3  0832               	movf	?___aodiv+2,w
  6043     01C4  00CE               	movwf	avg_print@lat_avg+2
  6044     01C5  0831               	movf	?___aodiv+1,w
  6045     01C6  00CD               	movwf	avg_print@lat_avg+1
  6046     01C7  0830               	movf	?___aodiv,w
  6047     01C8  00CC               	movwf	avg_print@lat_avg
  6048                           
  6049                           ;main.c: 279:     int32_t lon_avg = (int32_t)(sum_lon / (int64_t)8);
  6050     01C9  3008               	movlw	8
  6051     01CA  00B0               	movwf	___aodiv@divisor
  6052     01CB  01B1               	clrf	___aodiv@divisor+1
  6053     01CC  01B2               	clrf	___aodiv@divisor+2
  6054     01CD  01B3               	clrf	___aodiv@divisor+3
  6055     01CE  01B4               	clrf	___aodiv@divisor+4
  6056     01CF  01B5               	clrf	___aodiv@divisor+5
  6057     01D0  01B6               	clrf	___aodiv@divisor+6
  6058     01D1  01B7               	clrf	___aodiv@divisor+7
  6059     01D2  0021               	movlb	1	; select bank1
  6060     01D3  0820               	movf	_sum_lon^(0+128),w
  6061     01D4  0020               	movlb	0	; select bank0
  6062     01D5  00B8               	movwf	___aodiv@dividend
  6063     01D6  0021               	movlb	1	; select bank1
  6064     01D7  0821               	movf	(_sum_lon+1)^(0+128),w
  6065     01D8  0020               	movlb	0	; select bank0
  6066     01D9  00B9               	movwf	___aodiv@dividend+1
  6067     01DA  0021               	movlb	1	; select bank1
  6068     01DB  0822               	movf	(_sum_lon+2)^(0+128),w
  6069     01DC  0020               	movlb	0	; select bank0
  6070     01DD  00BA               	movwf	___aodiv@dividend+2
  6071     01DE  0021               	movlb	1	; select bank1
  6072     01DF  0823               	movf	(_sum_lon+3)^(0+128),w
  6073     01E0  0020               	movlb	0	; select bank0
  6074     01E1  00BB               	movwf	___aodiv@dividend+3
  6075     01E2  0021               	movlb	1	; select bank1
  6076     01E3  0824               	movf	(_sum_lon+4)^(0+128),w
  6077     01E4  0020               	movlb	0	; select bank0
  6078     01E5  00BC               	movwf	___aodiv@dividend+4
  6079     01E6  0021               	movlb	1	; select bank1
  6080     01E7  0825               	movf	(_sum_lon+5)^(0+128),w
  6081     01E8  0020               	movlb	0	; select bank0
  6082     01E9  00BD               	movwf	___aodiv@dividend+5
  6083     01EA  0021               	movlb	1	; select bank1
  6084     01EB  0826               	movf	(_sum_lon+6)^(0+128),w
  6085     01EC  0020               	movlb	0	; select bank0
  6086     01ED  00BE               	movwf	___aodiv@dividend+6
  6087     01EE  0021               	movlb	1	; select bank1
  6088     01EF  0827               	movf	(_sum_lon+7)^(0+128),w
  6089     01F0  0020               	movlb	0	; select bank0
  6090     01F1  00BF               	movwf	___aodiv@dividend+7
  6091     01F2  3180  208F  3181   	fcall	___aodiv
  6092     01F5  0020               	movlb	0	; select bank0
  6093     01F6  0833               	movf	?___aodiv+3,w
  6094     01F7  00D3               	movwf	avg_print@lon_avg+3
  6095     01F8  0832               	movf	?___aodiv+2,w
  6096     01F9  00D2               	movwf	avg_print@lon_avg+2
  6097     01FA  0831               	movf	?___aodiv+1,w
  6098     01FB  00D1               	movwf	avg_print@lon_avg+1
  6099     01FC  0830               	movf	?___aodiv,w
  6100     01FD  00D0               	movwf	avg_print@lon_avg
  6101     01FE                     l2596:
  6102                           
  6103                           ;main.c: 281:     suart_puts("AVG Maps: ");
  6104     01FE  306E               	movlw	low (STR_1| (0+32768))
  6105     01FF  00FA               	movwf	suart_puts@s
  6106     0200  3090               	movlw	high (STR_1| (0+32768))
  6107     0201  00FB               	movwf	suart_puts@s+1
  6108     0202  3188  2052  3181   	fcall	_suart_puts
  6109     0205                     l2598:
  6110                           
  6111                           ;main.c: 282:     suart_print_microdeg(lat_avg);
  6112     0205  0020               	movlb	0	; select bank0
  6113     0206  084F               	movf	avg_print@lat_avg+3,w
  6114     0207  00BA               	movwf	suart_print_microdeg@udeg+3
  6115     0208  084E               	movf	avg_print@lat_avg+2,w
  6116     0209  00B9               	movwf	suart_print_microdeg@udeg+2
  6117     020A  084D               	movf	avg_print@lat_avg+1,w
  6118     020B  00B8               	movwf	suart_print_microdeg@udeg+1
  6119     020C  084C               	movf	avg_print@lat_avg,w
  6120     020D  00B7               	movwf	suart_print_microdeg@udeg
  6121     020E  318F  2736  3181   	fcall	_suart_print_microdeg
  6122                           
  6123                           ;main.c: 283:     suart_puts(", ");
  6124     0211  30B0               	movlw	low (STR_2| (0+32768))
  6125     0212  00FA               	movwf	suart_puts@s
  6126     0213  3090               	movlw	high (STR_2| (0+32768))
  6127     0214  00FB               	movwf	suart_puts@s+1
  6128     0215  3188  2052  3181   	fcall	_suart_puts
  6129     0218                     l2600:
  6130                           
  6131                           ;main.c: 284:     suart_print_microdeg(lon_avg);
  6132     0218  0020               	movlb	0	; select bank0
  6133     0219  0853               	movf	avg_print@lon_avg+3,w
  6134     021A  00BA               	movwf	suart_print_microdeg@udeg+3
  6135     021B  0852               	movf	avg_print@lon_avg+2,w
  6136     021C  00B9               	movwf	suart_print_microdeg@udeg+2
  6137     021D  0851               	movf	avg_print@lon_avg+1,w
  6138     021E  00B8               	movwf	suart_print_microdeg@udeg+1
  6139     021F  0850               	movf	avg_print@lon_avg,w
  6140     0220  00B7               	movwf	suart_print_microdeg@udeg
  6141     0221  318F  2736  3181   	fcall	_suart_print_microdeg
  6142     0224                     l2602:
  6143                           
  6144                           ;main.c: 286:     suart_puts("  (fixq=");
  6145     0224  3079               	movlw	low (STR_3| (0+32768))
  6146     0225  00FA               	movwf	suart_puts@s
  6147     0226  3090               	movlw	high (STR_3| (0+32768))
  6148     0227  00FB               	movwf	suart_puts@s+1
  6149     0228  3188  2052  3181   	fcall	_suart_puts
  6150     022B                     l2604:
  6151                           
  6152                           ;main.c: 287:     suart_putc((char)('0' + gga_fixq));
  6153     022B  0020               	movlb	0	; select bank0
  6154     022C  086D               	movf	_gga_fixq,w
  6155     022D  3E30               	addlw	48
  6156     022E  3188  203E  3181   	fcall	_suart_putc
  6157     0231                     l2606:
  6158                           
  6159                           ;main.c: 288:     suart_puts(" sats=");
  6160     0231  3089               	movlw	low (STR_4| (0+32768))
  6161     0232  00FA               	movwf	suart_puts@s
  6162     0233  3090               	movlw	high (STR_4| (0+32768))
  6163     0234  00FB               	movwf	suart_puts@s+1
  6164     0235  3188  2052  3181   	fcall	_suart_puts
  6165     0238                     l2608:
  6166                           
  6167                           ;main.c: 289:     suart_print_uint16(gga_sats);
  6168     0238  0020               	movlb	0	; select bank0
  6169     0239  086C               	movf	_gga_sats,w	;volatile
  6170     023A  00CA               	movwf	??_avg_print
  6171     023B  01CB               	clrf	??_avg_print+1
  6172     023C  084A               	movf	??_avg_print,w
  6173     023D  00A0               	movwf	suart_print_uint16@v
  6174     023E  084B               	movf	??_avg_print+1,w
  6175     023F  00A1               	movwf	suart_print_uint16@v+1
  6176     0240  318B  2354  3181   	fcall	_suart_print_uint16
  6177     0243                     l2610:
  6178                           
  6179                           ;main.c: 290:     suart_puts(" hdop=");
  6180     0243  3082               	movlw	low (STR_5| (0+32768))
  6181     0244  00FA               	movwf	suart_puts@s
  6182     0245  3090               	movlw	high (STR_5| (0+32768))
  6183     0246  00FB               	movwf	suart_puts@s+1
  6184     0247  3188  2052  3181   	fcall	_suart_puts
  6185                           
  6186                           ;main.c: 291:     suart_print_uint16(gga_hdop_x100 / 100);
  6187     024A  3064               	movlw	100
  6188     024B  00F6               	movwf	___lwdiv@divisor
  6189     024C  3000               	movlw	0
  6190     024D  00F7               	movwf	___lwdiv@divisor+1
  6191     024E  0020               	movlb	0	; select bank0
  6192     024F  086F               	movf	_gga_hdop_x100+1,w	;volatile
  6193     0250  00F9               	movwf	___lwdiv@dividend+1
  6194     0251  086E               	movf	_gga_hdop_x100,w	;volatile
  6195     0252  00F8               	movwf	___lwdiv@dividend
  6196     0253  3189  2168  3181   	fcall	___lwdiv
  6197     0256  0877               	movf	?___lwdiv+1,w
  6198     0257  0020               	movlb	0	; select bank0
  6199     0258  00D5               	movwf	_avg_print$1058+1
  6200     0259  0876               	movf	?___lwdiv,w
  6201     025A  00D4               	movwf	_avg_print$1058
  6202     025B                     l2612:
  6203                           
  6204                           ;main.c: 291:     suart_print_uint16(gga_hdop_x100 / 100);
  6205     025B  0855               	movf	_avg_print$1058+1,w
  6206     025C  00A1               	movwf	suart_print_uint16@v+1
  6207     025D  0854               	movf	_avg_print$1058,w
  6208     025E  00A0               	movwf	suart_print_uint16@v
  6209     025F  318B  2354  3181   	fcall	_suart_print_uint16
  6210     0262                     l2614:
  6211                           
  6212                           ;main.c: 292:     suart_putc('.');
  6213     0262  302E               	movlw	46
  6214     0263  3188  203E  3181   	fcall	_suart_putc
  6215     0266                     l2616:
  6216                           
  6217                           ;main.c: 293:     suart_putc((char)('0' + (gga_hdop_x100 % 100) / 10));
  6218     0266  300A               	movlw	10
  6219     0267  00F6               	movwf	___lwdiv@divisor
  6220     0268  3000               	movlw	0
  6221     0269  00F7               	movwf	___lwdiv@divisor+1
  6222     026A  0020               	movlb	0	; select bank0
  6223     026B  086F               	movf	_gga_hdop_x100+1,w	;volatile
  6224     026C  00F3               	movwf	___lwmod@dividend+1
  6225     026D  086E               	movf	_gga_hdop_x100,w	;volatile
  6226     026E  00F2               	movwf	___lwmod@dividend
  6227     026F  3064               	movlw	100
  6228     0270  00F0               	movwf	___lwmod@divisor
  6229     0271  3000               	movlw	0
  6230     0272  00F1               	movwf	___lwmod@divisor+1
  6231     0273  3188  20FD  3181   	fcall	___lwmod
  6232     0276  0871               	movf	?___lwmod+1,w
  6233     0277  00F9               	movwf	___lwdiv@dividend+1
  6234     0278  0870               	movf	?___lwmod,w
  6235     0279  00F8               	movwf	___lwdiv@dividend
  6236     027A  3189  2168  3181   	fcall	___lwdiv
  6237     027D  0876               	movf	?___lwdiv,w
  6238     027E  3E30               	addlw	48
  6239     027F  3188  203E  3181   	fcall	_suart_putc
  6240     0282                     l2618:
  6241                           
  6242                           ;main.c: 294:     suart_putc((char)('0' + (gga_hdop_x100 % 10)));
  6243     0282  300A               	movlw	10
  6244     0283  00F0               	movwf	___lwmod@divisor
  6245     0284  3000               	movlw	0
  6246     0285  00F1               	movwf	___lwmod@divisor+1
  6247     0286  0020               	movlb	0	; select bank0
  6248     0287  086F               	movf	_gga_hdop_x100+1,w	;volatile
  6249     0288  00F3               	movwf	___lwmod@dividend+1
  6250     0289  086E               	movf	_gga_hdop_x100,w	;volatile
  6251     028A  00F2               	movwf	___lwmod@dividend
  6252     028B  3188  20FD  3181   	fcall	___lwmod
  6253     028E  0870               	movf	?___lwmod,w
  6254     028F  3E30               	addlw	48
  6255     0290  3188  203E  3181   	fcall	_suart_putc
  6256     0293                     l2620:
  6257                           
  6258                           ;main.c: 295:     suart_puts(")\r\n");
  6259     0293  30AC               	movlw	low (STR_6| (0+32768))
  6260     0294  00FA               	movwf	suart_puts@s
  6261     0295  3090               	movlw	high (STR_6| (0+32768))
  6262     0296  00FB               	movwf	suart_puts@s+1
  6263     0297  3188  2052  3181   	fcall	_suart_puts
  6264     029A                     l2622:
  6265                           
  6266                           ;main.c: 297:     avg_reset();
  6267     029A  3188  2089  3181   	fcall	_avg_reset
  6268     029D                     l207:
  6269     029D  0008               	return
  6270     029E                     __end_of_avg_print:
  6271                           
  6272                           	psect	text19
  6273     0852                     __ptext19:	
  6274 ;; *************** function _suart_puts *****************
  6275 ;; Defined at:
  6276 ;;		line 25 in file "main.c"
  6277 ;; Parameters:    Size  Location     Type
  6278 ;;  s               2   10[COMMON] PTR const unsigned char 
  6279 ;;		 -> STR_10(13), STR_9(12), STR_8(39), STR_7(46), 
  6280 ;;		 -> STR_6(4), STR_5(7), STR_4(7), STR_3(9), 
  6281 ;;		 -> STR_2(3), STR_1(11), 
  6282 ;; Auto vars:     Size  Location     Type
  6283 ;;		None
  6284 ;; Return value:  Size  Location     Type
  6285 ;;                  1    wreg      void 
  6286 ;; Registers used:
  6287 ;;		wreg, fsr0l, fsr0h, status,2, status,0, pclath, cstack
  6288 ;; Tracked objects:
  6289 ;;		On entry : 0/0
  6290 ;;		On exit  : 0/0
  6291 ;;		Unchanged: 0/0
  6292 ;; Data sizes:     COMMON   BANK0   BANK1   BANK2   BANK3   BANK4   BANK5   BANK6   BANK7   BANK8   BANK9  BANK10  BANK1
      +1  BANK12  BANK13  BANK14  BANK15  BANK16  BANK17  BANK18  BANK19  BANK20  BANK21  BANK22  BANK23  BANK24  BANK25
  6293 ;;      Params:         2       0       0       0       0       0       0       0       0       0       0       0       
      +0       0       0       0       0       0       0       0       0       0       0       0       0       0       0
  6294 ;;      Locals:         0       0       0       0       0       0       0       0       0       0       0       0       
      +0       0       0       0       0       0       0       0       0       0       0       0       0       0       0
  6295 ;;      Temps:          0       0       0       0       0       0       0       0       0       0       0       0       
      +0       0       0       0       0       0       0       0       0       0       0       0       0       0       0
  6296 ;;      Totals:         2       0       0       0       0       0       0       0       0       0       0       0       
      +0       0       0       0       0       0       0       0       0       0       0       0       0       0       0
  6297 ;;Total ram usage:        2 bytes
  6298 ;; Hardware stack levels used: 1
  6299 ;; Hardware stack levels required when called: 3
  6300 ;; This function calls:
  6301 ;;		_SUART_Write_Text
  6302 ;; This function is called by:
  6303 ;;		_avg_print
  6304 ;;		_main
  6305 ;; This function uses a non-reentrant model
  6306 ;;
  6307                           
  6308     0852                     _suart_puts:	
  6309                           ;psect for function _suart_puts
  6310                           
  6311     0852                     l2136:	
  6312                           ;incstack = 0
  6313                           ; Regs used in _suart_puts: [wreg-fsr0h+status,2+status,0+pclath+cstack]
  6314                           
  6315     0852  087B               	movf	suart_puts@s+1,w
  6316     0853  00F6               	movwf	SUART_Write_Text@text+1
  6317     0854  087A               	movf	suart_puts@s,w
  6318     0855  00F5               	movwf	SUART_Write_Text@text
  6319     0856  3188  20A0  3188   	fcall	_SUART_Write_Text
  6320     0859                     l41:
  6321     0859  0008               	return
  6322     085A                     __end_of_suart_puts:
  6323                           
  6324                           	psect	text20
  6325     08A0                     __ptext20:	
  6326 ;; *************** function _SUART_Write_Text *****************
  6327 ;; Defined at:
  6328 ;;		line 189 in file "SEUSART.c"
  6329 ;; Parameters:    Size  Location     Type
  6330 ;;  text            2    5[COMMON] PTR unsigned char 
  6331 ;;		 -> STR_10(13), STR_9(12), STR_8(39), STR_7(46), 
  6332 ;;		 -> STR_6(4), STR_5(7), STR_4(7), STR_3(9), 
  6333 ;;		 -> STR_2(3), STR_1(11), 
  6334 ;; Auto vars:     Size  Location     Type
  6335 ;;  i               2    8[COMMON] int 
  6336 ;; Return value:  Size  Location     Type
  6337 ;;                  1    wreg      void 
  6338 ;; Registers used:
  6339 ;;		wreg, fsr0l, fsr0h, status,2, status,0, pclath, cstack
  6340 ;; Tracked objects:
  6341 ;;		On entry : 0/0
  6342 ;;		On exit  : 0/0
  6343 ;;		Unchanged: 0/0
  6344 ;; Data sizes:     COMMON   BANK0   BANK1   BANK2   BANK3   BANK4   BANK5   BANK6   BANK7   BANK8   BANK9  BANK10  BANK1
      +1  BANK12  BANK13  BANK14  BANK15  BANK16  BANK17  BANK18  BANK19  BANK20  BANK21  BANK22  BANK23  BANK24  BANK25
  6345 ;;      Params:         2       0       0       0       0       0       0       0       0       0       0       0       
      +0       0       0       0       0       0       0       0       0       0       0       0       0       0       0
  6346 ;;      Locals:         2       0       0       0       0       0       0       0       0       0       0       0       
      +0       0       0       0       0       0       0       0       0       0       0       0       0       0       0
  6347 ;;      Temps:          1       0       0       0       0       0       0       0       0       0       0       0       
      +0       0       0       0       0       0       0       0       0       0       0       0       0       0       0
  6348 ;;      Totals:         5       0       0       0       0       0       0       0       0       0       0       0       
      +0       0       0       0       0       0       0       0       0       0       0       0       0       0       0
  6349 ;;Total ram usage:        5 bytes
  6350 ;; Hardware stack levels used: 1
  6351 ;; Hardware stack levels required when called: 2
  6352 ;; This function calls:
  6353 ;;		_SUART_Transmit
  6354 ;; This function is called by:
  6355 ;;		_suart_puts
  6356 ;; This function uses a non-reentrant model
  6357 ;;
  6358                           
  6359     08A0                     _SUART_Write_Text:	
  6360                           ;psect for function _SUART_Write_Text
  6361                           
  6362     08A0                     l2040:	
  6363                           ;incstack = 0
  6364                           ; Regs used in _SUART_Write_Text: [wreg-fsr0h+status,2+status,0+pclath+cstack]
  6365                           
  6366                           
  6367                           ;SEUSART.c: 189: void SUART_Write_Text(char *text);SEUSART.c: 190: {;SEUSART.c: 191:    
      +                           int i;;SEUSART.c: 192:     for (i = 0; text[i] != '\0'; i++)
  6368     08A0  01F8               	clrf	SUART_Write_Text@i
  6369     08A1  01F9               	clrf	SUART_Write_Text@i+1
  6370     08A2  28B1               	goto	l2046
  6371     08A3                     l2042:
  6372                           
  6373                           ;SEUSART.c: 193:     {;SEUSART.c: 194:         SUART_Transmit(text[i]);
  6374     08A3  0875               	movf	SUART_Write_Text@text,w
  6375     08A4  0778               	addwf	SUART_Write_Text@i,w
  6376     08A5  0084               	movwf	4
  6377     08A6  0876               	movf	SUART_Write_Text@text+1,w
  6378     08A7  3D79               	addwfc	SUART_Write_Text@i+1,w
  6379     08A8  0085               	movwf	5
  6380     08A9  0800               	movf	0,w	;code access
  6381     08AA  3189  21A4  3188   	fcall	_SUART_Transmit
  6382     08AD                     l2044:
  6383                           
  6384                           ;SEUSART.c: 195:     }
  6385     08AD  3001               	movlw	1
  6386     08AE  07F8               	addwf	SUART_Write_Text@i,f
  6387     08AF  3000               	movlw	0
  6388     08B0  3DF9               	addwfc	SUART_Write_Text@i+1,f
  6389     08B1                     l2046:
  6390     08B1  0875               	movf	SUART_Write_Text@text,w
  6391     08B2  0778               	addwf	SUART_Write_Text@i,w
  6392     08B3  0084               	movwf	4
  6393     08B4  0876               	movf	SUART_Write_Text@text+1,w
  6394     08B5  3D79               	addwfc	SUART_Write_Text@i+1,w
  6395     08B6  0085               	movwf	5
  6396     08B7  0012               	moviw fsr0++
  6397     08B8  1D03               	btfss	3,2
  6398     08B9  28BB               	goto	u1991
  6399     08BA  28BC               	goto	u1990
  6400     08BB                     u1991:
  6401     08BB  28A3               	goto	l2042
  6402     08BC                     u1990:
  6403     08BC                     l381:
  6404     08BC  0008               	return
  6405     08BD                     __end_of_SUART_Write_Text:
  6406                           
  6407                           	psect	text21
  6408     0B54                     __ptext21:	
  6409 ;; *************** function _suart_print_uint16 *****************
  6410 ;; Defined at:
  6411 ;;		line 28 in file "main.c"
  6412 ;; Parameters:    Size  Location     Type
  6413 ;;  v               2    0[BANK0 ] unsigned short 
  6414 ;; Auto vars:     Size  Location     Type
  6415 ;;  buf             6    3[BANK0 ] unsigned char [6]
  6416 ;;  i               1    9[BANK0 ] unsigned char 
  6417 ;; Return value:  Size  Location     Type
  6418 ;;                  1    wreg      void 
  6419 ;; Registers used:
  6420 ;;		wreg, fsr1l, fsr1h, status,2, status,0, pclath, cstack
  6421 ;; Tracked objects:
  6422 ;;		On entry : 0/0
  6423 ;;		On exit  : 0/0
  6424 ;;		Unchanged: 0/0
  6425 ;; Data sizes:     COMMON   BANK0   BANK1   BANK2   BANK3   BANK4   BANK5   BANK6   BANK7   BANK8   BANK9  BANK10  BANK1
      +1  BANK12  BANK13  BANK14  BANK15  BANK16  BANK17  BANK18  BANK19  BANK20  BANK21  BANK22  BANK23  BANK24  BANK25
  6426 ;;      Params:         0       2       0       0       0       0       0       0       0       0       0       0       
      +0       0       0       0       0       0       0       0       0       0       0       0       0       0       0
  6427 ;;      Locals:         0       7       0       0       0       0       0       0       0       0       0       0       
      +0       0       0       0       0       0       0       0       0       0       0       0       0       0       0
  6428 ;;      Temps:          0       1       0       0       0       0       0       0       0       0       0       0       
      +0       0       0       0       0       0       0       0       0       0       0       0       0       0       0
  6429 ;;      Totals:         0      10       0       0       0       0       0       0       0       0       0       0       
      +0       0       0       0       0       0       0       0       0       0       0       0       0       0       0
  6430 ;;Total ram usage:       10 bytes
  6431 ;; Hardware stack levels used: 1
  6432 ;; Hardware stack levels required when called: 4
  6433 ;; This function calls:
  6434 ;;		___lwdiv
  6435 ;;		___lwmod
  6436 ;;		_suart_putc
  6437 ;; This function is called by:
  6438 ;;		_avg_print
  6439 ;; This function uses a non-reentrant model
  6440 ;;
  6441                           
  6442     0B54                     _suart_print_uint16:	
  6443                           ;psect for function _suart_print_uint16
  6444                           
  6445     0B54                     l2138:	
  6446                           ;incstack = 0
  6447                           ; Regs used in _suart_print_uint16: [wreg+fsr1l+fsr1h+status,2+status,0+pclath+cstack]
  6448                           
  6449                           
  6450                           ;main.c: 28: static void suart_print_uint16(uint16_t v);main.c: 29: {;main.c: 30:     ch
      +                          ar buf[6];;main.c: 31:     char i = 0;
  6451     0B54  0020               	movlb	0	; select bank0
  6452     0B55  01A9               	clrf	suart_print_uint16@i
  6453     0B56                     l2140:
  6454                           
  6455                           ;main.c: 32:     if (v == 0) { suart_putc('0'); return; }
  6456     0B56  0820               	movf	suart_print_uint16@v,w
  6457     0B57  0421               	iorwf	suart_print_uint16@v+1,w
  6458     0B58  1D03               	btfss	3,2
  6459     0B59  2B5B               	goto	u2221
  6460     0B5A  2B5C               	goto	u2220
  6461     0B5B                     u2221:
  6462     0B5B  2B88               	goto	l2152
  6463     0B5C                     u2220:
  6464     0B5C                     l2142:
  6465     0B5C  3030               	movlw	48
  6466     0B5D  3188  203E  318B   	fcall	_suart_putc
  6467     0B60  2BA5               	goto	l48
  6468     0B61                     l2146:
  6469     0B61  0829               	movf	suart_print_uint16@i,w
  6470     0B62  3E23               	addlw	(low (suart_print_uint16@buf| 0))& (0+255)
  6471     0B63  0086               	movwf	6
  6472     0B64  0187               	clrf	7
  6473     0B65  300A               	movlw	10
  6474     0B66  00F0               	movwf	___lwmod@divisor
  6475     0B67  3000               	movlw	0
  6476     0B68  00F1               	movwf	___lwmod@divisor+1
  6477     0B69  0821               	movf	suart_print_uint16@v+1,w
  6478     0B6A  00F3               	movwf	___lwmod@dividend+1
  6479     0B6B  0820               	movf	suart_print_uint16@v,w
  6480     0B6C  00F2               	movwf	___lwmod@dividend
  6481     0B6D  3188  20FD  318B   	fcall	___lwmod
  6482     0B70  0870               	movf	?___lwmod,w
  6483     0B71  3E30               	addlw	48
  6484     0B72  0081               	movwf	1
  6485     0B73                     l2148:
  6486     0B73  3001               	movlw	1
  6487     0B74  0020               	movlb	0	; select bank0
  6488     0B75  00A2               	movwf	??_suart_print_uint16
  6489     0B76  0822               	movf	??_suart_print_uint16,w
  6490     0B77  07A9               	addwf	suart_print_uint16@i,f
  6491     0B78                     l2150:
  6492     0B78  300A               	movlw	10
  6493     0B79  00F6               	movwf	___lwdiv@divisor
  6494     0B7A  3000               	movlw	0
  6495     0B7B  00F7               	movwf	___lwdiv@divisor+1
  6496     0B7C  0821               	movf	suart_print_uint16@v+1,w
  6497     0B7D  00F9               	movwf	___lwdiv@dividend+1
  6498     0B7E  0820               	movf	suart_print_uint16@v,w
  6499     0B7F  00F8               	movwf	___lwdiv@dividend
  6500     0B80  3189  2168  318B   	fcall	___lwdiv
  6501     0B83  0877               	movf	?___lwdiv+1,w
  6502     0B84  0020               	movlb	0	; select bank0
  6503     0B85  00A1               	movwf	suart_print_uint16@v+1
  6504     0B86  0876               	movf	?___lwdiv,w
  6505     0B87  00A0               	movwf	suart_print_uint16@v
  6506     0B88                     l2152:
  6507     0B88  0820               	movf	suart_print_uint16@v,w
  6508     0B89  0421               	iorwf	suart_print_uint16@v+1,w
  6509     0B8A  1903               	btfsc	3,2
  6510     0B8B  2B8D               	goto	u2231
  6511     0B8C  2B8E               	goto	u2230
  6512     0B8D                     u2231:
  6513     0B8D  2B9D               	goto	l2158
  6514     0B8E                     u2230:
  6515     0B8E                     l2154:
  6516     0B8E  3006               	movlw	6
  6517     0B8F  0229               	subwf	suart_print_uint16@i,w
  6518     0B90  1C03               	skipc
  6519     0B91  2B93               	goto	u2241
  6520     0B92  2B94               	goto	u2240
  6521     0B93                     u2241:
  6522     0B93  2B61               	goto	l2146
  6523     0B94                     u2240:
  6524     0B94  2B9D               	goto	l2158
  6525     0B95                     l2156:
  6526     0B95  0829               	movf	suart_print_uint16@i,w
  6527     0B96  3E23               	addlw	(low (suart_print_uint16@buf| 0))& (0+255)
  6528     0B97  0086               	movwf	6
  6529     0B98  0187               	clrf	7
  6530     0B99  0801               	movf	1,w
  6531     0B9A  3188  203E  318B   	fcall	_suart_putc
  6532     0B9D                     l2158:
  6533     0B9D  3001               	movlw	1
  6534     0B9E  0020               	movlb	0	; select bank0
  6535     0B9F  02A9               	subwf	suart_print_uint16@i,f
  6536     0BA0  0A29               	incf	suart_print_uint16@i,w
  6537     0BA1  1D03               	btfss	3,2
  6538     0BA2  2BA4               	goto	u2251
  6539     0BA3  2BA5               	goto	u2250
  6540     0BA4                     u2251:
  6541     0BA4  2B95               	goto	l2156
  6542     0BA5                     u2250:
  6543     0BA5                     l48:
  6544     0BA5  0008               	return
  6545     0BA6                     __end_of_suart_print_uint16:
  6546                           
  6547                           	psect	text22
  6548     08FD                     __ptext22:	
  6549 ;; *************** function ___lwmod *****************
  6550 ;; Defined at:
  6551 ;;		line 5 in file "C:\Program Files\Microchip\xc8\v2.46\pic\sources\c99\common\lwmod.c"
  6552 ;; Parameters:    Size  Location     Type
  6553 ;;  divisor         2    0[COMMON] unsigned int 
  6554 ;;  dividend        2    2[COMMON] unsigned int 
  6555 ;; Auto vars:     Size  Location     Type
  6556 ;;  counter         1    5[COMMON] unsigned char 
  6557 ;; Return value:  Size  Location     Type
  6558 ;;                  2    0[COMMON] unsigned int 
  6559 ;; Registers used:
  6560 ;;		wreg, status,2, status,0
  6561 ;; Tracked objects:
  6562 ;;		On entry : 0/0
  6563 ;;		On exit  : 0/0
  6564 ;;		Unchanged: 0/0
  6565 ;; Data sizes:     COMMON   BANK0   BANK1   BANK2   BANK3   BANK4   BANK5   BANK6   BANK7   BANK8   BANK9  BANK10  BANK1
      +1  BANK12  BANK13  BANK14  BANK15  BANK16  BANK17  BANK18  BANK19  BANK20  BANK21  BANK22  BANK23  BANK24  BANK25
  6566 ;;      Params:         4       0       0       0       0       0       0       0       0       0       0       0       
      +0       0       0       0       0       0       0       0       0       0       0       0       0       0       0
  6567 ;;      Locals:         1       0       0       0       0       0       0       0       0       0       0       0       
      +0       0       0       0       0       0       0       0       0       0       0       0       0       0       0
  6568 ;;      Temps:          1       0       0       0       0       0       0       0       0       0       0       0       
      +0       0       0       0       0       0       0       0       0       0       0       0       0       0       0
  6569 ;;      Totals:         6       0       0       0       0       0       0       0       0       0       0       0       
      +0       0       0       0       0       0       0       0       0       0       0       0       0       0       0
  6570 ;;Total ram usage:        6 bytes
  6571 ;; Hardware stack levels used: 1
  6572 ;; This function calls:
  6573 ;;		Nothing
  6574 ;; This function is called by:
  6575 ;;		_suart_print_uint16
  6576 ;;		_avg_print
  6577 ;; This function uses a non-reentrant model
  6578 ;;
  6579                           
  6580     08FD                     ___lwmod:	
  6581                           ;psect for function ___lwmod
  6582                           
  6583     08FD                     l2114:	
  6584                           ;incstack = 0
  6585                           ; Regs used in ___lwmod: [wreg+status,2+status,0]
  6586                           
  6587     08FD  0870               	movf	___lwmod@divisor,w
  6588     08FE  0471               	iorwf	___lwmod@divisor+1,w
  6589     08FF  1903               	btfsc	3,2
  6590     0900  2902               	goto	u2161
  6591     0901  2903               	goto	u2160
  6592     0902                     u2161:
  6593     0902  292C               	goto	l2132
  6594     0903                     u2160:
  6595     0903                     l2116:
  6596     0903  01F5               	clrf	___lwmod@counter
  6597     0904  0AF5               	incf	___lwmod@counter,f
  6598     0905  290F               	goto	l2122
  6599     0906                     l2118:
  6600     0906  3001               	movlw	1
  6601     0907                     u2175:
  6602     0907  35F0               	lslf	___lwmod@divisor,f
  6603     0908  0DF1               	rlf	___lwmod@divisor+1,f
  6604     0909  0B89               	decfsz	9,f
  6605     090A  2907               	goto	u2175
  6606     090B                     l2120:
  6607     090B  3001               	movlw	1
  6608     090C  00F4               	movwf	??___lwmod
  6609     090D  0874               	movf	??___lwmod,w
  6610     090E  07F5               	addwf	___lwmod@counter,f
  6611     090F                     l2122:
  6612     090F  1FF1               	btfss	___lwmod@divisor+1,7
  6613     0910  2912               	goto	u2181
  6614     0911  2913               	goto	u2180
  6615     0912                     u2181:
  6616     0912  2906               	goto	l2118
  6617     0913                     u2180:
  6618     0913                     l2124:
  6619     0913  0871               	movf	___lwmod@divisor+1,w
  6620     0914  0273               	subwf	___lwmod@dividend+1,w
  6621     0915  1D03               	skipz
  6622     0916  2919               	goto	u2195
  6623     0917  0870               	movf	___lwmod@divisor,w
  6624     0918  0272               	subwf	___lwmod@dividend,w
  6625     0919                     u2195:
  6626     0919  1C03               	skipc
  6627     091A  291C               	goto	u2191
  6628     091B  291D               	goto	u2190
  6629     091C                     u2191:
  6630     091C  2921               	goto	l2128
  6631     091D                     u2190:
  6632     091D                     l2126:
  6633     091D  0870               	movf	___lwmod@divisor,w
  6634     091E  02F2               	subwf	___lwmod@dividend,f
  6635     091F  0871               	movf	___lwmod@divisor+1,w
  6636     0920  3BF3               	subwfb	___lwmod@dividend+1,f
  6637     0921                     l2128:
  6638     0921  3001               	movlw	1
  6639     0922                     u2205:
  6640     0922  36F1               	lsrf	___lwmod@divisor+1,f
  6641     0923  0CF0               	rrf	___lwmod@divisor,f
  6642     0924  0B89               	decfsz	9,f
  6643     0925  2922               	goto	u2205
  6644     0926                     l2130:
  6645     0926  3001               	movlw	1
  6646     0927  02F5               	subwf	___lwmod@counter,f
  6647     0928  1D03               	btfss	3,2
  6648     0929  292B               	goto	u2211
  6649     092A  292C               	goto	u2210
  6650     092B                     u2211:
  6651     092B  2913               	goto	l2124
  6652     092C                     u2210:
  6653     092C                     l2132:
  6654     092C  0873               	movf	___lwmod@dividend+1,w
  6655     092D  00F1               	movwf	?___lwmod+1
  6656     092E  0872               	movf	___lwmod@dividend,w
  6657     092F  00F0               	movwf	?___lwmod
  6658     0930                     l749:
  6659     0930  0008               	return
  6660     0931                     __end_of___lwmod:
  6661                           
  6662                           	psect	text23
  6663     0968                     __ptext23:	
  6664 ;; *************** function ___lwdiv *****************
  6665 ;; Defined at:
  6666 ;;		line 5 in file "C:\Program Files\Microchip\xc8\v2.46\pic\sources\c99\common\lwdiv.c"
  6667 ;; Parameters:    Size  Location     Type
  6668 ;;  divisor         2    6[COMMON] unsigned int 
  6669 ;;  dividend        2    8[COMMON] unsigned int 
  6670 ;; Auto vars:     Size  Location     Type
  6671 ;;  quotient        2   11[COMMON] unsigned int 
  6672 ;;  counter         1   13[COMMON] unsigned char 
  6673 ;; Return value:  Size  Location     Type
  6674 ;;                  2    6[COMMON] unsigned int 
  6675 ;; Registers used:
  6676 ;;		wreg, status,2, status,0
  6677 ;; Tracked objects:
  6678 ;;		On entry : 0/0
  6679 ;;		On exit  : 0/0
  6680 ;;		Unchanged: 0/0
  6681 ;; Data sizes:     COMMON   BANK0   BANK1   BANK2   BANK3   BANK4   BANK5   BANK6   BANK7   BANK8   BANK9  BANK10  BANK1
      +1  BANK12  BANK13  BANK14  BANK15  BANK16  BANK17  BANK18  BANK19  BANK20  BANK21  BANK22  BANK23  BANK24  BANK25
  6682 ;;      Params:         4       0       0       0       0       0       0       0       0       0       0       0       
      +0       0       0       0       0       0       0       0       0       0       0       0       0       0       0
  6683 ;;      Locals:         3       0       0       0       0       0       0       0       0       0       0       0       
      +0       0       0       0       0       0       0       0       0       0       0       0       0       0       0
  6684 ;;      Temps:          1       0       0       0       0       0       0       0       0       0       0       0       
      +0       0       0       0       0       0       0       0       0       0       0       0       0       0       0
  6685 ;;      Totals:         8       0       0       0       0       0       0       0       0       0       0       0       
      +0       0       0       0       0       0       0       0       0       0       0       0       0       0       0
  6686 ;;Total ram usage:        8 bytes
  6687 ;; Hardware stack levels used: 1
  6688 ;; This function calls:
  6689 ;;		Nothing
  6690 ;; This function is called by:
  6691 ;;		_suart_print_uint16
  6692 ;;		_avg_print
  6693 ;; This function uses a non-reentrant model
  6694 ;;
  6695                           
  6696     0968                     ___lwdiv:	
  6697                           ;psect for function ___lwdiv
  6698                           
  6699     0968                     l2088:	
  6700                           ;incstack = 0
  6701                           ; Regs used in ___lwdiv: [wreg+status,2+status,0]
  6702                           
  6703     0968  01FB               	clrf	___lwdiv@quotient
  6704     0969  01FC               	clrf	___lwdiv@quotient+1
  6705     096A                     l2090:
  6706     096A  0876               	movf	___lwdiv@divisor,w
  6707     096B  0477               	iorwf	___lwdiv@divisor+1,w
  6708     096C  1903               	btfsc	3,2
  6709     096D  296F               	goto	u2091
  6710     096E  2970               	goto	u2090
  6711     096F                     u2091:
  6712     096F  299F               	goto	l2110
  6713     0970                     u2090:
  6714     0970                     l2092:
  6715     0970  01FD               	clrf	___lwdiv@counter
  6716     0971  0AFD               	incf	___lwdiv@counter,f
  6717     0972  297C               	goto	l2098
  6718     0973                     l2094:
  6719     0973  3001               	movlw	1
  6720     0974                     u2105:
  6721     0974  35F6               	lslf	___lwdiv@divisor,f
  6722     0975  0DF7               	rlf	___lwdiv@divisor+1,f
  6723     0976  0B89               	decfsz	9,f
  6724     0977  2974               	goto	u2105
  6725     0978                     l2096:
  6726     0978  3001               	movlw	1
  6727     0979  00FA               	movwf	??___lwdiv
  6728     097A  087A               	movf	??___lwdiv,w
  6729     097B  07FD               	addwf	___lwdiv@counter,f
  6730     097C                     l2098:
  6731     097C  1FF7               	btfss	___lwdiv@divisor+1,7
  6732     097D  297F               	goto	u2111
  6733     097E  2980               	goto	u2110
  6734     097F                     u2111:
  6735     097F  2973               	goto	l2094
  6736     0980                     u2110:
  6737     0980                     l2100:
  6738     0980  3001               	movlw	1
  6739     0981                     u2125:
  6740     0981  35FB               	lslf	___lwdiv@quotient,f
  6741     0982  0DFC               	rlf	___lwdiv@quotient+1,f
  6742     0983  0B89               	decfsz	9,f
  6743     0984  2981               	goto	u2125
  6744     0985  0877               	movf	___lwdiv@divisor+1,w
  6745     0986  0279               	subwf	___lwdiv@dividend+1,w
  6746     0987  1D03               	skipz
  6747     0988  298B               	goto	u2135
  6748     0989  0876               	movf	___lwdiv@divisor,w
  6749     098A  0278               	subwf	___lwdiv@dividend,w
  6750     098B                     u2135:
  6751     098B  1C03               	skipc
  6752     098C  298E               	goto	u2131
  6753     098D  298F               	goto	u2130
  6754     098E                     u2131:
  6755     098E  2994               	goto	l2106
  6756     098F                     u2130:
  6757     098F                     l2102:
  6758     098F  0876               	movf	___lwdiv@divisor,w
  6759     0990  02F8               	subwf	___lwdiv@dividend,f
  6760     0991  0877               	movf	___lwdiv@divisor+1,w
  6761     0992  3BF9               	subwfb	___lwdiv@dividend+1,f
  6762     0993                     l2104:
  6763     0993  147B               	bsf	___lwdiv@quotient,0
  6764     0994                     l2106:
  6765     0994  3001               	movlw	1
  6766     0995                     u2145:
  6767     0995  36F7               	lsrf	___lwdiv@divisor+1,f
  6768     0996  0CF6               	rrf	___lwdiv@divisor,f
  6769     0997  0B89               	decfsz	9,f
  6770     0998  2995               	goto	u2145
  6771     0999                     l2108:
  6772     0999  3001               	movlw	1
  6773     099A  02FD               	subwf	___lwdiv@counter,f
  6774     099B  1D03               	btfss	3,2
  6775     099C  299E               	goto	u2151
  6776     099D  299F               	goto	u2150
  6777     099E                     u2151:
  6778     099E  2980               	goto	l2100
  6779     099F                     u2150:
  6780     099F                     l2110:
  6781     099F  087C               	movf	___lwdiv@quotient+1,w
  6782     09A0  00F7               	movwf	?___lwdiv+1
  6783     09A1  087B               	movf	___lwdiv@quotient,w
  6784     09A2  00F6               	movwf	?___lwdiv
  6785     09A3                     l739:
  6786     09A3  0008               	return
  6787     09A4                     __end_of___lwdiv:
  6788                           
  6789                           	psect	text24
  6790     0F36                     __ptext24:	
  6791 ;; *************** function _suart_print_microdeg *****************
  6792 ;; Defined at:
  6793 ;;		line 48 in file "main.c"
  6794 ;; Parameters:    Size  Location     Type
  6795 ;;  udeg            4   23[BANK0 ] long 
  6796 ;; Auto vars:     Size  Location     Type
  6797 ;;  div             4   35[BANK0 ] long 
  6798 ;;  frac            4   31[BANK0 ] long 
  6799 ;;  whole           4   27[BANK0 ] long 
  6800 ;; Return value:  Size  Location     Type
  6801 ;;                  1    wreg      void 
  6802 ;; Registers used:
  6803 ;;		wreg, fsr1l, fsr1h, status,2, status,0, pclath, cstack
  6804 ;; Tracked objects:
  6805 ;;		On entry : 0/0
  6806 ;;		On exit  : 0/0
  6807 ;;		Unchanged: 0/0
  6808 ;; Data sizes:     COMMON   BANK0   BANK1   BANK2   BANK3   BANK4   BANK5   BANK6   BANK7   BANK8   BANK9  BANK10  BANK1
      +1  BANK12  BANK13  BANK14  BANK15  BANK16  BANK17  BANK18  BANK19  BANK20  BANK21  BANK22  BANK23  BANK24  BANK25
  6809 ;;      Params:         0       4       0       0       0       0       0       0       0       0       0       0       
      +0       0       0       0       0       0       0       0       0       0       0       0       0       0       0
  6810 ;;      Locals:         0      12       0       0       0       0       0       0       0       0       0       0       
      +0       0       0       0       0       0       0       0       0       0       0       0       0       0       0
  6811 ;;      Temps:          0       0       0       0       0       0       0       0       0       0       0       0       
      +0       0       0       0       0       0       0       0       0       0       0       0       0       0       0
  6812 ;;      Totals:         0      16       0       0       0       0       0       0       0       0       0       0       
      +0       0       0       0       0       0       0       0       0       0       0       0       0       0       0
  6813 ;;Total ram usage:       16 bytes
  6814 ;; Hardware stack levels used: 1
  6815 ;; Hardware stack levels required when called: 5
  6816 ;; This function calls:
  6817 ;;		___aldiv
  6818 ;;		___almod
  6819 ;;		_suart_print_int32
  6820 ;;		_suart_putc
  6821 ;; This function is called by:
  6822 ;;		_avg_print
  6823 ;; This function uses a non-reentrant model
  6824 ;;
  6825                           
  6826     0F36                     _suart_print_microdeg:	
  6827                           ;psect for function _suart_print_microdeg
  6828                           
  6829     0F36                     l2160:	
  6830                           ;incstack = 0
  6831                           ; Regs used in _suart_print_microdeg: [wreg+fsr1l+fsr1h+status,2+status,0+pclath+cstack]
  6832                           
  6833                           
  6834                           ;main.c: 48: static void suart_print_microdeg(int32_t udeg);main.c: 49: {;main.c: 50:   
      +                            if (udeg < 0) { suart_putc('-'); udeg = -udeg; }
  6835     0F36  0020               	movlb	0	; select bank0
  6836     0F37  1FBA               	btfss	suart_print_microdeg@udeg+3,7
  6837     0F38  2F3A               	goto	u2261
  6838     0F39  2F3B               	goto	u2260
  6839     0F3A                     u2261:
  6840     0F3A  2F4B               	goto	l72
  6841     0F3B                     u2260:
  6842     0F3B                     l2162:
  6843     0F3B  302D               	movlw	45
  6844     0F3C  3188  203E  318F   	fcall	_suart_putc
  6845     0F3F                     l2164:
  6846     0F3F  0020               	movlb	0	; select bank0
  6847     0F40  09B7               	comf	suart_print_microdeg@udeg,f
  6848     0F41  09B8               	comf	suart_print_microdeg@udeg+1,f
  6849     0F42  09B9               	comf	suart_print_microdeg@udeg+2,f
  6850     0F43  09BA               	comf	suart_print_microdeg@udeg+3,f
  6851     0F44  0AB7               	incf	suart_print_microdeg@udeg,f
  6852     0F45  1903               	skipnz
  6853     0F46  0AB8               	incf	suart_print_microdeg@udeg+1,f
  6854     0F47  1903               	skipnz
  6855     0F48  0AB9               	incf	suart_print_microdeg@udeg+2,f
  6856     0F49  1903               	skipnz
  6857     0F4A  0ABA               	incf	suart_print_microdeg@udeg+3,f
  6858     0F4B                     l72:
  6859                           
  6860                           ;main.c: 51:     int32_t whole = udeg / 1000000L;
  6861     0F4B  3000               	movlw	0
  6862     0F4C  00F3               	movwf	___aldiv@divisor+3
  6863     0F4D  300F               	movlw	15
  6864     0F4E  00F2               	movwf	___aldiv@divisor+2
  6865     0F4F  3042               	movlw	66
  6866     0F50  00F1               	movwf	___aldiv@divisor+1
  6867     0F51  3040               	movlw	64
  6868     0F52  00F0               	movwf	___aldiv@divisor
  6869     0F53  083A               	movf	suart_print_microdeg@udeg+3,w
  6870     0F54  00F7               	movwf	___aldiv@dividend+3
  6871     0F55  0839               	movf	suart_print_microdeg@udeg+2,w
  6872     0F56  00F6               	movwf	___aldiv@dividend+2
  6873     0F57  0838               	movf	suart_print_microdeg@udeg+1,w
  6874     0F58  00F5               	movwf	___aldiv@dividend+1
  6875     0F59  0837               	movf	suart_print_microdeg@udeg,w
  6876     0F5A  00F4               	movwf	___aldiv@dividend
  6877     0F5B  318E  26A6  318F   	fcall	___aldiv
  6878     0F5E  0873               	movf	?___aldiv+3,w
  6879     0F5F  0020               	movlb	0	; select bank0
  6880     0F60  00BE               	movwf	suart_print_microdeg@whole+3
  6881     0F61  0872               	movf	?___aldiv+2,w
  6882     0F62  00BD               	movwf	suart_print_microdeg@whole+2
  6883     0F63  0871               	movf	?___aldiv+1,w
  6884     0F64  00BC               	movwf	suart_print_microdeg@whole+1
  6885     0F65  0870               	movf	?___aldiv,w
  6886     0F66  00BB               	movwf	suart_print_microdeg@whole
  6887                           
  6888                           ;main.c: 52:     int32_t frac = udeg % 1000000L;
  6889     0F67  3000               	movlw	0
  6890     0F68  00F3               	movwf	___almod@divisor+3
  6891     0F69  300F               	movlw	15
  6892     0F6A  00F2               	movwf	___almod@divisor+2
  6893     0F6B  3042               	movlw	66
  6894     0F6C  00F1               	movwf	___almod@divisor+1
  6895     0F6D  3040               	movlw	64
  6896     0F6E  00F0               	movwf	___almod@divisor
  6897     0F6F  083A               	movf	suart_print_microdeg@udeg+3,w
  6898     0F70  00F7               	movwf	___almod@dividend+3
  6899     0F71  0839               	movf	suart_print_microdeg@udeg+2,w
  6900     0F72  00F6               	movwf	___almod@dividend+2
  6901     0F73  0838               	movf	suart_print_microdeg@udeg+1,w
  6902     0F74  00F5               	movwf	___almod@dividend+1
  6903     0F75  0837               	movf	suart_print_microdeg@udeg,w
  6904     0F76  00F4               	movwf	___almod@dividend
  6905     0F77  318D  259E  318F   	fcall	___almod
  6906     0F7A  0873               	movf	?___almod+3,w
  6907     0F7B  0020               	movlb	0	; select bank0
  6908     0F7C  00C2               	movwf	suart_print_microdeg@frac+3
  6909     0F7D  0872               	movf	?___almod+2,w
  6910     0F7E  00C1               	movwf	suart_print_microdeg@frac+2
  6911     0F7F  0871               	movf	?___almod+1,w
  6912     0F80  00C0               	movwf	suart_print_microdeg@frac+1
  6913     0F81  0870               	movf	?___almod,w
  6914     0F82  00BF               	movwf	suart_print_microdeg@frac
  6915     0F83                     l2166:
  6916                           
  6917                           ;main.c: 54:     suart_print_int32(whole);
  6918     0F83  083E               	movf	suart_print_microdeg@whole+3,w
  6919     0F84  00A9               	movwf	suart_print_int32@v+3
  6920     0F85  083D               	movf	suart_print_microdeg@whole+2,w
  6921     0F86  00A8               	movwf	suart_print_int32@v+2
  6922     0F87  083C               	movf	suart_print_microdeg@whole+1,w
  6923     0F88  00A7               	movwf	suart_print_int32@v+1
  6924     0F89  083B               	movf	suart_print_microdeg@whole,w
  6925     0F8A  00A6               	movwf	suart_print_int32@v
  6926     0F8B  3180  2006  318F   	fcall	_suart_print_int32
  6927     0F8E                     l2168:
  6928                           
  6929                           ;main.c: 55:     suart_putc('.');
  6930     0F8E  302E               	movlw	46
  6931     0F8F  3188  203E  318F   	fcall	_suart_putc
  6932     0F92                     l2170:
  6933                           
  6934                           ;main.c: 57:     int32_t div = 100000L;
  6935     0F92  3000               	movlw	0
  6936     0F93  0020               	movlb	0	; select bank0
  6937     0F94  00C6               	movwf	suart_print_microdeg@div+3
  6938     0F95  3001               	movlw	1
  6939     0F96  00C5               	movwf	suart_print_microdeg@div+2
  6940     0F97  3086               	movlw	134
  6941     0F98  00C4               	movwf	suart_print_microdeg@div+1
  6942     0F99  30A0               	movlw	160
  6943     0F9A  00C3               	movwf	suart_print_microdeg@div
  6944                           
  6945                           ;main.c: 58:     while (div > 0) {
  6946     0F9B  2FEE               	goto	l2174
  6947     0F9C                     l2172:
  6948                           
  6949                           ;main.c: 59:         suart_putc((char)('0' + (frac / div)));
  6950     0F9C  0020               	movlb	0	; select bank0
  6951     0F9D  0846               	movf	suart_print_microdeg@div+3,w
  6952     0F9E  00F3               	movwf	___aldiv@divisor+3
  6953     0F9F  0845               	movf	suart_print_microdeg@div+2,w
  6954     0FA0  00F2               	movwf	___aldiv@divisor+2
  6955     0FA1  0844               	movf	suart_print_microdeg@div+1,w
  6956     0FA2  00F1               	movwf	___aldiv@divisor+1
  6957     0FA3  0843               	movf	suart_print_microdeg@div,w
  6958     0FA4  00F0               	movwf	___aldiv@divisor
  6959     0FA5  0842               	movf	suart_print_microdeg@frac+3,w
  6960     0FA6  00F7               	movwf	___aldiv@dividend+3
  6961     0FA7  0841               	movf	suart_print_microdeg@frac+2,w
  6962     0FA8  00F6               	movwf	___aldiv@dividend+2
  6963     0FA9  0840               	movf	suart_print_microdeg@frac+1,w
  6964     0FAA  00F5               	movwf	___aldiv@dividend+1
  6965     0FAB  083F               	movf	suart_print_microdeg@frac,w
  6966     0FAC  00F4               	movwf	___aldiv@dividend
  6967     0FAD  318E  26A6  318F   	fcall	___aldiv
  6968     0FB0  0870               	movf	?___aldiv,w
  6969     0FB1  3E30               	addlw	48
  6970     0FB2  3188  203E  318F   	fcall	_suart_putc
  6971                           
  6972                           ;main.c: 60:         frac %= div;
  6973     0FB5  0020               	movlb	0	; select bank0
  6974     0FB6  0846               	movf	suart_print_microdeg@div+3,w
  6975     0FB7  00F3               	movwf	___almod@divisor+3
  6976     0FB8  0845               	movf	suart_print_microdeg@div+2,w
  6977     0FB9  00F2               	movwf	___almod@divisor+2
  6978     0FBA  0844               	movf	suart_print_microdeg@div+1,w
  6979     0FBB  00F1               	movwf	___almod@divisor+1
  6980     0FBC  0843               	movf	suart_print_microdeg@div,w
  6981     0FBD  00F0               	movwf	___almod@divisor
  6982     0FBE  0842               	movf	suart_print_microdeg@frac+3,w
  6983     0FBF  00F7               	movwf	___almod@dividend+3
  6984     0FC0  0841               	movf	suart_print_microdeg@frac+2,w
  6985     0FC1  00F6               	movwf	___almod@dividend+2
  6986     0FC2  0840               	movf	suart_print_microdeg@frac+1,w
  6987     0FC3  00F5               	movwf	___almod@dividend+1
  6988     0FC4  083F               	movf	suart_print_microdeg@frac,w
  6989     0FC5  00F4               	movwf	___almod@dividend
  6990     0FC6  318D  259E  318F   	fcall	___almod
  6991     0FC9  0873               	movf	?___almod+3,w
  6992     0FCA  0020               	movlb	0	; select bank0
  6993     0FCB  00C2               	movwf	suart_print_microdeg@frac+3
  6994     0FCC  0872               	movf	?___almod+2,w
  6995     0FCD  00C1               	movwf	suart_print_microdeg@frac+2
  6996     0FCE  0871               	movf	?___almod+1,w
  6997     0FCF  00C0               	movwf	suart_print_microdeg@frac+1
  6998     0FD0  0870               	movf	?___almod,w
  6999     0FD1  00BF               	movwf	suart_print_microdeg@frac
  7000                           
  7001                           ;main.c: 61:         div /= 10;
  7002     0FD2  3000               	movlw	0
  7003     0FD3  00F3               	movwf	___aldiv@divisor+3
  7004     0FD4  3000               	movlw	0
  7005     0FD5  00F2               	movwf	___aldiv@divisor+2
  7006     0FD6  3000               	movlw	0
  7007     0FD7  00F1               	movwf	___aldiv@divisor+1
  7008     0FD8  300A               	movlw	10
  7009     0FD9  00F0               	movwf	___aldiv@divisor
  7010     0FDA  0846               	movf	suart_print_microdeg@div+3,w
  7011     0FDB  00F7               	movwf	___aldiv@dividend+3
  7012     0FDC  0845               	movf	suart_print_microdeg@div+2,w
  7013     0FDD  00F6               	movwf	___aldiv@dividend+2
  7014     0FDE  0844               	movf	suart_print_microdeg@div+1,w
  7015     0FDF  00F5               	movwf	___aldiv@dividend+1
  7016     0FE0  0843               	movf	suart_print_microdeg@div,w
  7017     0FE1  00F4               	movwf	___aldiv@dividend
  7018     0FE2  318E  26A6  318F   	fcall	___aldiv
  7019     0FE5  0873               	movf	?___aldiv+3,w
  7020     0FE6  0020               	movlb	0	; select bank0
  7021     0FE7  00C6               	movwf	suart_print_microdeg@div+3
  7022     0FE8  0872               	movf	?___aldiv+2,w
  7023     0FE9  00C5               	movwf	suart_print_microdeg@div+2
  7024     0FEA  0871               	movf	?___aldiv+1,w
  7025     0FEB  00C4               	movwf	suart_print_microdeg@div+1
  7026     0FEC  0870               	movf	?___aldiv,w
  7027     0FED  00C3               	movwf	suart_print_microdeg@div
  7028     0FEE                     l2174:
  7029                           
  7030                           ;main.c: 58:     while (div > 0) {
  7031     0FEE  1BC6               	btfsc	suart_print_microdeg@div+3,7
  7032     0FEF  2FFF               	goto	u2270
  7033     0FF0  0846               	movf	suart_print_microdeg@div+3,w
  7034     0FF1  1D03               	btfss	3,2
  7035     0FF2  2FFE               	goto	u2271
  7036     0FF3  0845               	movf	suart_print_microdeg@div+2,w
  7037     0FF4  1D03               	btfss	3,2
  7038     0FF5  2FFE               	goto	u2271
  7039     0FF6  0844               	movf	suart_print_microdeg@div+1,w
  7040     0FF7  1D03               	btfss	3,2
  7041     0FF8  2FFE               	goto	u2271
  7042     0FF9  3001               	movlw	1
  7043     0FFA  0243               	subwf	suart_print_microdeg@div,w
  7044     0FFB  1803               	btfsc	3,0
  7045     0FFC  2FFE               	goto	u2271
  7046     0FFD  2FFF               	goto	u2270
  7047     0FFE                     u2271:
  7048     0FFE  2F9C               	goto	l2172
  7049     0FFF                     u2270:
  7050     0FFF                     l76:
  7051     0FFF  0008               	return
  7052     1000                     __end_of_suart_print_microdeg:
  7053                           
  7054                           	psect	text25
  7055     0006                     __ptext25:	
  7056 ;; *************** function _suart_print_int32 *****************
  7057 ;; Defined at:
  7058 ;;		line 37 in file "main.c"
  7059 ;; Parameters:    Size  Location     Type
  7060 ;;  v               4    6[BANK0 ] long 
  7061 ;; Auto vars:     Size  Location     Type
  7062 ;;  buf            12   10[BANK0 ] unsigned char [12]
  7063 ;;  i               1   22[BANK0 ] unsigned char 
  7064 ;; Return value:  Size  Location     Type
  7065 ;;                  1    wreg      void 
  7066 ;; Registers used:
  7067 ;;		wreg, fsr1l, fsr1h, status,2, status,0, pclath, cstack
  7068 ;; Tracked objects:
  7069 ;;		On entry : 0/0
  7070 ;;		On exit  : 0/0
  7071 ;;		Unchanged: 0/0
  7072 ;; Data sizes:     COMMON   BANK0   BANK1   BANK2   BANK3   BANK4   BANK5   BANK6   BANK7   BANK8   BANK9  BANK10  BANK1
      +1  BANK12  BANK13  BANK14  BANK15  BANK16  BANK17  BANK18  BANK19  BANK20  BANK21  BANK22  BANK23  BANK24  BANK25
  7073 ;;      Params:         0       4       0       0       0       0       0       0       0       0       0       0       
      +0       0       0       0       0       0       0       0       0       0       0       0       0       0       0
  7074 ;;      Locals:         0      13       0       0       0       0       0       0       0       0       0       0       
      +0       0       0       0       0       0       0       0       0       0       0       0       0       0       0
  7075 ;;      Temps:          1       0       0       0       0       0       0       0       0       0       0       0       
      +0       0       0       0       0       0       0       0       0       0       0       0       0       0       0
  7076 ;;      Totals:         1      17       0       0       0       0       0       0       0       0       0       0       
      +0       0       0       0       0       0       0       0       0       0       0       0       0       0       0
  7077 ;;Total ram usage:       18 bytes
  7078 ;; Hardware stack levels used: 1
  7079 ;; Hardware stack levels required when called: 4
  7080 ;; This function calls:
  7081 ;;		___aldiv
  7082 ;;		___almod
  7083 ;;		_suart_putc
  7084 ;; This function is called by:
  7085 ;;		_suart_print_microdeg
  7086 ;; This function uses a non-reentrant model
  7087 ;;
  7088                           
  7089     0006                     _suart_print_int32:	
  7090                           ;psect for function _suart_print_int32
  7091                           
  7092     0006                     l2048:	
  7093                           ;incstack = 0
  7094                           ; Regs used in _suart_print_int32: [wreg+fsr1l+fsr1h+status,2+status,0+pclath+cstack]
  7095                           
  7096                           
  7097                           ;main.c: 37: static void suart_print_int32(int32_t v);main.c: 38: {;main.c: 39:     char
      +                           buf[12];;main.c: 40:     char i = 0;
  7098     0006  0020               	movlb	0	; select bank0
  7099     0007  01B6               	clrf	suart_print_int32@i
  7100     0008                     l2050:
  7101                           
  7102                           ;main.c: 41:     if (v == 0) { suart_putc('0'); return; }
  7103     0008  0829               	movf	suart_print_int32@v+3,w
  7104     0009  0428               	iorwf	suart_print_int32@v+2,w
  7105     000A  0427               	iorwf	suart_print_int32@v+1,w
  7106     000B  0426               	iorwf	suart_print_int32@v,w
  7107     000C  1D03               	skipz
  7108     000D  280F               	goto	u2001
  7109     000E  2810               	goto	u2000
  7110     000F                     u2001:
  7111     000F  2815               	goto	l59
  7112     0010                     u2000:
  7113     0010                     l2052:
  7114     0010  3030               	movlw	48
  7115     0011  3188  203E  3180   	fcall	_suart_putc
  7116     0014  288E               	goto	l60
  7117     0015                     l59:
  7118                           
  7119                           ;main.c: 42:     if (v < 0) { suart_putc('-'); v = -v; }
  7120     0015  1FA9               	btfss	suart_print_int32@v+3,7
  7121     0016  2818               	goto	u2011
  7122     0017  2819               	goto	u2010
  7123     0018                     u2011:
  7124     0018  2865               	goto	l2066
  7125     0019                     u2010:
  7126     0019                     l2056:
  7127     0019  302D               	movlw	45
  7128     001A  3188  203E  3180   	fcall	_suart_putc
  7129     001D                     l2058:
  7130     001D  0020               	movlb	0	; select bank0
  7131     001E  09A6               	comf	suart_print_int32@v,f
  7132     001F  09A7               	comf	suart_print_int32@v+1,f
  7133     0020  09A8               	comf	suart_print_int32@v+2,f
  7134     0021  09A9               	comf	suart_print_int32@v+3,f
  7135     0022  0AA6               	incf	suart_print_int32@v,f
  7136     0023  1903               	skipnz
  7137     0024  0AA7               	incf	suart_print_int32@v+1,f
  7138     0025  1903               	skipnz
  7139     0026  0AA8               	incf	suart_print_int32@v+2,f
  7140     0027  1903               	skipnz
  7141     0028  0AA9               	incf	suart_print_int32@v+3,f
  7142     0029  2865               	goto	l2066
  7143     002A                     l2060:
  7144     002A  0836               	movf	suart_print_int32@i,w
  7145     002B  3E2A               	addlw	(low (suart_print_int32@buf| 0))& (0+255)
  7146     002C  0086               	movwf	6
  7147     002D  0187               	clrf	7
  7148     002E  3000               	movlw	0
  7149     002F  00F3               	movwf	___almod@divisor+3
  7150     0030  3000               	movlw	0
  7151     0031  00F2               	movwf	___almod@divisor+2
  7152     0032  3000               	movlw	0
  7153     0033  00F1               	movwf	___almod@divisor+1
  7154     0034  300A               	movlw	10
  7155     0035  00F0               	movwf	___almod@divisor
  7156     0036  0829               	movf	suart_print_int32@v+3,w
  7157     0037  00F7               	movwf	___almod@dividend+3
  7158     0038  0828               	movf	suart_print_int32@v+2,w
  7159     0039  00F6               	movwf	___almod@dividend+2
  7160     003A  0827               	movf	suart_print_int32@v+1,w
  7161     003B  00F5               	movwf	___almod@dividend+1
  7162     003C  0826               	movf	suart_print_int32@v,w
  7163     003D  00F4               	movwf	___almod@dividend
  7164     003E  318D  259E  3180   	fcall	___almod
  7165     0041  0870               	movf	?___almod,w
  7166     0042  3E30               	addlw	48
  7167     0043  0081               	movwf	1
  7168     0044                     l2062:
  7169     0044  3001               	movlw	1
  7170     0045  00FB               	movwf	??_suart_print_int32
  7171     0046  087B               	movf	??_suart_print_int32,w
  7172     0047  0020               	movlb	0	; select bank0
  7173     0048  07B6               	addwf	suart_print_int32@i,f
  7174     0049                     l2064:
  7175     0049  3000               	movlw	0
  7176     004A  00F3               	movwf	___aldiv@divisor+3
  7177     004B  3000               	movlw	0
  7178     004C  00F2               	movwf	___aldiv@divisor+2
  7179     004D  3000               	movlw	0
  7180     004E  00F1               	movwf	___aldiv@divisor+1
  7181     004F  300A               	movlw	10
  7182     0050  00F0               	movwf	___aldiv@divisor
  7183     0051  0829               	movf	suart_print_int32@v+3,w
  7184     0052  00F7               	movwf	___aldiv@dividend+3
  7185     0053  0828               	movf	suart_print_int32@v+2,w
  7186     0054  00F6               	movwf	___aldiv@dividend+2
  7187     0055  0827               	movf	suart_print_int32@v+1,w
  7188     0056  00F5               	movwf	___aldiv@dividend+1
  7189     0057  0826               	movf	suart_print_int32@v,w
  7190     0058  00F4               	movwf	___aldiv@dividend
  7191     0059  318E  26A6  3180   	fcall	___aldiv
  7192     005C  0873               	movf	?___aldiv+3,w
  7193     005D  0020               	movlb	0	; select bank0
  7194     005E  00A9               	movwf	suart_print_int32@v+3
  7195     005F  0872               	movf	?___aldiv+2,w
  7196     0060  00A8               	movwf	suart_print_int32@v+2
  7197     0061  0871               	movf	?___aldiv+1,w
  7198     0062  00A7               	movwf	suart_print_int32@v+1
  7199     0063  0870               	movf	?___aldiv,w
  7200     0064  00A6               	movwf	suart_print_int32@v
  7201     0065                     l2066:
  7202     0065  1BA9               	btfsc	suart_print_int32@v+3,7
  7203     0066  2875               	goto	u2021
  7204     0067  0829               	movf	suart_print_int32@v+3,w
  7205     0068  1D03               	btfss	3,2
  7206     0069  2876               	goto	u2020
  7207     006A  0828               	movf	suart_print_int32@v+2,w
  7208     006B  1D03               	btfss	3,2
  7209     006C  2876               	goto	u2020
  7210     006D  0827               	movf	suart_print_int32@v+1,w
  7211     006E  1D03               	btfss	3,2
  7212     006F  2876               	goto	u2020
  7213     0070  3001               	movlw	1
  7214     0071  0226               	subwf	suart_print_int32@v,w
  7215     0072  1C03               	btfss	3,0
  7216     0073  2875               	goto	u2021
  7217     0074  2876               	goto	u2020
  7218     0075                     u2021:
  7219     0075  2886               	goto	l2072
  7220     0076                     u2020:
  7221     0076                     l2068:
  7222     0076  300C               	movlw	12
  7223     0077  0020               	movlb	0	; select bank0
  7224     0078  0236               	subwf	suart_print_int32@i,w
  7225     0079  1C03               	skipc
  7226     007A  287C               	goto	u2031
  7227     007B  287D               	goto	u2030
  7228     007C                     u2031:
  7229     007C  282A               	goto	l2060
  7230     007D                     u2030:
  7231     007D  2886               	goto	l2072
  7232     007E                     l2070:
  7233     007E  0836               	movf	suart_print_int32@i,w
  7234     007F  3E2A               	addlw	(low (suart_print_int32@buf| 0))& (0+255)
  7235     0080  0086               	movwf	6
  7236     0081  0187               	clrf	7
  7237     0082  0801               	movf	1,w
  7238     0083  3188  203E  3180   	fcall	_suart_putc
  7239     0086                     l2072:
  7240     0086  3001               	movlw	1
  7241     0087  0020               	movlb	0	; select bank0
  7242     0088  02B6               	subwf	suart_print_int32@i,f
  7243     0089  0A36               	incf	suart_print_int32@i,w
  7244     008A  1D03               	btfss	3,2
  7245     008B  288D               	goto	u2041
  7246     008C  288E               	goto	u2040
  7247     008D                     u2041:
  7248     008D  287E               	goto	l2070
  7249     008E                     u2040:
  7250     008E                     l60:
  7251     008E  0008               	return
  7252     008F                     __end_of_suart_print_int32:
  7253                           
  7254                           	psect	text26
  7255     083E                     __ptext26:	
  7256 ;; *************** function _suart_putc *****************
  7257 ;; Defined at:
  7258 ;;		line 26 in file "main.c"
  7259 ;; Parameters:    Size  Location     Type
  7260 ;;  c               1    wreg     unsigned char 
  7261 ;; Auto vars:     Size  Location     Type
  7262 ;;  c               1    6[COMMON] unsigned char 
  7263 ;; Return value:  Size  Location     Type
  7264 ;;                  1    wreg      void 
  7265 ;; Registers used:
  7266 ;;		wreg, status,2, status,0, pclath, cstack
  7267 ;; Tracked objects:
  7268 ;;		On entry : 0/0
  7269 ;;		On exit  : 0/0
  7270 ;;		Unchanged: 0/0
  7271 ;; Data sizes:     COMMON   BANK0   BANK1   BANK2   BANK3   BANK4   BANK5   BANK6   BANK7   BANK8   BANK9  BANK10  BANK1
      +1  BANK12  BANK13  BANK14  BANK15  BANK16  BANK17  BANK18  BANK19  BANK20  BANK21  BANK22  BANK23  BANK24  BANK25
  7272 ;;      Params:         0       0       0       0       0       0       0       0       0       0       0       0       
      +0       0       0       0       0       0       0       0       0       0       0       0       0       0       0
  7273 ;;      Locals:         1       0       0       0       0       0       0       0       0       0       0       0       
      +0       0       0       0       0       0       0       0       0       0       0       0       0       0       0
  7274 ;;      Temps:          0       0       0       0       0       0       0       0       0       0       0       0       
      +0       0       0       0       0       0       0       0       0       0       0       0       0       0       0
  7275 ;;      Totals:         1       0       0       0       0       0       0       0       0       0       0       0       
      +0       0       0       0       0       0       0       0       0       0       0       0       0       0       0
  7276 ;;Total ram usage:        1 bytes
  7277 ;; Hardware stack levels used: 1
  7278 ;; Hardware stack levels required when called: 3
  7279 ;; This function calls:
  7280 ;;		_SUART_Write_Char
  7281 ;; This function is called by:
  7282 ;;		_suart_print_uint16
  7283 ;;		_suart_print_int32
  7284 ;;		_suart_print_microdeg
  7285 ;;		_avg_print
  7286 ;;		_main
  7287 ;; This function uses a non-reentrant model
  7288 ;;
  7289                           
  7290     083E                     _suart_putc:	
  7291                           ;psect for function _suart_putc
  7292                           
  7293                           
  7294                           ;incstack = 0
  7295                           ; Regs used in _suart_putc: [wreg+status,2+status,0+pclath+cstack]
  7296                           ;suart_putc@c stored from wreg
  7297     083E  00F6               	movwf	suart_putc@c
  7298     083F                     l1966:
  7299     083F  0876               	movf	suart_putc@c,w
  7300     0840  3188  2038  3188   	fcall	_SUART_Write_Char
  7301     0843                     l44:
  7302     0843  0008               	return
  7303     0844                     __end_of_suart_putc:
  7304                           
  7305                           	psect	text27
  7306     0838                     __ptext27:	
  7307 ;; *************** function _SUART_Write_Char *****************
  7308 ;; Defined at:
  7309 ;;		line 227 in file "SEUSART.c"
  7310 ;; Parameters:    Size  Location     Type
  7311 ;;  a               1    wreg     unsigned char 
  7312 ;; Auto vars:     Size  Location     Type
  7313 ;;  a               1    5[COMMON] unsigned char 
  7314 ;; Return value:  Size  Location     Type
  7315 ;;                  1    wreg      void 
  7316 ;; Registers used:
  7317 ;;		wreg, status,2, status,0, pclath, cstack
  7318 ;; Tracked objects:
  7319 ;;		On entry : 0/0
  7320 ;;		On exit  : 0/0
  7321 ;;		Unchanged: 0/0
  7322 ;; Data sizes:     COMMON   BANK0   BANK1   BANK2   BANK3   BANK4   BANK5   BANK6   BANK7   BANK8   BANK9  BANK10  BANK1
      +1  BANK12  BANK13  BANK14  BANK15  BANK16  BANK17  BANK18  BANK19  BANK20  BANK21  BANK22  BANK23  BANK24  BANK25
  7323 ;;      Params:         0       0       0       0       0       0       0       0       0       0       0       0       
      +0       0       0       0       0       0       0       0       0       0       0       0       0       0       0
  7324 ;;      Locals:         1       0       0       0       0       0       0       0       0       0       0       0       
      +0       0       0       0       0       0       0       0       0       0       0       0       0       0       0
  7325 ;;      Temps:          0       0       0       0       0       0       0       0       0       0       0       0       
      +0       0       0       0       0       0       0       0       0       0       0       0       0       0       0
  7326 ;;      Totals:         1       0       0       0       0       0       0       0       0       0       0       0       
      +0       0       0       0       0       0       0       0       0       0       0       0       0       0       0
  7327 ;;Total ram usage:        1 bytes
  7328 ;; Hardware stack levels used: 1
  7329 ;; Hardware stack levels required when called: 2
  7330 ;; This function calls:
  7331 ;;		_SUART_Transmit
  7332 ;; This function is called by:
  7333 ;;		_suart_putc
  7334 ;; This function uses a non-reentrant model
  7335 ;;
  7336                           
  7337     0838                     _SUART_Write_Char:	
  7338                           ;psect for function _SUART_Write_Char
  7339                           
  7340                           
  7341                           ;incstack = 0
  7342                           ; Regs used in _SUART_Write_Char: [wreg+status,2+status,0+pclath+cstack]
  7343                           ;SUART_Write_Char@a stored from wreg
  7344     0838  00F5               	movwf	SUART_Write_Char@a
  7345     0839                     l1964:
  7346                           
  7347                           ;SEUSART.c: 227: void SUART_Write_Char(char a);SEUSART.c: 228: {;SEUSART.c: 229:     SUA
      +                          RT_Transmit(a);
  7348     0839  0875               	movf	SUART_Write_Char@a,w
  7349     083A  3189  21A4  3188   	fcall	_SUART_Transmit
  7350     083D                     l391:
  7351     083D  0008               	return
  7352     083E                     __end_of_SUART_Write_Char:
  7353                           
  7354                           	psect	text28
  7355     09A4                     __ptext28:	
  7356 ;; *************** function _SUART_Transmit *****************
  7357 ;; Defined at:
  7358 ;;		line 159 in file "SEUSART.c"
  7359 ;; Parameters:    Size  Location     Type
  7360 ;;  DataValue       1    wreg     const unsigned char 
  7361 ;; Auto vars:     Size  Location     Type
  7362 ;;  DataValue       1    2[COMMON] const unsigned char 
  7363 ;;  i               1    4[COMMON] unsigned char 
  7364 ;;  gie             1    3[COMMON] unsigned char 
  7365 ;; Return value:  Size  Location     Type
  7366 ;;                  1    wreg      void 
  7367 ;; Registers used:
  7368 ;;		wreg, status,2, status,0, pclath, cstack
  7369 ;; Tracked objects:
  7370 ;;		On entry : 0/0
  7371 ;;		On exit  : 0/0
  7372 ;;		Unchanged: 0/0
  7373 ;; Data sizes:     COMMON   BANK0   BANK1   BANK2   BANK3   BANK4   BANK5   BANK6   BANK7   BANK8   BANK9  BANK10  BANK1
      +1  BANK12  BANK13  BANK14  BANK15  BANK16  BANK17  BANK18  BANK19  BANK20  BANK21  BANK22  BANK23  BANK24  BANK25
  7374 ;;      Params:         0       0       0       0       0       0       0       0       0       0       0       0       
      +0       0       0       0       0       0       0       0       0       0       0       0       0       0       0
  7375 ;;      Locals:         3       0       0       0       0       0       0       0       0       0       0       0       
      +0       0       0       0       0       0       0       0       0       0       0       0       0       0       0
  7376 ;;      Temps:          1       0       0       0       0       0       0       0       0       0       0       0       
      +0       0       0       0       0       0       0       0       0       0       0       0       0       0       0
  7377 ;;      Totals:         4       0       0       0       0       0       0       0       0       0       0       0       
      +0       0       0       0       0       0       0       0       0       0       0       0       0       0       0
  7378 ;;Total ram usage:        4 bytes
  7379 ;; Hardware stack levels used: 1
  7380 ;; Hardware stack levels required when called: 1
  7381 ;; This function calls:
  7382 ;;		_SUART_Lock
  7383 ;;		_SUART_Unlock
  7384 ;; This function is called by:
  7385 ;;		_SUART_Write_Text
  7386 ;;		_SUART_Write_Char
  7387 ;; This function uses a non-reentrant model
  7388 ;;
  7389                           
  7390     09A4                     _SUART_Transmit:	
  7391                           ;psect for function _SUART_Transmit
  7392                           
  7393                           
  7394                           ;incstack = 0
  7395                           ; Regs used in _SUART_Transmit: [wreg+status,2+status,0+pclath+cstack]
  7396                           ;SUART_Transmit@DataValue stored from wreg
  7397     09A4  00F2               	movwf	SUART_Transmit@DataValue
  7398     09A5                     l1942:
  7399                           
  7400                           ;SEUSART.c: 159: void SUART_Transmit(const char DataValue);SEUSART.c: 160: {;SEUSART.c: 
      +                          161:     unsigned char gie = SUART_Lock();
  7401     09A5  3188  2044  3189   	fcall	_SUART_Lock
  7402     09A8  00F3               	movwf	SUART_Transmit@gie
  7403     09A9                     l1944:
  7404                           
  7405                           ;SEUSART.c: 164:     LATBbits.LATB1 = 0;
  7406     09A9  0022               	movlb	2	; select bank2
  7407     09AA  108D               	bcf	13,1	;volatile
  7408     09AB                     l1946:
  7409                           
  7410                           ;SEUSART.c: 165:     _delay((unsigned long)(((1000000UL/2400))*(32000000/4000000.0)));
  7411     09AB  3005               	movlw	5
  7412     09AC  00F1               	movwf	??_SUART_Transmit
  7413     09AD  3051               	movlw	81
  7414     09AE                     u3497:
  7415     09AE  0B89               	decfsz	9,f
  7416     09AF  29AE               	goto	u3497
  7417     09B0  0BF1               	decfsz	??_SUART_Transmit,f
  7418     09B1  29AE               	goto	u3497
  7419     09B2  0000               	nop
  7420     09B3                     l1948:
  7421                           
  7422                           ;SEUSART.c: 168:     for (unsigned char i = 0; i < 8; i++)
  7423     09B3  01F4               	clrf	SUART_Transmit@i
  7424     09B4                     l1954:
  7425                           
  7426                           ;SEUSART.c: 169:     {;SEUSART.c: 170:         LATBbits.LATB1 = ((DataValue >> i) & 0x1)
      +                           ? 1 : 0;
  7427     09B4  0872               	movf	SUART_Transmit@DataValue,w
  7428     09B5  00F1               	movwf	??_SUART_Transmit
  7429     09B6  0A74               	incf	SUART_Transmit@i,w
  7430     09B7  29B9               	goto	u1764
  7431     09B8                     u1765:
  7432     09B8  36F1               	lsrf	??_SUART_Transmit,f
  7433     09B9                     u1764:
  7434     09B9  0B89               	decfsz	9,f
  7435     09BA  29B8               	goto	u1765
  7436     09BB  1871               	btfsc	??_SUART_Transmit,0
  7437     09BC  29BE               	goto	u1771
  7438     09BD  29C1               	goto	u1770
  7439     09BE                     u1771:
  7440     09BE  0022               	movlb	2	; select bank2
  7441     09BF  148D               	bsf	13,1	;volatile
  7442     09C0  29C3               	goto	u1784
  7443     09C1                     u1770:
  7444     09C1  0022               	movlb	2	; select bank2
  7445     09C2  108D               	bcf	13,1	;volatile
  7446     09C3                     u1784:
  7447     09C3                     l1956:
  7448                           
  7449                           ;SEUSART.c: 171:         _delay((unsigned long)(((1000000UL/2400))*(32000000/4000000.0))
      +                          );
  7450     09C3  3005               	movlw	5
  7451     09C4  00F1               	movwf	??_SUART_Transmit
  7452     09C5  3051               	movlw	81
  7453     09C6                     u3507:
  7454     09C6  0B89               	decfsz	9,f
  7455     09C7  29C6               	goto	u3507
  7456     09C8  0BF1               	decfsz	??_SUART_Transmit,f
  7457     09C9  29C6               	goto	u3507
  7458     09CA  0000               	nop
  7459     09CB                     l1958:
  7460                           
  7461                           ;SEUSART.c: 172:     }
  7462     09CB  3001               	movlw	1
  7463     09CC  00F1               	movwf	??_SUART_Transmit
  7464     09CD  0871               	movf	??_SUART_Transmit,w
  7465     09CE  07F4               	addwf	SUART_Transmit@i,f
  7466     09CF  3008               	movlw	8
  7467     09D0  0274               	subwf	SUART_Transmit@i,w
  7468     09D1  1C03               	skipc
  7469     09D2  29D4               	goto	u1791
  7470     09D3  29D5               	goto	u1790
  7471     09D4                     u1791:
  7472     09D4  29B4               	goto	l1954
  7473     09D5                     u1790:
  7474     09D5                     l374:
  7475                           
  7476                           ;SEUSART.c: 175:     LATBbits.LATB1 = 1;
  7477     09D5  0022               	movlb	2	; select bank2
  7478     09D6  148D               	bsf	13,1	;volatile
  7479     09D7                     l1960:
  7480                           
  7481                           ;SEUSART.c: 176:     _delay((unsigned long)(((1000000UL/2400))*(32000000/4000000.0)));
  7482     09D7  3005               	movlw	5
  7483     09D8  00F1               	movwf	??_SUART_Transmit
  7484     09D9  3051               	movlw	81
  7485     09DA                     u3517:
  7486     09DA  0B89               	decfsz	9,f
  7487     09DB  29DA               	goto	u3517
  7488     09DC  0BF1               	decfsz	??_SUART_Transmit,f
  7489     09DD  29DA               	goto	u3517
  7490     09DE  0000               	nop
  7491     09DF                     l1962:
  7492                           
  7493                           ;SEUSART.c: 178:     SUART_Unlock(gie);
  7494     09DF  0873               	movf	SUART_Transmit@gie,w
  7495     09E0  3188  204B  3189   	fcall	_SUART_Unlock
  7496     09E3                     l375:
  7497     09E3  0008               	return
  7498     09E4                     __end_of_SUART_Transmit:
  7499                           
  7500                           	psect	text29
  7501     084B                     __ptext29:	
  7502 ;; *************** function _SUART_Unlock *****************
  7503 ;; Defined at:
  7504 ;;		line 45 in file "SEUSART.c"
  7505 ;; Parameters:    Size  Location     Type
  7506 ;;  gie             1    wreg     unsigned char 
  7507 ;; Auto vars:     Size  Location     Type
  7508 ;;  gie             1    0[COMMON] unsigned char 
  7509 ;; Return value:  Size  Location     Type
  7510 ;;                  1    wreg      void 
  7511 ;; Registers used:
  7512 ;;		wreg, status,0
  7513 ;; Tracked objects:
  7514 ;;		On entry : 0/0
  7515 ;;		On exit  : 0/0
  7516 ;;		Unchanged: 0/0
  7517 ;; Data sizes:     COMMON   BANK0   BANK1   BANK2   BANK3   BANK4   BANK5   BANK6   BANK7   BANK8   BANK9  BANK10  BANK1
      +1  BANK12  BANK13  BANK14  BANK15  BANK16  BANK17  BANK18  BANK19  BANK20  BANK21  BANK22  BANK23  BANK24  BANK25
  7518 ;;      Params:         0       0       0       0       0       0       0       0       0       0       0       0       
      +0       0       0       0       0       0       0       0       0       0       0       0       0       0       0
  7519 ;;      Locals:         1       0       0       0       0       0       0       0       0       0       0       0       
      +0       0       0       0       0       0       0       0       0       0       0       0       0       0       0
  7520 ;;      Temps:          0       0       0       0       0       0       0       0       0       0       0       0       
      +0       0       0       0       0       0       0       0       0       0       0       0       0       0       0
  7521 ;;      Totals:         1       0       0       0       0       0       0       0       0       0       0       0       
      +0       0       0       0       0       0       0       0       0       0       0       0       0       0       0
  7522 ;;Total ram usage:        1 bytes
  7523 ;; Hardware stack levels used: 1
  7524 ;; This function calls:
  7525 ;;		Nothing
  7526 ;; This function is called by:
  7527 ;;		_SUART_Transmit
  7528 ;;		_SUART_Receive
  7529 ;; This function uses a non-reentrant model
  7530 ;;
  7531                           
  7532     084B                     _SUART_Unlock:	
  7533                           ;psect for function _SUART_Unlock
  7534                           
  7535                           
  7536                           ;incstack = 0
  7537                           ; Regs used in _SUART_Unlock: [wreg+status,0]
  7538                           ;SUART_Unlock@gie stored from wreg
  7539     084B  00F0               	movwf	SUART_Unlock@gie
  7540     084C                     l1940:
  7541                           
  7542                           ;SEUSART.c: 45: static __attribute__((inline)) void SUART_Unlock(unsigned char gie);SEUS
      +                          ART.c: 46: {;SEUSART.c: 48:     INTCONbits.GIE = gie;
  7543     084C  0C70               	rrf	SUART_Unlock@gie,w
  7544     084D  1C03               	skipc
  7545     084E  138B               	bcf	11,7	;volatile
  7546     084F  1803               	skipnc
  7547     0850  178B               	bsf	11,7	;volatile
  7548     0851                     l351:
  7549     0851  0008               	return
  7550     0852                     __end_of_SUART_Unlock:
  7551                           
  7552                           	psect	text30
  7553     0844                     __ptext30:	
  7554 ;; *************** function _SUART_Lock *****************
  7555 ;; Defined at:
  7556 ;;		line 34 in file "SEUSART.c"
  7557 ;; Parameters:    Size  Location     Type
  7558 ;;		None
  7559 ;; Auto vars:     Size  Location     Type
  7560 ;;  gie             1    0[COMMON] unsigned char 
  7561 ;; Return value:  Size  Location     Type
  7562 ;;                  1    wreg      unsigned char 
  7563 ;; Registers used:
  7564 ;;		wreg, status,2
  7565 ;; Tracked objects:
  7566 ;;		On entry : 0/0
  7567 ;;		On exit  : 0/0
  7568 ;;		Unchanged: 0/0
  7569 ;; Data sizes:     COMMON   BANK0   BANK1   BANK2   BANK3   BANK4   BANK5   BANK6   BANK7   BANK8   BANK9  BANK10  BANK1
      +1  BANK12  BANK13  BANK14  BANK15  BANK16  BANK17  BANK18  BANK19  BANK20  BANK21  BANK22  BANK23  BANK24  BANK25
  7570 ;;      Params:         0       0       0       0       0       0       0       0       0       0       0       0       
      +0       0       0       0       0       0       0       0       0       0       0       0       0       0       0
  7571 ;;      Locals:         1       0       0       0       0       0       0       0       0       0       0       0       
      +0       0       0       0       0       0       0       0       0       0       0       0       0       0       0
  7572 ;;      Temps:          0       0       0       0       0       0       0       0       0       0       0       0       
      +0       0       0       0       0       0       0       0       0       0       0       0       0       0       0
  7573 ;;      Totals:         1       0       0       0       0       0       0       0       0       0       0       0       
      +0       0       0       0       0       0       0       0       0       0       0       0       0       0       0
  7574 ;;Total ram usage:        1 bytes
  7575 ;; Hardware stack levels used: 1
  7576 ;; This function calls:
  7577 ;;		Nothing
  7578 ;; This function is called by:
  7579 ;;		_SUART_Transmit
  7580 ;;		_SUART_Receive
  7581 ;; This function uses a non-reentrant model
  7582 ;;
  7583                           
  7584     0844                     _SUART_Lock:	
  7585                           ;psect for function _SUART_Lock
  7586                           
  7587     0844                     l1932:	
  7588                           ;incstack = 0
  7589                           ; Regs used in _SUART_Lock: [wreg+status,2]
  7590                           
  7591                           
  7592                           ;SEUSART.c: 37:     unsigned char gie = INTCONbits.GIE;
  7593     0844  3000               	movlw	0
  7594     0845  1B8B               	btfsc	11,7	;volatile
  7595     0846  3001               	movlw	1
  7596     0847  00F0               	movwf	SUART_Lock@gie
  7597     0848                     l1934:
  7598                           
  7599                           ;SEUSART.c: 38:     INTCONbits.GIE = 0;
  7600     0848  138B               	bcf	11,7	;volatile
  7601     0849                     l1936:
  7602                           
  7603                           ;SEUSART.c: 39:     return gie;
  7604     0849  0870               	movf	SUART_Lock@gie,w
  7605     084A                     l348:
  7606     084A  0008               	return
  7607     084B                     __end_of_SUART_Lock:
  7608                           
  7609                           	psect	text31
  7610     0D9E                     __ptext31:	
  7611 ;; *************** function ___almod *****************
  7612 ;; Defined at:
  7613 ;;		line 5 in file "C:\Program Files\Microchip\xc8\v2.46\pic\sources\c99\common\almod.c"
  7614 ;; Parameters:    Size  Location     Type
  7615 ;;  divisor         4    0[COMMON] long 
  7616 ;;  dividend        4    4[COMMON] long 
  7617 ;; Auto vars:     Size  Location     Type
  7618 ;;  sign            1   10[COMMON] unsigned char 
  7619 ;;  counter         1    9[COMMON] unsigned char 
  7620 ;; Return value:  Size  Location     Type
  7621 ;;                  4    0[COMMON] long 
  7622 ;; Registers used:
  7623 ;;		wreg, status,2, status,0
  7624 ;; Tracked objects:
  7625 ;;		On entry : 0/0
  7626 ;;		On exit  : 0/0
  7627 ;;		Unchanged: 0/0
  7628 ;; Data sizes:     COMMON   BANK0   BANK1   BANK2   BANK3   BANK4   BANK5   BANK6   BANK7   BANK8   BANK9  BANK10  BANK1
      +1  BANK12  BANK13  BANK14  BANK15  BANK16  BANK17  BANK18  BANK19  BANK20  BANK21  BANK22  BANK23  BANK24  BANK25
  7629 ;;      Params:         8       0       0       0       0       0       0       0       0       0       0       0       
      +0       0       0       0       0       0       0       0       0       0       0       0       0       0       0
  7630 ;;      Locals:         2       0       0       0       0       0       0       0       0       0       0       0       
      +0       0       0       0       0       0       0       0       0       0       0       0       0       0       0
  7631 ;;      Temps:          1       0       0       0       0       0       0       0       0       0       0       0       
      +0       0       0       0       0       0       0       0       0       0       0       0       0       0       0
  7632 ;;      Totals:        11       0       0       0       0       0       0       0       0       0       0       0       
      +0       0       0       0       0       0       0       0       0       0       0       0       0       0       0
  7633 ;;Total ram usage:       11 bytes
  7634 ;; Hardware stack levels used: 1
  7635 ;; This function calls:
  7636 ;;		Nothing
  7637 ;; This function is called by:
  7638 ;;		_suart_print_int32
  7639 ;;		_suart_print_microdeg
  7640 ;; This function uses a non-reentrant model
  7641 ;;
  7642                           
  7643     0D9E                     ___almod:	
  7644                           ;psect for function ___almod
  7645                           
  7646     0D9E                     l2008:	
  7647                           ;incstack = 0
  7648                           ; Regs used in ___almod: [wreg+status,2+status,0]
  7649                           
  7650     0D9E  01FA               	clrf	___almod@sign
  7651     0D9F                     l2010:
  7652     0D9F  1FF7               	btfss	___almod@dividend+3,7
  7653     0DA0  2DA2               	goto	u1901
  7654     0DA1  2DA3               	goto	u1900
  7655     0DA2                     u1901:
  7656     0DA2  2DB0               	goto	l537
  7657     0DA3                     u1900:
  7658     0DA3                     l2012:
  7659     0DA3  09F4               	comf	___almod@dividend,f
  7660     0DA4  09F5               	comf	___almod@dividend+1,f
  7661     0DA5  09F6               	comf	___almod@dividend+2,f
  7662     0DA6  09F7               	comf	___almod@dividend+3,f
  7663     0DA7  0AF4               	incf	___almod@dividend,f
  7664     0DA8  1903               	skipnz
  7665     0DA9  0AF5               	incf	___almod@dividend+1,f
  7666     0DAA  1903               	skipnz
  7667     0DAB  0AF6               	incf	___almod@dividend+2,f
  7668     0DAC  1903               	skipnz
  7669     0DAD  0AF7               	incf	___almod@dividend+3,f
  7670     0DAE  01FA               	clrf	___almod@sign
  7671     0DAF  0AFA               	incf	___almod@sign,f
  7672     0DB0                     l537:
  7673     0DB0  1FF3               	btfss	___almod@divisor+3,7
  7674     0DB1  2DB3               	goto	u1911
  7675     0DB2  2DB4               	goto	u1910
  7676     0DB3                     u1911:
  7677     0DB3  2DBF               	goto	l2016
  7678     0DB4                     u1910:
  7679     0DB4                     l2014:
  7680     0DB4  09F0               	comf	___almod@divisor,f
  7681     0DB5  09F1               	comf	___almod@divisor+1,f
  7682     0DB6  09F2               	comf	___almod@divisor+2,f
  7683     0DB7  09F3               	comf	___almod@divisor+3,f
  7684     0DB8  0AF0               	incf	___almod@divisor,f
  7685     0DB9  1903               	skipnz
  7686     0DBA  0AF1               	incf	___almod@divisor+1,f
  7687     0DBB  1903               	skipnz
  7688     0DBC  0AF2               	incf	___almod@divisor+2,f
  7689     0DBD  1903               	skipnz
  7690     0DBE  0AF3               	incf	___almod@divisor+3,f
  7691     0DBF                     l2016:
  7692     0DBF  0873               	movf	___almod@divisor+3,w
  7693     0DC0  0472               	iorwf	___almod@divisor+2,w
  7694     0DC1  0471               	iorwf	___almod@divisor+1,w
  7695     0DC2  0470               	iorwf	___almod@divisor,w
  7696     0DC3  1903               	skipnz
  7697     0DC4  2DC6               	goto	u1921
  7698     0DC5  2DC7               	goto	u1920
  7699     0DC6                     u1921:
  7700     0DC6  2E00               	goto	l2032
  7701     0DC7                     u1920:
  7702     0DC7                     l2018:
  7703     0DC7  01F9               	clrf	___almod@counter
  7704     0DC8  0AF9               	incf	___almod@counter,f
  7705     0DC9  2DD5               	goto	l2022
  7706     0DCA                     l2020:
  7707     0DCA  3001               	movlw	1
  7708     0DCB                     u1935:
  7709     0DCB  35F0               	lslf	___almod@divisor,f
  7710     0DCC  0DF1               	rlf	___almod@divisor+1,f
  7711     0DCD  0DF2               	rlf	___almod@divisor+2,f
  7712     0DCE  0DF3               	rlf	___almod@divisor+3,f
  7713     0DCF  0B89               	decfsz	9,f
  7714     0DD0  2DCB               	goto	u1935
  7715     0DD1  3001               	movlw	1
  7716     0DD2  00F8               	movwf	??___almod
  7717     0DD3  0878               	movf	??___almod,w
  7718     0DD4  07F9               	addwf	___almod@counter,f
  7719     0DD5                     l2022:
  7720     0DD5  1FF3               	btfss	___almod@divisor+3,7
  7721     0DD6  2DD8               	goto	u1941
  7722     0DD7  2DD9               	goto	u1940
  7723     0DD8                     u1941:
  7724     0DD8  2DCA               	goto	l2020
  7725     0DD9                     u1940:
  7726     0DD9                     l2024:
  7727     0DD9  0873               	movf	___almod@divisor+3,w
  7728     0DDA  0277               	subwf	___almod@dividend+3,w
  7729     0DDB  1D03               	skipz
  7730     0DDC  2DE7               	goto	u1955
  7731     0DDD  0872               	movf	___almod@divisor+2,w
  7732     0DDE  0276               	subwf	___almod@dividend+2,w
  7733     0DDF  1D03               	skipz
  7734     0DE0  2DE7               	goto	u1955
  7735     0DE1  0871               	movf	___almod@divisor+1,w
  7736     0DE2  0275               	subwf	___almod@dividend+1,w
  7737     0DE3  1D03               	skipz
  7738     0DE4  2DE7               	goto	u1955
  7739     0DE5  0870               	movf	___almod@divisor,w
  7740     0DE6  0274               	subwf	___almod@dividend,w
  7741     0DE7                     u1955:
  7742     0DE7  1C03               	skipc
  7743     0DE8  2DEA               	goto	u1951
  7744     0DE9  2DEB               	goto	u1950
  7745     0DEA                     u1951:
  7746     0DEA  2DF3               	goto	l2028
  7747     0DEB                     u1950:
  7748     0DEB                     l2026:
  7749     0DEB  0870               	movf	___almod@divisor,w
  7750     0DEC  02F4               	subwf	___almod@dividend,f
  7751     0DED  0871               	movf	___almod@divisor+1,w
  7752     0DEE  3BF5               	subwfb	___almod@dividend+1,f
  7753     0DEF  0872               	movf	___almod@divisor+2,w
  7754     0DF0  3BF6               	subwfb	___almod@dividend+2,f
  7755     0DF1  0873               	movf	___almod@divisor+3,w
  7756     0DF2  3BF7               	subwfb	___almod@dividend+3,f
  7757     0DF3                     l2028:
  7758     0DF3  3001               	movlw	1
  7759     0DF4                     u1965:
  7760     0DF4  36F3               	lsrf	___almod@divisor+3,f
  7761     0DF5  0CF2               	rrf	___almod@divisor+2,f
  7762     0DF6  0CF1               	rrf	___almod@divisor+1,f
  7763     0DF7  0CF0               	rrf	___almod@divisor,f
  7764     0DF8  0B89               	decfsz	9,f
  7765     0DF9  2DF4               	goto	u1965
  7766     0DFA                     l2030:
  7767     0DFA  3001               	movlw	1
  7768     0DFB  02F9               	subwf	___almod@counter,f
  7769     0DFC  1D03               	btfss	3,2
  7770     0DFD  2DFF               	goto	u1971
  7771     0DFE  2E00               	goto	u1970
  7772     0DFF                     u1971:
  7773     0DFF  2DD9               	goto	l2024
  7774     0E00                     u1970:
  7775     0E00                     l2032:
  7776     0E00  087A               	movf	___almod@sign,w
  7777     0E01  1903               	btfsc	3,2
  7778     0E02  2E04               	goto	u1981
  7779     0E03  2E05               	goto	u1980
  7780     0E04                     u1981:
  7781     0E04  2E10               	goto	l2036
  7782     0E05                     u1980:
  7783     0E05                     l2034:
  7784     0E05  09F4               	comf	___almod@dividend,f
  7785     0E06  09F5               	comf	___almod@dividend+1,f
  7786     0E07  09F6               	comf	___almod@dividend+2,f
  7787     0E08  09F7               	comf	___almod@dividend+3,f
  7788     0E09  0AF4               	incf	___almod@dividend,f
  7789     0E0A  1903               	skipnz
  7790     0E0B  0AF5               	incf	___almod@dividend+1,f
  7791     0E0C  1903               	skipnz
  7792     0E0D  0AF6               	incf	___almod@dividend+2,f
  7793     0E0E  1903               	skipnz
  7794     0E0F  0AF7               	incf	___almod@dividend+3,f
  7795     0E10                     l2036:
  7796     0E10  0877               	movf	___almod@dividend+3,w
  7797     0E11  00F3               	movwf	?___almod+3
  7798     0E12  0876               	movf	___almod@dividend+2,w
  7799     0E13  00F2               	movwf	?___almod+2
  7800     0E14  0875               	movf	___almod@dividend+1,w
  7801     0E15  00F1               	movwf	?___almod+1
  7802     0E16  0874               	movf	___almod@dividend,w
  7803     0E17  00F0               	movwf	?___almod
  7804     0E18                     l547:
  7805     0E18  0008               	return
  7806     0E19                     __end_of___almod:
  7807                           
  7808                           	psect	text32
  7809     0889                     __ptext32:	
  7810 ;; *************** function _avg_reset *****************
  7811 ;; Defined at:
  7812 ;;		line 257 in file "main.c"
  7813 ;; Parameters:    Size  Location     Type
  7814 ;;		None
  7815 ;; Auto vars:     Size  Location     Type
  7816 ;;		None
  7817 ;; Return value:  Size  Location     Type
  7818 ;;                  1    wreg      void 
  7819 ;; Registers used:
  7820 ;;		wreg, fsr1l, fsr1h, status,2, status,0
  7821 ;; Tracked objects:
  7822 ;;		On entry : 0/0
  7823 ;;		On exit  : 0/0
  7824 ;;		Unchanged: 0/0
  7825 ;; Data sizes:     COMMON   BANK0   BANK1   BANK2   BANK3   BANK4   BANK5   BANK6   BANK7   BANK8   BANK9  BANK10  BANK1
      +1  BANK12  BANK13  BANK14  BANK15  BANK16  BANK17  BANK18  BANK19  BANK20  BANK21  BANK22  BANK23  BANK24  BANK25
  7826 ;;      Params:         0       0       0       0       0       0       0       0       0       0       0       0       
      +0       0       0       0       0       0       0       0       0       0       0       0       0       0       0
  7827 ;;      Locals:         0       0       0       0       0       0       0       0       0       0       0       0       
      +0       0       0       0       0       0       0       0       0       0       0       0       0       0       0
  7828 ;;      Temps:          1       0       0       0       0       0       0       0       0       0       0       0       
      +0       0       0       0       0       0       0       0       0       0       0       0       0       0       0
  7829 ;;      Totals:         1       0       0       0       0       0       0       0       0       0       0       0       
      +0       0       0       0       0       0       0       0       0       0       0       0       0       0       0
  7830 ;;Total ram usage:        1 bytes
  7831 ;; Hardware stack levels used: 1
  7832 ;; This function calls:
  7833 ;;		Nothing
  7834 ;; This function is called by:
  7835 ;;		_avg_print
  7836 ;;		_main
  7837 ;; This function uses a non-reentrant model
  7838 ;;
  7839                           
  7840     0889                     _avg_reset:	
  7841                           ;psect for function _avg_reset
  7842                           
  7843     0889                     l2348:	
  7844                           ;incstack = 0
  7845                           ; Regs used in _avg_reset: [wreg+fsr1l+fsr1h+status,2+status,0]
  7846                           
  7847                           
  7848                           ;main.c: 259:     sum_lat = 0;
  7849     0889  30A8               	movlw	low _sum_lat
  7850     088A  0086               	movwf	6
  7851     088B  3000               	movlw	high _sum_lat
  7852     088C  0087               	movwf	7
  7853     088D  3008               	movlw	8
  7854     088E  00F0               	movwf	??_avg_reset
  7855     088F  3000               	movlw	0
  7856     0890                     u2600:
  7857     0890  001E               	movwi fsr1++
  7858     0891  0BF0               	decfsz	??_avg_reset,f
  7859     0892  2890               	goto	u2600
  7860                           
  7861                           ;main.c: 260:     sum_lon = 0;
  7862     0893  30A0               	movlw	low _sum_lon
  7863     0894  0086               	movwf	6
  7864     0895  3000               	movlw	high _sum_lon
  7865     0896  0087               	movwf	7
  7866     0897  3008               	movlw	8
  7867     0898  00F0               	movwf	??_avg_reset
  7868     0899  3000               	movlw	0
  7869     089A                     u2610:
  7870     089A  001E               	movwi fsr1++
  7871     089B  0BF0               	decfsz	??_avg_reset,f
  7872     089C  289A               	goto	u2610
  7873     089D                     l2350:
  7874                           
  7875                           ;main.c: 261:     avg_count = 0;
  7876     089D  0020               	movlb	0	; select bank0
  7877     089E  01EA               	clrf	_avg_count
  7878     089F                     l197:
  7879     089F  0008               	return
  7880     08A0                     __end_of_avg_reset:
  7881                           
  7882                           	psect	text33
  7883     008F                     __ptext33:	
  7884 ;; *************** function ___aodiv *****************
  7885 ;; Defined at:
  7886 ;;		line 7 in file "C:\Program Files\Microchip\xc8\v2.46\pic\sources\c99\common\aodiv.c"
  7887 ;; Parameters:    Size  Location     Type
  7888 ;;  divisor         8   16[BANK0 ] long long 
  7889 ;;  dividend        8   24[BANK0 ] long long 
  7890 ;; Auto vars:     Size  Location     Type
  7891 ;;  quotient        8   34[BANK0 ] long long 
  7892 ;;  sign            1   33[BANK0 ] unsigned char 
  7893 ;;  counter         1   32[BANK0 ] unsigned char 
  7894 ;; Return value:  Size  Location     Type
  7895 ;;                  8   16[BANK0 ] long long 
  7896 ;; Registers used:
  7897 ;;		wreg, fsr1l, fsr1h, status,2, status,0
  7898 ;; Tracked objects:
  7899 ;;		On entry : 0/0
  7900 ;;		On exit  : 0/0
  7901 ;;		Unchanged: 0/0
  7902 ;; Data sizes:     COMMON   BANK0   BANK1   BANK2   BANK3   BANK4   BANK5   BANK6   BANK7   BANK8   BANK9  BANK10  BANK1
      +1  BANK12  BANK13  BANK14  BANK15  BANK16  BANK17  BANK18  BANK19  BANK20  BANK21  BANK22  BANK23  BANK24  BANK25
  7903 ;;      Params:         0      16       0       0       0       0       0       0       0       0       0       0       
      +0       0       0       0       0       0       0       0       0       0       0       0       0       0       0
  7904 ;;      Locals:         0      10       0       0       0       0       0       0       0       0       0       0       
      +0       0       0       0       0       0       0       0       0       0       0       0       0       0       0
  7905 ;;      Temps:          1       0       0       0       0       0       0       0       0       0       0       0       
      +0       0       0       0       0       0       0       0       0       0       0       0       0       0       0
  7906 ;;      Totals:         1      26       0       0       0       0       0       0       0       0       0       0       
      +0       0       0       0       0       0       0       0       0       0       0       0       0       0       0
  7907 ;;Total ram usage:       27 bytes
  7908 ;; Hardware stack levels used: 1
  7909 ;; This function calls:
  7910 ;;		Nothing
  7911 ;; This function is called by:
  7912 ;;		_coord_to_microdeg
  7913 ;;		_avg_print
  7914 ;; This function uses a non-reentrant model
  7915 ;;
  7916                           
  7917     008F                     ___aodiv:	
  7918                           ;psect for function ___aodiv
  7919                           
  7920     008F                     l2364:	
  7921                           ;incstack = 0
  7922                           ; Regs used in ___aodiv: [wreg+fsr1l+fsr1h+status,2+status,0]
  7923                           
  7924     008F  0020               	movlb	0	; select bank0
  7925     0090  01C1               	clrf	___aodiv@sign
  7926     0091                     l2366:
  7927     0091  3030               	movlw	low ___aodiv@divisor
  7928     0092  0086               	movwf	6
  7929     0093  3000               	movlw	high ___aodiv@divisor
  7930     0094  0087               	movwf	7
  7931     0095  3F47               	moviw [7]fsr1
  7932     0096  00F9               	movwf	??___aodiv
  7933     0097  1FF9               	btfss	??___aodiv,7
  7934     0098  289A               	goto	u2651
  7935     0099  289B               	goto	u2650
  7936     009A                     u2651:
  7937     009A  28BD               	goto	l2370
  7938     009B                     u2650:
  7939     009B                     l2368:
  7940     009B  0020               	movlb	0	; select bank0
  7941     009C  09B0               	comf	___aodiv@divisor,f
  7942     009D  09B1               	comf	___aodiv@divisor+1,f
  7943     009E  09B2               	comf	___aodiv@divisor+2,f
  7944     009F  09B3               	comf	___aodiv@divisor+3,f
  7945     00A0  09B4               	comf	___aodiv@divisor+4,f
  7946     00A1  09B5               	comf	___aodiv@divisor+5,f
  7947     00A2  09B6               	comf	___aodiv@divisor+6,f
  7948     00A3  09B7               	comf	___aodiv@divisor+7,f
  7949     00A4  0AB0               	incf	___aodiv@divisor,f
  7950     00A5  1D03               	skipz
  7951     00A6  28BA               	goto	u266lld
  7952     00A7  0AB1               	incf	___aodiv@divisor+1,f
  7953     00A8  1D03               	skipz
  7954     00A9  28BA               	goto	u266lld
  7955     00AA  0AB2               	incf	___aodiv@divisor+2,f
  7956     00AB  1D03               	skipz
  7957     00AC  28BA               	goto	u266lld
  7958     00AD  0AB3               	incf	___aodiv@divisor+3,f
  7959     00AE  1D03               	skipz
  7960     00AF  28BA               	goto	u266lld
  7961     00B0  0AB4               	incf	___aodiv@divisor+4,f
  7962     00B1  1D03               	skipz
  7963     00B2  28BA               	goto	u266lld
  7964     00B3  0AB5               	incf	___aodiv@divisor+5,f
  7965     00B4  1D03               	skipz
  7966     00B5  28BA               	goto	u266lld
  7967     00B6  0AB6               	incf	___aodiv@divisor+6,f
  7968     00B7  1D03               	skipz
  7969     00B8  28BA               	goto	u266lld
  7970     00B9  0AB7               	incf	___aodiv@divisor+7,f
  7971     00BA                     u266lld:
  7972     00BA  0020               	movlb	0	; select bank0
  7973     00BB  01C1               	clrf	___aodiv@sign
  7974     00BC  0AC1               	incf	___aodiv@sign,f
  7975     00BD                     l2370:
  7976     00BD  3038               	movlw	low ___aodiv@dividend
  7977     00BE  0086               	movwf	6
  7978     00BF  3000               	movlw	high ___aodiv@dividend
  7979     00C0  0087               	movwf	7
  7980     00C1  3F47               	moviw [7]fsr1
  7981     00C2  00F9               	movwf	??___aodiv
  7982     00C3  1FF9               	btfss	??___aodiv,7
  7983     00C4  28C6               	goto	u2671
  7984     00C5  28C7               	goto	u2670
  7985     00C6                     u2671:
  7986     00C6  28EB               	goto	l2376
  7987     00C7                     u2670:
  7988     00C7                     l2372:
  7989     00C7  0020               	movlb	0	; select bank0
  7990     00C8  09B8               	comf	___aodiv@dividend,f
  7991     00C9  09B9               	comf	___aodiv@dividend+1,f
  7992     00CA  09BA               	comf	___aodiv@dividend+2,f
  7993     00CB  09BB               	comf	___aodiv@dividend+3,f
  7994     00CC  09BC               	comf	___aodiv@dividend+4,f
  7995     00CD  09BD               	comf	___aodiv@dividend+5,f
  7996     00CE  09BE               	comf	___aodiv@dividend+6,f
  7997     00CF  09BF               	comf	___aodiv@dividend+7,f
  7998     00D0  0AB8               	incf	___aodiv@dividend,f
  7999     00D1  1D03               	skipz
  8000     00D2  28E6               	goto	u268lld
  8001     00D3  0AB9               	incf	___aodiv@dividend+1,f
  8002     00D4  1D03               	skipz
  8003     00D5  28E6               	goto	u268lld
  8004     00D6  0ABA               	incf	___aodiv@dividend+2,f
  8005     00D7  1D03               	skipz
  8006     00D8  28E6               	goto	u268lld
  8007     00D9  0ABB               	incf	___aodiv@dividend+3,f
  8008     00DA  1D03               	skipz
  8009     00DB  28E6               	goto	u268lld
  8010     00DC  0ABC               	incf	___aodiv@dividend+4,f
  8011     00DD  1D03               	skipz
  8012     00DE  28E6               	goto	u268lld
  8013     00DF  0ABD               	incf	___aodiv@dividend+5,f
  8014     00E0  1D03               	skipz
  8015     00E1  28E6               	goto	u268lld
  8016     00E2  0ABE               	incf	___aodiv@dividend+6,f
  8017     00E3  1D03               	skipz
  8018     00E4  28E6               	goto	u268lld
  8019     00E5  0ABF               	incf	___aodiv@dividend+7,f
  8020     00E6                     u268lld:
  8021     00E6                     l2374:
  8022     00E6  3001               	movlw	1
  8023     00E7  00F9               	movwf	??___aodiv
  8024     00E8  0879               	movf	??___aodiv,w
  8025     00E9  0020               	movlb	0	; select bank0
  8026     00EA  06C1               	xorwf	___aodiv@sign,f
  8027     00EB                     l2376:
  8028     00EB  3042               	movlw	low ___aodiv@quotient
  8029     00EC  0086               	movwf	6
  8030     00ED  3000               	movlw	high ___aodiv@quotient
  8031     00EE  0087               	movwf	7
  8032     00EF  3008               	movlw	8
  8033     00F0  00F9               	movwf	??___aodiv
  8034     00F1  3000               	movlw	0
  8035     00F2                     u2690:
  8036     00F2  001E               	movwi fsr1++
  8037     00F3  0BF9               	decfsz	??___aodiv,f
  8038     00F4  28F2               	goto	u2690
  8039     00F5                     l2378:
  8040     00F5  0020               	movlb	0	; select bank0
  8041     00F6  0830               	movf	___aodiv@divisor,w
  8042     00F7  0431               	iorwf	___aodiv@divisor+1,w
  8043     00F8  0432               	iorwf	___aodiv@divisor+2,w
  8044     00F9  0433               	iorwf	___aodiv@divisor+3,w
  8045     00FA  0434               	iorwf	___aodiv@divisor+4,w
  8046     00FB  0435               	iorwf	___aodiv@divisor+5,w
  8047     00FC  0436               	iorwf	___aodiv@divisor+6,w
  8048     00FD  0437               	iorwf	___aodiv@divisor+7,w
  8049     00FE  1903               	skipnz
  8050     00FF  2901               	goto	u2701
  8051     0100  2902               	goto	u2700
  8052     0101                     u2701:
  8053     0101  295E               	goto	l2398
  8054     0102                     u2700:
  8055     0102                     l2380:
  8056     0102  01C0               	clrf	___aodiv@counter
  8057     0103  0AC0               	incf	___aodiv@counter,f
  8058     0104  2911               	goto	l2386
  8059     0105                     l2382:
  8060     0105  35B0               	lslf	___aodiv@divisor,f
  8061     0106  0DB1               	rlf	___aodiv@divisor+1,f
  8062     0107  0DB2               	rlf	___aodiv@divisor+2,f
  8063     0108  0DB3               	rlf	___aodiv@divisor+3,f
  8064     0109  0DB4               	rlf	___aodiv@divisor+4,f
  8065     010A  0DB5               	rlf	___aodiv@divisor+5,f
  8066     010B  0DB6               	rlf	___aodiv@divisor+6,f
  8067     010C  0DB7               	rlf	___aodiv@divisor+7,f
  8068     010D                     l2384:
  8069     010D  3001               	movlw	1
  8070     010E  00F9               	movwf	??___aodiv
  8071     010F  0879               	movf	??___aodiv,w
  8072     0110  07C0               	addwf	___aodiv@counter,f
  8073     0111                     l2386:
  8074     0111  1FB7               	btfss	___aodiv@divisor+7,7
  8075     0112  2914               	goto	u2711
  8076     0113  2915               	goto	u2710
  8077     0114                     u2711:
  8078     0114  2905               	goto	l2382
  8079     0115                     u2710:
  8080     0115                     l2388:
  8081     0115  35C2               	lslf	___aodiv@quotient,f
  8082     0116  0DC3               	rlf	___aodiv@quotient+1,f
  8083     0117  0DC4               	rlf	___aodiv@quotient+2,f
  8084     0118  0DC5               	rlf	___aodiv@quotient+3,f
  8085     0119  0DC6               	rlf	___aodiv@quotient+4,f
  8086     011A  0DC7               	rlf	___aodiv@quotient+5,f
  8087     011B  0DC8               	rlf	___aodiv@quotient+6,f
  8088     011C  0DC9               	rlf	___aodiv@quotient+7,f
  8089     011D                     l2390:
  8090     011D  0837               	movf	___aodiv@divisor+7,w
  8091     011E  023F               	subwf	___aodiv@dividend+7,w
  8092     011F  1D03               	skipz
  8093     0120  293B               	goto	u2725
  8094     0121  0836               	movf	___aodiv@divisor+6,w
  8095     0122  023E               	subwf	___aodiv@dividend+6,w
  8096     0123  1D03               	skipz
  8097     0124  293B               	goto	u2725
  8098     0125  0835               	movf	___aodiv@divisor+5,w
  8099     0126  023D               	subwf	___aodiv@dividend+5,w
  8100     0127  1D03               	skipz
  8101     0128  293B               	goto	u2725
  8102     0129  0834               	movf	___aodiv@divisor+4,w
  8103     012A  023C               	subwf	___aodiv@dividend+4,w
  8104     012B  1D03               	skipz
  8105     012C  293B               	goto	u2725
  8106     012D  0833               	movf	___aodiv@divisor+3,w
  8107     012E  023B               	subwf	___aodiv@dividend+3,w
  8108     012F  1D03               	skipz
  8109     0130  293B               	goto	u2725
  8110     0131  0832               	movf	___aodiv@divisor+2,w
  8111     0132  023A               	subwf	___aodiv@dividend+2,w
  8112     0133  1D03               	skipz
  8113     0134  293B               	goto	u2725
  8114     0135  0831               	movf	___aodiv@divisor+1,w
  8115     0136  0239               	subwf	___aodiv@dividend+1,w
  8116     0137  1D03               	skipz
  8117     0138  293B               	goto	u2725
  8118     0139  0830               	movf	___aodiv@divisor,w
  8119     013A  0238               	subwf	___aodiv@dividend,w
  8120     013B                     u2725:
  8121     013B  1C03               	skipc
  8122     013C  293E               	goto	u2721
  8123     013D  293F               	goto	u2720
  8124     013E                     u2721:
  8125     013E  2950               	goto	l2396
  8126     013F                     u2720:
  8127     013F                     l2392:
  8128     013F  0830               	movf	___aodiv@divisor,w
  8129     0140  02B8               	subwf	___aodiv@dividend,f
  8130     0141  0831               	movf	___aodiv@divisor+1,w
  8131     0142  3BB9               	subwfb	___aodiv@dividend+1,f
  8132     0143  0832               	movf	___aodiv@divisor+2,w
  8133     0144  3BBA               	subwfb	___aodiv@dividend+2,f
  8134     0145  0833               	movf	___aodiv@divisor+3,w
  8135     0146  3BBB               	subwfb	___aodiv@dividend+3,f
  8136     0147  0834               	movf	___aodiv@divisor+4,w
  8137     0148  3BBC               	subwfb	___aodiv@dividend+4,f
  8138     0149  0835               	movf	___aodiv@divisor+5,w
  8139     014A  3BBD               	subwfb	___aodiv@dividend+5,f
  8140     014B  0836               	movf	___aodiv@divisor+6,w
  8141     014C  3BBE               	subwfb	___aodiv@dividend+6,f
  8142     014D  0837               	movf	___aodiv@divisor+7,w
  8143     014E  3BBF               	subwfb	___aodiv@dividend+7,f
  8144     014F                     l2394:
  8145     014F  1442               	bsf	___aodiv@quotient,0
  8146     0150                     l2396:
  8147     0150  36B7               	lsrf	___aodiv@divisor+7,f
  8148     0151  0CB6               	rrf	___aodiv@divisor+6,f
  8149     0152  0CB5               	rrf	___aodiv@divisor+5,f
  8150     0153  0CB4               	rrf	___aodiv@divisor+4,f
  8151     0154  0CB3               	rrf	___aodiv@divisor+3,f
  8152     0155  0CB2               	rrf	___aodiv@divisor+2,f
  8153     0156  0CB1               	rrf	___aodiv@divisor+1,f
  8154     0157  0CB0               	rrf	___aodiv@divisor,f
  8155     0158  3001               	movlw	1
  8156     0159  02C0               	subwf	___aodiv@counter,f
  8157     015A  1D03               	btfss	3,2
  8158     015B  295D               	goto	u2731
  8159     015C  295E               	goto	u2730
  8160     015D                     u2731:
  8161     015D  2915               	goto	l2388
  8162     015E                     u2730:
  8163     015E                     l2398:
  8164     015E  0841               	movf	___aodiv@sign,w
  8165     015F  1903               	btfsc	3,2
  8166     0160  2962               	goto	u2741
  8167     0161  2963               	goto	u2740
  8168     0162                     u2741:
  8169     0162  2981               	goto	l559
  8170     0163                     u2740:
  8171     0163                     l2400:
  8172     0163  09C2               	comf	___aodiv@quotient,f
  8173     0164  09C3               	comf	___aodiv@quotient+1,f
  8174     0165  09C4               	comf	___aodiv@quotient+2,f
  8175     0166  09C5               	comf	___aodiv@quotient+3,f
  8176     0167  09C6               	comf	___aodiv@quotient+4,f
  8177     0168  09C7               	comf	___aodiv@quotient+5,f
  8178     0169  09C8               	comf	___aodiv@quotient+6,f
  8179     016A  09C9               	comf	___aodiv@quotient+7,f
  8180     016B  0AC2               	incf	___aodiv@quotient,f
  8181     016C  1D03               	skipz
  8182     016D  2981               	goto	u275lld
  8183     016E  0AC3               	incf	___aodiv@quotient+1,f
  8184     016F  1D03               	skipz
  8185     0170  2981               	goto	u275lld
  8186     0171  0AC4               	incf	___aodiv@quotient+2,f
  8187     0172  1D03               	skipz
  8188     0173  2981               	goto	u275lld
  8189     0174  0AC5               	incf	___aodiv@quotient+3,f
  8190     0175  1D03               	skipz
  8191     0176  2981               	goto	u275lld
  8192     0177  0AC6               	incf	___aodiv@quotient+4,f
  8193     0178  1D03               	skipz
  8194     0179  2981               	goto	u275lld
  8195     017A  0AC7               	incf	___aodiv@quotient+5,f
  8196     017B  1D03               	skipz
  8197     017C  2981               	goto	u275lld
  8198     017D  0AC8               	incf	___aodiv@quotient+6,f
  8199     017E  1D03               	skipz
  8200     017F  2981               	goto	u275lld
  8201     0180  0AC9               	incf	___aodiv@quotient+7,f
  8202     0181                     u275lld:
  8203     0181                     l559:
  8204     0181  0020               	movlb	0	; select bank0
  8205     0182  0842               	movf	___aodiv@quotient,w
  8206     0183  00B0               	movwf	?___aodiv
  8207     0184  0843               	movf	___aodiv@quotient+1,w
  8208     0185  00B1               	movwf	?___aodiv+1
  8209     0186  0844               	movf	___aodiv@quotient+2,w
  8210     0187  00B2               	movwf	?___aodiv+2
  8211     0188  0845               	movf	___aodiv@quotient+3,w
  8212     0189  00B3               	movwf	?___aodiv+3
  8213     018A  0846               	movf	___aodiv@quotient+4,w
  8214     018B  00B4               	movwf	?___aodiv+4
  8215     018C  0847               	movf	___aodiv@quotient+5,w
  8216     018D  00B5               	movwf	?___aodiv+5
  8217     018E  0848               	movf	___aodiv@quotient+6,w
  8218     018F  00B6               	movwf	?___aodiv+6
  8219     0190  0849               	movf	___aodiv@quotient+7,w
  8220     0191  00B7               	movwf	?___aodiv+7
  8221     0192                     l560:
  8222     0192  0008               	return
  8223     0193                     __end_of___aodiv:
  8224                           
  8225                           	psect	text34
  8226     0CCA                     __ptext34:	
  8227 ;; *************** function _avg_add *****************
  8228 ;; Defined at:
  8229 ;;		line 264 in file "main.c"
  8230 ;; Parameters:    Size  Location     Type
  8231 ;;  lat             4    0[COMMON] long 
  8232 ;;  lon             4    4[COMMON] long 
  8233 ;; Auto vars:     Size  Location     Type
  8234 ;;		None
  8235 ;; Return value:  Size  Location     Type
  8236 ;;                  1    wreg      void 
  8237 ;; Registers used:
  8238 ;;		wreg, status,2, status,0
  8239 ;; Tracked objects:
  8240 ;;		On entry : 0/0
  8241 ;;		On exit  : 0/0
  8242 ;;		Unchanged: 0/0
  8243 ;; Data sizes:     COMMON   BANK0   BANK1   BANK2   BANK3   BANK4   BANK5   BANK6   BANK7   BANK8   BANK9  BANK10  BANK1
      +1  BANK12  BANK13  BANK14  BANK15  BANK16  BANK17  BANK18  BANK19  BANK20  BANK21  BANK22  BANK23  BANK24  BANK25
  8244 ;;      Params:         8       0       0       0       0       0       0       0       0       0       0       0       
      +0       0       0       0       0       0       0       0       0       0       0       0       0       0       0
  8245 ;;      Locals:         0       0       0       0       0       0       0       0       0       0       0       0       
      +0       0       0       0       0       0       0       0       0       0       0       0       0       0       0
  8246 ;;      Temps:          0       8       0       0       0       0       0       0       0       0       0       0       
      +0       0       0       0       0       0       0       0       0       0       0       0       0       0       0
  8247 ;;      Totals:         8       8       0       0       0       0       0       0       0       0       0       0       
      +0       0       0       0       0       0       0       0       0       0       0       0       0       0       0
  8248 ;;Total ram usage:       16 bytes
  8249 ;; Hardware stack levels used: 1
  8250 ;; This function calls:
  8251 ;;		Nothing
  8252 ;; This function is called by:
  8253 ;;		_main
  8254 ;; This function uses a non-reentrant model
  8255 ;;
  8256                           
  8257     0CCA                     _avg_add:	
  8258                           ;psect for function _avg_add
  8259                           
  8260     0CCA                     l2586:	
  8261                           ;incstack = 0
  8262                           ; Regs used in _avg_add: [wreg+status,2+status,0]
  8263                           
  8264                           
  8265                           ;main.c: 264: static void avg_add(int32_t lat, int32_t lon);main.c: 265: {;main.c: 266: 
      +                              sum_lat += (int64_t)lat;
  8266     0CCA  0870               	movf	avg_add@lat,w
  8267     0CCB  0020               	movlb	0	; select bank0
  8268     0CCC  00A0               	movwf	??_avg_add
  8269     0CCD  0871               	movf	avg_add@lat+1,w
  8270     0CCE  00A1               	movwf	??_avg_add+1
  8271     0CCF  0872               	movf	avg_add@lat+2,w
  8272     0CD0  00A2               	movwf	??_avg_add+2
  8273     0CD1  0873               	movf	avg_add@lat+3,w
  8274     0CD2  00A3               	movwf	??_avg_add+3
  8275     0CD3  3000               	movlw	0
  8276     0CD4  1BA3               	btfsc	??_avg_add+3,7
  8277     0CD5  30FF               	movlw	255
  8278     0CD6  00A4               	movwf	??_avg_add+4
  8279     0CD7  00A5               	movwf	??_avg_add+5
  8280     0CD8  00A6               	movwf	??_avg_add+6
  8281     0CD9  00A7               	movwf	??_avg_add+7
  8282     0CDA  0820               	movf	??_avg_add,w
  8283     0CDB  0021               	movlb	1	; select bank1
  8284     0CDC  07A8               	addwf	_sum_lat^(0+128),f
  8285     0CDD  0020               	movlb	0	; select bank0
  8286     0CDE  0821               	movf	??_avg_add+1,w
  8287     0CDF  0021               	movlb	1	; select bank1
  8288     0CE0  3DA9               	addwfc	(_sum_lat+1)^(0+128),f
  8289     0CE1  0020               	movlb	0	; select bank0
  8290     0CE2  0822               	movf	??_avg_add+2,w
  8291     0CE3  0021               	movlb	1	; select bank1
  8292     0CE4  3DAA               	addwfc	(_sum_lat+2)^(0+128),f
  8293     0CE5  0020               	movlb	0	; select bank0
  8294     0CE6  0823               	movf	??_avg_add+3,w
  8295     0CE7  0021               	movlb	1	; select bank1
  8296     0CE8  3DAB               	addwfc	(_sum_lat+3)^(0+128),f
  8297     0CE9  0020               	movlb	0	; select bank0
  8298     0CEA  0824               	movf	??_avg_add+4,w
  8299     0CEB  0021               	movlb	1	; select bank1
  8300     0CEC  3DAC               	addwfc	(_sum_lat+4)^(0+128),f
  8301     0CED  0020               	movlb	0	; select bank0
  8302     0CEE  0825               	movf	??_avg_add+5,w
  8303     0CEF  0021               	movlb	1	; select bank1
  8304     0CF0  3DAD               	addwfc	(_sum_lat+5)^(0+128),f
  8305     0CF1  0020               	movlb	0	; select bank0
  8306     0CF2  0826               	movf	??_avg_add+6,w
  8307     0CF3  0021               	movlb	1	; select bank1
  8308     0CF4  3DAE               	addwfc	(_sum_lat+6)^(0+128),f
  8309     0CF5  0020               	movlb	0	; select bank0
  8310     0CF6  0827               	movf	??_avg_add+7,w
  8311     0CF7  0021               	movlb	1	; select bank1
  8312     0CF8  3DAF               	addwfc	(_sum_lat+7)^(0+128),f
  8313                           
  8314                           ;main.c: 267:     sum_lon += (int64_t)lon;
  8315     0CF9  0874               	movf	avg_add@lon,w
  8316     0CFA  0020               	movlb	0	; select bank0
  8317     0CFB  00A0               	movwf	??_avg_add
  8318     0CFC  0875               	movf	avg_add@lon+1,w
  8319     0CFD  00A1               	movwf	??_avg_add+1
  8320     0CFE  0876               	movf	avg_add@lon+2,w
  8321     0CFF  00A2               	movwf	??_avg_add+2
  8322     0D00  0877               	movf	avg_add@lon+3,w
  8323     0D01  00A3               	movwf	??_avg_add+3
  8324     0D02  3000               	movlw	0
  8325     0D03  1BA3               	btfsc	??_avg_add+3,7
  8326     0D04  30FF               	movlw	255
  8327     0D05  00A4               	movwf	??_avg_add+4
  8328     0D06  00A5               	movwf	??_avg_add+5
  8329     0D07  00A6               	movwf	??_avg_add+6
  8330     0D08  00A7               	movwf	??_avg_add+7
  8331     0D09  0820               	movf	??_avg_add,w
  8332     0D0A  0021               	movlb	1	; select bank1
  8333     0D0B  07A0               	addwf	_sum_lon^(0+128),f
  8334     0D0C  0020               	movlb	0	; select bank0
  8335     0D0D  0821               	movf	??_avg_add+1,w
  8336     0D0E  0021               	movlb	1	; select bank1
  8337     0D0F  3DA1               	addwfc	(_sum_lon+1)^(0+128),f
  8338     0D10  0020               	movlb	0	; select bank0
  8339     0D11  0822               	movf	??_avg_add+2,w
  8340     0D12  0021               	movlb	1	; select bank1
  8341     0D13  3DA2               	addwfc	(_sum_lon+2)^(0+128),f
  8342     0D14  0020               	movlb	0	; select bank0
  8343     0D15  0823               	movf	??_avg_add+3,w
  8344     0D16  0021               	movlb	1	; select bank1
  8345     0D17  3DA3               	addwfc	(_sum_lon+3)^(0+128),f
  8346     0D18  0020               	movlb	0	; select bank0
  8347     0D19  0824               	movf	??_avg_add+4,w
  8348     0D1A  0021               	movlb	1	; select bank1
  8349     0D1B  3DA4               	addwfc	(_sum_lon+4)^(0+128),f
  8350     0D1C  0020               	movlb	0	; select bank0
  8351     0D1D  0825               	movf	??_avg_add+5,w
  8352     0D1E  0021               	movlb	1	; select bank1
  8353     0D1F  3DA5               	addwfc	(_sum_lon+5)^(0+128),f
  8354     0D20  0020               	movlb	0	; select bank0
  8355     0D21  0826               	movf	??_avg_add+6,w
  8356     0D22  0021               	movlb	1	; select bank1
  8357     0D23  3DA6               	addwfc	(_sum_lon+6)^(0+128),f
  8358     0D24  0020               	movlb	0	; select bank0
  8359     0D25  0827               	movf	??_avg_add+7,w
  8360     0D26  0021               	movlb	1	; select bank1
  8361     0D27  3DA7               	addwfc	(_sum_lon+7)^(0+128),f
  8362                           
  8363                           ;main.c: 268:     if (avg_count < 8) avg_count++;
  8364     0D28  3008               	movlw	8
  8365     0D29  0020               	movlb	0	; select bank0
  8366     0D2A  026A               	subwf	_avg_count,w
  8367     0D2B  1803               	skipnc
  8368     0D2C  2D2E               	goto	u3071
  8369     0D2D  2D2F               	goto	u3070
  8370     0D2E                     u3071:
  8371     0D2E  2D33               	goto	l201
  8372     0D2F                     u3070:
  8373     0D2F                     l2588:
  8374     0D2F  3001               	movlw	1
  8375     0D30  00A0               	movwf	??_avg_add
  8376     0D31  0820               	movf	??_avg_add,w
  8377     0D32  07EA               	addwf	_avg_count,f
  8378     0D33                     l201:
  8379     0D33  0008               	return
  8380     0D34                     __end_of_avg_add:
  8381                           
  8382                           	psect	text35
  8383     0832                     __ptext35:	
  8384 ;; *************** function _SUART_Init *****************
  8385 ;; Defined at:
  8386 ;;		line 82 in file "SEUSART.c"
  8387 ;; Parameters:    Size  Location     Type
  8388 ;;		None
  8389 ;; Auto vars:     Size  Location     Type
  8390 ;;		None
  8391 ;; Return value:  Size  Location     Type
  8392 ;;                  1    wreg      void 
  8393 ;; Registers used:
  8394 ;;		None
  8395 ;; Tracked objects:
  8396 ;;		On entry : 0/0
  8397 ;;		On exit  : 0/0
  8398 ;;		Unchanged: 0/0
  8399 ;; Data sizes:     COMMON   BANK0   BANK1   BANK2   BANK3   BANK4   BANK5   BANK6   BANK7   BANK8   BANK9  BANK10  BANK1
      +1  BANK12  BANK13  BANK14  BANK15  BANK16  BANK17  BANK18  BANK19  BANK20  BANK21  BANK22  BANK23  BANK24  BANK25
  8400 ;;      Params:         0       0       0       0       0       0       0       0       0       0       0       0       
      +0       0       0       0       0       0       0       0       0       0       0       0       0       0       0
  8401 ;;      Locals:         0       0       0       0       0       0       0       0       0       0       0       0       
      +0       0       0       0       0       0       0       0       0       0       0       0       0       0       0
  8402 ;;      Temps:          0       0       0       0       0       0       0       0       0       0       0       0       
      +0       0       0       0       0       0       0       0       0       0       0       0       0       0       0
  8403 ;;      Totals:         0       0       0       0       0       0       0       0       0       0       0       0       
      +0       0       0       0       0       0       0       0       0       0       0       0       0       0       0
  8404 ;;Total ram usage:        0 bytes
  8405 ;; Hardware stack levels used: 1
  8406 ;; This function calls:
  8407 ;;		Nothing
  8408 ;; This function is called by:
  8409 ;;		_main
  8410 ;; This function uses a non-reentrant model
  8411 ;;
  8412                           
  8413     0832                     _SUART_Init:	
  8414                           ;psect for function _SUART_Init
  8415                           
  8416     0832                     l2662:	
  8417                           ;incstack = 0
  8418                           ; Regs used in _SUART_Init: []
  8419                           
  8420                           
  8421                           ;SEUSART.c: 85:     LATBbits.LATB1 = 1;
  8422     0832  0022               	movlb	2	; select bank2
  8423     0833  148D               	bsf	13,1	;volatile
  8424                           
  8425                           ;SEUSART.c: 87:     TRISBbits.TRISB0 = 1;
  8426     0834  0021               	movlb	1	; select bank1
  8427     0835  140D               	bsf	13,0	;volatile
  8428                           
  8429                           ;SEUSART.c: 88:     TRISBbits.TRISB1 = 0;
  8430     0836  108D               	bcf	13,1	;volatile
  8431     0837                     l361:
  8432     0837  0008               	return
  8433     0838                     __end_of_SUART_Init:
  8434                           
  8435                           	psect	text36
  8436     0B04                     __ptext36:	
  8437 ;; *************** function _EUSART_Initialize *****************
  8438 ;; Defined at:
  8439 ;;		line 36 in file "EUSART.c"
  8440 ;; Parameters:    Size  Location     Type
  8441 ;;  baudrate        4    6[BANK0 ] const long 
  8442 ;; Auto vars:     Size  Location     Type
  8443 ;;  x               2    9[COMMON] unsigned int 
  8444 ;; Return value:  Size  Location     Type
  8445 ;;                  1    wreg      unsigned char 
  8446 ;; Registers used:
  8447 ;;		wreg, status,2, status,0, pclath, cstack
  8448 ;; Tracked objects:
  8449 ;;		On entry : 0/0
  8450 ;;		On exit  : 0/0
  8451 ;;		Unchanged: 0/0
  8452 ;; Data sizes:     COMMON   BANK0   BANK1   BANK2   BANK3   BANK4   BANK5   BANK6   BANK7   BANK8   BANK9  BANK10  BANK1
      +1  BANK12  BANK13  BANK14  BANK15  BANK16  BANK17  BANK18  BANK19  BANK20  BANK21  BANK22  BANK23  BANK24  BANK25
  8453 ;;      Params:         0       4       0       0       0       0       0       0       0       0       0       0       
      +0       0       0       0       0       0       0       0       0       0       0       0       0       0       0
  8454 ;;      Locals:         2       0       0       0       0       0       0       0       0       0       0       0       
      +0       0       0       0       0       0       0       0       0       0       0       0       0       0       0
  8455 ;;      Temps:          0      12       0       0       0       0       0       0       0       0       0       0       
      +0       0       0       0       0       0       0       0       0       0       0       0       0       0       0
  8456 ;;      Totals:         2      16       0       0       0       0       0       0       0       0       0       0       
      +0       0       0       0       0       0       0       0       0       0       0       0       0       0       0
  8457 ;;Total ram usage:       18 bytes
  8458 ;; Hardware stack levels used: 1
  8459 ;; Hardware stack levels required when called: 1
  8460 ;; This function calls:
  8461 ;;		___aldiv
  8462 ;; This function is called by:
  8463 ;;		_main
  8464 ;; This function uses a non-reentrant model
  8465 ;;
  8466                           
  8467     0B04                     _EUSART_Initialize:	
  8468                           ;psect for function _EUSART_Initialize
  8469                           
  8470     0B04                     l2664:	
  8471                           ;incstack = 0
  8472                           ; Regs used in _EUSART_Initialize: [wreg+status,2+status,0+pclath+cstack]
  8473                           
  8474                           
  8475                           ;EUSART.c: 36: char EUSART_Initialize(const long int baudrate);EUSART.c: 37: {;EUSART.c:
      +                           38:     unsigned int x;;EUSART.c: 39:  x = (32000000 - baudrate*64)/(baudrate*64);
  8476     0B04  0020               	movlb	0	; select bank0
  8477     0B05  0826               	movf	EUSART_Initialize@baudrate,w
  8478     0B06  00AA               	movwf	??_EUSART_Initialize
  8479     0B07  0827               	movf	EUSART_Initialize@baudrate+1,w
  8480     0B08  00AB               	movwf	??_EUSART_Initialize+1
  8481     0B09  0828               	movf	EUSART_Initialize@baudrate+2,w
  8482     0B0A  00AC               	movwf	??_EUSART_Initialize+2
  8483     0B0B  0829               	movf	EUSART_Initialize@baudrate+3,w
  8484     0B0C  00AD               	movwf	??_EUSART_Initialize+3
  8485     0B0D  3006               	movlw	6
  8486     0B0E                     u3105:
  8487     0B0E  35AA               	lslf	??_EUSART_Initialize,f
  8488     0B0F  0DAB               	rlf	??_EUSART_Initialize+1,f
  8489     0B10  0DAC               	rlf	??_EUSART_Initialize+2,f
  8490     0B11  0DAD               	rlf	??_EUSART_Initialize+3,f
  8491     0B12                     u3100:
  8492     0B12  0B89               	decfsz	9,f
  8493     0B13  2B0E               	goto	u3105
  8494     0B14  082D               	movf	??_EUSART_Initialize+3,w
  8495     0B15  00F3               	movwf	___aldiv@divisor+3
  8496     0B16  082C               	movf	??_EUSART_Initialize+2,w
  8497     0B17  00F2               	movwf	___aldiv@divisor+2
  8498     0B18  082B               	movf	??_EUSART_Initialize+1,w
  8499     0B19  00F1               	movwf	___aldiv@divisor+1
  8500     0B1A  082A               	movf	??_EUSART_Initialize,w
  8501     0B1B  00F0               	movwf	___aldiv@divisor
  8502     0B1C  0826               	movf	EUSART_Initialize@baudrate,w
  8503     0B1D  00AE               	movwf	??_EUSART_Initialize+4
  8504     0B1E  0827               	movf	EUSART_Initialize@baudrate+1,w
  8505     0B1F  00AF               	movwf	??_EUSART_Initialize+5
  8506     0B20  0828               	movf	EUSART_Initialize@baudrate+2,w
  8507     0B21  00B0               	movwf	??_EUSART_Initialize+6
  8508     0B22  0829               	movf	EUSART_Initialize@baudrate+3,w
  8509     0B23  00B1               	movwf	??_EUSART_Initialize+7
  8510     0B24  3006               	movlw	6
  8511     0B25                     u3115:
  8512     0B25  35AE               	lslf	??_EUSART_Initialize+4,f
  8513     0B26  0DAF               	rlf	??_EUSART_Initialize+5,f
  8514     0B27  0DB0               	rlf	??_EUSART_Initialize+6,f
  8515     0B28  0DB1               	rlf	??_EUSART_Initialize+7,f
  8516     0B29                     u3110:
  8517     0B29  0B89               	decfsz	9,f
  8518     0B2A  2B25               	goto	u3115
  8519     0B2B  3000               	movlw	0
  8520     0B2C  00B2               	movwf	??_EUSART_Initialize+8
  8521     0B2D  3048               	movlw	72
  8522     0B2E  00B3               	movwf	??_EUSART_Initialize+9
  8523     0B2F  30E8               	movlw	232
  8524     0B30  00B4               	movwf	??_EUSART_Initialize+10
  8525     0B31  3001               	movlw	1
  8526     0B32  00B5               	movwf	??_EUSART_Initialize+11
  8527     0B33  082E               	movf	??_EUSART_Initialize+4,w
  8528     0B34  02B2               	subwf	??_EUSART_Initialize+8,f
  8529     0B35  082F               	movf	??_EUSART_Initialize+5,w
  8530     0B36  3BB3               	subwfb	??_EUSART_Initialize+9,f
  8531     0B37  0830               	movf	??_EUSART_Initialize+6,w
  8532     0B38  3BB4               	subwfb	??_EUSART_Initialize+10,f
  8533     0B39  0831               	movf	??_EUSART_Initialize+7,w
  8534     0B3A  3BB5               	subwfb	??_EUSART_Initialize+11,f
  8535     0B3B  0835               	movf	??_EUSART_Initialize+11,w
  8536     0B3C  00F7               	movwf	___aldiv@dividend+3
  8537     0B3D  0834               	movf	??_EUSART_Initialize+10,w
  8538     0B3E  00F6               	movwf	___aldiv@dividend+2
  8539     0B3F  0833               	movf	??_EUSART_Initialize+9,w
  8540     0B40  00F5               	movwf	___aldiv@dividend+1
  8541     0B41  0832               	movf	??_EUSART_Initialize+8,w
  8542     0B42  00F4               	movwf	___aldiv@dividend
  8543     0B43  318E  26A6  318B   	fcall	___aldiv
  8544     0B46  0871               	movf	?___aldiv+1,w
  8545     0B47  00FA               	movwf	EUSART_Initialize@x+1
  8546     0B48  0870               	movf	?___aldiv,w
  8547     0B49  00F9               	movwf	EUSART_Initialize@x
  8548     0B4A                     l2666:
  8549                           
  8550                           ;EUSART.c: 41:  SPBRGL = x;
  8551     0B4A  0879               	movf	EUSART_Initialize@x,w
  8552     0B4B  0023               	movlb	3	; select bank3
  8553     0B4C  009B               	movwf	27	;volatile
  8554     0B4D                     l2668:
  8555                           
  8556                           ;EUSART.c: 42:     BRGH = 0;
  8557     0B4D  111E               	bcf	30,2	;volatile
  8558     0B4E                     l2670:
  8559                           
  8560                           ;EUSART.c: 43:     BRG16 = 0;
  8561     0B4E  119F               	bcf	31,3	;volatile
  8562     0B4F                     l2672:
  8563                           
  8564                           ;EUSART.c: 44:     SYNC = 0;
  8565     0B4F  121E               	bcf	30,4	;volatile
  8566     0B50                     l2674:
  8567                           
  8568                           ;EUSART.c: 45:     SPEN = 1;
  8569     0B50  179D               	bsf	29,7	;volatile
  8570     0B51                     l2676:
  8571                           
  8572                           ;EUSART.c: 46:     CREN = 1;
  8573     0B51  161D               	bsf	29,4	;volatile
  8574     0B52                     l2678:
  8575                           
  8576                           ;EUSART.c: 47:     TXEN = 1;
  8577     0B52  169E               	bsf	30,5	;volatile
  8578     0B53                     l259:
  8579     0B53  0008               	return
  8580     0B54                     __end_of_EUSART_Initialize:
  8581                           
  8582                           	psect	text37
  8583     0EA6                     __ptext37:	
  8584 ;; *************** function ___aldiv *****************
  8585 ;; Defined at:
  8586 ;;		line 5 in file "C:\Program Files\Microchip\xc8\v2.46\pic\sources\c99\common\aldiv.c"
  8587 ;; Parameters:    Size  Location     Type
  8588 ;;  divisor         4    0[COMMON] long 
  8589 ;;  dividend        4    4[COMMON] long 
  8590 ;; Auto vars:     Size  Location     Type
  8591 ;;  quotient        4    2[BANK0 ] long 
  8592 ;;  sign            1    1[BANK0 ] unsigned char 
  8593 ;;  counter         1    0[BANK0 ] unsigned char 
  8594 ;; Return value:  Size  Location     Type
  8595 ;;                  4    0[COMMON] long 
  8596 ;; Registers used:
  8597 ;;		wreg, status,2, status,0
  8598 ;; Tracked objects:
  8599 ;;		On entry : 0/0
  8600 ;;		On exit  : 0/0
  8601 ;;		Unchanged: 0/0
  8602 ;; Data sizes:     COMMON   BANK0   BANK1   BANK2   BANK3   BANK4   BANK5   BANK6   BANK7   BANK8   BANK9  BANK10  BANK1
      +1  BANK12  BANK13  BANK14  BANK15  BANK16  BANK17  BANK18  BANK19  BANK20  BANK21  BANK22  BANK23  BANK24  BANK25
  8603 ;;      Params:         8       0       0       0       0       0       0       0       0       0       0       0       
      +0       0       0       0       0       0       0       0       0       0       0       0       0       0       0
  8604 ;;      Locals:         0       6       0       0       0       0       0       0       0       0       0       0       
      +0       0       0       0       0       0       0       0       0       0       0       0       0       0       0
  8605 ;;      Temps:          1       0       0       0       0       0       0       0       0       0       0       0       
      +0       0       0       0       0       0       0       0       0       0       0       0       0       0       0
  8606 ;;      Totals:         9       6       0       0       0       0       0       0       0       0       0       0       
      +0       0       0       0       0       0       0       0       0       0       0       0       0       0       0
  8607 ;;Total ram usage:       15 bytes
  8608 ;; Hardware stack levels used: 1
  8609 ;; This function calls:
  8610 ;;		Nothing
  8611 ;; This function is called by:
  8612 ;;		_suart_print_int32
  8613 ;;		_suart_print_microdeg
  8614 ;;		_EUSART_Initialize
  8615 ;; This function uses a non-reentrant model
  8616 ;;
  8617                           
  8618     0EA6                     ___aldiv:	
  8619                           ;psect for function ___aldiv
  8620                           
  8621     0EA6                     l1968:	
  8622                           ;incstack = 0
  8623                           ; Regs used in ___aldiv: [wreg+status,2+status,0]
  8624                           
  8625     0EA6  0020               	movlb	0	; select bank0
  8626     0EA7  01A1               	clrf	___aldiv@sign
  8627     0EA8                     l1970:
  8628     0EA8  1FF3               	btfss	___aldiv@divisor+3,7
  8629     0EA9  2EAB               	goto	u1801
  8630     0EAA  2EAC               	goto	u1800
  8631     0EAB                     u1801:
  8632     0EAB  2EB9               	goto	l524
  8633     0EAC                     u1800:
  8634     0EAC                     l1972:
  8635     0EAC  09F0               	comf	___aldiv@divisor,f
  8636     0EAD  09F1               	comf	___aldiv@divisor+1,f
  8637     0EAE  09F2               	comf	___aldiv@divisor+2,f
  8638     0EAF  09F3               	comf	___aldiv@divisor+3,f
  8639     0EB0  0AF0               	incf	___aldiv@divisor,f
  8640     0EB1  1903               	skipnz
  8641     0EB2  0AF1               	incf	___aldiv@divisor+1,f
  8642     0EB3  1903               	skipnz
  8643     0EB4  0AF2               	incf	___aldiv@divisor+2,f
  8644     0EB5  1903               	skipnz
  8645     0EB6  0AF3               	incf	___aldiv@divisor+3,f
  8646     0EB7  01A1               	clrf	___aldiv@sign
  8647     0EB8  0AA1               	incf	___aldiv@sign,f
  8648     0EB9                     l524:
  8649     0EB9  1FF7               	btfss	___aldiv@dividend+3,7
  8650     0EBA  2EBC               	goto	u1811
  8651     0EBB  2EBD               	goto	u1810
  8652     0EBC                     u1811:
  8653     0EBC  2ECC               	goto	l1978
  8654     0EBD                     u1810:
  8655     0EBD                     l1974:
  8656     0EBD  09F4               	comf	___aldiv@dividend,f
  8657     0EBE  09F5               	comf	___aldiv@dividend+1,f
  8658     0EBF  09F6               	comf	___aldiv@dividend+2,f
  8659     0EC0  09F7               	comf	___aldiv@dividend+3,f
  8660     0EC1  0AF4               	incf	___aldiv@dividend,f
  8661     0EC2  1903               	skipnz
  8662     0EC3  0AF5               	incf	___aldiv@dividend+1,f
  8663     0EC4  1903               	skipnz
  8664     0EC5  0AF6               	incf	___aldiv@dividend+2,f
  8665     0EC6  1903               	skipnz
  8666     0EC7  0AF7               	incf	___aldiv@dividend+3,f
  8667     0EC8                     l1976:
  8668     0EC8  3001               	movlw	1
  8669     0EC9  00F8               	movwf	??___aldiv
  8670     0ECA  0878               	movf	??___aldiv,w
  8671     0ECB  06A1               	xorwf	___aldiv@sign,f
  8672     0ECC                     l1978:
  8673     0ECC  3000               	movlw	0
  8674     0ECD  00A5               	movwf	___aldiv@quotient+3
  8675     0ECE  3000               	movlw	0
  8676     0ECF  00A4               	movwf	___aldiv@quotient+2
  8677     0ED0  3000               	movlw	0
  8678     0ED1  00A3               	movwf	___aldiv@quotient+1
  8679     0ED2  3000               	movlw	0
  8680     0ED3  00A2               	movwf	___aldiv@quotient
  8681     0ED4                     l1980:
  8682     0ED4  0873               	movf	___aldiv@divisor+3,w
  8683     0ED5  0472               	iorwf	___aldiv@divisor+2,w
  8684     0ED6  0471               	iorwf	___aldiv@divisor+1,w
  8685     0ED7  0470               	iorwf	___aldiv@divisor,w
  8686     0ED8  1903               	skipnz
  8687     0ED9  2EDB               	goto	u1821
  8688     0EDA  2EDC               	goto	u1820
  8689     0EDB                     u1821:
  8690     0EDB  2F1D               	goto	l2000
  8691     0EDC                     u1820:
  8692     0EDC                     l1982:
  8693     0EDC  01A0               	clrf	___aldiv@counter
  8694     0EDD  0AA0               	incf	___aldiv@counter,f
  8695     0EDE  2EEA               	goto	l1986
  8696     0EDF                     l1984:
  8697     0EDF  3001               	movlw	1
  8698     0EE0                     u1835:
  8699     0EE0  35F0               	lslf	___aldiv@divisor,f
  8700     0EE1  0DF1               	rlf	___aldiv@divisor+1,f
  8701     0EE2  0DF2               	rlf	___aldiv@divisor+2,f
  8702     0EE3  0DF3               	rlf	___aldiv@divisor+3,f
  8703     0EE4  0B89               	decfsz	9,f
  8704     0EE5  2EE0               	goto	u1835
  8705     0EE6  3001               	movlw	1
  8706     0EE7  00F8               	movwf	??___aldiv
  8707     0EE8  0878               	movf	??___aldiv,w
  8708     0EE9  07A0               	addwf	___aldiv@counter,f
  8709     0EEA                     l1986:
  8710     0EEA  1FF3               	btfss	___aldiv@divisor+3,7
  8711     0EEB  2EED               	goto	u1841
  8712     0EEC  2EEE               	goto	u1840
  8713     0EED                     u1841:
  8714     0EED  2EDF               	goto	l1984
  8715     0EEE                     u1840:
  8716     0EEE                     l1988:
  8717     0EEE  3001               	movlw	1
  8718     0EEF                     u1855:
  8719     0EEF  35A2               	lslf	___aldiv@quotient,f
  8720     0EF0  0DA3               	rlf	___aldiv@quotient+1,f
  8721     0EF1  0DA4               	rlf	___aldiv@quotient+2,f
  8722     0EF2  0DA5               	rlf	___aldiv@quotient+3,f
  8723     0EF3  0B89               	decfsz	9,f
  8724     0EF4  2EEF               	goto	u1855
  8725     0EF5                     l1990:
  8726     0EF5  0873               	movf	___aldiv@divisor+3,w
  8727     0EF6  0277               	subwf	___aldiv@dividend+3,w
  8728     0EF7  1D03               	skipz
  8729     0EF8  2F03               	goto	u1865
  8730     0EF9  0872               	movf	___aldiv@divisor+2,w
  8731     0EFA  0276               	subwf	___aldiv@dividend+2,w
  8732     0EFB  1D03               	skipz
  8733     0EFC  2F03               	goto	u1865
  8734     0EFD  0871               	movf	___aldiv@divisor+1,w
  8735     0EFE  0275               	subwf	___aldiv@dividend+1,w
  8736     0EFF  1D03               	skipz
  8737     0F00  2F03               	goto	u1865
  8738     0F01  0870               	movf	___aldiv@divisor,w
  8739     0F02  0274               	subwf	___aldiv@dividend,w
  8740     0F03                     u1865:
  8741     0F03  1C03               	skipc
  8742     0F04  2F06               	goto	u1861
  8743     0F05  2F07               	goto	u1860
  8744     0F06                     u1861:
  8745     0F06  2F10               	goto	l1996
  8746     0F07                     u1860:
  8747     0F07                     l1992:
  8748     0F07  0870               	movf	___aldiv@divisor,w
  8749     0F08  02F4               	subwf	___aldiv@dividend,f
  8750     0F09  0871               	movf	___aldiv@divisor+1,w
  8751     0F0A  3BF5               	subwfb	___aldiv@dividend+1,f
  8752     0F0B  0872               	movf	___aldiv@divisor+2,w
  8753     0F0C  3BF6               	subwfb	___aldiv@dividend+2,f
  8754     0F0D  0873               	movf	___aldiv@divisor+3,w
  8755     0F0E  3BF7               	subwfb	___aldiv@dividend+3,f
  8756     0F0F                     l1994:
  8757     0F0F  1422               	bsf	___aldiv@quotient,0
  8758     0F10                     l1996:
  8759     0F10  3001               	movlw	1
  8760     0F11                     u1875:
  8761     0F11  36F3               	lsrf	___aldiv@divisor+3,f
  8762     0F12  0CF2               	rrf	___aldiv@divisor+2,f
  8763     0F13  0CF1               	rrf	___aldiv@divisor+1,f
  8764     0F14  0CF0               	rrf	___aldiv@divisor,f
  8765     0F15  0B89               	decfsz	9,f
  8766     0F16  2F11               	goto	u1875
  8767     0F17                     l1998:
  8768     0F17  3001               	movlw	1
  8769     0F18  02A0               	subwf	___aldiv@counter,f
  8770     0F19  1D03               	btfss	3,2
  8771     0F1A  2F1C               	goto	u1881
  8772     0F1B  2F1D               	goto	u1880
  8773     0F1C                     u1881:
  8774     0F1C  2EEE               	goto	l1988
  8775     0F1D                     u1880:
  8776     0F1D                     l2000:
  8777     0F1D  0821               	movf	___aldiv@sign,w
  8778     0F1E  1903               	btfsc	3,2
  8779     0F1F  2F21               	goto	u1891
  8780     0F20  2F22               	goto	u1890
  8781     0F21                     u1891:
  8782     0F21  2F2D               	goto	l2004
  8783     0F22                     u1890:
  8784     0F22                     l2002:
  8785     0F22  09A2               	comf	___aldiv@quotient,f
  8786     0F23  09A3               	comf	___aldiv@quotient+1,f
  8787     0F24  09A4               	comf	___aldiv@quotient+2,f
  8788     0F25  09A5               	comf	___aldiv@quotient+3,f
  8789     0F26  0AA2               	incf	___aldiv@quotient,f
  8790     0F27  1903               	skipnz
  8791     0F28  0AA3               	incf	___aldiv@quotient+1,f
  8792     0F29  1903               	skipnz
  8793     0F2A  0AA4               	incf	___aldiv@quotient+2,f
  8794     0F2B  1903               	skipnz
  8795     0F2C  0AA5               	incf	___aldiv@quotient+3,f
  8796     0F2D                     l2004:
  8797     0F2D  0825               	movf	___aldiv@quotient+3,w
  8798     0F2E  00F3               	movwf	?___aldiv+3
  8799     0F2F  0824               	movf	___aldiv@quotient+2,w
  8800     0F30  00F2               	movwf	?___aldiv+2
  8801     0F31  0823               	movf	___aldiv@quotient+1,w
  8802     0F32  00F1               	movwf	?___aldiv+1
  8803     0F33  0822               	movf	___aldiv@quotient,w
  8804     0F34  00F0               	movwf	?___aldiv
  8805     0F35                     l534:
  8806     0F35  0008               	return
  8807     0F36                     __end_of___aldiv:
  8808     007E                     btemp	set	126	;btemp
  8809     007E                     wtemp0	set	126
  8810     2730                     
  8811                           	psect	config
  8812                           
  8813                           ;Config register CONFIG1 @ 0x8007
  8814                           ;	Oscillator Selection Bits
  8815                           ;	FOSC = INTOSC, INTOSC oscillator: I/O function on CLKIN pin
  8816                           ;	Watchdog Timer Enable
  8817                           ;	WDTE = OFF, WDT disabled
  8818                           ;	Power-up Timer Enable
  8819                           ;	PWRTE = OFF, PWRT disabled
  8820                           ;	MCLR Pin Function Select
  8821                           ;	MCLRE = OFF, MCLR/VPP pin function is digital input if LVP bit is also 0.
  8822                           ;	Flash Program Memory Code Protection
  8823                           ;	CP = OFF, Program memory code protection is disabled
  8824                           ;	Brown-out Reset Enable
  8825                           ;	BOREN = OFF, Brown-out Reset disabled
  8826                           ;	Clock Out Enable
  8827                           ;	CLKOUTEN = OFF, CLKOUT function is disabled. I/O or oscillator function on the CLKOUT 
      +                          pin
  8828                           ;	Internal/External Switchover Mode
  8829                           ;	IESO = ON, Internal/External Switchover Mode is enabled
  8830                           ;	Fail-Safe Clock Monitor Enable
  8831                           ;	FCMEN = OFF, Fail-Safe Clock Monitor is disabled
  8832     8007                     	org	32775
  8833     8007  19A4               	dw	6564
  8834                           
  8835                           ;Config register CONFIG2 @ 0x8008
  8836                           ;	Flash Memory Self-Write Protection
  8837                           ;	WRT = OFF, Write protection off
  8838                           ;	Peripheral Pin Select one-way control
  8839                           ;	PPS1WAY = ON, The PPSLOCK bit cannot be cleared once it is set by software
  8840                           ;	Zero-cross detect disable
  8841                           ;	ZCDDIS = ON, ZCD disabled. ZCD can be enabled by setting the ZCDSEN bit of ZCDCON
  8842                           ;	Phase Lock Loop enable
  8843                           ;	PLLEN = OFF, 4x PLL is disabled
  8844                           ;	Stack Overflow/Underflow Reset Enable
  8845                           ;	STVREN = ON, Stack Overflow or Underflow will cause a Reset
  8846                           ;	Brown-out Reset Voltage Selection
  8847                           ;	BORV = LO, Brown-out Reset Voltage (Vbor), low trip point selected.
  8848                           ;	Low-Power Brown Out Reset
  8849                           ;	LPBOR = OFF, Low-Power BOR is disabled
  8850                           ;	In-Circuit Debugger Mode
  8851                           ;	DEBUG = 0x1, unprogrammed default
  8852                           ;	Low-Voltage Programming Enable
  8853                           ;	LVP = OFF, High-voltage on MCLR/VPP must be used for programming
  8854     8008                     	org	32776
  8855     8008  1EFF               	dw	7935

Data Sizes:
    Strings     179
    Constant    0
    Data        2
    BSS         60
    Persistent  32
    Stack       0

Auto Spaces:
    Space          Size  Autos    Used
    COMMON           14     14      14
    BANK0            80     74      80
    BANK1            80      9      65
    BANK2            80      0       0
    BANK3            80      0       0
    BANK4            80      0       0
    BANK5            80      0       0
    BANK6            80      0       0
    BANK7            80      0       0
    BANK8            80      0       0
    BANK9            80      0       0
    BANK10           80      0       0
    BANK11           80      0       0
    BANK12           80      0       0
    BANK13           80      0       0
    BANK14           80      0       0
    BANK15           80      0       0
    BANK16           80      0       0
    BANK17           80      0       0
    BANK18           80      0       0
    BANK19           80      0       0
    BANK20           80      0       0
    BANK21           80      0       0
    BANK22           80      0       0
    BANK23            0      0       0
    BANK24            0      0       0
    BANK25            0      0       0

Pointer List with Targets:

    coord_to_microdeg@field	PTR const unsigned char  size(2) Largest target is 96
		 -> work(BIGRAM[96]), 

    coord_to_microdeg@out	PTR long  size(1) Largest target is 4
		 -> main@lat(BANK1[4]), main@lon(BANK1[4]), 

    fld	PTR unsigned char [20] size(2) Largest target is 96
		 -> work(BIGRAM[96]), 

    gps_read_line@buf	PTR unsigned char  size(2) Largest target is 96
		 -> line(BIGRAM[96]), 

    handle_gga$1057	PTR const unsigned char  size(2) Largest target is 96
		 -> work(BIGRAM[96]), 

    handle_gga@nmea	PTR const unsigned char  size(2) Largest target is 96
		 -> line(BIGRAM[96]), 

    main$1059	PTR const unsigned char  size(2) Largest target is 96
		 -> work(BIGRAM[96]), 

    nmea_checksum_ok@p	PTR const unsigned char  size(2) Largest target is 96
		 -> line(BIGRAM[96]), 

    nmea_checksum_ok@s	PTR const unsigned char  size(2) Largest target is 96
		 -> line(BIGRAM[96]), 

    parse_hdop_x100@out	PTR unsigned short  size(1) Largest target is 2
		 -> handle_gga@hd(BANK0[2]), 

    parse_hdop_x100@s	PTR const unsigned char  size(2) Largest target is 96
		 -> work(BIGRAM[96]), 

    parse_u8@out	PTR unsigned char  size(1) Largest target is 1
		 -> handle_gga@fixq(BANK0[1]), handle_gga@sats(BANK0[1]), 

    parse_u8@s	PTR const unsigned char  size(2) Largest target is 96
		 -> work(BIGRAM[96]), 

    sp__strncpy	PTR unsigned char  size(2) Largest target is 96
		 -> work(BIGRAM[96]), 

    split_csv@out	PTR PTR unsigned char  size(1) Largest target is 40
		 -> fld(BANK1[40]), 

    split_csv@p	PTR unsigned char  size(2) Largest target is 96
		 -> work(BIGRAM[96]), 

    split_csv@s	PTR unsigned char  size(2) Largest target is 96
		 -> work(BIGRAM[96]), 

    strncmp@l	PTR const unsigned char  size(2) Largest target is 96
		 -> line(BIGRAM[96]), 

    strncmp@r	PTR const unsigned char  size(2) Largest target is 7
		 -> STR_12(CODE[7]), STR_14(CODE[7]), STR_17(CODE[7]), STR_18(CODE[7]), 

    strncpy@cp	PTR unsigned char  size(2) Largest target is 96
		 -> work(BIGRAM[96]), 

    strncpy@d	PTR unsigned char  size(2) Largest target is 96
		 -> work(BIGRAM[96]), 

    strncpy@s	PTR const unsigned char  size(2) Largest target is 96
		 -> line(BIGRAM[96]), 

    suart_puts@s	PTR const unsigned char  size(2) Largest target is 46
		 -> STR_1(CODE[11]), STR_10(CODE[13]), STR_2(CODE[3]), STR_3(CODE[9]), 
		 -> STR_4(CODE[7]), STR_5(CODE[7]), STR_6(CODE[4]), STR_7(CODE[46]), 
		 -> STR_8(CODE[39]), STR_9(CODE[12]), 

    SUART_Write_Text@text	PTR unsigned char  size(2) Largest target is 46
		 -> STR_1(CODE[11]), STR_10(CODE[13]), STR_2(CODE[3]), STR_3(CODE[9]), 
		 -> STR_4(CODE[7]), STR_5(CODE[7]), STR_6(CODE[4]), STR_7(CODE[46]), 
		 -> STR_8(CODE[39]), STR_9(CODE[12]), 


Critical Paths under _main in COMMON

    _main->_coord_to_microdeg
    _main->_nmea_checksum_ok
    _nmea_checksum_ok->_hex_nibble
    _handle_gga->_parse_hdop_x100
    _handle_gga->_parse_u8
    _parse_u8->___wmul
    _parse_hdop_x100->___wmul
    _coord_to_microdeg->___aodiv
    _avg_print->___lwdiv
    _suart_puts->_SUART_Write_Text
    _SUART_Write_Text->_SUART_Transmit
    _suart_print_uint16->___lwdiv
    ___lwdiv->___lwmod
    _suart_print_microdeg->_suart_print_int32
    _suart_print_int32->___almod
    _suart_putc->_SUART_Write_Char
    _SUART_Write_Char->_SUART_Transmit
    _SUART_Transmit->_SUART_Lock
    _SUART_Transmit->_SUART_Unlock
    ___aodiv->___omul
    _EUSART_Initialize->___aldiv

Critical Paths under _main in BANK0

    _main->_coord_to_microdeg
    _handle_gga->_parse_hdop_x100
    _coord_to_microdeg->___aodiv
    _avg_print->___aodiv
    _suart_print_microdeg->_suart_print_int32
    _suart_print_int32->___aldiv
    ___aodiv->___omul
    _EUSART_Initialize->___aldiv

Critical Paths under _main in BANK1

    None.

Critical Paths under _main in BANK2

    None.

Critical Paths under _main in BANK3

    None.

Critical Paths under _main in BANK4

    None.

Critical Paths under _main in BANK5

    None.

Critical Paths under _main in BANK6

    None.

Critical Paths under _main in BANK7

    None.

Critical Paths under _main in BANK8

    None.

Critical Paths under _main in BANK9

    None.

Critical Paths under _main in BANK10

    None.

Critical Paths under _main in BANK11

    None.

Critical Paths under _main in BANK12

    None.

Critical Paths under _main in BANK13

    None.

Critical Paths under _main in BANK14

    None.

Critical Paths under _main in BANK15

    None.

Critical Paths under _main in BANK16

    None.

Critical Paths under _main in BANK17

    None.

Critical Paths under _main in BANK18

    None.

Critical Paths under _main in BANK19

    None.

Critical Paths under _main in BANK20

    None.

Critical Paths under _main in BANK21

    None.

Critical Paths under _main in BANK22

    None.

Critical Paths under _main in BANK23

    None.

Critical Paths under _main in BANK24

    None.

Critical Paths under _main in BANK25

    None.

Call Graph Tables:

 ---------------------------------------------------------------------------------
 (Depth) Function   	        Calls       Base Space   Used Autos Params    Refs
 ---------------------------------------------------------------------------------
 (0) _main                                                11    11      0   31650
                                             72 BANK0      2     2      0
                                              0 BANK1      9     9      0
                  _EUSART_Initialize
                         _SUART_Init
                            _avg_add
                          _avg_print
                          _avg_ready
                          _avg_reset
                  _coord_to_microdeg
                      _gps_read_line
                         _handle_gga
                           _initMain
                   _nmea_checksum_ok
                         _quality_ok
                          _split_csv
                            _strncmp
                            _strncpy
                         _suart_putc
                         _suart_puts
 ---------------------------------------------------------------------------------
 (1) _strncmp                                              7     1      6    1091
                                              0 COMMON     7     1      6
 ---------------------------------------------------------------------------------
 (1) _quality_ok                                           0     0      0       0
 ---------------------------------------------------------------------------------
 (1) _nmea_checksum_ok                                    11     9      2     632
                                              3 COMMON    11     9      2
                         _hex_nibble
 ---------------------------------------------------------------------------------
 (2) _hex_nibble                                           3     1      2     198
                                              0 COMMON     3     1      2
 ---------------------------------------------------------------------------------
 (1) _initMain                                             2     2      0       0
                                              0 COMMON     2     2      0
                        _internal_32
 ---------------------------------------------------------------------------------
 (2) _internal_32                                          0     0      0       0
 ---------------------------------------------------------------------------------
 (1) _handle_gga                                           7     5      2    9067
                                              6 BANK0      7     5      2
                    _parse_hdop_x100
                           _parse_u8
                          _split_csv
                            _strncpy
 ---------------------------------------------------------------------------------
 (1) _strncpy                                             12     6      6     597
                                              0 COMMON    12     6      6
 ---------------------------------------------------------------------------------
 (1) _split_csv                                           10     6      4     835
                                              0 COMMON    10     6      4
 ---------------------------------------------------------------------------------
 (2) _parse_u8                                             7     4      3    3547
                                              6 COMMON     7     4      3
                             ___wmul
 ---------------------------------------------------------------------------------
 (2) _parse_hdop_x100                                     13    10      3    3822
                                              6 COMMON     7     4      3
                                              0 BANK0      6     6      0
                             ___wmul
 ---------------------------------------------------------------------------------
 (1) _gps_read_line                                        9     5      4     495
                                              0 COMMON     9     5      4
                        _EUSART_Read
 ---------------------------------------------------------------------------------
 (2) _EUSART_Read                                          0     0      0       0
 ---------------------------------------------------------------------------------
 (1) _coord_to_microdeg                                   34    30      4    5957
                                             10 COMMON     4     0      4
                                             42 BANK0     30    30      0
                            ___aodiv
                             ___omul
                             ___wmul
 ---------------------------------------------------------------------------------
 (3) ___wmul                                               6     2      4    3064
                                              0 COMMON     6     2      4
 ---------------------------------------------------------------------------------
 (2) ___omul                                              25     9     16     852
                                              0 COMMON     9     9      0
                                              0 BANK0     16     0     16
 ---------------------------------------------------------------------------------
 (1) _avg_ready                                            0     0      0       0
 ---------------------------------------------------------------------------------
 (1) _avg_print                                           12    12      0   10106
                                             42 BANK0     12    12      0
                            ___aodiv
                            ___lwdiv
                            ___lwmod
                          _avg_reset
               _suart_print_microdeg
                 _suart_print_uint16
                         _suart_putc
                         _suart_puts
 ---------------------------------------------------------------------------------
 (1) _suart_puts                                           2     0      2    1106
                                             10 COMMON     2     0      2
                   _SUART_Write_Text
 ---------------------------------------------------------------------------------
 (2) _SUART_Write_Text                                     5     3      2     324
                                              5 COMMON     5     3      2
                     _SUART_Transmit
 ---------------------------------------------------------------------------------
 (2) _suart_print_uint16                                  10     8      2    1813
                                              0 BANK0     10     8      2
                            ___lwdiv
                            ___lwmod
                         _suart_putc
 ---------------------------------------------------------------------------------
 (3) ___lwmod                                              6     2      4     615
                                              0 COMMON     6     2      4
 ---------------------------------------------------------------------------------
 (3) ___lwdiv                                              8     4      4     618
                                              6 COMMON     8     4      4
                            ___lwmod (ARG)
 ---------------------------------------------------------------------------------
 (2) _suart_print_microdeg                                16    12      4    4775
                                             23 BANK0     16    12      4
                            ___aldiv
                            ___almod
                  _suart_print_int32
                         _suart_putc
 ---------------------------------------------------------------------------------
 (3) _suart_print_int32                                   18    14      4    2361
                                             11 COMMON     1     1      0
                                              6 BANK0     17    13      4
                            ___aldiv
                            ___almod
                         _suart_putc
 ---------------------------------------------------------------------------------
 (1) _suart_putc                                           1     1      0     202
                                              6 COMMON     1     1      0
                   _SUART_Write_Char
 ---------------------------------------------------------------------------------
 (2) _SUART_Write_Char                                     1     1      0     180
                                              5 COMMON     1     1      0
                     _SUART_Transmit
 ---------------------------------------------------------------------------------
 (3) _SUART_Transmit                                       4     4      0     158
                                              1 COMMON     4     4      0
                         _SUART_Lock
                       _SUART_Unlock
 ---------------------------------------------------------------------------------
 (4) _SUART_Unlock                                         1     1      0      22
                                              0 COMMON     1     1      0
 ---------------------------------------------------------------------------------
 (4) _SUART_Lock                                           1     1      0      23
                                              0 COMMON     1     1      0
 ---------------------------------------------------------------------------------
 (4) ___almod                                             11     3      8     752
                                              0 COMMON    11     3      8
 ---------------------------------------------------------------------------------
 (1) _avg_reset                                            1     1      0       0
                                              0 COMMON     1     1      0
 ---------------------------------------------------------------------------------
 (2) ___aodiv                                             27    11     16     908
                                              9 COMMON     1     1      0
                                             16 BANK0     26    10     16
                             ___omul (ARG)
 ---------------------------------------------------------------------------------
 (1) _avg_add                                             16     8      8     196
                                              0 COMMON     8     0      8
                                              0 BANK0      8     8      0
 ---------------------------------------------------------------------------------
 (1) _SUART_Init                                           0     0      0       0
 ---------------------------------------------------------------------------------
 (1) _EUSART_Initialize                                   18    14      4    1203
                                              9 COMMON     2     2      0
                                              6 BANK0     16    12      4
                            ___aldiv
 ---------------------------------------------------------------------------------
 (4) ___aldiv                                             15     7      8    1060
                                              0 COMMON     9     1      8
                                              0 BANK0      6     6      0
 ---------------------------------------------------------------------------------
 Estimated maximum stack depth 4
 ---------------------------------------------------------------------------------

 Call Graph Graphs:

 _main (ROOT)
   _EUSART_Initialize
     ___aldiv
   _SUART_Init
   _avg_add
   _avg_print
     ___aodiv
       ___omul (ARG)
     ___lwdiv
       ___lwmod (ARG)
     ___lwmod
     _avg_reset
     _suart_print_microdeg
       ___aldiv
       ___almod
       _suart_print_int32
         ___aldiv
         ___almod
         _suart_putc
           _SUART_Write_Char
             _SUART_Transmit
               _SUART_Lock
               _SUART_Unlock
       _suart_putc
     _suart_print_uint16
       ___lwdiv
       ___lwmod
       _suart_putc
     _suart_putc
     _suart_puts
       _SUART_Write_Text
         _SUART_Transmit
   _avg_ready
   _avg_reset
   _coord_to_microdeg
     ___aodiv
     ___omul
     ___wmul
   _gps_read_line
     _EUSART_Read
   _handle_gga
     _parse_hdop_x100
       ___wmul
     _parse_u8
       ___wmul
     _split_csv
     _strncpy
   _initMain
     _internal_32
   _nmea_checksum_ok
     _hex_nibble
   _quality_ok
   _split_csv
   _strncmp
   _strncpy
   _suart_putc
   _suart_puts

 Address spaces:
Name               Size   Autos  Total    Cost      Usage
BIGRAM             7F0      0       0       0        0.0%
NULL                 0      0       0       0        0.0%
CODE                 0      0       0       0        0.0%
BITCOMMON            E      0       0       1        0.0%
BITSFR0              0      0       0       1        0.0%
SFR0                 0      0       0       1        0.0%
COMMON               E      E       E       2      100.0%
BITSFR1              0      0       0       2        0.0%
SFR1                 0      0       0       2        0.0%
BITSFR2              0      0       0       3        0.0%
SFR2                 0      0       0       3        0.0%
STACK                0      0       0       3        0.0%
BITBANK0            50      0       0       4        0.0%
BITSFR3              0      0       0       4        0.0%
SFR3                 0      0       0       4        0.0%
BANK0               50     4A      50       5      100.0%
BITSFR4              0      0       0       5        0.0%
SFR4                 0      0       0       5        0.0%
BITBANK1            50      0       0       6        0.0%
BITSFR5              0      0       0       6        0.0%
SFR5                 0      0       0       6        0.0%
BANK1               50      9      41       7       81.2%
BITSFR6              0      0       0       7        0.0%
SFR6                 0      0       0       7        0.0%
BITBANK2            50      0       0       8        0.0%
BITSFR7              0      0       0       8        0.0%
SFR7                 0      0       0       8        0.0%
BANK2               50      0       0       9        0.0%
BITSFR8              0      0       0       9        0.0%
SFR8                 0      0       0       9        0.0%
BITBANK3            50      0       0      10        0.0%
BITSFR9              0      0       0      10        0.0%
SFR9                 0      0       0      10        0.0%
BANK3               50      0       0      11        0.0%
BITSFR10             0      0       0      11        0.0%
SFR10                0      0       0      11        0.0%
BITBANK4            50      0       0      12        0.0%
BITSFR11             0      0       0      12        0.0%
SFR11                0      0       0      12        0.0%
BANK4               50      0       0      13        0.0%
BITSFR12             0      0       0      13        0.0%
SFR12                0      0       0      13        0.0%
BITSFR13             0      0       0      14        0.0%
SFR13                0      0       0      14        0.0%
ABS                  0      0      9F      14        0.0%
BITBANK5            50      0       0      15        0.0%
BITSFR14             0      0       0      15        0.0%
SFR14                0      0       0      15        0.0%
BANK5               50      0       0      16        0.0%
BITSFR15             0      0       0      16        0.0%
SFR15                0      0       0      16        0.0%
BITBANK6            50      0       0      17        0.0%
BITSFR16             0      0       0      17        0.0%
SFR16                0      0       0      17        0.0%
BANK6               50      0       0      18        0.0%
BITSFR17             0      0       0      18        0.0%
SFR17                0      0       0      18        0.0%
BITBANK7            50      0       0      19        0.0%
BITSFR18             0      0       0      19        0.0%
SFR18                0      0       0      19        0.0%
BANK7               50      0       0      20        0.0%
BITSFR19             0      0       0      20        0.0%
SFR19                0      0       0      20        0.0%
BITBANK8            50      0       0      21        0.0%
BITSFR20             0      0       0      21        0.0%
SFR20                0      0       0      21        0.0%
BANK8               50      0       0      22        0.0%
BITSFR21             0      0       0      22        0.0%
SFR21                0      0       0      22        0.0%
BITBANK9            50      0       0      23        0.0%
BITSFR22             0      0       0      23        0.0%
SFR22                0      0       0      23        0.0%
BANK9               50      0       0      24        0.0%
BITSFR23             0      0       0      24        0.0%
SFR23                0      0       0      24        0.0%
BITBANK10           50      0       0      25        0.0%
BITSFR24             0      0       0      25        0.0%
SFR24                0      0       0      25        0.0%
BANK10              50      0       0      26        0.0%
BITSFR25             0      0       0      26        0.0%
SFR25                0      0       0      26        0.0%
BITBANK11           50      0       0      27        0.0%
BITSFR26             0      0       0      27        0.0%
SFR26                0      0       0      27        0.0%
BITSFR27             0      0       0      28        0.0%
SFR27                0      0       0      28        0.0%
DATA                 0      0      9F      28        0.0%
BANK11              50      0       0      29        0.0%
BITSFR28             0      0       0      29        0.0%
SFR28                0      0       0      29        0.0%
BITBANK12           50      0       0      30        0.0%
BITSFR29             0      0       0      30        0.0%
SFR29                0      0       0      30        0.0%
BANK12              50      0       0      31        0.0%
BITSFR30             0      0       0      31        0.0%
SFR30                0      0       0      31        0.0%
BITBANK13           50      0       0      32        0.0%
BITSFR31             0      0       0      32        0.0%
SFR31                0      0       0      32        0.0%
BANK13              50      0       0      33        0.0%
BITBANK14           50      0       0      34        0.0%
BANK14              50      0       0      35        0.0%
BITBANK15           50      0       0      36        0.0%
BANK15              50      0       0      37        0.0%
BITBANK16           50      0       0      38        0.0%
BANK16              50      0       0      39        0.0%
BITBANK17           50      0       0      40        0.0%
BANK17              50      0       0      41        0.0%
BITBANK18           50      0       0      42        0.0%
BANK18              50      0       0      43        0.0%
BITBANK19           50      0       0      44        0.0%
BANK19              50      0       0      45        0.0%
BITBANK20           50      0       0      46        0.0%
BANK20              50      0       0      47        0.0%
BITBANK21           50      0       0      48        0.0%
BANK21              50      0       0      49        0.0%
BITBANK22           50      0       0      50        0.0%
BANK22              50      0       0      51        0.0%
BITBANK23           50      0       0      52        0.0%
BANK23               0      0       0      53        0.0%
BITBANK24           50      0       0      54        0.0%
BANK24               0      0       0      55        0.0%
BITBANK25           20      0       0      56        0.0%
BANK25               0      0       0      57        0.0%


Microchip Technology PIC Macro Assembler V2.46 build 20240104201356 
Symbol Table                                                                                   Thu Jan 29 20:10:35 2026

        coord_to_microdeg@deg 005C          coord_to_microdeg@out 007D                            l41 0859  
                          l44 0843                            l60 008E                            l72 0F4B  
                          l48 0BA5                            l80 0A25                            l59 0015  
                          l76 0FFF                            l88 0EA5           ___wmul@multiplicand 0072  
       coord_to_microdeg@dlen 0064         coord_to_microdeg@frac 0060                           l101 0C60  
                         l201 0D33                           l114 0D9D                           l210 0967  
                         l204 086C                           l207 029D                           l127 0B03  
                         l138 03F5                           l317 0862                           l166 07DA  
                         l262 087B                           l351 0851                           l264 0880  
                         l361 0837                           l185 0CC9                           l266 0888  
                         l178 08FC                           l259 0B53                           l524 0EB9  
                         l348 084A                           l197 089F                           l381 08BC  
                         l461 08DB                           l534 0F35                           l374 09D5  
                         l375 09E3                           l391 083D                           l560 0192  
                         l537 0DB0                           l547 0E18                           l459 08C7  
                         l478 0AA5                           l559 0181                           l479 0AB5  
                         l739 09A3                           l749 0930                           l934 0A69  
                         l919 0BF7                           _fld 00B0        coord_to_microdeg@i_213 0066  
                         wreg 0009            suart_print_int32@i 0036            suart_print_int32@v 0026  
      coord_to_microdeg@field 007A        coord_to_microdeg@micro 0054                  ?_EUSART_Read 0070  
      coord_to_microdeg@scale 0062                          l2000 0F1D                          l2002 0F22  
                        l2010 0D9F                          l2004 0F2D                          l2020 0DCA  
                        l2012 0DA3                          l2100 0980                          l2030 0DFA  
                        l2022 0DD5                          l2014 0DB4                          l2102 098F  
                        l2110 099F                          l2024 0DD9                          l2032 0E00  
                        l2016 0DBF                          l2008 0D9E                          l2104 0993  
                        l2120 090B                          l2040 08A0                          l2200 0A21  
                        l2034 0E05                          l2026 0DEB                          l2018 0DC7  
                        l2050 0008                          l2106 0994                          l2130 0926  
                        l2122 090F                          l2114 08FD                          l2042 08A3  
                        l2036 0E10                          l2028 0DF3                          l2060 002A  
                        l2052 0010                          l2108 0999                          l2124 0913  
                        l2116 0903                          l2132 092C                          l2140 0B56  
                        l2044 08AD                          l2204 0879                          l2300 0309  
                        l2212 0D34                          l2070 007E                          l2062 0044  
                        l2126 091D                          l2118 0906                          l2150 0B78  
                        l2142 0B5C                          l2046 08B1                          l2206 0885  
                        l2310 0352                          l2302 0316                          l2230 0D60  
                        l2222 0D46                          l2214 0D35                          l2400 0163  
                        l2072 0086                          l2064 0049                          l2056 0019  
                        l2048 0006                          l2160 0F36                          l2128 0921  
                        l2152 0B88                          l2136 0852                          l2080 08CC  
                        l2208 0887                          l2320 0398                          l2312 035F  
                        l2304 0335                          l2240 0D89                          l2232 0D65  
                        l2224 0D4D                          l2216 0D3B                          l2058 001D  
                        l2066 0065                          l2170 0F92                          l2162 0F3B  
                        l2090 096A                          l2154 0B8E                          l2146 0B61  
                        l2138 0B54                          l2082 08D1                          l2074 08BD  
                        l2322 03AB                          l2314 037E                          l2306 0345  
                        l2250 0AB6                          l2234 0D75                          l2242 0D8D  
                        l2226 0D51                          l2218 0D44                          l2410 0E2B  
                        l2402 0E19                          l2068 0076                          l2172 0F9C  
                        l2164 0F3F                          l2092 0970                          l2156 0B95  
                        l2148 0B73                          l2084 08D7                          l2076 08BF  
                        l2500 05D2                          l2324 03B2                          l2316 038E  
                        l2308 0349                          l2260 0ACA                          l2252 0ABC  
                        l2244 0D96                          l2236 0D79                          l2228 0D56  
                        l2340 0A4D                          l2332 0A26                          l2180 09F1  
                        l2420 0E48                          l2412 0E2C                          l2404 0E1F  
                        l2350 089D                          l2174 0FEE                          l2166 0F83  
                        l2094 0973                          l2158 0B9D                          l2078 08C3  
                        l2510 061A                          l2502 0602                          l2326 03DB  
                        l2318 0392                          l2270 0B02                          l2262 0AE3  
                        l2254 0AC5                          l2246 0D9C                          l2238 0D83  
                        l2342 0A54                          l2334 0A2B                          l2422 0E52  
                        l2414 0E33                          l2406 0E29                          l2168 0F8E  
                        l2096 0978                          l2088 0968                          l2600 0218  
                        l2360 0A89                          l2520 065F                          l2512 061F  
                        l2504 0604                          l2328 03F4                          l2264 0AE7  
                        l2344 0A59                          l2336 0A2F                          l2352 085A  
                        l2192 0A0D                          l2184 09F9                          l2176 09E5  
                        l2432 0E71                          l2424 0E5C                          l2416 0E3B  
                        l2370 00BD                          l2098 097C                          l2610 0243  
                        l2602 0224                          l2362 0A91                          l2354 0A6A  
                        l2522 066B                          l2514 0640                          l2506 0608  
                        l2290 02DC                          l2282 02AF                          l2274 029E  
                        l2266 0AF0                          l2258 0AC7                          l2346 0A5D  
                        l2194 0A13                          l2186 09FF                          l2178 09EB  
                        l2442 0E94                          l2434 0E8B                          l2426 0E66  
                        l2418 0E3F                          l2380 0102                          l2372 00C7  
                        l2364 008F                          l2348 0889                          l2620 0293  
                        l2612 025B                          l2604 022B                          l2356 0A74  
                        l2516 0644                          l2524 0677                          l2508 060E  
                        l2460 0C1F                          l2452 0C04                          l2292 02E5  
                        l2284 02B4                          l2276 02A4                          l2268 0AFD  
                        l2196 0A19                          l2188 0A05                          l2436 0E8F  
                        l2532 08DC                          l2390 011D                          l2382 0105  
                        l2374 00E6                          l2366 0091                          l2622 029A  
                        l2614 0262                          l2606 0231                          l2358 0A79  
                        l2526 07CB                          l2518 0654                          l2470 0C32  
                        l2462 0C23                          l2454 0C08                          l2446 0BF8  
                        l2294 02F2                          l2286 02B9                          l2278 02AD  
                        l2630 0942                          l2550 08F1                          l2534 08E2  
                        l2392 013F                          l2384 010D                          l2376 00EB  
                        l2368 009B                          l2616 0266                          l2608 0238  
                        l2528 07D6                          l2480 0C59                          l2472 0C3E  
                        l2464 0C29                          l2456 0C0E                          l2448 0BFA  
                        l2296 02FC                          l2288 02D8                          l2560 0C61  
                        l2640 094C                          l2632 0944                          l2624 0931  
                        l2544 08EA                          l2800 0486                          l2394 014F  
                        l2386 0111                          l2378 00F5                          l2618 0282  
                        l2490 0599                          l2474 0C42                          l2466 0C2B  
                        l2458 0C1A                          l2298 0300                          l2570 0C8A  
                        l2562 0C71                          l2650 0957                          l2642 094E  
                        l2634 0946                          l2626 0934                          l2538 08E4  
                        l2810 04BA                          l2396 0150                          l2388 0115  
                        l1932 0844                          l1940 084C                          l2492 059B  
                        l2484 0589                          l2580 0CAE                          l2572 0C8E  
                        l2564 0C76                          l2660 0966                          l2652 0958  
                        l2644 0950                          l2636 0948                          l2628 0940  
                        l2556 08FB                          l2820 04E2                          l2812 04C9  
                        l2804 048F                          l2670 0B4E                          l2662 0832  
                        l2398 015E                          l1934 0848                          l1942 09A5  
                        l2590 0863                          l2494 059E                          l2486 058E  
                        l2478 0C49                          l2566 0C83                          l2654 095D  
                        l2646 0952                          l2638 094A                          l2830 04FC  
                        l2822 04E8                          l2814 04CE                          l2806 04A4  
                        l2672 0B4F                          l2664 0B04                          l1936 0849  
                        l1960 09D7                          l1944 09A9                          l2496 05C0  
                        l2488 0594                          l2584 0CBE                          l2576 0C9E  
                        l2656 0962                          l2648 0955                          l2840 0530  
                        l2832 050D                          l2816 04DB                          l1970 0EA8  
                        l2674 0B50                          l2666 0B4A                          l2586 0CCA  
                        l1962 09DF                          l1954 09B4                          l1946 09AB  
                        l2594 0193                          l2498 05C4                          l2658 0964  
                        l2690 0BC1                          l2682 0BA6                          l2850 055D  
                        l2842 053B                          l2826 04F3                          l2770 03F9  
                        l1980 0ED4                          l1972 0EAC                          l2676 0B51  
                        l2668 0B4D                          l2588 0D2F                          l1956 09C3  
                        l1948 09B3                          l1964 0839                          l2596 01FE  
                        l2692 0BCA                          l2684 0BB2                          l2852 0568  
                        l2836 051F                          l2780 042A                          l2772 0409  
                        l1990 0EF5                          l1982 0EDC                          l1974 0EBD  
                        l2678 0B52                          l1958 09CB                          l1966 083F  
                        l2598 0205                          l2694 0BD3                          l2854 057B  
                        l2846 054C                          l2838 0526                          l2790 0447  
                        l2782 042E                          l2774 0415                          l1992 0F07  
                        l1984 0EDF                          l1976 0EC8                          l1968 0EA6  
                        l2696 0BD9                          l2688 0BB5                          l2856 0583  
                        l2848 0553                          l2784 0432                          l2776 041C  
                        l2768 03F6                          l1994 0F0F                          l1986 0EEA  
                        l1978 0ECC                          l2698 0BE9                          l2794 0454  
                        l2786 0439                          l2778 0423                          l1996 0F10  
                        l1988 0EEE                          l2796 0469                          l2788 043C  
                        l1998 0F17                          l2798 047E                          STR_1 106E  
                        STR_2 10B0                          STR_3 1079                          STR_4 1089  
                        STR_5 1082                          STR_6 10AC                          STR_7 1000  
                        STR_8 102E                          STR_9 1062                          _BRGH 0CF2  
                        _CREN 0CEC                          u2000 0010                          u2001 000F  
                        u2010 0019                          u2011 0018                          u2020 0076  
                        u2021 0075                          u2030 007D                          u2110 0980  
                        u2031 007C                          u2111 097F                          u2040 008E  
                        u3000 08E9                          u2041 008D                          u2105 0974  
                        u3001 08E8                          u2130 098F                          u2210 092C  
                        u2050 08C3                          u3010 08F0                          u2131 098E  
                        u2211 092B                          u2051 08C2                          u3011 08EF  
                        u3100 0B12                          u2220 0B5C                          u2300 09FF  
                        u3020 08FA                          u2125 0981                          u2205 0922  
                        u2221 0B5B                          u2301 09FE                          u3021 08F9  
                        u3110 0B29                          u2150 099F                          u2230 0B8E  
                        u3030 0C89                          u2310 0A05                          u2151 099E  
                        u2135 098B                          u2231 0B8D                          u3031 0C88  
                        u2311 0A04                          u2160 0903                          u2240 0B94  
                        u2080 08D7                          u2400 0D96                          u3040 0C9D  
                        u2320 0A13                          u3120 0BB2                          u3105 0B0E  
                        u2145 0995                          u2161 0902                          u2241 0B93  
                        u2081 08D6                          u2065 08C8                          u2401 0D95  
                        u3041 0C9C                          u2321 0A12                          u3121 0BB1  
                        u2090 0970                          u2250 0BA5                          u2410 0D9C  
                        u3050 0CAD                          u2330 0A19                          u3130 0BCA  
                        u3115 0B25                          u2091 096F                          u2251 0BA4  
                        u2075 08CD                          u2411 0D9B                          u3051 0CAC  
                        u2331 0A18                          u3131 0BC9                          u2260 0F3B  
                        u2180 0913                          u2340 0880                          u2500 02FC  
                        u2420 0ABC                          u3060 0CBD                          u3140 0BD3  
                        u3300 04A4                          u2261 0F3A                          u2181 0912  
                        u2341 087F                          u2501 02FB                          u2421 0ABB  
                        u3061 0CBC                          u3141 0BD2                          u3301 04A3  
                        u3070 0D2F                          u2270 0FFF                          u2190 091D  
                        u2350 0885                          u2510 0309                          u2430 0AC5  
                        u3150 0BD9                          u3310 04B9                          u3071 0D2E  
                        u2271 0FFE                          u2191 091C                          u2175 0907  
                        u2351 0884                          u2511 0308                          u2431 0AC4  
                        u3151 0BD8                          u3311 04B8                          u1800 0EAC  
                        u2600 0890                          u3080 086B                          u2520 0316  
                        u2440 0AF0                          u2360 0D3B                          u2280 09EB  
                        u3160 0BE9                          u3400 0553                          u3320 04E1  
                        u1801 0EAB                          u3081 0869                          u2521 0315  
                        u2441 0AEF                          u2361 0D3A                          u2281 09EA  
                        u3161 0BE8                          u3401 0552                          u3321 04E0  
                        u1810 0EBD                          u2610 089A                          u3090 086C  
                        u2530 0352                          u2450 0AFD                          u2370 0D44  
                        u2290 09F1                          u3410 055D                          u3330 04E8  
                        u1811 0EBC                          u2195 0919                          u2531 0351  
                        u2451 0AFC                          u2371 0D43                          u2291 09F0  
                        u3411 055C                          u3331 04E7                          u1820 0EDC  
                        u2700 0102                          u1900 0DA3                          u2620 0A71  
                        u2540 035F                          u2460 02A4                          u2380 0D60  
                        u3420 0583                          u3340 04F2                          u3260 0453  
                        u1821 0EDB                          u2701 0101                          u1901 0DA2  
                        u2541 035E                          u2461 02A3                          u2381 0D5F  
                        u3421 0582                          u3341 04F1                          u3261 0452  
                        u2710 0115                          u1910 0DB4                          u2630 0A79  
                        u2550 0398                          u2470 02AD                          u2390 0D83  
                        u3350 04FB                          u3270 0469                          u2711 0114  
                        u1911 0DB3                          u2631 0A78                          u2551 0397  
                        u2471 02AC                          u2391 0D82                          u3351 04FA  
                        u3271 0468                          u1840 0EEE                          u2720 013F  
                        u1920 0DC7                          u2640 0AA5                          u2560 03B2  
                        u2480 02E5                          u2800 0E5C                          u3360 051E  
                        u3280 047E                          u1841 0EED                          u2721 013E  
                        u1921 0DC6                          u2641 0AA4                          u2561 03B1  
                        u2481 02E4                          u2801 0E5B                          u3361 051D  
                        u3281 047D                          u2730 015E                          u2650 009B  
                        u1770 09C1                          u2490 02F2                          u2570 0A4C  
                        u2810 0E66                          u3370 0526                          u3290 048E  
                        u1835 0EE0                          u2731 015D                          u2651 009A  
                        u3507 09C6                          u1771 09BE                          u2491 02F1  
                        u2571 0A4B                          u2811 0E65                          u3371 0525  
                        u3291 048D                          u1860 0F07                          u2740 0163  
                        u1940 0DD9                          u1764 09B9                          u2900 0C29  
                        u2580 0A53                          u2820 0E70                          u3380 0530  
                        u1861 0F06                          u2741 0162                          u2725 013B  
                        u1941 0DD8                          u3517 09DA                          u1765 09B8  
                        u2901 0C28                          u2581 0A52                          u2821 0E6F  
                        u3381 052F                          u2670 00C7                          u1950 0DEB  
                        u1790 09D5                          u2910 0C48                          u2590 0A69  
                        u2830 0E8F                          u3390 054B                          u1855 0EEF  
                        u2671 00C6                          u1951 0DEA                          u1935 0DCB  
                        u1791 09D4                          u2911 0C47                          u2591 0A68  
                        u2831 0E8E                          u3391 054A                          u1880 0F1D  
                        u1784 09C3                          u2920 0C59                          u2840 0E93  
                        u2760 0E1F                          u1881 0F1C                          u1865 0F03  
                        u2921 0C58                          u2841 0E92                          u2761 0E1E  
                        u1890 0F22                          u2690 00F2                          u1970 0E00  
                        u2930 058E                          u2770 0E29                          u1891 0F21  
                        u1875 0F11                          u1971 0DFF                          u1955 0DE7  
                        u2931 058D                          u2771 0E28                          u1980 0E05  
                        u2940 05D2                          u2860 0EA4                          u2780 0E48  
                        u1981 0E04                          u1965 0DF4                          u2941 05D1  
                        u2925 0C55                          u2861 0EA2                          u2781 0E47  
                        u3477 0402                          u1990 08BC                          u2950 061A  
                        u2870 0EA5                          u2790 0E52                          u1991 08BB  
                        u2951 0619                          u3487 0939                          u2855 0E97  
                        u2791 0E51                          u2960 065F                          u2880 0C03  
                        u3497 09AE                          u2961 065E                          u2945 05CE  
                        u2881 0C02                          u2970 066B                          u2890 0C0E  
                        u2971 066A                          u2891 0C0D                          u2980 0677  
                        u2981 0676                          u2990 08E2                          u2991 08E1  
                        _SCS0 04C8                          _SCS1 04C9                          _SPEN 0CEF  
                        _TXEN 0CF5                          _SYNC 0CF4       __end_of_parse_hdop_x100 03F6  
                        _main 03F6                          _line 2790                          fsr0h 0005  
                        fsr1h 0007                          indf0 0000                          fsr0l 0004  
                        indf1 0001                          fsr1l 0006                          btemp 007E  
                        _work 2730                          start 0002       coord_to_microdeg@is_lat 007C  
               SUART_Lock@gie 0070               __end_of___aldiv 0F36               __end_of___aodiv 0193  
             __end_of___almod 0E19                         ?_main 0070                         STR_10 1055  
                       STR_11 1097                         STR_12 1097                         STR_13 1090  
                       STR_14 1090                         STR_15 10A5                         STR_16 109E  
                       _BRG16 0CFB                         STR_17 10A5                         STR_18 109E  
                       _IRCF0 04CB                         _IRCF1 04CC                         _IRCF2 04CD  
                       _IRCF3 04CE               __end_of___lwdiv 09A4               __end_of___lwmod 0931  
                 hex_nibble@c 0072               __end_of_avg_add 0D34           suart_print_uint16@i 0029  
         suart_print_uint16@v 0020                         status 0003           parse_hdop_x100@frac 0022  
                       wtemp0 007E                   ?_SUART_Init 0070                   ?_SUART_Lock 0070  
             __end_of_strncmp 0BF8               __end_of_strncpy 0A6A                  ?_internal_32 0070  
             __initialization 07DB                  __end_of_main 0589          suart_print_int32@buf 002A  
    __end_of_nmea_checksum_ok 0EA6                        ??_main 0068      coord_to_microdeg@min_int 0052  
                      _RC1REG 0199              ?_parse_hdop_x100 0076                        _SPBRGL 019B  
                      _TX1REG 019A                        u266lld 00BA                        u275lld 0181  
                      _SPLLEN 04CF                        u268lld 00E6                        ___omul 0A6A  
                   ??___aldiv 0078                     ??___aodiv 0079                     ??___almod 0078  
                      ___wmul 08BD                  split_csv@out 0072                     ??___lwdiv 007A  
                   ??___lwmod 0074              __end_of_initMain 0968              ??_SUART_Transmit 0071  
                   ??_avg_add 0020              __end_of_parse_u8 0B04                        main@nf 00D8  
     SUART_Transmit@DataValue 0072     parse_hdop_x100@frac_scale 0024                     ??_strncmp 0076  
                   ??_strncpy 0076          parse_hdop_x100@whole 0020       __end_of__initialization 07FD  
              __pcstackCOMMON 0070                  __pidataBANK0 0004                 _gps_read_line 0BF8  
                 parse_u8@out 0078                    __pbssBANK0 006A                    __pbssBANK1 00A0  
                  __pmaintext 03F6                       ?___omul 0020                       ?___wmul 0070  
                  _handle_gga 0C61           ___omul@multiplicand 0028             _suart_print_int32 0006  
              ?_gps_read_line 0070            ?_suart_print_int32 0026                       _PPSLOCK 0E0F  
            _SUART_Write_Char 0838           ??_suart_print_int32 007B              _SUART_Write_Text 08A0  
                  _hex_nibble 09E4                     ?_initMain 0070                  ??_SUART_Init 0070  
                ??_SUART_Lock 0070                     ?_parse_u8 0076             __end_of_avg_ready 086D  
           __end_of_avg_reset 08A0             __end_of_avg_print 029E                       ___aldiv 0EA6  
                     ___aodiv 008F                       ___almod 0D9E     __end_of_suart_print_int32 008F  
       suart_print_uint16@buf 0023                       ___lwdiv 0968                       ___lwmod 08FD  
   suart_print_microdeg@whole 003B    __end_of_suart_print_uint16 0BA6                 split_csv@maxf 0073  
           ?_nmea_checksum_ok 0073                       _avg_add 0CCA                       __ptext1 0BA6  
                     __ptext2 08DC                       __ptext3 0E19                       __ptext4 09E4  
                     __ptext5 0931                       __ptext6 085A                       __ptext7 0C61  
                     __ptext8 0A26                       __ptext9 0D34               SUART_Transmit@i 0074  
             SUART_Unlock@gie 0070            ??_nmea_checksum_ok 0075            __end_of_SUART_Init 0838  
          __end_of_SUART_Lock 084B              ___aldiv@dividend 0074                       _sum_lat 00A8  
                     _sum_lon 00A0                       main@lat 00D9                       main@lon 00DD  
                     clrloop0 086E                       _strncmp 0BA6                       _strncpy 0A26  
        end_of_initialization 07FD                ___omul@product 0071                    ??_initMain 0070  
     suart_print_microdeg@div 0043                    ??_parse_u8 0079             _EUSART_Initialize 0B04  
           _coord_to_microdeg 0589            ?_EUSART_Initialize 0026              ___aldiv@quotient 0022  
          ?_coord_to_microdeg 007A             __end_of_split_csv 0D9E               ??_gps_read_line 0074  
          EUSART_Initialize@x 0079                   ?_handle_gga 0026                    avg_add@lat 0070  
                  avg_add@lon 0074           ??_EUSART_Initialize 002A                     _PORTBbits 000D  
         ??_coord_to_microdeg 004A                 ?_SUART_Unlock 0070                    _quality_ok 08DC  
                   _TRISBbits 008D            coord_to_microdeg@i 005E                     _RXPPSbits 0E24  
                 ?_hex_nibble 0070     __end_of_EUSART_Initialize 0B54                    _suart_putc 083E  
                  _suart_puts 0852     __end_of_coord_to_microdeg 07DB                __end_of___omul 0AB6  
              __end_of___wmul 08DC                ??_SUART_Unlock 0070            parse_hdop_x100@out 0078  
        SUART_Write_Text@text 0075           start_initialization 07DB                 ??_EUSART_Read 0070  
           ___omul@multiplier 0020                      ??___omul 0070                      ??___wmul 0074  
    __end_of_SUART_Write_Char 083E      __end_of_SUART_Write_Text 08BD                   __pdataBANK0 006E  
                 __pbssBIGRAM 2730                   ?_quality_ok 0070                     ___latbits 0003  
               __pcstackBANK0 0020                 __pcstackBANK1 00D8              ___aodiv@dividend 0038  
__end_of_suart_print_microdeg 1000                   suart_putc@c 0076                   suart_puts@s 007A  
              handle_gga@fixq 0029                handle_gga@nmea 0026                handle_gga@sats 002A  
               _gga_hdop_x100 006E                   ?_suart_putc 0070                   ?_suart_puts 007A  
         __end_of_EUSART_Read 0889                 ??_internal_32 0070              ___lwdiv@dividend 0078  
                    ?___aldiv 0070                      ?___aodiv 0030                      ?___almod 0070  
            ___aodiv@quotient 0042                      ?___lwdiv 0076                      ?___lwmod 0070  
           SUART_Transmit@gie 0073                     _avg_count 006A                     _avg_ready 0863  
   EUSART_Initialize@baudrate 0026                     _avg_reset 0889                     _avg_print 0193  
            ___almod@dividend 0074                gps_read_line@c 0076                      ?_avg_add 0070  
              gps_read_line@n 0077             ??_parse_hdop_x100 0079            _suart_print_uint16 0B54  
            ___lwdiv@quotient 007B                      ?_strncmp 0070                      ?_strncpy 0070  
             ___aldiv@divisor 0070               ___aldiv@counter 0020                ___wmul@product 0074  
         ?_suart_print_uint16 0020                      _LATBbits 010D          __end_of_SUART_Unlock 0852  
                   clear_ram0 086D                      _PIR1bits 0011           __end_of_internal_32 0863  
            gps_read_line@buf 0070                  ??_handle_gga 007D                    ?_avg_ready 0070  
                  ?_avg_reset 0070                    ?_avg_print 0070          ??_suart_print_uint16 0022  
           ___wmul@multiplier 0070                     _split_csv 0D34              avg_print@lat_avg 004C  
            avg_print@lon_avg 0050                   _EUSART_Read 0879                  ??_hex_nibble 0072  
          __end_of_handle_gga 0CCA                    split_csv@n 0077                    split_csv@p 0078  
                  split_csv@s 0070                _avg_print$1058 0054          _suart_print_microdeg 0F36  
           SUART_Write_Char@a 0075         __end_of_gps_read_line 0C61               ___aodiv@divisor 0030  
           SUART_Write_Text@i 0078               ___aodiv@counter 0040                    ?_split_csv 0070  
                  _ANSELBbits 018D            __end_of_hex_nibble 0A26                     parse_u8@s 0076  
                   parse_u8@v 007B                      _gga_fixq 006D               ___lwdiv@divisor 0076  
                    _gga_seen 006B                      _gga_sats 006C                _SUART_Transmit 09A4  
             ___lwdiv@counter 007D                      __ptext10 0AB6                      __ptext11 029E  
                    __ptext20 08A0                      __ptext12 0BF8                      __ptext21 0B54  
                    __ptext13 0879                      __ptext30 0844                      __ptext22 08FD  
                    __ptext14 0589                      __ptext31 0D9E                      __ptext23 0968  
                    __ptext15 08BD                      __ptext32 0889                      __ptext24 0F36  
                    __ptext16 0A6A                      __ptext33 008F                      __ptext25 0006  
                    __ptext17 0863                      __ptext34 0CCA                      __ptext26 083E  
                    __ptext18 0193                      __ptext35 0832                      __ptext27 0838  
                    __ptext19 0852                      __ptext36 0B04                      __ptext28 09A4  
                    __ptext37 0EA6                      __ptext29 084B               ___almod@divisor 0070  
             ___almod@counter 0079                      _initMain 0931                      _parse_u8 0AB6  
                 _internal_32 085A                    _RB2PPSbits 0E9A                    _RC1STAbits 019D  
       ?_suart_print_microdeg 0037             ?_SUART_Write_Char 0070             ?_SUART_Write_Text 0075  
                 ??_avg_ready 0070                   ??_avg_reset 0070                   ??_avg_print 004A  
          ??_SUART_Write_Char 0075            ??_SUART_Write_Text 0077              parse_hdop_x100@s 0076  
                ??_quality_ok 0070        __end_of_SUART_Transmit 09E4                    _INTCONbits 000B  
              __pstringtext10 1097                __pstringtext11 109E                __pstringtext12 10A5  
              __pstringtext13 10AC                __pstringtext14 10B0                __pstringtext15 0000  
    suart_print_microdeg@frac 003F      suart_print_microdeg@udeg 0037                  handle_gga@hd 002B  
                handle_gga@nf 0028              _nmea_checksum_ok 0E19                  ??_suart_putc 0076  
                ??_suart_puts 007C              ___lwmod@dividend 0072                   _PPSLOCKbits 0E0F  
                   strncpy@cp 007A               _parse_hdop_x100 029E            __end_of_quality_ok 08FD  
         gps_read_line@maxlen 0072            nmea_checksum_ok@hi 0078            nmea_checksum_ok@cs 0077  
          nmea_checksum_ok@lo 007A                 __pstringtext1 1000                 __pstringtext2 102E  
               __pstringtext3 1055                 __pstringtext4 1062                 __pstringtext5 106E  
               __pstringtext6 1079                 __pstringtext7 1082                 __pstringtext8 1089  
               __pstringtext9 1090                   ??_split_csv 0074                  _SUART_Unlock 084B  
          __end_of_suart_putc 0844            __end_of_suart_puts 085A               ___lwmod@divisor 0070  
             ?_SUART_Transmit 0070               ___lwmod@counter 0075                      strncmp@l 0070  
                    strncmp@n 0074                      strncmp@r 0072                      strncpy@d 0070  
                    strncpy@n 0074                      strncpy@s 0072                  ___aldiv@sign 0021  
           nmea_checksum_ok@p 007C             nmea_checksum_ok@s 0073                  ___aodiv@sign 0041  
                ___almod@sign 007A                    _SUART_Init 0832                    _SUART_Lock 0844  
      ??_suart_print_microdeg 007C  
