

Microchip MPLAB XC8 Assembler V2.46 build 20240104201356 
                                                                                               Thu Dec 25 02:32:51 2025

Microchip MPLAB XC8 C Compiler v2.46 (Free license) build 20240104201356 Og1 
     1                           	processor	16F1718
     2                           	pagewidth 120
     3                           	opt	flic
     4                           	psect	stringtext1,global,class=STRCODE,delta=2,noexec
     5                           	psect	stringtext2,global,class=STRCODE,delta=2,noexec
     6                           	psect	cinit,global,class=CODE,merge=1,delta=2
     7                           	psect	cstackCOMMON,global,class=COMMON,space=1,delta=1,noexec
     8                           	psect	cstackBANK0,global,class=BANK0,space=1,delta=1,noexec
     9                           	psect	maintext,global,class=CODE,merge=1,split=1,delta=2
    10                           	psect	text1,local,class=CODE,merge=1,delta=2
    11                           	psect	text2,local,class=CODE,merge=1,delta=2
    12                           	psect	text3,local,class=CODE,merge=1,delta=2
    13                           	psect	text4,local,class=CODE,merge=1,delta=2
    14                           	psect	text5,local,class=CODE,merge=1,delta=2
    15                           	psect	text6,local,class=CODE,merge=1,delta=2,group=1
    16                           	psect	config,global,abs,ovrld,class=CONFIG,space=4,delta=2,noexec
    17                           	dabs	1,0x7E,2
    18     0000                     
    19                           ; Generated 07/09/2023 GMT
    20                           ; 
    21                           ; Copyright © 2023, Microchip Technology Inc. and its subsidiaries ("Microchip")
    22                           ; All rights reserved.
    23                           ; 
    24                           ; This software is developed by Microchip Technology Inc. and its subsidiaries ("Microch
      +                          ip").
    25                           ; 
    26                           ; Redistribution and use in source and binary forms, with or without modification, are
    27                           ; permitted provided that the following conditions are met:
    28                           ; 
    29                           ;     1. Redistributions of source code must retain the above copyright notice, this lis
      +                          t of
    30                           ;        conditions and the following disclaimer.
    31                           ; 
    32                           ;     2. Redistributions in binary form must reproduce the above copyright notice, this 
      +                          list
    33                           ;        of conditions and the following disclaimer in the documentation and/or other
    34                           ;        materials provided with the distribution. Publication is not required when
    35                           ;        this file is used in an embedded application.
    36                           ; 
    37                           ;     3. Microchip's name may not be used to endorse or promote products derived from th
      +                          is
    38                           ;        software without specific prior written permission.
    39                           ; 
    40                           ; THIS SOFTWARE IS PROVIDED BY MICROCHIP "AS IS" AND ANY EXPRESS OR IMPLIED WARRANTIES,
    41                           ; INCLUDING, BUT NOT LIMITED TO, THE IMPLIED WARRANTIES OF MERCHANTABILITY AND FITNESS F
      +                          OR
    42                           ; PURPOSE ARE DISCLAIMED.  IN NO EVENT SHALL MICROCHIP BE LIABLE FOR ANY DIRECT, INDIREC
      +                          T,
    43                           ; INCIDENTAL, SPECIAL, EXEMPLARY, OR CONSEQUENTIAL DAMAGES (INCLUDING BUT NOT LIMITED TO
    44                           ; PROCUREMENT OF SUBSTITUTE GOODS OR SERVICES; LOSS OF USE, DATA OR PROFITS; OR BUSINESS
    45                           ; INTERRUPTION) HOWSOEVER CAUSED AND ON ANY THEORY OF LIABILITY, WHETHER IN CONTRACT, ST
      +                          RICT
    46                           ; LIABILITY, OR TORT (INCLUDING NEGLIGENCE OR OTHERWISE) ARISING IN ANY WAY OUT OF THE U
      +                          SE OF
    47                           ; THIS SOFTWARE, EVEN IF ADVISED OF THE POSSIBILITY OF SUCH DAMAGE.
    48                           ; 
    49                           ; 
    50                           ; Code-generator required, PIC16F1718 Definitions
    51                           ; 
    52                           ; SFR Addresses
    53     0000                     	;# 
    54     0001                     	;# 
    55     0002                     	;# 
    56     0003                     	;# 
    57     0004                     	;# 
    58     0005                     	;# 
    59     0006                     	;# 
    60     0007                     	;# 
    61     0008                     	;# 
    62     0009                     	;# 
    63     000A                     	;# 
    64     000B                     	;# 
    65     000C                     	;# 
    66     000D                     	;# 
    67     000E                     	;# 
    68     0010                     	;# 
    69     0011                     	;# 
    70     0012                     	;# 
    71     0013                     	;# 
    72     0015                     	;# 
    73     0016                     	;# 
    74     0016                     	;# 
    75     0017                     	;# 
    76     0018                     	;# 
    77     0019                     	;# 
    78     001A                     	;# 
    79     001B                     	;# 
    80     001C                     	;# 
    81     008C                     	;# 
    82     008D                     	;# 
    83     008E                     	;# 
    84     0090                     	;# 
    85     0091                     	;# 
    86     0092                     	;# 
    87     0093                     	;# 
    88     0095                     	;# 
    89     0096                     	;# 
    90     0097                     	;# 
    91     0098                     	;# 
    92     0099                     	;# 
    93     009A                     	;# 
    94     009B                     	;# 
    95     009B                     	;# 
    96     009C                     	;# 
    97     009D                     	;# 
    98     009E                     	;# 
    99     009F                     	;# 
   100     010C                     	;# 
   101     010D                     	;# 
   102     010E                     	;# 
   103     0111                     	;# 
   104     0112                     	;# 
   105     0113                     	;# 
   106     0114                     	;# 
   107     0115                     	;# 
   108     0116                     	;# 
   109     0117                     	;# 
   110     0118                     	;# 
   111     0119                     	;# 
   112     011A                     	;# 
   113     011B                     	;# 
   114     011B                     	;# 
   115     011C                     	;# 
   116     018C                     	;# 
   117     018D                     	;# 
   118     018E                     	;# 
   119     0191                     	;# 
   120     0191                     	;# 
   121     0192                     	;# 
   122     0193                     	;# 
   123     0193                     	;# 
   124     0194                     	;# 
   125     0195                     	;# 
   126     0196                     	;# 
   127     0197                     	;# 
   128     0199                     	;# 
   129     0199                     	;# 
   130     0199                     	;# 
   131     019A                     	;# 
   132     019A                     	;# 
   133     019A                     	;# 
   134     019B                     	;# 
   135     019B                     	;# 
   136     019B                     	;# 
   137     019B                     	;# 
   138     019B                     	;# 
   139     019C                     	;# 
   140     019C                     	;# 
   141     019C                     	;# 
   142     019D                     	;# 
   143     019D                     	;# 
   144     019D                     	;# 
   145     019E                     	;# 
   146     019E                     	;# 
   147     019E                     	;# 
   148     019F                     	;# 
   149     019F                     	;# 
   150     019F                     	;# 
   151     019F                     	;# 
   152     019F                     	;# 
   153     020C                     	;# 
   154     020D                     	;# 
   155     020E                     	;# 
   156     0210                     	;# 
   157     0211                     	;# 
   158     0211                     	;# 
   159     0212                     	;# 
   160     0212                     	;# 
   161     0213                     	;# 
   162     0213                     	;# 
   163     0214                     	;# 
   164     0214                     	;# 
   165     0215                     	;# 
   166     0215                     	;# 
   167     0215                     	;# 
   168     0215                     	;# 
   169     0216                     	;# 
   170     0216                     	;# 
   171     0217                     	;# 
   172     0217                     	;# 
   173     028C                     	;# 
   174     028D                     	;# 
   175     028E                     	;# 
   176     0291                     	;# 
   177     0291                     	;# 
   178     0292                     	;# 
   179     0293                     	;# 
   180     0293                     	;# 
   181     0298                     	;# 
   182     0298                     	;# 
   183     0299                     	;# 
   184     029A                     	;# 
   185     029A                     	;# 
   186     029E                     	;# 
   187     030C                     	;# 
   188     030D                     	;# 
   189     030E                     	;# 
   190     038C                     	;# 
   191     038D                     	;# 
   192     038E                     	;# 
   193     0390                     	;# 
   194     0391                     	;# 
   195     0392                     	;# 
   196     0393                     	;# 
   197     0394                     	;# 
   198     0395                     	;# 
   199     0396                     	;# 
   200     0397                     	;# 
   201     0398                     	;# 
   202     0399                     	;# 
   203     039D                     	;# 
   204     039E                     	;# 
   205     039F                     	;# 
   206     0415                     	;# 
   207     0416                     	;# 
   208     0417                     	;# 
   209     041C                     	;# 
   210     041D                     	;# 
   211     041E                     	;# 
   212     0498                     	;# 
   213     0498                     	;# 
   214     0499                     	;# 
   215     049A                     	;# 
   216     049B                     	;# 
   217     049B                     	;# 
   218     049C                     	;# 
   219     049D                     	;# 
   220     049E                     	;# 
   221     049F                     	;# 
   222     0511                     	;# 
   223     0515                     	;# 
   224     0617                     	;# 
   225     0618                     	;# 
   226     0619                     	;# 
   227     0619                     	;# 
   228     061A                     	;# 
   229     061B                     	;# 
   230     061C                     	;# 
   231     061C                     	;# 
   232     0691                     	;# 
   233     0692                     	;# 
   234     0693                     	;# 
   235     0694                     	;# 
   236     0695                     	;# 
   237     0696                     	;# 
   238     0697                     	;# 
   239     0698                     	;# 
   240     0699                     	;# 
   241     069A                     	;# 
   242     069B                     	;# 
   243     069C                     	;# 
   244     069D                     	;# 
   245     069E                     	;# 
   246     069F                     	;# 
   247     0E0F                     	;# 
   248     0E10                     	;# 
   249     0E11                     	;# 
   250     0E12                     	;# 
   251     0E13                     	;# 
   252     0E14                     	;# 
   253     0E15                     	;# 
   254     0E17                     	;# 
   255     0E20                     	;# 
   256     0E21                     	;# 
   257     0E22                     	;# 
   258     0E24                     	;# 
   259     0E25                     	;# 
   260     0E28                     	;# 
   261     0E29                     	;# 
   262     0E2A                     	;# 
   263     0E2B                     	;# 
   264     0E90                     	;# 
   265     0E91                     	;# 
   266     0E92                     	;# 
   267     0E93                     	;# 
   268     0E94                     	;# 
   269     0E95                     	;# 
   270     0E96                     	;# 
   271     0E97                     	;# 
   272     0E98                     	;# 
   273     0E99                     	;# 
   274     0E9A                     	;# 
   275     0E9B                     	;# 
   276     0E9C                     	;# 
   277     0E9D                     	;# 
   278     0E9E                     	;# 
   279     0E9F                     	;# 
   280     0EA0                     	;# 
   281     0EA1                     	;# 
   282     0EA2                     	;# 
   283     0EA3                     	;# 
   284     0EA4                     	;# 
   285     0EA5                     	;# 
   286     0EA6                     	;# 
   287     0EA7                     	;# 
   288     0F0F                     	;# 
   289     0F10                     	;# 
   290     0F11                     	;# 
   291     0F12                     	;# 
   292     0F13                     	;# 
   293     0F14                     	;# 
   294     0F15                     	;# 
   295     0F16                     	;# 
   296     0F17                     	;# 
   297     0F18                     	;# 
   298     0F19                     	;# 
   299     0F1A                     	;# 
   300     0F1B                     	;# 
   301     0F1C                     	;# 
   302     0F1D                     	;# 
   303     0F1E                     	;# 
   304     0F1F                     	;# 
   305     0F20                     	;# 
   306     0F21                     	;# 
   307     0F22                     	;# 
   308     0F23                     	;# 
   309     0F24                     	;# 
   310     0F25                     	;# 
   311     0F26                     	;# 
   312     0F27                     	;# 
   313     0F28                     	;# 
   314     0F29                     	;# 
   315     0F2A                     	;# 
   316     0F2B                     	;# 
   317     0F2C                     	;# 
   318     0F2D                     	;# 
   319     0F2E                     	;# 
   320     0F2F                     	;# 
   321     0F30                     	;# 
   322     0F31                     	;# 
   323     0F32                     	;# 
   324     0F33                     	;# 
   325     0F34                     	;# 
   326     0F35                     	;# 
   327     0F36                     	;# 
   328     0F37                     	;# 
   329     0FE4                     	;# 
   330     0FE5                     	;# 
   331     0FE6                     	;# 
   332     0FE7                     	;# 
   333     0FE8                     	;# 
   334     0FE9                     	;# 
   335     0FEA                     	;# 
   336     0FEB                     	;# 
   337     0FED                     	;# 
   338     0FEE                     	;# 
   339     0FEF                     	;# 
   340     0000                     	;# 
   341     0001                     	;# 
   342     0002                     	;# 
   343     0003                     	;# 
   344     0004                     	;# 
   345     0005                     	;# 
   346     0006                     	;# 
   347     0007                     	;# 
   348     0008                     	;# 
   349     0009                     	;# 
   350     000A                     	;# 
   351     000B                     	;# 
   352     000C                     	;# 
   353     000D                     	;# 
   354     000E                     	;# 
   355     0010                     	;# 
   356     0011                     	;# 
   357     0012                     	;# 
   358     0013                     	;# 
   359     0015                     	;# 
   360     0016                     	;# 
   361     0016                     	;# 
   362     0017                     	;# 
   363     0018                     	;# 
   364     0019                     	;# 
   365     001A                     	;# 
   366     001B                     	;# 
   367     001C                     	;# 
   368     008C                     	;# 
   369     008D                     	;# 
   370     008E                     	;# 
   371     0090                     	;# 
   372     0091                     	;# 
   373     0092                     	;# 
   374     0093                     	;# 
   375     0095                     	;# 
   376     0096                     	;# 
   377     0097                     	;# 
   378     0098                     	;# 
   379     0099                     	;# 
   380     009A                     	;# 
   381     009B                     	;# 
   382     009B                     	;# 
   383     009C                     	;# 
   384     009D                     	;# 
   385     009E                     	;# 
   386     009F                     	;# 
   387     010C                     	;# 
   388     010D                     	;# 
   389     010E                     	;# 
   390     0111                     	;# 
   391     0112                     	;# 
   392     0113                     	;# 
   393     0114                     	;# 
   394     0115                     	;# 
   395     0116                     	;# 
   396     0117                     	;# 
   397     0118                     	;# 
   398     0119                     	;# 
   399     011A                     	;# 
   400     011B                     	;# 
   401     011B                     	;# 
   402     011C                     	;# 
   403     018C                     	;# 
   404     018D                     	;# 
   405     018E                     	;# 
   406     0191                     	;# 
   407     0191                     	;# 
   408     0192                     	;# 
   409     0193                     	;# 
   410     0193                     	;# 
   411     0194                     	;# 
   412     0195                     	;# 
   413     0196                     	;# 
   414     0197                     	;# 
   415     0199                     	;# 
   416     0199                     	;# 
   417     0199                     	;# 
   418     019A                     	;# 
   419     019A                     	;# 
   420     019A                     	;# 
   421     019B                     	;# 
   422     019B                     	;# 
   423     019B                     	;# 
   424     019B                     	;# 
   425     019B                     	;# 
   426     019C                     	;# 
   427     019C                     	;# 
   428     019C                     	;# 
   429     019D                     	;# 
   430     019D                     	;# 
   431     019D                     	;# 
   432     019E                     	;# 
   433     019E                     	;# 
   434     019E                     	;# 
   435     019F                     	;# 
   436     019F                     	;# 
   437     019F                     	;# 
   438     019F                     	;# 
   439     019F                     	;# 
   440     020C                     	;# 
   441     020D                     	;# 
   442     020E                     	;# 
   443     0210                     	;# 
   444     0211                     	;# 
   445     0211                     	;# 
   446     0212                     	;# 
   447     0212                     	;# 
   448     0213                     	;# 
   449     0213                     	;# 
   450     0214                     	;# 
   451     0214                     	;# 
   452     0215                     	;# 
   453     0215                     	;# 
   454     0215                     	;# 
   455     0215                     	;# 
   456     0216                     	;# 
   457     0216                     	;# 
   458     0217                     	;# 
   459     0217                     	;# 
   460     028C                     	;# 
   461     028D                     	;# 
   462     028E                     	;# 
   463     0291                     	;# 
   464     0291                     	;# 
   465     0292                     	;# 
   466     0293                     	;# 
   467     0293                     	;# 
   468     0298                     	;# 
   469     0298                     	;# 
   470     0299                     	;# 
   471     029A                     	;# 
   472     029A                     	;# 
   473     029E                     	;# 
   474     030C                     	;# 
   475     030D                     	;# 
   476     030E                     	;# 
   477     038C                     	;# 
   478     038D                     	;# 
   479     038E                     	;# 
   480     0390                     	;# 
   481     0391                     	;# 
   482     0392                     	;# 
   483     0393                     	;# 
   484     0394                     	;# 
   485     0395                     	;# 
   486     0396                     	;# 
   487     0397                     	;# 
   488     0398                     	;# 
   489     0399                     	;# 
   490     039D                     	;# 
   491     039E                     	;# 
   492     039F                     	;# 
   493     0415                     	;# 
   494     0416                     	;# 
   495     0417                     	;# 
   496     041C                     	;# 
   497     041D                     	;# 
   498     041E                     	;# 
   499     0498                     	;# 
   500     0498                     	;# 
   501     0499                     	;# 
   502     049A                     	;# 
   503     049B                     	;# 
   504     049B                     	;# 
   505     049C                     	;# 
   506     049D                     	;# 
   507     049E                     	;# 
   508     049F                     	;# 
   509     0511                     	;# 
   510     0515                     	;# 
   511     0617                     	;# 
   512     0618                     	;# 
   513     0619                     	;# 
   514     0619                     	;# 
   515     061A                     	;# 
   516     061B                     	;# 
   517     061C                     	;# 
   518     061C                     	;# 
   519     0691                     	;# 
   520     0692                     	;# 
   521     0693                     	;# 
   522     0694                     	;# 
   523     0695                     	;# 
   524     0696                     	;# 
   525     0697                     	;# 
   526     0698                     	;# 
   527     0699                     	;# 
   528     069A                     	;# 
   529     069B                     	;# 
   530     069C                     	;# 
   531     069D                     	;# 
   532     069E                     	;# 
   533     069F                     	;# 
   534     0E0F                     	;# 
   535     0E10                     	;# 
   536     0E11                     	;# 
   537     0E12                     	;# 
   538     0E13                     	;# 
   539     0E14                     	;# 
   540     0E15                     	;# 
   541     0E17                     	;# 
   542     0E20                     	;# 
   543     0E21                     	;# 
   544     0E22                     	;# 
   545     0E24                     	;# 
   546     0E25                     	;# 
   547     0E28                     	;# 
   548     0E29                     	;# 
   549     0E2A                     	;# 
   550     0E2B                     	;# 
   551     0E90                     	;# 
   552     0E91                     	;# 
   553     0E92                     	;# 
   554     0E93                     	;# 
   555     0E94                     	;# 
   556     0E95                     	;# 
   557     0E96                     	;# 
   558     0E97                     	;# 
   559     0E98                     	;# 
   560     0E99                     	;# 
   561     0E9A                     	;# 
   562     0E9B                     	;# 
   563     0E9C                     	;# 
   564     0E9D                     	;# 
   565     0E9E                     	;# 
   566     0E9F                     	;# 
   567     0EA0                     	;# 
   568     0EA1                     	;# 
   569     0EA2                     	;# 
   570     0EA3                     	;# 
   571     0EA4                     	;# 
   572     0EA5                     	;# 
   573     0EA6                     	;# 
   574     0EA7                     	;# 
   575     0F0F                     	;# 
   576     0F10                     	;# 
   577     0F11                     	;# 
   578     0F12                     	;# 
   579     0F13                     	;# 
   580     0F14                     	;# 
   581     0F15                     	;# 
   582     0F16                     	;# 
   583     0F17                     	;# 
   584     0F18                     	;# 
   585     0F19                     	;# 
   586     0F1A                     	;# 
   587     0F1B                     	;# 
   588     0F1C                     	;# 
   589     0F1D                     	;# 
   590     0F1E                     	;# 
   591     0F1F                     	;# 
   592     0F20                     	;# 
   593     0F21                     	;# 
   594     0F22                     	;# 
   595     0F23                     	;# 
   596     0F24                     	;# 
   597     0F25                     	;# 
   598     0F26                     	;# 
   599     0F27                     	;# 
   600     0F28                     	;# 
   601     0F29                     	;# 
   602     0F2A                     	;# 
   603     0F2B                     	;# 
   604     0F2C                     	;# 
   605     0F2D                     	;# 
   606     0F2E                     	;# 
   607     0F2F                     	;# 
   608     0F30                     	;# 
   609     0F31                     	;# 
   610     0F32                     	;# 
   611     0F33                     	;# 
   612     0F34                     	;# 
   613     0F35                     	;# 
   614     0F36                     	;# 
   615     0F37                     	;# 
   616     0FE4                     	;# 
   617     0FE5                     	;# 
   618     0FE6                     	;# 
   619     0FE7                     	;# 
   620     0FE8                     	;# 
   621     0FE9                     	;# 
   622     0FEA                     	;# 
   623     0FEB                     	;# 
   624     0FED                     	;# 
   625     0FEE                     	;# 
   626     0FEF                     	;# 
   627     0000                     	;# 
   628     0001                     	;# 
   629     0002                     	;# 
   630     0003                     	;# 
   631     0004                     	;# 
   632     0005                     	;# 
   633     0006                     	;# 
   634     0007                     	;# 
   635     0008                     	;# 
   636     0009                     	;# 
   637     000A                     	;# 
   638     000B                     	;# 
   639     000C                     	;# 
   640     000D                     	;# 
   641     000E                     	;# 
   642     0010                     	;# 
   643     0011                     	;# 
   644     0012                     	;# 
   645     0013                     	;# 
   646     0015                     	;# 
   647     0016                     	;# 
   648     0016                     	;# 
   649     0017                     	;# 
   650     0018                     	;# 
   651     0019                     	;# 
   652     001A                     	;# 
   653     001B                     	;# 
   654     001C                     	;# 
   655     008C                     	;# 
   656     008D                     	;# 
   657     008E                     	;# 
   658     0090                     	;# 
   659     0091                     	;# 
   660     0092                     	;# 
   661     0093                     	;# 
   662     0095                     	;# 
   663     0096                     	;# 
   664     0097                     	;# 
   665     0098                     	;# 
   666     0099                     	;# 
   667     009A                     	;# 
   668     009B                     	;# 
   669     009B                     	;# 
   670     009C                     	;# 
   671     009D                     	;# 
   672     009E                     	;# 
   673     009F                     	;# 
   674     010C                     	;# 
   675     010D                     	;# 
   676     010E                     	;# 
   677     0111                     	;# 
   678     0112                     	;# 
   679     0113                     	;# 
   680     0114                     	;# 
   681     0115                     	;# 
   682     0116                     	;# 
   683     0117                     	;# 
   684     0118                     	;# 
   685     0119                     	;# 
   686     011A                     	;# 
   687     011B                     	;# 
   688     011B                     	;# 
   689     011C                     	;# 
   690     018C                     	;# 
   691     018D                     	;# 
   692     018E                     	;# 
   693     0191                     	;# 
   694     0191                     	;# 
   695     0192                     	;# 
   696     0193                     	;# 
   697     0193                     	;# 
   698     0194                     	;# 
   699     0195                     	;# 
   700     0196                     	;# 
   701     0197                     	;# 
   702     0199                     	;# 
   703     0199                     	;# 
   704     0199                     	;# 
   705     019A                     	;# 
   706     019A                     	;# 
   707     019A                     	;# 
   708     019B                     	;# 
   709     019B                     	;# 
   710     019B                     	;# 
   711     019B                     	;# 
   712     019B                     	;# 
   713     019C                     	;# 
   714     019C                     	;# 
   715     019C                     	;# 
   716     019D                     	;# 
   717     019D                     	;# 
   718     019D                     	;# 
   719     019E                     	;# 
   720     019E                     	;# 
   721     019E                     	;# 
   722     019F                     	;# 
   723     019F                     	;# 
   724     019F                     	;# 
   725     019F                     	;# 
   726     019F                     	;# 
   727     020C                     	;# 
   728     020D                     	;# 
   729     020E                     	;# 
   730     0210                     	;# 
   731     0211                     	;# 
   732     0211                     	;# 
   733     0212                     	;# 
   734     0212                     	;# 
   735     0213                     	;# 
   736     0213                     	;# 
   737     0214                     	;# 
   738     0214                     	;# 
   739     0215                     	;# 
   740     0215                     	;# 
   741     0215                     	;# 
   742     0215                     	;# 
   743     0216                     	;# 
   744     0216                     	;# 
   745     0217                     	;# 
   746     0217                     	;# 
   747     028C                     	;# 
   748     028D                     	;# 
   749     028E                     	;# 
   750     0291                     	;# 
   751     0291                     	;# 
   752     0292                     	;# 
   753     0293                     	;# 
   754     0293                     	;# 
   755     0298                     	;# 
   756     0298                     	;# 
   757     0299                     	;# 
   758     029A                     	;# 
   759     029A                     	;# 
   760     029E                     	;# 
   761     030C                     	;# 
   762     030D                     	;# 
   763     030E                     	;# 
   764     038C                     	;# 
   765     038D                     	;# 
   766     038E                     	;# 
   767     0390                     	;# 
   768     0391                     	;# 
   769     0392                     	;# 
   770     0393                     	;# 
   771     0394                     	;# 
   772     0395                     	;# 
   773     0396                     	;# 
   774     0397                     	;# 
   775     0398                     	;# 
   776     0399                     	;# 
   777     039D                     	;# 
   778     039E                     	;# 
   779     039F                     	;# 
   780     0415                     	;# 
   781     0416                     	;# 
   782     0417                     	;# 
   783     041C                     	;# 
   784     041D                     	;# 
   785     041E                     	;# 
   786     0498                     	;# 
   787     0498                     	;# 
   788     0499                     	;# 
   789     049A                     	;# 
   790     049B                     	;# 
   791     049B                     	;# 
   792     049C                     	;# 
   793     049D                     	;# 
   794     049E                     	;# 
   795     049F                     	;# 
   796     0511                     	;# 
   797     0515                     	;# 
   798     0617                     	;# 
   799     0618                     	;# 
   800     0619                     	;# 
   801     0619                     	;# 
   802     061A                     	;# 
   803     061B                     	;# 
   804     061C                     	;# 
   805     061C                     	;# 
   806     0691                     	;# 
   807     0692                     	;# 
   808     0693                     	;# 
   809     0694                     	;# 
   810     0695                     	;# 
   811     0696                     	;# 
   812     0697                     	;# 
   813     0698                     	;# 
   814     0699                     	;# 
   815     069A                     	;# 
   816     069B                     	;# 
   817     069C                     	;# 
   818     069D                     	;# 
   819     069E                     	;# 
   820     069F                     	;# 
   821     0E0F                     	;# 
   822     0E10                     	;# 
   823     0E11                     	;# 
   824     0E12                     	;# 
   825     0E13                     	;# 
   826     0E14                     	;# 
   827     0E15                     	;# 
   828     0E17                     	;# 
   829     0E20                     	;# 
   830     0E21                     	;# 
   831     0E22                     	;# 
   832     0E24                     	;# 
   833     0E25                     	;# 
   834     0E28                     	;# 
   835     0E29                     	;# 
   836     0E2A                     	;# 
   837     0E2B                     	;# 
   838     0E90                     	;# 
   839     0E91                     	;# 
   840     0E92                     	;# 
   841     0E93                     	;# 
   842     0E94                     	;# 
   843     0E95                     	;# 
   844     0E96                     	;# 
   845     0E97                     	;# 
   846     0E98                     	;# 
   847     0E99                     	;# 
   848     0E9A                     	;# 
   849     0E9B                     	;# 
   850     0E9C                     	;# 
   851     0E9D                     	;# 
   852     0E9E                     	;# 
   853     0E9F                     	;# 
   854     0EA0                     	;# 
   855     0EA1                     	;# 
   856     0EA2                     	;# 
   857     0EA3                     	;# 
   858     0EA4                     	;# 
   859     0EA5                     	;# 
   860     0EA6                     	;# 
   861     0EA7                     	;# 
   862     0F0F                     	;# 
   863     0F10                     	;# 
   864     0F11                     	;# 
   865     0F12                     	;# 
   866     0F13                     	;# 
   867     0F14                     	;# 
   868     0F15                     	;# 
   869     0F16                     	;# 
   870     0F17                     	;# 
   871     0F18                     	;# 
   872     0F19                     	;# 
   873     0F1A                     	;# 
   874     0F1B                     	;# 
   875     0F1C                     	;# 
   876     0F1D                     	;# 
   877     0F1E                     	;# 
   878     0F1F                     	;# 
   879     0F20                     	;# 
   880     0F21                     	;# 
   881     0F22                     	;# 
   882     0F23                     	;# 
   883     0F24                     	;# 
   884     0F25                     	;# 
   885     0F26                     	;# 
   886     0F27                     	;# 
   887     0F28                     	;# 
   888     0F29                     	;# 
   889     0F2A                     	;# 
   890     0F2B                     	;# 
   891     0F2C                     	;# 
   892     0F2D                     	;# 
   893     0F2E                     	;# 
   894     0F2F                     	;# 
   895     0F30                     	;# 
   896     0F31                     	;# 
   897     0F32                     	;# 
   898     0F33                     	;# 
   899     0F34                     	;# 
   900     0F35                     	;# 
   901     0F36                     	;# 
   902     0F37                     	;# 
   903     0FE4                     	;# 
   904     0FE5                     	;# 
   905     0FE6                     	;# 
   906     0FE7                     	;# 
   907     0FE8                     	;# 
   908     0FE9                     	;# 
   909     0FEA                     	;# 
   910     0FEB                     	;# 
   911     0FED                     	;# 
   912     0FEE                     	;# 
   913     0FEF                     	;# 
   914     0011                     _PIR1bits	set	17
   915     008D                     _TRISBbits	set	141
   916     04CF                     _SPLLEN	set	1231
   917     04CE                     _IRCF3	set	1230
   918     04CD                     _IRCF2	set	1229
   919     04CC                     _IRCF1	set	1228
   920     04CB                     _IRCF0	set	1227
   921     04C9                     _SCS1	set	1225
   922     04C8                     _SCS0	set	1224
   923     019A                     _TX1REG	set	410
   924     0199                     _RC1REG	set	409
   925     019D                     _RC1STAbits	set	413
   926     019B                     _SPBRGL	set	411
   927     018D                     _ANSELBbits	set	397
   928     0CF5                     _TXEN	set	3317
   929     0CEC                     _CREN	set	3308
   930     0CEF                     _SPEN	set	3311
   931     0CF4                     _SYNC	set	3316
   932     0CFB                     _BRG16	set	3323
   933     0CF2                     _BRGH	set	3314
   934     0E24                     _RXPPSbits	set	3620
   935     0E0F                     _PPSLOCKbits	set	3599
   936     0E0F                     _PPSLOCK	set	3599
   937     0E9A                     _RB2PPSbits	set	3738
   938                           
   939                           	psect	stringtext1
   940     0800                     __pstringtext1:
   941     0800                     STR_1:
   942     0800  3448               	retlw	72	;'H'
   943     0801  3465               	retlw	101	;'e'
   944     0802  346C               	retlw	108	;'l'
   945     0803  346C               	retlw	108	;'l'
   946     0804  346F               	retlw	111	;'o'
   947     0805  3420               	retlw	32	;' '
   948     0806  3457               	retlw	87	;'W'
   949     0807  346F               	retlw	111	;'o'
   950     0808  3472               	retlw	114	;'r'
   951     0809  346C               	retlw	108	;'l'
   952     080A  3464               	retlw	100	;'d'
   953     080B  340A               	retlw	10
   954     080C  3400               	retlw	0
   955                           
   956                           	psect	stringtext2
   957     0000                     __pstringtext2:
   958                           
   959                           	psect	cinit
   960     07FD                     start_initialization:	
   961                           ; #config settings
   962                           
   963     07FD                     __initialization:
   964     07FD                     end_of_initialization:	
   965                           ;End of C runtime variable initialization code
   966                           
   967     07FD                     __end_of__initialization:
   968     07FD  0020               	movlb	0
   969     07FE  3186  2ECF         	ljmp	_main	;jump to C main() function
   970                           
   971                           	psect	cstackCOMMON
   972     0070                     __pcstackCOMMON:
   973     0070                     ?_internal_32:
   974     0070                     ??_internal_32:	
   975                           ; 1 bytes @ 0x0
   976                           
   977     0070                     ?_initMain:	
   978                           ; 1 bytes @ 0x0
   979                           
   980     0070                     ??_initMain:	
   981                           ; 1 bytes @ 0x0
   982                           
   983     0070                     ?_main:	
   984                           ; 1 bytes @ 0x0
   985                           
   986     0070                     ?_EUSART_Write:	
   987                           ; 1 bytes @ 0x0
   988                           
   989     0070                     ??_EUSART_Write:	
   990                           ; 1 bytes @ 0x0
   991                           
   992     0070                     ?___aldiv:	
   993                           ; 1 bytes @ 0x0
   994                           
   995     0070                     EUSART_Write@txData:	
   996                           ; 4 bytes @ 0x0
   997                           
   998     0070                     ___aldiv@divisor:	
   999                           ; 1 bytes @ 0x0
  1000                           
  1001                           
  1002                           ; 4 bytes @ 0x0
  1003     0070                     	ds	1
  1004     0071                     ?_EUSART_Write_Text:
  1005     0071                     EUSART_Write_Text@text:	
  1006                           ; 1 bytes @ 0x1
  1007                           
  1008                           
  1009                           ; 2 bytes @ 0x1
  1010     0071                     	ds	2
  1011     0073                     ??_EUSART_Write_Text:
  1012                           
  1013                           ; 1 bytes @ 0x3
  1014     0073                     	ds	1
  1015     0074                     EUSART_Write_Text@i:
  1016     0074                     ___aldiv@dividend:	
  1017                           ; 2 bytes @ 0x4
  1018                           
  1019                           
  1020                           ; 4 bytes @ 0x4
  1021     0074                     	ds	4
  1022     0078                     ??___aldiv:
  1023                           
  1024                           ; 1 bytes @ 0x8
  1025     0078                     	ds	1
  1026     0079                     EUSART_Initialize@x:
  1027                           
  1028                           ; 2 bytes @ 0x9
  1029     0079                     	ds	2
  1030     007B                     ??_main:
  1031                           
  1032                           ; 1 bytes @ 0xB
  1033     007B                     	ds	2
  1034                           
  1035                           	psect	cstackBANK0
  1036     0020                     __pcstackBANK0:
  1037     0020                     ___aldiv@counter:
  1038                           
  1039                           ; 1 bytes @ 0x0
  1040     0020                     	ds	1
  1041     0021                     ___aldiv@sign:
  1042                           
  1043                           ; 1 bytes @ 0x1
  1044     0021                     	ds	1
  1045     0022                     ___aldiv@quotient:
  1046                           
  1047                           ; 4 bytes @ 0x2
  1048     0022                     	ds	4
  1049     0026                     ?_EUSART_Initialize:
  1050     0026                     EUSART_Initialize@baudrate:	
  1051                           ; 1 bytes @ 0x6
  1052                           
  1053                           
  1054                           ; 4 bytes @ 0x6
  1055     0026                     	ds	4
  1056     002A                     ??_EUSART_Initialize:
  1057                           
  1058                           ; 1 bytes @ 0xA
  1059     002A                     	ds	12
  1060                           
  1061                           	psect	maintext
  1062     06CF                     __pmaintext:	
  1063 ;;
  1064 ;;Main: autosize = 0, tempsize = 2, incstack = 0, save=0
  1065 ;;
  1066 ;; *************** function _main *****************
  1067 ;; Defined at:
  1068 ;;		line 75 in file "main.c"
  1069 ;; Parameters:    Size  Location     Type
  1070 ;;		None
  1071 ;; Auto vars:     Size  Location     Type
  1072 ;;		None
  1073 ;; Return value:  Size  Location     Type
  1074 ;;                  1    wreg      void 
  1075 ;; Registers used:
  1076 ;;		wreg, fsr0l, fsr0h, status,2, status,0, pclath, cstack
  1077 ;; Tracked objects:
  1078 ;;		On entry : B1F/0
  1079 ;;		On exit  : 0/0
  1080 ;;		Unchanged: 0/0
  1081 ;; Data sizes:     COMMON   BANK0   BANK1   BANK2   BANK3   BANK4   BANK5   BANK6   BANK7   BANK8   BANK9  BANK10  BANK1
      +1  BANK12  BANK13  BANK14  BANK15  BANK16  BANK17  BANK18  BANK19  BANK20  BANK21  BANK22  BANK23  BANK24  BANK25
  1082 ;;      Params:         0       0       0       0       0       0       0       0       0       0       0       0       
      +0       0       0       0       0       0       0       0       0       0       0       0       0       0       0
  1083 ;;      Locals:         0       0       0       0       0       0       0       0       0       0       0       0       
      +0       0       0       0       0       0       0       0       0       0       0       0       0       0       0
  1084 ;;      Temps:          2       0       0       0       0       0       0       0       0       0       0       0       
      +0       0       0       0       0       0       0       0       0       0       0       0       0       0       0
  1085 ;;      Totals:         2       0       0       0       0       0       0       0       0       0       0       0       
      +0       0       0       0       0       0       0       0       0       0       0       0       0       0       0
  1086 ;;Total ram usage:        2 bytes
  1087 ;; Hardware stack levels required when called: 2
  1088 ;; This function calls:
  1089 ;;		_EUSART_Initialize
  1090 ;;		_EUSART_Write_Text
  1091 ;;		_initMain
  1092 ;; This function is called by:
  1093 ;;		Startup code after reset
  1094 ;; This function uses a non-reentrant model
  1095 ;;
  1096                           
  1097     06CF                     _main:	
  1098                           ;psect for function _main
  1099                           
  1100     06CF                     l884:	
  1101                           ;incstack = 0
  1102                           ; Regs used in _main: [wreg-fsr0h+status,2+status,0+pclath+cstack]
  1103                           
  1104                           
  1105                           ;main.c: 76:     initMain();
  1106     06CF  3186  26F4  3186   	fcall	_initMain
  1107                           
  1108                           ;main.c: 79:     EUSART_Initialize(19200);
  1109     06D2  3000               	movlw	0
  1110     06D3  0020               	movlb	0	; select bank0
  1111     06D4  00A9               	movwf	EUSART_Initialize@baudrate+3
  1112     06D5  3000               	movlw	0
  1113     06D6  00A8               	movwf	EUSART_Initialize@baudrate+2
  1114     06D7  304B               	movlw	75
  1115     06D8  00A7               	movwf	EUSART_Initialize@baudrate+1
  1116     06D9  3000               	movlw	0
  1117     06DA  00A6               	movwf	EUSART_Initialize@baudrate
  1118     06DB  3187  271D  3186   	fcall	_EUSART_Initialize
  1119     06DE                     l886:
  1120                           
  1121                           ;main.c: 82:     {;main.c: 84:       EUSART_Write_Text("Hello World\n");
  1122     06DE  3000               	movlw	low (STR_1| (0+32768))
  1123     06DF  00F1               	movwf	EUSART_Write_Text@text
  1124     06E0  3088               	movlw	high (STR_1| (0+32768))
  1125     06E1  00F2               	movwf	EUSART_Write_Text@text+1
  1126     06E2  3186  26B2  3186   	fcall	_EUSART_Write_Text
  1127     06E5                     l888:
  1128                           
  1129                           ;main.c: 86:       _delay((unsigned long)((1000)*(32000000/4000.0)));
  1130     06E5  3029               	movlw	41
  1131     06E6  00FC               	movwf	??_main+1
  1132     06E7  3096               	movlw	150
  1133     06E8  00FB               	movwf	??_main
  1134     06E9  307F               	movlw	127
  1135     06EA                     u357:
  1136     06EA  0B89               	decfsz	9,f
  1137     06EB  2EEA               	goto	u357
  1138     06EC  0BFB               	decfsz	??_main,f
  1139     06ED  2EEA               	goto	u357
  1140     06EE  0BFC               	decfsz	??_main+1,f
  1141     06EF  2EEA               	goto	u357
  1142     06F0  0000               	nop
  1143     06F1  2EDE               	goto	l886
  1144     06F2  3180  2802         	ljmp	start
  1145     06F4                     __end_of_main:
  1146                           
  1147                           	psect	text1
  1148     06F4                     __ptext1:	
  1149 ;; *************** function _initMain *****************
  1150 ;; Defined at:
  1151 ;;		line 41 in file "main.c"
  1152 ;; Parameters:    Size  Location     Type
  1153 ;;		None
  1154 ;; Auto vars:     Size  Location     Type
  1155 ;;		None
  1156 ;; Return value:  Size  Location     Type
  1157 ;;                  1    wreg      void 
  1158 ;; Registers used:
  1159 ;;		wreg, status,2, status,0, pclath, cstack
  1160 ;; Tracked objects:
  1161 ;;		On entry : 0/0
  1162 ;;		On exit  : 0/0
  1163 ;;		Unchanged: 0/0
  1164 ;; Data sizes:     COMMON   BANK0   BANK1   BANK2   BANK3   BANK4   BANK5   BANK6   BANK7   BANK8   BANK9  BANK10  BANK1
      +1  BANK12  BANK13  BANK14  BANK15  BANK16  BANK17  BANK18  BANK19  BANK20  BANK21  BANK22  BANK23  BANK24  BANK25
  1165 ;;      Params:         0       0       0       0       0       0       0       0       0       0       0       0       
      +0       0       0       0       0       0       0       0       0       0       0       0       0       0       0
  1166 ;;      Locals:         0       0       0       0       0       0       0       0       0       0       0       0       
      +0       0       0       0       0       0       0       0       0       0       0       0       0       0       0
  1167 ;;      Temps:          2       0       0       0       0       0       0       0       0       0       0       0       
      +0       0       0       0       0       0       0       0       0       0       0       0       0       0       0
  1168 ;;      Totals:         2       0       0       0       0       0       0       0       0       0       0       0       
      +0       0       0       0       0       0       0       0       0       0       0       0       0       0       0
  1169 ;;Total ram usage:        2 bytes
  1170 ;; Hardware stack levels used: 1
  1171 ;; Hardware stack levels required when called: 1
  1172 ;; This function calls:
  1173 ;;		_internal_32
  1174 ;; This function is called by:
  1175 ;;		_main
  1176 ;; This function uses a non-reentrant model
  1177 ;;
  1178                           
  1179     06F4                     _initMain:	
  1180                           ;psect for function _initMain
  1181                           
  1182     06F4                     l704:	
  1183                           ;incstack = 0
  1184                           ; Regs used in _initMain: [wreg+status,2+status,0+pclath+cstack]
  1185                           
  1186                           
  1187                           ;main.c: 44:     internal_32();
  1188     06F4  3186  269F  3186   	fcall	_internal_32
  1189     06F7                     l706:
  1190                           
  1191                           ;main.c: 47:     _delay((unsigned long)((100)*(32000000/4000.0)));
  1192     06F7  3005               	movlw	5
  1193     06F8  00F1               	movwf	??_initMain+1
  1194     06F9  300F               	movlw	15
  1195     06FA  00F0               	movwf	??_initMain
  1196     06FB  30F1               	movlw	241
  1197     06FC                     u367:
  1198     06FC  0B89               	decfsz	9,f
  1199     06FD  2EFC               	goto	u367
  1200     06FE  0BF0               	decfsz	??_initMain,f
  1201     06FF  2EFC               	goto	u367
  1202     0700  0BF1               	decfsz	??_initMain+1,f
  1203     0701  2EFC               	goto	u367
  1204     0702  0000               	nop
  1205     0703                     l708:
  1206                           
  1207                           ;main.c: 49:     TRISBbits.TRISB2 = 0;
  1208     0703  0021               	movlb	1	; select bank1
  1209     0704  110D               	bcf	13,2	;volatile
  1210     0705                     l710:
  1211                           
  1212                           ;main.c: 50:     ANSELBbits.ANSB2 = 0;
  1213     0705  0023               	movlb	3	; select bank3
  1214     0706  110D               	bcf	13,2	;volatile
  1215     0707                     l712:
  1216                           
  1217                           ;main.c: 55:     PPSLOCK = 0x55;
  1218     0707  3055               	movlw	85
  1219     0708  003C               	movlb	28	; select bank28
  1220     0709  008F               	movwf	15	;volsfr
  1221     070A                     l714:
  1222                           
  1223                           ;main.c: 56:     PPSLOCK = 0xAA;
  1224     070A  30AA               	movlw	170
  1225     070B  008F               	movwf	15	;volsfr
  1226     070C                     l716:
  1227                           
  1228                           ;main.c: 57:     PPSLOCKbits.PPSLOCKED = 0x00;
  1229     070C  100F               	bcf	15,0	;volsfr
  1230     070D                     l718:
  1231                           
  1232                           ;main.c: 59:     RB2PPSbits.RB2PPS = 0x14;
  1233     070D  003D               	movlb	29	; select bank29
  1234     070E  081A               	movf	26,w	;volatile
  1235     070F  39E0               	andlw	-32
  1236     0710  3814               	iorlw	20
  1237     0711  009A               	movwf	26	;volatile
  1238     0712                     l720:
  1239                           
  1240                           ;main.c: 60:     RXPPSbits.RXPPS = 0x0B;
  1241     0712  003C               	movlb	28	; select bank28
  1242     0713  0824               	movf	36,w	;volatile
  1243     0714  39E0               	andlw	-32
  1244     0715  380B               	iorlw	11
  1245     0716  00A4               	movwf	36	;volatile
  1246     0717                     l722:
  1247                           
  1248                           ;main.c: 62:     PPSLOCK = 0x55;
  1249     0717  3055               	movlw	85
  1250     0718  008F               	movwf	15	;volsfr
  1251     0719                     l724:
  1252                           
  1253                           ;main.c: 63:     PPSLOCK = 0xAA;
  1254     0719  30AA               	movlw	170
  1255     071A  008F               	movwf	15	;volsfr
  1256     071B                     l726:
  1257                           
  1258                           ;main.c: 64:     PPSLOCKbits.PPSLOCKED = 0x01;
  1259     071B  140F               	bsf	15,0	;volsfr
  1260     071C                     l58:
  1261     071C  0008               	return
  1262     071D                     __end_of_initMain:
  1263                           
  1264                           	psect	text2
  1265     069F                     __ptext2:	
  1266 ;; *************** function _internal_32 *****************
  1267 ;; Defined at:
  1268 ;;		line 36 in file "PIC16F1718_Internal.c"
  1269 ;; Parameters:    Size  Location     Type
  1270 ;;		None
  1271 ;; Auto vars:     Size  Location     Type
  1272 ;;		None
  1273 ;; Return value:  Size  Location     Type
  1274 ;;                  1    wreg      void 
  1275 ;; Registers used:
  1276 ;;		None
  1277 ;; Tracked objects:
  1278 ;;		On entry : 0/0
  1279 ;;		On exit  : 0/0
  1280 ;;		Unchanged: 0/0
  1281 ;; Data sizes:     COMMON   BANK0   BANK1   BANK2   BANK3   BANK4   BANK5   BANK6   BANK7   BANK8   BANK9  BANK10  BANK1
      +1  BANK12  BANK13  BANK14  BANK15  BANK16  BANK17  BANK18  BANK19  BANK20  BANK21  BANK22  BANK23  BANK24  BANK25
  1282 ;;      Params:         0       0       0       0       0       0       0       0       0       0       0       0       
      +0       0       0       0       0       0       0       0       0       0       0       0       0       0       0
  1283 ;;      Locals:         0       0       0       0       0       0       0       0       0       0       0       0       
      +0       0       0       0       0       0       0       0       0       0       0       0       0       0       0
  1284 ;;      Temps:          0       0       0       0       0       0       0       0       0       0       0       0       
      +0       0       0       0       0       0       0       0       0       0       0       0       0       0       0
  1285 ;;      Totals:         0       0       0       0       0       0       0       0       0       0       0       0       
      +0       0       0       0       0       0       0       0       0       0       0       0       0       0       0
  1286 ;;Total ram usage:        0 bytes
  1287 ;; Hardware stack levels used: 1
  1288 ;; This function calls:
  1289 ;;		Nothing
  1290 ;; This function is called by:
  1291 ;;		_initMain
  1292 ;; This function uses a non-reentrant model
  1293 ;;
  1294                           
  1295     069F                     _internal_32:	
  1296                           ;psect for function _internal_32
  1297                           
  1298     069F                     l658:	
  1299                           ;incstack = 0
  1300                           ; Regs used in _internal_32: []
  1301                           
  1302                           
  1303                           ;PIC16F1718_Internal.c: 38:     SCS0 = 0;
  1304     069F  0021               	movlb	1	; select bank1
  1305     06A0  1019               	bcf	25,0	;volatile
  1306                           
  1307                           ;PIC16F1718_Internal.c: 39:     SCS1 = 0;
  1308     06A1  1099               	bcf	25,1	;volatile
  1309                           
  1310                           ;PIC16F1718_Internal.c: 42:     IRCF0 = 0;
  1311     06A2  1199               	bcf	25,3	;volatile
  1312                           
  1313                           ;PIC16F1718_Internal.c: 43:     IRCF1 = 1;
  1314     06A3  1619               	bsf	25,4	;volatile
  1315                           
  1316                           ;PIC16F1718_Internal.c: 44:     IRCF2 = 1;
  1317     06A4  1699               	bsf	25,5	;volatile
  1318                           
  1319                           ;PIC16F1718_Internal.c: 45:     IRCF3 = 1;
  1320     06A5  1719               	bsf	25,6	;volatile
  1321                           
  1322                           ;PIC16F1718_Internal.c: 48:     SPLLEN = 1;
  1323     06A6  1799               	bsf	25,7	;volatile
  1324     06A7                     l17:
  1325     06A7  0008               	return
  1326     06A8                     __end_of_internal_32:
  1327                           
  1328                           	psect	text3
  1329     06B2                     __ptext3:	
  1330 ;; *************** function _EUSART_Write_Text *****************
  1331 ;; Defined at:
  1332 ;;		line 127 in file "EUSART.c"
  1333 ;; Parameters:    Size  Location     Type
  1334 ;;  text            2    1[COMMON] PTR unsigned char 
  1335 ;;		 -> STR_1(13), 
  1336 ;; Auto vars:     Size  Location     Type
  1337 ;;  i               2    4[COMMON] int 
  1338 ;; Return value:  Size  Location     Type
  1339 ;;                  1    wreg      void 
  1340 ;; Registers used:
  1341 ;;		wreg, fsr0l, fsr0h, status,2, status,0, pclath, cstack
  1342 ;; Tracked objects:
  1343 ;;		On entry : 0/0
  1344 ;;		On exit  : 0/0
  1345 ;;		Unchanged: 0/0
  1346 ;; Data sizes:     COMMON   BANK0   BANK1   BANK2   BANK3   BANK4   BANK5   BANK6   BANK7   BANK8   BANK9  BANK10  BANK1
      +1  BANK12  BANK13  BANK14  BANK15  BANK16  BANK17  BANK18  BANK19  BANK20  BANK21  BANK22  BANK23  BANK24  BANK25
  1347 ;;      Params:         2       0       0       0       0       0       0       0       0       0       0       0       
      +0       0       0       0       0       0       0       0       0       0       0       0       0       0       0
  1348 ;;      Locals:         2       0       0       0       0       0       0       0       0       0       0       0       
      +0       0       0       0       0       0       0       0       0       0       0       0       0       0       0
  1349 ;;      Temps:          1       0       0       0       0       0       0       0       0       0       0       0       
      +0       0       0       0       0       0       0       0       0       0       0       0       0       0       0
  1350 ;;      Totals:         5       0       0       0       0       0       0       0       0       0       0       0       
      +0       0       0       0       0       0       0       0       0       0       0       0       0       0       0
  1351 ;;Total ram usage:        5 bytes
  1352 ;; Hardware stack levels used: 1
  1353 ;; Hardware stack levels required when called: 1
  1354 ;; This function calls:
  1355 ;;		_EUSART_Write
  1356 ;; This function is called by:
  1357 ;;		_main
  1358 ;; This function uses a non-reentrant model
  1359 ;;
  1360                           
  1361     06B2                     _EUSART_Write_Text:	
  1362                           ;psect for function _EUSART_Write_Text
  1363                           
  1364     06B2                     l876:	
  1365                           ;incstack = 0
  1366                           ; Regs used in _EUSART_Write_Text: [wreg-fsr0h+status,2+status,0+pclath+cstack]
  1367                           
  1368                           
  1369                           ;EUSART.c: 127: void EUSART_Write_Text(char *text);EUSART.c: 128: {;EUSART.c: 129:   int
      +                           i;;EUSART.c: 130:   for(i=0;text[i]!='\0';i++)
  1370     06B2  01F4               	clrf	EUSART_Write_Text@i
  1371     06B3  01F5               	clrf	EUSART_Write_Text@i+1
  1372     06B4  2EC3               	goto	l882
  1373     06B5                     l878:
  1374                           
  1375                           ;EUSART.c: 131:    EUSART_Write(text[i]);
  1376     06B5  0871               	movf	EUSART_Write_Text@text,w
  1377     06B6  0774               	addwf	EUSART_Write_Text@i,w
  1378     06B7  0084               	movwf	4
  1379     06B8  0872               	movf	EUSART_Write_Text@text+1,w
  1380     06B9  3D75               	addwfc	EUSART_Write_Text@i+1,w
  1381     06BA  0085               	movwf	5
  1382     06BB  0800               	movf	0,w	;code access
  1383     06BC  3186  26A8  3186   	fcall	_EUSART_Write
  1384     06BF                     l880:
  1385     06BF  3001               	movlw	1
  1386     06C0  07F4               	addwf	EUSART_Write_Text@i,f
  1387     06C1  3000               	movlw	0
  1388     06C2  3DF5               	addwfc	EUSART_Write_Text@i+1,f
  1389     06C3                     l882:
  1390     06C3  0871               	movf	EUSART_Write_Text@text,w
  1391     06C4  0774               	addwf	EUSART_Write_Text@i,w
  1392     06C5  0084               	movwf	4
  1393     06C6  0872               	movf	EUSART_Write_Text@text+1,w
  1394     06C7  3D75               	addwfc	EUSART_Write_Text@i+1,w
  1395     06C8  0085               	movwf	5
  1396     06C9  0012               	moviw fsr0++
  1397     06CA  1D03               	btfss	3,2
  1398     06CB  2ECD               	goto	u341
  1399     06CC  2ECE               	goto	u340
  1400     06CD                     u341:
  1401     06CD  2EB5               	goto	l878
  1402     06CE                     u340:
  1403     06CE                     l116:
  1404     06CE  0008               	return
  1405     06CF                     __end_of_EUSART_Write_Text:
  1406                           
  1407                           	psect	text4
  1408     06A8                     __ptext4:	
  1409 ;; *************** function _EUSART_Write *****************
  1410 ;; Defined at:
  1411 ;;		line 108 in file "EUSART.c"
  1412 ;; Parameters:    Size  Location     Type
  1413 ;;  txData          1    wreg     unsigned char 
  1414 ;; Auto vars:     Size  Location     Type
  1415 ;;  txData          1    0[COMMON] unsigned char 
  1416 ;; Return value:  Size  Location     Type
  1417 ;;                  1    wreg      void 
  1418 ;; Registers used:
  1419 ;;		wreg
  1420 ;; Tracked objects:
  1421 ;;		On entry : 0/0
  1422 ;;		On exit  : 0/0
  1423 ;;		Unchanged: 0/0
  1424 ;; Data sizes:     COMMON   BANK0   BANK1   BANK2   BANK3   BANK4   BANK5   BANK6   BANK7   BANK8   BANK9  BANK10  BANK1
      +1  BANK12  BANK13  BANK14  BANK15  BANK16  BANK17  BANK18  BANK19  BANK20  BANK21  BANK22  BANK23  BANK24  BANK25
  1425 ;;      Params:         0       0       0       0       0       0       0       0       0       0       0       0       
      +0       0       0       0       0       0       0       0       0       0       0       0       0       0       0
  1426 ;;      Locals:         1       0       0       0       0       0       0       0       0       0       0       0       
      +0       0       0       0       0       0       0       0       0       0       0       0       0       0       0
  1427 ;;      Temps:          0       0       0       0       0       0       0       0       0       0       0       0       
      +0       0       0       0       0       0       0       0       0       0       0       0       0       0       0
  1428 ;;      Totals:         1       0       0       0       0       0       0       0       0       0       0       0       
      +0       0       0       0       0       0       0       0       0       0       0       0       0       0       0
  1429 ;;Total ram usage:        1 bytes
  1430 ;; Hardware stack levels used: 1
  1431 ;; This function calls:
  1432 ;;		Nothing
  1433 ;; This function is called by:
  1434 ;;		_EUSART_Write_Text
  1435 ;;		_EUSART_Write_Integer
  1436 ;; This function uses a non-reentrant model
  1437 ;;
  1438                           
  1439     06A8                     _EUSART_Write:	
  1440                           ;psect for function _EUSART_Write
  1441                           
  1442                           
  1443                           ;incstack = 0
  1444                           ; Regs used in _EUSART_Write: [wreg]
  1445                           ;EUSART_Write@txData stored from wreg
  1446     06A8  00F0               	movwf	EUSART_Write@txData
  1447     06A9                     l660:
  1448     06A9                     l107:	
  1449                           ;EUSART.c: 111:     {;EUSART.c: 112:     }
  1450                           
  1451                           
  1452                           ;EUSART.c: 110:     while(0 == PIR1bits.TXIF)
  1453     06A9  0020               	movlb	0	; select bank0
  1454     06AA  1E11               	btfss	17,4	;volatile
  1455     06AB  2EAD               	goto	u11
  1456     06AC  2EAE               	goto	u10
  1457     06AD                     u11:
  1458     06AD  2EA9               	goto	l107
  1459     06AE                     u10:
  1460     06AE                     l662:
  1461                           
  1462                           ;EUSART.c: 114:     TX1REG = txData;
  1463     06AE  0870               	movf	EUSART_Write@txData,w
  1464     06AF  0023               	movlb	3	; select bank3
  1465     06B0  009A               	movwf	26	;volatile
  1466     06B1                     l110:
  1467     06B1  0008               	return
  1468     06B2                     __end_of_EUSART_Write:
  1469                           
  1470                           	psect	text5
  1471     071D                     __ptext5:	
  1472 ;; *************** function _EUSART_Initialize *****************
  1473 ;; Defined at:
  1474 ;;		line 36 in file "EUSART.c"
  1475 ;; Parameters:    Size  Location     Type
  1476 ;;  baudrate        4    6[BANK0 ] const long 
  1477 ;; Auto vars:     Size  Location     Type
  1478 ;;  x               2    9[COMMON] unsigned int 
  1479 ;; Return value:  Size  Location     Type
  1480 ;;                  1    wreg      unsigned char 
  1481 ;; Registers used:
  1482 ;;		wreg, status,2, status,0, pclath, cstack
  1483 ;; Tracked objects:
  1484 ;;		On entry : 0/0
  1485 ;;		On exit  : 0/0
  1486 ;;		Unchanged: 0/0
  1487 ;; Data sizes:     COMMON   BANK0   BANK1   BANK2   BANK3   BANK4   BANK5   BANK6   BANK7   BANK8   BANK9  BANK10  BANK1
      +1  BANK12  BANK13  BANK14  BANK15  BANK16  BANK17  BANK18  BANK19  BANK20  BANK21  BANK22  BANK23  BANK24  BANK25
  1488 ;;      Params:         0       4       0       0       0       0       0       0       0       0       0       0       
      +0       0       0       0       0       0       0       0       0       0       0       0       0       0       0
  1489 ;;      Locals:         2       0       0       0       0       0       0       0       0       0       0       0       
      +0       0       0       0       0       0       0       0       0       0       0       0       0       0       0
  1490 ;;      Temps:          0      12       0       0       0       0       0       0       0       0       0       0       
      +0       0       0       0       0       0       0       0       0       0       0       0       0       0       0
  1491 ;;      Totals:         2      16       0       0       0       0       0       0       0       0       0       0       
      +0       0       0       0       0       0       0       0       0       0       0       0       0       0       0
  1492 ;;Total ram usage:       18 bytes
  1493 ;; Hardware stack levels used: 1
  1494 ;; Hardware stack levels required when called: 1
  1495 ;; This function calls:
  1496 ;;		___aldiv
  1497 ;; This function is called by:
  1498 ;;		_main
  1499 ;; This function uses a non-reentrant model
  1500 ;;
  1501                           
  1502     071D                     _EUSART_Initialize:	
  1503                           ;psect for function _EUSART_Initialize
  1504                           
  1505     071D                     l858:	
  1506                           ;incstack = 0
  1507                           ; Regs used in _EUSART_Initialize: [wreg+status,2+status,0+pclath+cstack]
  1508                           
  1509                           
  1510                           ;EUSART.c: 36: char EUSART_Initialize(const long int baudrate);EUSART.c: 37: {;EUSART.c:
      +                           38:     unsigned int x;;EUSART.c: 39:  x = (32000000 - baudrate*64)/(baudrate*64);
  1511     071D  0020               	movlb	0	; select bank0
  1512     071E  0826               	movf	EUSART_Initialize@baudrate,w
  1513     071F  00AA               	movwf	??_EUSART_Initialize
  1514     0720  0827               	movf	EUSART_Initialize@baudrate+1,w
  1515     0721  00AB               	movwf	??_EUSART_Initialize+1
  1516     0722  0828               	movf	EUSART_Initialize@baudrate+2,w
  1517     0723  00AC               	movwf	??_EUSART_Initialize+2
  1518     0724  0829               	movf	EUSART_Initialize@baudrate+3,w
  1519     0725  00AD               	movwf	??_EUSART_Initialize+3
  1520     0726  3006               	movlw	6
  1521     0727                     u325:
  1522     0727  35AA               	lslf	??_EUSART_Initialize,f
  1523     0728  0DAB               	rlf	??_EUSART_Initialize+1,f
  1524     0729  0DAC               	rlf	??_EUSART_Initialize+2,f
  1525     072A  0DAD               	rlf	??_EUSART_Initialize+3,f
  1526     072B                     u320:
  1527     072B  0B89               	decfsz	9,f
  1528     072C  2F27               	goto	u325
  1529     072D  082D               	movf	??_EUSART_Initialize+3,w
  1530     072E  00F3               	movwf	___aldiv@divisor+3
  1531     072F  082C               	movf	??_EUSART_Initialize+2,w
  1532     0730  00F2               	movwf	___aldiv@divisor+2
  1533     0731  082B               	movf	??_EUSART_Initialize+1,w
  1534     0732  00F1               	movwf	___aldiv@divisor+1
  1535     0733  082A               	movf	??_EUSART_Initialize,w
  1536     0734  00F0               	movwf	___aldiv@divisor
  1537     0735  0826               	movf	EUSART_Initialize@baudrate,w
  1538     0736  00AE               	movwf	??_EUSART_Initialize+4
  1539     0737  0827               	movf	EUSART_Initialize@baudrate+1,w
  1540     0738  00AF               	movwf	??_EUSART_Initialize+5
  1541     0739  0828               	movf	EUSART_Initialize@baudrate+2,w
  1542     073A  00B0               	movwf	??_EUSART_Initialize+6
  1543     073B  0829               	movf	EUSART_Initialize@baudrate+3,w
  1544     073C  00B1               	movwf	??_EUSART_Initialize+7
  1545     073D  3006               	movlw	6
  1546     073E                     u335:
  1547     073E  35AE               	lslf	??_EUSART_Initialize+4,f
  1548     073F  0DAF               	rlf	??_EUSART_Initialize+5,f
  1549     0740  0DB0               	rlf	??_EUSART_Initialize+6,f
  1550     0741  0DB1               	rlf	??_EUSART_Initialize+7,f
  1551     0742                     u330:
  1552     0742  0B89               	decfsz	9,f
  1553     0743  2F3E               	goto	u335
  1554     0744  3000               	movlw	0
  1555     0745  00B2               	movwf	??_EUSART_Initialize+8
  1556     0746  3048               	movlw	72
  1557     0747  00B3               	movwf	??_EUSART_Initialize+9
  1558     0748  30E8               	movlw	232
  1559     0749  00B4               	movwf	??_EUSART_Initialize+10
  1560     074A  3001               	movlw	1
  1561     074B  00B5               	movwf	??_EUSART_Initialize+11
  1562     074C  082E               	movf	??_EUSART_Initialize+4,w
  1563     074D  02B2               	subwf	??_EUSART_Initialize+8,f
  1564     074E  082F               	movf	??_EUSART_Initialize+5,w
  1565     074F  3BB3               	subwfb	??_EUSART_Initialize+9,f
  1566     0750  0830               	movf	??_EUSART_Initialize+6,w
  1567     0751  3BB4               	subwfb	??_EUSART_Initialize+10,f
  1568     0752  0831               	movf	??_EUSART_Initialize+7,w
  1569     0753  3BB5               	subwfb	??_EUSART_Initialize+11,f
  1570     0754  0835               	movf	??_EUSART_Initialize+11,w
  1571     0755  00F7               	movwf	___aldiv@dividend+3
  1572     0756  0834               	movf	??_EUSART_Initialize+10,w
  1573     0757  00F6               	movwf	___aldiv@dividend+2
  1574     0758  0833               	movf	??_EUSART_Initialize+9,w
  1575     0759  00F5               	movwf	___aldiv@dividend+1
  1576     075A  0832               	movf	??_EUSART_Initialize+8,w
  1577     075B  00F4               	movwf	___aldiv@dividend
  1578     075C  3187  276D  3187   	fcall	___aldiv
  1579     075F  0871               	movf	?___aldiv+1,w
  1580     0760  00FA               	movwf	EUSART_Initialize@x+1
  1581     0761  0870               	movf	?___aldiv,w
  1582     0762  00F9               	movwf	EUSART_Initialize@x
  1583     0763                     l860:
  1584                           
  1585                           ;EUSART.c: 41:  SPBRGL = x;
  1586     0763  0879               	movf	EUSART_Initialize@x,w
  1587     0764  0023               	movlb	3	; select bank3
  1588     0765  009B               	movwf	27	;volatile
  1589     0766                     l862:
  1590                           
  1591                           ;EUSART.c: 42:     BRGH = 0;
  1592     0766  111E               	bcf	30,2	;volatile
  1593     0767                     l864:
  1594                           
  1595                           ;EUSART.c: 43:     BRG16 = 0;
  1596     0767  119F               	bcf	31,3	;volatile
  1597     0768                     l866:
  1598                           
  1599                           ;EUSART.c: 44:     SYNC = 0;
  1600     0768  121E               	bcf	30,4	;volatile
  1601     0769                     l868:
  1602                           
  1603                           ;EUSART.c: 45:     SPEN = 1;
  1604     0769  179D               	bsf	29,7	;volatile
  1605     076A                     l870:
  1606                           
  1607                           ;EUSART.c: 46:     CREN = 1;
  1608     076A  161D               	bsf	29,4	;volatile
  1609     076B                     l872:
  1610                           
  1611                           ;EUSART.c: 47:     TXEN = 1;
  1612     076B  169E               	bsf	30,5	;volatile
  1613     076C                     l91:
  1614     076C  0008               	return
  1615     076D                     __end_of_EUSART_Initialize:
  1616                           
  1617                           	psect	text6
  1618     076D                     __ptext6:	
  1619 ;; *************** function ___aldiv *****************
  1620 ;; Defined at:
  1621 ;;		line 5 in file "C:\Program Files\Microchip\xc8\v2.46\pic\sources\c99\common\aldiv.c"
  1622 ;; Parameters:    Size  Location     Type
  1623 ;;  divisor         4    0[COMMON] long 
  1624 ;;  dividend        4    4[COMMON] long 
  1625 ;; Auto vars:     Size  Location     Type
  1626 ;;  quotient        4    2[BANK0 ] long 
  1627 ;;  sign            1    1[BANK0 ] unsigned char 
  1628 ;;  counter         1    0[BANK0 ] unsigned char 
  1629 ;; Return value:  Size  Location     Type
  1630 ;;                  4    0[COMMON] long 
  1631 ;; Registers used:
  1632 ;;		wreg, status,2, status,0
  1633 ;; Tracked objects:
  1634 ;;		On entry : 0/0
  1635 ;;		On exit  : 0/0
  1636 ;;		Unchanged: 0/0
  1637 ;; Data sizes:     COMMON   BANK0   BANK1   BANK2   BANK3   BANK4   BANK5   BANK6   BANK7   BANK8   BANK9  BANK10  BANK1
      +1  BANK12  BANK13  BANK14  BANK15  BANK16  BANK17  BANK18  BANK19  BANK20  BANK21  BANK22  BANK23  BANK24  BANK25
  1638 ;;      Params:         8       0       0       0       0       0       0       0       0       0       0       0       
      +0       0       0       0       0       0       0       0       0       0       0       0       0       0       0
  1639 ;;      Locals:         0       6       0       0       0       0       0       0       0       0       0       0       
      +0       0       0       0       0       0       0       0       0       0       0       0       0       0       0
  1640 ;;      Temps:          1       0       0       0       0       0       0       0       0       0       0       0       
      +0       0       0       0       0       0       0       0       0       0       0       0       0       0       0
  1641 ;;      Totals:         9       6       0       0       0       0       0       0       0       0       0       0       
      +0       0       0       0       0       0       0       0       0       0       0       0       0       0       0
  1642 ;;Total ram usage:       15 bytes
  1643 ;; Hardware stack levels used: 1
  1644 ;; This function calls:
  1645 ;;		Nothing
  1646 ;; This function is called by:
  1647 ;;		_EUSART_Initialize
  1648 ;; This function uses a non-reentrant model
  1649 ;;
  1650                           
  1651     076D                     ___aldiv:	
  1652                           ;psect for function ___aldiv
  1653                           
  1654     076D                     l818:	
  1655                           ;incstack = 0
  1656                           ; Regs used in ___aldiv: [wreg+status,2+status,0]
  1657                           
  1658     076D  0020               	movlb	0	; select bank0
  1659     076E  01A1               	clrf	___aldiv@sign
  1660     076F                     l820:
  1661     076F  1FF3               	btfss	___aldiv@divisor+3,7
  1662     0770  2F72               	goto	u221
  1663     0771  2F73               	goto	u220
  1664     0772                     u221:
  1665     0772  2F80               	goto	l265
  1666     0773                     u220:
  1667     0773                     l822:
  1668     0773  09F0               	comf	___aldiv@divisor,f
  1669     0774  09F1               	comf	___aldiv@divisor+1,f
  1670     0775  09F2               	comf	___aldiv@divisor+2,f
  1671     0776  09F3               	comf	___aldiv@divisor+3,f
  1672     0777  0AF0               	incf	___aldiv@divisor,f
  1673     0778  1903               	skipnz
  1674     0779  0AF1               	incf	___aldiv@divisor+1,f
  1675     077A  1903               	skipnz
  1676     077B  0AF2               	incf	___aldiv@divisor+2,f
  1677     077C  1903               	skipnz
  1678     077D  0AF3               	incf	___aldiv@divisor+3,f
  1679     077E  01A1               	clrf	___aldiv@sign
  1680     077F  0AA1               	incf	___aldiv@sign,f
  1681     0780                     l265:
  1682     0780  1FF7               	btfss	___aldiv@dividend+3,7
  1683     0781  2F83               	goto	u231
  1684     0782  2F84               	goto	u230
  1685     0783                     u231:
  1686     0783  2F93               	goto	l828
  1687     0784                     u230:
  1688     0784                     l824:
  1689     0784  09F4               	comf	___aldiv@dividend,f
  1690     0785  09F5               	comf	___aldiv@dividend+1,f
  1691     0786  09F6               	comf	___aldiv@dividend+2,f
  1692     0787  09F7               	comf	___aldiv@dividend+3,f
  1693     0788  0AF4               	incf	___aldiv@dividend,f
  1694     0789  1903               	skipnz
  1695     078A  0AF5               	incf	___aldiv@dividend+1,f
  1696     078B  1903               	skipnz
  1697     078C  0AF6               	incf	___aldiv@dividend+2,f
  1698     078D  1903               	skipnz
  1699     078E  0AF7               	incf	___aldiv@dividend+3,f
  1700     078F                     l826:
  1701     078F  3001               	movlw	1
  1702     0790  00F8               	movwf	??___aldiv
  1703     0791  0878               	movf	??___aldiv,w
  1704     0792  06A1               	xorwf	___aldiv@sign,f
  1705     0793                     l828:
  1706     0793  3000               	movlw	0
  1707     0794  00A5               	movwf	___aldiv@quotient+3
  1708     0795  3000               	movlw	0
  1709     0796  00A4               	movwf	___aldiv@quotient+2
  1710     0797  3000               	movlw	0
  1711     0798  00A3               	movwf	___aldiv@quotient+1
  1712     0799  3000               	movlw	0
  1713     079A  00A2               	movwf	___aldiv@quotient
  1714     079B                     l830:
  1715     079B  0873               	movf	___aldiv@divisor+3,w
  1716     079C  0472               	iorwf	___aldiv@divisor+2,w
  1717     079D  0471               	iorwf	___aldiv@divisor+1,w
  1718     079E  0470               	iorwf	___aldiv@divisor,w
  1719     079F  1903               	skipnz
  1720     07A0  2FA2               	goto	u241
  1721     07A1  2FA3               	goto	u240
  1722     07A2                     u241:
  1723     07A2  2FE4               	goto	l850
  1724     07A3                     u240:
  1725     07A3                     l832:
  1726     07A3  01A0               	clrf	___aldiv@counter
  1727     07A4  0AA0               	incf	___aldiv@counter,f
  1728     07A5  2FB1               	goto	l836
  1729     07A6                     l834:
  1730     07A6  3001               	movlw	1
  1731     07A7                     u255:
  1732     07A7  35F0               	lslf	___aldiv@divisor,f
  1733     07A8  0DF1               	rlf	___aldiv@divisor+1,f
  1734     07A9  0DF2               	rlf	___aldiv@divisor+2,f
  1735     07AA  0DF3               	rlf	___aldiv@divisor+3,f
  1736     07AB  0B89               	decfsz	9,f
  1737     07AC  2FA7               	goto	u255
  1738     07AD  3001               	movlw	1
  1739     07AE  00F8               	movwf	??___aldiv
  1740     07AF  0878               	movf	??___aldiv,w
  1741     07B0  07A0               	addwf	___aldiv@counter,f
  1742     07B1                     l836:
  1743     07B1  1FF3               	btfss	___aldiv@divisor+3,7
  1744     07B2  2FB4               	goto	u261
  1745     07B3  2FB5               	goto	u260
  1746     07B4                     u261:
  1747     07B4  2FA6               	goto	l834
  1748     07B5                     u260:
  1749     07B5                     l838:
  1750     07B5  3001               	movlw	1
  1751     07B6                     u275:
  1752     07B6  35A2               	lslf	___aldiv@quotient,f
  1753     07B7  0DA3               	rlf	___aldiv@quotient+1,f
  1754     07B8  0DA4               	rlf	___aldiv@quotient+2,f
  1755     07B9  0DA5               	rlf	___aldiv@quotient+3,f
  1756     07BA  0B89               	decfsz	9,f
  1757     07BB  2FB6               	goto	u275
  1758     07BC                     l840:
  1759     07BC  0873               	movf	___aldiv@divisor+3,w
  1760     07BD  0277               	subwf	___aldiv@dividend+3,w
  1761     07BE  1D03               	skipz
  1762     07BF  2FCA               	goto	u285
  1763     07C0  0872               	movf	___aldiv@divisor+2,w
  1764     07C1  0276               	subwf	___aldiv@dividend+2,w
  1765     07C2  1D03               	skipz
  1766     07C3  2FCA               	goto	u285
  1767     07C4  0871               	movf	___aldiv@divisor+1,w
  1768     07C5  0275               	subwf	___aldiv@dividend+1,w
  1769     07C6  1D03               	skipz
  1770     07C7  2FCA               	goto	u285
  1771     07C8  0870               	movf	___aldiv@divisor,w
  1772     07C9  0274               	subwf	___aldiv@dividend,w
  1773     07CA                     u285:
  1774     07CA  1C03               	skipc
  1775     07CB  2FCD               	goto	u281
  1776     07CC  2FCE               	goto	u280
  1777     07CD                     u281:
  1778     07CD  2FD7               	goto	l846
  1779     07CE                     u280:
  1780     07CE                     l842:
  1781     07CE  0870               	movf	___aldiv@divisor,w
  1782     07CF  02F4               	subwf	___aldiv@dividend,f
  1783     07D0  0871               	movf	___aldiv@divisor+1,w
  1784     07D1  3BF5               	subwfb	___aldiv@dividend+1,f
  1785     07D2  0872               	movf	___aldiv@divisor+2,w
  1786     07D3  3BF6               	subwfb	___aldiv@dividend+2,f
  1787     07D4  0873               	movf	___aldiv@divisor+3,w
  1788     07D5  3BF7               	subwfb	___aldiv@dividend+3,f
  1789     07D6                     l844:
  1790     07D6  1422               	bsf	___aldiv@quotient,0
  1791     07D7                     l846:
  1792     07D7  3001               	movlw	1
  1793     07D8                     u295:
  1794     07D8  36F3               	lsrf	___aldiv@divisor+3,f
  1795     07D9  0CF2               	rrf	___aldiv@divisor+2,f
  1796     07DA  0CF1               	rrf	___aldiv@divisor+1,f
  1797     07DB  0CF0               	rrf	___aldiv@divisor,f
  1798     07DC  0B89               	decfsz	9,f
  1799     07DD  2FD8               	goto	u295
  1800     07DE                     l848:
  1801     07DE  3001               	movlw	1
  1802     07DF  02A0               	subwf	___aldiv@counter,f
  1803     07E0  1D03               	btfss	3,2
  1804     07E1  2FE3               	goto	u301
  1805     07E2  2FE4               	goto	u300
  1806     07E3                     u301:
  1807     07E3  2FB5               	goto	l838
  1808     07E4                     u300:
  1809     07E4                     l850:
  1810     07E4  0821               	movf	___aldiv@sign,w
  1811     07E5  1903               	btfsc	3,2
  1812     07E6  2FE8               	goto	u311
  1813     07E7  2FE9               	goto	u310
  1814     07E8                     u311:
  1815     07E8  2FF4               	goto	l854
  1816     07E9                     u310:
  1817     07E9                     l852:
  1818     07E9  09A2               	comf	___aldiv@quotient,f
  1819     07EA  09A3               	comf	___aldiv@quotient+1,f
  1820     07EB  09A4               	comf	___aldiv@quotient+2,f
  1821     07EC  09A5               	comf	___aldiv@quotient+3,f
  1822     07ED  0AA2               	incf	___aldiv@quotient,f
  1823     07EE  1903               	skipnz
  1824     07EF  0AA3               	incf	___aldiv@quotient+1,f
  1825     07F0  1903               	skipnz
  1826     07F1  0AA4               	incf	___aldiv@quotient+2,f
  1827     07F2  1903               	skipnz
  1828     07F3  0AA5               	incf	___aldiv@quotient+3,f
  1829     07F4                     l854:
  1830     07F4  0825               	movf	___aldiv@quotient+3,w
  1831     07F5  00F3               	movwf	?___aldiv+3
  1832     07F6  0824               	movf	___aldiv@quotient+2,w
  1833     07F7  00F2               	movwf	?___aldiv+2
  1834     07F8  0823               	movf	___aldiv@quotient+1,w
  1835     07F9  00F1               	movwf	?___aldiv+1
  1836     07FA  0822               	movf	___aldiv@quotient,w
  1837     07FB  00F0               	movwf	?___aldiv
  1838     07FC                     l275:
  1839     07FC  0008               	return
  1840     07FD                     __end_of___aldiv:
  1841     007E                     btemp	set	126	;btemp
  1842     007E                     wtemp0	set	126
  1843                           
  1844                           	psect	config
  1845                           
  1846                           ;Config register CONFIG1 @ 0x8007
  1847                           ;	Oscillator Selection Bits
  1848                           ;	FOSC = INTOSC, INTOSC oscillator: I/O function on CLKIN pin
  1849                           ;	Watchdog Timer Enable
  1850                           ;	WDTE = OFF, WDT disabled
  1851                           ;	Power-up Timer Enable
  1852                           ;	PWRTE = OFF, PWRT disabled
  1853                           ;	MCLR Pin Function Select
  1854                           ;	MCLRE = OFF, MCLR/VPP pin function is digital input if LVP bit is also 0.
  1855                           ;	Flash Program Memory Code Protection
  1856                           ;	CP = OFF, Program memory code protection is disabled
  1857                           ;	Brown-out Reset Enable
  1858                           ;	BOREN = OFF, Brown-out Reset disabled
  1859                           ;	Clock Out Enable
  1860                           ;	CLKOUTEN = OFF, CLKOUT function is disabled. I/O or oscillator function on the CLKOUT 
      +                          pin
  1861                           ;	Internal/External Switchover Mode
  1862                           ;	IESO = ON, Internal/External Switchover Mode is enabled
  1863                           ;	Fail-Safe Clock Monitor Enable
  1864                           ;	FCMEN = OFF, Fail-Safe Clock Monitor is disabled
  1865     8007                     	org	32775
  1866     8007  19A4               	dw	6564
  1867                           
  1868                           ;Config register CONFIG2 @ 0x8008
  1869                           ;	Flash Memory Self-Write Protection
  1870                           ;	WRT = OFF, Write protection off
  1871                           ;	Peripheral Pin Select one-way control
  1872                           ;	PPS1WAY = ON, The PPSLOCK bit cannot be cleared once it is set by software
  1873                           ;	Zero-cross detect disable
  1874                           ;	ZCDDIS = ON, ZCD disabled. ZCD can be enabled by setting the ZCDSEN bit of ZCDCON
  1875                           ;	Phase Lock Loop enable
  1876                           ;	PLLEN = OFF, 4x PLL is disabled
  1877                           ;	Stack Overflow/Underflow Reset Enable
  1878                           ;	STVREN = ON, Stack Overflow or Underflow will cause a Reset
  1879                           ;	Brown-out Reset Voltage Selection
  1880                           ;	BORV = LO, Brown-out Reset Voltage (Vbor), low trip point selected.
  1881                           ;	Low-Power Brown Out Reset
  1882                           ;	LPBOR = OFF, Low-Power BOR is disabled
  1883                           ;	In-Circuit Debugger Mode
  1884                           ;	DEBUG = 0x1, unprogrammed default
  1885                           ;	Low-Voltage Programming Enable
  1886                           ;	LVP = OFF, High-voltage on MCLR/VPP must be used for programming
  1887     8008                     	org	32776
  1888     8008  1EFF               	dw	7935

Data Sizes:
    Strings     13
    Constant    0
    Data        0
    BSS         0
    Persistent  32
    Stack       0

Auto Spaces:
    Space          Size  Autos    Used
    COMMON           14     13      13
    BANK0            80     22      22
    BANK1            80      0       0
    BANK2            80      0       0
    BANK3            80      0       0
    BANK4            80      0       0
    BANK5            80      0       0
    BANK6            80      0       0
    BANK7            80      0       0
    BANK8            80      0       0
    BANK9            80      0       0
    BANK10           80      0       0
    BANK11           80      0       0
    BANK12           80      0       0
    BANK13           80      0       0
    BANK14           80      0       0
    BANK15           80      0       0
    BANK16           80      0       0
    BANK17           80      0       0
    BANK18           80      0       0
    BANK19           80      0       0
    BANK20           80      0       0
    BANK21           80      0       0
    BANK22           80      0       0
    BANK23           80      0       0
    BANK24           80      0       0
    BANK25           32      0       0

Pointer List with Targets:

    EUSART_Write_Text@text	PTR unsigned char  size(2) Largest target is 13
		 -> STR_1(CODE[13]), 


Critical Paths under _main in COMMON

    _main->_EUSART_Initialize
    _EUSART_Write_Text->_EUSART_Write
    _EUSART_Initialize->___aldiv

Critical Paths under _main in BANK0

    _main->_EUSART_Initialize
    _EUSART_Initialize->___aldiv

Critical Paths under _main in BANK1

    None.

Critical Paths under _main in BANK2

    None.

Critical Paths under _main in BANK3

    None.

Critical Paths under _main in BANK4

    None.

Critical Paths under _main in BANK5

    None.

Critical Paths under _main in BANK6

    None.

Critical Paths under _main in BANK7

    None.

Critical Paths under _main in BANK8

    None.

Critical Paths under _main in BANK9

    None.

Critical Paths under _main in BANK10

    None.

Critical Paths under _main in BANK11

    None.

Critical Paths under _main in BANK12

    None.

Critical Paths under _main in BANK13

    None.

Critical Paths under _main in BANK14

    None.

Critical Paths under _main in BANK15

    None.

Critical Paths under _main in BANK16

    None.

Critical Paths under _main in BANK17

    None.

Critical Paths under _main in BANK18

    None.

Critical Paths under _main in BANK19

    None.

Critical Paths under _main in BANK20

    None.

Critical Paths under _main in BANK21

    None.

Critical Paths under _main in BANK22

    None.

Critical Paths under _main in BANK23

    None.

Critical Paths under _main in BANK24

    None.

Critical Paths under _main in BANK25

    None.

Call Graph Tables:

 ---------------------------------------------------------------------------------
 (Depth) Function   	        Calls       Base Space   Used Autos Params    Refs
 ---------------------------------------------------------------------------------
 (0) _main                                                 2     2      0     776
                                             11 COMMON     2     2      0
                  _EUSART_Initialize
                  _EUSART_Write_Text
                           _initMain
 ---------------------------------------------------------------------------------
 (1) _initMain                                             2     2      0       0
                                              0 COMMON     2     2      0
                        _internal_32
 ---------------------------------------------------------------------------------
 (2) _internal_32                                          0     0      0       0
 ---------------------------------------------------------------------------------
 (1) _EUSART_Write_Text                                    5     3      2     181
                                              1 COMMON     5     3      2
                       _EUSART_Write
 ---------------------------------------------------------------------------------
 (2) _EUSART_Write                                         1     1      0      15
                                              0 COMMON     1     1      0
 ---------------------------------------------------------------------------------
 (1) _EUSART_Initialize                                   18    14      4     595
                                              9 COMMON     2     2      0
                                              6 BANK0     16    12      4
                            ___aldiv
 ---------------------------------------------------------------------------------
 (2) ___aldiv                                             15     7      8     452
                                              0 COMMON     9     1      8
                                              0 BANK0      6     6      0
 ---------------------------------------------------------------------------------
 Estimated maximum stack depth 2
 ---------------------------------------------------------------------------------

 Call Graph Graphs:

 _main (ROOT)
   _EUSART_Initialize
     ___aldiv
   _EUSART_Write_Text
     _EUSART_Write
   _initMain
     _internal_32

 Address spaces:
Name               Size   Autos  Total    Cost      Usage
BIGRAM             7F0      0       0       0        0.0%
NULL                 0      0       0       0        0.0%
CODE                 0      0       0       0        0.0%
BITCOMMON            E      0       0       1        0.0%
BITSFR0              0      0       0       1        0.0%
SFR0                 0      0       0       1        0.0%
COMMON               E      D       D       2       92.9%
BITSFR1              0      0       0       2        0.0%
SFR1                 0      0       0       2        0.0%
BITSFR2              0      0       0       3        0.0%
SFR2                 0      0       0       3        0.0%
STACK                0      0       0       3        0.0%
BITBANK0            50      0       0       4        0.0%
BITSFR3              0      0       0       4        0.0%
SFR3                 0      0       0       4        0.0%
BANK0               50     16      16       5       27.5%
BITSFR4              0      0       0       5        0.0%
SFR4                 0      0       0       5        0.0%
BITBANK1            50      0       0       6        0.0%
BITSFR5              0      0       0       6        0.0%
SFR5                 0      0       0       6        0.0%
BANK1               50      0       0       7        0.0%
BITSFR6              0      0       0       7        0.0%
SFR6                 0      0       0       7        0.0%
BITBANK2            50      0       0       8        0.0%
BITSFR7              0      0       0       8        0.0%
SFR7                 0      0       0       8        0.0%
BANK2               50      0       0       9        0.0%
BITSFR8              0      0       0       9        0.0%
SFR8                 0      0       0       9        0.0%
BITBANK3            50      0       0      10        0.0%
BITSFR9              0      0       0      10        0.0%
SFR9                 0      0       0      10        0.0%
BANK3               50      0       0      11        0.0%
BITSFR10             0      0       0      11        0.0%
SFR10                0      0       0      11        0.0%
BITBANK4            50      0       0      12        0.0%
BITSFR11             0      0       0      12        0.0%
SFR11                0      0       0      12        0.0%
BANK4               50      0       0      13        0.0%
BITSFR12             0      0       0      13        0.0%
SFR12                0      0       0      13        0.0%
BITSFR13             0      0       0      14        0.0%
SFR13                0      0       0      14        0.0%
ABS                  0      0       0      14        0.0%
BITBANK5            50      0       0      15        0.0%
BITSFR14             0      0       0      15        0.0%
SFR14                0      0       0      15        0.0%
BANK5               50      0       0      16        0.0%
BITSFR15             0      0       0      16        0.0%
SFR15                0      0       0      16        0.0%
BITBANK6            50      0       0      17        0.0%
BITSFR16             0      0       0      17        0.0%
SFR16                0      0       0      17        0.0%
BANK6               50      0       0      18        0.0%
BITSFR17             0      0       0      18        0.0%
SFR17                0      0       0      18        0.0%
BITBANK7            50      0       0      19        0.0%
BITSFR18             0      0       0      19        0.0%
SFR18                0      0       0      19        0.0%
BANK7               50      0       0      20        0.0%
BITSFR19             0      0       0      20        0.0%
SFR19                0      0       0      20        0.0%
BITBANK8            50      0       0      21        0.0%
BITSFR20             0      0       0      21        0.0%
SFR20                0      0       0      21        0.0%
BANK8               50      0       0      22        0.0%
BITSFR21             0      0       0      22        0.0%
SFR21                0      0       0      22        0.0%
BITBANK9            50      0       0      23        0.0%
BITSFR22             0      0       0      23        0.0%
SFR22                0      0       0      23        0.0%
BANK9               50      0       0      24        0.0%
BITSFR23             0      0       0      24        0.0%
SFR23                0      0       0      24        0.0%
BITBANK10           50      0       0      25        0.0%
BITSFR24             0      0       0      25        0.0%
SFR24                0      0       0      25        0.0%
BANK10              50      0       0      26        0.0%
BITSFR25             0      0       0      26        0.0%
SFR25                0      0       0      26        0.0%
BITBANK11           50      0       0      27        0.0%
BITSFR26             0      0       0      27        0.0%
SFR26                0      0       0      27        0.0%
BITSFR27             0      0       0      28        0.0%
SFR27                0      0       0      28        0.0%
DATA                 0      0       0      28        0.0%
BANK11              50      0       0      29        0.0%
BITSFR28             0      0       0      29        0.0%
SFR28                0      0       0      29        0.0%
BITBANK12           50      0       0      30        0.0%
BITSFR29             0      0       0      30        0.0%
SFR29                0      0       0      30        0.0%
BANK12              50      0       0      31        0.0%
BITSFR30             0      0       0      31        0.0%
SFR30                0      0       0      31        0.0%
BITBANK13           50      0       0      32        0.0%
BITSFR31             0      0       0      32        0.0%
SFR31                0      0       0      32        0.0%
BANK13              50      0       0      33        0.0%
BITBANK14           50      0       0      34        0.0%
BANK14              50      0       0      35        0.0%
BITBANK15           50      0       0      36        0.0%
BANK15              50      0       0      37        0.0%
BITBANK16           50      0       0      38        0.0%
BANK16              50      0       0      39        0.0%
BITBANK17           50      0       0      40        0.0%
BANK17              50      0       0      41        0.0%
BITBANK18           50      0       0      42        0.0%
BANK18              50      0       0      43        0.0%
BITBANK19           50      0       0      44        0.0%
BANK19              50      0       0      45        0.0%
BITBANK20           50      0       0      46        0.0%
BANK20              50      0       0      47        0.0%
BITBANK21           50      0       0      48        0.0%
BANK21              50      0       0      49        0.0%
BITBANK22           50      0       0      50        0.0%
BANK22              50      0       0      51        0.0%
BITBANK23           50      0       0      52        0.0%
BANK23              50      0       0      53        0.0%
BITBANK24           50      0       0      54        0.0%
BANK24              50      0       0      55        0.0%
BITBANK25           20      0       0      56        0.0%
BANK25              20      0       0      57        0.0%


Microchip Technology PIC Macro Assembler V2.46 build 20240104201356 
Symbol Table                                                                                   Thu Dec 25 02:32:51 2025

                       l17 06A7                         l58 071C                         l91 076C  
                       u10 06AE                         u11 06AD                        l110 06B1  
                      l107 06A9                        l116 06CE                        l265 0780  
                      l275 07FC                        l710 0705                        l720 0712  
                      l712 0707                        l704 06F4                        l722 0717  
                      l714 070A                        l706 06F7                        l820 076F  
                      l660 06A9                        l724 0719                        l716 070C  
                      l708 0703                        l830 079B                        l822 0773  
                      l662 06AE                        l726 071B                        l718 070D  
                      l840 07BC                        l832 07A3                        l824 0784  
                      l842 07CE                        l834 07A6                        l850 07E4  
                      l826 078F                        l818 076D                        l658 069F  
                      l852 07E9                        l844 07D6                        l836 07B1  
                      l828 0793                        l860 0763                        l854 07F4  
                      l846 07D7                        l838 07B5                        l870 076A  
                      l862 0766                        l848 07DE                        l872 076B  
                      l864 0767                        l880 06BF                        l866 0768  
                      l858 071D                        l882 06C3                        l868 0769  
                      l876 06B2                        l884 06CF                        l878 06B5  
                      l886 06DE                        l888 06E5                        u300 07E4  
                      u220 0773                        u301 07E3                        u221 0772  
                      u310 07E9                        u230 0784                        u311 07E8  
                      u231 0783                        u240 07A3                        u320 072B  
                      u241 07A2                        u330 0742                        u260 07B5  
                      u340 06CE                        u261 07B4                        u325 0727  
                      u341 06CD                        u255 07A7                        u335 073E  
                      u280 07CE                        u281 07CD                        u275 07B6  
                      u285 07CA                        u357 06EA                        u295 07D8  
                      u367 06FC                        wreg 0009                       STR_1 0800  
                     _BRGH 0CF2                       _CREN 0CEC                       _SCS0 04C8  
                     _SCS1 04C9                       _SPEN 0CEF                       _TXEN 0CF5  
                     _SYNC 0CF4                       _main 06CF                       fsr0h 0005  
                     indf0 0000                       fsr0l 0004                       btemp 007E  
                     start 0002              ?_EUSART_Write 0070            __end_of___aldiv 07FD  
                    ?_main 0070                      _BRG16 0CFB                      _IRCF0 04CB  
                    _IRCF1 04CC                      _IRCF2 04CD                      _IRCF3 04CE  
                    status 0003                      wtemp0 007E               ?_internal_32 0070  
          __initialization 07FD               __end_of_main 06F4             ??_EUSART_Write 0070  
                   ??_main 007B                     _RC1REG 0199                     _SPBRGL 019B  
                   _TX1REG 019A                     _SPLLEN 04CF                  ??___aldiv 0078  
         __end_of_initMain 071D    __end_of__initialization 07FD             __pcstackCOMMON 0070  
     __end_of_EUSART_Write 06B2                 __pmaintext 06CF                    _PPSLOCK 0E0F  
                ?_initMain 0070                    ___aldiv 076D                    __ptext1 06F4  
                  __ptext2 069F                    __ptext3 06B2                    __ptext4 06A8  
                  __ptext5 071D                    __ptext6 076D           ___aldiv@dividend 0074  
     end_of_initialization 07FD                 ??_initMain 0070          _EUSART_Initialize 071D  
       ?_EUSART_Initialize 0026           ___aldiv@quotient 0022         EUSART_Initialize@x 0079  
      ??_EUSART_Initialize 002A                  _TRISBbits 008D                  _RXPPSbits 0E24  
__end_of_EUSART_Initialize 076D               _EUSART_Write 06A8        start_initialization 07FD  
        _EUSART_Write_Text 06B2         ?_EUSART_Write_Text 0071        ??_EUSART_Write_Text 0073  
                ___latbits 0003              __pcstackBANK0 0020  __end_of_EUSART_Write_Text 06CF  
            ??_internal_32 0070                   ?___aldiv 0070  EUSART_Initialize@baudrate 0026  
          ___aldiv@divisor 0070            ___aldiv@counter 0020                   _PIR1bits 0011  
      __end_of_internal_32 06A8                 _ANSELBbits 018D                   _initMain 06F4  
              _internal_32 069F                 _RB2PPSbits 0E9A                 _RC1STAbits 019D  
              _PPSLOCKbits 0E0F              __pstringtext1 0800              __pstringtext2 0000  
    EUSART_Write_Text@text 0071               ___aldiv@sign 0021         EUSART_Write@txData 0070  
       EUSART_Write_Text@i 0074  
