

Microchip MPLAB XC8 Assembler V2.46 build 20240104201356 
                                                                                               Fri Dec 26 17:37:08 2025

Microchip MPLAB XC8 C Compiler v2.46 (Free license) build 20240104201356 Og1 
     1                           	processor	16F1718
     2                           	pagewidth 120
     3                           	opt	flic
     4                           	psect	stringtext1,global,class=STRCODE,delta=2,noexec
     5                           	psect	stringtext2,global,class=STRCODE,delta=2,noexec
     6                           	psect	stringtext3,global,class=STRCODE,delta=2,noexec
     7                           	psect	stringtext4,global,class=STRCODE,delta=2,noexec
     8                           	psect	stringtext5,global,class=STRCODE,delta=2,noexec
     9                           	psect	stringtext6,global,class=STRCODE,delta=2,noexec
    10                           	psect	stringtext7,global,class=STRCODE,delta=2,noexec
    11                           	psect	stringtext8,global,class=STRCODE,delta=2,noexec
    12                           	psect	stringtext9,global,class=STRCODE,delta=2,noexec
    13                           	psect	stringtext10,global,class=STRCODE,delta=2,noexec
    14                           	psect	stringtext11,global,class=STRCODE,delta=2,noexec
    15                           	psect	stringtext12,global,class=STRCODE,delta=2,noexec
    16                           	psect	stringtext13,global,class=STRCODE,delta=2,noexec
    17                           	psect	stringtext14,global,class=STRCODE,delta=2,noexec
    18                           	psect	stringtext15,global,class=STRCODE,delta=2,noexec
    19                           	psect	cinit,global,class=CODE,merge=1,delta=2
    20                           	psect	bssBANK0,global,class=BANK0,space=1,delta=1,noexec
    21                           	psect	bssBANK1,global,class=BANK1,space=1,delta=1,noexec
    22                           	psect	bssBANK3,global,class=BANK3,space=1,delta=1,noexec
    23                           	psect	clrtext,global,class=CODE,delta=2
    24                           	psect	cstackBANK2,global,class=BANK2,space=1,delta=1,noexec
    25                           	psect	cstackBANK1,global,class=BANK1,space=1,delta=1,noexec
    26                           	psect	cstackCOMMON,global,class=COMMON,space=1,delta=1,noexec
    27                           	psect	cstackBANK0,global,class=BANK0,space=1,delta=1,noexec
    28                           	psect	maintext,global,class=CODE,merge=1,split=1,delta=2
    29                           	psect	text1,local,class=CODE,merge=1,delta=2
    30                           	psect	text2,local,class=CODE,merge=1,delta=2,group=2
    31                           	psect	text3,local,class=CODE,merge=1,delta=2
    32                           	psect	text4,local,class=CODE,merge=1,delta=2
    33                           	psect	text5,local,class=CODE,merge=1,delta=2
    34                           	psect	text6,local,class=CODE,merge=1,delta=2
    35                           	psect	text7,local,class=CODE,merge=1,delta=2
    36                           	psect	text8,local,class=CODE,merge=1,delta=2
    37                           	psect	text9,local,class=CODE,merge=1,delta=2
    38                           	psect	text10,local,class=CODE,merge=1,delta=2
    39                           	psect	text11,local,class=CODE,merge=1,delta=2
    40                           	psect	text12,local,class=CODE,merge=1,delta=2
    41                           	psect	text13,local,class=CODE,merge=1,delta=2
    42                           	psect	text14,local,class=CODE,merge=1,delta=2
    43                           	psect	text15,local,class=CODE,merge=1,delta=2
    44                           	psect	text16,local,class=CODE,merge=1,delta=2
    45                           	psect	text17,local,class=CODE,merge=1,delta=2,group=2
    46                           	psect	text18,local,class=CODE,merge=1,delta=2
    47                           	psect	text19,local,class=CODE,merge=1,delta=2
    48                           	psect	text20,local,class=CODE,merge=1,delta=2
    49                           	psect	text21,local,class=CODE,merge=1,delta=2
    50                           	psect	text22,local,class=CODE,merge=1,delta=2
    51                           	psect	text23,local,class=CODE,merge=1,delta=2
    52                           	psect	text24,local,class=CODE,merge=1,delta=2
    53                           	psect	text25,local,class=CODE,merge=1,delta=2
    54                           	psect	text26,local,class=CODE,merge=1,delta=2
    55                           	psect	text27,local,class=CODE,merge=1,delta=2
    56                           	psect	text28,local,class=CODE,merge=1,delta=2
    57                           	psect	text29,local,class=CODE,merge=1,delta=2
    58                           	psect	text30,local,class=CODE,merge=1,delta=2
    59                           	psect	text31,local,class=CODE,merge=1,inline,delta=2
    60                           	psect	text32,local,class=CODE,merge=1,delta=2
    61                           	psect	text33,local,class=CODE,merge=1,delta=2,group=1
    62                           	psect	text34,local,class=CODE,merge=1,delta=2,group=1
    63                           	psect	text35,local,class=CODE,merge=1,delta=2
    64                           	psect	text36,local,class=CODE,merge=1,delta=2
    65                           	psect	text37,local,class=CODE,merge=1,delta=2
    66                           	psect	text38,local,class=CODE,merge=1,delta=2
    67                           	psect	text39,local,class=CODE,merge=1,delta=2,group=1
    68                           	psect	config,global,abs,ovrld,class=CONFIG,space=4,delta=2,noexec
    69                           	dabs	1,0x7E,2
    70     0000                     
    71                           ; Generated 07/09/2023 GMT
    72                           ; 
    73                           ; Copyright © 2023, Microchip Technology Inc. and its subsidiaries ("Microchip")
    74                           ; All rights reserved.
    75                           ; 
    76                           ; This software is developed by Microchip Technology Inc. and its subsidiaries ("Microch
      +                          ip").
    77                           ; 
    78                           ; Redistribution and use in source and binary forms, with or without modification, are
    79                           ; permitted provided that the following conditions are met:
    80                           ; 
    81                           ;     1. Redistributions of source code must retain the above copyright notice, this lis
      +                          t of
    82                           ;        conditions and the following disclaimer.
    83                           ; 
    84                           ;     2. Redistributions in binary form must reproduce the above copyright notice, this 
      +                          list
    85                           ;        of conditions and the following disclaimer in the documentation and/or other
    86                           ;        materials provided with the distribution. Publication is not required when
    87                           ;        this file is used in an embedded application.
    88                           ; 
    89                           ;     3. Microchip's name may not be used to endorse or promote products derived from th
      +                          is
    90                           ;        software without specific prior written permission.
    91                           ; 
    92                           ; THIS SOFTWARE IS PROVIDED BY MICROCHIP "AS IS" AND ANY EXPRESS OR IMPLIED WARRANTIES,
    93                           ; INCLUDING, BUT NOT LIMITED TO, THE IMPLIED WARRANTIES OF MERCHANTABILITY AND FITNESS F
      +                          OR
    94                           ; PURPOSE ARE DISCLAIMED.  IN NO EVENT SHALL MICROCHIP BE LIABLE FOR ANY DIRECT, INDIREC
      +                          T,
    95                           ; INCIDENTAL, SPECIAL, EXEMPLARY, OR CONSEQUENTIAL DAMAGES (INCLUDING BUT NOT LIMITED TO
    96                           ; PROCUREMENT OF SUBSTITUTE GOODS OR SERVICES; LOSS OF USE, DATA OR PROFITS; OR BUSINESS
    97                           ; INTERRUPTION) HOWSOEVER CAUSED AND ON ANY THEORY OF LIABILITY, WHETHER IN CONTRACT, ST
      +                          RICT
    98                           ; LIABILITY, OR TORT (INCLUDING NEGLIGENCE OR OTHERWISE) ARISING IN ANY WAY OUT OF THE U
      +                          SE OF
    99                           ; THIS SOFTWARE, EVEN IF ADVISED OF THE POSSIBILITY OF SUCH DAMAGE.
   100                           ; 
   101                           ; 
   102                           ; Code-generator required, PIC16F1718 Definitions
   103                           ; 
   104                           ; SFR Addresses
   105     0000                     	;# 
   106     0001                     	;# 
   107     0002                     	;# 
   108     0003                     	;# 
   109     0004                     	;# 
   110     0005                     	;# 
   111     0006                     	;# 
   112     0007                     	;# 
   113     0008                     	;# 
   114     0009                     	;# 
   115     000A                     	;# 
   116     000B                     	;# 
   117     000C                     	;# 
   118     000D                     	;# 
   119     000E                     	;# 
   120     0010                     	;# 
   121     0011                     	;# 
   122     0012                     	;# 
   123     0013                     	;# 
   124     0015                     	;# 
   125     0016                     	;# 
   126     0016                     	;# 
   127     0017                     	;# 
   128     0018                     	;# 
   129     0019                     	;# 
   130     001A                     	;# 
   131     001B                     	;# 
   132     001C                     	;# 
   133     008C                     	;# 
   134     008D                     	;# 
   135     008E                     	;# 
   136     0090                     	;# 
   137     0091                     	;# 
   138     0092                     	;# 
   139     0093                     	;# 
   140     0095                     	;# 
   141     0096                     	;# 
   142     0097                     	;# 
   143     0098                     	;# 
   144     0099                     	;# 
   145     009A                     	;# 
   146     009B                     	;# 
   147     009B                     	;# 
   148     009C                     	;# 
   149     009D                     	;# 
   150     009E                     	;# 
   151     009F                     	;# 
   152     010C                     	;# 
   153     010D                     	;# 
   154     010E                     	;# 
   155     0111                     	;# 
   156     0112                     	;# 
   157     0113                     	;# 
   158     0114                     	;# 
   159     0115                     	;# 
   160     0116                     	;# 
   161     0117                     	;# 
   162     0118                     	;# 
   163     0119                     	;# 
   164     011A                     	;# 
   165     011B                     	;# 
   166     011B                     	;# 
   167     011C                     	;# 
   168     018C                     	;# 
   169     018D                     	;# 
   170     018E                     	;# 
   171     0191                     	;# 
   172     0191                     	;# 
   173     0192                     	;# 
   174     0193                     	;# 
   175     0193                     	;# 
   176     0194                     	;# 
   177     0195                     	;# 
   178     0196                     	;# 
   179     0197                     	;# 
   180     0199                     	;# 
   181     0199                     	;# 
   182     0199                     	;# 
   183     019A                     	;# 
   184     019A                     	;# 
   185     019A                     	;# 
   186     019B                     	;# 
   187     019B                     	;# 
   188     019B                     	;# 
   189     019B                     	;# 
   190     019B                     	;# 
   191     019C                     	;# 
   192     019C                     	;# 
   193     019C                     	;# 
   194     019D                     	;# 
   195     019D                     	;# 
   196     019D                     	;# 
   197     019E                     	;# 
   198     019E                     	;# 
   199     019E                     	;# 
   200     019F                     	;# 
   201     019F                     	;# 
   202     019F                     	;# 
   203     019F                     	;# 
   204     019F                     	;# 
   205     020C                     	;# 
   206     020D                     	;# 
   207     020E                     	;# 
   208     0210                     	;# 
   209     0211                     	;# 
   210     0211                     	;# 
   211     0212                     	;# 
   212     0212                     	;# 
   213     0213                     	;# 
   214     0213                     	;# 
   215     0214                     	;# 
   216     0214                     	;# 
   217     0215                     	;# 
   218     0215                     	;# 
   219     0215                     	;# 
   220     0215                     	;# 
   221     0216                     	;# 
   222     0216                     	;# 
   223     0217                     	;# 
   224     0217                     	;# 
   225     028C                     	;# 
   226     028D                     	;# 
   227     028E                     	;# 
   228     0291                     	;# 
   229     0291                     	;# 
   230     0292                     	;# 
   231     0293                     	;# 
   232     0293                     	;# 
   233     0298                     	;# 
   234     0298                     	;# 
   235     0299                     	;# 
   236     029A                     	;# 
   237     029A                     	;# 
   238     029E                     	;# 
   239     030C                     	;# 
   240     030D                     	;# 
   241     030E                     	;# 
   242     038C                     	;# 
   243     038D                     	;# 
   244     038E                     	;# 
   245     0390                     	;# 
   246     0391                     	;# 
   247     0392                     	;# 
   248     0393                     	;# 
   249     0394                     	;# 
   250     0395                     	;# 
   251     0396                     	;# 
   252     0397                     	;# 
   253     0398                     	;# 
   254     0399                     	;# 
   255     039D                     	;# 
   256     039E                     	;# 
   257     039F                     	;# 
   258     0415                     	;# 
   259     0416                     	;# 
   260     0417                     	;# 
   261     041C                     	;# 
   262     041D                     	;# 
   263     041E                     	;# 
   264     0498                     	;# 
   265     0498                     	;# 
   266     0499                     	;# 
   267     049A                     	;# 
   268     049B                     	;# 
   269     049B                     	;# 
   270     049C                     	;# 
   271     049D                     	;# 
   272     049E                     	;# 
   273     049F                     	;# 
   274     0511                     	;# 
   275     0515                     	;# 
   276     0617                     	;# 
   277     0618                     	;# 
   278     0619                     	;# 
   279     0619                     	;# 
   280     061A                     	;# 
   281     061B                     	;# 
   282     061C                     	;# 
   283     061C                     	;# 
   284     0691                     	;# 
   285     0692                     	;# 
   286     0693                     	;# 
   287     0694                     	;# 
   288     0695                     	;# 
   289     0696                     	;# 
   290     0697                     	;# 
   291     0698                     	;# 
   292     0699                     	;# 
   293     069A                     	;# 
   294     069B                     	;# 
   295     069C                     	;# 
   296     069D                     	;# 
   297     069E                     	;# 
   298     069F                     	;# 
   299     0E0F                     	;# 
   300     0E10                     	;# 
   301     0E11                     	;# 
   302     0E12                     	;# 
   303     0E13                     	;# 
   304     0E14                     	;# 
   305     0E15                     	;# 
   306     0E17                     	;# 
   307     0E20                     	;# 
   308     0E21                     	;# 
   309     0E22                     	;# 
   310     0E24                     	;# 
   311     0E25                     	;# 
   312     0E28                     	;# 
   313     0E29                     	;# 
   314     0E2A                     	;# 
   315     0E2B                     	;# 
   316     0E90                     	;# 
   317     0E91                     	;# 
   318     0E92                     	;# 
   319     0E93                     	;# 
   320     0E94                     	;# 
   321     0E95                     	;# 
   322     0E96                     	;# 
   323     0E97                     	;# 
   324     0E98                     	;# 
   325     0E99                     	;# 
   326     0E9A                     	;# 
   327     0E9B                     	;# 
   328     0E9C                     	;# 
   329     0E9D                     	;# 
   330     0E9E                     	;# 
   331     0E9F                     	;# 
   332     0EA0                     	;# 
   333     0EA1                     	;# 
   334     0EA2                     	;# 
   335     0EA3                     	;# 
   336     0EA4                     	;# 
   337     0EA5                     	;# 
   338     0EA6                     	;# 
   339     0EA7                     	;# 
   340     0F0F                     	;# 
   341     0F10                     	;# 
   342     0F11                     	;# 
   343     0F12                     	;# 
   344     0F13                     	;# 
   345     0F14                     	;# 
   346     0F15                     	;# 
   347     0F16                     	;# 
   348     0F17                     	;# 
   349     0F18                     	;# 
   350     0F19                     	;# 
   351     0F1A                     	;# 
   352     0F1B                     	;# 
   353     0F1C                     	;# 
   354     0F1D                     	;# 
   355     0F1E                     	;# 
   356     0F1F                     	;# 
   357     0F20                     	;# 
   358     0F21                     	;# 
   359     0F22                     	;# 
   360     0F23                     	;# 
   361     0F24                     	;# 
   362     0F25                     	;# 
   363     0F26                     	;# 
   364     0F27                     	;# 
   365     0F28                     	;# 
   366     0F29                     	;# 
   367     0F2A                     	;# 
   368     0F2B                     	;# 
   369     0F2C                     	;# 
   370     0F2D                     	;# 
   371     0F2E                     	;# 
   372     0F2F                     	;# 
   373     0F30                     	;# 
   374     0F31                     	;# 
   375     0F32                     	;# 
   376     0F33                     	;# 
   377     0F34                     	;# 
   378     0F35                     	;# 
   379     0F36                     	;# 
   380     0F37                     	;# 
   381     0FE4                     	;# 
   382     0FE5                     	;# 
   383     0FE6                     	;# 
   384     0FE7                     	;# 
   385     0FE8                     	;# 
   386     0FE9                     	;# 
   387     0FEA                     	;# 
   388     0FEB                     	;# 
   389     0FED                     	;# 
   390     0FEE                     	;# 
   391     0FEF                     	;# 
   392     0000                     	;# 
   393     0001                     	;# 
   394     0002                     	;# 
   395     0003                     	;# 
   396     0004                     	;# 
   397     0005                     	;# 
   398     0006                     	;# 
   399     0007                     	;# 
   400     0008                     	;# 
   401     0009                     	;# 
   402     000A                     	;# 
   403     000B                     	;# 
   404     000C                     	;# 
   405     000D                     	;# 
   406     000E                     	;# 
   407     0010                     	;# 
   408     0011                     	;# 
   409     0012                     	;# 
   410     0013                     	;# 
   411     0015                     	;# 
   412     0016                     	;# 
   413     0016                     	;# 
   414     0017                     	;# 
   415     0018                     	;# 
   416     0019                     	;# 
   417     001A                     	;# 
   418     001B                     	;# 
   419     001C                     	;# 
   420     008C                     	;# 
   421     008D                     	;# 
   422     008E                     	;# 
   423     0090                     	;# 
   424     0091                     	;# 
   425     0092                     	;# 
   426     0093                     	;# 
   427     0095                     	;# 
   428     0096                     	;# 
   429     0097                     	;# 
   430     0098                     	;# 
   431     0099                     	;# 
   432     009A                     	;# 
   433     009B                     	;# 
   434     009B                     	;# 
   435     009C                     	;# 
   436     009D                     	;# 
   437     009E                     	;# 
   438     009F                     	;# 
   439     010C                     	;# 
   440     010D                     	;# 
   441     010E                     	;# 
   442     0111                     	;# 
   443     0112                     	;# 
   444     0113                     	;# 
   445     0114                     	;# 
   446     0115                     	;# 
   447     0116                     	;# 
   448     0117                     	;# 
   449     0118                     	;# 
   450     0119                     	;# 
   451     011A                     	;# 
   452     011B                     	;# 
   453     011B                     	;# 
   454     011C                     	;# 
   455     018C                     	;# 
   456     018D                     	;# 
   457     018E                     	;# 
   458     0191                     	;# 
   459     0191                     	;# 
   460     0192                     	;# 
   461     0193                     	;# 
   462     0193                     	;# 
   463     0194                     	;# 
   464     0195                     	;# 
   465     0196                     	;# 
   466     0197                     	;# 
   467     0199                     	;# 
   468     0199                     	;# 
   469     0199                     	;# 
   470     019A                     	;# 
   471     019A                     	;# 
   472     019A                     	;# 
   473     019B                     	;# 
   474     019B                     	;# 
   475     019B                     	;# 
   476     019B                     	;# 
   477     019B                     	;# 
   478     019C                     	;# 
   479     019C                     	;# 
   480     019C                     	;# 
   481     019D                     	;# 
   482     019D                     	;# 
   483     019D                     	;# 
   484     019E                     	;# 
   485     019E                     	;# 
   486     019E                     	;# 
   487     019F                     	;# 
   488     019F                     	;# 
   489     019F                     	;# 
   490     019F                     	;# 
   491     019F                     	;# 
   492     020C                     	;# 
   493     020D                     	;# 
   494     020E                     	;# 
   495     0210                     	;# 
   496     0211                     	;# 
   497     0211                     	;# 
   498     0212                     	;# 
   499     0212                     	;# 
   500     0213                     	;# 
   501     0213                     	;# 
   502     0214                     	;# 
   503     0214                     	;# 
   504     0215                     	;# 
   505     0215                     	;# 
   506     0215                     	;# 
   507     0215                     	;# 
   508     0216                     	;# 
   509     0216                     	;# 
   510     0217                     	;# 
   511     0217                     	;# 
   512     028C                     	;# 
   513     028D                     	;# 
   514     028E                     	;# 
   515     0291                     	;# 
   516     0291                     	;# 
   517     0292                     	;# 
   518     0293                     	;# 
   519     0293                     	;# 
   520     0298                     	;# 
   521     0298                     	;# 
   522     0299                     	;# 
   523     029A                     	;# 
   524     029A                     	;# 
   525     029E                     	;# 
   526     030C                     	;# 
   527     030D                     	;# 
   528     030E                     	;# 
   529     038C                     	;# 
   530     038D                     	;# 
   531     038E                     	;# 
   532     0390                     	;# 
   533     0391                     	;# 
   534     0392                     	;# 
   535     0393                     	;# 
   536     0394                     	;# 
   537     0395                     	;# 
   538     0396                     	;# 
   539     0397                     	;# 
   540     0398                     	;# 
   541     0399                     	;# 
   542     039D                     	;# 
   543     039E                     	;# 
   544     039F                     	;# 
   545     0415                     	;# 
   546     0416                     	;# 
   547     0417                     	;# 
   548     041C                     	;# 
   549     041D                     	;# 
   550     041E                     	;# 
   551     0498                     	;# 
   552     0498                     	;# 
   553     0499                     	;# 
   554     049A                     	;# 
   555     049B                     	;# 
   556     049B                     	;# 
   557     049C                     	;# 
   558     049D                     	;# 
   559     049E                     	;# 
   560     049F                     	;# 
   561     0511                     	;# 
   562     0515                     	;# 
   563     0617                     	;# 
   564     0618                     	;# 
   565     0619                     	;# 
   566     0619                     	;# 
   567     061A                     	;# 
   568     061B                     	;# 
   569     061C                     	;# 
   570     061C                     	;# 
   571     0691                     	;# 
   572     0692                     	;# 
   573     0693                     	;# 
   574     0694                     	;# 
   575     0695                     	;# 
   576     0696                     	;# 
   577     0697                     	;# 
   578     0698                     	;# 
   579     0699                     	;# 
   580     069A                     	;# 
   581     069B                     	;# 
   582     069C                     	;# 
   583     069D                     	;# 
   584     069E                     	;# 
   585     069F                     	;# 
   586     0E0F                     	;# 
   587     0E10                     	;# 
   588     0E11                     	;# 
   589     0E12                     	;# 
   590     0E13                     	;# 
   591     0E14                     	;# 
   592     0E15                     	;# 
   593     0E17                     	;# 
   594     0E20                     	;# 
   595     0E21                     	;# 
   596     0E22                     	;# 
   597     0E24                     	;# 
   598     0E25                     	;# 
   599     0E28                     	;# 
   600     0E29                     	;# 
   601     0E2A                     	;# 
   602     0E2B                     	;# 
   603     0E90                     	;# 
   604     0E91                     	;# 
   605     0E92                     	;# 
   606     0E93                     	;# 
   607     0E94                     	;# 
   608     0E95                     	;# 
   609     0E96                     	;# 
   610     0E97                     	;# 
   611     0E98                     	;# 
   612     0E99                     	;# 
   613     0E9A                     	;# 
   614     0E9B                     	;# 
   615     0E9C                     	;# 
   616     0E9D                     	;# 
   617     0E9E                     	;# 
   618     0E9F                     	;# 
   619     0EA0                     	;# 
   620     0EA1                     	;# 
   621     0EA2                     	;# 
   622     0EA3                     	;# 
   623     0EA4                     	;# 
   624     0EA5                     	;# 
   625     0EA6                     	;# 
   626     0EA7                     	;# 
   627     0F0F                     	;# 
   628     0F10                     	;# 
   629     0F11                     	;# 
   630     0F12                     	;# 
   631     0F13                     	;# 
   632     0F14                     	;# 
   633     0F15                     	;# 
   634     0F16                     	;# 
   635     0F17                     	;# 
   636     0F18                     	;# 
   637     0F19                     	;# 
   638     0F1A                     	;# 
   639     0F1B                     	;# 
   640     0F1C                     	;# 
   641     0F1D                     	;# 
   642     0F1E                     	;# 
   643     0F1F                     	;# 
   644     0F20                     	;# 
   645     0F21                     	;# 
   646     0F22                     	;# 
   647     0F23                     	;# 
   648     0F24                     	;# 
   649     0F25                     	;# 
   650     0F26                     	;# 
   651     0F27                     	;# 
   652     0F28                     	;# 
   653     0F29                     	;# 
   654     0F2A                     	;# 
   655     0F2B                     	;# 
   656     0F2C                     	;# 
   657     0F2D                     	;# 
   658     0F2E                     	;# 
   659     0F2F                     	;# 
   660     0F30                     	;# 
   661     0F31                     	;# 
   662     0F32                     	;# 
   663     0F33                     	;# 
   664     0F34                     	;# 
   665     0F35                     	;# 
   666     0F36                     	;# 
   667     0F37                     	;# 
   668     0FE4                     	;# 
   669     0FE5                     	;# 
   670     0FE6                     	;# 
   671     0FE7                     	;# 
   672     0FE8                     	;# 
   673     0FE9                     	;# 
   674     0FEA                     	;# 
   675     0FEB                     	;# 
   676     0FED                     	;# 
   677     0FEE                     	;# 
   678     0FEF                     	;# 
   679     0000                     	;# 
   680     0001                     	;# 
   681     0002                     	;# 
   682     0003                     	;# 
   683     0004                     	;# 
   684     0005                     	;# 
   685     0006                     	;# 
   686     0007                     	;# 
   687     0008                     	;# 
   688     0009                     	;# 
   689     000A                     	;# 
   690     000B                     	;# 
   691     000C                     	;# 
   692     000D                     	;# 
   693     000E                     	;# 
   694     0010                     	;# 
   695     0011                     	;# 
   696     0012                     	;# 
   697     0013                     	;# 
   698     0015                     	;# 
   699     0016                     	;# 
   700     0016                     	;# 
   701     0017                     	;# 
   702     0018                     	;# 
   703     0019                     	;# 
   704     001A                     	;# 
   705     001B                     	;# 
   706     001C                     	;# 
   707     008C                     	;# 
   708     008D                     	;# 
   709     008E                     	;# 
   710     0090                     	;# 
   711     0091                     	;# 
   712     0092                     	;# 
   713     0093                     	;# 
   714     0095                     	;# 
   715     0096                     	;# 
   716     0097                     	;# 
   717     0098                     	;# 
   718     0099                     	;# 
   719     009A                     	;# 
   720     009B                     	;# 
   721     009B                     	;# 
   722     009C                     	;# 
   723     009D                     	;# 
   724     009E                     	;# 
   725     009F                     	;# 
   726     010C                     	;# 
   727     010D                     	;# 
   728     010E                     	;# 
   729     0111                     	;# 
   730     0112                     	;# 
   731     0113                     	;# 
   732     0114                     	;# 
   733     0115                     	;# 
   734     0116                     	;# 
   735     0117                     	;# 
   736     0118                     	;# 
   737     0119                     	;# 
   738     011A                     	;# 
   739     011B                     	;# 
   740     011B                     	;# 
   741     011C                     	;# 
   742     018C                     	;# 
   743     018D                     	;# 
   744     018E                     	;# 
   745     0191                     	;# 
   746     0191                     	;# 
   747     0192                     	;# 
   748     0193                     	;# 
   749     0193                     	;# 
   750     0194                     	;# 
   751     0195                     	;# 
   752     0196                     	;# 
   753     0197                     	;# 
   754     0199                     	;# 
   755     0199                     	;# 
   756     0199                     	;# 
   757     019A                     	;# 
   758     019A                     	;# 
   759     019A                     	;# 
   760     019B                     	;# 
   761     019B                     	;# 
   762     019B                     	;# 
   763     019B                     	;# 
   764     019B                     	;# 
   765     019C                     	;# 
   766     019C                     	;# 
   767     019C                     	;# 
   768     019D                     	;# 
   769     019D                     	;# 
   770     019D                     	;# 
   771     019E                     	;# 
   772     019E                     	;# 
   773     019E                     	;# 
   774     019F                     	;# 
   775     019F                     	;# 
   776     019F                     	;# 
   777     019F                     	;# 
   778     019F                     	;# 
   779     020C                     	;# 
   780     020D                     	;# 
   781     020E                     	;# 
   782     0210                     	;# 
   783     0211                     	;# 
   784     0211                     	;# 
   785     0212                     	;# 
   786     0212                     	;# 
   787     0213                     	;# 
   788     0213                     	;# 
   789     0214                     	;# 
   790     0214                     	;# 
   791     0215                     	;# 
   792     0215                     	;# 
   793     0215                     	;# 
   794     0215                     	;# 
   795     0216                     	;# 
   796     0216                     	;# 
   797     0217                     	;# 
   798     0217                     	;# 
   799     028C                     	;# 
   800     028D                     	;# 
   801     028E                     	;# 
   802     0291                     	;# 
   803     0291                     	;# 
   804     0292                     	;# 
   805     0293                     	;# 
   806     0293                     	;# 
   807     0298                     	;# 
   808     0298                     	;# 
   809     0299                     	;# 
   810     029A                     	;# 
   811     029A                     	;# 
   812     029E                     	;# 
   813     030C                     	;# 
   814     030D                     	;# 
   815     030E                     	;# 
   816     038C                     	;# 
   817     038D                     	;# 
   818     038E                     	;# 
   819     0390                     	;# 
   820     0391                     	;# 
   821     0392                     	;# 
   822     0393                     	;# 
   823     0394                     	;# 
   824     0395                     	;# 
   825     0396                     	;# 
   826     0397                     	;# 
   827     0398                     	;# 
   828     0399                     	;# 
   829     039D                     	;# 
   830     039E                     	;# 
   831     039F                     	;# 
   832     0415                     	;# 
   833     0416                     	;# 
   834     0417                     	;# 
   835     041C                     	;# 
   836     041D                     	;# 
   837     041E                     	;# 
   838     0498                     	;# 
   839     0498                     	;# 
   840     0499                     	;# 
   841     049A                     	;# 
   842     049B                     	;# 
   843     049B                     	;# 
   844     049C                     	;# 
   845     049D                     	;# 
   846     049E                     	;# 
   847     049F                     	;# 
   848     0511                     	;# 
   849     0515                     	;# 
   850     0617                     	;# 
   851     0618                     	;# 
   852     0619                     	;# 
   853     0619                     	;# 
   854     061A                     	;# 
   855     061B                     	;# 
   856     061C                     	;# 
   857     061C                     	;# 
   858     0691                     	;# 
   859     0692                     	;# 
   860     0693                     	;# 
   861     0694                     	;# 
   862     0695                     	;# 
   863     0696                     	;# 
   864     0697                     	;# 
   865     0698                     	;# 
   866     0699                     	;# 
   867     069A                     	;# 
   868     069B                     	;# 
   869     069C                     	;# 
   870     069D                     	;# 
   871     069E                     	;# 
   872     069F                     	;# 
   873     0E0F                     	;# 
   874     0E10                     	;# 
   875     0E11                     	;# 
   876     0E12                     	;# 
   877     0E13                     	;# 
   878     0E14                     	;# 
   879     0E15                     	;# 
   880     0E17                     	;# 
   881     0E20                     	;# 
   882     0E21                     	;# 
   883     0E22                     	;# 
   884     0E24                     	;# 
   885     0E25                     	;# 
   886     0E28                     	;# 
   887     0E29                     	;# 
   888     0E2A                     	;# 
   889     0E2B                     	;# 
   890     0E90                     	;# 
   891     0E91                     	;# 
   892     0E92                     	;# 
   893     0E93                     	;# 
   894     0E94                     	;# 
   895     0E95                     	;# 
   896     0E96                     	;# 
   897     0E97                     	;# 
   898     0E98                     	;# 
   899     0E99                     	;# 
   900     0E9A                     	;# 
   901     0E9B                     	;# 
   902     0E9C                     	;# 
   903     0E9D                     	;# 
   904     0E9E                     	;# 
   905     0E9F                     	;# 
   906     0EA0                     	;# 
   907     0EA1                     	;# 
   908     0EA2                     	;# 
   909     0EA3                     	;# 
   910     0EA4                     	;# 
   911     0EA5                     	;# 
   912     0EA6                     	;# 
   913     0EA7                     	;# 
   914     0F0F                     	;# 
   915     0F10                     	;# 
   916     0F11                     	;# 
   917     0F12                     	;# 
   918     0F13                     	;# 
   919     0F14                     	;# 
   920     0F15                     	;# 
   921     0F16                     	;# 
   922     0F17                     	;# 
   923     0F18                     	;# 
   924     0F19                     	;# 
   925     0F1A                     	;# 
   926     0F1B                     	;# 
   927     0F1C                     	;# 
   928     0F1D                     	;# 
   929     0F1E                     	;# 
   930     0F1F                     	;# 
   931     0F20                     	;# 
   932     0F21                     	;# 
   933     0F22                     	;# 
   934     0F23                     	;# 
   935     0F24                     	;# 
   936     0F25                     	;# 
   937     0F26                     	;# 
   938     0F27                     	;# 
   939     0F28                     	;# 
   940     0F29                     	;# 
   941     0F2A                     	;# 
   942     0F2B                     	;# 
   943     0F2C                     	;# 
   944     0F2D                     	;# 
   945     0F2E                     	;# 
   946     0F2F                     	;# 
   947     0F30                     	;# 
   948     0F31                     	;# 
   949     0F32                     	;# 
   950     0F33                     	;# 
   951     0F34                     	;# 
   952     0F35                     	;# 
   953     0F36                     	;# 
   954     0F37                     	;# 
   955     0FE4                     	;# 
   956     0FE5                     	;# 
   957     0FE6                     	;# 
   958     0FE7                     	;# 
   959     0FE8                     	;# 
   960     0FE9                     	;# 
   961     0FEA                     	;# 
   962     0FEB                     	;# 
   963     0FED                     	;# 
   964     0FEE                     	;# 
   965     0FEF                     	;# 
   966     0000                     	;# 
   967     0001                     	;# 
   968     0002                     	;# 
   969     0003                     	;# 
   970     0004                     	;# 
   971     0005                     	;# 
   972     0006                     	;# 
   973     0007                     	;# 
   974     0008                     	;# 
   975     0009                     	;# 
   976     000A                     	;# 
   977     000B                     	;# 
   978     000C                     	;# 
   979     000D                     	;# 
   980     000E                     	;# 
   981     0010                     	;# 
   982     0011                     	;# 
   983     0012                     	;# 
   984     0013                     	;# 
   985     0015                     	;# 
   986     0016                     	;# 
   987     0016                     	;# 
   988     0017                     	;# 
   989     0018                     	;# 
   990     0019                     	;# 
   991     001A                     	;# 
   992     001B                     	;# 
   993     001C                     	;# 
   994     008C                     	;# 
   995     008D                     	;# 
   996     008E                     	;# 
   997     0090                     	;# 
   998     0091                     	;# 
   999     0092                     	;# 
  1000     0093                     	;# 
  1001     0095                     	;# 
  1002     0096                     	;# 
  1003     0097                     	;# 
  1004     0098                     	;# 
  1005     0099                     	;# 
  1006     009A                     	;# 
  1007     009B                     	;# 
  1008     009B                     	;# 
  1009     009C                     	;# 
  1010     009D                     	;# 
  1011     009E                     	;# 
  1012     009F                     	;# 
  1013     010C                     	;# 
  1014     010D                     	;# 
  1015     010E                     	;# 
  1016     0111                     	;# 
  1017     0112                     	;# 
  1018     0113                     	;# 
  1019     0114                     	;# 
  1020     0115                     	;# 
  1021     0116                     	;# 
  1022     0117                     	;# 
  1023     0118                     	;# 
  1024     0119                     	;# 
  1025     011A                     	;# 
  1026     011B                     	;# 
  1027     011B                     	;# 
  1028     011C                     	;# 
  1029     018C                     	;# 
  1030     018D                     	;# 
  1031     018E                     	;# 
  1032     0191                     	;# 
  1033     0191                     	;# 
  1034     0192                     	;# 
  1035     0193                     	;# 
  1036     0193                     	;# 
  1037     0194                     	;# 
  1038     0195                     	;# 
  1039     0196                     	;# 
  1040     0197                     	;# 
  1041     0199                     	;# 
  1042     0199                     	;# 
  1043     0199                     	;# 
  1044     019A                     	;# 
  1045     019A                     	;# 
  1046     019A                     	;# 
  1047     019B                     	;# 
  1048     019B                     	;# 
  1049     019B                     	;# 
  1050     019B                     	;# 
  1051     019B                     	;# 
  1052     019C                     	;# 
  1053     019C                     	;# 
  1054     019C                     	;# 
  1055     019D                     	;# 
  1056     019D                     	;# 
  1057     019D                     	;# 
  1058     019E                     	;# 
  1059     019E                     	;# 
  1060     019E                     	;# 
  1061     019F                     	;# 
  1062     019F                     	;# 
  1063     019F                     	;# 
  1064     019F                     	;# 
  1065     019F                     	;# 
  1066     020C                     	;# 
  1067     020D                     	;# 
  1068     020E                     	;# 
  1069     0210                     	;# 
  1070     0211                     	;# 
  1071     0211                     	;# 
  1072     0212                     	;# 
  1073     0212                     	;# 
  1074     0213                     	;# 
  1075     0213                     	;# 
  1076     0214                     	;# 
  1077     0214                     	;# 
  1078     0215                     	;# 
  1079     0215                     	;# 
  1080     0215                     	;# 
  1081     0215                     	;# 
  1082     0216                     	;# 
  1083     0216                     	;# 
  1084     0217                     	;# 
  1085     0217                     	;# 
  1086     028C                     	;# 
  1087     028D                     	;# 
  1088     028E                     	;# 
  1089     0291                     	;# 
  1090     0291                     	;# 
  1091     0292                     	;# 
  1092     0293                     	;# 
  1093     0293                     	;# 
  1094     0298                     	;# 
  1095     0298                     	;# 
  1096     0299                     	;# 
  1097     029A                     	;# 
  1098     029A                     	;# 
  1099     029E                     	;# 
  1100     030C                     	;# 
  1101     030D                     	;# 
  1102     030E                     	;# 
  1103     038C                     	;# 
  1104     038D                     	;# 
  1105     038E                     	;# 
  1106     0390                     	;# 
  1107     0391                     	;# 
  1108     0392                     	;# 
  1109     0393                     	;# 
  1110     0394                     	;# 
  1111     0395                     	;# 
  1112     0396                     	;# 
  1113     0397                     	;# 
  1114     0398                     	;# 
  1115     0399                     	;# 
  1116     039D                     	;# 
  1117     039E                     	;# 
  1118     039F                     	;# 
  1119     0415                     	;# 
  1120     0416                     	;# 
  1121     0417                     	;# 
  1122     041C                     	;# 
  1123     041D                     	;# 
  1124     041E                     	;# 
  1125     0498                     	;# 
  1126     0498                     	;# 
  1127     0499                     	;# 
  1128     049A                     	;# 
  1129     049B                     	;# 
  1130     049B                     	;# 
  1131     049C                     	;# 
  1132     049D                     	;# 
  1133     049E                     	;# 
  1134     049F                     	;# 
  1135     0511                     	;# 
  1136     0515                     	;# 
  1137     0617                     	;# 
  1138     0618                     	;# 
  1139     0619                     	;# 
  1140     0619                     	;# 
  1141     061A                     	;# 
  1142     061B                     	;# 
  1143     061C                     	;# 
  1144     061C                     	;# 
  1145     0691                     	;# 
  1146     0692                     	;# 
  1147     0693                     	;# 
  1148     0694                     	;# 
  1149     0695                     	;# 
  1150     0696                     	;# 
  1151     0697                     	;# 
  1152     0698                     	;# 
  1153     0699                     	;# 
  1154     069A                     	;# 
  1155     069B                     	;# 
  1156     069C                     	;# 
  1157     069D                     	;# 
  1158     069E                     	;# 
  1159     069F                     	;# 
  1160     0E0F                     	;# 
  1161     0E10                     	;# 
  1162     0E11                     	;# 
  1163     0E12                     	;# 
  1164     0E13                     	;# 
  1165     0E14                     	;# 
  1166     0E15                     	;# 
  1167     0E17                     	;# 
  1168     0E20                     	;# 
  1169     0E21                     	;# 
  1170     0E22                     	;# 
  1171     0E24                     	;# 
  1172     0E25                     	;# 
  1173     0E28                     	;# 
  1174     0E29                     	;# 
  1175     0E2A                     	;# 
  1176     0E2B                     	;# 
  1177     0E90                     	;# 
  1178     0E91                     	;# 
  1179     0E92                     	;# 
  1180     0E93                     	;# 
  1181     0E94                     	;# 
  1182     0E95                     	;# 
  1183     0E96                     	;# 
  1184     0E97                     	;# 
  1185     0E98                     	;# 
  1186     0E99                     	;# 
  1187     0E9A                     	;# 
  1188     0E9B                     	;# 
  1189     0E9C                     	;# 
  1190     0E9D                     	;# 
  1191     0E9E                     	;# 
  1192     0E9F                     	;# 
  1193     0EA0                     	;# 
  1194     0EA1                     	;# 
  1195     0EA2                     	;# 
  1196     0EA3                     	;# 
  1197     0EA4                     	;# 
  1198     0EA5                     	;# 
  1199     0EA6                     	;# 
  1200     0EA7                     	;# 
  1201     0F0F                     	;# 
  1202     0F10                     	;# 
  1203     0F11                     	;# 
  1204     0F12                     	;# 
  1205     0F13                     	;# 
  1206     0F14                     	;# 
  1207     0F15                     	;# 
  1208     0F16                     	;# 
  1209     0F17                     	;# 
  1210     0F18                     	;# 
  1211     0F19                     	;# 
  1212     0F1A                     	;# 
  1213     0F1B                     	;# 
  1214     0F1C                     	;# 
  1215     0F1D                     	;# 
  1216     0F1E                     	;# 
  1217     0F1F                     	;# 
  1218     0F20                     	;# 
  1219     0F21                     	;# 
  1220     0F22                     	;# 
  1221     0F23                     	;# 
  1222     0F24                     	;# 
  1223     0F25                     	;# 
  1224     0F26                     	;# 
  1225     0F27                     	;# 
  1226     0F28                     	;# 
  1227     0F29                     	;# 
  1228     0F2A                     	;# 
  1229     0F2B                     	;# 
  1230     0F2C                     	;# 
  1231     0F2D                     	;# 
  1232     0F2E                     	;# 
  1233     0F2F                     	;# 
  1234     0F30                     	;# 
  1235     0F31                     	;# 
  1236     0F32                     	;# 
  1237     0F33                     	;# 
  1238     0F34                     	;# 
  1239     0F35                     	;# 
  1240     0F36                     	;# 
  1241     0F37                     	;# 
  1242     0FE4                     	;# 
  1243     0FE5                     	;# 
  1244     0FE6                     	;# 
  1245     0FE7                     	;# 
  1246     0FE8                     	;# 
  1247     0FE9                     	;# 
  1248     0FEA                     	;# 
  1249     0FEB                     	;# 
  1250     0FED                     	;# 
  1251     0FEE                     	;# 
  1252     0FEF                     	;# 
  1253     0000                     	;# 
  1254     0001                     	;# 
  1255     0002                     	;# 
  1256     0003                     	;# 
  1257     0004                     	;# 
  1258     0005                     	;# 
  1259     0006                     	;# 
  1260     0007                     	;# 
  1261     0008                     	;# 
  1262     0009                     	;# 
  1263     000A                     	;# 
  1264     000B                     	;# 
  1265     000C                     	;# 
  1266     000D                     	;# 
  1267     000E                     	;# 
  1268     0010                     	;# 
  1269     0011                     	;# 
  1270     0012                     	;# 
  1271     0013                     	;# 
  1272     0015                     	;# 
  1273     0016                     	;# 
  1274     0016                     	;# 
  1275     0017                     	;# 
  1276     0018                     	;# 
  1277     0019                     	;# 
  1278     001A                     	;# 
  1279     001B                     	;# 
  1280     001C                     	;# 
  1281     008C                     	;# 
  1282     008D                     	;# 
  1283     008E                     	;# 
  1284     0090                     	;# 
  1285     0091                     	;# 
  1286     0092                     	;# 
  1287     0093                     	;# 
  1288     0095                     	;# 
  1289     0096                     	;# 
  1290     0097                     	;# 
  1291     0098                     	;# 
  1292     0099                     	;# 
  1293     009A                     	;# 
  1294     009B                     	;# 
  1295     009B                     	;# 
  1296     009C                     	;# 
  1297     009D                     	;# 
  1298     009E                     	;# 
  1299     009F                     	;# 
  1300     010C                     	;# 
  1301     010D                     	;# 
  1302     010E                     	;# 
  1303     0111                     	;# 
  1304     0112                     	;# 
  1305     0113                     	;# 
  1306     0114                     	;# 
  1307     0115                     	;# 
  1308     0116                     	;# 
  1309     0117                     	;# 
  1310     0118                     	;# 
  1311     0119                     	;# 
  1312     011A                     	;# 
  1313     011B                     	;# 
  1314     011B                     	;# 
  1315     011C                     	;# 
  1316     018C                     	;# 
  1317     018D                     	;# 
  1318     018E                     	;# 
  1319     0191                     	;# 
  1320     0191                     	;# 
  1321     0192                     	;# 
  1322     0193                     	;# 
  1323     0193                     	;# 
  1324     0194                     	;# 
  1325     0195                     	;# 
  1326     0196                     	;# 
  1327     0197                     	;# 
  1328     0199                     	;# 
  1329     0199                     	;# 
  1330     0199                     	;# 
  1331     019A                     	;# 
  1332     019A                     	;# 
  1333     019A                     	;# 
  1334     019B                     	;# 
  1335     019B                     	;# 
  1336     019B                     	;# 
  1337     019B                     	;# 
  1338     019B                     	;# 
  1339     019C                     	;# 
  1340     019C                     	;# 
  1341     019C                     	;# 
  1342     019D                     	;# 
  1343     019D                     	;# 
  1344     019D                     	;# 
  1345     019E                     	;# 
  1346     019E                     	;# 
  1347     019E                     	;# 
  1348     019F                     	;# 
  1349     019F                     	;# 
  1350     019F                     	;# 
  1351     019F                     	;# 
  1352     019F                     	;# 
  1353     020C                     	;# 
  1354     020D                     	;# 
  1355     020E                     	;# 
  1356     0210                     	;# 
  1357     0211                     	;# 
  1358     0211                     	;# 
  1359     0212                     	;# 
  1360     0212                     	;# 
  1361     0213                     	;# 
  1362     0213                     	;# 
  1363     0214                     	;# 
  1364     0214                     	;# 
  1365     0215                     	;# 
  1366     0215                     	;# 
  1367     0215                     	;# 
  1368     0215                     	;# 
  1369     0216                     	;# 
  1370     0216                     	;# 
  1371     0217                     	;# 
  1372     0217                     	;# 
  1373     028C                     	;# 
  1374     028D                     	;# 
  1375     028E                     	;# 
  1376     0291                     	;# 
  1377     0291                     	;# 
  1378     0292                     	;# 
  1379     0293                     	;# 
  1380     0293                     	;# 
  1381     0298                     	;# 
  1382     0298                     	;# 
  1383     0299                     	;# 
  1384     029A                     	;# 
  1385     029A                     	;# 
  1386     029E                     	;# 
  1387     030C                     	;# 
  1388     030D                     	;# 
  1389     030E                     	;# 
  1390     038C                     	;# 
  1391     038D                     	;# 
  1392     038E                     	;# 
  1393     0390                     	;# 
  1394     0391                     	;# 
  1395     0392                     	;# 
  1396     0393                     	;# 
  1397     0394                     	;# 
  1398     0395                     	;# 
  1399     0396                     	;# 
  1400     0397                     	;# 
  1401     0398                     	;# 
  1402     0399                     	;# 
  1403     039D                     	;# 
  1404     039E                     	;# 
  1405     039F                     	;# 
  1406     0415                     	;# 
  1407     0416                     	;# 
  1408     0417                     	;# 
  1409     041C                     	;# 
  1410     041D                     	;# 
  1411     041E                     	;# 
  1412     0498                     	;# 
  1413     0498                     	;# 
  1414     0499                     	;# 
  1415     049A                     	;# 
  1416     049B                     	;# 
  1417     049B                     	;# 
  1418     049C                     	;# 
  1419     049D                     	;# 
  1420     049E                     	;# 
  1421     049F                     	;# 
  1422     0511                     	;# 
  1423     0515                     	;# 
  1424     0617                     	;# 
  1425     0618                     	;# 
  1426     0619                     	;# 
  1427     0619                     	;# 
  1428     061A                     	;# 
  1429     061B                     	;# 
  1430     061C                     	;# 
  1431     061C                     	;# 
  1432     0691                     	;# 
  1433     0692                     	;# 
  1434     0693                     	;# 
  1435     0694                     	;# 
  1436     0695                     	;# 
  1437     0696                     	;# 
  1438     0697                     	;# 
  1439     0698                     	;# 
  1440     0699                     	;# 
  1441     069A                     	;# 
  1442     069B                     	;# 
  1443     069C                     	;# 
  1444     069D                     	;# 
  1445     069E                     	;# 
  1446     069F                     	;# 
  1447     0E0F                     	;# 
  1448     0E10                     	;# 
  1449     0E11                     	;# 
  1450     0E12                     	;# 
  1451     0E13                     	;# 
  1452     0E14                     	;# 
  1453     0E15                     	;# 
  1454     0E17                     	;# 
  1455     0E20                     	;# 
  1456     0E21                     	;# 
  1457     0E22                     	;# 
  1458     0E24                     	;# 
  1459     0E25                     	;# 
  1460     0E28                     	;# 
  1461     0E29                     	;# 
  1462     0E2A                     	;# 
  1463     0E2B                     	;# 
  1464     0E90                     	;# 
  1465     0E91                     	;# 
  1466     0E92                     	;# 
  1467     0E93                     	;# 
  1468     0E94                     	;# 
  1469     0E95                     	;# 
  1470     0E96                     	;# 
  1471     0E97                     	;# 
  1472     0E98                     	;# 
  1473     0E99                     	;# 
  1474     0E9A                     	;# 
  1475     0E9B                     	;# 
  1476     0E9C                     	;# 
  1477     0E9D                     	;# 
  1478     0E9E                     	;# 
  1479     0E9F                     	;# 
  1480     0EA0                     	;# 
  1481     0EA1                     	;# 
  1482     0EA2                     	;# 
  1483     0EA3                     	;# 
  1484     0EA4                     	;# 
  1485     0EA5                     	;# 
  1486     0EA6                     	;# 
  1487     0EA7                     	;# 
  1488     0F0F                     	;# 
  1489     0F10                     	;# 
  1490     0F11                     	;# 
  1491     0F12                     	;# 
  1492     0F13                     	;# 
  1493     0F14                     	;# 
  1494     0F15                     	;# 
  1495     0F16                     	;# 
  1496     0F17                     	;# 
  1497     0F18                     	;# 
  1498     0F19                     	;# 
  1499     0F1A                     	;# 
  1500     0F1B                     	;# 
  1501     0F1C                     	;# 
  1502     0F1D                     	;# 
  1503     0F1E                     	;# 
  1504     0F1F                     	;# 
  1505     0F20                     	;# 
  1506     0F21                     	;# 
  1507     0F22                     	;# 
  1508     0F23                     	;# 
  1509     0F24                     	;# 
  1510     0F25                     	;# 
  1511     0F26                     	;# 
  1512     0F27                     	;# 
  1513     0F28                     	;# 
  1514     0F29                     	;# 
  1515     0F2A                     	;# 
  1516     0F2B                     	;# 
  1517     0F2C                     	;# 
  1518     0F2D                     	;# 
  1519     0F2E                     	;# 
  1520     0F2F                     	;# 
  1521     0F30                     	;# 
  1522     0F31                     	;# 
  1523     0F32                     	;# 
  1524     0F33                     	;# 
  1525     0F34                     	;# 
  1526     0F35                     	;# 
  1527     0F36                     	;# 
  1528     0F37                     	;# 
  1529     0FE4                     	;# 
  1530     0FE5                     	;# 
  1531     0FE6                     	;# 
  1532     0FE7                     	;# 
  1533     0FE8                     	;# 
  1534     0FE9                     	;# 
  1535     0FEA                     	;# 
  1536     0FEB                     	;# 
  1537     0FED                     	;# 
  1538     0FEE                     	;# 
  1539     0FEF                     	;# 
  1540                           
  1541                           	psect	stringtext1
  1542     1800                     __pstringtext1:
  1543     1800                     write_test@msg:
  1544     1800  3448               	retlw	72
  1545     1801  3465               	retlw	101
  1546     1802  346C               	retlw	108
  1547     1803  346C               	retlw	108
  1548     1804  346F               	retlw	111
  1549     1805  3420               	retlw	32
  1550     1806  3466               	retlw	102
  1551     1807  3472               	retlw	114
  1552     1808  346F               	retlw	111
  1553     1809  346D               	retlw	109
  1554     180A  3420               	retlw	32
  1555     180B  3450               	retlw	80
  1556     180C  3449               	retlw	73
  1557     180D  3443               	retlw	67
  1558     180E  3431               	retlw	49
  1559     180F  3436               	retlw	54
  1560     1810  3446               	retlw	70
  1561     1811  3431               	retlw	49
  1562     1812  3437               	retlw	55
  1563     1813  3431               	retlw	49
  1564     1814  3438               	retlw	56
  1565     1815  3421               	retlw	33
  1566     1816  340D               	retlw	13
  1567     1817  340A               	retlw	10
  1568     1818  3400               	retlw	0
  1569     1819                     __end_ofwrite_test@msg:
  1570     0011                     _PIR1bits	set	17
  1571     008D                     _TRISBbits	set	141
  1572     008E                     _TRISCbits	set	142
  1573     04CF                     _SPLLEN	set	1231
  1574     04CE                     _IRCF3	set	1230
  1575     04CD                     _IRCF2	set	1229
  1576     04CC                     _IRCF1	set	1228
  1577     04CB                     _IRCF0	set	1227
  1578     04C9                     _SCS1	set	1225
  1579     04C8                     _SCS0	set	1224
  1580     010E                     _LATCbits	set	270
  1581     018E                     _ANSELCbits	set	398
  1582     018D                     _ANSELBbits	set	397
  1583     019A                     _TX1REG	set	410
  1584     0199                     _RC1REG	set	409
  1585     019D                     _RC1STAbits	set	413
  1586     019B                     _SPBRGL	set	411
  1587     0CF5                     _TXEN	set	3317
  1588     0CEC                     _CREN	set	3308
  1589     0CEF                     _SPEN	set	3311
  1590     0CF4                     _SYNC	set	3316
  1591     0CFB                     _BRG16	set	3323
  1592     0CF2                     _BRGH	set	3314
  1593     0214                     _SSP1STATbits	set	532
  1594     0211                     _SSPBUF	set	529
  1595     0215                     _SSP1CON1bits	set	533
  1596     0212                     _SSP1ADD	set	530
  1597     0215                     _SSP1CON1	set	533
  1598     0214                     _SSP1STAT	set	532
  1599     0E21                     _SSPDATPPSbits	set	3617
  1600     0E24                     _RXPPSbits	set	3620
  1601     0E0F                     _PPSLOCKbits	set	3599
  1602     0E0F                     _PPSLOCK	set	3599
  1603     0EA5                     _RC5PPSbits	set	3749
  1604     0EA3                     _RC3PPSbits	set	3747
  1605     0E9A                     _RB2PPSbits	set	3738
  1606     1819                     STR_1:
  1607     1819  3470               	retlw	112	;'p'
  1608     181A  3466               	retlw	102	;'f'
  1609     181B  345F               	retlw	95	;'_'
  1610     181C  346F               	retlw	111	;'o'
  1611     181D  3470               	retlw	112	;'p'
  1612     181E  3465               	retlw	101	;'e'
  1613     181F  346E               	retlw	110	;'n'
  1614     1820  3420               	retlw	32	;' '
  1615     1821  344C               	retlw	76	;'L'
  1616     1822  344F               	retlw	79	;'O'
  1617     1823  3447               	retlw	71	;'G'
  1618     1824  342E               	retlw	46	;'.'
  1619     1825  3454               	retlw	84	;'T'
  1620     1826  3458               	retlw	88	;'X'
  1621     1827  3454               	retlw	84	;'T'
  1622     1828  342E               	retlw	46	;'.'
  1623     1829  342E               	retlw	46	;'.'
  1624     182A  342E               	retlw	46	;'.'
  1625     182B  340A               	retlw	10
  1626     182C  3400               	retlw	0
  1627                           
  1628                           	psect	stringtext2
  1629     182D                     __pstringtext2:
  1630     182D                     STR_10:
  1631     182D  3464               	retlw	100	;'d'
  1632     182E  3469               	retlw	105	;'i'
  1633     182F  3473               	retlw	115	;'s'
  1634     1830  346B               	retlw	107	;'k'
  1635     1831  345F               	retlw	95	;'_'
  1636     1832  3469               	retlw	105	;'i'
  1637     1833  346E               	retlw	110	;'n'
  1638     1834  3469               	retlw	105	;'i'
  1639     1835  3474               	retlw	116	;'t'
  1640     1836  3469               	retlw	105	;'i'
  1641     1837  3461               	retlw	97	;'a'
  1642     1838  346C               	retlw	108	;'l'
  1643     1839  3469               	retlw	105	;'i'
  1644     183A  347A               	retlw	122	;'z'
  1645     183B  3465               	retlw	101	;'e'
  1646     183C  342E               	retlw	46	;'.'
  1647     183D  342E               	retlw	46	;'.'
  1648     183E  342E               	retlw	46	;'.'
  1649     183F  340A               	retlw	10
  1650     1840  3400               	retlw	0
  1651                           
  1652                           	psect	stringtext3
  1653     1841                     __pstringtext3:
  1654     1841                     STR_5:
  1655     1841  3470               	retlw	112	;'p'
  1656     1842  3466               	retlw	102	;'f'
  1657     1843  345F               	retlw	95	;'_'
  1658     1844  3477               	retlw	119	;'w'
  1659     1845  3472               	retlw	114	;'r'
  1660     1846  3469               	retlw	105	;'i'
  1661     1847  3474               	retlw	116	;'t'
  1662     1848  3465               	retlw	101	;'e'
  1663     1849  3420               	retlw	32	;' '
  1664     184A  346D               	retlw	109	;'m'
  1665     184B  3473               	retlw	115	;'s'
  1666     184C  3467               	retlw	103	;'g'
  1667     184D  342E               	retlw	46	;'.'
  1668     184E  342E               	retlw	46	;'.'
  1669     184F  342E               	retlw	46	;'.'
  1670     1850  340A               	retlw	10
  1671     1851  3400               	retlw	0
  1672                           
  1673                           	psect	stringtext4
  1674     1852                     __pstringtext4:
  1675     1852                     STR_7:
  1676     1852  3470               	retlw	112	;'p'
  1677     1853  3461               	retlw	97	;'a'
  1678     1854  3464               	retlw	100	;'d'
  1679     1855  3420               	retlw	32	;' '
  1680     1856  3477               	retlw	119	;'w'
  1681     1857  3472               	retlw	114	;'r'
  1682     1858  3469               	retlw	105	;'i'
  1683     1859  3474               	retlw	116	;'t'
  1684     185A  3465               	retlw	101	;'e'
  1685     185B  3420               	retlw	32	;' '
  1686     185C  3446               	retlw	70	;'F'
  1687     185D  3441               	retlw	65	;'A'
  1688     185E  3449               	retlw	73	;'I'
  1689     185F  344C               	retlw	76	;'L'
  1690     1860  340A               	retlw	10
  1691     1861  3400               	retlw	0
  1692                           
  1693                           	psect	stringtext5
  1694     1862                     __pstringtext5:
  1695     1862                     STR_11:
  1696     1862  3464               	retlw	100	;'d'
  1697     1863  3469               	retlw	105	;'i'
  1698     1864  3473               	retlw	115	;'s'
  1699     1865  346B               	retlw	107	;'k'
  1700     1866  3420               	retlw	32	;' '
  1701     1867  3469               	retlw	105	;'i'
  1702     1868  346E               	retlw	110	;'n'
  1703     1869  3469               	retlw	105	;'i'
  1704     186A  3474               	retlw	116	;'t'
  1705     186B  3420               	retlw	32	;' '
  1706     186C  3446               	retlw	70	;'F'
  1707     186D  3441               	retlw	65	;'A'
  1708     186E  3449               	retlw	73	;'I'
  1709     186F  344C               	retlw	76	;'L'
  1710     1870  340A               	retlw	10
  1711     1871  3400               	retlw	0
  1712                           
  1713                           	psect	stringtext6
  1714     1872                     __pstringtext6:
  1715     1872                     STR_6:
  1716     1872  3470               	retlw	112	;'p'
  1717     1873  3466               	retlw	102	;'f'
  1718     1874  345F               	retlw	95	;'_'
  1719     1875  3477               	retlw	119	;'w'
  1720     1876  3472               	retlw	114	;'r'
  1721     1877  3469               	retlw	105	;'i'
  1722     1878  3474               	retlw	116	;'t'
  1723     1879  3465               	retlw	101	;'e'
  1724     187A  3420               	retlw	32	;' '
  1725     187B  3446               	retlw	70	;'F'
  1726     187C  3441               	retlw	65	;'A'
  1727     187D  3449               	retlw	73	;'I'
  1728     187E  344C               	retlw	76	;'L'
  1729     187F  340A               	retlw	10
  1730     1880  3400               	retlw	0
  1731                           
  1732                           	psect	stringtext7
  1733     1881                     __pstringtext7:
  1734     1881                     STR_8:
  1735     1881  3466               	retlw	102	;'f'
  1736     1882  3469               	retlw	105	;'i'
  1737     1883  346E               	retlw	110	;'n'
  1738     1884  3461               	retlw	97	;'a'
  1739     1885  346C               	retlw	108	;'l'
  1740     1886  3469               	retlw	105	;'i'
  1741     1887  347A               	retlw	122	;'z'
  1742     1888  3465               	retlw	101	;'e'
  1743     1889  3420               	retlw	32	;' '
  1744     188A  3446               	retlw	70	;'F'
  1745     188B  3441               	retlw	65	;'A'
  1746     188C  3449               	retlw	73	;'I'
  1747     188D  344C               	retlw	76	;'L'
  1748     188E  340A               	retlw	10
  1749     188F  3400               	retlw	0
  1750                           
  1751                           	psect	stringtext8
  1752     1890                     __pstringtext8:
  1753     1890                     STR_3:
  1754     1890  3470               	retlw	112	;'p'
  1755     1891  3466               	retlw	102	;'f'
  1756     1892  345F               	retlw	95	;'_'
  1757     1893  346F               	retlw	111	;'o'
  1758     1894  3470               	retlw	112	;'p'
  1759     1895  3465               	retlw	101	;'e'
  1760     1896  346E               	retlw	110	;'n'
  1761     1897  3420               	retlw	32	;' '
  1762     1898  3446               	retlw	70	;'F'
  1763     1899  3441               	retlw	65	;'A'
  1764     189A  3449               	retlw	73	;'I'
  1765     189B  344C               	retlw	76	;'L'
  1766     189C  340A               	retlw	10
  1767     189D  3400               	retlw	0
  1768                           
  1769                           	psect	stringtext9
  1770     189E                     __pstringtext9:
  1771     189E                     STR_12:
  1772     189E  3470               	retlw	112	;'p'
  1773     189F  3466               	retlw	102	;'f'
  1774     18A0  345F               	retlw	95	;'_'
  1775     18A1  346D               	retlw	109	;'m'
  1776     18A2  346F               	retlw	111	;'o'
  1777     18A3  3475               	retlw	117	;'u'
  1778     18A4  346E               	retlw	110	;'n'
  1779     18A5  3474               	retlw	116	;'t'
  1780     18A6  342E               	retlw	46	;'.'
  1781     18A7  342E               	retlw	46	;'.'
  1782     18A8  342E               	retlw	46	;'.'
  1783     18A9  340A               	retlw	10
  1784     18AA  3400               	retlw	0
  1785                           
  1786                           	psect	stringtext10
  1787     18AB                     __pstringtext10:
  1788     18AB                     STR_14:
  1789     18AB  344D               	retlw	77	;'M'
  1790     18AC  346F               	retlw	111	;'o'
  1791     18AD  3475               	retlw	117	;'u'
  1792     18AE  346E               	retlw	110	;'n'
  1793     18AF  3474               	retlw	116	;'t'
  1794     18B0  3465               	retlw	101	;'e'
  1795     18B1  3464               	retlw	100	;'d'
  1796     18B2  3420               	retlw	32	;' '
  1797     18B3  344F               	retlw	79	;'O'
  1798     18B4  344B               	retlw	75	;'K'
  1799     18B5  340A               	retlw	10
  1800     18B6  3400               	retlw	0
  1801                           
  1802                           	psect	stringtext11
  1803     18B7                     __pstringtext11:
  1804     18B7                     STR_4:
  1805     18B7  346C               	retlw	108	;'l'
  1806     18B8  3473               	retlw	115	;'s'
  1807     18B9  3465               	retlw	101	;'e'
  1808     18BA  3465               	retlw	101	;'e'
  1809     18BB  346B               	retlw	107	;'k'
  1810     18BC  3420               	retlw	32	;' '
  1811     18BD  3446               	retlw	70	;'F'
  1812     18BE  3441               	retlw	65	;'A'
  1813     18BF  3449               	retlw	73	;'I'
  1814     18C0  344C               	retlw	76	;'L'
  1815     18C1  340A               	retlw	10
  1816     18C2  3400               	retlw	0
  1817                           
  1818                           	psect	stringtext12
  1819     18C3                     __pstringtext12:
  1820     18C3                     STR_13:
  1821     18C3  346D               	retlw	109	;'m'
  1822     18C4  346F               	retlw	111	;'o'
  1823     18C5  3475               	retlw	117	;'u'
  1824     18C6  346E               	retlw	110	;'n'
  1825     18C7  3474               	retlw	116	;'t'
  1826     18C8  3420               	retlw	32	;' '
  1827     18C9  3446               	retlw	70	;'F'
  1828     18CA  3441               	retlw	65	;'A'
  1829     18CB  3449               	retlw	73	;'I'
  1830     18CC  344C               	retlw	76	;'L'
  1831     18CD  340A               	retlw	10
  1832     18CE  3400               	retlw	0
  1833                           
  1834                           	psect	stringtext13
  1835     18CF                     __pstringtext13:
  1836     18CF                     STR_9:
  1837     18CF  3457               	retlw	87	;'W'
  1838     18D0  3472               	retlw	114	;'r'
  1839     18D1  3469               	retlw	105	;'i'
  1840     18D2  3474               	retlw	116	;'t'
  1841     18D3  3465               	retlw	101	;'e'
  1842     18D4  3420               	retlw	32	;' '
  1843     18D5  344F               	retlw	79	;'O'
  1844     18D6  344B               	retlw	75	;'K'
  1845     18D7  340A               	retlw	10
  1846     18D8  3400               	retlw	0
  1847                           
  1848                           	psect	stringtext14
  1849     18D9                     __pstringtext14:
  1850     18D9                     STR_2:
  1851     18D9  344C               	retlw	76	;'L'
  1852     18DA  344F               	retlw	79	;'O'
  1853     18DB  3447               	retlw	71	;'G'
  1854     18DC  342E               	retlw	46	;'.'
  1855     18DD  3454               	retlw	84	;'T'
  1856     18DE  3458               	retlw	88	;'X'
  1857     18DF  3454               	retlw	84	;'T'
  1858     18E0  3400               	retlw	0
  1859                           
  1860                           	psect	stringtext15
  1861     0000                     __pstringtext15:
  1862                           
  1863                           	psect	cinit
  1864     07EF                     start_initialization:	
  1865                           ; #config settings
  1866                           
  1867     07EF                     __initialization:
  1868                           
  1869                           ; Clear objects allocated to BANK0
  1870     07EF  0020               	movlb	0	; select bank0
  1871     07F0  01EF               	clrf	__pbssBANK0& (0+127)
  1872                           
  1873                           ; Clear objects allocated to BANK1
  1874     07F1  0021               	movlb	1	; select bank1
  1875     07F2  01E5               	clrf	__pbssBANK1& (0+127)
  1876     07F3  01E6               	clrf	(__pbssBANK1+1)& (0+127)
  1877     07F4  01E7               	clrf	(__pbssBANK1+2)& (0+127)
  1878                           
  1879                           ; Clear objects allocated to BANK3
  1880     07F5  30A0               	movlw	low __pbssBANK3
  1881     07F6  0084               	movwf	4
  1882     07F7  3001               	movlw	high __pbssBANK3
  1883     07F8  0085               	movwf	5
  1884     07F9  302A               	movlw	42
  1885     07FA  3193  2346  3187   	fcall	clear_ram0
  1886     07FD                     end_of_initialization:	
  1887                           ;End of C runtime variable initialization code
  1888                           
  1889     07FD                     __end_of__initialization:
  1890     07FD  0020               	movlb	0
  1891     07FE  3194  2CC1         	ljmp	_main	;jump to C main() function
  1892                           
  1893                           	psect	bssBANK0
  1894     006F                     __pbssBANK0:
  1895     006F                     _FatFs:
  1896     006F                     	ds	1
  1897                           
  1898                           	psect	bssBANK1
  1899     00E5                     __pbssBANK1:
  1900     00E5                     disk_writep@wc:
  1901     00E5                     	ds	2
  1902     00E7                     _CardType:
  1903     00E7                     	ds	1
  1904                           
  1905                           	psect	bssBANK3
  1906     01A0                     __pbssBANK3:
  1907     01A0                     _fs:
  1908     01A0                     	ds	42
  1909                           
  1910                           	psect	clrtext
  1911     1346                     clear_ram0:	
  1912                           ;	Called with FSR0 containing the base address, and
  1913                           ;	WREG with the size to clear
  1914                           
  1915     1346  0064               	clrwdt	;clear the watchdog before getting into this loop
  1916     1347                     clrloop0:
  1917     1347  0180               	clrf	0	;clear RAM location pointed to by FSR
  1918     1348  3101               	addfsr 0,1
  1919     1349  0B89               	decfsz	9,f	;Have we reached the end of clearing yet?
  1920     134A  2B47               	goto	clrloop0	;have we reached the end yet?
  1921     134B  3400               	retlw	0	;all done for this memory range, return
  1922                           
  1923                           	psect	cstackBANK2
  1924     0120                     __pcstackBANK2:
  1925     0120                     write_test@pad:
  1926                           
  1927                           ; 32 bytes @ 0x0
  1928     0120                     	ds	32
  1929     0140                     write_test@chunk:
  1930                           
  1931                           ; 2 bytes @ 0x20
  1932     0140                     	ds	2
  1933     0142                     write_test@total:
  1934                           
  1935                           ; 2 bytes @ 0x22
  1936     0142                     	ds	2
  1937     0144                     write_test@fr:
  1938                           
  1939                           ; 1 bytes @ 0x24
  1940     0144                     	ds	1
  1941     0145                     write_test@bw:
  1942                           
  1943                           ; 2 bytes @ 0x25
  1944     0145                     	ds	2
  1945                           
  1946                           	psect	cstackBANK1
  1947     00A0                     __pcstackBANK1:
  1948     00A0                     pf_lseek@sect:
  1949     00A0                     pf_open@dir:	
  1950                           ; 4 bytes @ 0x0
  1951                           
  1952     00A0                     pf_mount@buf:	
  1953                           ; 32 bytes @ 0x0
  1954                           
  1955                           
  1956                           ; 36 bytes @ 0x0
  1957     00A0                     	ds	4
  1958     00A4                     pf_lseek@ifptr:
  1959                           
  1960                           ; 4 bytes @ 0x4
  1961     00A4                     	ds	4
  1962     00A8                     pf_lseek@bcs:
  1963                           
  1964                           ; 4 bytes @ 0x8
  1965     00A8                     	ds	4
  1966     00AC                     pf_lseek@clst:
  1967                           
  1968                           ; 4 bytes @ 0xC
  1969     00AC                     	ds	4
  1970     00B0                     pf_lseek@fs:
  1971                           
  1972                           ; 1 bytes @ 0x10
  1973     00B0                     	ds	16
  1974     00C0                     pf_open@sp:
  1975                           
  1976                           ; 12 bytes @ 0x20
  1977     00C0                     	ds	4
  1978     00C4                     pf_mount@tsect:
  1979                           
  1980                           ; 4 bytes @ 0x24
  1981     00C4                     	ds	4
  1982     00C8                     pf_mount@mclst:
  1983                           
  1984                           ; 4 bytes @ 0x28
  1985     00C8                     	ds	4
  1986     00CC                     pf_open@res:
  1987     00CC                     pf_mount@bsect:	
  1988                           ; 1 bytes @ 0x2C
  1989                           
  1990                           
  1991                           ; 4 bytes @ 0x2C
  1992     00CC                     	ds	1
  1993     00CD                     pf_open@fs:
  1994                           
  1995                           ; 1 bytes @ 0x2D
  1996     00CD                     	ds	1
  1997     00CE                     pf_open@dj:
  1998                           
  1999                           ; 15 bytes @ 0x2E
  2000     00CE                     	ds	2
  2001     00D0                     pf_mount@fsize:
  2002                           
  2003                           ; 4 bytes @ 0x30
  2004     00D0                     	ds	4
  2005     00D4                     pf_mount@fmt:
  2006                           
  2007                           ; 1 bytes @ 0x34
  2008     00D4                     	ds	1
  2009     00D5                     pf_mount@fs:
  2010                           
  2011                           ; 1 bytes @ 0x35
  2012     00D5                     	ds	8
  2013     00DD                     ??_write_test:
  2014                           
  2015                           ; 1 bytes @ 0x3D
  2016     00DD                     	ds	8
  2017                           
  2018                           	psect	cstackCOMMON
  2019     0070                     __pcstackCOMMON:
  2020     0070                     ?_disk_initialize:
  2021     0070                     ?_memset:	
  2022                           ; 1 bytes @ 0x0
  2023                           
  2024     0070                     ?_EUSART_Write:	
  2025                           ; 1 bytes @ 0x0
  2026                           
  2027     0070                     ??_EUSART_Write:	
  2028                           ; 1 bytes @ 0x0
  2029                           
  2030     0070                     ?_internal_32:	
  2031                           ; 1 bytes @ 0x0
  2032                           
  2033     0070                     ??_internal_32:	
  2034                           ; 1 bytes @ 0x0
  2035                           
  2036     0070                     ?_SPI_Initialize:	
  2037                           ; 1 bytes @ 0x0
  2038                           
  2039     0070                     ??_SPI_Initialize:	
  2040                           ; 1 bytes @ 0x0
  2041                           
  2042     0070                     ?_SPI_Exchange8bit:	
  2043                           ; 1 bytes @ 0x0
  2044                           
  2045     0070                     ??_SPI_Exchange8bit:	
  2046                           ; 1 bytes @ 0x0
  2047                           
  2048     0070                     ?_mem_set:	
  2049                           ; 1 bytes @ 0x0
  2050                           
  2051     0070                     ?_dir_rewind:	
  2052                           ; 1 bytes @ 0x0
  2053                           
  2054     0070                     ?_dir_next:	
  2055                           ; 1 bytes @ 0x0
  2056                           
  2057     0070                     ?_pf_mount:	
  2058                           ; 1 bytes @ 0x0
  2059                           
  2060     0070                     ?_xfer_spi:	
  2061                           ; 1 bytes @ 0x0
  2062                           
  2063     0070                     ?_xmit_spi:	
  2064                           ; 1 bytes @ 0x0
  2065                           
  2066     0070                     ?_rcv_spi:	
  2067                           ; 1 bytes @ 0x0
  2068                           
  2069     0070                     ?_dly_100us:	
  2070                           ; 1 bytes @ 0x0
  2071                           
  2072     0070                     ??_dly_100us:	
  2073                           ; 1 bytes @ 0x0
  2074                           
  2075     0070                     ?_initMain:	
  2076                           ; 1 bytes @ 0x0
  2077                           
  2078     0070                     ?_write_test:	
  2079                           ; 1 bytes @ 0x0
  2080                           
  2081     0070                     ?_main:	
  2082                           ; 1 bytes @ 0x0
  2083                           
  2084     0070                     ?_strlen:	
  2085                           ; 1 bytes @ 0x0
  2086                           
  2087     0070                     ?_ld_word:	
  2088                           ; 2 bytes @ 0x0
  2089                           
  2090     0070                     ?_mem_cmp:	
  2091                           ; 2 bytes @ 0x0
  2092                           
  2093     0070                     ?_ld_dword:	
  2094                           ; 2 bytes @ 0x0
  2095                           
  2096     0070                     ?___lmul:	
  2097                           ; 4 bytes @ 0x0
  2098                           
  2099     0070                     ?___aldiv:	
  2100                           ; 4 bytes @ 0x0
  2101                           
  2102     0070                     EUSART_Write@txData:	
  2103                           ; 4 bytes @ 0x0
  2104                           
  2105     0070                     SPI_Exchange8bit@data:	
  2106                           ; 1 bytes @ 0x0
  2107                           
  2108     0070                     mem_cmp@src:	
  2109                           ; 1 bytes @ 0x0
  2110                           
  2111     0070                     mem_set@val:	
  2112                           ; 1 bytes @ 0x0
  2113                           
  2114     0070                     memset@c:	
  2115                           ; 2 bytes @ 0x0
  2116                           
  2117     0070                     strlen@s:	
  2118                           ; 2 bytes @ 0x0
  2119                           
  2120     0070                     ___lmul@multiplier:	
  2121                           ; 2 bytes @ 0x0
  2122                           
  2123     0070                     ___aldiv@divisor:	
  2124                           ; 4 bytes @ 0x0
  2125                           
  2126                           
  2127                           ; 4 bytes @ 0x0
  2128     0070                     	ds	1
  2129     0071                     ?_EUSART_Write_Text:
  2130     0071                     ??_xfer_spi:	
  2131                           ; 1 bytes @ 0x1
  2132                           
  2133     0071                     xfer_spi@d:	
  2134                           ; 1 bytes @ 0x1
  2135                           
  2136     0071                     EUSART_Write_Text@text:	
  2137                           ; 1 bytes @ 0x1
  2138                           
  2139     0071                     mem_cmp@cnt:	
  2140                           ; 2 bytes @ 0x1
  2141                           
  2142                           
  2143                           ; 2 bytes @ 0x1
  2144     0071                     	ds	1
  2145     0072                     ??_strlen:
  2146     0072                     ??_ld_word:	
  2147                           ; 1 bytes @ 0x2
  2148                           
  2149     0072                     ??_xmit_spi:	
  2150                           ; 1 bytes @ 0x2
  2151                           
  2152     0072                     ??_rcv_spi:	
  2153                           ; 1 bytes @ 0x2
  2154                           
  2155     0072                     xmit_spi@d:	
  2156                           ; 1 bytes @ 0x2
  2157                           
  2158     0072                     mem_set@cnt:	
  2159                           ; 1 bytes @ 0x2
  2160                           
  2161     0072                     memset@n:	
  2162                           ; 2 bytes @ 0x2
  2163                           
  2164                           
  2165                           ; 2 bytes @ 0x2
  2166     0072                     	ds	1
  2167     0073                     ??_EUSART_Write_Text:
  2168     0073                     ??_mem_cmp:	
  2169                           ; 1 bytes @ 0x3
  2170                           
  2171     0073                     ?_send_cmd_raw:	
  2172                           ; 1 bytes @ 0x3
  2173                           
  2174     0073                     mem_cmp@r:	
  2175                           ; 1 bytes @ 0x3
  2176                           
  2177     0073                     strlen@a:	
  2178                           ; 2 bytes @ 0x3
  2179                           
  2180     0073                     send_cmd_raw@arg:	
  2181                           ; 2 bytes @ 0x3
  2182                           
  2183                           
  2184                           ; 4 bytes @ 0x3
  2185     0073                     	ds	1
  2186     0074                     ??_memset:
  2187     0074                     ??_ld_dword:	
  2188                           ; 1 bytes @ 0x4
  2189                           
  2190     0074                     ??_mem_set:	
  2191                           ; 1 bytes @ 0x4
  2192                           
  2193     0074                     EUSART_Write_Text@i:	
  2194                           ; 1 bytes @ 0x4
  2195                           
  2196     0074                     ___lmul@multiplicand:	
  2197                           ; 2 bytes @ 0x4
  2198                           
  2199     0074                     ___aldiv@dividend:	
  2200                           ; 4 bytes @ 0x4
  2201                           
  2202                           
  2203                           ; 4 bytes @ 0x4
  2204     0074                     	ds	1
  2205     0075                     mem_set@dst:
  2206     0075                     mem_cmp@d:	
  2207                           ; 1 bytes @ 0x5
  2208                           
  2209     0075                     memset@dest:	
  2210                           ; 1 bytes @ 0x5
  2211                           
  2212                           
  2213                           ; 1 bytes @ 0x5
  2214     0075                     	ds	1
  2215     0076                     mem_set@d:
  2216     0076                     mem_cmp@s:	
  2217                           ; 1 bytes @ 0x6
  2218                           
  2219     0076                     memset@p:	
  2220                           ; 1 bytes @ 0x6
  2221                           
  2222     0076                     ld_word@rv:	
  2223                           ; 1 bytes @ 0x6
  2224                           
  2225                           
  2226                           ; 2 bytes @ 0x6
  2227     0076                     	ds	1
  2228     0077                     ?_create_name:
  2229     0077                     ??_send_cmd_raw:	
  2230                           ; 1 bytes @ 0x7
  2231                           
  2232     0077                     mem_cmp@dst:	
  2233                           ; 1 bytes @ 0x7
  2234                           
  2235     0077                     create_name@path:	
  2236                           ; 1 bytes @ 0x7
  2237                           
  2238                           
  2239                           ; 1 bytes @ 0x7
  2240     0077                     	ds	1
  2241     0078                     ??_create_name:
  2242     0078                     ??___lmul:	
  2243                           ; 1 bytes @ 0x8
  2244                           
  2245     0078                     ??___aldiv:	
  2246                           ; 1 bytes @ 0x8
  2247                           
  2248     0078                     ld_word@ptr:	
  2249                           ; 1 bytes @ 0x8
  2250                           
  2251     0078                     ___lmul@product:	
  2252                           ; 1 bytes @ 0x8
  2253                           
  2254                           
  2255                           ; 4 bytes @ 0x8
  2256     0078                     	ds	1
  2257     0079                     ??___lldiv:
  2258     0079                     ?_get_clust:	
  2259                           ; 1 bytes @ 0x9
  2260                           
  2261     0079                     EUSART_Initialize@x:	
  2262                           ; 4 bytes @ 0x9
  2263                           
  2264                           
  2265                           ; 2 bytes @ 0x9
  2266     0079                     	ds	2
  2267     007B                     ??_initMain:
  2268     007B                     send_cmd_raw@res:	
  2269                           ; 1 bytes @ 0xB
  2270                           
  2271                           
  2272                           ; 1 bytes @ 0xB
  2273     007B                     	ds	1
  2274     007C                     clust2sect@fs:
  2275     007C                     send_cmd_raw@cmd:	
  2276                           ; 1 bytes @ 0xC
  2277                           
  2278                           
  2279                           ; 1 bytes @ 0xC
  2280     007C                     	ds	1
  2281     007D                     send_cmd_raw@n:
  2282                           
  2283                           ; 1 bytes @ 0xD
  2284     007D                     	ds	1
  2285     007E                     ??_check_fs:
  2286     007E                     ??_pf_open:	
  2287                           ; 1 bytes @ 0xE
  2288                           
  2289                           
  2290                           	psect	cstackBANK0
  2291     0020                     __pcstackBANK0:	
  2292                           ; 1 bytes @ 0xE
  2293                           
  2294     0020                     ??_get_clust:
  2295     0020                     ?_send_cmd:	
  2296                           ; 1 bytes @ 0x0
  2297                           
  2298     0020                     ?_clust2sect:	
  2299                           ; 1 bytes @ 0x0
  2300                           
  2301     0020                     ?___lldiv:	
  2302                           ; 4 bytes @ 0x0
  2303                           
  2304     0020                     create_name@dj:	
  2305                           ; 4 bytes @ 0x0
  2306                           
  2307     0020                     ___aldiv@counter:	
  2308                           ; 1 bytes @ 0x0
  2309                           
  2310     0020                     ld_dword@rv:	
  2311                           ; 1 bytes @ 0x0
  2312                           
  2313     0020                     clust2sect@clst:	
  2314                           ; 4 bytes @ 0x0
  2315                           
  2316     0020                     send_cmd@arg:	
  2317                           ; 4 bytes @ 0x0
  2318                           
  2319     0020                     ___lldiv@divisor:	
  2320                           ; 4 bytes @ 0x0
  2321                           
  2322                           
  2323                           ; 4 bytes @ 0x0
  2324     0020                     	ds	1
  2325     0021                     ___aldiv@sign:
  2326     0021                     create_name@p:	
  2327                           ; 1 bytes @ 0x1
  2328                           
  2329                           
  2330                           ; 2 bytes @ 0x1
  2331     0021                     	ds	1
  2332     0022                     ___aldiv@quotient:
  2333                           
  2334                           ; 4 bytes @ 0x2
  2335     0022                     	ds	1
  2336     0023                     create_name@ni:
  2337                           
  2338                           ; 1 bytes @ 0x3
  2339     0023                     	ds	1
  2340     0024                     ??_clust2sect:
  2341     0024                     ??_send_cmd:	
  2342                           ; 1 bytes @ 0x4
  2343                           
  2344     0024                     ld_dword@ptr:	
  2345                           ; 1 bytes @ 0x4
  2346                           
  2347     0024                     create_name@si:	
  2348                           ; 1 bytes @ 0x4
  2349                           
  2350     0024                     get_clust@clst:	
  2351                           ; 1 bytes @ 0x4
  2352                           
  2353     0024                     ___lldiv@dividend:	
  2354                           ; 4 bytes @ 0x4
  2355                           
  2356                           
  2357                           ; 4 bytes @ 0x4
  2358     0024                     	ds	1
  2359     0025                     create_name@sfn:
  2360     0025                     send_cmd@cmd:	
  2361                           ; 1 bytes @ 0x5
  2362                           
  2363                           
  2364                           ; 1 bytes @ 0x5
  2365     0025                     	ds	1
  2366     0026                     ?_EUSART_Initialize:
  2367     0026                     create_name@i:	
  2368                           ; 1 bytes @ 0x6
  2369                           
  2370     0026                     send_cmd@res:	
  2371                           ; 1 bytes @ 0x6
  2372                           
  2373     0026                     EUSART_Initialize@baudrate:	
  2374                           ; 1 bytes @ 0x6
  2375                           
  2376                           
  2377                           ; 4 bytes @ 0x6
  2378     0026                     	ds	1
  2379     0027                     ?_disk_readp:
  2380     0027                     ??_disk_initialize:	
  2381                           ; 1 bytes @ 0x7
  2382                           
  2383     0027                     ?_disk_writep:	
  2384                           ; 1 bytes @ 0x7
  2385                           
  2386     0027                     create_name@c:	
  2387                           ; 1 bytes @ 0x7
  2388                           
  2389     0027                     disk_writep@buff:	
  2390                           ; 1 bytes @ 0x7
  2391                           
  2392     0027                     disk_readp@sector:	
  2393                           ; 2 bytes @ 0x7
  2394                           
  2395                           
  2396                           ; 4 bytes @ 0x7
  2397     0027                     	ds	1
  2398     0028                     get_clust@dir:
  2399     0028                     disk_initialize@ocr:	
  2400                           ; 1 bytes @ 0x8
  2401                           
  2402     0028                     ___lldiv@quotient:	
  2403                           ; 4 bytes @ 0x8
  2404                           
  2405                           
  2406                           ; 4 bytes @ 0x8
  2407     0028                     	ds	1
  2408     0029                     disk_writep@sc:
  2409                           
  2410                           ; 4 bytes @ 0x9
  2411     0029                     	ds	1
  2412     002A                     ??_EUSART_Initialize:
  2413                           
  2414                           ; 1 bytes @ 0xA
  2415     002A                     	ds	1
  2416     002B                     disk_readp@offset:
  2417                           
  2418                           ; 2 bytes @ 0xB
  2419     002B                     	ds	1
  2420     002C                     ??_dir_rewind:
  2421     002C                     ___lldiv@counter:	
  2422                           ; 1 bytes @ 0xC
  2423                           
  2424     002C                     _disk_initialize$663:	
  2425                           ; 1 bytes @ 0xC
  2426                           
  2427                           
  2428                           ; 2 bytes @ 0xC
  2429     002C                     	ds	1
  2430     002D                     ??_disk_writep:
  2431     002D                     disk_readp@count:	
  2432                           ; 1 bytes @ 0xD
  2433                           
  2434                           
  2435                           ; 2 bytes @ 0xD
  2436     002D                     	ds	1
  2437     002E                     disk_initialize@cmd:
  2438                           
  2439                           ; 1 bytes @ 0xE
  2440     002E                     	ds	1
  2441     002F                     ??_disk_readp:
  2442     002F                     disk_initialize@ty:	
  2443                           ; 1 bytes @ 0xF
  2444                           
  2445                           
  2446                           ; 1 bytes @ 0xF
  2447     002F                     	ds	1
  2448     0030                     disk_initialize@tmr:
  2449     0030                     _dir_rewind$358:	
  2450                           ; 2 bytes @ 0x10
  2451                           
  2452                           
  2453                           ; 4 bytes @ 0x10
  2454     0030                     	ds	1
  2455     0031                     disk_writep@resp:
  2456                           
  2457                           ; 1 bytes @ 0x11
  2458     0031                     	ds	1
  2459     0032                     disk_initialize@n:
  2460                           
  2461                           ; 1 bytes @ 0x12
  2462     0032                     	ds	1
  2463     0033                     disk_readp@offset0:
  2464                           
  2465                           ; 2 bytes @ 0x13
  2466     0033                     	ds	1
  2467     0034                     dir_rewind@fs:
  2468                           
  2469                           ; 1 bytes @ 0x14
  2470     0034                     	ds	1
  2471     0035                     dir_rewind@dj:
  2472     0035                     disk_readp@count0:	
  2473                           ; 1 bytes @ 0x15
  2474                           
  2475                           
  2476                           ; 2 bytes @ 0x15
  2477     0035                     	ds	1
  2478     0036                     dir_rewind@clst:
  2479                           
  2480                           ; 4 bytes @ 0x16
  2481     0036                     	ds	1
  2482     0037                     disk_readp@i:
  2483                           
  2484                           ; 2 bytes @ 0x17
  2485     0037                     	ds	2
  2486     0039                     disk_readp@token:
  2487                           
  2488                           ; 1 bytes @ 0x19
  2489     0039                     	ds	1
  2490     003A                     disk_readp@buff:
  2491                           
  2492                           ; 1 bytes @ 0x1A
  2493     003A                     	ds	1
  2494     003B                     ?_check_fs:
  2495     003B                     ?_get_fat:	
  2496                           ; 1 bytes @ 0x1B
  2497                           
  2498     003B                     get_fat@clst:	
  2499                           ; 4 bytes @ 0x1B
  2500                           
  2501     003B                     check_fs@sect:	
  2502                           ; 4 bytes @ 0x1B
  2503                           
  2504                           
  2505                           ; 4 bytes @ 0x1B
  2506     003B                     	ds	4
  2507     003F                     ??_get_fat:
  2508     003F                     check_fs@buf:	
  2509                           ; 1 bytes @ 0x1F
  2510                           
  2511                           
  2512                           ; 1 bytes @ 0x1F
  2513     003F                     	ds	1
  2514     0040                     ??_pf_mount:
  2515                           
  2516                           ; 1 bytes @ 0x20
  2517     0040                     	ds	9
  2518     0049                     get_fat@buf:
  2519                           
  2520                           ; 4 bytes @ 0x29
  2521     0049                     	ds	4
  2522     004D                     get_fat@fs:
  2523                           
  2524                           ; 1 bytes @ 0x2D
  2525     004D                     	ds	1
  2526     004E                     ??_dir_next:
  2527     004E                     ?_pf_write:	
  2528                           ; 1 bytes @ 0x2E
  2529                           
  2530     004E                     ?_pf_lseek:	
  2531                           ; 1 bytes @ 0x2E
  2532                           
  2533     004E                     pf_write@buff:	
  2534                           ; 1 bytes @ 0x2E
  2535                           
  2536     004E                     pf_lseek@ofs:	
  2537                           ; 2 bytes @ 0x2E
  2538                           
  2539                           
  2540                           ; 4 bytes @ 0x2E
  2541     004E                     	ds	2
  2542     0050                     pf_write@btw:
  2543                           
  2544                           ; 2 bytes @ 0x30
  2545     0050                     	ds	2
  2546     0052                     ??_pf_lseek:
  2547     0052                     pf_write@bw:	
  2548                           ; 1 bytes @ 0x32
  2549                           
  2550                           
  2551                           ; 1 bytes @ 0x32
  2552     0052                     	ds	1
  2553     0053                     ??_pf_write:
  2554                           
  2555                           ; 1 bytes @ 0x33
  2556     0053                     	ds	1
  2557     0054                     dir_next@fs:
  2558                           
  2559                           ; 1 bytes @ 0x34
  2560     0054                     	ds	1
  2561     0055                     dir_next@clst:
  2562                           
  2563                           ; 4 bytes @ 0x35
  2564     0055                     	ds	4
  2565     0059                     dir_next@i:
  2566                           
  2567                           ; 2 bytes @ 0x39
  2568     0059                     	ds	2
  2569     005B                     dir_next@dj:
  2570     005B                     pf_write@p:	
  2571                           ; 1 bytes @ 0x3B
  2572                           
  2573                           
  2574                           ; 2 bytes @ 0x3B
  2575     005B                     	ds	1
  2576     005C                     ?_dir_find:
  2577     005C                     dir_find@dir:	
  2578                           ; 1 bytes @ 0x3C
  2579                           
  2580                           
  2581                           ; 1 bytes @ 0x3C
  2582     005C                     	ds	1
  2583     005D                     ??_dir_find:
  2584     005D                     pf_write@sect:	
  2585                           ; 1 bytes @ 0x3D
  2586                           
  2587                           
  2588                           ; 4 bytes @ 0x3D
  2589     005D                     	ds	4
  2590     0061                     dir_find@c:
  2591     0061                     pf_write@remain:	
  2592                           ; 1 bytes @ 0x41
  2593                           
  2594                           
  2595                           ; 4 bytes @ 0x41
  2596     0061                     	ds	1
  2597     0062                     dir_find@dj:
  2598                           
  2599                           ; 1 bytes @ 0x42
  2600     0062                     	ds	1
  2601     0063                     dir_find@res:
  2602                           
  2603                           ; 1 bytes @ 0x43
  2604     0063                     	ds	1
  2605     0064                     ?_follow_path:
  2606     0064                     follow_path@dir:	
  2607                           ; 1 bytes @ 0x44
  2608                           
  2609                           
  2610                           ; 1 bytes @ 0x44
  2611     0064                     	ds	1
  2612     0065                     follow_path@path:
  2613     0065                     pf_write@clst:	
  2614                           ; 2 bytes @ 0x45
  2615                           
  2616                           
  2617                           ; 4 bytes @ 0x45
  2618     0065                     	ds	2
  2619     0067                     ??_follow_path:
  2620                           
  2621                           ; 1 bytes @ 0x47
  2622     0067                     	ds	1
  2623     0068                     follow_path@res:
  2624                           
  2625                           ; 1 bytes @ 0x48
  2626     0068                     	ds	1
  2627     0069                     follow_path@dj:
  2628     0069                     pf_write@cs:	
  2629                           ; 1 bytes @ 0x49
  2630                           
  2631                           
  2632                           ; 1 bytes @ 0x49
  2633     0069                     	ds	1
  2634     006A                     ?_pf_open:
  2635     006A                     pf_open@path:	
  2636                           ; 1 bytes @ 0x4A
  2637                           
  2638     006A                     pf_write@wcnt:	
  2639                           ; 2 bytes @ 0x4A
  2640                           
  2641                           
  2642                           ; 2 bytes @ 0x4A
  2643     006A                     	ds	2
  2644     006C                     pf_write@fs:
  2645                           
  2646                           ; 1 bytes @ 0x4C
  2647     006C                     	ds	1
  2648     006D                     ??_main:
  2649                           
  2650                           ; 1 bytes @ 0x4D
  2651     006D                     	ds	2
  2652                           
  2653                           	psect	maintext
  2654     14C1                     __pmaintext:	
  2655 ;;
  2656 ;;Main: autosize = 0, tempsize = 2, incstack = 0, save=0
  2657 ;;
  2658 ;; *************** function _main *****************
  2659 ;; Defined at:
  2660 ;;		line 157 in file "main.c"
  2661 ;; Parameters:    Size  Location     Type
  2662 ;;		None
  2663 ;; Auto vars:     Size  Location     Type
  2664 ;;		None
  2665 ;; Return value:  Size  Location     Type
  2666 ;;                  1    wreg      void 
  2667 ;; Registers used:
  2668 ;;		wreg, fsr0l, fsr0h, fsr1l, fsr1h, status,2, status,0, pclath, cstack
  2669 ;; Tracked objects:
  2670 ;;		On entry : B1F/0
  2671 ;;		On exit  : 0/0
  2672 ;;		Unchanged: 0/0
  2673 ;; Data sizes:     COMMON   BANK0   BANK1   BANK2   BANK3   BANK4   BANK5   BANK6   BANK7   BANK8   BANK9  BANK10  BANK1
      +1  BANK12  BANK13  BANK14  BANK15  BANK16  BANK17  BANK18  BANK19  BANK20  BANK21  BANK22  BANK23  BANK24  BANK25
  2674 ;;      Params:         0       0       0       0       0       0       0       0       0       0       0       0       
      +0       0       0       0       0       0       0       0       0       0       0       0       0       0       0
  2675 ;;      Locals:         0       0       0       0       0       0       0       0       0       0       0       0       
      +0       0       0       0       0       0       0       0       0       0       0       0       0       0       0
  2676 ;;      Temps:          0       2       0       0       0       0       0       0       0       0       0       0       
      +0       0       0       0       0       0       0       0       0       0       0       0       0       0       0
  2677 ;;      Totals:         0       2       0       0       0       0       0       0       0       0       0       0       
      +0       0       0       0       0       0       0       0       0       0       0       0       0       0       0
  2678 ;;Total ram usage:        2 bytes
  2679 ;; Hardware stack levels required when called: 12
  2680 ;; This function calls:
  2681 ;;		_EUSART_Write_Text
  2682 ;;		_disk_initialize
  2683 ;;		_initMain
  2684 ;;		_pf_mount
  2685 ;;		_write_test
  2686 ;; This function is called by:
  2687 ;;		Startup code after reset
  2688 ;; This function uses a non-reentrant model
  2689 ;;
  2690                           
  2691     14C1                     _main:	
  2692                           ;psect for function _main
  2693                           
  2694     14C1                     l3799:	
  2695                           ;incstack = 0
  2696                           ; Regs used in _main: [wreg-fsr1h+status,2+status,0+pclath+cstack]
  2697                           
  2698                           
  2699                           ;main.c: 159:     initMain();
  2700     14C1  3195  250D  3194   	fcall	_initMain
  2701     14C4                     l3801:
  2702                           
  2703                           ;main.c: 161:     _delay((unsigned long)((5000)*(32000000/4000.0)));
  2704     14C4  30CB               	movlw	203
  2705     14C5  0020               	movlb	0	; select bank0
  2706     14C6  00EE               	movwf	??_main+1
  2707     14C7  30EC               	movlw	236
  2708     14C8  00ED               	movwf	??_main
  2709     14C9  3084               	movlw	132
  2710     14CA                     u4177:
  2711     14CA  0B89               	decfsz	9,f
  2712     14CB  2CCA               	goto	u4177
  2713     14CC  0BED               	decfsz	??_main,f
  2714     14CD  2CCA               	goto	u4177
  2715     14CE  0BEE               	decfsz	??_main+1,f
  2716     14CF  2CCA               	goto	u4177
  2717     14D0  0000               	nop
  2718     14D1                     l3803:
  2719                           
  2720                           ;main.c: 163:     EUSART_Write_Text("disk_initialize...\n");
  2721     14D1  302D               	movlw	low (STR_10| (0+32768))
  2722     14D2  00F1               	movwf	EUSART_Write_Text@text
  2723     14D3  3098               	movlw	high (STR_10| (0+32768))
  2724     14D4  00F2               	movwf	EUSART_Write_Text@text+1
  2725     14D5  3193  23BF  3194   	fcall	_EUSART_Write_Text
  2726     14D8                     l3805:
  2727                           
  2728                           ;main.c: 164:     if (disk_initialize() & 0x01) {
  2729     14D8  318D  25AC  3194   	fcall	_disk_initialize
  2730     14DB  3901               	andlw	1
  2731     14DC  1903               	btfsc	3,2
  2732     14DD  2CDF               	goto	u4151
  2733     14DE  2CE0               	goto	u4150
  2734     14DF                     u4151:
  2735     14DF  2CE8               	goto	l3809
  2736     14E0                     u4150:
  2737     14E0                     l3807:
  2738                           
  2739                           ;main.c: 165:         EUSART_Write_Text("disk init FAIL\n");
  2740     14E0  3062               	movlw	low (STR_11| (0+32768))
  2741     14E1  00F1               	movwf	EUSART_Write_Text@text
  2742     14E2  3098               	movlw	high (STR_11| (0+32768))
  2743     14E3  00F2               	movwf	EUSART_Write_Text@text+1
  2744     14E4  3193  23BF  3194   	fcall	_EUSART_Write_Text
  2745     14E7                     l559:	
  2746                           ;main.c: 166:         while(1);
  2747                           
  2748     14E7                     l560:
  2749     14E7  2CE7               	goto	l559
  2750     14E8                     l3809:
  2751                           
  2752                           ;main.c: 169:     EUSART_Write_Text("pf_mount...\n");
  2753     14E8  309E               	movlw	low (STR_12| (0+32768))
  2754     14E9  00F1               	movwf	EUSART_Write_Text@text
  2755     14EA  3098               	movlw	high (STR_12| (0+32768))
  2756     14EB  00F2               	movwf	EUSART_Write_Text@text+1
  2757     14EC  3193  23BF  3194   	fcall	_EUSART_Write_Text
  2758     14EF                     l3811:
  2759                           
  2760                           ;main.c: 170:     if (pf_mount(&fs) != FR_OK) {
  2761     14EF  30A0               	movlw	(low (_fs| (0+256)))& (0+255)
  2762     14F0  3182  22B6  3194   	fcall	_pf_mount
  2763     14F3  3A00               	xorlw	0
  2764     14F4  1903               	skipnz
  2765     14F5  2CF7               	goto	u4161
  2766     14F6  2CF8               	goto	u4160
  2767     14F7                     u4161:
  2768     14F7  2D00               	goto	l3815
  2769     14F8                     u4160:
  2770     14F8                     l3813:
  2771                           
  2772                           ;main.c: 171:         EUSART_Write_Text("mount FAIL\n");
  2773     14F8  30C3               	movlw	low (STR_13| (0+32768))
  2774     14F9  00F1               	movwf	EUSART_Write_Text@text
  2775     14FA  3098               	movlw	high (STR_13| (0+32768))
  2776     14FB  00F2               	movwf	EUSART_Write_Text@text+1
  2777     14FC  3193  23BF  3194   	fcall	_EUSART_Write_Text
  2778     14FF                     l563:	
  2779                           ;main.c: 172:         while(1);
  2780                           
  2781     14FF                     l564:
  2782     14FF  2CFF               	goto	l563
  2783     1500                     l3815:
  2784                           
  2785                           ;main.c: 175:     EUSART_Write_Text("Mounted OK\n");
  2786     1500  30AB               	movlw	low (STR_14| (0+32768))
  2787     1501  00F1               	movwf	EUSART_Write_Text@text
  2788     1502  3098               	movlw	high (STR_14| (0+32768))
  2789     1503  00F2               	movwf	EUSART_Write_Text@text+1
  2790     1504  3193  23BF  3194   	fcall	_EUSART_Write_Text
  2791     1507                     l3817:
  2792                           
  2793                           ;main.c: 177:     write_test();
  2794     1507  318E  26D3  3194   	fcall	_write_test
  2795     150A                     l566:	
  2796                           ;main.c: 179:     while(1);
  2797                           
  2798     150A                     l567:
  2799     150A  2D0A               	goto	l566
  2800     150B  3180  2802         	ljmp	start
  2801     150D                     __end_of_main:
  2802                           
  2803                           	psect	text1
  2804     0ED3                     __ptext1:	
  2805 ;; *************** function _write_test *****************
  2806 ;; Defined at:
  2807 ;;		line 108 in file "main.c"
  2808 ;; Parameters:    Size  Location     Type
  2809 ;;		None
  2810 ;; Auto vars:     Size  Location     Type
  2811 ;;  pad            32    0[BANK2 ] unsigned char [32]
  2812 ;;  chunk           2   32[BANK2 ] unsigned int 
  2813 ;;  bw              2   37[BANK2 ] unsigned int 
  2814 ;;  total           2   34[BANK2 ] unsigned int 
  2815 ;;  fr              1   36[BANK2 ] enum E6100
  2816 ;; Return value:  Size  Location     Type
  2817 ;;                  1    wreg      void 
  2818 ;; Registers used:
  2819 ;;		wreg, fsr0l, fsr0h, fsr1l, fsr1h, status,2, status,0, pclath, cstack
  2820 ;; Tracked objects:
  2821 ;;		On entry : 0/0
  2822 ;;		On exit  : 0/0
  2823 ;;		Unchanged: 0/0
  2824 ;; Data sizes:     COMMON   BANK0   BANK1   BANK2   BANK3   BANK4   BANK5   BANK6   BANK7   BANK8   BANK9  BANK10  BANK1
      +1  BANK12  BANK13  BANK14  BANK15  BANK16  BANK17  BANK18  BANK19  BANK20  BANK21  BANK22  BANK23  BANK24  BANK25
  2825 ;;      Params:         0       0       0       0       0       0       0       0       0       0       0       0       
      +0       0       0       0       0       0       0       0       0       0       0       0       0       0       0
  2826 ;;      Locals:         0       0       0      39       0       0       0       0       0       0       0       0       
      +0       0       0       0       0       0       0       0       0       0       0       0       0       0       0
  2827 ;;      Temps:          0       0       8       0       0       0       0       0       0       0       0       0       
      +0       0       0       0       0       0       0       0       0       0       0       0       0       0       0
  2828 ;;      Totals:         0       0       8      39       0       0       0       0       0       0       0       0       
      +0       0       0       0       0       0       0       0       0       0       0       0       0       0       0
  2829 ;;Total ram usage:       47 bytes
  2830 ;; Hardware stack levels used: 1
  2831 ;; Hardware stack levels required when called: 11
  2832 ;; This function calls:
  2833 ;;		_EUSART_Write_Text
  2834 ;;		_memset
  2835 ;;		_pf_lseek
  2836 ;;		_pf_open
  2837 ;;		_pf_write
  2838 ;;		_strlen
  2839 ;; This function is called by:
  2840 ;;		_main
  2841 ;; This function uses a non-reentrant model
  2842 ;;
  2843                           
  2844     0ED3                     _write_test:	
  2845                           ;psect for function _write_test
  2846                           
  2847     0ED3                     l3633:	
  2848                           ;incstack = 0
  2849                           ; Regs used in _write_test: [wreg-fsr1h+status,2+status,0+pclath+cstack]
  2850                           
  2851                           
  2852                           ;main.c: 110:     UINT bw;;main.c: 111:     FRESULT fr;;main.c: 113:     const char msg[
      +                          ] = "Hello from PIC16F1718!\r\n";;main.c: 114:     UINT total = 0;
  2853     0ED3  0022               	movlb	2	; select bank2
  2854     0ED4  01C2               	clrf	write_test@total^(0+256)
  2855     0ED5  01C3               	clrf	(write_test@total+1)^(0+256)
  2856     0ED6                     l3635:
  2857                           
  2858                           ;main.c: 116:     EUSART_Write_Text("pf_open LOG.TXT...\n");
  2859     0ED6  3019               	movlw	low (STR_1| (0+32768))
  2860     0ED7  00F1               	movwf	EUSART_Write_Text@text
  2861     0ED8  3098               	movlw	high (STR_1| (0+32768))
  2862     0ED9  00F2               	movwf	EUSART_Write_Text@text+1
  2863     0EDA  3193  23BF  318E   	fcall	_EUSART_Write_Text
  2864     0EDD                     l3637:
  2865                           
  2866                           ;main.c: 117:     fr = pf_open("LOG.TXT");
  2867     0EDD  30D9               	movlw	low (STR_2| (0+32768))
  2868     0EDE  0020               	movlb	0	; select bank0
  2869     0EDF  00EA               	movwf	pf_open@path
  2870     0EE0  3098               	movlw	high (STR_2| (0+32768))
  2871     0EE1  00EB               	movwf	pf_open@path+1
  2872     0EE2  3196  2616  318E   	fcall	_pf_open
  2873     0EE5  0022               	movlb	2	; select bank2
  2874     0EE6  00C4               	movwf	write_test@fr^(0+256)
  2875     0EE7                     l3639:
  2876                           
  2877                           ;main.c: 118:     if (fr != FR_OK) { EUSART_Write_Text("pf_open FAIL\n"); while(1); }
  2878     0EE7  0844               	movf	write_test@fr^(0+256),w
  2879     0EE8  1903               	btfsc	3,2
  2880     0EE9  2EEB               	goto	u3871
  2881     0EEA  2EEC               	goto	u3870
  2882     0EEB                     u3871:
  2883     0EEB  2EF4               	goto	l3643
  2884     0EEC                     u3870:
  2885     0EEC                     l3641:
  2886     0EEC  3090               	movlw	low (STR_3| (0+32768))
  2887     0EED  00F1               	movwf	EUSART_Write_Text@text
  2888     0EEE  3098               	movlw	high (STR_3| (0+32768))
  2889     0EEF  00F2               	movwf	EUSART_Write_Text@text+1
  2890     0EF0  3193  23BF  318E   	fcall	_EUSART_Write_Text
  2891     0EF3                     l526:
  2892     0EF3                     l527:
  2893     0EF3  2EF3               	goto	l526
  2894     0EF4                     l3643:
  2895                           
  2896                           ;main.c: 121:     fr = pf_lseek(0);
  2897     0EF4  3000               	movlw	0
  2898     0EF5  0020               	movlb	0	; select bank0
  2899     0EF6  00D1               	movwf	pf_lseek@ofs+3
  2900     0EF7  3000               	movlw	0
  2901     0EF8  00D0               	movwf	pf_lseek@ofs+2
  2902     0EF9  3000               	movlw	0
  2903     0EFA  00CF               	movwf	pf_lseek@ofs+1
  2904     0EFB  3000               	movlw	0
  2905     0EFC  00CE               	movwf	pf_lseek@ofs
  2906     0EFD  3185  252B  318E   	fcall	_pf_lseek
  2907     0F00  0022               	movlb	2	; select bank2
  2908     0F01  00C4               	movwf	write_test@fr^(0+256)
  2909     0F02                     l3645:
  2910                           
  2911                           ;main.c: 122:     if (fr != FR_OK) { EUSART_Write_Text("lseek FAIL\n"); while(1); }
  2912     0F02  0844               	movf	write_test@fr^(0+256),w
  2913     0F03  1903               	btfsc	3,2
  2914     0F04  2F06               	goto	u3881
  2915     0F05  2F07               	goto	u3880
  2916     0F06                     u3881:
  2917     0F06  2F0F               	goto	l3649
  2918     0F07                     u3880:
  2919     0F07                     l3647:
  2920     0F07  30B7               	movlw	low (STR_4| (0+32768))
  2921     0F08  00F1               	movwf	EUSART_Write_Text@text
  2922     0F09  3098               	movlw	high (STR_4| (0+32768))
  2923     0F0A  00F2               	movwf	EUSART_Write_Text@text+1
  2924     0F0B  3193  23BF  318E   	fcall	_EUSART_Write_Text
  2925     0F0E                     l530:
  2926     0F0E                     l531:
  2927     0F0E  2F0E               	goto	l530
  2928     0F0F                     l3649:
  2929                           
  2930                           ;main.c: 125:     EUSART_Write_Text("pf_write msg...\n");
  2931     0F0F  3041               	movlw	low (STR_5| (0+32768))
  2932     0F10  00F1               	movwf	EUSART_Write_Text@text
  2933     0F11  3098               	movlw	high (STR_5| (0+32768))
  2934     0F12  00F2               	movwf	EUSART_Write_Text@text+1
  2935     0F13  3193  23BF  318E   	fcall	_EUSART_Write_Text
  2936     0F16                     l3651:
  2937                           
  2938                           ;main.c: 126:     fr = pf_write(msg, (UINT)strlen(msg), &bw);
  2939     0F16  3000               	movlw	low (write_test@msg| (0+32768))
  2940     0F17  0020               	movlb	0	; select bank0
  2941     0F18  00CE               	movwf	pf_write@buff
  2942     0F19  3098               	movlw	high (write_test@msg| (0+32768))
  2943     0F1A  00CF               	movwf	pf_write@buff+1
  2944     0F1B  3000               	movlw	low (write_test@msg| (0+32768))
  2945     0F1C  00F0               	movwf	strlen@s
  2946     0F1D  3098               	movlw	high (write_test@msg| (0+32768))
  2947     0F1E  00F1               	movwf	strlen@s+1
  2948     0F1F  3193  2371  318E   	fcall	_strlen
  2949     0F22  0871               	movf	?_strlen+1,w
  2950     0F23  0020               	movlb	0	; select bank0
  2951     0F24  00D1               	movwf	pf_write@btw+1
  2952     0F25  0870               	movf	?_strlen,w
  2953     0F26  00D0               	movwf	pf_write@btw
  2954     0F27  3045               	movlw	(low (write_test@bw| (0+256)))& (0+255)
  2955     0F28  00D2               	movwf	pf_write@bw
  2956     0F29  3180  2056  318E   	fcall	_pf_write
  2957     0F2C  0022               	movlb	2	; select bank2
  2958     0F2D  00C4               	movwf	write_test@fr^(0+256)
  2959     0F2E                     l3653:
  2960                           
  2961                           ;main.c: 127:     if (fr != FR_OK) { EUSART_Write_Text("pf_write FAIL\n"); while(1); }
  2962     0F2E  0844               	movf	write_test@fr^(0+256),w
  2963     0F2F  1903               	btfsc	3,2
  2964     0F30  2F32               	goto	u3891
  2965     0F31  2F33               	goto	u3890
  2966     0F32                     u3891:
  2967     0F32  2F3B               	goto	l3657
  2968     0F33                     u3890:
  2969     0F33                     l3655:
  2970     0F33  3072               	movlw	low (STR_6| (0+32768))
  2971     0F34  00F1               	movwf	EUSART_Write_Text@text
  2972     0F35  3098               	movlw	high (STR_6| (0+32768))
  2973     0F36  00F2               	movwf	EUSART_Write_Text@text+1
  2974     0F37  3193  23BF  318E   	fcall	_EUSART_Write_Text
  2975     0F3A                     l534:
  2976     0F3A                     l535:
  2977     0F3A  2F3A               	goto	l534
  2978     0F3B                     l3657:
  2979                           
  2980                           ;main.c: 128:     total += bw;
  2981     0F3B  0845               	movf	write_test@bw^(0+256),w
  2982     0F3C  07C2               	addwf	write_test@total^(0+256),f
  2983     0F3D  0846               	movf	(write_test@bw+1)^(0+256),w
  2984     0F3E  3DC3               	addwfc	(write_test@total+1)^(0+256),f
  2985                           
  2986                           ;main.c: 134:     while (total < fs.fsize) {
  2987     0F3F  2FBA               	goto	l3679
  2988     0F40                     l3659:
  2989                           
  2990                           ;main.c: 135:         char pad[32];;main.c: 136:         UINT chunk = (fs.fsize - total 
      +                          > sizeof(pad)) ? sizeof(pad) : (UINT)(fs.fsize - total);
  2991     0F40  0022               	movlb	2	; select bank2
  2992     0F41  0842               	movf	write_test@total^(0+256),w
  2993     0F42  0021               	movlb	1	; select bank1
  2994     0F43  00DD               	movwf	??_write_test^(0+128)
  2995     0F44  0022               	movlb	2	; select bank2
  2996     0F45  0843               	movf	(write_test@total+1)^(0+256),w
  2997     0F46  0021               	movlb	1	; select bank1
  2998     0F47  00DE               	movwf	(??_write_test^(0+128)+1)
  2999     0F48  01DF               	clrf	(??_write_test^(0+128)+2)
  3000     0F49  01E0               	clrf	(??_write_test^(0+128)+3)
  3001     0F4A  0023               	movlb	3	; select bank3
  3002     0F4B  083A               	movf	(_fs^(0+384)+26),w
  3003     0F4C  0021               	movlb	1	; select bank1
  3004     0F4D  00E1               	movwf	(??_write_test+4)^(0+128)
  3005     0F4E  0023               	movlb	3	; select bank3
  3006     0F4F  083B               	movf	((_fs+1)^(0+384)+26),w
  3007     0F50  0021               	movlb	1	; select bank1
  3008     0F51  00E2               	movwf	((??_write_test+4)^(0+128)+1)
  3009     0F52  0023               	movlb	3	; select bank3
  3010     0F53  083C               	movf	((_fs+2)^(0+384)+26),w
  3011     0F54  0021               	movlb	1	; select bank1
  3012     0F55  00E3               	movwf	((??_write_test+4)^(0+128)+2)
  3013     0F56  0023               	movlb	3	; select bank3
  3014     0F57  083D               	movf	((_fs+3)^(0+384)+26),w
  3015     0F58  0021               	movlb	1	; select bank1
  3016     0F59  00E4               	movwf	((??_write_test+4)^(0+128)+3)
  3017     0F5A  085D               	movf	??_write_test^(0+128),w
  3018     0F5B  02E1               	subwf	(??_write_test+4)^(0+128),f
  3019     0F5C  085E               	movf	(??_write_test+1)^(0+128),w
  3020     0F5D  3BE2               	subwfb	((??_write_test+4)^(0+128)+1),f
  3021     0F5E  085F               	movf	(??_write_test+2)^(0+128),w
  3022     0F5F  3BE3               	subwfb	((??_write_test+4)^(0+128)+2),f
  3023     0F60  0860               	movf	(??_write_test+3)^(0+128),w
  3024     0F61  3BE4               	subwfb	((??_write_test+4)^(0+128)+3),f
  3025     0F62  0864               	movf	((??_write_test+4)^(0+128)+3),w
  3026     0F63  1D03               	btfss	3,2
  3027     0F64  2F70               	goto	u3901
  3028     0F65  0863               	movf	((??_write_test+4)^(0+128)+2),w
  3029     0F66  1D03               	btfss	3,2
  3030     0F67  2F70               	goto	u3901
  3031     0F68  0862               	movf	((??_write_test+4)^(0+128)+1),w
  3032     0F69  1D03               	btfss	3,2
  3033     0F6A  2F70               	goto	u3901
  3034     0F6B  3021               	movlw	33
  3035     0F6C  0261               	subwf	(??_write_test+4)^(0+128),w
  3036     0F6D  1803               	btfsc	3,0
  3037     0F6E  2F70               	goto	u3901
  3038     0F6F  2F71               	goto	u3900
  3039     0F70                     u3901:
  3040     0F70  2F7D               	goto	l3663
  3041     0F71                     u3900:
  3042     0F71                     l3661:
  3043     0F71  0022               	movlb	2	; select bank2
  3044     0F72  0842               	movf	write_test@total^(0+256),w
  3045     0F73  0023               	movlb	3	; select bank3
  3046     0F74  023A               	subwf	(_fs^(0+384)+26),w
  3047     0F75  0022               	movlb	2	; select bank2
  3048     0F76  00C0               	movwf	write_test@chunk^(0+256)
  3049     0F77  0843               	movf	(write_test@total+1)^(0+256),w
  3050     0F78  0023               	movlb	3	; select bank3
  3051     0F79  3B3B               	subwfb	((_fs+1)^(0+384)+26),w
  3052     0F7A  0022               	movlb	2	; select bank2
  3053     0F7B  00C1               	movwf	(write_test@chunk+1)^(0+256)
  3054     0F7C  2F82               	goto	l3665
  3055     0F7D                     l3663:
  3056     0F7D  3020               	movlw	32
  3057     0F7E  0022               	movlb	2	; select bank2
  3058     0F7F  00C0               	movwf	write_test@chunk^(0+256)
  3059     0F80  3000               	movlw	0
  3060     0F81  00C1               	movwf	(write_test@chunk^(0+256)+1)
  3061     0F82                     l3665:
  3062                           
  3063                           ;main.c: 137:         memset(pad, ' ', chunk);
  3064     0F82  3020               	movlw	32
  3065     0F83  00F0               	movwf	memset@c
  3066     0F84  3000               	movlw	0
  3067     0F85  00F1               	movwf	memset@c+1
  3068     0F86  0841               	movf	(write_test@chunk+1)^(0+256),w
  3069     0F87  00F3               	movwf	memset@n+1
  3070     0F88  0840               	movf	write_test@chunk^(0+256),w
  3071     0F89  00F2               	movwf	memset@n
  3072     0F8A  3020               	movlw	(low (write_test@pad| (0+256)))& (0+255)
  3073     0F8B  3193  23A4  318E   	fcall	_memset
  3074     0F8E                     l3667:
  3075                           
  3076                           ;main.c: 139:         fr = pf_write(pad, chunk, &bw);
  3077     0F8E  3020               	movlw	low write_test@pad
  3078     0F8F  0020               	movlb	0	; select bank0
  3079     0F90  00CE               	movwf	pf_write@buff
  3080     0F91  3001               	movlw	high write_test@pad
  3081     0F92  00CF               	movwf	pf_write@buff+1
  3082     0F93  0022               	movlb	2	; select bank2
  3083     0F94  0841               	movf	(write_test@chunk+1)^(0+256),w
  3084     0F95  0020               	movlb	0	; select bank0
  3085     0F96  00D1               	movwf	pf_write@btw+1
  3086     0F97  0022               	movlb	2	; select bank2
  3087     0F98  0840               	movf	write_test@chunk^(0+256),w
  3088     0F99  0020               	movlb	0	; select bank0
  3089     0F9A  00D0               	movwf	pf_write@btw
  3090     0F9B  3045               	movlw	(low (write_test@bw| (0+256)))& (0+255)
  3091     0F9C  00D2               	movwf	pf_write@bw
  3092     0F9D  3180  2056  318E   	fcall	_pf_write
  3093     0FA0  0022               	movlb	2	; select bank2
  3094     0FA1  00C4               	movwf	write_test@fr^(0+256)
  3095     0FA2                     l3669:
  3096                           
  3097                           ;main.c: 140:         if (fr != FR_OK) { EUSART_Write_Text("pad write FAIL\n"); while(1)
      +                          ; }
  3098     0FA2  0844               	movf	write_test@fr^(0+256),w
  3099     0FA3  1903               	btfsc	3,2
  3100     0FA4  2FA6               	goto	u3911
  3101     0FA5  2FA7               	goto	u3910
  3102     0FA6                     u3911:
  3103     0FA6  2FAF               	goto	l3673
  3104     0FA7                     u3910:
  3105     0FA7                     l3671:
  3106     0FA7  3052               	movlw	low (STR_7| (0+32768))
  3107     0FA8  00F1               	movwf	EUSART_Write_Text@text
  3108     0FA9  3098               	movlw	high (STR_7| (0+32768))
  3109     0FAA  00F2               	movwf	EUSART_Write_Text@text+1
  3110     0FAB  3193  23BF  318E   	fcall	_EUSART_Write_Text
  3111     0FAE                     l544:
  3112     0FAE                     l545:
  3113     0FAE  2FAE               	goto	l544
  3114     0FAF                     l3673:
  3115                           
  3116                           ;main.c: 141:         total += bw;
  3117     0FAF  0845               	movf	write_test@bw^(0+256),w
  3118     0FB0  07C2               	addwf	write_test@total^(0+256),f
  3119     0FB1  0846               	movf	(write_test@bw+1)^(0+256),w
  3120     0FB2  3DC3               	addwfc	(write_test@total+1)^(0+256),f
  3121     0FB3                     l3675:
  3122                           
  3123                           ;main.c: 143:         if (bw == 0) break;
  3124     0FB3  0845               	movf	write_test@bw^(0+256),w
  3125     0FB4  0446               	iorwf	(write_test@bw+1)^(0+256),w
  3126     0FB5  1D03               	btfss	3,2
  3127     0FB6  2FB8               	goto	u3921
  3128     0FB7  2FB9               	goto	u3920
  3129     0FB8                     u3921:
  3130     0FB8  2FBA               	goto	l3679
  3131     0FB9                     u3920:
  3132     0FB9  2FDD               	goto	l3681
  3133     0FBA                     l3679:
  3134                           
  3135                           ;main.c: 134:     while (total < fs.fsize) {
  3136     0FBA  0842               	movf	write_test@total^(0+256),w
  3137     0FBB  0021               	movlb	1	; select bank1
  3138     0FBC  00DD               	movwf	??_write_test^(0+128)
  3139     0FBD  0022               	movlb	2	; select bank2
  3140     0FBE  0843               	movf	(write_test@total+1)^(0+256),w
  3141     0FBF  0021               	movlb	1	; select bank1
  3142     0FC0  00DE               	movwf	(??_write_test^(0+128)+1)
  3143     0FC1  01DF               	clrf	(??_write_test^(0+128)+2)
  3144     0FC2  01E0               	clrf	(??_write_test^(0+128)+3)
  3145     0FC3  0023               	movlb	3	; select bank3
  3146     0FC4  083D               	movf	((_fs+3)^(0+384)+26),w
  3147     0FC5  0021               	movlb	1	; select bank1
  3148     0FC6  0260               	subwf	(??_write_test+3)^(0+128),w
  3149     0FC7  1D03               	skipz
  3150     0FC8  2FD9               	goto	u3935
  3151     0FC9  0023               	movlb	3	; select bank3
  3152     0FCA  083C               	movf	((_fs+2)^(0+384)+26),w
  3153     0FCB  0021               	movlb	1	; select bank1
  3154     0FCC  025F               	subwf	(??_write_test+2)^(0+128),w
  3155     0FCD  1D03               	skipz
  3156     0FCE  2FD9               	goto	u3935
  3157     0FCF  0023               	movlb	3	; select bank3
  3158     0FD0  083B               	movf	((_fs+1)^(0+384)+26),w
  3159     0FD1  0021               	movlb	1	; select bank1
  3160     0FD2  025E               	subwf	(??_write_test+1)^(0+128),w
  3161     0FD3  1D03               	skipz
  3162     0FD4  2FD9               	goto	u3935
  3163     0FD5  0023               	movlb	3	; select bank3
  3164     0FD6  083A               	movf	(_fs^(0+384)+26),w
  3165     0FD7  0021               	movlb	1	; select bank1
  3166     0FD8  025D               	subwf	??_write_test^(0+128),w
  3167     0FD9                     u3935:
  3168     0FD9  1C03               	skipc
  3169     0FDA  2FDC               	goto	u3931
  3170     0FDB  2FDD               	goto	u3930
  3171     0FDC                     u3931:
  3172     0FDC  2F40               	goto	l3659
  3173     0FDD                     u3930:
  3174     0FDD                     l3681:
  3175                           
  3176                           ;main.c: 147:     fr = pf_write(0, 0, &bw);
  3177     0FDD  3000               	movlw	0
  3178     0FDE  0020               	movlb	0	; select bank0
  3179     0FDF  00CE               	movwf	pf_write@buff
  3180     0FE0  00CF               	movwf	pf_write@buff+1
  3181     0FE1  3000               	movlw	0
  3182     0FE2  00D0               	movwf	pf_write@btw
  3183     0FE3  00D1               	movwf	pf_write@btw+1
  3184     0FE4  3045               	movlw	(low (write_test@bw| (0+256)))& (0+255)
  3185     0FE5  00D2               	movwf	pf_write@bw
  3186     0FE6  3180  2056  318E   	fcall	_pf_write
  3187     0FE9  0022               	movlb	2	; select bank2
  3188     0FEA  00C4               	movwf	write_test@fr^(0+256)
  3189     0FEB                     l3683:
  3190                           
  3191                           ;main.c: 148:     if (fr != FR_OK) { EUSART_Write_Text("finalize FAIL\n"); while(1); }
  3192     0FEB  0844               	movf	write_test@fr^(0+256),w
  3193     0FEC  1903               	btfsc	3,2
  3194     0FED  2FEF               	goto	u3941
  3195     0FEE  2FF0               	goto	u3940
  3196     0FEF                     u3941:
  3197     0FEF  2FF8               	goto	l3687
  3198     0FF0                     u3940:
  3199     0FF0                     l3685:
  3200     0FF0  3081               	movlw	low (STR_8| (0+32768))
  3201     0FF1  00F1               	movwf	EUSART_Write_Text@text
  3202     0FF2  3098               	movlw	high (STR_8| (0+32768))
  3203     0FF3  00F2               	movwf	EUSART_Write_Text@text+1
  3204     0FF4  3193  23BF  318E   	fcall	_EUSART_Write_Text
  3205     0FF7                     l550:
  3206     0FF7                     l551:
  3207     0FF7  2FF7               	goto	l550
  3208     0FF8                     l3687:
  3209                           
  3210                           ;main.c: 150:     EUSART_Write_Text("Write OK\n");
  3211     0FF8  30CF               	movlw	low (STR_9| (0+32768))
  3212     0FF9  00F1               	movwf	EUSART_Write_Text@text
  3213     0FFA  3098               	movlw	high (STR_9| (0+32768))
  3214     0FFB  00F2               	movwf	EUSART_Write_Text@text+1
  3215     0FFC  3193  23BF  318E   	fcall	_EUSART_Write_Text
  3216     0FFF                     l553:
  3217     0FFF  0008               	return
  3218     1000                     __end_of_write_test:
  3219                           
  3220                           	psect	text2
  3221     1371                     __ptext2:	
  3222 ;; *************** function _strlen *****************
  3223 ;; Defined at:
  3224 ;;		line 5 in file "C:\Program Files\Microchip\xc8\v2.46\pic\sources\c99\common\strlen.c"
  3225 ;; Parameters:    Size  Location     Type
  3226 ;;  s               2    0[COMMON] PTR const unsigned char 
  3227 ;;		 -> write_test@msg(25), 
  3228 ;; Auto vars:     Size  Location     Type
  3229 ;;  a               2    3[COMMON] PTR const unsigned char 
  3230 ;;		 -> write_test@msg(25), 
  3231 ;; Return value:  Size  Location     Type
  3232 ;;                  2    0[COMMON] unsigned int 
  3233 ;; Registers used:
  3234 ;;		wreg, fsr0l, fsr0h, status,2, status,0
  3235 ;; Tracked objects:
  3236 ;;		On entry : 0/0
  3237 ;;		On exit  : 0/0
  3238 ;;		Unchanged: 0/0
  3239 ;; Data sizes:     COMMON   BANK0   BANK1   BANK2   BANK3   BANK4   BANK5   BANK6   BANK7   BANK8   BANK9  BANK10  BANK1
      +1  BANK12  BANK13  BANK14  BANK15  BANK16  BANK17  BANK18  BANK19  BANK20  BANK21  BANK22  BANK23  BANK24  BANK25
  3240 ;;      Params:         2       0       0       0       0       0       0       0       0       0       0       0       
      +0       0       0       0       0       0       0       0       0       0       0       0       0       0       0
  3241 ;;      Locals:         2       0       0       0       0       0       0       0       0       0       0       0       
      +0       0       0       0       0       0       0       0       0       0       0       0       0       0       0
  3242 ;;      Temps:          1       0       0       0       0       0       0       0       0       0       0       0       
      +0       0       0       0       0       0       0       0       0       0       0       0       0       0       0
  3243 ;;      Totals:         5       0       0       0       0       0       0       0       0       0       0       0       
      +0       0       0       0       0       0       0       0       0       0       0       0       0       0       0
  3244 ;;Total ram usage:        5 bytes
  3245 ;; Hardware stack levels used: 1
  3246 ;; This function calls:
  3247 ;;		Nothing
  3248 ;; This function is called by:
  3249 ;;		_write_test
  3250 ;; This function uses a non-reentrant model
  3251 ;;
  3252                           
  3253     1371                     _strlen:	
  3254                           ;psect for function _strlen
  3255                           
  3256     1371                     l3459:	
  3257                           ;incstack = 0
  3258                           ; Regs used in _strlen: [wreg-fsr0h+status,2+status,0]
  3259                           
  3260     1371  0871               	movf	strlen@s+1,w
  3261     1372  00F4               	movwf	strlen@a+1
  3262     1373  0870               	movf	strlen@s,w
  3263     1374  00F3               	movwf	strlen@a
  3264     1375  2B7A               	goto	l3463
  3265     1376                     l3461:
  3266     1376  3001               	movlw	1
  3267     1377  07F0               	addwf	strlen@s,f
  3268     1378  3000               	movlw	0
  3269     1379  3DF1               	addwfc	strlen@s+1,f
  3270     137A                     l3463:
  3271     137A  0870               	movf	strlen@s,w
  3272     137B  0084               	movwf	4
  3273     137C  0871               	movf	strlen@s+1,w
  3274     137D  0085               	movwf	5
  3275     137E  0012               	moviw fsr0++
  3276     137F  1D03               	btfss	3,2
  3277     1380  2B82               	goto	u3721
  3278     1381  2B83               	goto	u3720
  3279     1382                     u3721:
  3280     1382  2B76               	goto	l3461
  3281     1383                     u3720:
  3282     1383                     l3465:
  3283     1383  0873               	movf	strlen@a,w
  3284     1384  0270               	subwf	strlen@s,w
  3285     1385  00F0               	movwf	?_strlen
  3286     1386  0874               	movf	strlen@a+1,w
  3287     1387  3B71               	subwfb	strlen@s+1,w
  3288     1388  00F1               	movwf	?_strlen+1
  3289     1389                     l1105:
  3290     1389  0008               	return
  3291     138A                     __end_of_strlen:
  3292                           
  3293                           	psect	text3
  3294     0056                     __ptext3:	
  3295 ;; *************** function _pf_write *****************
  3296 ;; Defined at:
  3297 ;;		line 985 in file "pff.c"
  3298 ;; Parameters:    Size  Location     Type
  3299 ;;  buff            2   46[BANK0 ] PTR const void 
  3300 ;;		 -> write_test@pad(32), write_test@msg(25), NULL(0), 
  3301 ;;  btw             2   48[BANK0 ] unsigned int 
  3302 ;;  bw              1   50[BANK0 ] PTR unsigned int 
  3303 ;;		 -> write_test@bw(2), 
  3304 ;; Auto vars:     Size  Location     Type
  3305 ;;  clst            4   69[BANK0 ] unsigned long 
  3306 ;;  remain          4   65[BANK0 ] unsigned long 
  3307 ;;  sect            4   61[BANK0 ] unsigned long 
  3308 ;;  wcnt            2   74[BANK0 ] unsigned int 
  3309 ;;  p               2   59[BANK0 ] PTR const unsigned char 
  3310 ;;		 -> write_test@pad(32), write_test@msg(25), NULL(0), 
  3311 ;;  fs              1   76[BANK0 ] PTR struct .
  3312 ;;		 -> fs(42), NULL(0), 
  3313 ;;  cs              1   73[BANK0 ] unsigned char 
  3314 ;; Return value:  Size  Location     Type
  3315 ;;                  1    wreg      enum E71
  3316 ;; Registers used:
  3317 ;;		wreg, fsr0l, fsr0h, fsr1l, fsr1h, status,2, status,0, pclath, cstack
  3318 ;; Tracked objects:
  3319 ;;		On entry : 0/0
  3320 ;;		On exit  : 0/0
  3321 ;;		Unchanged: 0/0
  3322 ;; Data sizes:     COMMON   BANK0   BANK1   BANK2   BANK3   BANK4   BANK5   BANK6   BANK7   BANK8   BANK9  BANK10  BANK1
      +1  BANK12  BANK13  BANK14  BANK15  BANK16  BANK17  BANK18  BANK19  BANK20  BANK21  BANK22  BANK23  BANK24  BANK25
  3323 ;;      Params:         0       5       0       0       0       0       0       0       0       0       0       0       
      +0       0       0       0       0       0       0       0       0       0       0       0       0       0       0
  3324 ;;      Locals:         0      18       0       0       0       0       0       0       0       0       0       0       
      +0       0       0       0       0       0       0       0       0       0       0       0       0       0       0
  3325 ;;      Temps:          0       8       0       0       0       0       0       0       0       0       0       0       
      +0       0       0       0       0       0       0       0       0       0       0       0       0       0       0
  3326 ;;      Totals:         0      31       0       0       0       0       0       0       0       0       0       0       
      +0       0       0       0       0       0       0       0       0       0       0       0       0       0       0
  3327 ;;Total ram usage:       31 bytes
  3328 ;; Hardware stack levels used: 1
  3329 ;; Hardware stack levels required when called: 7
  3330 ;; This function calls:
  3331 ;;		_clust2sect
  3332 ;;		_disk_writep
  3333 ;;		_get_fat
  3334 ;; This function is called by:
  3335 ;;		_write_test
  3336 ;; This function uses a non-reentrant model
  3337 ;;
  3338                           
  3339     0056                     _pf_write:	
  3340                           ;psect for function _pf_write
  3341                           
  3342     0056                     l3265:	
  3343                           ;incstack = 0
  3344                           ; Regs used in _pf_write: [wreg-fsr1h+status,2+status,0+pclath+cstack]
  3345                           
  3346                           
  3347                           ;pff.c: 986:  const void* buff,;pff.c: 987:  UINT btw,;pff.c: 988:  UINT* bw;pff.c: 990:
      +                           {;pff.c: 991:  DWORD clst;;pff.c: 992:  DWORD sect, remain;;pff.c: 993:  const BYTE *p 
      +                          = buff;
  3348     0056  0020               	movlb	0	; select bank0
  3349     0057  084F               	movf	pf_write@buff+1,w
  3350     0058  00DC               	movwf	pf_write@p+1
  3351     0059  084E               	movf	pf_write@buff,w
  3352     005A  00DB               	movwf	pf_write@p
  3353                           
  3354                           ;pff.c: 994:  BYTE cs;;pff.c: 995:  UINT wcnt;;pff.c: 996:  FATFS *fs = FatFs;
  3355     005B  086F               	movf	_FatFs,w
  3356     005C  00EC               	movwf	pf_write@fs
  3357     005D                     l3267:
  3358                           
  3359                           ;pff.c: 999:  *bw = 0;
  3360     005D  0852               	movf	pf_write@bw,w
  3361     005E  0086               	movwf	6
  3362     005F  3001               	movlw	1	; select bank2/3
  3363     0060  0087               	movwf	7
  3364     0061  3000               	movlw	0
  3365     0062  3FC0               	movwi [0]fsr1
  3366     0063  3FC1               	movwi [1]fsr1
  3367     0064                     l3269:
  3368                           
  3369                           ;pff.c: 1000:  if (!fs) return FR_NOT_ENABLED;
  3370     0064  086C               	movf	pf_write@fs,w
  3371     0065  1D03               	btfss	3,2
  3372     0066  2868               	goto	u3411
  3373     0067  2869               	goto	u3410
  3374     0068                     u3411:
  3375     0068  286B               	goto	l3275
  3376     0069                     u3410:
  3377     0069                     l3271:
  3378     0069  3005               	movlw	5
  3379     006A  2AB5               	goto	l320
  3380     006B                     l3275:
  3381                           
  3382                           ;pff.c: 1001:  if (!(fs->flag & 0x01)) return FR_NOT_OPENED;
  3383     006B  0A6C               	incf	pf_write@fs,w
  3384     006C  0086               	movwf	6
  3385     006D  3001               	movlw	1	; select bank2/3
  3386     006E  0087               	movwf	7
  3387     006F  1801               	btfsc	1,0
  3388     0070  2872               	goto	u3421
  3389     0071  2873               	goto	u3420
  3390     0072                     u3421:
  3391     0072  2875               	goto	l3281
  3392     0073                     u3420:
  3393     0073                     l3277:
  3394     0073  3004               	movlw	4
  3395     0074  2AB5               	goto	l320
  3396     0075                     l3281:
  3397                           
  3398                           ;pff.c: 1003:  if (!btw) {
  3399     0075  0850               	movf	pf_write@btw,w
  3400     0076  0451               	iorwf	pf_write@btw+1,w
  3401     0077  1D03               	btfss	3,2
  3402     0078  287A               	goto	u3431
  3403     0079  287B               	goto	u3430
  3404     007A                     u3431:
  3405     007A  28A9               	goto	l3301
  3406     007B                     u3430:
  3407     007B                     l3283:
  3408                           
  3409                           ;pff.c: 1004:   if ((fs->flag & 0x40) && disk_writep(0, 0)) {fs->flag = 0; return FR_DIS
      +                          K_ERR;};
  3410     007B  0A6C               	incf	pf_write@fs,w
  3411     007C  0086               	movwf	6
  3412     007D  3001               	movlw	1	; select bank2/3
  3413     007E  0087               	movwf	7
  3414     007F  1F01               	btfss	1,6
  3415     0080  2882               	goto	u3441
  3416     0081  2883               	goto	u3440
  3417     0082                     u3441:
  3418     0082  289E               	goto	l3293
  3419     0083                     u3440:
  3420     0083                     l3285:
  3421     0083  3000               	movlw	0
  3422     0084  00A7               	movwf	disk_writep@buff
  3423     0085  00A8               	movwf	disk_writep@buff+1
  3424     0086  3000               	movlw	0
  3425     0087  00AC               	movwf	disk_writep@sc+3
  3426     0088  3000               	movlw	0
  3427     0089  00AB               	movwf	disk_writep@sc+2
  3428     008A  3000               	movlw	0
  3429     008B  00AA               	movwf	disk_writep@sc+1
  3430     008C  3000               	movlw	0
  3431     008D  00A9               	movwf	disk_writep@sc
  3432     008E  318B  23F8  3180   	fcall	_disk_writep
  3433     0091  3A00               	xorlw	0
  3434     0092  1903               	skipnz
  3435     0093  2895               	goto	u3451
  3436     0094  2896               	goto	u3450
  3437     0095                     u3451:
  3438     0095  289E               	goto	l3293
  3439     0096                     u3450:
  3440     0096                     l3287:
  3441     0096  0020               	movlb	0	; select bank0
  3442     0097  0A6C               	incf	pf_write@fs,w
  3443     0098  0086               	movwf	6
  3444     0099  3001               	movlw	1	; select bank2/3
  3445     009A  0087               	movwf	7
  3446     009B  0181               	clrf	1
  3447     009C                     l3289:
  3448     009C  3001               	movlw	1
  3449     009D  2AB5               	goto	l320
  3450     009E                     l3293:
  3451                           
  3452                           ;pff.c: 1005:   fs->flag &= ~0x40;
  3453     009E  30BF               	movlw	191
  3454     009F  0020               	movlb	0	; select bank0
  3455     00A0  00D3               	movwf	??_pf_write
  3456     00A1  0A6C               	incf	pf_write@fs,w
  3457     00A2  0086               	movwf	6
  3458     00A3  3001               	movlw	1	; select bank2/3
  3459     00A4  0087               	movwf	7
  3460     00A5  0853               	movf	??_pf_write,w
  3461     00A6  0581               	andwf	1,f
  3462     00A7                     l3295:
  3463                           
  3464                           ;pff.c: 1006:   return FR_OK;
  3465     00A7  3000               	movlw	0
  3466     00A8  2AB5               	goto	l320
  3467     00A9                     l3301:
  3468                           
  3469                           ;pff.c: 1008:   if (!(fs->flag & 0x40)) {
  3470     00A9  0A6C               	incf	pf_write@fs,w
  3471     00AA  0086               	movwf	6
  3472     00AB  3001               	movlw	1	; select bank2/3
  3473     00AC  0087               	movwf	7
  3474     00AD  1B01               	btfsc	1,6
  3475     00AE  28B0               	goto	u3461
  3476     00AF  28B1               	goto	u3460
  3477     00B0                     u3461:
  3478     00B0  28C1               	goto	l324
  3479     00B1                     u3460:
  3480     00B1                     l3303:
  3481                           
  3482                           ;pff.c: 1009:    fs->fptr &= 0xFFFFFE00;
  3483     00B1  086C               	movf	pf_write@fs,w
  3484     00B2  3E16               	addlw	22
  3485     00B3  0086               	movwf	6
  3486     00B4  3001               	movlw	1	; select bank2/3
  3487     00B5  0087               	movwf	7
  3488     00B6  3000               	movlw	0
  3489     00B7  0581               	andwf	1,f
  3490     00B8  3141               	addfsr 1,1
  3491     00B9  30FE               	movlw	254
  3492     00BA  0581               	andwf	1,f
  3493     00BB  3141               	addfsr 1,1
  3494     00BC  30FF               	movlw	255
  3495     00BD  0581               	andwf	1,f
  3496     00BE  3141               	addfsr 1,1
  3497     00BF  30FF               	movlw	255
  3498     00C0  0581               	andwf	1,f
  3499     00C1                     l324:	
  3500                           ;pff.c: 1011:  }
  3501                           
  3502                           
  3503                           ;pff.c: 1012:  remain = fs->fsize - fs->fptr;
  3504     00C1  086C               	movf	pf_write@fs,w
  3505     00C2  3E16               	addlw	22
  3506     00C3  0086               	movwf	6
  3507     00C4  3001               	movlw	1	; select bank2/3
  3508     00C5  0087               	movwf	7
  3509     00C6  3F40               	moviw [0]fsr1
  3510     00C7  00D3               	movwf	??_pf_write
  3511     00C8  3F41               	moviw [1]fsr1
  3512     00C9  00D4               	movwf	??_pf_write+1
  3513     00CA  3F42               	moviw [2]fsr1
  3514     00CB  00D5               	movwf	??_pf_write+2
  3515     00CC  3F43               	moviw [3]fsr1
  3516     00CD  00D6               	movwf	??_pf_write+3
  3517     00CE  086C               	movf	pf_write@fs,w
  3518     00CF  3E1A               	addlw	26
  3519     00D0  0086               	movwf	6
  3520     00D1  3001               	movlw	1	; select bank2/3
  3521     00D2  0087               	movwf	7
  3522     00D3  3F40               	moviw [0]fsr1
  3523     00D4  00D7               	movwf	??_pf_write+4
  3524     00D5  3F41               	moviw [1]fsr1
  3525     00D6  00D8               	movwf	??_pf_write+5
  3526     00D7  3F42               	moviw [2]fsr1
  3527     00D8  00D9               	movwf	??_pf_write+6
  3528     00D9  3F43               	moviw [3]fsr1
  3529     00DA  00DA               	movwf	??_pf_write+7
  3530     00DB  0853               	movf	??_pf_write,w
  3531     00DC  02D7               	subwf	??_pf_write+4,f
  3532     00DD  0854               	movf	??_pf_write+1,w
  3533     00DE  3BD8               	subwfb	??_pf_write+5,f
  3534     00DF  0855               	movf	??_pf_write+2,w
  3535     00E0  3BD9               	subwfb	??_pf_write+6,f
  3536     00E1  0856               	movf	??_pf_write+3,w
  3537     00E2  3BDA               	subwfb	??_pf_write+7,f
  3538     00E3  085A               	movf	??_pf_write+7,w
  3539     00E4  00E4               	movwf	pf_write@remain+3
  3540     00E5  0859               	movf	??_pf_write+6,w
  3541     00E6  00E3               	movwf	pf_write@remain+2
  3542     00E7  0858               	movf	??_pf_write+5,w
  3543     00E8  00E2               	movwf	pf_write@remain+1
  3544     00E9  0857               	movf	??_pf_write+4,w
  3545     00EA  00E1               	movwf	pf_write@remain
  3546     00EB                     l3305:
  3547                           
  3548                           ;pff.c: 1013:  if (btw > remain) btw = (UINT)remain;
  3549     00EB  0850               	movf	pf_write@btw,w
  3550     00EC  00D3               	movwf	??_pf_write
  3551     00ED  0851               	movf	pf_write@btw+1,w
  3552     00EE  00D4               	movwf	??_pf_write+1
  3553     00EF  01D5               	clrf	??_pf_write+2
  3554     00F0  01D6               	clrf	??_pf_write+3
  3555     00F1  0856               	movf	??_pf_write+3,w
  3556     00F2  0264               	subwf	pf_write@remain+3,w
  3557     00F3  1D03               	skipz
  3558     00F4  28FF               	goto	u3475
  3559     00F5  0855               	movf	??_pf_write+2,w
  3560     00F6  0263               	subwf	pf_write@remain+2,w
  3561     00F7  1D03               	skipz
  3562     00F8  28FF               	goto	u3475
  3563     00F9  0854               	movf	??_pf_write+1,w
  3564     00FA  0262               	subwf	pf_write@remain+1,w
  3565     00FB  1D03               	skipz
  3566     00FC  28FF               	goto	u3475
  3567     00FD  0853               	movf	??_pf_write,w
  3568     00FE  0261               	subwf	pf_write@remain,w
  3569     00FF                     u3475:
  3570     00FF  1803               	skipnc
  3571     0100  2902               	goto	u3471
  3572     0101  2903               	goto	u3470
  3573     0102                     u3471:
  3574     0102  2AAE               	goto	l3387
  3575     0103                     u3470:
  3576     0103                     l3307:
  3577     0103  0862               	movf	pf_write@remain+1,w
  3578     0104  00D1               	movwf	pf_write@btw+1
  3579     0105  0861               	movf	pf_write@remain,w
  3580     0106  00D0               	movwf	pf_write@btw
  3581     0107  2AAE               	goto	l3387
  3582     0108                     l3309:
  3583                           
  3584                           ;pff.c: 1016:   if ((UINT)fs->fptr % 512 == 0) {
  3585     0108  086C               	movf	pf_write@fs,w
  3586     0109  3E16               	addlw	22
  3587     010A  0086               	movwf	6
  3588     010B  3001               	movlw	1	; select bank2/3
  3589     010C  0087               	movwf	7
  3590     010D  3F40               	moviw [0]fsr1
  3591     010E  00D3               	movwf	??_pf_write
  3592     010F  3F41               	moviw [1]fsr1
  3593     0110  00D4               	movwf	??_pf_write+1
  3594     0111  30FF               	movlw	255
  3595     0112  0553               	andwf	??_pf_write,w
  3596     0113  00D5               	movwf	??_pf_write+2
  3597     0114  3001               	movlw	1
  3598     0115  0554               	andwf	??_pf_write+1,w
  3599     0116  00D6               	movwf	??_pf_write+3
  3600     0117  0855               	movf	??_pf_write+2,w
  3601     0118  0456               	iorwf	??_pf_write+3,w
  3602     0119  1D03               	btfss	3,2
  3603     011A  291C               	goto	u3481
  3604     011B  291D               	goto	u3480
  3605     011C                     u3481:
  3606     011C  2A0D               	goto	l3353
  3607     011D                     u3480:
  3608     011D                     l3311:
  3609                           
  3610                           ;pff.c: 1017:    cs = (BYTE)(fs->fptr / 512 & (fs->csize - 1));
  3611     011D  086C               	movf	pf_write@fs,w
  3612     011E  3E16               	addlw	22
  3613     011F  0086               	movwf	6
  3614     0120  3001               	movlw	1	; select bank2/3
  3615     0121  0087               	movwf	7
  3616     0122  3F40               	moviw [0]fsr1
  3617     0123  00D3               	movwf	??_pf_write
  3618     0124  3F41               	moviw [1]fsr1
  3619     0125  00D4               	movwf	??_pf_write+1
  3620     0126  3F42               	moviw [2]fsr1
  3621     0127  00D5               	movwf	??_pf_write+2
  3622     0128  3F43               	moviw [3]fsr1
  3623     0129  00D6               	movwf	??_pf_write+3
  3624     012A  3009               	movlw	9
  3625     012B                     u3495:
  3626     012B  36D6               	lsrf	??_pf_write+3,f
  3627     012C  0CD5               	rrf	??_pf_write+2,f
  3628     012D  0CD4               	rrf	??_pf_write+1,f
  3629     012E  0CD3               	rrf	??_pf_write,f
  3630     012F                     u3490:
  3631     012F  0B89               	decfsz	9,f
  3632     0130  292B               	goto	u3495
  3633     0131  086C               	movf	pf_write@fs,w
  3634     0132  3E02               	addlw	2
  3635     0133  0086               	movwf	6
  3636     0134  3001               	movlw	1	; select bank2/3
  3637     0135  0087               	movwf	7
  3638     0136  0801               	movf	1,w
  3639     0137  3EFF               	addlw	255
  3640     0138  0553               	andwf	??_pf_write,w
  3641     0139  00E9               	movwf	pf_write@cs
  3642     013A                     l3313:
  3643                           
  3644                           ;pff.c: 1018:    if (!cs) {
  3645     013A  0869               	movf	pf_write@cs,w
  3646     013B  1D03               	btfss	3,2
  3647     013C  293E               	goto	u3501
  3648     013D  293F               	goto	u3500
  3649     013E                     u3501:
  3650     013E  299F               	goto	l3331
  3651     013F                     u3500:
  3652     013F                     l3315:
  3653                           
  3654                           ;pff.c: 1019:     if (fs->fptr == 0) {
  3655     013F  086C               	movf	pf_write@fs,w
  3656     0140  3E16               	addlw	22
  3657     0141  0086               	movwf	6
  3658     0142  3001               	movlw	1	; select bank2/3
  3659     0143  0087               	movwf	7
  3660     0144  3F40               	moviw [0]fsr1
  3661     0145  00D3               	movwf	??_pf_write
  3662     0146  3F41               	moviw [1]fsr1
  3663     0147  00D4               	movwf	??_pf_write+1
  3664     0148  3F42               	moviw [2]fsr1
  3665     0149  00D5               	movwf	??_pf_write+2
  3666     014A  3F43               	moviw [3]fsr1
  3667     014B  00D6               	movwf	??_pf_write+3
  3668     014C  0856               	movf	??_pf_write+3,w
  3669     014D  0455               	iorwf	??_pf_write+2,w
  3670     014E  0454               	iorwf	??_pf_write+1,w
  3671     014F  0453               	iorwf	??_pf_write,w
  3672     0150  1D03               	skipz
  3673     0151  2953               	goto	u3511
  3674     0152  2954               	goto	u3510
  3675     0153                     u3511:
  3676     0153  2962               	goto	l3319
  3677     0154                     u3510:
  3678     0154                     l3317:
  3679                           
  3680                           ;pff.c: 1020:      clst = fs->org_clust;
  3681     0154  086C               	movf	pf_write@fs,w
  3682     0155  3E1E               	addlw	30
  3683     0156  0086               	movwf	6
  3684     0157  3001               	movlw	1	; select bank2/3
  3685     0158  0087               	movwf	7
  3686     0159  3F40               	moviw [0]fsr1
  3687     015A  00E5               	movwf	pf_write@clst
  3688     015B  3F41               	moviw [1]fsr1
  3689     015C  00E6               	movwf	pf_write@clst+1
  3690     015D  3F42               	moviw [2]fsr1
  3691     015E  00E7               	movwf	pf_write@clst+2
  3692     015F  3F43               	moviw [3]fsr1
  3693     0160  00E8               	movwf	pf_write@clst+3
  3694                           
  3695                           ;pff.c: 1021:     } else {
  3696     0161  297B               	goto	l3321
  3697     0162                     l3319:
  3698                           
  3699                           ;pff.c: 1022:      clst = get_fat(fs->curr_clust);
  3700     0162  086C               	movf	pf_write@fs,w
  3701     0163  3E22               	addlw	34
  3702     0164  0086               	movwf	6
  3703     0165  3001               	movlw	1	; select bank2/3
  3704     0166  0087               	movwf	7
  3705     0167  3F40               	moviw [0]fsr1
  3706     0168  00BB               	movwf	get_fat@clst
  3707     0169  3F41               	moviw [1]fsr1
  3708     016A  00BC               	movwf	get_fat@clst+1
  3709     016B  3F42               	moviw [2]fsr1
  3710     016C  00BD               	movwf	get_fat@clst+2
  3711     016D  3F43               	moviw [3]fsr1
  3712     016E  00BE               	movwf	get_fat@clst+3
  3713     016F  318A  22AC  3180   	fcall	_get_fat
  3714     0172  0020               	movlb	0	; select bank0
  3715     0173  083E               	movf	?_get_fat+3,w
  3716     0174  00E8               	movwf	pf_write@clst+3
  3717     0175  083D               	movf	?_get_fat+2,w
  3718     0176  00E7               	movwf	pf_write@clst+2
  3719     0177  083C               	movf	?_get_fat+1,w
  3720     0178  00E6               	movwf	pf_write@clst+1
  3721     0179  083B               	movf	?_get_fat,w
  3722     017A  00E5               	movwf	pf_write@clst
  3723     017B                     l3321:
  3724                           
  3725                           ;pff.c: 1024:     if (clst <= 1) {fs->flag = 0; return FR_DISK_ERR;};
  3726     017B  0868               	movf	pf_write@clst+3,w
  3727     017C  1D03               	btfss	3,2
  3728     017D  2989               	goto	u3521
  3729     017E  0867               	movf	pf_write@clst+2,w
  3730     017F  1D03               	btfss	3,2
  3731     0180  2989               	goto	u3521
  3732     0181  0866               	movf	pf_write@clst+1,w
  3733     0182  1D03               	btfss	3,2
  3734     0183  2989               	goto	u3521
  3735     0184  3002               	movlw	2
  3736     0185  0265               	subwf	pf_write@clst,w
  3737     0186  1803               	btfsc	3,0
  3738     0187  2989               	goto	u3521
  3739     0188  298A               	goto	u3520
  3740     0189                     u3521:
  3741     0189  2991               	goto	l3329
  3742     018A                     u3520:
  3743     018A                     l3323:
  3744     018A  0020               	movlb	0	; select bank0
  3745     018B  0A6C               	incf	pf_write@fs,w
  3746     018C  0086               	movwf	6
  3747     018D  3001               	movlw	1	; select bank2/3
  3748     018E  0087               	movwf	7
  3749     018F  0181               	clrf	1
  3750     0190  289C               	goto	l3289
  3751     0191                     l3329:
  3752                           
  3753                           ;pff.c: 1025:     fs->curr_clust = clst;
  3754     0191  0020               	movlb	0	; select bank0
  3755     0192  086C               	movf	pf_write@fs,w
  3756     0193  3E22               	addlw	34
  3757     0194  0086               	movwf	6
  3758     0195  3001               	movlw	1	; select bank2/3
  3759     0196  0087               	movwf	7
  3760     0197  0865               	movf	pf_write@clst,w
  3761     0198  3FC0               	movwi [0]fsr1
  3762     0199  0866               	movf	pf_write@clst+1,w
  3763     019A  3FC1               	movwi [1]fsr1
  3764     019B  0867               	movf	pf_write@clst+2,w
  3765     019C  3FC2               	movwi [2]fsr1
  3766     019D  0868               	movf	pf_write@clst+3,w
  3767     019E  3FC3               	movwi [3]fsr1
  3768     019F                     l3331:
  3769                           
  3770                           ;pff.c: 1027:    sect = clust2sect(fs->curr_clust);
  3771     019F  086C               	movf	pf_write@fs,w
  3772     01A0  3E22               	addlw	34
  3773     01A1  0086               	movwf	6
  3774     01A2  3001               	movlw	1	; select bank2/3
  3775     01A3  0087               	movwf	7
  3776     01A4  3F40               	moviw [0]fsr1
  3777     01A5  00A0               	movwf	clust2sect@clst
  3778     01A6  3F41               	moviw [1]fsr1
  3779     01A7  00A1               	movwf	clust2sect@clst+1
  3780     01A8  3F42               	moviw [2]fsr1
  3781     01A9  00A2               	movwf	clust2sect@clst+2
  3782     01AA  3F43               	moviw [3]fsr1
  3783     01AB  00A3               	movwf	clust2sect@clst+3
  3784     01AC  3196  267E  3180   	fcall	_clust2sect
  3785     01AF  0020               	movlb	0	; select bank0
  3786     01B0  0823               	movf	?_clust2sect+3,w
  3787     01B1  00E0               	movwf	pf_write@sect+3
  3788     01B2  0822               	movf	?_clust2sect+2,w
  3789     01B3  00DF               	movwf	pf_write@sect+2
  3790     01B4  0821               	movf	?_clust2sect+1,w
  3791     01B5  00DE               	movwf	pf_write@sect+1
  3792     01B6  0820               	movf	?_clust2sect,w
  3793     01B7  00DD               	movwf	pf_write@sect
  3794     01B8                     l3333:
  3795                           
  3796                           ;pff.c: 1028:    if (!sect) {fs->flag = 0; return FR_DISK_ERR;};
  3797     01B8  0860               	movf	pf_write@sect+3,w
  3798     01B9  045F               	iorwf	pf_write@sect+2,w
  3799     01BA  045E               	iorwf	pf_write@sect+1,w
  3800     01BB  045D               	iorwf	pf_write@sect,w
  3801     01BC  1D03               	skipz
  3802     01BD  29BF               	goto	u3531
  3803     01BE  29C0               	goto	u3530
  3804     01BF                     u3531:
  3805     01BF  29C6               	goto	l3341
  3806     01C0                     u3530:
  3807     01C0                     l3335:
  3808     01C0  0A6C               	incf	pf_write@fs,w
  3809     01C1  0086               	movwf	6
  3810     01C2  3001               	movlw	1	; select bank2/3
  3811     01C3  0087               	movwf	7
  3812     01C4  0181               	clrf	1
  3813     01C5  289C               	goto	l3289
  3814     01C6                     l3341:
  3815                           
  3816                           ;pff.c: 1029:    fs->dsect = sect + cs;
  3817     01C6  085D               	movf	pf_write@sect,w
  3818     01C7  00D3               	movwf	??_pf_write
  3819     01C8  085E               	movf	pf_write@sect+1,w
  3820     01C9  00D4               	movwf	??_pf_write+1
  3821     01CA  085F               	movf	pf_write@sect+2,w
  3822     01CB  00D5               	movwf	??_pf_write+2
  3823     01CC  0860               	movf	pf_write@sect+3,w
  3824     01CD  00D6               	movwf	??_pf_write+3
  3825     01CE  0869               	movf	pf_write@cs,w
  3826     01CF  00D7               	movwf	??_pf_write+4
  3827     01D0  01D8               	clrf	??_pf_write+5
  3828     01D1  01D9               	clrf	??_pf_write+6
  3829     01D2  01DA               	clrf	??_pf_write+7
  3830     01D3  0857               	movf	??_pf_write+4,w
  3831     01D4  07D3               	addwf	??_pf_write,f
  3832     01D5  0858               	movf	??_pf_write+5,w
  3833     01D6  3DD4               	addwfc	??_pf_write+1,f
  3834     01D7  0859               	movf	??_pf_write+6,w
  3835     01D8  3DD5               	addwfc	??_pf_write+2,f
  3836     01D9  085A               	movf	??_pf_write+7,w
  3837     01DA  3DD6               	addwfc	??_pf_write+3,f
  3838     01DB  086C               	movf	pf_write@fs,w
  3839     01DC  3E26               	addlw	38
  3840     01DD  0086               	movwf	6
  3841     01DE  3001               	movlw	1	; select bank2/3
  3842     01DF  0087               	movwf	7
  3843     01E0  0853               	movf	??_pf_write,w
  3844     01E1  3FC0               	movwi [0]fsr1
  3845     01E2  0854               	movf	??_pf_write+1,w
  3846     01E3  3FC1               	movwi [1]fsr1
  3847     01E4  0855               	movf	??_pf_write+2,w
  3848     01E5  3FC2               	movwi [2]fsr1
  3849     01E6  0856               	movf	??_pf_write+3,w
  3850     01E7  3FC3               	movwi [3]fsr1
  3851     01E8                     l3343:
  3852                           
  3853                           ;pff.c: 1030:    if (disk_writep(0, fs->dsect)) {fs->flag = 0; return FR_DISK_ERR;};
  3854     01E8  3000               	movlw	0
  3855     01E9  00A7               	movwf	disk_writep@buff
  3856     01EA  00A8               	movwf	disk_writep@buff+1
  3857     01EB  086C               	movf	pf_write@fs,w
  3858     01EC  3E26               	addlw	38
  3859     01ED  0086               	movwf	6
  3860     01EE  3001               	movlw	1	; select bank2/3
  3861     01EF  0087               	movwf	7
  3862     01F0  3F40               	moviw [0]fsr1
  3863     01F1  00A9               	movwf	disk_writep@sc
  3864     01F2  3F41               	moviw [1]fsr1
  3865     01F3  00AA               	movwf	disk_writep@sc+1
  3866     01F4  3F42               	moviw [2]fsr1
  3867     01F5  00AB               	movwf	disk_writep@sc+2
  3868     01F6  3F43               	moviw [3]fsr1
  3869     01F7  00AC               	movwf	disk_writep@sc+3
  3870     01F8  318B  23F8  3180   	fcall	_disk_writep
  3871     01FB  3A00               	xorlw	0
  3872     01FC  1903               	skipnz
  3873     01FD  29FF               	goto	u3541
  3874     01FE  2A00               	goto	u3540
  3875     01FF                     u3541:
  3876     01FF  2A07               	goto	l3351
  3877     0200                     u3540:
  3878     0200                     l3345:
  3879     0200  0020               	movlb	0	; select bank0
  3880     0201  0A6C               	incf	pf_write@fs,w
  3881     0202  0086               	movwf	6
  3882     0203  3001               	movlw	1	; select bank2/3
  3883     0204  0087               	movwf	7
  3884     0205  0181               	clrf	1
  3885     0206  289C               	goto	l3289
  3886     0207                     l3351:
  3887                           
  3888                           ;pff.c: 1031:    fs->flag |= 0x40;
  3889     0207  0020               	movlb	0	; select bank0
  3890     0208  0A6C               	incf	pf_write@fs,w
  3891     0209  0086               	movwf	6
  3892     020A  3001               	movlw	1	; select bank2/3
  3893     020B  0087               	movwf	7
  3894     020C  1701               	bsf	1,6
  3895     020D                     l3353:
  3896                           
  3897                           ;pff.c: 1033:   wcnt = 512 - (UINT)fs->fptr % 512;
  3898     020D  086C               	movf	pf_write@fs,w
  3899     020E  3E16               	addlw	22
  3900     020F  0086               	movwf	6
  3901     0210  3001               	movlw	1	; select bank2/3
  3902     0211  0087               	movwf	7
  3903     0212  3F40               	moviw [0]fsr1
  3904     0213  00D3               	movwf	??_pf_write
  3905     0214  3F41               	moviw [1]fsr1
  3906     0215  00D4               	movwf	??_pf_write+1
  3907     0216  30FF               	movlw	255
  3908     0217  0553               	andwf	??_pf_write,w
  3909     0218  00D5               	movwf	??_pf_write+2
  3910     0219  3001               	movlw	1
  3911     021A  0554               	andwf	??_pf_write+1,w
  3912     021B  00D6               	movwf	??_pf_write+3
  3913     021C  3000               	movlw	0
  3914     021D  00D7               	movwf	??_pf_write+4
  3915     021E  3002               	movlw	2
  3916     021F  00D8               	movwf	??_pf_write+5
  3917     0220  0855               	movf	??_pf_write+2,w
  3918     0221  0257               	subwf	??_pf_write+4,w
  3919     0222  00EA               	movwf	pf_write@wcnt
  3920     0223  0856               	movf	??_pf_write+3,w
  3921     0224  3B58               	subwfb	??_pf_write+5,w
  3922     0225  00EB               	movwf	pf_write@wcnt+1
  3923     0226                     l3355:
  3924                           
  3925                           ;pff.c: 1034:   if (wcnt > btw) wcnt = btw;
  3926     0226  086B               	movf	pf_write@wcnt+1,w
  3927     0227  0251               	subwf	pf_write@btw+1,w
  3928     0228  1D03               	skipz
  3929     0229  2A2C               	goto	u3555
  3930     022A  086A               	movf	pf_write@wcnt,w
  3931     022B  0250               	subwf	pf_write@btw,w
  3932     022C                     u3555:
  3933     022C  1803               	skipnc
  3934     022D  2A2F               	goto	u3551
  3935     022E  2A30               	goto	u3550
  3936     022F                     u3551:
  3937     022F  2A34               	goto	l3359
  3938     0230                     u3550:
  3939     0230                     l3357:
  3940     0230  0851               	movf	pf_write@btw+1,w
  3941     0231  00EB               	movwf	pf_write@wcnt+1
  3942     0232  0850               	movf	pf_write@btw,w
  3943     0233  00EA               	movwf	pf_write@wcnt
  3944     0234                     l3359:
  3945                           
  3946                           ;pff.c: 1035:   if (disk_writep(p, wcnt)) {fs->flag = 0; return FR_DISK_ERR;};
  3947     0234  085C               	movf	pf_write@p+1,w
  3948     0235  00A8               	movwf	disk_writep@buff+1
  3949     0236  085B               	movf	pf_write@p,w
  3950     0237  00A7               	movwf	disk_writep@buff
  3951     0238  086A               	movf	pf_write@wcnt,w
  3952     0239  00A9               	movwf	disk_writep@sc
  3953     023A  086B               	movf	pf_write@wcnt+1,w
  3954     023B  00AA               	movwf	disk_writep@sc+1
  3955     023C  01AB               	clrf	disk_writep@sc+2
  3956     023D  01AC               	clrf	disk_writep@sc+3
  3957     023E  318B  23F8  3180   	fcall	_disk_writep
  3958     0241  3A00               	xorlw	0
  3959     0242  1903               	skipnz
  3960     0243  2A45               	goto	u3561
  3961     0244  2A46               	goto	u3560
  3962     0245                     u3561:
  3963     0245  2A4D               	goto	l3367
  3964     0246                     u3560:
  3965     0246                     l3361:
  3966     0246  0020               	movlb	0	; select bank0
  3967     0247  0A6C               	incf	pf_write@fs,w
  3968     0248  0086               	movwf	6
  3969     0249  3001               	movlw	1	; select bank2/3
  3970     024A  0087               	movwf	7
  3971     024B  0181               	clrf	1
  3972     024C  289C               	goto	l3289
  3973     024D                     l3367:
  3974                           
  3975                           ;pff.c: 1036:   fs->fptr += wcnt; p += wcnt;
  3976     024D  0020               	movlb	0	; select bank0
  3977     024E  086A               	movf	pf_write@wcnt,w
  3978     024F  00D3               	movwf	??_pf_write
  3979     0250  086B               	movf	pf_write@wcnt+1,w
  3980     0251  00D4               	movwf	??_pf_write+1
  3981     0252  01D5               	clrf	??_pf_write+2
  3982     0253  01D6               	clrf	??_pf_write+3
  3983     0254  086C               	movf	pf_write@fs,w
  3984     0255  3E16               	addlw	22
  3985     0256  0086               	movwf	6
  3986     0257  3001               	movlw	1	; select bank2/3
  3987     0258  0087               	movwf	7
  3988     0259  0853               	movf	??_pf_write,w
  3989     025A  0781               	addwf	1,f
  3990     025B  3141               	addfsr 1,1
  3991     025C  0854               	movf	??_pf_write+1,w
  3992     025D  3D81               	addwfc	1,f
  3993     025E  3141               	addfsr 1,1
  3994     025F  0855               	movf	??_pf_write+2,w
  3995     0260  3D81               	addwfc	1,f
  3996     0261  3141               	addfsr 1,1
  3997     0262  0856               	movf	??_pf_write+3,w
  3998     0263  3D81               	addwfc	1,f
  3999     0264                     l3369:
  4000     0264  086A               	movf	pf_write@wcnt,w
  4001     0265  07DB               	addwf	pf_write@p,f
  4002     0266  086B               	movf	pf_write@wcnt+1,w
  4003     0267  3DDC               	addwfc	pf_write@p+1,f
  4004     0268                     l3371:
  4005                           
  4006                           ;pff.c: 1037:   btw -= wcnt; *bw += wcnt;
  4007     0268  086A               	movf	pf_write@wcnt,w
  4008     0269  02D0               	subwf	pf_write@btw,f
  4009     026A  086B               	movf	pf_write@wcnt+1,w
  4010     026B  3BD1               	subwfb	pf_write@btw+1,f
  4011     026C                     l3373:
  4012     026C  0852               	movf	pf_write@bw,w
  4013     026D  0086               	movwf	6
  4014     026E  3001               	movlw	1	; select bank2/3
  4015     026F  0087               	movwf	7
  4016     0270  086A               	movf	pf_write@wcnt,w
  4017     0271  0781               	addwf	1,f
  4018     0272  3141               	addfsr 1,1
  4019     0273  086B               	movf	pf_write@wcnt+1,w
  4020     0274  3D81               	addwfc	1,f
  4021     0275  317F               	addfsr 1,-1
  4022     0276                     l3375:
  4023                           
  4024                           ;pff.c: 1038:   if ((UINT)fs->fptr % 512 == 0) {
  4025     0276  086C               	movf	pf_write@fs,w
  4026     0277  3E16               	addlw	22
  4027     0278  0086               	movwf	6
  4028     0279  3001               	movlw	1	; select bank2/3
  4029     027A  0087               	movwf	7
  4030     027B  3F40               	moviw [0]fsr1
  4031     027C  00D3               	movwf	??_pf_write
  4032     027D  3F41               	moviw [1]fsr1
  4033     027E  00D4               	movwf	??_pf_write+1
  4034     027F  30FF               	movlw	255
  4035     0280  0553               	andwf	??_pf_write,w
  4036     0281  00D5               	movwf	??_pf_write+2
  4037     0282  3001               	movlw	1
  4038     0283  0554               	andwf	??_pf_write+1,w
  4039     0284  00D6               	movwf	??_pf_write+3
  4040     0285  0855               	movf	??_pf_write+2,w
  4041     0286  0456               	iorwf	??_pf_write+3,w
  4042     0287  1D03               	btfss	3,2
  4043     0288  2A8A               	goto	u3571
  4044     0289  2A8B               	goto	u3570
  4045     028A                     u3571:
  4046     028A  2AAE               	goto	l3387
  4047     028B                     u3570:
  4048     028B                     l3377:
  4049                           
  4050                           ;pff.c: 1039:    if (disk_writep(0, 0)) {fs->flag = 0; return FR_DISK_ERR;};
  4051     028B  3000               	movlw	0
  4052     028C  00A7               	movwf	disk_writep@buff
  4053     028D  00A8               	movwf	disk_writep@buff+1
  4054     028E  3000               	movlw	0
  4055     028F  00AC               	movwf	disk_writep@sc+3
  4056     0290  3000               	movlw	0
  4057     0291  00AB               	movwf	disk_writep@sc+2
  4058     0292  3000               	movlw	0
  4059     0293  00AA               	movwf	disk_writep@sc+1
  4060     0294  3000               	movlw	0
  4061     0295  00A9               	movwf	disk_writep@sc
  4062     0296  318B  23F8  3180   	fcall	_disk_writep
  4063     0299  3A00               	xorlw	0
  4064     029A  1903               	skipnz
  4065     029B  2A9D               	goto	u3581
  4066     029C  2A9E               	goto	u3580
  4067     029D                     u3581:
  4068     029D  2AA5               	goto	l3385
  4069     029E                     u3580:
  4070     029E                     l3379:
  4071     029E  0020               	movlb	0	; select bank0
  4072     029F  0A6C               	incf	pf_write@fs,w
  4073     02A0  0086               	movwf	6
  4074     02A1  3001               	movlw	1	; select bank2/3
  4075     02A2  0087               	movwf	7
  4076     02A3  0181               	clrf	1
  4077     02A4  289C               	goto	l3289
  4078     02A5                     l3385:
  4079                           
  4080                           ;pff.c: 1040:    fs->flag &= ~0x40;
  4081     02A5  30BF               	movlw	191
  4082     02A6  0020               	movlb	0	; select bank0
  4083     02A7  00D3               	movwf	??_pf_write
  4084     02A8  0A6C               	incf	pf_write@fs,w
  4085     02A9  0086               	movwf	6
  4086     02AA  3001               	movlw	1	; select bank2/3
  4087     02AB  0087               	movwf	7
  4088     02AC  0853               	movf	??_pf_write,w
  4089     02AD  0581               	andwf	1,f
  4090     02AE                     l3387:
  4091                           
  4092                           ;pff.c: 1015:  while (btw) {
  4093     02AE  0850               	movf	pf_write@btw,w
  4094     02AF  0451               	iorwf	pf_write@btw+1,w
  4095     02B0  1D03               	btfss	3,2
  4096     02B1  2AB3               	goto	u3591
  4097     02B2  2AB4               	goto	u3590
  4098     02B3                     u3591:
  4099     02B3  2908               	goto	l3309
  4100     02B4                     u3590:
  4101     02B4  28A7               	goto	l3295
  4102     02B5                     l320:
  4103     02B5  0008               	return
  4104     02B6                     __end_of_pf_write:
  4105                           
  4106                           	psect	text4
  4107     0BF8                     __ptext4:	
  4108 ;; *************** function _disk_writep *****************
  4109 ;; Defined at:
  4110 ;;		line 186 in file "diskio.c"
  4111 ;; Parameters:    Size  Location     Type
  4112 ;;  buff            2    7[BANK0 ] PTR const unsigned char 
  4113 ;;		 -> write_test@pad(32), write_test@msg(25), NULL(0), 
  4114 ;;  sc              4    9[BANK0 ] unsigned long 
  4115 ;; Auto vars:     Size  Location     Type
  4116 ;;  resp            1   17[BANK0 ] unsigned char 
  4117 ;;  token           1    0        unsigned char 
  4118 ;; Return value:  Size  Location     Type
  4119 ;;                  1    wreg      enum E101
  4120 ;; Registers used:
  4121 ;;		wreg, fsr0l, fsr0h, status,2, status,0, pclath, cstack
  4122 ;; Tracked objects:
  4123 ;;		On entry : 0/0
  4124 ;;		On exit  : 0/0
  4125 ;;		Unchanged: 0/0
  4126 ;; Data sizes:     COMMON   BANK0   BANK1   BANK2   BANK3   BANK4   BANK5   BANK6   BANK7   BANK8   BANK9  BANK10  BANK1
      +1  BANK12  BANK13  BANK14  BANK15  BANK16  BANK17  BANK18  BANK19  BANK20  BANK21  BANK22  BANK23  BANK24  BANK25
  4127 ;;      Params:         0       6       0       0       0       0       0       0       0       0       0       0       
      +0       0       0       0       0       0       0       0       0       0       0       0       0       0       0
  4128 ;;      Locals:         0       1       0       0       0       0       0       0       0       0       0       0       
      +0       0       0       0       0       0       0       0       0       0       0       0       0       0       0
  4129 ;;      Temps:          0       4       0       0       0       0       0       0       0       0       0       0       
      +0       0       0       0       0       0       0       0       0       0       0       0       0       0       0
  4130 ;;      Totals:         0      11       0       0       0       0       0       0       0       0       0       0       
      +0       0       0       0       0       0       0       0       0       0       0       0       0       0       0
  4131 ;;Total ram usage:       11 bytes
  4132 ;; Hardware stack levels used: 1
  4133 ;; Hardware stack levels required when called: 5
  4134 ;; This function calls:
  4135 ;;		_rcv_spi
  4136 ;;		_send_cmd
  4137 ;;		_xmit_spi
  4138 ;; This function is called by:
  4139 ;;		_pf_write
  4140 ;; This function uses a non-reentrant model
  4141 ;;
  4142                           
  4143     0BF8                     _disk_writep:	
  4144                           ;psect for function _disk_writep
  4145                           
  4146     0BF8                     l2931:	
  4147                           ;incstack = 0
  4148                           ; Regs used in _disk_writep: [wreg-fsr0h+status,2+status,0+pclath+cstack]
  4149                           
  4150                           
  4151                           ;diskio.c: 186: DRESULT disk_writep (const BYTE* buff, DWORD sc);diskio.c: 187: {;diskio
      +                          .c: 188:     static uint16_t wc;;diskio.c: 189:     uint8_t token;;diskio.c: 191:     if
      +                           (!buff) {
  4152     0BF8  0020               	movlb	0	; select bank0
  4153     0BF9  0827               	movf	disk_writep@buff,w
  4154     0BFA  0428               	iorwf	disk_writep@buff+1,w
  4155     0BFB  1D03               	btfss	3,2
  4156     0BFC  2BFE               	goto	u2841
  4157     0BFD  2BFF               	goto	u2840
  4158     0BFE                     u2841:
  4159     0BFE  2C93               	goto	l2997
  4160     0BFF                     u2840:
  4161     0BFF                     l2933:
  4162                           
  4163                           ;diskio.c: 192:         if (sc) {
  4164     0BFF  082C               	movf	disk_writep@sc+3,w
  4165     0C00  042B               	iorwf	disk_writep@sc+2,w
  4166     0C01  042A               	iorwf	disk_writep@sc+1,w
  4167     0C02  0429               	iorwf	disk_writep@sc,w
  4168     0C03  1903               	skipnz
  4169     0C04  2C06               	goto	u2851
  4170     0C05  2C07               	goto	u2850
  4171     0C06                     u2851:
  4172     0C06  2C41               	goto	l2965
  4173     0C07                     u2850:
  4174     0C07                     l2935:
  4175                           
  4176                           ;diskio.c: 194:             if (!(CardType & 0x08)) sc *= 512;
  4177     0C07  0021               	movlb	1	; select bank1
  4178     0C08  19E7               	btfsc	_CardType^(0+128),3
  4179     0C09  2C0B               	goto	u2861
  4180     0C0A  2C0C               	goto	u2860
  4181     0C0B                     u2861:
  4182     0C0B  2C14               	goto	l2939
  4183     0C0C                     u2860:
  4184     0C0C                     l2937:
  4185     0C0C  3009               	movlw	9
  4186     0C0D                     u2875:
  4187     0C0D  0020               	movlb	0	; select bank0
  4188     0C0E  35A9               	lslf	disk_writep@sc,f
  4189     0C0F  0DAA               	rlf	disk_writep@sc+1,f
  4190     0C10  0DAB               	rlf	disk_writep@sc+2,f
  4191     0C11  0DAC               	rlf	disk_writep@sc+3,f
  4192     0C12  0B89               	decfsz	9,f
  4193     0C13  2C0D               	goto	u2875
  4194     0C14                     l2939:
  4195                           
  4196                           ;diskio.c: 196:             if (send_cmd((0x40+24), sc) != 0) {
  4197     0C14  0020               	movlb	0	; select bank0
  4198     0C15  082C               	movf	disk_writep@sc+3,w
  4199     0C16  00A3               	movwf	send_cmd@arg+3
  4200     0C17  082B               	movf	disk_writep@sc+2,w
  4201     0C18  00A2               	movwf	send_cmd@arg+2
  4202     0C19  082A               	movf	disk_writep@sc+1,w
  4203     0C1A  00A1               	movwf	send_cmd@arg+1
  4204     0C1B  0829               	movf	disk_writep@sc,w
  4205     0C1C  00A0               	movwf	send_cmd@arg
  4206     0C1D  3058               	movlw	88
  4207     0C1E  3194  2427  318B   	fcall	_send_cmd
  4208     0C21  3A00               	xorlw	0
  4209     0C22  1903               	skipnz
  4210     0C23  2C25               	goto	u2881
  4211     0C24  2C26               	goto	u2880
  4212     0C25                     u2881:
  4213     0C25  2C2D               	goto	l2949
  4214     0C26                     u2880:
  4215     0C26                     l2941:
  4216                           
  4217                           ;diskio.c: 197:                 (LATCbits.LATC2 = 1); rcv_spi();
  4218     0C26  0022               	movlb	2	; select bank2
  4219     0C27  150E               	bsf	14,2	;volatile
  4220     0C28                     l2943:
  4221     0C28  3193  2335  318B   	fcall	_rcv_spi
  4222     0C2B                     l2945:
  4223                           
  4224                           ;diskio.c: 198:                 return RES_ERROR;
  4225     0C2B  3001               	movlw	1
  4226     0C2C  2CA3               	goto	l454
  4227     0C2D                     l2949:
  4228     0C2D                     l2951:
  4229                           
  4230                           ;diskio.c: 202:             xmit_spi(token);
  4231     0C2D  30FE               	movlw	254
  4232     0C2E  3193  2340  318B   	fcall	_xmit_spi
  4233     0C31                     l2953:
  4234                           
  4235                           ;diskio.c: 203:             wc = 512;
  4236     0C31  3000               	movlw	0
  4237     0C32  0021               	movlb	1	; select bank1
  4238     0C33  00E5               	movwf	disk_writep@wc^(0+128)
  4239     0C34  3002               	movlw	2
  4240     0C35  00E6               	movwf	(disk_writep@wc^(0+128)+1)
  4241     0C36                     l2955:
  4242                           
  4243                           ;diskio.c: 204:             return RES_OK;
  4244     0C36  3000               	movlw	0
  4245     0C37  2CA3               	goto	l454
  4246     0C38                     l2961:
  4247     0C38  30FF               	movlw	255
  4248     0C39  3193  2340  318B   	fcall	_xmit_spi
  4249     0C3C                     l2963:
  4250     0C3C  3001               	movlw	1
  4251     0C3D  0021               	movlb	1	; select bank1
  4252     0C3E  02E5               	subwf	disk_writep@wc^(0+128),f
  4253     0C3F  3000               	movlw	0
  4254     0C40  3BE6               	subwfb	(disk_writep@wc+1)^(0+128),f
  4255     0C41                     l2965:
  4256     0C41  0021               	movlb	1	; select bank1
  4257     0C42  0865               	movf	disk_writep@wc^(0+128),w
  4258     0C43  0466               	iorwf	(disk_writep@wc+1)^(0+128),w
  4259     0C44  1D03               	btfss	3,2
  4260     0C45  2C47               	goto	u2891
  4261     0C46  2C48               	goto	u2890
  4262     0C47                     u2891:
  4263     0C47  2C38               	goto	l2961
  4264     0C48                     u2890:
  4265     0C48                     l2967:
  4266                           
  4267                           ;diskio.c: 211:             xmit_spi(0xFF);
  4268     0C48  30FF               	movlw	255
  4269     0C49  3193  2340  318B   	fcall	_xmit_spi
  4270                           
  4271                           ;diskio.c: 212:             xmit_spi(0xFF);
  4272     0C4C  30FF               	movlw	255
  4273     0C4D  3193  2340  318B   	fcall	_xmit_spi
  4274     0C50                     l2969:
  4275                           
  4276                           ;diskio.c: 215:             uint8_t resp = rcv_spi();
  4277     0C50  3193  2335  318B   	fcall	_rcv_spi
  4278     0C53  0020               	movlb	0	; select bank0
  4279     0C54  00B1               	movwf	disk_writep@resp
  4280     0C55                     l2971:
  4281                           
  4282                           ;diskio.c: 216:             if ((resp & 0x1F) != 0x05) {
  4283     0C55  301F               	movlw	31
  4284     0C56  0531               	andwf	disk_writep@resp,w
  4285     0C57  00AD               	movwf	??_disk_writep
  4286     0C58  3005               	movlw	5
  4287     0C59  062D               	xorwf	??_disk_writep,w
  4288     0C5A  1903               	btfsc	3,2
  4289     0C5B  2C5D               	goto	u2901
  4290     0C5C  2C5E               	goto	u2900
  4291     0C5D                     u2901:
  4292     0C5D  2C61               	goto	l2981
  4293     0C5E                     u2900:
  4294     0C5E                     l2973:
  4295                           
  4296                           ;diskio.c: 217:                 (LATCbits.LATC2 = 1); rcv_spi();
  4297     0C5E  0022               	movlb	2	; select bank2
  4298     0C5F  150E               	bsf	14,2	;volatile
  4299     0C60  2C28               	goto	l2943
  4300     0C61                     l2981:
  4301     0C61  3193  2335  318B   	fcall	_rcv_spi
  4302     0C64  3A00               	xorlw	0
  4303     0C65  1903               	skipnz
  4304     0C66  2C68               	goto	u2911
  4305     0C67  2C69               	goto	u2910
  4306     0C68                     u2911:
  4307     0C68  2C61               	goto	l2981
  4308     0C69                     u2910:
  4309     0C69                     l462:
  4310                           
  4311                           ;diskio.c: 224:             (LATCbits.LATC2 = 1); rcv_spi();
  4312     0C69  0022               	movlb	2	; select bank2
  4313     0C6A  150E               	bsf	14,2	;volatile
  4314     0C6B                     l2983:
  4315     0C6B  3193  2335  318B   	fcall	_rcv_spi
  4316     0C6E  2C36               	goto	l2955
  4317     0C6F                     l2989:
  4318                           
  4319                           ;diskio.c: 231:         xmit_spi(*buff++);
  4320     0C6F  0020               	movlb	0	; select bank0
  4321     0C70  0827               	movf	disk_writep@buff,w
  4322     0C71  0084               	movwf	4
  4323     0C72  0828               	movf	disk_writep@buff+1,w
  4324     0C73  0085               	movwf	5
  4325     0C74  0800               	movf	0,w	;code access
  4326     0C75  3193  2340  318B   	fcall	_xmit_spi
  4327     0C78                     l2991:
  4328     0C78  3001               	movlw	1
  4329     0C79  0020               	movlb	0	; select bank0
  4330     0C7A  07A7               	addwf	disk_writep@buff,f
  4331     0C7B  3000               	movlw	0
  4332     0C7C  3DA8               	addwfc	disk_writep@buff+1,f
  4333     0C7D                     l2993:
  4334                           
  4335                           ;diskio.c: 232:         wc--;
  4336     0C7D  3001               	movlw	1
  4337     0C7E  0021               	movlb	1	; select bank1
  4338     0C7F  02E5               	subwf	disk_writep@wc^(0+128),f
  4339     0C80  3000               	movlw	0
  4340     0C81  3BE6               	subwfb	(disk_writep@wc+1)^(0+128),f
  4341     0C82                     l2995:
  4342                           
  4343                           ;diskio.c: 233:         sc--;
  4344     0C82  3001               	movlw	1
  4345     0C83  0020               	movlb	0	; select bank0
  4346     0C84  00AD               	movwf	??_disk_writep
  4347     0C85  3000               	movlw	0
  4348     0C86  00AE               	movwf	??_disk_writep+1
  4349     0C87  3000               	movlw	0
  4350     0C88  00AF               	movwf	??_disk_writep+2
  4351     0C89  3000               	movlw	0
  4352     0C8A  00B0               	movwf	??_disk_writep+3
  4353     0C8B  082D               	movf	??_disk_writep,w
  4354     0C8C  02A9               	subwf	disk_writep@sc,f
  4355     0C8D  082E               	movf	??_disk_writep+1,w
  4356     0C8E  3BAA               	subwfb	disk_writep@sc+1,f
  4357     0C8F  082F               	movf	??_disk_writep+2,w
  4358     0C90  3BAB               	subwfb	disk_writep@sc+2,f
  4359     0C91  0830               	movf	??_disk_writep+3,w
  4360     0C92  3BAC               	subwfb	disk_writep@sc+3,f
  4361     0C93                     l2997:
  4362                           
  4363                           ;diskio.c: 230:     while (sc && wc) {
  4364     0C93  082C               	movf	disk_writep@sc+3,w
  4365     0C94  042B               	iorwf	disk_writep@sc+2,w
  4366     0C95  042A               	iorwf	disk_writep@sc+1,w
  4367     0C96  0429               	iorwf	disk_writep@sc,w
  4368     0C97  1903               	skipnz
  4369     0C98  2C9A               	goto	u2921
  4370     0C99  2C9B               	goto	u2920
  4371     0C9A                     u2921:
  4372     0C9A  2C36               	goto	l2955
  4373     0C9B                     u2920:
  4374     0C9B                     l2999:
  4375     0C9B  0021               	movlb	1	; select bank1
  4376     0C9C  0865               	movf	disk_writep@wc^(0+128),w
  4377     0C9D  0466               	iorwf	(disk_writep@wc+1)^(0+128),w
  4378     0C9E  1D03               	btfss	3,2
  4379     0C9F  2CA1               	goto	u2931
  4380     0CA0  2CA2               	goto	u2930
  4381     0CA1                     u2931:
  4382     0CA1  2C6F               	goto	l2989
  4383     0CA2                     u2930:
  4384     0CA2  2C36               	goto	l2955
  4385     0CA3                     l454:
  4386     0CA3  0008               	return
  4387     0CA4                     __end_of_disk_writep:
  4388                           
  4389                           	psect	text5
  4390     1616                     __ptext5:	
  4391 ;; *************** function _pf_open *****************
  4392 ;; Defined at:
  4393 ;;		line 894 in file "pff.c"
  4394 ;; Parameters:    Size  Location     Type
  4395 ;;  path            2   74[BANK0 ] PTR const unsigned char 
  4396 ;;		 -> STR_2(8), 
  4397 ;; Auto vars:     Size  Location     Type
  4398 ;;  dir            32    0[BANK1 ] unsigned char [32]
  4399 ;;  dj             15   46[BANK1 ] struct .
  4400 ;;  sp             12   32[BANK1 ] unsigned char [12]
  4401 ;;  fs              1   45[BANK1 ] PTR struct .
  4402 ;;		 -> fs(42), NULL(0), 
  4403 ;;  res             1   44[BANK1 ] enum E71
  4404 ;; Return value:  Size  Location     Type
  4405 ;;                  1    wreg      enum E71
  4406 ;; Registers used:
  4407 ;;		wreg, fsr0l, fsr0h, fsr1l, fsr1h, status,2, status,0, pclath, cstack
  4408 ;; Tracked objects:
  4409 ;;		On entry : 0/0
  4410 ;;		On exit  : 0/0
  4411 ;;		Unchanged: 0/0
  4412 ;; Data sizes:     COMMON   BANK0   BANK1   BANK2   BANK3   BANK4   BANK5   BANK6   BANK7   BANK8   BANK9  BANK10  BANK1
      +1  BANK12  BANK13  BANK14  BANK15  BANK16  BANK17  BANK18  BANK19  BANK20  BANK21  BANK22  BANK23  BANK24  BANK25
  4413 ;;      Params:         0       2       0       0       0       0       0       0       0       0       0       0       
      +0       0       0       0       0       0       0       0       0       0       0       0       0       0       0
  4414 ;;      Locals:         0       0      61       0       0       0       0       0       0       0       0       0       
      +0       0       0       0       0       0       0       0       0       0       0       0       0       0       0
  4415 ;;      Temps:          0       0       0       0       0       0       0       0       0       0       0       0       
      +0       0       0       0       0       0       0       0       0       0       0       0       0       0       0
  4416 ;;      Totals:         0       2      61       0       0       0       0       0       0       0       0       0       
      +0       0       0       0       0       0       0       0       0       0       0       0       0       0       0
  4417 ;;Total ram usage:       63 bytes
  4418 ;; Hardware stack levels used: 1
  4419 ;; Hardware stack levels required when called: 10
  4420 ;; This function calls:
  4421 ;;		_follow_path
  4422 ;;		_get_clust
  4423 ;;		_ld_dword
  4424 ;; This function is called by:
  4425 ;;		_write_test
  4426 ;; This function uses a non-reentrant model
  4427 ;;
  4428                           
  4429     1616                     _pf_open:	
  4430                           ;psect for function _pf_open
  4431                           
  4432     1616                     l3227:	
  4433                           ;incstack = 0
  4434                           ; Regs used in _pf_open: [wreg-fsr1h+status,2+status,0+pclath+cstack]
  4435                           
  4436                           
  4437                           ;pff.c: 895:  const char *path;pff.c: 897: {;pff.c: 898:  FRESULT res;;pff.c: 899:  DIR 
      +                          dj;;pff.c: 900:  BYTE sp[12], dir[32];;pff.c: 901:  FATFS *fs = FatFs;
  4438     1616  0020               	movlb	0	; select bank0
  4439     1617  086F               	movf	_FatFs,w
  4440     1618  0021               	movlb	1	; select bank1
  4441     1619  00CD               	movwf	pf_open@fs^(0+128)
  4442     161A                     l3229:
  4443                           
  4444                           ;pff.c: 904:  if (!fs) return FR_NOT_ENABLED;
  4445     161A  084D               	movf	pf_open@fs^(0+128),w
  4446     161B  1D03               	btfss	3,2
  4447     161C  2E1E               	goto	u3371
  4448     161D  2E1F               	goto	u3370
  4449     161E                     u3371:
  4450     161E  2E21               	goto	l3235
  4451     161F                     u3370:
  4452     161F                     l3231:
  4453     161F  3005               	movlw	5
  4454     1620  2E7D               	goto	l294
  4455     1621                     l3235:
  4456                           
  4457                           ;pff.c: 906:  fs->flag = 0;
  4458     1621  0A4D               	incf	pf_open@fs^(0+128),w
  4459     1622  0086               	movwf	6
  4460     1623  3001               	movlw	1	; select bank2/3
  4461     1624  0087               	movwf	7
  4462     1625  0181               	clrf	1
  4463     1626                     l3237:
  4464                           
  4465                           ;pff.c: 907:  dj.fn = sp;
  4466     1626  30C0               	movlw	(low (pf_open@sp| 0))& (0+255)
  4467     1627  00D0               	movwf	(low ((pf_open@dj| 0+2)))^(0+128)
  4468     1628                     l3239:
  4469                           
  4470                           ;pff.c: 908:  res = follow_path(&dj, dir, path);
  4471     1628  30A0               	movlw	(low (pf_open@dir| 0))& (0+255)
  4472     1629  0020               	movlb	0	; select bank0
  4473     162A  00E4               	movwf	follow_path@dir
  4474     162B  086B               	movf	pf_open@path+1,w
  4475     162C  00E6               	movwf	follow_path@path+1
  4476     162D  086A               	movf	pf_open@path,w
  4477     162E  00E5               	movwf	follow_path@path
  4478     162F  30CE               	movlw	(low (pf_open@dj| 0))& (0+255)
  4479     1630  3189  2101  3196   	fcall	_follow_path
  4480     1633  0021               	movlb	1	; select bank1
  4481     1634  00CC               	movwf	pf_open@res^(0+128)
  4482     1635                     l3241:
  4483                           
  4484                           ;pff.c: 909:  if (res != FR_OK) return res;
  4485     1635  084C               	movf	pf_open@res^(0+128),w
  4486     1636  1903               	btfsc	3,2
  4487     1637  2E39               	goto	u3381
  4488     1638  2E3A               	goto	u3380
  4489     1639                     u3381:
  4490     1639  2E3C               	goto	l3247
  4491     163A                     u3380:
  4492     163A                     l3243:
  4493     163A  084C               	movf	pf_open@res^(0+128),w
  4494     163B  2E7D               	goto	l294
  4495     163C                     l3247:
  4496                           
  4497                           ;pff.c: 910:  if (!dir[0] || (dir[11] & 0x10)) return FR_NO_FILE;
  4498     163C  0820               	movf	pf_open@dir^(0+128),w
  4499     163D  1903               	btfsc	3,2
  4500     163E  2E40               	goto	u3391
  4501     163F  2E41               	goto	u3390
  4502     1640                     u3391:
  4503     1640  2E45               	goto	l3251
  4504     1641                     u3390:
  4505     1641                     l3249:
  4506     1641  1E2B               	btfss	(pf_open@dir^(0+128)+11),4
  4507     1642  2E44               	goto	u3401
  4508     1643  2E45               	goto	u3400
  4509     1644                     u3401:
  4510     1644  2E47               	goto	l3255
  4511     1645                     u3400:
  4512     1645                     l3251:
  4513     1645  3003               	movlw	3
  4514     1646  2E7D               	goto	l294
  4515     1647                     l3255:
  4516                           
  4517                           ;pff.c: 912:  fs->org_clust = get_clust(dir);
  4518     1647  30A0               	movlw	(low (pf_open@dir| 0))& (0+255)
  4519     1648  3194  2487  3196   	fcall	_get_clust
  4520     164B  0021               	movlb	1	; select bank1
  4521     164C  084D               	movf	pf_open@fs^(0+128),w
  4522     164D  3E1E               	addlw	30
  4523     164E  0086               	movwf	6
  4524     164F  3001               	movlw	1	; select bank2/3
  4525     1650  0087               	movwf	7
  4526     1651  0879               	movf	?_get_clust,w
  4527     1652  3FC0               	movwi [0]fsr1
  4528     1653  087A               	movf	?_get_clust+1,w
  4529     1654  3FC1               	movwi [1]fsr1
  4530     1655  087B               	movf	?_get_clust+2,w
  4531     1656  3FC2               	movwi [2]fsr1
  4532     1657  087C               	movf	?_get_clust+3,w
  4533     1658  3FC3               	movwi [3]fsr1
  4534                           
  4535                           ;pff.c: 913:  fs->fsize = ld_dword(dir+28);
  4536     1659  30BC               	movlw	(low ((pf_open@dir| 0+28)))& (0+255)
  4537     165A  318A  221A  3196   	fcall	_ld_dword
  4538     165D  0021               	movlb	1	; select bank1
  4539     165E  084D               	movf	pf_open@fs^(0+128),w
  4540     165F  3E1A               	addlw	26
  4541     1660  0086               	movwf	6
  4542     1661  3001               	movlw	1	; select bank2/3
  4543     1662  0087               	movwf	7
  4544     1663  0870               	movf	?_ld_dword,w
  4545     1664  3FC0               	movwi [0]fsr1
  4546     1665  0871               	movf	?_ld_dword+1,w
  4547     1666  3FC1               	movwi [1]fsr1
  4548     1667  0872               	movf	?_ld_dword+2,w
  4549     1668  3FC2               	movwi [2]fsr1
  4550     1669  0873               	movf	?_ld_dword+3,w
  4551     166A  3FC3               	movwi [3]fsr1
  4552     166B                     l3257:
  4553                           
  4554                           ;pff.c: 914:  fs->fptr = 0;
  4555     166B  084D               	movf	pf_open@fs^(0+128),w
  4556     166C  3E16               	addlw	22
  4557     166D  0086               	movwf	6
  4558     166E  3001               	movlw	1	; select bank2/3
  4559     166F  0087               	movwf	7
  4560     1670  3000               	movlw	0
  4561     1671  3FC0               	movwi [0]fsr1
  4562     1672  3000               	movlw	0
  4563     1673  3FC1               	movwi [1]fsr1
  4564     1674  3FC2               	movwi [2]fsr1
  4565     1675  3FC3               	movwi [3]fsr1
  4566     1676                     l3259:
  4567                           
  4568                           ;pff.c: 915:  fs->flag = 0x01;
  4569     1676  0A4D               	incf	pf_open@fs^(0+128),w
  4570     1677  0086               	movwf	6
  4571     1678  3001               	movlw	1	; select bank2/3
  4572     1679  0087               	movwf	7
  4573     167A  0181               	clrf	1
  4574     167B  0A81               	incf	1,f
  4575     167C                     l3261:
  4576                           
  4577                           ;pff.c: 917:  return FR_OK;
  4578     167C  3000               	movlw	0
  4579     167D                     l294:
  4580     167D  0008               	return
  4581     167E                     __end_of_pf_open:
  4582                           
  4583                           	psect	text6
  4584     0901                     __ptext6:	
  4585 ;; *************** function _follow_path *****************
  4586 ;; Defined at:
  4587 ;;		line 742 in file "pff.c"
  4588 ;; Parameters:    Size  Location     Type
  4589 ;;  dj              1    wreg     PTR struct .
  4590 ;;		 -> pf_open@dj(15), 
  4591 ;;  dir             1   68[BANK0 ] PTR unsigned char 
  4592 ;;		 -> pf_open@dir(32), 
  4593 ;;  path            2   69[BANK0 ] PTR const unsigned char 
  4594 ;;		 -> STR_2(8), 
  4595 ;; Auto vars:     Size  Location     Type
  4596 ;;  dj              1   73[BANK0 ] PTR struct .
  4597 ;;		 -> pf_open@dj(15), 
  4598 ;;  res             1   72[BANK0 ] enum E71
  4599 ;; Return value:  Size  Location     Type
  4600 ;;                  1    wreg      enum E71
  4601 ;; Registers used:
  4602 ;;		wreg, fsr0l, fsr0h, fsr1l, fsr1h, status,2, status,0, pclath, cstack
  4603 ;; Tracked objects:
  4604 ;;		On entry : 0/0
  4605 ;;		On exit  : 0/0
  4606 ;;		Unchanged: 0/0
  4607 ;; Data sizes:     COMMON   BANK0   BANK1   BANK2   BANK3   BANK4   BANK5   BANK6   BANK7   BANK8   BANK9  BANK10  BANK1
      +1  BANK12  BANK13  BANK14  BANK15  BANK16  BANK17  BANK18  BANK19  BANK20  BANK21  BANK22  BANK23  BANK24  BANK25
  4608 ;;      Params:         0       3       0       0       0       0       0       0       0       0       0       0       
      +0       0       0       0       0       0       0       0       0       0       0       0       0       0       0
  4609 ;;      Locals:         0       2       0       0       0       0       0       0       0       0       0       0       
      +0       0       0       0       0       0       0       0       0       0       0       0       0       0       0
  4610 ;;      Temps:          0       1       0       0       0       0       0       0       0       0       0       0       
      +0       0       0       0       0       0       0       0       0       0       0       0       0       0       0
  4611 ;;      Totals:         0       6       0       0       0       0       0       0       0       0       0       0       
      +0       0       0       0       0       0       0       0       0       0       0       0       0       0       0
  4612 ;;Total ram usage:        6 bytes
  4613 ;; Hardware stack levels used: 1
  4614 ;; Hardware stack levels required when called: 9
  4615 ;; This function calls:
  4616 ;;		_create_name
  4617 ;;		_dir_find
  4618 ;;		_dir_rewind
  4619 ;;		_get_clust
  4620 ;; This function is called by:
  4621 ;;		_pf_open
  4622 ;; This function uses a non-reentrant model
  4623 ;;
  4624                           
  4625     0901                     _follow_path:	
  4626                           ;psect for function _follow_path
  4627                           
  4628                           
  4629                           ;incstack = 0
  4630                           ; Regs used in _follow_path: [wreg-fsr1h+status,2+status,0+pclath+cstack]
  4631                           ;follow_path@dj stored from wreg
  4632     0901  0020               	movlb	0	; select bank0
  4633     0902  00E9               	movwf	follow_path@dj
  4634     0903                     l2887:
  4635                           
  4636                           ;pff.c: 743:  DIR *dj,;pff.c: 744:  BYTE *dir,;pff.c: 745:  const char *path;pff.c: 747:
      +                           {;pff.c: 748:  FRESULT res;;pff.c: 751:  while (*path == ' ') path++;
  4637     0903  2908               	goto	l2891
  4638     0904                     l2889:
  4639     0904  3001               	movlw	1
  4640     0905  07E5               	addwf	follow_path@path,f
  4641     0906  3000               	movlw	0
  4642     0907  3DE6               	addwfc	follow_path@path+1,f
  4643     0908                     l2891:
  4644     0908  0865               	movf	follow_path@path,w
  4645     0909  0084               	movwf	4
  4646     090A  0866               	movf	follow_path@path+1,w
  4647     090B  0085               	movwf	5
  4648     090C  0012               	moviw fsr0++
  4649     090D  3A20               	xorlw	32
  4650     090E  1903               	btfsc	3,2
  4651     090F  2911               	goto	u2771
  4652     0910  2912               	goto	u2770
  4653     0911                     u2771:
  4654     0911  2904               	goto	l2889
  4655     0912                     u2770:
  4656     0912                     l2893:
  4657                           
  4658                           ;pff.c: 752:  if (*path == '/') path++;
  4659     0912  0865               	movf	follow_path@path,w
  4660     0913  0084               	movwf	4
  4661     0914  0866               	movf	follow_path@path+1,w
  4662     0915  0085               	movwf	5
  4663     0916  0012               	moviw fsr0++
  4664     0917  3A2F               	xorlw	47
  4665     0918  1D03               	btfss	3,2
  4666     0919  291B               	goto	u2781
  4667     091A  291C               	goto	u2780
  4668     091B                     u2781:
  4669     091B  2920               	goto	l2897
  4670     091C                     u2780:
  4671     091C                     l2895:
  4672     091C  3001               	movlw	1
  4673     091D  07E5               	addwf	follow_path@path,f
  4674     091E  3000               	movlw	0
  4675     091F  3DE6               	addwfc	follow_path@path+1,f
  4676     0920                     l2897:
  4677                           
  4678                           ;pff.c: 753:  dj->sclust = 0;
  4679     0920  0869               	movf	follow_path@dj,w
  4680     0921  3E03               	addlw	3
  4681     0922  0086               	movwf	6
  4682     0923  0187               	clrf	7
  4683     0924  3000               	movlw	0
  4684     0925  3FC0               	movwi [0]fsr1
  4685     0926  3000               	movlw	0
  4686     0927  3FC1               	movwi [1]fsr1
  4687     0928  3FC2               	movwi [2]fsr1
  4688     0929  3FC3               	movwi [3]fsr1
  4689     092A                     l2899:
  4690                           
  4691                           ;pff.c: 755:  if ((BYTE)*path < ' ') {
  4692     092A  0865               	movf	follow_path@path,w
  4693     092B  0084               	movwf	4
  4694     092C  0866               	movf	follow_path@path+1,w
  4695     092D  0085               	movwf	5
  4696     092E  0800               	movf	0,w	;code access
  4697     092F  00E7               	movwf	??_follow_path
  4698     0930  3020               	movlw	32
  4699     0931  0267               	subwf	??_follow_path,w
  4700     0932  1803               	skipnc
  4701     0933  2935               	goto	u2791
  4702     0934  2936               	goto	u2790
  4703     0935                     u2791:
  4704     0935  2941               	goto	l2905
  4705     0936                     u2790:
  4706     0936                     l2901:
  4707                           
  4708                           ;pff.c: 756:   res = dir_rewind(dj);
  4709     0936  0869               	movf	follow_path@dj,w
  4710     0937  3197  277D  3189   	fcall	_dir_rewind
  4711     093A  0020               	movlb	0	; select bank0
  4712     093B  00E8               	movwf	follow_path@res
  4713     093C                     l2903:
  4714                           
  4715                           ;pff.c: 757:   dir[0] = 0;
  4716     093C  0864               	movf	follow_path@dir,w
  4717     093D  0086               	movwf	6
  4718     093E  0187               	clrf	7
  4719     093F  0181               	clrf	1
  4720                           
  4721                           ;pff.c: 759:  } else {
  4722     0940  2988               	goto	l2927
  4723     0941                     l2905:
  4724                           
  4725                           ;pff.c: 761:    res = create_name(dj, &path);
  4726     0941  3065               	movlw	(low (follow_path@path| 0))& (0+255)
  4727     0942  00F7               	movwf	create_name@path
  4728     0943  0869               	movf	follow_path@dj,w
  4729     0944  3188  2079  3189   	fcall	_create_name
  4730     0947  0020               	movlb	0	; select bank0
  4731     0948  00E8               	movwf	follow_path@res
  4732     0949                     l2907:
  4733                           
  4734                           ;pff.c: 762:    if (res != FR_OK) break;
  4735     0949  0868               	movf	follow_path@res,w
  4736     094A  1903               	btfsc	3,2
  4737     094B  294D               	goto	u2801
  4738     094C  294E               	goto	u2800
  4739     094D                     u2801:
  4740     094D  294F               	goto	l2911
  4741     094E                     u2800:
  4742     094E  2988               	goto	l2927
  4743     094F                     l2911:
  4744                           
  4745                           ;pff.c: 763:    res = dir_find(dj, dir);
  4746     094F  0864               	movf	follow_path@dir,w
  4747     0950  00DC               	movwf	dir_find@dir
  4748     0951  0869               	movf	follow_path@dj,w
  4749     0952  3196  26FD  3189   	fcall	_dir_find
  4750     0955  0020               	movlb	0	; select bank0
  4751     0956  00E8               	movwf	follow_path@res
  4752     0957                     l2913:
  4753                           
  4754                           ;pff.c: 764:    if (res != FR_OK) break;
  4755     0957  0868               	movf	follow_path@res,w
  4756     0958  1903               	btfsc	3,2
  4757     0959  295B               	goto	u2811
  4758     095A  295C               	goto	u2810
  4759     095B                     u2811:
  4760     095B  295D               	goto	l2917
  4761     095C                     u2810:
  4762     095C  2988               	goto	l2927
  4763     095D                     l2917:
  4764                           
  4765                           ;pff.c: 765:    if (dj->fn[11]) break;
  4766     095D  0869               	movf	follow_path@dj,w
  4767     095E  3E02               	addlw	2
  4768     095F  0086               	movwf	6
  4769     0960  0187               	clrf	7
  4770     0961  0801               	movf	1,w
  4771     0962  3E0B               	addlw	11
  4772     0963  0086               	movwf	6
  4773     0964  0187               	clrf	7
  4774     0965  0801               	movf	1,w
  4775     0966  1903               	btfsc	3,2
  4776     0967  2969               	goto	u2821
  4777     0968  296A               	goto	u2820
  4778     0969                     u2821:
  4779     0969  296B               	goto	l2921
  4780     096A                     u2820:
  4781     096A  2988               	goto	l2927
  4782     096B                     l2921:
  4783                           
  4784                           ;pff.c: 766:    if (!(dir[11] & 0x10)) {
  4785     096B  0864               	movf	follow_path@dir,w
  4786     096C  3E0B               	addlw	11
  4787     096D  0086               	movwf	6
  4788     096E  0187               	clrf	7
  4789     096F  1A01               	btfsc	1,4
  4790     0970  2972               	goto	u2831
  4791     0971  2973               	goto	u2830
  4792     0972                     u2831:
  4793     0972  2976               	goto	l2925
  4794     0973                     u2830:
  4795     0973                     l2923:
  4796                           
  4797                           ;pff.c: 767:     res = FR_NO_FILE; break;
  4798     0973  3003               	movlw	3
  4799     0974  00E8               	movwf	follow_path@res
  4800     0975  2988               	goto	l2927
  4801     0976                     l2925:
  4802                           
  4803                           ;pff.c: 769:    dj->sclust = get_clust(dir);
  4804     0976  0864               	movf	follow_path@dir,w
  4805     0977  3194  2487  3189   	fcall	_get_clust
  4806     097A  0020               	movlb	0	; select bank0
  4807     097B  0869               	movf	follow_path@dj,w
  4808     097C  3E03               	addlw	3
  4809     097D  0086               	movwf	6
  4810     097E  0187               	clrf	7
  4811     097F  0879               	movf	?_get_clust,w
  4812     0980  3FC0               	movwi [0]fsr1
  4813     0981  087A               	movf	?_get_clust+1,w
  4814     0982  3FC1               	movwi [1]fsr1
  4815     0983  087B               	movf	?_get_clust+2,w
  4816     0984  3FC2               	movwi [2]fsr1
  4817     0985  087C               	movf	?_get_clust+3,w
  4818     0986  3FC3               	movwi [3]fsr1
  4819                           
  4820                           ;pff.c: 770:   }
  4821     0987  2941               	goto	l2905
  4822     0988                     l2927:
  4823                           
  4824                           ;pff.c: 773:  return res;
  4825     0988  0868               	movf	follow_path@res,w
  4826     0989                     l262:
  4827     0989  0008               	return
  4828     098A                     __end_of_follow_path:
  4829                           
  4830                           	psect	text7
  4831     1487                     __ptext7:	
  4832 ;; *************** function _get_clust *****************
  4833 ;; Defined at:
  4834 ;;		line 492 in file "pff.c"
  4835 ;; Parameters:    Size  Location     Type
  4836 ;;  dir             1    wreg     PTR unsigned char 
  4837 ;;		 -> pf_open@dir(32), 
  4838 ;; Auto vars:     Size  Location     Type
  4839 ;;  dir             1    8[BANK0 ] PTR unsigned char 
  4840 ;;		 -> pf_open@dir(32), 
  4841 ;;  clst            4    4[BANK0 ] unsigned long 
  4842 ;;  fs              1    0        PTR struct .
  4843 ;;		 -> fs(42), NULL(0), 
  4844 ;; Return value:  Size  Location     Type
  4845 ;;                  4    9[COMMON] unsigned long 
  4846 ;; Registers used:
  4847 ;;		wreg, fsr1l, fsr1h, status,2, status,0, pclath, cstack
  4848 ;; Tracked objects:
  4849 ;;		On entry : 0/0
  4850 ;;		On exit  : 0/0
  4851 ;;		Unchanged: 0/0
  4852 ;; Data sizes:     COMMON   BANK0   BANK1   BANK2   BANK3   BANK4   BANK5   BANK6   BANK7   BANK8   BANK9  BANK10  BANK1
      +1  BANK12  BANK13  BANK14  BANK15  BANK16  BANK17  BANK18  BANK19  BANK20  BANK21  BANK22  BANK23  BANK24  BANK25
  4853 ;;      Params:         4       0       0       0       0       0       0       0       0       0       0       0       
      +0       0       0       0       0       0       0       0       0       0       0       0       0       0       0
  4854 ;;      Locals:         0       5       0       0       0       0       0       0       0       0       0       0       
      +0       0       0       0       0       0       0       0       0       0       0       0       0       0       0
  4855 ;;      Temps:          0       4       0       0       0       0       0       0       0       0       0       0       
      +0       0       0       0       0       0       0       0       0       0       0       0       0       0       0
  4856 ;;      Totals:         4       9       0       0       0       0       0       0       0       0       0       0       
      +0       0       0       0       0       0       0       0       0       0       0       0       0       0       0
  4857 ;;Total ram usage:       13 bytes
  4858 ;; Hardware stack levels used: 1
  4859 ;; Hardware stack levels required when called: 1
  4860 ;; This function calls:
  4861 ;;		_ld_word
  4862 ;; This function is called by:
  4863 ;;		_follow_path
  4864 ;;		_pf_open
  4865 ;; This function uses a non-reentrant model
  4866 ;;
  4867                           
  4868     1487                     _get_clust:	
  4869                           ;psect for function _get_clust
  4870                           
  4871                           
  4872                           ;incstack = 0
  4873                           ; Regs used in _get_clust: [wreg+fsr1l+fsr1h+status,2+status,0+pclath+cstack]
  4874                           ;get_clust@dir stored from wreg
  4875     1487  0020               	movlb	0	; select bank0
  4876     1488  00A8               	movwf	get_clust@dir
  4877     1489                     l2777:
  4878                           
  4879                           ;pff.c: 497:  DWORD clst = 0;
  4880     1489  3000               	movlw	0
  4881     148A  00A7               	movwf	get_clust@clst+3
  4882     148B  3000               	movlw	0
  4883     148C  00A6               	movwf	get_clust@clst+2
  4884     148D  3000               	movlw	0
  4885     148E  00A5               	movwf	get_clust@clst+1
  4886     148F  3000               	movlw	0
  4887     1490  00A4               	movwf	get_clust@clst
  4888     1491                     l2781:	
  4889                           ;pff.c: 500:  if (1 || (1 && fs->fs_type == 3)) {
  4890                           
  4891                           
  4892                           ;pff.c: 501:   clst = ld_word(dir+20);
  4893     1491  0828               	movf	get_clust@dir,w
  4894     1492  3E14               	addlw	20
  4895     1493  3193  23DC  3194   	fcall	_ld_word
  4896     1496  0870               	movf	?_ld_word,w
  4897     1497  0020               	movlb	0	; select bank0
  4898     1498  00A4               	movwf	get_clust@clst
  4899     1499  0871               	movf	?_ld_word+1,w
  4900     149A  00A5               	movwf	get_clust@clst+1
  4901     149B  01A6               	clrf	get_clust@clst+2
  4902     149C  01A7               	clrf	get_clust@clst+3
  4903     149D                     l2783:
  4904                           
  4905                           ;pff.c: 502:   clst <<= 16;
  4906     149D  3010               	movlw	16
  4907     149E                     u2585:
  4908     149E  35A4               	lslf	get_clust@clst,f
  4909     149F  0DA5               	rlf	get_clust@clst+1,f
  4910     14A0  0DA6               	rlf	get_clust@clst+2,f
  4911     14A1  0DA7               	rlf	get_clust@clst+3,f
  4912     14A2  0B89               	decfsz	9,f
  4913     14A3  2C9E               	goto	u2585
  4914     14A4                     l2785:
  4915                           
  4916                           ;pff.c: 504:  clst |= ld_word(dir+26);
  4917     14A4  0828               	movf	get_clust@dir,w
  4918     14A5  3E1A               	addlw	26
  4919     14A6  3193  23DC  3194   	fcall	_ld_word
  4920     14A9  0870               	movf	?_ld_word,w
  4921     14AA  0020               	movlb	0	; select bank0
  4922     14AB  00A0               	movwf	??_get_clust
  4923     14AC  0871               	movf	?_ld_word+1,w
  4924     14AD  00A1               	movwf	??_get_clust+1
  4925     14AE  01A2               	clrf	??_get_clust+2
  4926     14AF  01A3               	clrf	??_get_clust+3
  4927     14B0  0820               	movf	??_get_clust,w
  4928     14B1  04A4               	iorwf	get_clust@clst,f
  4929     14B2  0821               	movf	??_get_clust+1,w
  4930     14B3  04A5               	iorwf	get_clust@clst+1,f
  4931     14B4  0822               	movf	??_get_clust+2,w
  4932     14B5  04A6               	iorwf	get_clust@clst+2,f
  4933     14B6  0823               	movf	??_get_clust+3,w
  4934     14B7  04A7               	iorwf	get_clust@clst+3,f
  4935     14B8                     l2787:
  4936                           
  4937                           ;pff.c: 506:  return clst;
  4938     14B8  0827               	movf	get_clust@clst+3,w
  4939     14B9  00FC               	movwf	?_get_clust+3
  4940     14BA  0826               	movf	get_clust@clst+2,w
  4941     14BB  00FB               	movwf	?_get_clust+2
  4942     14BC  0825               	movf	get_clust@clst+1,w
  4943     14BD  00FA               	movwf	?_get_clust+1
  4944     14BE  0824               	movf	get_clust@clst,w
  4945     14BF  00F9               	movwf	?_get_clust
  4946     14C0                     l194:
  4947     14C0  0008               	return
  4948     14C1                     __end_of_get_clust:
  4949                           
  4950                           	psect	text8
  4951     16FD                     __ptext8:	
  4952 ;; *************** function _dir_find *****************
  4953 ;; Defined at:
  4954 ;;		line 584 in file "pff.c"
  4955 ;; Parameters:    Size  Location     Type
  4956 ;;  dj              1    wreg     PTR struct .
  4957 ;;		 -> pf_open@dj(15), 
  4958 ;;  dir             1   60[BANK0 ] PTR unsigned char 
  4959 ;;		 -> pf_open@dir(32), 
  4960 ;; Auto vars:     Size  Location     Type
  4961 ;;  dj              1   66[BANK0 ] PTR struct .
  4962 ;;		 -> pf_open@dj(15), 
  4963 ;;  res             1   67[BANK0 ] enum E71
  4964 ;;  c               1   65[BANK0 ] unsigned char 
  4965 ;; Return value:  Size  Location     Type
  4966 ;;                  1    wreg      enum E71
  4967 ;; Registers used:
  4968 ;;		wreg, fsr0l, fsr0h, fsr1l, fsr1h, status,2, status,0, pclath, cstack
  4969 ;; Tracked objects:
  4970 ;;		On entry : 0/0
  4971 ;;		On exit  : 0/0
  4972 ;;		Unchanged: 0/0
  4973 ;; Data sizes:     COMMON   BANK0   BANK1   BANK2   BANK3   BANK4   BANK5   BANK6   BANK7   BANK8   BANK9  BANK10  BANK1
      +1  BANK12  BANK13  BANK14  BANK15  BANK16  BANK17  BANK18  BANK19  BANK20  BANK21  BANK22  BANK23  BANK24  BANK25
  4974 ;;      Params:         0       1       0       0       0       0       0       0       0       0       0       0       
      +0       0       0       0       0       0       0       0       0       0       0       0       0       0       0
  4975 ;;      Locals:         0       3       0       0       0       0       0       0       0       0       0       0       
      +0       0       0       0       0       0       0       0       0       0       0       0       0       0       0
  4976 ;;      Temps:          0       4       0       0       0       0       0       0       0       0       0       0       
      +0       0       0       0       0       0       0       0       0       0       0       0       0       0       0
  4977 ;;      Totals:         0       8       0       0       0       0       0       0       0       0       0       0       
      +0       0       0       0       0       0       0       0       0       0       0       0       0       0       0
  4978 ;;Total ram usage:        8 bytes
  4979 ;; Hardware stack levels used: 1
  4980 ;; Hardware stack levels required when called: 8
  4981 ;; This function calls:
  4982 ;;		_dir_next
  4983 ;;		_dir_rewind
  4984 ;;		_disk_readp
  4985 ;;		_mem_cmp
  4986 ;; This function is called by:
  4987 ;;		_follow_path
  4988 ;; This function uses a non-reentrant model
  4989 ;;
  4990                           
  4991     16FD                     _dir_find:	
  4992                           ;psect for function _dir_find
  4993                           
  4994                           
  4995                           ;incstack = 0
  4996                           ; Regs used in _dir_find: [wreg-fsr1h+status,2+status,0+pclath+cstack]
  4997                           ;dir_find@dj stored from wreg
  4998     16FD  0020               	movlb	0	; select bank0
  4999     16FE  00E2               	movwf	dir_find@dj
  5000     16FF                     l2791:
  5001                           
  5002                           ;pff.c: 585:  DIR *dj,;pff.c: 586:  BYTE *dir;pff.c: 588: {;pff.c: 589:  FRESULT res;;pf
      +                          f.c: 590:  BYTE c;;pff.c: 593:  res = dir_rewind(dj);
  5003     16FF  0862               	movf	dir_find@dj,w
  5004     1700  3197  277D  3196   	fcall	_dir_rewind
  5005     1703  0020               	movlb	0	; select bank0
  5006     1704  00E3               	movwf	dir_find@res
  5007     1705                     l2793:
  5008                           
  5009                           ;pff.c: 594:  if (res != FR_OK) return res;
  5010     1705  0863               	movf	dir_find@res,w
  5011     1706  1903               	btfsc	3,2
  5012     1707  2F09               	goto	u2591
  5013     1708  2F0A               	goto	u2590
  5014     1709                     u2591:
  5015     1709  2F0D               	goto	l2799
  5016     170A                     u2590:
  5017     170A                     l2795:
  5018     170A  0020               	movlb	0	; select bank0
  5019     170B  0863               	movf	dir_find@res,w
  5020     170C  2F7C               	goto	l224
  5021     170D                     l2799:
  5022                           
  5023                           ;pff.c: 597:   res = disk_readp(dir, dj->sect, (dj->index % 16) * 32, 32)
  5024     170D  0862               	movf	dir_find@dj,w
  5025     170E  3E0B               	addlw	11
  5026     170F  0086               	movwf	6
  5027     1710  0187               	clrf	7
  5028     1711  3F40               	moviw [0]fsr1
  5029     1712  00A7               	movwf	disk_readp@sector
  5030     1713  3F41               	moviw [1]fsr1
  5031     1714  00A8               	movwf	disk_readp@sector+1
  5032     1715  3F42               	moviw [2]fsr1
  5033     1716  00A9               	movwf	disk_readp@sector+2
  5034     1717  3F43               	moviw [3]fsr1
  5035     1718  00AA               	movwf	disk_readp@sector+3
  5036     1719  0862               	movf	dir_find@dj,w
  5037     171A  0086               	movwf	6
  5038     171B  0187               	clrf	7
  5039     171C  3F40               	moviw [0]fsr1
  5040     171D  00DD               	movwf	??_dir_find
  5041     171E  3F41               	moviw [1]fsr1
  5042     171F  00DE               	movwf	??_dir_find+1
  5043     1720  300F               	movlw	15
  5044     1721  055D               	andwf	??_dir_find,w
  5045     1722  00DF               	movwf	??_dir_find+2
  5046     1723  3000               	movlw	0
  5047     1724  055E               	andwf	??_dir_find+1,w
  5048     1725  00E0               	movwf	??_dir_find+3
  5049     1726  3005               	movlw	5
  5050     1727                     u2605:
  5051     1727  35DF               	lslf	??_dir_find+2,f
  5052     1728  0DE0               	rlf	??_dir_find+3,f
  5053     1729  0B89               	decfsz	9,f
  5054     172A  2F27               	goto	u2605
  5055     172B  085F               	movf	??_dir_find+2,w
  5056     172C  00AB               	movwf	disk_readp@offset
  5057     172D  0860               	movf	??_dir_find+3,w
  5058     172E  00AC               	movwf	disk_readp@offset+1
  5059     172F  3020               	movlw	32
  5060     1730  00AD               	movwf	disk_readp@count
  5061     1731  3000               	movlw	0
  5062     1732  00AE               	movwf	disk_readp@count+1
  5063     1733  085C               	movf	dir_find@dir,w
  5064     1734  318B  234C  3196   	fcall	_disk_readp
  5065     1737  3A00               	xorlw	0
  5066     1738  1D03               	skipz
  5067     1739  2F3B               	goto	u2611
  5068     173A  2F3D               	goto	u2610
  5069     173B                     u2611:
  5070     173B  3001               	movlw	1
  5071     173C  2F3E               	goto	u2620
  5072     173D                     u2610:
  5073     173D  3000               	movlw	0
  5074     173E                     u2620:
  5075     173E  0020               	movlb	0	; select bank0
  5076     173F  00E3               	movwf	dir_find@res
  5077     1740                     l2801:
  5078                           
  5079                           ;pff.c: 599:   if (res != FR_OK) break;
  5080     1740  0863               	movf	dir_find@res,w
  5081     1741  1903               	btfsc	3,2
  5082     1742  2F44               	goto	u2631
  5083     1743  2F45               	goto	u2630
  5084     1744                     u2631:
  5085     1744  2F46               	goto	l2805
  5086     1745                     u2630:
  5087     1745  2F0A               	goto	l2795
  5088     1746                     l2805:
  5089                           
  5090                           ;pff.c: 600:   c = dir[0];
  5091     1746  085C               	movf	dir_find@dir,w
  5092     1747  0086               	movwf	6
  5093     1748  0187               	clrf	7
  5094     1749  0801               	movf	1,w
  5095     174A  00E1               	movwf	dir_find@c
  5096     174B                     l2807:
  5097                           
  5098                           ;pff.c: 601:   if (c == 0) { res = FR_NO_FILE; break; }
  5099     174B  0861               	movf	dir_find@c,w
  5100     174C  1D03               	btfss	3,2
  5101     174D  2F4F               	goto	u2641
  5102     174E  2F50               	goto	u2640
  5103     174F                     u2641:
  5104     174F  2F53               	goto	l2811
  5105     1750                     u2640:
  5106     1750                     l2809:
  5107     1750  3003               	movlw	3
  5108     1751  00E3               	movwf	dir_find@res
  5109     1752  2F0A               	goto	l2795
  5110     1753                     l2811:
  5111                           
  5112                           ;pff.c: 602:   if (!(dir[11] & 0x08) && !mem_cmp(dir, dj->fn, 11)) break;
  5113     1753  085C               	movf	dir_find@dir,w
  5114     1754  3E0B               	addlw	11
  5115     1755  0086               	movwf	6
  5116     1756  0187               	clrf	7
  5117     1757  1981               	btfsc	1,3
  5118     1758  2F5A               	goto	u2651
  5119     1759  2F5B               	goto	u2650
  5120     175A                     u2651:
  5121     175A  2F6F               	goto	l2817
  5122     175B                     u2650:
  5123     175B                     l2813:
  5124     175B  0862               	movf	dir_find@dj,w
  5125     175C  0086               	movwf	6
  5126     175D  0187               	clrf	7
  5127     175E  3F42               	moviw [2]fsr1
  5128     175F  00F0               	movwf	mem_cmp@src
  5129     1760  300B               	movlw	11
  5130     1761  00F1               	movwf	mem_cmp@cnt
  5131     1762  3000               	movlw	0
  5132     1763  00F2               	movwf	mem_cmp@cnt+1
  5133     1764  085C               	movf	dir_find@dir,w
  5134     1765  3193  23FB  3196   	fcall	_mem_cmp
  5135     1768  0870               	movf	?_mem_cmp,w
  5136     1769  0471               	iorwf	?_mem_cmp+1,w
  5137     176A  1D03               	btfss	3,2
  5138     176B  2F6D               	goto	u2661
  5139     176C  2F6E               	goto	u2660
  5140     176D                     u2661:
  5141     176D  2F6F               	goto	l2817
  5142     176E                     u2660:
  5143     176E  2F0A               	goto	l2795
  5144     176F                     l2817:
  5145                           
  5146                           ;pff.c: 603:   res = dir_next(dj);
  5147     176F  0020               	movlb	0	; select bank0
  5148     1770  0862               	movf	dir_find@dj,w
  5149     1771  318C  24A4  3196   	fcall	_dir_next
  5150     1774  0020               	movlb	0	; select bank0
  5151     1775  00E3               	movwf	dir_find@res
  5152     1776                     l2819:
  5153                           
  5154                           ;pff.c: 604:  } while (res == FR_OK);
  5155     1776  0863               	movf	dir_find@res,w
  5156     1777  1903               	btfsc	3,2
  5157     1778  2F7A               	goto	u2671
  5158     1779  2F7B               	goto	u2670
  5159     177A                     u2671:
  5160     177A  2F0D               	goto	l2799
  5161     177B                     u2670:
  5162     177B  2F0A               	goto	l2795
  5163     177C                     l224:
  5164     177C  0008               	return
  5165     177D                     __end_of_dir_find:
  5166                           
  5167                           	psect	text9
  5168     13FB                     __ptext9:	
  5169 ;; *************** function _mem_cmp *****************
  5170 ;; Defined at:
  5171 ;;		line 417 in file "pff.c"
  5172 ;; Parameters:    Size  Location     Type
  5173 ;;  dst             1    wreg     PTR const void 
  5174 ;;		 -> pf_open@dir(32), 
  5175 ;;  src             1    0[COMMON] PTR const void 
  5176 ;;		 -> pf_open@sp(12), 
  5177 ;;  cnt             2    1[COMMON] int 
  5178 ;; Auto vars:     Size  Location     Type
  5179 ;;  dst             1    7[COMMON] PTR const void 
  5180 ;;		 -> pf_open@dir(32), 
  5181 ;;  r               2    3[COMMON] int 
  5182 ;;  s               1    6[COMMON] PTR const unsigned char 
  5183 ;;		 -> pf_open@sp(12), 
  5184 ;;  d               1    5[COMMON] PTR const unsigned char 
  5185 ;;		 -> pf_open@dir(32), 
  5186 ;; Return value:  Size  Location     Type
  5187 ;;                  2    0[COMMON] int 
  5188 ;; Registers used:
  5189 ;;		wreg, fsr0l, fsr0h, fsr1l, fsr1h, status,2, status,0
  5190 ;; Tracked objects:
  5191 ;;		On entry : 0/0
  5192 ;;		On exit  : 0/0
  5193 ;;		Unchanged: 0/0
  5194 ;; Data sizes:     COMMON   BANK0   BANK1   BANK2   BANK3   BANK4   BANK5   BANK6   BANK7   BANK8   BANK9  BANK10  BANK1
      +1  BANK12  BANK13  BANK14  BANK15  BANK16  BANK17  BANK18  BANK19  BANK20  BANK21  BANK22  BANK23  BANK24  BANK25
  5195 ;;      Params:         3       0       0       0       0       0       0       0       0       0       0       0       
      +0       0       0       0       0       0       0       0       0       0       0       0       0       0       0
  5196 ;;      Locals:         5       0       0       0       0       0       0       0       0       0       0       0       
      +0       0       0       0       0       0       0       0       0       0       0       0       0       0       0
  5197 ;;      Temps:          0       0       0       0       0       0       0       0       0       0       0       0       
      +0       0       0       0       0       0       0       0       0       0       0       0       0       0       0
  5198 ;;      Totals:         8       0       0       0       0       0       0       0       0       0       0       0       
      +0       0       0       0       0       0       0       0       0       0       0       0       0       0       0
  5199 ;;Total ram usage:        8 bytes
  5200 ;; Hardware stack levels used: 1
  5201 ;; This function calls:
  5202 ;;		Nothing
  5203 ;; This function is called by:
  5204 ;;		_dir_find
  5205 ;; This function uses a non-reentrant model
  5206 ;;
  5207                           
  5208     13FB                     _mem_cmp:	
  5209                           ;psect for function _mem_cmp
  5210                           
  5211                           
  5212                           ;incstack = 0
  5213                           ; Regs used in _mem_cmp: [wreg-fsr1h+status,2+status,0]
  5214                           ;mem_cmp@dst stored from wreg
  5215     13FB  00F7               	movwf	mem_cmp@dst
  5216     13FC                     l2685:
  5217                           
  5218                           ;pff.c: 418:  const char *d = (const char *)dst, *s = (const char *)src;
  5219     13FC  0877               	movf	mem_cmp@dst,w
  5220     13FD  00F5               	movwf	mem_cmp@d
  5221     13FE  0870               	movf	mem_cmp@src,w
  5222     13FF  00F6               	movwf	mem_cmp@s
  5223     1400                     l2687:
  5224                           
  5225                           ;pff.c: 419:  int r = 0;
  5226     1400  01F3               	clrf	mem_cmp@r
  5227     1401  01F4               	clrf	mem_cmp@r+1
  5228     1402                     l2689:	
  5229                           ;pff.c: 420:  while (cnt-- && (r = *d++ - *s++) == 0) ;
  5230                           
  5231     1402  30FF               	movlw	255
  5232     1403  07F1               	addwf	mem_cmp@cnt,f
  5233     1404  30FF               	movlw	255
  5234     1405  3DF2               	addwfc	mem_cmp@cnt+1,f
  5235     1406  0A71               	incf	mem_cmp@cnt,w
  5236     1407  1D03               	skipz
  5237     1408  2C0E               	goto	u2440
  5238     1409  0A72               	incf	mem_cmp@cnt+1,w
  5239     140A  1903               	btfsc	3,2
  5240     140B  2C0D               	goto	u2441
  5241     140C  2C0E               	goto	u2440
  5242     140D                     u2441:
  5243     140D  2C22               	goto	l2693
  5244     140E                     u2440:
  5245     140E                     l2691:
  5246     140E  0875               	movf	mem_cmp@d,w
  5247     140F  0086               	movwf	6
  5248     1410  0187               	clrf	7
  5249     1411  0AF5               	incf	mem_cmp@d,f
  5250     1412  0876               	movf	mem_cmp@s,w
  5251     1413  0084               	movwf	4
  5252     1414  0185               	clrf	5
  5253     1415  0AF6               	incf	mem_cmp@s,f
  5254     1416  0800               	movf	0,w
  5255     1417  0201               	subwf	1,w
  5256     1418  00F3               	movwf	mem_cmp@r
  5257     1419  01F4               	clrf	mem_cmp@r+1
  5258     141A  1C03               	skipc
  5259     141B  03F4               	decf	mem_cmp@r+1,f
  5260     141C  0873               	movf	mem_cmp@r,w
  5261     141D  0474               	iorwf	mem_cmp@r+1,w
  5262     141E  1903               	btfsc	3,2
  5263     141F  2C21               	goto	u2451
  5264     1420  2C22               	goto	u2450
  5265     1421                     u2451:
  5266     1421  2C02               	goto	l2689
  5267     1422                     u2450:
  5268     1422                     l2693:
  5269                           
  5270                           ;pff.c: 421:  return r;
  5271     1422  0874               	movf	mem_cmp@r+1,w
  5272     1423  00F1               	movwf	?_mem_cmp+1
  5273     1424  0873               	movf	mem_cmp@r,w
  5274     1425  00F0               	movwf	?_mem_cmp
  5275     1426                     l174:
  5276     1426  0008               	return
  5277     1427                     __end_of_mem_cmp:
  5278                           
  5279                           	psect	text10
  5280     177D                     __ptext10:	
  5281 ;; *************** function _dir_rewind *****************
  5282 ;; Defined at:
  5283 ;;		line 514 in file "pff.c"
  5284 ;; Parameters:    Size  Location     Type
  5285 ;;  dj              1    wreg     PTR struct .
  5286 ;;		 -> pf_open@dj(15), 
  5287 ;; Auto vars:     Size  Location     Type
  5288 ;;  dj              1   21[BANK0 ] PTR struct .
  5289 ;;		 -> pf_open@dj(15), 
  5290 ;;  clst            4   22[BANK0 ] unsigned long 
  5291 ;;  fs              1   20[BANK0 ] PTR struct .
  5292 ;;		 -> fs(42), NULL(0), 
  5293 ;; Return value:  Size  Location     Type
  5294 ;;                  1    wreg      enum E71
  5295 ;; Registers used:
  5296 ;;		wreg, fsr1l, fsr1h, status,2, status,0, pclath, cstack
  5297 ;; Tracked objects:
  5298 ;;		On entry : 0/0
  5299 ;;		On exit  : 0/0
  5300 ;;		Unchanged: 0/0
  5301 ;; Data sizes:     COMMON   BANK0   BANK1   BANK2   BANK3   BANK4   BANK5   BANK6   BANK7   BANK8   BANK9  BANK10  BANK1
      +1  BANK12  BANK13  BANK14  BANK15  BANK16  BANK17  BANK18  BANK19  BANK20  BANK21  BANK22  BANK23  BANK24  BANK25
  5302 ;;      Params:         0       0       0       0       0       0       0       0       0       0       0       0       
      +0       0       0       0       0       0       0       0       0       0       0       0       0       0       0
  5303 ;;      Locals:         0      10       0       0       0       0       0       0       0       0       0       0       
      +0       0       0       0       0       0       0       0       0       0       0       0       0       0       0
  5304 ;;      Temps:          0       4       0       0       0       0       0       0       0       0       0       0       
      +0       0       0       0       0       0       0       0       0       0       0       0       0       0       0
  5305 ;;      Totals:         0      14       0       0       0       0       0       0       0       0       0       0       
      +0       0       0       0       0       0       0       0       0       0       0       0       0       0       0
  5306 ;;Total ram usage:       14 bytes
  5307 ;; Hardware stack levels used: 1
  5308 ;; Hardware stack levels required when called: 2
  5309 ;; This function calls:
  5310 ;;		_clust2sect
  5311 ;; This function is called by:
  5312 ;;		_dir_find
  5313 ;;		_follow_path
  5314 ;; This function uses a non-reentrant model
  5315 ;;
  5316                           
  5317     177D                     _dir_rewind:	
  5318                           ;psect for function _dir_rewind
  5319                           
  5320                           
  5321                           ;incstack = 0
  5322                           ; Regs used in _dir_rewind: [wreg+fsr1l+fsr1h+status,2+status,0+pclath+cstack]
  5323                           ;dir_rewind@dj stored from wreg
  5324     177D  0020               	movlb	0	; select bank0
  5325     177E  00B5               	movwf	dir_rewind@dj
  5326     177F                     l2697:
  5327                           
  5328                           ;pff.c: 515:  DIR *dj;pff.c: 517: {;pff.c: 518:  DWORD clst;;pff.c: 519:  FATFS *fs = Fa
      +                          tFs;
  5329     177F  086F               	movf	_FatFs,w
  5330     1780  00B4               	movwf	dir_rewind@fs
  5331     1781                     l2699:
  5332                           
  5333                           ;pff.c: 522:  dj->index = 0;
  5334     1781  0835               	movf	dir_rewind@dj,w
  5335     1782  0086               	movwf	6
  5336     1783  0187               	clrf	7
  5337     1784  3000               	movlw	0
  5338     1785  3FC0               	movwi [0]fsr1
  5339     1786  3FC1               	movwi [1]fsr1
  5340     1787                     l2701:
  5341                           
  5342                           ;pff.c: 523:  clst = dj->sclust;
  5343     1787  0835               	movf	dir_rewind@dj,w
  5344     1788  3E03               	addlw	3
  5345     1789  0086               	movwf	6
  5346     178A  0187               	clrf	7
  5347     178B  3F40               	moviw [0]fsr1
  5348     178C  00B6               	movwf	dir_rewind@clst
  5349     178D  3F41               	moviw [1]fsr1
  5350     178E  00B7               	movwf	dir_rewind@clst+1
  5351     178F  3F42               	moviw [2]fsr1
  5352     1790  00B8               	movwf	dir_rewind@clst+2
  5353     1791  3F43               	moviw [3]fsr1
  5354     1792  00B9               	movwf	dir_rewind@clst+3
  5355                           
  5356                           ;pff.c: 524:  if (clst == 1 || clst >= fs->n_fatent) {
  5357     1793  0336               	decf	dir_rewind@clst,w
  5358     1794  0437               	iorwf	dir_rewind@clst+1,w
  5359     1795  0438               	iorwf	dir_rewind@clst+2,w
  5360     1796  0439               	iorwf	dir_rewind@clst+3,w
  5361     1797  1903               	btfsc	3,2
  5362     1798  2F9A               	goto	u2461
  5363     1799  2F9B               	goto	u2460
  5364     179A                     u2461:
  5365     179A  2FBB               	goto	l2705
  5366     179B                     u2460:
  5367     179B                     l2703:
  5368     179B  0020               	movlb	0	; select bank0
  5369     179C  0834               	movf	dir_rewind@fs,w
  5370     179D  3E06               	addlw	6
  5371     179E  0086               	movwf	6
  5372     179F  3001               	movlw	1	; select bank2/3
  5373     17A0  0087               	movwf	7
  5374     17A1  3F40               	moviw [0]fsr1
  5375     17A2  00AC               	movwf	??_dir_rewind
  5376     17A3  3F41               	moviw [1]fsr1
  5377     17A4  00AD               	movwf	??_dir_rewind+1
  5378     17A5  3F42               	moviw [2]fsr1
  5379     17A6  00AE               	movwf	??_dir_rewind+2
  5380     17A7  3F43               	moviw [3]fsr1
  5381     17A8  00AF               	movwf	??_dir_rewind+3
  5382     17A9  082F               	movf	??_dir_rewind+3,w
  5383     17AA  0239               	subwf	dir_rewind@clst+3,w
  5384     17AB  1D03               	skipz
  5385     17AC  2FB7               	goto	u2475
  5386     17AD  082E               	movf	??_dir_rewind+2,w
  5387     17AE  0238               	subwf	dir_rewind@clst+2,w
  5388     17AF  1D03               	skipz
  5389     17B0  2FB7               	goto	u2475
  5390     17B1  082D               	movf	??_dir_rewind+1,w
  5391     17B2  0237               	subwf	dir_rewind@clst+1,w
  5392     17B3  1D03               	skipz
  5393     17B4  2FB7               	goto	u2475
  5394     17B5  082C               	movf	??_dir_rewind,w
  5395     17B6  0236               	subwf	dir_rewind@clst,w
  5396     17B7                     u2475:
  5397     17B7  1C03               	skipc
  5398     17B8  2FBA               	goto	u2471
  5399     17B9  2FBB               	goto	u2470
  5400     17BA                     u2471:
  5401     17BA  2FBD               	goto	l2709
  5402     17BB                     u2470:
  5403     17BB                     l2705:
  5404                           
  5405                           ;pff.c: 525:   return FR_DISK_ERR;
  5406     17BB  3001               	movlw	1
  5407     17BC  2FFF               	goto	l200
  5408     17BD                     l2709:
  5409     17BD  0839               	movf	dir_rewind@clst+3,w
  5410     17BE  0438               	iorwf	dir_rewind@clst+2,w
  5411     17BF  0437               	iorwf	dir_rewind@clst+1,w
  5412     17C0  0436               	iorwf	dir_rewind@clst,w
  5413     17C1  1D03               	skipz
  5414     17C2  2FC4               	goto	u2481
  5415     17C3  2FC5               	goto	u2480
  5416     17C4                     u2481:
  5417     17C4  2FD2               	goto	l201
  5418     17C5                     u2480:
  5419     17C5                     l2715:
  5420                           
  5421                           ;pff.c: 528:   clst = (DWORD)fs->dirbase;
  5422     17C5  0834               	movf	dir_rewind@fs,w
  5423     17C6  3E0E               	addlw	14
  5424     17C7  0086               	movwf	6
  5425     17C8  3001               	movlw	1	; select bank2/3
  5426     17C9  0087               	movwf	7
  5427     17CA  3F40               	moviw [0]fsr1
  5428     17CB  00B6               	movwf	dir_rewind@clst
  5429     17CC  3F41               	moviw [1]fsr1
  5430     17CD  00B7               	movwf	dir_rewind@clst+1
  5431     17CE  3F42               	moviw [2]fsr1
  5432     17CF  00B8               	movwf	dir_rewind@clst+2
  5433     17D0  3F43               	moviw [3]fsr1
  5434     17D1  00B9               	movwf	dir_rewind@clst+3
  5435     17D2                     l201:	
  5436                           ;pff.c: 529:  }
  5437                           
  5438                           
  5439                           ;pff.c: 530:  dj->clust = clst;
  5440     17D2  0835               	movf	dir_rewind@dj,w
  5441     17D3  3E07               	addlw	7
  5442     17D4  0086               	movwf	6
  5443     17D5  0187               	clrf	7
  5444     17D6  0836               	movf	dir_rewind@clst,w
  5445     17D7  3FC0               	movwi [0]fsr1
  5446     17D8  0837               	movf	dir_rewind@clst+1,w
  5447     17D9  3FC1               	movwi [1]fsr1
  5448     17DA  0838               	movf	dir_rewind@clst+2,w
  5449     17DB  3FC2               	movwi [2]fsr1
  5450     17DC  0839               	movf	dir_rewind@clst+3,w
  5451     17DD  3FC3               	movwi [3]fsr1
  5452     17DE                     l2721:	
  5453                           ;pff.c: 531:  dj->sect = (1 || clst) ? clust2sect(clst) : fs->dirbase;
  5454                           
  5455     17DE  0839               	movf	dir_rewind@clst+3,w
  5456     17DF  00A3               	movwf	clust2sect@clst+3
  5457     17E0  0838               	movf	dir_rewind@clst+2,w
  5458     17E1  00A2               	movwf	clust2sect@clst+2
  5459     17E2  0837               	movf	dir_rewind@clst+1,w
  5460     17E3  00A1               	movwf	clust2sect@clst+1
  5461     17E4  0836               	movf	dir_rewind@clst,w
  5462     17E5  00A0               	movwf	clust2sect@clst
  5463     17E6  3196  267E  3197   	fcall	_clust2sect
  5464     17E9  0020               	movlb	0	; select bank0
  5465     17EA  0823               	movf	?_clust2sect+3,w
  5466     17EB  00B3               	movwf	_dir_rewind$358+3
  5467     17EC  0822               	movf	?_clust2sect+2,w
  5468     17ED  00B2               	movwf	_dir_rewind$358+2
  5469     17EE  0821               	movf	?_clust2sect+1,w
  5470     17EF  00B1               	movwf	_dir_rewind$358+1
  5471     17F0  0820               	movf	?_clust2sect,w
  5472     17F1  00B0               	movwf	_dir_rewind$358
  5473     17F2                     l2723:
  5474     17F2  0835               	movf	dir_rewind@dj,w
  5475     17F3  3E0B               	addlw	11
  5476     17F4  0086               	movwf	6
  5477     17F5  0187               	clrf	7
  5478     17F6  0830               	movf	_dir_rewind$358,w
  5479     17F7  3FC0               	movwi [0]fsr1
  5480     17F8  0831               	movf	_dir_rewind$358+1,w
  5481     17F9  3FC1               	movwi [1]fsr1
  5482     17FA  0832               	movf	_dir_rewind$358+2,w
  5483     17FB  3FC2               	movwi [2]fsr1
  5484     17FC  0833               	movf	_dir_rewind$358+3,w
  5485     17FD  3FC3               	movwi [3]fsr1
  5486     17FE                     l2725:
  5487                           
  5488                           ;pff.c: 533:  return FR_OK;
  5489     17FE  3000               	movlw	0
  5490     17FF                     l200:
  5491     17FF  0008               	return
  5492     1800                     __end_of_dir_rewind:
  5493                           
  5494                           	psect	text11
  5495     0CA4                     __ptext11:	
  5496 ;; *************** function _dir_next *****************
  5497 ;; Defined at:
  5498 ;;		line 543 in file "pff.c"
  5499 ;; Parameters:    Size  Location     Type
  5500 ;;  dj              1    wreg     PTR struct .
  5501 ;;		 -> pf_open@dj(15), 
  5502 ;; Auto vars:     Size  Location     Type
  5503 ;;  dj              1   59[BANK0 ] PTR struct .
  5504 ;;		 -> pf_open@dj(15), 
  5505 ;;  clst            4   53[BANK0 ] unsigned long 
  5506 ;;  i               2   57[BANK0 ] unsigned short 
  5507 ;;  fs              1   52[BANK0 ] PTR struct .
  5508 ;;		 -> fs(42), NULL(0), 
  5509 ;; Return value:  Size  Location     Type
  5510 ;;                  1    wreg      enum E71
  5511 ;; Registers used:
  5512 ;;		wreg, fsr0l, fsr0h, fsr1l, fsr1h, status,2, status,0, pclath, cstack
  5513 ;; Tracked objects:
  5514 ;;		On entry : 0/0
  5515 ;;		On exit  : 0/0
  5516 ;;		Unchanged: 0/0
  5517 ;; Data sizes:     COMMON   BANK0   BANK1   BANK2   BANK3   BANK4   BANK5   BANK6   BANK7   BANK8   BANK9  BANK10  BANK1
      +1  BANK12  BANK13  BANK14  BANK15  BANK16  BANK17  BANK18  BANK19  BANK20  BANK21  BANK22  BANK23  BANK24  BANK25
  5518 ;;      Params:         0       0       0       0       0       0       0       0       0       0       0       0       
      +0       0       0       0       0       0       0       0       0       0       0       0       0       0       0
  5519 ;;      Locals:         0       8       0       0       0       0       0       0       0       0       0       0       
      +0       0       0       0       0       0       0       0       0       0       0       0       0       0       0
  5520 ;;      Temps:          0       6       0       0       0       0       0       0       0       0       0       0       
      +0       0       0       0       0       0       0       0       0       0       0       0       0       0       0
  5521 ;;      Totals:         0      14       0       0       0       0       0       0       0       0       0       0       
      +0       0       0       0       0       0       0       0       0       0       0       0       0       0       0
  5522 ;;Total ram usage:       14 bytes
  5523 ;; Hardware stack levels used: 1
  5524 ;; Hardware stack levels required when called: 7
  5525 ;; This function calls:
  5526 ;;		_clust2sect
  5527 ;;		_get_fat
  5528 ;; This function is called by:
  5529 ;;		_dir_find
  5530 ;; This function uses a non-reentrant model
  5531 ;;
  5532                           
  5533     0CA4                     _dir_next:	
  5534                           ;psect for function _dir_next
  5535                           
  5536                           
  5537                           ;incstack = 0
  5538                           ; Regs used in _dir_next: [wreg-fsr1h+status,2+status,0+pclath+cstack]
  5539                           ;dir_next@dj stored from wreg
  5540     0CA4  0020               	movlb	0	; select bank0
  5541     0CA5  00DB               	movwf	dir_next@dj
  5542     0CA6                     l2729:
  5543                           
  5544                           ;pff.c: 544:  DIR *dj;pff.c: 546: {;pff.c: 547:  DWORD clst;;pff.c: 548:  WORD i;;pff.c:
      +                           549:  FATFS *fs = FatFs;
  5545     0CA6  086F               	movf	_FatFs,w
  5546     0CA7  00D4               	movwf	dir_next@fs
  5547     0CA8                     l2731:
  5548                           
  5549                           ;pff.c: 552:  i = dj->index + 1;
  5550     0CA8  085B               	movf	dir_next@dj,w
  5551     0CA9  0086               	movwf	6
  5552     0CAA  0187               	clrf	7
  5553     0CAB  3F40               	moviw [0]fsr1
  5554     0CAC  00CE               	movwf	??_dir_next
  5555     0CAD  3F41               	moviw [1]fsr1
  5556     0CAE  00CF               	movwf	??_dir_next+1
  5557     0CAF  084E               	movf	??_dir_next,w
  5558     0CB0  3E01               	addlw	1
  5559     0CB1  00D9               	movwf	dir_next@i
  5560     0CB2  3000               	movlw	0
  5561     0CB3  3D4F               	addwfc	??_dir_next+1,w
  5562     0CB4  00DA               	movwf	dir_next@i+1
  5563     0CB5                     l2733:
  5564                           
  5565                           ;pff.c: 553:  if (!i || !dj->sect) return FR_NO_FILE;
  5566     0CB5  0859               	movf	dir_next@i,w
  5567     0CB6  045A               	iorwf	dir_next@i+1,w
  5568     0CB7  1903               	btfsc	3,2
  5569     0CB8  2CBA               	goto	u2491
  5570     0CB9  2CBB               	goto	u2490
  5571     0CBA                     u2491:
  5572     0CBA  2CCF               	goto	l2737
  5573     0CBB                     u2490:
  5574     0CBB                     l2735:
  5575     0CBB  085B               	movf	dir_next@dj,w
  5576     0CBC  3E0B               	addlw	11
  5577     0CBD  0086               	movwf	6
  5578     0CBE  0187               	clrf	7
  5579     0CBF  3F40               	moviw [0]fsr1
  5580     0CC0  00CE               	movwf	??_dir_next
  5581     0CC1  3F41               	moviw [1]fsr1
  5582     0CC2  00CF               	movwf	??_dir_next+1
  5583     0CC3  3F42               	moviw [2]fsr1
  5584     0CC4  00D0               	movwf	??_dir_next+2
  5585     0CC5  3F43               	moviw [3]fsr1
  5586     0CC6  00D1               	movwf	??_dir_next+3
  5587     0CC7  0851               	movf	??_dir_next+3,w
  5588     0CC8  0450               	iorwf	??_dir_next+2,w
  5589     0CC9  044F               	iorwf	??_dir_next+1,w
  5590     0CCA  044E               	iorwf	??_dir_next,w
  5591     0CCB  1D03               	skipz
  5592     0CCC  2CCE               	goto	u2501
  5593     0CCD  2CCF               	goto	u2500
  5594     0CCE                     u2501:
  5595     0CCE  2CD1               	goto	l2741
  5596     0CCF                     u2500:
  5597     0CCF                     l2737:
  5598     0CCF  3003               	movlw	3
  5599     0CD0  2DAB               	goto	l213
  5600     0CD1                     l2741:
  5601                           
  5602                           ;pff.c: 555:  if (!(i % 16)) {
  5603     0CD1  300F               	movlw	15
  5604     0CD2  0559               	andwf	dir_next@i,w
  5605     0CD3  00CE               	movwf	??_dir_next
  5606     0CD4  3000               	movlw	0
  5607     0CD5  055A               	andwf	dir_next@i+1,w
  5608     0CD6  00CF               	movwf	??_dir_next+1
  5609     0CD7  084E               	movf	??_dir_next,w
  5610     0CD8  044F               	iorwf	??_dir_next+1,w
  5611     0CD9  1D03               	btfss	3,2
  5612     0CDA  2CDC               	goto	u2511
  5613     0CDB  2CDD               	goto	u2510
  5614     0CDC                     u2511:
  5615     0CDC  2DA3               	goto	l2771
  5616     0CDD                     u2510:
  5617     0CDD                     l2743:
  5618                           
  5619                           ;pff.c: 556:   dj->sect++;
  5620     0CDD  085B               	movf	dir_next@dj,w
  5621     0CDE  3E0B               	addlw	11
  5622     0CDF  0086               	movwf	6
  5623     0CE0  0187               	clrf	7
  5624     0CE1  3001               	movlw	1
  5625     0CE2  0781               	addwf	1,f
  5626     0CE3  3141               	addfsr 1,1
  5627     0CE4  3000               	movlw	0
  5628     0CE5  3D81               	addwfc	1,f
  5629     0CE6  3141               	addfsr 1,1
  5630     0CE7  3000               	movlw	0
  5631     0CE8  3D81               	addwfc	1,f
  5632     0CE9  3141               	addfsr 1,1
  5633     0CEA  3000               	movlw	0
  5634     0CEB  3D81               	addwfc	1,f
  5635                           
  5636                           ;pff.c: 558:   if (dj->clust == 0) {
  5637     0CEC  085B               	movf	dir_next@dj,w
  5638     0CED  3E07               	addlw	7
  5639     0CEE  0086               	movwf	6
  5640     0CEF  0187               	clrf	7
  5641     0CF0  3F40               	moviw [0]fsr1
  5642     0CF1  00CE               	movwf	??_dir_next
  5643     0CF2  3F41               	moviw [1]fsr1
  5644     0CF3  00CF               	movwf	??_dir_next+1
  5645     0CF4  3F42               	moviw [2]fsr1
  5646     0CF5  00D0               	movwf	??_dir_next+2
  5647     0CF6  3F43               	moviw [3]fsr1
  5648     0CF7  00D1               	movwf	??_dir_next+3
  5649     0CF8  0851               	movf	??_dir_next+3,w
  5650     0CF9  0450               	iorwf	??_dir_next+2,w
  5651     0CFA  044F               	iorwf	??_dir_next+1,w
  5652     0CFB  044E               	iorwf	??_dir_next,w
  5653     0CFC  1D03               	skipz
  5654     0CFD  2CFF               	goto	u2521
  5655     0CFE  2D00               	goto	u2520
  5656     0CFF                     u2521:
  5657     0CFF  2D14               	goto	l2751
  5658     0D00                     u2520:
  5659     0D00                     l2745:
  5660                           
  5661                           ;pff.c: 559:    if (i >= fs->n_rootdir) return FR_NO_FILE;
  5662     0D00  0854               	movf	dir_next@fs,w
  5663     0D01  3E04               	addlw	4
  5664     0D02  0086               	movwf	6
  5665     0D03  3001               	movlw	1	; select bank2/3
  5666     0D04  0087               	movwf	7
  5667     0D05  3F40               	moviw [0]fsr1
  5668     0D06  00CE               	movwf	??_dir_next
  5669     0D07  3F41               	moviw [1]fsr1
  5670     0D08  00CF               	movwf	??_dir_next+1
  5671     0D09  084F               	movf	??_dir_next+1,w
  5672     0D0A  025A               	subwf	dir_next@i+1,w
  5673     0D0B  1D03               	skipz
  5674     0D0C  2D0F               	goto	u2535
  5675     0D0D  084E               	movf	??_dir_next,w
  5676     0D0E  0259               	subwf	dir_next@i,w
  5677     0D0F                     u2535:
  5678     0D0F  1C03               	skipc
  5679     0D10  2D12               	goto	u2531
  5680     0D11  2D13               	goto	u2530
  5681     0D12                     u2531:
  5682     0D12  2DA3               	goto	l2771
  5683     0D13                     u2530:
  5684     0D13  2CCF               	goto	l2737
  5685     0D14                     l2751:
  5686                           
  5687                           ;pff.c: 562:    if (((i / 16) & (fs->csize - 1)) == 0) {
  5688     0D14  085A               	movf	dir_next@i+1,w
  5689     0D15  00CF               	movwf	??_dir_next+1
  5690     0D16  0859               	movf	dir_next@i,w
  5691     0D17  00CE               	movwf	??_dir_next
  5692     0D18  3004               	movlw	4
  5693     0D19                     u2545:
  5694     0D19  36CF               	lsrf	??_dir_next+1,f
  5695     0D1A  0CCE               	rrf	??_dir_next,f
  5696     0D1B  0B89               	decfsz	9,f
  5697     0D1C  2D19               	goto	u2545
  5698     0D1D  0854               	movf	dir_next@fs,w
  5699     0D1E  3E02               	addlw	2
  5700     0D1F  0086               	movwf	6
  5701     0D20  3001               	movlw	1	; select bank2/3
  5702     0D21  0087               	movwf	7
  5703     0D22  0801               	movf	1,w
  5704     0D23  3EFF               	addlw	255
  5705     0D24  00D0               	movwf	??_dir_next+2
  5706     0D25  30FF               	movlw	255
  5707     0D26  1803               	skipnc
  5708     0D27  3000               	movlw	0
  5709     0D28  00D1               	movwf	??_dir_next+3
  5710     0D29  084E               	movf	??_dir_next,w
  5711     0D2A  0550               	andwf	??_dir_next+2,w
  5712     0D2B  00D2               	movwf	??_dir_next+4
  5713     0D2C  084F               	movf	??_dir_next+1,w
  5714     0D2D  0551               	andwf	??_dir_next+3,w
  5715     0D2E  00D3               	movwf	??_dir_next+5
  5716     0D2F  0852               	movf	??_dir_next+4,w
  5717     0D30  0453               	iorwf	??_dir_next+5,w
  5718     0D31  1D03               	btfss	3,2
  5719     0D32  2D34               	goto	u2551
  5720     0D33  2D35               	goto	u2550
  5721     0D34                     u2551:
  5722     0D34  2DA3               	goto	l2771
  5723     0D35                     u2550:
  5724     0D35                     l2753:
  5725                           
  5726                           ;pff.c: 563:     clst = get_fat(dj->clust);
  5727     0D35  085B               	movf	dir_next@dj,w
  5728     0D36  3E07               	addlw	7
  5729     0D37  0086               	movwf	6
  5730     0D38  0187               	clrf	7
  5731     0D39  3F40               	moviw [0]fsr1
  5732     0D3A  00BB               	movwf	get_fat@clst
  5733     0D3B  3F41               	moviw [1]fsr1
  5734     0D3C  00BC               	movwf	get_fat@clst+1
  5735     0D3D  3F42               	moviw [2]fsr1
  5736     0D3E  00BD               	movwf	get_fat@clst+2
  5737     0D3F  3F43               	moviw [3]fsr1
  5738     0D40  00BE               	movwf	get_fat@clst+3
  5739     0D41  318A  22AC  318C   	fcall	_get_fat
  5740     0D44  0020               	movlb	0	; select bank0
  5741     0D45  083E               	movf	?_get_fat+3,w
  5742     0D46  00D8               	movwf	dir_next@clst+3
  5743     0D47  083D               	movf	?_get_fat+2,w
  5744     0D48  00D7               	movwf	dir_next@clst+2
  5745     0D49  083C               	movf	?_get_fat+1,w
  5746     0D4A  00D6               	movwf	dir_next@clst+1
  5747     0D4B  083B               	movf	?_get_fat,w
  5748     0D4C  00D5               	movwf	dir_next@clst
  5749     0D4D                     l2755:
  5750                           
  5751                           ;pff.c: 564:     if (clst <= 1) return FR_DISK_ERR;
  5752     0D4D  0858               	movf	dir_next@clst+3,w
  5753     0D4E  1D03               	btfss	3,2
  5754     0D4F  2D5B               	goto	u2561
  5755     0D50  0857               	movf	dir_next@clst+2,w
  5756     0D51  1D03               	btfss	3,2
  5757     0D52  2D5B               	goto	u2561
  5758     0D53  0856               	movf	dir_next@clst+1,w
  5759     0D54  1D03               	btfss	3,2
  5760     0D55  2D5B               	goto	u2561
  5761     0D56  3002               	movlw	2
  5762     0D57  0255               	subwf	dir_next@clst,w
  5763     0D58  1803               	btfsc	3,0
  5764     0D59  2D5B               	goto	u2561
  5765     0D5A  2D5C               	goto	u2560
  5766     0D5B                     u2561:
  5767     0D5B  2D5E               	goto	l2761
  5768     0D5C                     u2560:
  5769     0D5C                     l2757:
  5770     0D5C  3001               	movlw	1
  5771     0D5D  2DAB               	goto	l213
  5772     0D5E                     l2761:
  5773                           
  5774                           ;pff.c: 565:     if (clst >= fs->n_fatent) return FR_NO_FILE;
  5775     0D5E  0020               	movlb	0	; select bank0
  5776     0D5F  0854               	movf	dir_next@fs,w
  5777     0D60  3E06               	addlw	6
  5778     0D61  0086               	movwf	6
  5779     0D62  3001               	movlw	1	; select bank2/3
  5780     0D63  0087               	movwf	7
  5781     0D64  3F40               	moviw [0]fsr1
  5782     0D65  00CE               	movwf	??_dir_next
  5783     0D66  3F41               	moviw [1]fsr1
  5784     0D67  00CF               	movwf	??_dir_next+1
  5785     0D68  3F42               	moviw [2]fsr1
  5786     0D69  00D0               	movwf	??_dir_next+2
  5787     0D6A  3F43               	moviw [3]fsr1
  5788     0D6B  00D1               	movwf	??_dir_next+3
  5789     0D6C  0851               	movf	??_dir_next+3,w
  5790     0D6D  0258               	subwf	dir_next@clst+3,w
  5791     0D6E  1D03               	skipz
  5792     0D6F  2D7A               	goto	u2575
  5793     0D70  0850               	movf	??_dir_next+2,w
  5794     0D71  0257               	subwf	dir_next@clst+2,w
  5795     0D72  1D03               	skipz
  5796     0D73  2D7A               	goto	u2575
  5797     0D74  084F               	movf	??_dir_next+1,w
  5798     0D75  0256               	subwf	dir_next@clst+1,w
  5799     0D76  1D03               	skipz
  5800     0D77  2D7A               	goto	u2575
  5801     0D78  084E               	movf	??_dir_next,w
  5802     0D79  0255               	subwf	dir_next@clst,w
  5803     0D7A                     u2575:
  5804     0D7A  1C03               	skipc
  5805     0D7B  2D7D               	goto	u2571
  5806     0D7C  2D7E               	goto	u2570
  5807     0D7D                     u2571:
  5808     0D7D  2D7F               	goto	l2767
  5809     0D7E                     u2570:
  5810     0D7E  2CCF               	goto	l2737
  5811     0D7F                     l2767:
  5812                           
  5813                           ;pff.c: 566:     dj->clust = clst;
  5814     0D7F  085B               	movf	dir_next@dj,w
  5815     0D80  3E07               	addlw	7
  5816     0D81  0086               	movwf	6
  5817     0D82  0187               	clrf	7
  5818     0D83  0855               	movf	dir_next@clst,w
  5819     0D84  3FC0               	movwi [0]fsr1
  5820     0D85  0856               	movf	dir_next@clst+1,w
  5821     0D86  3FC1               	movwi [1]fsr1
  5822     0D87  0857               	movf	dir_next@clst+2,w
  5823     0D88  3FC2               	movwi [2]fsr1
  5824     0D89  0858               	movf	dir_next@clst+3,w
  5825     0D8A  3FC3               	movwi [3]fsr1
  5826     0D8B                     l2769:
  5827                           
  5828                           ;pff.c: 567:     dj->sect = clust2sect(clst);
  5829     0D8B  0858               	movf	dir_next@clst+3,w
  5830     0D8C  00A3               	movwf	clust2sect@clst+3
  5831     0D8D  0857               	movf	dir_next@clst+2,w
  5832     0D8E  00A2               	movwf	clust2sect@clst+2
  5833     0D8F  0856               	movf	dir_next@clst+1,w
  5834     0D90  00A1               	movwf	clust2sect@clst+1
  5835     0D91  0855               	movf	dir_next@clst,w
  5836     0D92  00A0               	movwf	clust2sect@clst
  5837     0D93  3196  267E  318C   	fcall	_clust2sect
  5838     0D96  0020               	movlb	0	; select bank0
  5839     0D97  085B               	movf	dir_next@dj,w
  5840     0D98  3E0B               	addlw	11
  5841     0D99  0086               	movwf	6
  5842     0D9A  0187               	clrf	7
  5843     0D9B  0820               	movf	?_clust2sect,w
  5844     0D9C  3FC0               	movwi [0]fsr1
  5845     0D9D  0821               	movf	?_clust2sect+1,w
  5846     0D9E  3FC1               	movwi [1]fsr1
  5847     0D9F  0822               	movf	?_clust2sect+2,w
  5848     0DA0  3FC2               	movwi [2]fsr1
  5849     0DA1  0823               	movf	?_clust2sect+3,w
  5850     0DA2  3FC3               	movwi [3]fsr1
  5851     0DA3                     l2771:
  5852                           
  5853                           ;pff.c: 572:  dj->index = i;
  5854     0DA3  085B               	movf	dir_next@dj,w
  5855     0DA4  0086               	movwf	6
  5856     0DA5  0187               	clrf	7
  5857     0DA6  0859               	movf	dir_next@i,w
  5858     0DA7  3FC0               	movwi [0]fsr1
  5859     0DA8  085A               	movf	dir_next@i+1,w
  5860     0DA9  3FC1               	movwi [1]fsr1
  5861     0DAA                     l2773:
  5862                           
  5863                           ;pff.c: 574:  return FR_OK;
  5864     0DAA  3000               	movlw	0
  5865     0DAB                     l213:
  5866     0DAB  0008               	return
  5867     0DAC                     __end_of_dir_next:
  5868                           
  5869                           	psect	text12
  5870     0879                     __ptext12:	
  5871 ;; *************** function _create_name *****************
  5872 ;; Defined at:
  5873 ;;		line 651 in file "pff.c"
  5874 ;; Parameters:    Size  Location     Type
  5875 ;;  dj              1    wreg     PTR struct .
  5876 ;;		 -> pf_open@dj(15), 
  5877 ;;  path            1    7[COMMON] PTR PTR const unsigned c
  5878 ;;		 -> follow_path@path(2), 
  5879 ;; Auto vars:     Size  Location     Type
  5880 ;;  dj              1    0[BANK0 ] PTR struct .
  5881 ;;		 -> pf_open@dj(15), 
  5882 ;;  p               2    1[BANK0 ] PTR const unsigned char 
  5883 ;;		 -> STR_2(8), 
  5884 ;;  c               1    7[BANK0 ] unsigned char 
  5885 ;;  i               1    6[BANK0 ] unsigned char 
  5886 ;;  sfn             1    5[BANK0 ] PTR unsigned char 
  5887 ;;		 -> pf_open@sp(12), 
  5888 ;;  si              1    4[BANK0 ] unsigned char 
  5889 ;;  ni              1    3[BANK0 ] unsigned char 
  5890 ;;  d               1    0        unsigned char 
  5891 ;; Return value:  Size  Location     Type
  5892 ;;                  1    wreg      enum E71
  5893 ;; Registers used:
  5894 ;;		wreg, fsr0l, fsr0h, fsr1l, fsr1h, status,2, status,0, pclath, cstack
  5895 ;; Tracked objects:
  5896 ;;		On entry : 0/0
  5897 ;;		On exit  : 0/0
  5898 ;;		Unchanged: 0/0
  5899 ;; Data sizes:     COMMON   BANK0   BANK1   BANK2   BANK3   BANK4   BANK5   BANK6   BANK7   BANK8   BANK9  BANK10  BANK1
      +1  BANK12  BANK13  BANK14  BANK15  BANK16  BANK17  BANK18  BANK19  BANK20  BANK21  BANK22  BANK23  BANK24  BANK25
  5900 ;;      Params:         1       0       0       0       0       0       0       0       0       0       0       0       
      +0       0       0       0       0       0       0       0       0       0       0       0       0       0       0
  5901 ;;      Locals:         0       8       0       0       0       0       0       0       0       0       0       0       
      +0       0       0       0       0       0       0       0       0       0       0       0       0       0       0
  5902 ;;      Temps:          4       0       0       0       0       0       0       0       0       0       0       0       
      +0       0       0       0       0       0       0       0       0       0       0       0       0       0       0
  5903 ;;      Totals:         5       8       0       0       0       0       0       0       0       0       0       0       
      +0       0       0       0       0       0       0       0       0       0       0       0       0       0       0
  5904 ;;Total ram usage:       13 bytes
  5905 ;; Hardware stack levels used: 1
  5906 ;; Hardware stack levels required when called: 1
  5907 ;; This function calls:
  5908 ;;		_mem_set
  5909 ;; This function is called by:
  5910 ;;		_follow_path
  5911 ;; This function uses a non-reentrant model
  5912 ;;
  5913                           
  5914     0879                     _create_name:	
  5915                           ;psect for function _create_name
  5916                           
  5917                           
  5918                           ;incstack = 0
  5919                           ; Regs used in _create_name: [wreg-fsr1h+status,2+status,0+pclath+cstack]
  5920                           ;create_name@dj stored from wreg
  5921     0879  0020               	movlb	0	; select bank0
  5922     087A  00A0               	movwf	create_name@dj
  5923     087B                     l2825:
  5924                           
  5925                           ;pff.c: 652:  DIR *dj,;pff.c: 653:  const char **path;pff.c: 655: {;pff.c: 656:  BYTE c,
      +                           d, ni, si, i, *sfn;;pff.c: 657:  const char *p;;pff.c: 663:  sfn = dj->fn;
  5926     087B  0820               	movf	create_name@dj,w
  5927     087C  0086               	movwf	6
  5928     087D  0187               	clrf	7
  5929     087E  3F42               	moviw [2]fsr1
  5930     087F  00A5               	movwf	create_name@sfn
  5931     0880                     l2827:
  5932                           
  5933                           ;pff.c: 664:  mem_set(sfn, ' ', 11);
  5934     0880  3020               	movlw	32
  5935     0881  00F0               	movwf	mem_set@val
  5936     0882  3000               	movlw	0
  5937     0883  00F1               	movwf	mem_set@val+1
  5938     0884  300B               	movlw	11
  5939     0885  00F2               	movwf	mem_set@cnt
  5940     0886  3000               	movlw	0
  5941     0887  00F3               	movwf	mem_set@cnt+1
  5942     0888  0825               	movf	create_name@sfn,w
  5943     0889  3193  238A  3188   	fcall	_mem_set
  5944     088C                     l2829:
  5945                           
  5946                           ;pff.c: 665:  si = i = 0; ni = 8;
  5947     088C  0020               	movlb	0	; select bank0
  5948     088D  01A6               	clrf	create_name@i
  5949     088E  01A4               	clrf	create_name@si
  5950     088F                     l2831:
  5951     088F  3008               	movlw	8
  5952     0890  00A3               	movwf	create_name@ni
  5953     0891                     l2833:
  5954                           
  5955                           ;pff.c: 666:  p = *path;
  5956     0891  0877               	movf	create_name@path,w
  5957     0892  0086               	movwf	6
  5958     0893  0187               	clrf	7
  5959     0894  3F40               	moviw [0]fsr1
  5960     0895  00A1               	movwf	create_name@p
  5961     0896  3F41               	moviw [1]fsr1
  5962     0897  00A2               	movwf	create_name@p+1
  5963     0898                     l2835:
  5964                           
  5965                           ;pff.c: 668:   c = p[si++];
  5966     0898  0822               	movf	create_name@p+1,w
  5967     0899  00F9               	movwf	??_create_name+1
  5968     089A  0821               	movf	create_name@p,w
  5969     089B  00F8               	movwf	??_create_name
  5970     089C  0824               	movf	create_name@si,w
  5971     089D  0778               	addwf	??_create_name,w
  5972     089E  0084               	movwf	4
  5973     089F  0879               	movf	??_create_name+1,w
  5974     08A0  1803               	skipnc
  5975     08A1  0A79               	incf	??_create_name+1,w
  5976     08A2  0085               	movwf	5
  5977     08A3  0800               	movf	0,w	;code access
  5978     08A4  00A7               	movwf	create_name@c
  5979     08A5                     l2837:
  5980     08A5  3001               	movlw	1
  5981     08A6  00F8               	movwf	??_create_name
  5982     08A7  0878               	movf	??_create_name,w
  5983     08A8  07A4               	addwf	create_name@si,f
  5984     08A9                     l2839:
  5985                           
  5986                           ;pff.c: 669:   if (c <= ' ' || c == '/') break;
  5987     08A9  3021               	movlw	33
  5988     08AA  0227               	subwf	create_name@c,w
  5989     08AB  1C03               	skipc
  5990     08AC  28AE               	goto	u2681
  5991     08AD  28AF               	goto	u2680
  5992     08AE                     u2681:
  5993     08AE  28E2               	goto	l2877
  5994     08AF                     u2680:
  5995     08AF                     l2841:
  5996     08AF  302F               	movlw	47
  5997     08B0  0627               	xorwf	create_name@c,w
  5998     08B1  1D03               	btfss	3,2
  5999     08B2  28B4               	goto	u2691
  6000     08B3  28B5               	goto	u2690
  6001     08B4                     u2691:
  6002     08B4  28B6               	goto	l2843
  6003     08B5                     u2690:
  6004     08B5  28E2               	goto	l2877
  6005     08B6                     l2843:
  6006                           
  6007                           ;pff.c: 670:   if (c == '.' || i >= ni) {
  6008     08B6  302E               	movlw	46
  6009     08B7  0627               	xorwf	create_name@c,w
  6010     08B8  1903               	btfsc	3,2
  6011     08B9  28BB               	goto	u2701
  6012     08BA  28BC               	goto	u2700
  6013     08BB                     u2701:
  6014     08BB  28C2               	goto	l2847
  6015     08BC                     u2700:
  6016     08BC                     l2845:
  6017     08BC  0823               	movf	create_name@ni,w
  6018     08BD  0226               	subwf	create_name@i,w
  6019     08BE  1C03               	skipc
  6020     08BF  28C1               	goto	u2711
  6021     08C0  28C2               	goto	u2710
  6022     08C1                     u2711:
  6023     08C1  28D9               	goto	l2873
  6024     08C2                     u2710:
  6025     08C2                     l2847:
  6026                           
  6027                           ;pff.c: 671:    if (ni != 8 || c != '.') break;
  6028     08C2  3008               	movlw	8
  6029     08C3  0623               	xorwf	create_name@ni,w
  6030     08C4  1D03               	btfss	3,2
  6031     08C5  28C7               	goto	u2721
  6032     08C6  28C8               	goto	u2720
  6033     08C7                     u2721:
  6034     08C7  28E2               	goto	l2877
  6035     08C8                     u2720:
  6036     08C8                     l2849:
  6037     08C8  302E               	movlw	46
  6038     08C9  0627               	xorwf	create_name@c,w
  6039     08CA  1903               	btfsc	3,2
  6040     08CB  28CD               	goto	u2731
  6041     08CC  28CE               	goto	u2730
  6042     08CD                     u2731:
  6043     08CD  28CF               	goto	l2851
  6044     08CE                     u2730:
  6045     08CE  28E2               	goto	l2877
  6046     08CF                     l2851:
  6047                           
  6048                           ;pff.c: 672:    i = 8; ni = 11;
  6049     08CF  3008               	movlw	8
  6050     08D0  00A6               	movwf	create_name@i
  6051     08D1  300B               	movlw	11
  6052     08D2  00A3               	movwf	create_name@ni
  6053                           
  6054                           ;pff.c: 673:    continue;
  6055     08D3  2898               	goto	l2835
  6056     08D4                     l2865:
  6057     08D4  3001               	movlw	1
  6058     08D5  00F8               	movwf	??_create_name
  6059     08D6  0878               	movf	??_create_name,w
  6060     08D7  07A6               	addwf	create_name@i,f
  6061                           
  6062                           ;pff.c: 682:   } else {
  6063     08D8  2898               	goto	l2835
  6064     08D9                     l2873:
  6065                           
  6066                           ;pff.c: 684:    sfn[i++] = c;
  6067     08D9  0826               	movf	create_name@i,w
  6068     08DA  0725               	addwf	create_name@sfn,w
  6069     08DB  00F8               	movwf	??_create_name
  6070     08DC  0878               	movf	??_create_name,w
  6071     08DD  0086               	movwf	6
  6072     08DE  0187               	clrf	7
  6073     08DF  0827               	movf	create_name@c,w
  6074     08E0  0081               	movwf	1
  6075     08E1  28D4               	goto	l2865
  6076     08E2                     l2877:
  6077                           
  6078                           ;pff.c: 687:  *path = &p[si];
  6079     08E2  0824               	movf	create_name@si,w
  6080     08E3  00F8               	movwf	??_create_name
  6081     08E4  01F9               	clrf	??_create_name+1
  6082     08E5  0878               	movf	??_create_name,w
  6083     08E6  0721               	addwf	create_name@p,w
  6084     08E7  00FA               	movwf	??_create_name+2
  6085     08E8  0879               	movf	??_create_name+1,w
  6086     08E9  3D22               	addwfc	create_name@p+1,w
  6087     08EA  00FB               	movwf	??_create_name+3
  6088     08EB  0877               	movf	create_name@path,w
  6089     08EC  0086               	movwf	6
  6090     08ED  0187               	clrf	7
  6091     08EE  087A               	movf	??_create_name+2,w
  6092     08EF  3FC0               	movwi [0]fsr1
  6093     08F0  087B               	movf	??_create_name+3,w
  6094     08F1  3FC1               	movwi [1]fsr1
  6095                           
  6096                           ;pff.c: 689:  sfn[11] = (c <= ' ') ? 1 : 0;
  6097     08F2  0825               	movf	create_name@sfn,w
  6098     08F3  3E0B               	addlw	11
  6099     08F4  0086               	movwf	6
  6100     08F5  0187               	clrf	7
  6101     08F6  3021               	movlw	33
  6102     08F7  0227               	subwf	create_name@c,w
  6103     08F8  1C03               	skipc
  6104     08F9  28FB               	goto	u2741
  6105     08FA  28FD               	goto	u2740
  6106     08FB                     u2741:
  6107     08FB  3001               	movlw	1
  6108     08FC  28FE               	goto	u2750
  6109     08FD                     u2740:
  6110     08FD  3000               	movlw	0
  6111     08FE                     u2750:
  6112     08FE  0081               	movwf	1
  6113     08FF                     l2879:
  6114                           
  6115                           ;pff.c: 691:  return FR_OK;
  6116     08FF  3000               	movlw	0
  6117     0900                     l247:
  6118     0900  0008               	return
  6119     0901                     __end_of_create_name:
  6120                           
  6121                           	psect	text13
  6122     138A                     __ptext13:	
  6123 ;; *************** function _mem_set *****************
  6124 ;; Defined at:
  6125 ;;		line 411 in file "pff.c"
  6126 ;; Parameters:    Size  Location     Type
  6127 ;;  dst             1    wreg     PTR void 
  6128 ;;		 -> pf_open@sp(12), 
  6129 ;;  val             2    0[COMMON] int 
  6130 ;;  cnt             2    2[COMMON] int 
  6131 ;; Auto vars:     Size  Location     Type
  6132 ;;  dst             1    5[COMMON] PTR void 
  6133 ;;		 -> pf_open@sp(12), 
  6134 ;;  d               1    6[COMMON] PTR unsigned char 
  6135 ;;		 -> pf_open@sp(12), 
  6136 ;; Return value:  Size  Location     Type
  6137 ;;                  1    wreg      void 
  6138 ;; Registers used:
  6139 ;;		wreg, fsr1l, fsr1h, status,2, status,0
  6140 ;; Tracked objects:
  6141 ;;		On entry : 0/0
  6142 ;;		On exit  : 0/0
  6143 ;;		Unchanged: 0/0
  6144 ;; Data sizes:     COMMON   BANK0   BANK1   BANK2   BANK3   BANK4   BANK5   BANK6   BANK7   BANK8   BANK9  BANK10  BANK1
      +1  BANK12  BANK13  BANK14  BANK15  BANK16  BANK17  BANK18  BANK19  BANK20  BANK21  BANK22  BANK23  BANK24  BANK25
  6145 ;;      Params:         4       0       0       0       0       0       0       0       0       0       0       0       
      +0       0       0       0       0       0       0       0       0       0       0       0       0       0       0
  6146 ;;      Locals:         2       0       0       0       0       0       0       0       0       0       0       0       
      +0       0       0       0       0       0       0       0       0       0       0       0       0       0       0
  6147 ;;      Temps:          1       0       0       0       0       0       0       0       0       0       0       0       
      +0       0       0       0       0       0       0       0       0       0       0       0       0       0       0
  6148 ;;      Totals:         7       0       0       0       0       0       0       0       0       0       0       0       
      +0       0       0       0       0       0       0       0       0       0       0       0       0       0       0
  6149 ;;Total ram usage:        7 bytes
  6150 ;; Hardware stack levels used: 1
  6151 ;; This function calls:
  6152 ;;		Nothing
  6153 ;; This function is called by:
  6154 ;;		_create_name
  6155 ;; This function uses a non-reentrant model
  6156 ;;
  6157                           
  6158     138A                     _mem_set:	
  6159                           ;psect for function _mem_set
  6160                           
  6161                           
  6162                           ;incstack = 0
  6163                           ; Regs used in _mem_set: [wreg+fsr1l+fsr1h+status,2+status,0]
  6164                           ;mem_set@dst stored from wreg
  6165     138A  00F5               	movwf	mem_set@dst
  6166     138B                     l2677:
  6167                           
  6168                           ;pff.c: 412:  char *d = (char*)dst;
  6169     138B  0875               	movf	mem_set@dst,w
  6170     138C  00F6               	movwf	mem_set@d
  6171                           
  6172                           ;pff.c: 413:  while (cnt--) *d++ = (char)val;
  6173     138D  2B97               	goto	l2683
  6174     138E                     l2679:
  6175     138E  0876               	movf	mem_set@d,w
  6176     138F  0086               	movwf	6
  6177     1390  0187               	clrf	7
  6178     1391  0870               	movf	mem_set@val,w
  6179     1392  0081               	movwf	1
  6180     1393                     l2681:
  6181     1393  3001               	movlw	1
  6182     1394  00F4               	movwf	??_mem_set
  6183     1395  0874               	movf	??_mem_set,w
  6184     1396  07F6               	addwf	mem_set@d,f
  6185     1397                     l2683:
  6186     1397  30FF               	movlw	255
  6187     1398  07F2               	addwf	mem_set@cnt,f
  6188     1399  30FF               	movlw	255
  6189     139A  3DF3               	addwfc	mem_set@cnt+1,f
  6190     139B  0A72               	incf	mem_set@cnt,w
  6191     139C  1D03               	skipz
  6192     139D  2BA2               	goto	u2431
  6193     139E  0A73               	incf	mem_set@cnt+1,w
  6194     139F  1D03               	btfss	3,2
  6195     13A0  2BA2               	goto	u2431
  6196     13A1  2BA3               	goto	u2430
  6197     13A2                     u2431:
  6198     13A2  2B8E               	goto	l2679
  6199     13A3                     u2430:
  6200     13A3                     l166:
  6201     13A3  0008               	return
  6202     13A4                     __end_of_mem_set:
  6203                           
  6204                           	psect	text14
  6205     052B                     __ptext14:	
  6206 ;; *************** function _pf_lseek *****************
  6207 ;; Defined at:
  6208 ;;		line 1055 in file "pff.c"
  6209 ;; Parameters:    Size  Location     Type
  6210 ;;  ofs             4   46[BANK0 ] unsigned long 
  6211 ;; Auto vars:     Size  Location     Type
  6212 ;;  clst            4   12[BANK1 ] unsigned long 
  6213 ;;  bcs             4    8[BANK1 ] unsigned long 
  6214 ;;  ifptr           4    4[BANK1 ] unsigned long 
  6215 ;;  sect            4    0[BANK1 ] unsigned long 
  6216 ;;  fs              1   16[BANK1 ] PTR struct .
  6217 ;;		 -> fs(42), NULL(0), 
  6218 ;; Return value:  Size  Location     Type
  6219 ;;                  1    wreg      enum E71
  6220 ;; Registers used:
  6221 ;;		wreg, fsr0l, fsr0h, fsr1l, fsr1h, status,2, status,0, pclath, cstack
  6222 ;; Tracked objects:
  6223 ;;		On entry : 0/0
  6224 ;;		On exit  : 0/0
  6225 ;;		Unchanged: 0/0
  6226 ;; Data sizes:     COMMON   BANK0   BANK1   BANK2   BANK3   BANK4   BANK5   BANK6   BANK7   BANK8   BANK9  BANK10  BANK1
      +1  BANK12  BANK13  BANK14  BANK15  BANK16  BANK17  BANK18  BANK19  BANK20  BANK21  BANK22  BANK23  BANK24  BANK25
  6227 ;;      Params:         0       4       0       0       0       0       0       0       0       0       0       0       
      +0       0       0       0       0       0       0       0       0       0       0       0       0       0       0
  6228 ;;      Locals:         0       0      17       0       0       0       0       0       0       0       0       0       
      +0       0       0       0       0       0       0       0       0       0       0       0       0       0       0
  6229 ;;      Temps:          0      14       0       0       0       0       0       0       0       0       0       0       
      +0       0       0       0       0       0       0       0       0       0       0       0       0       0       0
  6230 ;;      Totals:         0      18      17       0       0       0       0       0       0       0       0       0       
      +0       0       0       0       0       0       0       0       0       0       0       0       0       0       0
  6231 ;;Total ram usage:       35 bytes
  6232 ;; Hardware stack levels used: 1
  6233 ;; Hardware stack levels required when called: 7
  6234 ;; This function calls:
  6235 ;;		___lldiv
  6236 ;;		_clust2sect
  6237 ;;		_get_fat
  6238 ;; This function is called by:
  6239 ;;		_write_test
  6240 ;; This function uses a non-reentrant model
  6241 ;;
  6242                           
  6243     052B                     _pf_lseek:	
  6244                           ;psect for function _pf_lseek
  6245                           
  6246     052B                     l3393:	
  6247                           ;incstack = 0
  6248                           ; Regs used in _pf_lseek: [wreg-fsr1h+status,2+status,0+pclath+cstack]
  6249                           
  6250                           
  6251                           ;pff.c: 1056:  DWORD ofs;pff.c: 1058: {;pff.c: 1059:  DWORD clst;;pff.c: 1060:  DWORD bc
      +                          s, sect, ifptr;;pff.c: 1061:  FATFS *fs = FatFs;
  6252     052B  0020               	movlb	0	; select bank0
  6253     052C  086F               	movf	_FatFs,w
  6254     052D  0021               	movlb	1	; select bank1
  6255     052E  00B0               	movwf	pf_lseek@fs^(0+128)
  6256     052F                     l3395:
  6257                           
  6258                           ;pff.c: 1064:  if (!fs) return FR_NOT_ENABLED;
  6259     052F  0830               	movf	pf_lseek@fs^(0+128),w
  6260     0530  1D03               	btfss	3,2
  6261     0531  2D33               	goto	u3601
  6262     0532  2D34               	goto	u3600
  6263     0533                     u3601:
  6264     0533  2D36               	goto	l3401
  6265     0534                     u3600:
  6266     0534                     l3397:
  6267     0534  3005               	movlw	5
  6268     0535  2FEE               	goto	l344
  6269     0536                     l3401:
  6270                           
  6271                           ;pff.c: 1065:  if (!(fs->flag & 0x01)) return FR_NOT_OPENED;
  6272     0536  0A30               	incf	pf_lseek@fs^(0+128),w
  6273     0537  0086               	movwf	6
  6274     0538  3001               	movlw	1	; select bank2/3
  6275     0539  0087               	movwf	7
  6276     053A  1801               	btfsc	1,0
  6277     053B  2D3D               	goto	u3611
  6278     053C  2D3E               	goto	u3610
  6279     053D                     u3611:
  6280     053D  2D40               	goto	l3407
  6281     053E                     u3610:
  6282     053E                     l3403:
  6283     053E  3004               	movlw	4
  6284     053F  2FEE               	goto	l344
  6285     0540                     l3407:
  6286                           
  6287                           ;pff.c: 1067:  if (ofs > fs->fsize) ofs = fs->fsize;
  6288     0540  0830               	movf	pf_lseek@fs^(0+128),w
  6289     0541  3E1A               	addlw	26
  6290     0542  0086               	movwf	6
  6291     0543  3001               	movlw	1	; select bank2/3
  6292     0544  0087               	movwf	7
  6293     0545  3F40               	moviw [0]fsr1
  6294     0546  0020               	movlb	0	; select bank0
  6295     0547  00D2               	movwf	??_pf_lseek
  6296     0548  3F41               	moviw [1]fsr1
  6297     0549  00D3               	movwf	??_pf_lseek+1
  6298     054A  3F42               	moviw [2]fsr1
  6299     054B  00D4               	movwf	??_pf_lseek+2
  6300     054C  3F43               	moviw [3]fsr1
  6301     054D  00D5               	movwf	??_pf_lseek+3
  6302     054E  0851               	movf	pf_lseek@ofs+3,w
  6303     054F  0255               	subwf	??_pf_lseek+3,w
  6304     0550  1D03               	skipz
  6305     0551  2D5C               	goto	u3625
  6306     0552  0850               	movf	pf_lseek@ofs+2,w
  6307     0553  0254               	subwf	??_pf_lseek+2,w
  6308     0554  1D03               	skipz
  6309     0555  2D5C               	goto	u3625
  6310     0556  084F               	movf	pf_lseek@ofs+1,w
  6311     0557  0253               	subwf	??_pf_lseek+1,w
  6312     0558  1D03               	skipz
  6313     0559  2D5C               	goto	u3625
  6314     055A  084E               	movf	pf_lseek@ofs,w
  6315     055B  0252               	subwf	??_pf_lseek,w
  6316     055C                     u3625:
  6317     055C  1803               	skipnc
  6318     055D  2D5F               	goto	u3621
  6319     055E  2D60               	goto	u3620
  6320     055F                     u3621:
  6321     055F  2D6F               	goto	l346
  6322     0560                     u3620:
  6323     0560                     l3409:
  6324     0560  0021               	movlb	1	; select bank1
  6325     0561  0830               	movf	pf_lseek@fs^(0+128),w
  6326     0562  3E1A               	addlw	26
  6327     0563  0086               	movwf	6
  6328     0564  3001               	movlw	1	; select bank2/3
  6329     0565  0087               	movwf	7
  6330     0566  3F40               	moviw [0]fsr1
  6331     0567  0020               	movlb	0	; select bank0
  6332     0568  00CE               	movwf	pf_lseek@ofs
  6333     0569  3F41               	moviw [1]fsr1
  6334     056A  00CF               	movwf	pf_lseek@ofs+1
  6335     056B  3F42               	moviw [2]fsr1
  6336     056C  00D0               	movwf	pf_lseek@ofs+2
  6337     056D  3F43               	moviw [3]fsr1
  6338     056E  00D1               	movwf	pf_lseek@ofs+3
  6339     056F                     l346:
  6340                           
  6341                           ;pff.c: 1068:  ifptr = fs->fptr;
  6342     056F  0021               	movlb	1	; select bank1
  6343     0570  0830               	movf	pf_lseek@fs^(0+128),w
  6344     0571  3E16               	addlw	22
  6345     0572  0086               	movwf	6
  6346     0573  3001               	movlw	1	; select bank2/3
  6347     0574  0087               	movwf	7
  6348     0575  3F40               	moviw [0]fsr1
  6349     0576  00A4               	movwf	pf_lseek@ifptr^(0+128)
  6350     0577  3F41               	moviw [1]fsr1
  6351     0578  00A5               	movwf	(pf_lseek@ifptr+1)^(0+128)
  6352     0579  3F42               	moviw [2]fsr1
  6353     057A  00A6               	movwf	(pf_lseek@ifptr+2)^(0+128)
  6354     057B  3F43               	moviw [3]fsr1
  6355     057C  00A7               	movwf	(pf_lseek@ifptr+3)^(0+128)
  6356                           
  6357                           ;pff.c: 1069:  fs->fptr = 0;
  6358     057D  0830               	movf	pf_lseek@fs^(0+128),w
  6359     057E  3E16               	addlw	22
  6360     057F  0086               	movwf	6
  6361     0580  3001               	movlw	1	; select bank2/3
  6362     0581  0087               	movwf	7
  6363     0582  3000               	movlw	0
  6364     0583  3FC0               	movwi [0]fsr1
  6365     0584  3000               	movlw	0
  6366     0585  3FC1               	movwi [1]fsr1
  6367     0586  3FC2               	movwi [2]fsr1
  6368     0587  3FC3               	movwi [3]fsr1
  6369     0588                     l3411:
  6370                           
  6371                           ;pff.c: 1070:  if (ofs > 0) {
  6372     0588  0020               	movlb	0	; select bank0
  6373     0589  0851               	movf	pf_lseek@ofs+3,w
  6374     058A  0450               	iorwf	pf_lseek@ofs+2,w
  6375     058B  044F               	iorwf	pf_lseek@ofs+1,w
  6376     058C  044E               	iorwf	pf_lseek@ofs,w
  6377     058D  1903               	skipnz
  6378     058E  2D90               	goto	u3631
  6379     058F  2D91               	goto	u3630
  6380     0590                     u3631:
  6381     0590  2FED               	goto	l3455
  6382     0591                     u3630:
  6383     0591                     l3413:
  6384                           
  6385                           ;pff.c: 1071:   bcs = (DWORD)fs->csize * 512;
  6386     0591  0021               	movlb	1	; select bank1
  6387     0592  0830               	movf	pf_lseek@fs^(0+128),w
  6388     0593  3E02               	addlw	2
  6389     0594  0086               	movwf	6
  6390     0595  3001               	movlw	1	; select bank2/3
  6391     0596  0087               	movwf	7
  6392     0597  0801               	movf	1,w
  6393     0598  0020               	movlb	0	; select bank0
  6394     0599  00D2               	movwf	??_pf_lseek
  6395     059A  01D3               	clrf	??_pf_lseek+1
  6396     059B  01D4               	clrf	??_pf_lseek+2
  6397     059C  01D5               	clrf	??_pf_lseek+3
  6398     059D  3009               	movlw	9
  6399     059E                     u3645:
  6400     059E  35D2               	lslf	??_pf_lseek,f
  6401     059F  0DD3               	rlf	??_pf_lseek+1,f
  6402     05A0  0DD4               	rlf	??_pf_lseek+2,f
  6403     05A1  0DD5               	rlf	??_pf_lseek+3,f
  6404     05A2                     u3640:
  6405     05A2  0B89               	decfsz	9,f
  6406     05A3  2D9E               	goto	u3645
  6407     05A4  0855               	movf	??_pf_lseek+3,w
  6408     05A5  0021               	movlb	1	; select bank1
  6409     05A6  00AB               	movwf	(pf_lseek@bcs+3)^(0+128)
  6410     05A7  0020               	movlb	0	; select bank0
  6411     05A8  0854               	movf	??_pf_lseek+2,w
  6412     05A9  0021               	movlb	1	; select bank1
  6413     05AA  00AA               	movwf	(pf_lseek@bcs+2)^(0+128)
  6414     05AB  0020               	movlb	0	; select bank0
  6415     05AC  0853               	movf	??_pf_lseek+1,w
  6416     05AD  0021               	movlb	1	; select bank1
  6417     05AE  00A9               	movwf	(pf_lseek@bcs+1)^(0+128)
  6418     05AF  0020               	movlb	0	; select bank0
  6419     05B0  0852               	movf	??_pf_lseek,w
  6420     05B1  0021               	movlb	1	; select bank1
  6421     05B2  00A8               	movwf	pf_lseek@bcs^(0+128)
  6422     05B3                     l3415:
  6423                           
  6424                           ;pff.c: 1072:   if (ifptr > 0 &&
  6425     05B3  0827               	movf	(pf_lseek@ifptr+3)^(0+128),w
  6426     05B4  0426               	iorwf	(pf_lseek@ifptr+2)^(0+128),w
  6427     05B5  0425               	iorwf	(pf_lseek@ifptr+1)^(0+128),w
  6428     05B6  0424               	iorwf	pf_lseek@ifptr^(0+128),w
  6429     05B7  1903               	skipnz
  6430     05B8  2DBA               	goto	u3651
  6431     05B9  2DBB               	goto	u3650
  6432     05BA                     u3651:
  6433     05BA  2E8D               	goto	l3421
  6434     05BB                     u3650:
  6435     05BB                     l3417:
  6436     05BB  082B               	movf	(pf_lseek@bcs+3)^(0+128),w
  6437     05BC  0020               	movlb	0	; select bank0
  6438     05BD  00A3               	movwf	___lldiv@divisor+3
  6439     05BE  0021               	movlb	1	; select bank1
  6440     05BF  082A               	movf	(pf_lseek@bcs+2)^(0+128),w
  6441     05C0  0020               	movlb	0	; select bank0
  6442     05C1  00A2               	movwf	___lldiv@divisor+2
  6443     05C2  0021               	movlb	1	; select bank1
  6444     05C3  0829               	movf	(pf_lseek@bcs+1)^(0+128),w
  6445     05C4  0020               	movlb	0	; select bank0
  6446     05C5  00A1               	movwf	___lldiv@divisor+1
  6447     05C6  0021               	movlb	1	; select bank1
  6448     05C7  0828               	movf	pf_lseek@bcs^(0+128),w
  6449     05C8  0020               	movlb	0	; select bank0
  6450     05C9  00A0               	movwf	___lldiv@divisor
  6451     05CA  30FF               	movlw	255
  6452     05CB  074E               	addwf	pf_lseek@ofs,w
  6453     05CC  00A4               	movwf	___lldiv@dividend
  6454     05CD  30FF               	movlw	255
  6455     05CE  3D4F               	addwfc	pf_lseek@ofs+1,w
  6456     05CF  00A5               	movwf	___lldiv@dividend+1
  6457     05D0  30FF               	movlw	255
  6458     05D1  3D50               	addwfc	pf_lseek@ofs+2,w
  6459     05D2  00A6               	movwf	___lldiv@dividend+2
  6460     05D3  30FF               	movlw	255
  6461     05D4  3D51               	addwfc	pf_lseek@ofs+3,w
  6462     05D5  00A7               	movwf	___lldiv@dividend+3
  6463     05D6  3195  25BB  3185   	fcall	___lldiv
  6464     05D9  0020               	movlb	0	; select bank0
  6465     05DA  0820               	movf	?___lldiv,w
  6466     05DB  00D2               	movwf	??_pf_lseek
  6467     05DC  0821               	movf	?___lldiv+1,w
  6468     05DD  00D3               	movwf	??_pf_lseek+1
  6469     05DE  0822               	movf	?___lldiv+2,w
  6470     05DF  00D4               	movwf	??_pf_lseek+2
  6471     05E0  0823               	movf	?___lldiv+3,w
  6472     05E1  00D5               	movwf	??_pf_lseek+3
  6473     05E2  0021               	movlb	1	; select bank1
  6474     05E3  082B               	movf	(pf_lseek@bcs+3)^(0+128),w
  6475     05E4  0020               	movlb	0	; select bank0
  6476     05E5  00A3               	movwf	___lldiv@divisor+3
  6477     05E6  0021               	movlb	1	; select bank1
  6478     05E7  082A               	movf	(pf_lseek@bcs+2)^(0+128),w
  6479     05E8  0020               	movlb	0	; select bank0
  6480     05E9  00A2               	movwf	___lldiv@divisor+2
  6481     05EA  0021               	movlb	1	; select bank1
  6482     05EB  0829               	movf	(pf_lseek@bcs+1)^(0+128),w
  6483     05EC  0020               	movlb	0	; select bank0
  6484     05ED  00A1               	movwf	___lldiv@divisor+1
  6485     05EE  0021               	movlb	1	; select bank1
  6486     05EF  0828               	movf	pf_lseek@bcs^(0+128),w
  6487     05F0  0020               	movlb	0	; select bank0
  6488     05F1  00A0               	movwf	___lldiv@divisor
  6489     05F2  30FF               	movlw	255
  6490     05F3  0021               	movlb	1	; select bank1
  6491     05F4  0724               	addwf	pf_lseek@ifptr^(0+128),w
  6492     05F5  0020               	movlb	0	; select bank0
  6493     05F6  00A4               	movwf	___lldiv@dividend
  6494     05F7  30FF               	movlw	255
  6495     05F8  0021               	movlb	1	; select bank1
  6496     05F9  3D25               	addwfc	(pf_lseek@ifptr+1)^(0+128),w
  6497     05FA  0020               	movlb	0	; select bank0
  6498     05FB  00A5               	movwf	___lldiv@dividend+1
  6499     05FC  30FF               	movlw	255
  6500     05FD  0021               	movlb	1	; select bank1
  6501     05FE  3D26               	addwfc	(pf_lseek@ifptr+2)^(0+128),w
  6502     05FF  0020               	movlb	0	; select bank0
  6503     0600  00A6               	movwf	___lldiv@dividend+2
  6504     0601  30FF               	movlw	255
  6505     0602  0021               	movlb	1	; select bank1
  6506     0603  3D27               	addwfc	(pf_lseek@ifptr+3)^(0+128),w
  6507     0604  0020               	movlb	0	; select bank0
  6508     0605  00A7               	movwf	___lldiv@dividend+3
  6509     0606  3195  25BB  3185   	fcall	___lldiv
  6510     0609  0020               	movlb	0	; select bank0
  6511     060A  0823               	movf	?___lldiv+3,w
  6512     060B  0255               	subwf	??_pf_lseek+3,w
  6513     060C  1D03               	skipz
  6514     060D  2E18               	goto	u3665
  6515     060E  0822               	movf	?___lldiv+2,w
  6516     060F  0254               	subwf	??_pf_lseek+2,w
  6517     0610  1D03               	skipz
  6518     0611  2E18               	goto	u3665
  6519     0612  0821               	movf	?___lldiv+1,w
  6520     0613  0253               	subwf	??_pf_lseek+1,w
  6521     0614  1D03               	skipz
  6522     0615  2E18               	goto	u3665
  6523     0616  0820               	movf	?___lldiv,w
  6524     0617  0252               	subwf	??_pf_lseek,w
  6525     0618                     u3665:
  6526     0618  1C03               	skipc
  6527     0619  2E1B               	goto	u3661
  6528     061A  2E1C               	goto	u3660
  6529     061B                     u3661:
  6530     061B  2E8D               	goto	l3421
  6531     061C                     u3660:
  6532     061C                     l3419:
  6533                           
  6534                           ;pff.c: 1073:    (ofs - 1) / bcs >= (ifptr - 1) / bcs) {;pff.c: 1074:    fs->fptr = (ifp
      +                          tr - 1) & ~(bcs - 1);
  6535     061C  30FF               	movlw	255
  6536     061D  00D2               	movwf	??_pf_lseek
  6537     061E  30FF               	movlw	255
  6538     061F  00D3               	movwf	??_pf_lseek+1
  6539     0620  30FF               	movlw	255
  6540     0621  00D4               	movwf	??_pf_lseek+2
  6541     0622  30FF               	movlw	255
  6542     0623  00D5               	movwf	??_pf_lseek+3
  6543     0624  0021               	movlb	1	; select bank1
  6544     0625  0828               	movf	pf_lseek@bcs^(0+128),w
  6545     0626  0020               	movlb	0	; select bank0
  6546     0627  07D2               	addwf	??_pf_lseek,f
  6547     0628  0021               	movlb	1	; select bank1
  6548     0629  0829               	movf	(pf_lseek@bcs+1)^(0+128),w
  6549     062A  0020               	movlb	0	; select bank0
  6550     062B  3DD3               	addwfc	??_pf_lseek+1,f
  6551     062C  0021               	movlb	1	; select bank1
  6552     062D  082A               	movf	(pf_lseek@bcs+2)^(0+128),w
  6553     062E  0020               	movlb	0	; select bank0
  6554     062F  3DD4               	addwfc	??_pf_lseek+2,f
  6555     0630  0021               	movlb	1	; select bank1
  6556     0631  082B               	movf	(pf_lseek@bcs+3)^(0+128),w
  6557     0632  0020               	movlb	0	; select bank0
  6558     0633  3DD5               	addwfc	??_pf_lseek+3,f
  6559     0634  09D2               	comf	??_pf_lseek,f
  6560     0635  09D3               	comf	??_pf_lseek+1,f
  6561     0636  09D4               	comf	??_pf_lseek+2,f
  6562     0637  09D5               	comf	??_pf_lseek+3,f
  6563     0638  30FF               	movlw	255
  6564     0639  00D6               	movwf	??_pf_lseek+4
  6565     063A  30FF               	movlw	255
  6566     063B  00D7               	movwf	??_pf_lseek+5
  6567     063C  30FF               	movlw	255
  6568     063D  00D8               	movwf	??_pf_lseek+6
  6569     063E  30FF               	movlw	255
  6570     063F  00D9               	movwf	??_pf_lseek+7
  6571     0640  0021               	movlb	1	; select bank1
  6572     0641  0824               	movf	pf_lseek@ifptr^(0+128),w
  6573     0642  0020               	movlb	0	; select bank0
  6574     0643  07D6               	addwf	??_pf_lseek+4,f
  6575     0644  0021               	movlb	1	; select bank1
  6576     0645  0825               	movf	(pf_lseek@ifptr+1)^(0+128),w
  6577     0646  0020               	movlb	0	; select bank0
  6578     0647  3DD7               	addwfc	??_pf_lseek+5,f
  6579     0648  0021               	movlb	1	; select bank1
  6580     0649  0826               	movf	(pf_lseek@ifptr+2)^(0+128),w
  6581     064A  0020               	movlb	0	; select bank0
  6582     064B  3DD8               	addwfc	??_pf_lseek+6,f
  6583     064C  0021               	movlb	1	; select bank1
  6584     064D  0827               	movf	(pf_lseek@ifptr+3)^(0+128),w
  6585     064E  0020               	movlb	0	; select bank0
  6586     064F  3DD9               	addwfc	??_pf_lseek+7,f
  6587     0650  0856               	movf	??_pf_lseek+4,w
  6588     0651  05D2               	andwf	??_pf_lseek,f
  6589     0652  0857               	movf	??_pf_lseek+5,w
  6590     0653  05D3               	andwf	??_pf_lseek+1,f
  6591     0654  0858               	movf	??_pf_lseek+6,w
  6592     0655  05D4               	andwf	??_pf_lseek+2,f
  6593     0656  0859               	movf	??_pf_lseek+7,w
  6594     0657  05D5               	andwf	??_pf_lseek+3,f
  6595     0658  0021               	movlb	1	; select bank1
  6596     0659  0830               	movf	pf_lseek@fs^(0+128),w
  6597     065A  3E16               	addlw	22
  6598     065B  0086               	movwf	6
  6599     065C  3001               	movlw	1	; select bank2/3
  6600     065D  0087               	movwf	7
  6601     065E  0020               	movlb	0	; select bank0
  6602     065F  0852               	movf	??_pf_lseek,w
  6603     0660  3FC0               	movwi [0]fsr1
  6604     0661  0853               	movf	??_pf_lseek+1,w
  6605     0662  3FC1               	movwi [1]fsr1
  6606     0663  0854               	movf	??_pf_lseek+2,w
  6607     0664  3FC2               	movwi [2]fsr1
  6608     0665  0855               	movf	??_pf_lseek+3,w
  6609     0666  3FC3               	movwi [3]fsr1
  6610                           
  6611                           ;pff.c: 1075:    ofs -= fs->fptr;
  6612     0667  0021               	movlb	1	; select bank1
  6613     0668  0830               	movf	pf_lseek@fs^(0+128),w
  6614     0669  3E16               	addlw	22
  6615     066A  0086               	movwf	6
  6616     066B  3001               	movlw	1	; select bank2/3
  6617     066C  0087               	movwf	7
  6618     066D  3F40               	moviw [0]fsr1
  6619     066E  0020               	movlb	0	; select bank0
  6620     066F  00D2               	movwf	??_pf_lseek
  6621     0670  3F41               	moviw [1]fsr1
  6622     0671  00D3               	movwf	??_pf_lseek+1
  6623     0672  3F42               	moviw [2]fsr1
  6624     0673  00D4               	movwf	??_pf_lseek+2
  6625     0674  3F43               	moviw [3]fsr1
  6626     0675  00D5               	movwf	??_pf_lseek+3
  6627     0676  0852               	movf	??_pf_lseek,w
  6628     0677  02CE               	subwf	pf_lseek@ofs,f
  6629     0678  0853               	movf	??_pf_lseek+1,w
  6630     0679  3BCF               	subwfb	pf_lseek@ofs+1,f
  6631     067A  0854               	movf	??_pf_lseek+2,w
  6632     067B  3BD0               	subwfb	pf_lseek@ofs+2,f
  6633     067C  0855               	movf	??_pf_lseek+3,w
  6634     067D  3BD1               	subwfb	pf_lseek@ofs+3,f
  6635                           
  6636                           ;pff.c: 1076:    clst = fs->curr_clust;
  6637     067E  0021               	movlb	1	; select bank1
  6638     067F  0830               	movf	pf_lseek@fs^(0+128),w
  6639     0680  3E22               	addlw	34
  6640     0681  0086               	movwf	6
  6641     0682  3001               	movlw	1	; select bank2/3
  6642     0683  0087               	movwf	7
  6643     0684  3F40               	moviw [0]fsr1
  6644     0685  00AC               	movwf	pf_lseek@clst^(0+128)
  6645     0686  3F41               	moviw [1]fsr1
  6646     0687  00AD               	movwf	(pf_lseek@clst+1)^(0+128)
  6647     0688  3F42               	moviw [2]fsr1
  6648     0689  00AE               	movwf	(pf_lseek@clst+2)^(0+128)
  6649     068A  3F43               	moviw [3]fsr1
  6650     068B  00AF               	movwf	(pf_lseek@clst+3)^(0+128)
  6651                           
  6652                           ;pff.c: 1077:   } else {
  6653     068C  2F36               	goto	l3439
  6654     068D                     l3421:
  6655                           
  6656                           ;pff.c: 1078:    clst = fs->org_clust;
  6657     068D  0021               	movlb	1	; select bank1
  6658     068E  0830               	movf	pf_lseek@fs^(0+128),w
  6659     068F  3E1E               	addlw	30
  6660     0690  0086               	movwf	6
  6661     0691  3001               	movlw	1	; select bank2/3
  6662     0692  0087               	movwf	7
  6663     0693  3F40               	moviw [0]fsr1
  6664     0694  00AC               	movwf	pf_lseek@clst^(0+128)
  6665     0695  3F41               	moviw [1]fsr1
  6666     0696  00AD               	movwf	(pf_lseek@clst+1)^(0+128)
  6667     0697  3F42               	moviw [2]fsr1
  6668     0698  00AE               	movwf	(pf_lseek@clst+2)^(0+128)
  6669     0699  3F43               	moviw [3]fsr1
  6670     069A  00AF               	movwf	(pf_lseek@clst+3)^(0+128)
  6671                           
  6672                           ;pff.c: 1079:    fs->curr_clust = clst;
  6673     069B  0830               	movf	pf_lseek@fs^(0+128),w
  6674     069C  3E22               	addlw	34
  6675     069D  0086               	movwf	6
  6676     069E  3001               	movlw	1	; select bank2/3
  6677     069F  0087               	movwf	7
  6678     06A0  082C               	movf	pf_lseek@clst^(0+128),w
  6679     06A1  3FC0               	movwi [0]fsr1
  6680     06A2  082D               	movf	(pf_lseek@clst+1)^(0+128),w
  6681     06A3  3FC1               	movwi [1]fsr1
  6682     06A4  082E               	movf	(pf_lseek@clst+2)^(0+128),w
  6683     06A5  3FC2               	movwi [2]fsr1
  6684     06A6  082F               	movf	(pf_lseek@clst+3)^(0+128),w
  6685     06A7  3FC3               	movwi [3]fsr1
  6686     06A8  2F36               	goto	l3439
  6687     06A9                     l3423:
  6688                           
  6689                           ;pff.c: 1082:    clst = get_fat(clst);
  6690     06A9  082F               	movf	(pf_lseek@clst+3)^(0+128),w
  6691     06AA  0020               	movlb	0	; select bank0
  6692     06AB  00BE               	movwf	get_fat@clst+3
  6693     06AC  0021               	movlb	1	; select bank1
  6694     06AD  082E               	movf	(pf_lseek@clst+2)^(0+128),w
  6695     06AE  0020               	movlb	0	; select bank0
  6696     06AF  00BD               	movwf	get_fat@clst+2
  6697     06B0  0021               	movlb	1	; select bank1
  6698     06B1  082D               	movf	(pf_lseek@clst+1)^(0+128),w
  6699     06B2  0020               	movlb	0	; select bank0
  6700     06B3  00BC               	movwf	get_fat@clst+1
  6701     06B4  0021               	movlb	1	; select bank1
  6702     06B5  082C               	movf	pf_lseek@clst^(0+128),w
  6703     06B6  0020               	movlb	0	; select bank0
  6704     06B7  00BB               	movwf	get_fat@clst
  6705     06B8  318A  22AC  3185   	fcall	_get_fat
  6706     06BB  0020               	movlb	0	; select bank0
  6707     06BC  083E               	movf	?_get_fat+3,w
  6708     06BD  0021               	movlb	1	; select bank1
  6709     06BE  00AF               	movwf	(pf_lseek@clst+3)^(0+128)
  6710     06BF  0020               	movlb	0	; select bank0
  6711     06C0  083D               	movf	?_get_fat+2,w
  6712     06C1  0021               	movlb	1	; select bank1
  6713     06C2  00AE               	movwf	(pf_lseek@clst+2)^(0+128)
  6714     06C3  0020               	movlb	0	; select bank0
  6715     06C4  083C               	movf	?_get_fat+1,w
  6716     06C5  0021               	movlb	1	; select bank1
  6717     06C6  00AD               	movwf	(pf_lseek@clst+1)^(0+128)
  6718     06C7  0020               	movlb	0	; select bank0
  6719     06C8  083B               	movf	?_get_fat,w
  6720     06C9  0021               	movlb	1	; select bank1
  6721     06CA  00AC               	movwf	pf_lseek@clst^(0+128)
  6722     06CB                     l3425:
  6723                           
  6724                           ;pff.c: 1083:    if (clst <= 1 || clst >= fs->n_fatent) {fs->flag = 0; return FR_DISK_ER
      +                          R;};
  6725     06CB  082F               	movf	(pf_lseek@clst+3)^(0+128),w
  6726     06CC  1D03               	btfss	3,2
  6727     06CD  2EDA               	goto	u3670
  6728     06CE  082E               	movf	(pf_lseek@clst+2)^(0+128),w
  6729     06CF  1D03               	btfss	3,2
  6730     06D0  2EDA               	goto	u3670
  6731     06D1  082D               	movf	(pf_lseek@clst+1)^(0+128),w
  6732     06D2  1D03               	btfss	3,2
  6733     06D3  2EDA               	goto	u3670
  6734     06D4  3002               	movlw	2
  6735     06D5  022C               	subwf	pf_lseek@clst^(0+128),w
  6736     06D6  1C03               	btfss	3,0
  6737     06D7  2ED9               	goto	u3671
  6738     06D8  2EDA               	goto	u3670
  6739     06D9                     u3671:
  6740     06D9  2F02               	goto	l3429
  6741     06DA                     u3670:
  6742     06DA                     l3427:
  6743     06DA  0021               	movlb	1	; select bank1
  6744     06DB  0830               	movf	pf_lseek@fs^(0+128),w
  6745     06DC  3E06               	addlw	6
  6746     06DD  0086               	movwf	6
  6747     06DE  3001               	movlw	1	; select bank2/3
  6748     06DF  0087               	movwf	7
  6749     06E0  3F40               	moviw [0]fsr1
  6750     06E1  0020               	movlb	0	; select bank0
  6751     06E2  00D2               	movwf	??_pf_lseek
  6752     06E3  3F41               	moviw [1]fsr1
  6753     06E4  00D3               	movwf	??_pf_lseek+1
  6754     06E5  3F42               	moviw [2]fsr1
  6755     06E6  00D4               	movwf	??_pf_lseek+2
  6756     06E7  3F43               	moviw [3]fsr1
  6757     06E8  00D5               	movwf	??_pf_lseek+3
  6758     06E9  0855               	movf	??_pf_lseek+3,w
  6759     06EA  0021               	movlb	1	; select bank1
  6760     06EB  022F               	subwf	(pf_lseek@clst+3)^(0+128),w
  6761     06EC  1D03               	skipz
  6762     06ED  2EFE               	goto	u3685
  6763     06EE  0020               	movlb	0	; select bank0
  6764     06EF  0854               	movf	??_pf_lseek+2,w
  6765     06F0  0021               	movlb	1	; select bank1
  6766     06F1  022E               	subwf	(pf_lseek@clst+2)^(0+128),w
  6767     06F2  1D03               	skipz
  6768     06F3  2EFE               	goto	u3685
  6769     06F4  0020               	movlb	0	; select bank0
  6770     06F5  0853               	movf	??_pf_lseek+1,w
  6771     06F6  0021               	movlb	1	; select bank1
  6772     06F7  022D               	subwf	(pf_lseek@clst+1)^(0+128),w
  6773     06F8  1D03               	skipz
  6774     06F9  2EFE               	goto	u3685
  6775     06FA  0020               	movlb	0	; select bank0
  6776     06FB  0852               	movf	??_pf_lseek,w
  6777     06FC  0021               	movlb	1	; select bank1
  6778     06FD  022C               	subwf	pf_lseek@clst^(0+128),w
  6779     06FE                     u3685:
  6780     06FE  1C03               	skipc
  6781     06FF  2F01               	goto	u3681
  6782     0700  2F02               	goto	u3680
  6783     0701                     u3681:
  6784     0701  2F0A               	goto	l3435
  6785     0702                     u3680:
  6786     0702                     l3429:
  6787     0702  0021               	movlb	1	; select bank1
  6788     0703  0A30               	incf	pf_lseek@fs^(0+128),w
  6789     0704  0086               	movwf	6
  6790     0705  3001               	movlw	1	; select bank2/3
  6791     0706  0087               	movwf	7
  6792     0707  0181               	clrf	1
  6793     0708                     l3431:
  6794     0708  3001               	movlw	1
  6795     0709  2FEE               	goto	l344
  6796     070A                     l3435:
  6797                           
  6798                           ;pff.c: 1084:    fs->curr_clust = clst;
  6799     070A  0830               	movf	pf_lseek@fs^(0+128),w
  6800     070B  3E22               	addlw	34
  6801     070C  0086               	movwf	6
  6802     070D  3001               	movlw	1	; select bank2/3
  6803     070E  0087               	movwf	7
  6804     070F  082C               	movf	pf_lseek@clst^(0+128),w
  6805     0710  3FC0               	movwi [0]fsr1
  6806     0711  082D               	movf	(pf_lseek@clst+1)^(0+128),w
  6807     0712  3FC1               	movwi [1]fsr1
  6808     0713  082E               	movf	(pf_lseek@clst+2)^(0+128),w
  6809     0714  3FC2               	movwi [2]fsr1
  6810     0715  082F               	movf	(pf_lseek@clst+3)^(0+128),w
  6811     0716  3FC3               	movwi [3]fsr1
  6812                           
  6813                           ;pff.c: 1085:    fs->fptr += bcs;
  6814     0717  0830               	movf	pf_lseek@fs^(0+128),w
  6815     0718  3E16               	addlw	22
  6816     0719  0086               	movwf	6
  6817     071A  3001               	movlw	1	; select bank2/3
  6818     071B  0087               	movwf	7
  6819     071C  0828               	movf	pf_lseek@bcs^(0+128),w
  6820     071D  0781               	addwf	1,f
  6821     071E  3141               	addfsr 1,1
  6822     071F  0829               	movf	(pf_lseek@bcs+1)^(0+128),w
  6823     0720  3D81               	addwfc	1,f
  6824     0721  3141               	addfsr 1,1
  6825     0722  082A               	movf	(pf_lseek@bcs+2)^(0+128),w
  6826     0723  3D81               	addwfc	1,f
  6827     0724  3141               	addfsr 1,1
  6828     0725  082B               	movf	(pf_lseek@bcs+3)^(0+128),w
  6829     0726  3D81               	addwfc	1,f
  6830     0727                     l3437:
  6831                           
  6832                           ;pff.c: 1086:    ofs -= bcs;
  6833     0727  0828               	movf	pf_lseek@bcs^(0+128),w
  6834     0728  0020               	movlb	0	; select bank0
  6835     0729  02CE               	subwf	pf_lseek@ofs,f
  6836     072A  0021               	movlb	1	; select bank1
  6837     072B  0829               	movf	(pf_lseek@bcs+1)^(0+128),w
  6838     072C  0020               	movlb	0	; select bank0
  6839     072D  3BCF               	subwfb	pf_lseek@ofs+1,f
  6840     072E  0021               	movlb	1	; select bank1
  6841     072F  082A               	movf	(pf_lseek@bcs+2)^(0+128),w
  6842     0730  0020               	movlb	0	; select bank0
  6843     0731  3BD0               	subwfb	pf_lseek@ofs+2,f
  6844     0732  0021               	movlb	1	; select bank1
  6845     0733  082B               	movf	(pf_lseek@bcs+3)^(0+128),w
  6846     0734  0020               	movlb	0	; select bank0
  6847     0735  3BD1               	subwfb	pf_lseek@ofs+3,f
  6848     0736                     l3439:
  6849                           
  6850                           ;pff.c: 1081:   while (ofs > bcs) {
  6851     0736  0020               	movlb	0	; select bank0
  6852     0737  0851               	movf	pf_lseek@ofs+3,w
  6853     0738  0021               	movlb	1	; select bank1
  6854     0739  022B               	subwf	(pf_lseek@bcs+3)^(0+128),w
  6855     073A  1D03               	skipz
  6856     073B  2F4C               	goto	u3695
  6857     073C  0020               	movlb	0	; select bank0
  6858     073D  0850               	movf	pf_lseek@ofs+2,w
  6859     073E  0021               	movlb	1	; select bank1
  6860     073F  022A               	subwf	(pf_lseek@bcs+2)^(0+128),w
  6861     0740  1D03               	skipz
  6862     0741  2F4C               	goto	u3695
  6863     0742  0020               	movlb	0	; select bank0
  6864     0743  084F               	movf	pf_lseek@ofs+1,w
  6865     0744  0021               	movlb	1	; select bank1
  6866     0745  0229               	subwf	(pf_lseek@bcs+1)^(0+128),w
  6867     0746  1D03               	skipz
  6868     0747  2F4C               	goto	u3695
  6869     0748  0020               	movlb	0	; select bank0
  6870     0749  084E               	movf	pf_lseek@ofs,w
  6871     074A  0021               	movlb	1	; select bank1
  6872     074B  0228               	subwf	pf_lseek@bcs^(0+128),w
  6873     074C                     u3695:
  6874     074C  1C03               	skipc
  6875     074D  2F4F               	goto	u3691
  6876     074E  2F50               	goto	u3690
  6877     074F                     u3691:
  6878     074F  2EA9               	goto	l3423
  6879     0750                     u3690:
  6880     0750                     l3441:
  6881                           
  6882                           ;pff.c: 1088:   fs->fptr += ofs;
  6883     0750  0830               	movf	pf_lseek@fs^(0+128),w
  6884     0751  3E16               	addlw	22
  6885     0752  0086               	movwf	6
  6886     0753  3001               	movlw	1	; select bank2/3
  6887     0754  0087               	movwf	7
  6888     0755  0020               	movlb	0	; select bank0
  6889     0756  084E               	movf	pf_lseek@ofs,w
  6890     0757  0781               	addwf	1,f
  6891     0758  3141               	addfsr 1,1
  6892     0759  084F               	movf	pf_lseek@ofs+1,w
  6893     075A  3D81               	addwfc	1,f
  6894     075B  3141               	addfsr 1,1
  6895     075C  0850               	movf	pf_lseek@ofs+2,w
  6896     075D  3D81               	addwfc	1,f
  6897     075E  3141               	addfsr 1,1
  6898     075F  0851               	movf	pf_lseek@ofs+3,w
  6899     0760  3D81               	addwfc	1,f
  6900     0761                     l3443:
  6901                           
  6902                           ;pff.c: 1089:   sect = clust2sect(clst);
  6903     0761  0021               	movlb	1	; select bank1
  6904     0762  082F               	movf	(pf_lseek@clst+3)^(0+128),w
  6905     0763  0020               	movlb	0	; select bank0
  6906     0764  00A3               	movwf	clust2sect@clst+3
  6907     0765  0021               	movlb	1	; select bank1
  6908     0766  082E               	movf	(pf_lseek@clst+2)^(0+128),w
  6909     0767  0020               	movlb	0	; select bank0
  6910     0768  00A2               	movwf	clust2sect@clst+2
  6911     0769  0021               	movlb	1	; select bank1
  6912     076A  082D               	movf	(pf_lseek@clst+1)^(0+128),w
  6913     076B  0020               	movlb	0	; select bank0
  6914     076C  00A1               	movwf	clust2sect@clst+1
  6915     076D  0021               	movlb	1	; select bank1
  6916     076E  082C               	movf	pf_lseek@clst^(0+128),w
  6917     076F  0020               	movlb	0	; select bank0
  6918     0770  00A0               	movwf	clust2sect@clst
  6919     0771  3196  267E  3185   	fcall	_clust2sect
  6920     0774  0020               	movlb	0	; select bank0
  6921     0775  0823               	movf	?_clust2sect+3,w
  6922     0776  0021               	movlb	1	; select bank1
  6923     0777  00A3               	movwf	(pf_lseek@sect+3)^(0+128)
  6924     0778  0020               	movlb	0	; select bank0
  6925     0779  0822               	movf	?_clust2sect+2,w
  6926     077A  0021               	movlb	1	; select bank1
  6927     077B  00A2               	movwf	(pf_lseek@sect+2)^(0+128)
  6928     077C  0020               	movlb	0	; select bank0
  6929     077D  0821               	movf	?_clust2sect+1,w
  6930     077E  0021               	movlb	1	; select bank1
  6931     077F  00A1               	movwf	(pf_lseek@sect+1)^(0+128)
  6932     0780  0020               	movlb	0	; select bank0
  6933     0781  0820               	movf	?_clust2sect,w
  6934     0782  0021               	movlb	1	; select bank1
  6935     0783  00A0               	movwf	pf_lseek@sect^(0+128)
  6936     0784                     l3445:
  6937                           
  6938                           ;pff.c: 1090:   if (!sect) {fs->flag = 0; return FR_DISK_ERR;};
  6939     0784  0823               	movf	(pf_lseek@sect+3)^(0+128),w
  6940     0785  0422               	iorwf	(pf_lseek@sect+2)^(0+128),w
  6941     0786  0421               	iorwf	(pf_lseek@sect+1)^(0+128),w
  6942     0787  0420               	iorwf	pf_lseek@sect^(0+128),w
  6943     0788  1D03               	skipz
  6944     0789  2F8B               	goto	u3701
  6945     078A  2F8C               	goto	u3700
  6946     078B                     u3701:
  6947     078B  2F92               	goto	l3453
  6948     078C                     u3700:
  6949     078C                     l3447:
  6950     078C  0A30               	incf	pf_lseek@fs^(0+128),w
  6951     078D  0086               	movwf	6
  6952     078E  3001               	movlw	1	; select bank2/3
  6953     078F  0087               	movwf	7
  6954     0790  0181               	clrf	1
  6955     0791  2F08               	goto	l3431
  6956     0792                     l3453:
  6957                           
  6958                           ;pff.c: 1091:   fs->dsect = sect + (fs->fptr / 512 & (fs->csize - 1));
  6959     0792  0820               	movf	pf_lseek@sect^(0+128),w
  6960     0793  0020               	movlb	0	; select bank0
  6961     0794  00D2               	movwf	??_pf_lseek
  6962     0795  0021               	movlb	1	; select bank1
  6963     0796  0821               	movf	(pf_lseek@sect+1)^(0+128),w
  6964     0797  0020               	movlb	0	; select bank0
  6965     0798  00D3               	movwf	??_pf_lseek+1
  6966     0799  0021               	movlb	1	; select bank1
  6967     079A  0822               	movf	(pf_lseek@sect+2)^(0+128),w
  6968     079B  0020               	movlb	0	; select bank0
  6969     079C  00D4               	movwf	??_pf_lseek+2
  6970     079D  0021               	movlb	1	; select bank1
  6971     079E  0823               	movf	(pf_lseek@sect+3)^(0+128),w
  6972     079F  0020               	movlb	0	; select bank0
  6973     07A0  00D5               	movwf	??_pf_lseek+3
  6974     07A1  0021               	movlb	1	; select bank1
  6975     07A2  0830               	movf	pf_lseek@fs^(0+128),w
  6976     07A3  3E02               	addlw	2
  6977     07A4  0086               	movwf	6
  6978     07A5  3001               	movlw	1	; select bank2/3
  6979     07A6  0087               	movwf	7
  6980     07A7  0801               	movf	1,w
  6981     07A8  3EFF               	addlw	255
  6982     07A9  0020               	movlb	0	; select bank0
  6983     07AA  00D6               	movwf	??_pf_lseek+4
  6984     07AB  30FF               	movlw	255
  6985     07AC  1803               	skipnc
  6986     07AD  3000               	movlw	0
  6987     07AE  00D7               	movwf	??_pf_lseek+5
  6988     07AF  0856               	movf	??_pf_lseek+4,w
  6989     07B0  00D8               	movwf	??_pf_lseek+6
  6990     07B1  0857               	movf	??_pf_lseek+5,w
  6991     07B2  00D9               	movwf	??_pf_lseek+7
  6992     07B3  3000               	movlw	0
  6993     07B4  1BD9               	btfsc	??_pf_lseek+7,7
  6994     07B5  30FF               	movlw	255
  6995     07B6  00DA               	movwf	??_pf_lseek+8
  6996     07B7  00DB               	movwf	??_pf_lseek+9
  6997     07B8  0021               	movlb	1	; select bank1
  6998     07B9  0830               	movf	pf_lseek@fs^(0+128),w
  6999     07BA  3E16               	addlw	22
  7000     07BB  0086               	movwf	6
  7001     07BC  3001               	movlw	1	; select bank2/3
  7002     07BD  0087               	movwf	7
  7003     07BE  3F40               	moviw [0]fsr1
  7004     07BF  0020               	movlb	0	; select bank0
  7005     07C0  00DC               	movwf	??_pf_lseek+10
  7006     07C1  3F41               	moviw [1]fsr1
  7007     07C2  00DD               	movwf	??_pf_lseek+11
  7008     07C3  3F42               	moviw [2]fsr1
  7009     07C4  00DE               	movwf	??_pf_lseek+12
  7010     07C5  3F43               	moviw [3]fsr1
  7011     07C6  00DF               	movwf	??_pf_lseek+13
  7012     07C7  3009               	movlw	9
  7013     07C8                     u3715:
  7014     07C8  36DF               	lsrf	??_pf_lseek+13,f
  7015     07C9  0CDE               	rrf	??_pf_lseek+12,f
  7016     07CA  0CDD               	rrf	??_pf_lseek+11,f
  7017     07CB  0CDC               	rrf	??_pf_lseek+10,f
  7018     07CC                     u3710:
  7019     07CC  0B89               	decfsz	9,f
  7020     07CD  2FC8               	goto	u3715
  7021     07CE  085C               	movf	??_pf_lseek+10,w
  7022     07CF  05D8               	andwf	??_pf_lseek+6,f
  7023     07D0  085D               	movf	??_pf_lseek+11,w
  7024     07D1  05D9               	andwf	??_pf_lseek+7,f
  7025     07D2  085E               	movf	??_pf_lseek+12,w
  7026     07D3  05DA               	andwf	??_pf_lseek+8,f
  7027     07D4  085F               	movf	??_pf_lseek+13,w
  7028     07D5  05DB               	andwf	??_pf_lseek+9,f
  7029     07D6  0858               	movf	??_pf_lseek+6,w
  7030     07D7  07D2               	addwf	??_pf_lseek,f
  7031     07D8  0859               	movf	??_pf_lseek+7,w
  7032     07D9  3DD3               	addwfc	??_pf_lseek+1,f
  7033     07DA  085A               	movf	??_pf_lseek+8,w
  7034     07DB  3DD4               	addwfc	??_pf_lseek+2,f
  7035     07DC  085B               	movf	??_pf_lseek+9,w
  7036     07DD  3DD5               	addwfc	??_pf_lseek+3,f
  7037     07DE  0021               	movlb	1	; select bank1
  7038     07DF  0830               	movf	pf_lseek@fs^(0+128),w
  7039     07E0  3E26               	addlw	38
  7040     07E1  0086               	movwf	6
  7041     07E2  3001               	movlw	1	; select bank2/3
  7042     07E3  0087               	movwf	7
  7043     07E4  0020               	movlb	0	; select bank0
  7044     07E5  0852               	movf	??_pf_lseek,w
  7045     07E6  3FC0               	movwi [0]fsr1
  7046     07E7  0853               	movf	??_pf_lseek+1,w
  7047     07E8  3FC1               	movwi [1]fsr1
  7048     07E9  0854               	movf	??_pf_lseek+2,w
  7049     07EA  3FC2               	movwi [2]fsr1
  7050     07EB  0855               	movf	??_pf_lseek+3,w
  7051     07EC  3FC3               	movwi [3]fsr1
  7052     07ED                     l3455:
  7053                           
  7054                           ;pff.c: 1094:  return FR_OK;
  7055     07ED  3000               	movlw	0
  7056     07EE                     l344:
  7057     07EE  0008               	return
  7058     07EF                     __end_of_pf_lseek:
  7059                           
  7060                           	psect	text15
  7061     0AAC                     __ptext15:	
  7062 ;; *************** function _get_fat *****************
  7063 ;; Defined at:
  7064 ;;		line 430 in file "pff.c"
  7065 ;; Parameters:    Size  Location     Type
  7066 ;;  clst            4   27[BANK0 ] unsigned long 
  7067 ;; Auto vars:     Size  Location     Type
  7068 ;;  buf             4   41[BANK0 ] unsigned char [4]
  7069 ;;  fs              1   45[BANK0 ] PTR struct .
  7070 ;;		 -> fs(42), NULL(0), 
  7071 ;; Return value:  Size  Location     Type
  7072 ;;                  4   27[BANK0 ] unsigned long 
  7073 ;; Registers used:
  7074 ;;		wreg, fsr0l, fsr0h, fsr1l, fsr1h, status,2, status,0, pclath, cstack
  7075 ;; Tracked objects:
  7076 ;;		On entry : 0/0
  7077 ;;		On exit  : 0/0
  7078 ;;		Unchanged: 0/0
  7079 ;; Data sizes:     COMMON   BANK0   BANK1   BANK2   BANK3   BANK4   BANK5   BANK6   BANK7   BANK8   BANK9  BANK10  BANK1
      +1  BANK12  BANK13  BANK14  BANK15  BANK16  BANK17  BANK18  BANK19  BANK20  BANK21  BANK22  BANK23  BANK24  BANK25
  7080 ;;      Params:         0       4       0       0       0       0       0       0       0       0       0       0       
      +0       0       0       0       0       0       0       0       0       0       0       0       0       0       0
  7081 ;;      Locals:         0       5       0       0       0       0       0       0       0       0       0       0       
      +0       0       0       0       0       0       0       0       0       0       0       0       0       0       0
  7082 ;;      Temps:          0      10       0       0       0       0       0       0       0       0       0       0       
      +0       0       0       0       0       0       0       0       0       0       0       0       0       0       0
  7083 ;;      Totals:         0      19       0       0       0       0       0       0       0       0       0       0       
      +0       0       0       0       0       0       0       0       0       0       0       0       0       0       0
  7084 ;;Total ram usage:       19 bytes
  7085 ;; Hardware stack levels used: 1
  7086 ;; Hardware stack levels required when called: 6
  7087 ;; This function calls:
  7088 ;;		_disk_readp
  7089 ;;		_ld_dword
  7090 ;; This function is called by:
  7091 ;;		_dir_next
  7092 ;;		_pf_write
  7093 ;;		_pf_lseek
  7094 ;;		_pf_read
  7095 ;; This function uses a non-reentrant model
  7096 ;;
  7097                           
  7098     0AAC                     _get_fat:	
  7099                           ;psect for function _get_fat
  7100                           
  7101     0AAC                     l2633:	
  7102                           ;incstack = 0
  7103                           ; Regs used in _get_fat: [wreg-fsr1h+status,2+status,0+pclath+cstack]
  7104                           
  7105                           
  7106                           ;pff.c: 431:  DWORD clst;pff.c: 433: {;pff.c: 434:  BYTE buf[4];;pff.c: 435:  FATFS *fs 
      +                          = FatFs;
  7107     0AAC  0020               	movlb	0	; select bank0
  7108     0AAD  086F               	movf	_FatFs,w
  7109     0AAE  00CD               	movwf	get_fat@fs
  7110     0AAF                     l2635:
  7111                           
  7112                           ;pff.c: 440:  if (clst < 2 || clst >= fs->n_fatent) return 1;
  7113     0AAF  083E               	movf	get_fat@clst+3,w
  7114     0AB0  1D03               	btfss	3,2
  7115     0AB1  2ABE               	goto	u2380
  7116     0AB2  083D               	movf	get_fat@clst+2,w
  7117     0AB3  1D03               	btfss	3,2
  7118     0AB4  2ABE               	goto	u2380
  7119     0AB5  083C               	movf	get_fat@clst+1,w
  7120     0AB6  1D03               	btfss	3,2
  7121     0AB7  2ABE               	goto	u2380
  7122     0AB8  3002               	movlw	2
  7123     0AB9  023B               	subwf	get_fat@clst,w
  7124     0ABA  1C03               	btfss	3,0
  7125     0ABB  2ABD               	goto	u2381
  7126     0ABC  2ABE               	goto	u2380
  7127     0ABD                     u2381:
  7128     0ABD  2ADE               	goto	l2639
  7129     0ABE                     u2380:
  7130     0ABE                     l2637:
  7131     0ABE  0020               	movlb	0	; select bank0
  7132     0ABF  084D               	movf	get_fat@fs,w
  7133     0AC0  3E06               	addlw	6
  7134     0AC1  0086               	movwf	6
  7135     0AC2  3001               	movlw	1	; select bank2/3
  7136     0AC3  0087               	movwf	7
  7137     0AC4  3F40               	moviw [0]fsr1
  7138     0AC5  00BF               	movwf	??_get_fat
  7139     0AC6  3F41               	moviw [1]fsr1
  7140     0AC7  00C0               	movwf	??_get_fat+1
  7141     0AC8  3F42               	moviw [2]fsr1
  7142     0AC9  00C1               	movwf	??_get_fat+2
  7143     0ACA  3F43               	moviw [3]fsr1
  7144     0ACB  00C2               	movwf	??_get_fat+3
  7145     0ACC  0842               	movf	??_get_fat+3,w
  7146     0ACD  023E               	subwf	get_fat@clst+3,w
  7147     0ACE  1D03               	skipz
  7148     0ACF  2ADA               	goto	u2395
  7149     0AD0  0841               	movf	??_get_fat+2,w
  7150     0AD1  023D               	subwf	get_fat@clst+2,w
  7151     0AD2  1D03               	skipz
  7152     0AD3  2ADA               	goto	u2395
  7153     0AD4  0840               	movf	??_get_fat+1,w
  7154     0AD5  023C               	subwf	get_fat@clst+1,w
  7155     0AD6  1D03               	skipz
  7156     0AD7  2ADA               	goto	u2395
  7157     0AD8  083F               	movf	??_get_fat,w
  7158     0AD9  023B               	subwf	get_fat@clst,w
  7159     0ADA                     u2395:
  7160     0ADA  1C03               	skipc
  7161     0ADB  2ADD               	goto	u2391
  7162     0ADC  2ADE               	goto	u2390
  7163     0ADD                     u2391:
  7164     0ADD  2B42               	goto	l2653
  7165     0ADE                     u2390:
  7166     0ADE                     l2639:
  7167     0ADE  3000               	movlw	0
  7168     0ADF  0020               	movlb	0	; select bank0
  7169     0AE0  00BE               	movwf	?_get_fat+3
  7170     0AE1  3000               	movlw	0
  7171     0AE2  00BD               	movwf	?_get_fat+2
  7172     0AE3  3000               	movlw	0
  7173     0AE4  00BC               	movwf	?_get_fat+1
  7174     0AE5  3001               	movlw	1
  7175     0AE6  00BB               	movwf	?_get_fat
  7176     0AE7  2B4B               	goto	l180
  7177     0AE8                     l2643:
  7178                           
  7179                           ;pff.c: 464:   if (disk_readp(buf, fs->fatbase + clst / 128, ((UINT)clst % 128) * 4, 4))
      +                           break;
  7180     0AE8  084D               	movf	get_fat@fs,w
  7181     0AE9  3E0A               	addlw	10
  7182     0AEA  0086               	movwf	6
  7183     0AEB  3001               	movlw	1	; select bank2/3
  7184     0AEC  0087               	movwf	7
  7185     0AED  3F40               	moviw [0]fsr1
  7186     0AEE  00BF               	movwf	??_get_fat
  7187     0AEF  3F41               	moviw [1]fsr1
  7188     0AF0  00C0               	movwf	??_get_fat+1
  7189     0AF1  3F42               	moviw [2]fsr1
  7190     0AF2  00C1               	movwf	??_get_fat+2
  7191     0AF3  3F43               	moviw [3]fsr1
  7192     0AF4  00C2               	movwf	??_get_fat+3
  7193     0AF5  083B               	movf	get_fat@clst,w
  7194     0AF6  00C3               	movwf	??_get_fat+4
  7195     0AF7  083C               	movf	get_fat@clst+1,w
  7196     0AF8  00C4               	movwf	??_get_fat+5
  7197     0AF9  083D               	movf	get_fat@clst+2,w
  7198     0AFA  00C5               	movwf	??_get_fat+6
  7199     0AFB  083E               	movf	get_fat@clst+3,w
  7200     0AFC  00C6               	movwf	??_get_fat+7
  7201     0AFD  3007               	movlw	7
  7202     0AFE                     u2405:
  7203     0AFE  36C6               	lsrf	??_get_fat+7,f
  7204     0AFF  0CC5               	rrf	??_get_fat+6,f
  7205     0B00  0CC4               	rrf	??_get_fat+5,f
  7206     0B01  0CC3               	rrf	??_get_fat+4,f
  7207     0B02                     u2400:
  7208     0B02  0B89               	decfsz	9,f
  7209     0B03  2AFE               	goto	u2405
  7210     0B04  0843               	movf	??_get_fat+4,w
  7211     0B05  07BF               	addwf	??_get_fat,f
  7212     0B06  0844               	movf	??_get_fat+5,w
  7213     0B07  3DC0               	addwfc	??_get_fat+1,f
  7214     0B08  0845               	movf	??_get_fat+6,w
  7215     0B09  3DC1               	addwfc	??_get_fat+2,f
  7216     0B0A  0846               	movf	??_get_fat+7,w
  7217     0B0B  3DC2               	addwfc	??_get_fat+3,f
  7218     0B0C  0842               	movf	??_get_fat+3,w
  7219     0B0D  00AA               	movwf	disk_readp@sector+3
  7220     0B0E  0841               	movf	??_get_fat+2,w
  7221     0B0F  00A9               	movwf	disk_readp@sector+2
  7222     0B10  0840               	movf	??_get_fat+1,w
  7223     0B11  00A8               	movwf	disk_readp@sector+1
  7224     0B12  083F               	movf	??_get_fat,w
  7225     0B13  00A7               	movwf	disk_readp@sector
  7226     0B14  307F               	movlw	127
  7227     0B15  053B               	andwf	get_fat@clst,w
  7228     0B16  00C7               	movwf	??_get_fat+8
  7229     0B17  3000               	movlw	0
  7230     0B18  053C               	andwf	get_fat@clst+1,w
  7231     0B19  00C8               	movwf	??_get_fat+9
  7232     0B1A  35C7               	lslf	??_get_fat+8,f
  7233     0B1B  0DC8               	rlf	??_get_fat+9,f
  7234     0B1C  35C7               	lslf	??_get_fat+8,f
  7235     0B1D  0DC8               	rlf	??_get_fat+9,f
  7236     0B1E  0847               	movf	??_get_fat+8,w
  7237     0B1F  00AB               	movwf	disk_readp@offset
  7238     0B20  0848               	movf	??_get_fat+9,w
  7239     0B21  00AC               	movwf	disk_readp@offset+1
  7240     0B22  3004               	movlw	4
  7241     0B23  00AD               	movwf	disk_readp@count
  7242     0B24  3000               	movlw	0
  7243     0B25  00AE               	movwf	disk_readp@count+1
  7244     0B26  3049               	movlw	(low (get_fat@buf| 0))& (0+255)
  7245     0B27  318B  234C  318A   	fcall	_disk_readp
  7246     0B2A  3A00               	xorlw	0
  7247     0B2B  1903               	skipnz
  7248     0B2C  2B2E               	goto	u2411
  7249     0B2D  2B2F               	goto	u2410
  7250     0B2E                     u2411:
  7251     0B2E  2B30               	goto	l2647
  7252     0B2F                     u2410:
  7253     0B2F  2ADE               	goto	l2639
  7254     0B30                     l2647:
  7255                           
  7256                           ;pff.c: 465:   return ld_dword(buf) & 0x0FFFFFFF;
  7257     0B30  3049               	movlw	(low (get_fat@buf| 0))& (0+255)
  7258     0B31  318A  221A  318A   	fcall	_ld_dword
  7259     0B34  30FF               	movlw	255
  7260     0B35  0570               	andwf	?_ld_dword,w
  7261     0B36  0020               	movlb	0	; select bank0
  7262     0B37  00BB               	movwf	?_get_fat
  7263     0B38  30FF               	movlw	255
  7264     0B39  0571               	andwf	?_ld_dword+1,w
  7265     0B3A  00BC               	movwf	?_get_fat+1
  7266     0B3B  30FF               	movlw	255
  7267     0B3C  0572               	andwf	?_ld_dword+2,w
  7268     0B3D  00BD               	movwf	?_get_fat+2
  7269     0B3E  300F               	movlw	15
  7270     0B3F  0573               	andwf	?_ld_dword+3,w
  7271     0B40  00BE               	movwf	?_get_fat+3
  7272     0B41  2B4B               	goto	l180
  7273     0B42                     l2653:
  7274     0B42  084D               	movf	get_fat@fs,w
  7275     0B43  0086               	movwf	6
  7276     0B44  3001               	movlw	1	; select bank2/3
  7277     0B45  0087               	movwf	7
  7278     0B46  0801               	movf	1,w
  7279                           
  7280                           ; Switch size 1, requested type "simple"
  7281                           ; Number of cases is 1, Range of values is 3 to 3
  7282                           ; switch strategies available:
  7283                           ; Name         Instructions Cycles
  7284                           ; simple_byte            4     3 (average)
  7285                           ; direct_byte           11     9 (fixed)
  7286                           ; jumptable            263     9 (fixed)
  7287                           ;	Chosen strategy is simple_byte
  7288     0B47  3A03               	xorlw	3	; case 3
  7289     0B48  1903               	skipnz
  7290     0B49  2AE8               	goto	l2643
  7291     0B4A  2ADE               	goto	l2639
  7292     0B4B                     l180:
  7293     0B4B  0008               	return
  7294     0B4C                     __end_of_get_fat:
  7295                           
  7296                           	psect	text16
  7297     167E                     __ptext16:	
  7298 ;; *************** function _clust2sect *****************
  7299 ;; Defined at:
  7300 ;;		line 479 in file "pff.c"
  7301 ;; Parameters:    Size  Location     Type
  7302 ;;  clst            4    0[BANK0 ] unsigned long 
  7303 ;; Auto vars:     Size  Location     Type
  7304 ;;  fs              1   12[COMMON] PTR struct .
  7305 ;;		 -> fs(42), NULL(0), 
  7306 ;; Return value:  Size  Location     Type
  7307 ;;                  4    0[BANK0 ] unsigned long 
  7308 ;; Registers used:
  7309 ;;		wreg, fsr1l, fsr1h, status,2, status,0, pclath, cstack
  7310 ;; Tracked objects:
  7311 ;;		On entry : 0/0
  7312 ;;		On exit  : 0/0
  7313 ;;		Unchanged: 0/0
  7314 ;; Data sizes:     COMMON   BANK0   BANK1   BANK2   BANK3   BANK4   BANK5   BANK6   BANK7   BANK8   BANK9  BANK10  BANK1
      +1  BANK12  BANK13  BANK14  BANK15  BANK16  BANK17  BANK18  BANK19  BANK20  BANK21  BANK22  BANK23  BANK24  BANK25
  7315 ;;      Params:         0       4       0       0       0       0       0       0       0       0       0       0       
      +0       0       0       0       0       0       0       0       0       0       0       0       0       0       0
  7316 ;;      Locals:         1       0       0       0       0       0       0       0       0       0       0       0       
      +0       0       0       0       0       0       0       0       0       0       0       0       0       0       0
  7317 ;;      Temps:          0       8       0       0       0       0       0       0       0       0       0       0       
      +0       0       0       0       0       0       0       0       0       0       0       0       0       0       0
  7318 ;;      Totals:         1      12       0       0       0       0       0       0       0       0       0       0       
      +0       0       0       0       0       0       0       0       0       0       0       0       0       0       0
  7319 ;;Total ram usage:       13 bytes
  7320 ;; Hardware stack levels used: 1
  7321 ;; Hardware stack levels required when called: 1
  7322 ;; This function calls:
  7323 ;;		___lmul
  7324 ;; This function is called by:
  7325 ;;		_dir_rewind
  7326 ;;		_dir_next
  7327 ;;		_pf_write
  7328 ;;		_pf_lseek
  7329 ;;		_pf_read
  7330 ;; This function uses a non-reentrant model
  7331 ;;
  7332                           
  7333     167E                     _clust2sect:	
  7334                           ;psect for function _clust2sect
  7335                           
  7336     167E                     l2659:	
  7337                           ;incstack = 0
  7338                           ; Regs used in _clust2sect: [wreg+fsr1l+fsr1h+status,2+status,0+pclath+cstack]
  7339                           
  7340                           
  7341                           ;pff.c: 480:  DWORD clst;pff.c: 482: {;pff.c: 483:  FATFS *fs = FatFs;
  7342     167E  0020               	movlb	0	; select bank0
  7343     167F  086F               	movf	_FatFs,w
  7344     1680  00FC               	movwf	clust2sect@fs
  7345                           
  7346                           ;pff.c: 486:  clst -= 2;
  7347     1681  3002               	movlw	2
  7348     1682  00A4               	movwf	??_clust2sect
  7349     1683  3000               	movlw	0
  7350     1684  00A5               	movwf	??_clust2sect+1
  7351     1685  3000               	movlw	0
  7352     1686  00A6               	movwf	??_clust2sect+2
  7353     1687  3000               	movlw	0
  7354     1688  00A7               	movwf	??_clust2sect+3
  7355     1689  0824               	movf	??_clust2sect,w
  7356     168A  02A0               	subwf	clust2sect@clst,f
  7357     168B  0825               	movf	??_clust2sect+1,w
  7358     168C  3BA1               	subwfb	clust2sect@clst+1,f
  7359     168D  0826               	movf	??_clust2sect+2,w
  7360     168E  3BA2               	subwfb	clust2sect@clst+2,f
  7361     168F  0827               	movf	??_clust2sect+3,w
  7362     1690  3BA3               	subwfb	clust2sect@clst+3,f
  7363     1691                     l2661:
  7364                           
  7365                           ;pff.c: 487:  if (clst >= (fs->n_fatent - 2)) return 0;
  7366     1691  30FE               	movlw	254
  7367     1692  00A4               	movwf	??_clust2sect
  7368     1693  30FF               	movlw	255
  7369     1694  00A5               	movwf	??_clust2sect+1
  7370     1695  30FF               	movlw	255
  7371     1696  00A6               	movwf	??_clust2sect+2
  7372     1697  30FF               	movlw	255
  7373     1698  00A7               	movwf	??_clust2sect+3
  7374     1699  087C               	movf	clust2sect@fs,w
  7375     169A  3E06               	addlw	6
  7376     169B  0086               	movwf	6
  7377     169C  3001               	movlw	1	; select bank2/3
  7378     169D  0087               	movwf	7
  7379     169E  3F40               	moviw [0]fsr1
  7380     169F  07A4               	addwf	??_clust2sect,f
  7381     16A0  3F41               	moviw [1]fsr1
  7382     16A1  3DA5               	addwfc	??_clust2sect+1,f
  7383     16A2  3F42               	moviw [2]fsr1
  7384     16A3  3DA6               	addwfc	??_clust2sect+2,f
  7385     16A4  3F43               	moviw [3]fsr1
  7386     16A5  3DA7               	addwfc	??_clust2sect+3,f
  7387     16A6  0827               	movf	??_clust2sect+3,w
  7388     16A7  0223               	subwf	clust2sect@clst+3,w
  7389     16A8  1D03               	skipz
  7390     16A9  2EB4               	goto	u2425
  7391     16AA  0826               	movf	??_clust2sect+2,w
  7392     16AB  0222               	subwf	clust2sect@clst+2,w
  7393     16AC  1D03               	skipz
  7394     16AD  2EB4               	goto	u2425
  7395     16AE  0825               	movf	??_clust2sect+1,w
  7396     16AF  0221               	subwf	clust2sect@clst+1,w
  7397     16B0  1D03               	skipz
  7398     16B1  2EB4               	goto	u2425
  7399     16B2  0824               	movf	??_clust2sect,w
  7400     16B3  0220               	subwf	clust2sect@clst,w
  7401     16B4                     u2425:
  7402     16B4  1C03               	skipc
  7403     16B5  2EB7               	goto	u2421
  7404     16B6  2EB8               	goto	u2420
  7405     16B7                     u2421:
  7406     16B7  2EC1               	goto	l2667
  7407     16B8                     u2420:
  7408     16B8                     l2663:
  7409     16B8  3000               	movlw	0
  7410     16B9  00A3               	movwf	?_clust2sect+3
  7411     16BA  3000               	movlw	0
  7412     16BB  00A2               	movwf	?_clust2sect+2
  7413     16BC  3000               	movlw	0
  7414     16BD  00A1               	movwf	?_clust2sect+1
  7415     16BE  3000               	movlw	0
  7416     16BF  00A0               	movwf	?_clust2sect
  7417     16C0  2EFC               	goto	l188
  7418     16C1                     l2667:
  7419                           
  7420                           ;pff.c: 488:  return (DWORD)clst * fs->csize + fs->database;
  7421     16C1  087C               	movf	clust2sect@fs,w
  7422     16C2  3E12               	addlw	18
  7423     16C3  0086               	movwf	6
  7424     16C4  3001               	movlw	1	; select bank2/3
  7425     16C5  0087               	movwf	7
  7426     16C6  3F40               	moviw [0]fsr1
  7427     16C7  00A4               	movwf	??_clust2sect
  7428     16C8  3F41               	moviw [1]fsr1
  7429     16C9  00A5               	movwf	??_clust2sect+1
  7430     16CA  3F42               	moviw [2]fsr1
  7431     16CB  00A6               	movwf	??_clust2sect+2
  7432     16CC  3F43               	moviw [3]fsr1
  7433     16CD  00A7               	movwf	??_clust2sect+3
  7434     16CE  087C               	movf	clust2sect@fs,w
  7435     16CF  3E02               	addlw	2
  7436     16D0  0086               	movwf	6
  7437     16D1  3001               	movlw	1	; select bank2/3
  7438     16D2  0087               	movwf	7
  7439     16D3  0801               	movf	1,w
  7440     16D4  00A8               	movwf	??_clust2sect+4
  7441     16D5  01A9               	clrf	??_clust2sect+5
  7442     16D6  01AA               	clrf	??_clust2sect+6
  7443     16D7  01AB               	clrf	??_clust2sect+7
  7444     16D8  082B               	movf	??_clust2sect+7,w
  7445     16D9  00F3               	movwf	___lmul@multiplier+3
  7446     16DA  082A               	movf	??_clust2sect+6,w
  7447     16DB  00F2               	movwf	___lmul@multiplier+2
  7448     16DC  0829               	movf	??_clust2sect+5,w
  7449     16DD  00F1               	movwf	___lmul@multiplier+1
  7450     16DE  0828               	movf	??_clust2sect+4,w
  7451     16DF  00F0               	movwf	___lmul@multiplier
  7452     16E0  0823               	movf	clust2sect@clst+3,w
  7453     16E1  00F7               	movwf	___lmul@multiplicand+3
  7454     16E2  0822               	movf	clust2sect@clst+2,w
  7455     16E3  00F6               	movwf	___lmul@multiplicand+2
  7456     16E4  0821               	movf	clust2sect@clst+1,w
  7457     16E5  00F5               	movwf	___lmul@multiplicand+1
  7458     16E6  0820               	movf	clust2sect@clst,w
  7459     16E7  00F4               	movwf	___lmul@multiplicand
  7460     16E8  3194  2454  3196   	fcall	___lmul
  7461     16EB  0870               	movf	?___lmul,w
  7462     16EC  0020               	movlb	0	; select bank0
  7463     16ED  07A4               	addwf	??_clust2sect,f
  7464     16EE  0871               	movf	?___lmul+1,w
  7465     16EF  3DA5               	addwfc	??_clust2sect+1,f
  7466     16F0  0872               	movf	?___lmul+2,w
  7467     16F1  3DA6               	addwfc	??_clust2sect+2,f
  7468     16F2  0873               	movf	?___lmul+3,w
  7469     16F3  3DA7               	addwfc	??_clust2sect+3,f
  7470     16F4  0827               	movf	??_clust2sect+3,w
  7471     16F5  00A3               	movwf	?_clust2sect+3
  7472     16F6  0826               	movf	??_clust2sect+2,w
  7473     16F7  00A2               	movwf	?_clust2sect+2
  7474     16F8  0825               	movf	??_clust2sect+1,w
  7475     16F9  00A1               	movwf	?_clust2sect+1
  7476     16FA  0824               	movf	??_clust2sect,w
  7477     16FB  00A0               	movwf	?_clust2sect
  7478     16FC                     l188:
  7479     16FC  0008               	return
  7480     16FD                     __end_of_clust2sect:
  7481                           
  7482                           	psect	text17
  7483     13A4                     __ptext17:	
  7484 ;; *************** function _memset *****************
  7485 ;; Defined at:
  7486 ;;		line 3 in file "C:\Program Files\Microchip\xc8\v2.46\pic\sources\c99\common\memset.c"
  7487 ;; Parameters:    Size  Location     Type
  7488 ;;  dest            1    wreg     PTR void 
  7489 ;;		 -> write_test@pad(32), 
  7490 ;;  c               2    0[COMMON] int 
  7491 ;;  n               2    2[COMMON] unsigned int 
  7492 ;; Auto vars:     Size  Location     Type
  7493 ;;  dest            1    5[COMMON] PTR void 
  7494 ;;		 -> write_test@pad(32), 
  7495 ;;  p               1    6[COMMON] PTR unsigned char 
  7496 ;;		 -> write_test@pad(32), 
  7497 ;; Return value:  Size  Location     Type
  7498 ;;                  1    wreg      PTR void 
  7499 ;; Registers used:
  7500 ;;		wreg, fsr1l, fsr1h, status,2, status,0
  7501 ;; Tracked objects:
  7502 ;;		On entry : 0/0
  7503 ;;		On exit  : 0/0
  7504 ;;		Unchanged: 0/0
  7505 ;; Data sizes:     COMMON   BANK0   BANK1   BANK2   BANK3   BANK4   BANK5   BANK6   BANK7   BANK8   BANK9  BANK10  BANK1
      +1  BANK12  BANK13  BANK14  BANK15  BANK16  BANK17  BANK18  BANK19  BANK20  BANK21  BANK22  BANK23  BANK24  BANK25
  7506 ;;      Params:         4       0       0       0       0       0       0       0       0       0       0       0       
      +0       0       0       0       0       0       0       0       0       0       0       0       0       0       0
  7507 ;;      Locals:         2       0       0       0       0       0       0       0       0       0       0       0       
      +0       0       0       0       0       0       0       0       0       0       0       0       0       0       0
  7508 ;;      Temps:          1       0       0       0       0       0       0       0       0       0       0       0       
      +0       0       0       0       0       0       0       0       0       0       0       0       0       0       0
  7509 ;;      Totals:         7       0       0       0       0       0       0       0       0       0       0       0       
      +0       0       0       0       0       0       0       0       0       0       0       0       0       0       0
  7510 ;;Total ram usage:        7 bytes
  7511 ;; Hardware stack levels used: 1
  7512 ;; This function calls:
  7513 ;;		Nothing
  7514 ;; This function is called by:
  7515 ;;		_write_test
  7516 ;; This function uses a non-reentrant model
  7517 ;;
  7518                           
  7519     13A4                     _memset:	
  7520                           ;psect for function _memset
  7521                           
  7522                           
  7523                           ;incstack = 0
  7524                           ; Regs used in _memset: [wreg+fsr1l+fsr1h+status,2+status,0]
  7525                           ;memset@dest stored from wreg
  7526     13A4  00F5               	movwf	memset@dest
  7527     13A5                     l3469:
  7528     13A5  0875               	movf	memset@dest,w
  7529     13A6  00F6               	movwf	memset@p
  7530     13A7  2BB2               	goto	l3475
  7531     13A8                     l3471:
  7532     13A8  0876               	movf	memset@p,w
  7533     13A9  0086               	movwf	6
  7534     13AA  3001               	movlw	1	; select bank2/3
  7535     13AB  0087               	movwf	7
  7536     13AC  0870               	movf	memset@c,w
  7537     13AD  0081               	movwf	1
  7538     13AE                     l3473:
  7539     13AE  3001               	movlw	1
  7540     13AF  00F4               	movwf	??_memset
  7541     13B0  0874               	movf	??_memset,w
  7542     13B1  07F6               	addwf	memset@p,f
  7543     13B2                     l3475:
  7544     13B2  3001               	movlw	1
  7545     13B3  02F2               	subwf	memset@n,f
  7546     13B4  3000               	movlw	0
  7547     13B5  3BF3               	subwfb	memset@n+1,f
  7548     13B6  0A72               	incf	memset@n,w
  7549     13B7  1D03               	skipz
  7550     13B8  2BBD               	goto	u3731
  7551     13B9  0A73               	incf	memset@n+1,w
  7552     13BA  1D03               	btfss	3,2
  7553     13BB  2BBD               	goto	u3731
  7554     13BC  2BBE               	goto	u3730
  7555     13BD                     u3731:
  7556     13BD  2BA8               	goto	l3471
  7557     13BE                     u3730:
  7558     13BE                     l1099:
  7559     13BE  0008               	return
  7560     13BF                     __end_of_memset:
  7561                           
  7562                           	psect	text18
  7563     13BF                     __ptext18:	
  7564 ;; *************** function _EUSART_Write_Text *****************
  7565 ;; Defined at:
  7566 ;;		line 127 in file "EUSART.c"
  7567 ;; Parameters:    Size  Location     Type
  7568 ;;  text            2    1[COMMON] PTR unsigned char 
  7569 ;;		 -> STR_14(12), STR_13(12), STR_12(13), STR_11(16), 
  7570 ;;		 -> STR_10(20), STR_9(10), STR_8(15), STR_7(16), 
  7571 ;;		 -> STR_6(15), STR_5(17), STR_4(12), STR_3(14), 
  7572 ;;		 -> STR_1(20), 
  7573 ;; Auto vars:     Size  Location     Type
  7574 ;;  i               2    4[COMMON] int 
  7575 ;; Return value:  Size  Location     Type
  7576 ;;                  1    wreg      void 
  7577 ;; Registers used:
  7578 ;;		wreg, fsr0l, fsr0h, status,2, status,0, pclath, cstack
  7579 ;; Tracked objects:
  7580 ;;		On entry : 0/0
  7581 ;;		On exit  : 0/0
  7582 ;;		Unchanged: 0/0
  7583 ;; Data sizes:     COMMON   BANK0   BANK1   BANK2   BANK3   BANK4   BANK5   BANK6   BANK7   BANK8   BANK9  BANK10  BANK1
      +1  BANK12  BANK13  BANK14  BANK15  BANK16  BANK17  BANK18  BANK19  BANK20  BANK21  BANK22  BANK23  BANK24  BANK25
  7584 ;;      Params:         2       0       0       0       0       0       0       0       0       0       0       0       
      +0       0       0       0       0       0       0       0       0       0       0       0       0       0       0
  7585 ;;      Locals:         2       0       0       0       0       0       0       0       0       0       0       0       
      +0       0       0       0       0       0       0       0       0       0       0       0       0       0       0
  7586 ;;      Temps:          1       0       0       0       0       0       0       0       0       0       0       0       
      +0       0       0       0       0       0       0       0       0       0       0       0       0       0       0
  7587 ;;      Totals:         5       0       0       0       0       0       0       0       0       0       0       0       
      +0       0       0       0       0       0       0       0       0       0       0       0       0       0       0
  7588 ;;Total ram usage:        5 bytes
  7589 ;; Hardware stack levels used: 1
  7590 ;; Hardware stack levels required when called: 1
  7591 ;; This function calls:
  7592 ;;		_EUSART_Write
  7593 ;; This function is called by:
  7594 ;;		_write_test
  7595 ;;		_main
  7596 ;; This function uses a non-reentrant model
  7597 ;;
  7598                           
  7599     13BF                     _EUSART_Write_Text:	
  7600                           ;psect for function _EUSART_Write_Text
  7601                           
  7602     13BF                     l3089:	
  7603                           ;incstack = 0
  7604                           ; Regs used in _EUSART_Write_Text: [wreg-fsr0h+status,2+status,0+pclath+cstack]
  7605                           
  7606                           
  7607                           ;EUSART.c: 127: void EUSART_Write_Text(char *text);EUSART.c: 128: {;EUSART.c: 129:   int
      +                           i;;EUSART.c: 130:   for(i=0;text[i]!='\0';i++)
  7608     13BF  01F4               	clrf	EUSART_Write_Text@i
  7609     13C0  01F5               	clrf	EUSART_Write_Text@i+1
  7610     13C1  2BD0               	goto	l3095
  7611     13C2                     l3091:
  7612                           
  7613                           ;EUSART.c: 131:    EUSART_Write(text[i]);
  7614     13C2  0871               	movf	EUSART_Write_Text@text,w
  7615     13C3  0774               	addwf	EUSART_Write_Text@i,w
  7616     13C4  0084               	movwf	4
  7617     13C5  0872               	movf	EUSART_Write_Text@text+1,w
  7618     13C6  3D75               	addwfc	EUSART_Write_Text@i+1,w
  7619     13C7  0085               	movwf	5
  7620     13C8  0800               	movf	0,w	;code access
  7621     13C9  3193  235C  3193   	fcall	_EUSART_Write
  7622     13CC                     l3093:
  7623     13CC  3001               	movlw	1
  7624     13CD  07F4               	addwf	EUSART_Write_Text@i,f
  7625     13CE  3000               	movlw	0
  7626     13CF  3DF5               	addwfc	EUSART_Write_Text@i+1,f
  7627     13D0                     l3095:
  7628     13D0  0871               	movf	EUSART_Write_Text@text,w
  7629     13D1  0774               	addwf	EUSART_Write_Text@i,w
  7630     13D2  0084               	movwf	4
  7631     13D3  0872               	movf	EUSART_Write_Text@text+1,w
  7632     13D4  3D75               	addwfc	EUSART_Write_Text@i+1,w
  7633     13D5  0085               	movwf	5
  7634     13D6  0012               	moviw fsr0++
  7635     13D7  1D03               	btfss	3,2
  7636     13D8  2BDA               	goto	u3131
  7637     13D9  2BDB               	goto	u3130
  7638     13DA                     u3131:
  7639     13DA  2BC2               	goto	l3091
  7640     13DB                     u3130:
  7641     13DB                     l50:
  7642     13DB  0008               	return
  7643     13DC                     __end_of_EUSART_Write_Text:
  7644                           
  7645                           	psect	text19
  7646     135C                     __ptext19:	
  7647 ;; *************** function _EUSART_Write *****************
  7648 ;; Defined at:
  7649 ;;		line 108 in file "EUSART.c"
  7650 ;; Parameters:    Size  Location     Type
  7651 ;;  txData          1    wreg     unsigned char 
  7652 ;; Auto vars:     Size  Location     Type
  7653 ;;  txData          1    0[COMMON] unsigned char 
  7654 ;; Return value:  Size  Location     Type
  7655 ;;                  1    wreg      void 
  7656 ;; Registers used:
  7657 ;;		wreg
  7658 ;; Tracked objects:
  7659 ;;		On entry : 0/0
  7660 ;;		On exit  : 0/0
  7661 ;;		Unchanged: 0/0
  7662 ;; Data sizes:     COMMON   BANK0   BANK1   BANK2   BANK3   BANK4   BANK5   BANK6   BANK7   BANK8   BANK9  BANK10  BANK1
      +1  BANK12  BANK13  BANK14  BANK15  BANK16  BANK17  BANK18  BANK19  BANK20  BANK21  BANK22  BANK23  BANK24  BANK25
  7663 ;;      Params:         0       0       0       0       0       0       0       0       0       0       0       0       
      +0       0       0       0       0       0       0       0       0       0       0       0       0       0       0
  7664 ;;      Locals:         1       0       0       0       0       0       0       0       0       0       0       0       
      +0       0       0       0       0       0       0       0       0       0       0       0       0       0       0
  7665 ;;      Temps:          0       0       0       0       0       0       0       0       0       0       0       0       
      +0       0       0       0       0       0       0       0       0       0       0       0       0       0       0
  7666 ;;      Totals:         1       0       0       0       0       0       0       0       0       0       0       0       
      +0       0       0       0       0       0       0       0       0       0       0       0       0       0       0
  7667 ;;Total ram usage:        1 bytes
  7668 ;; Hardware stack levels used: 1
  7669 ;; This function calls:
  7670 ;;		Nothing
  7671 ;; This function is called by:
  7672 ;;		_EUSART_Write_Text
  7673 ;;		_EUSART_Write_Integer
  7674 ;; This function uses a non-reentrant model
  7675 ;;
  7676                           
  7677     135C                     _EUSART_Write:	
  7678                           ;psect for function _EUSART_Write
  7679                           
  7680                           
  7681                           ;incstack = 0
  7682                           ; Regs used in _EUSART_Write: [wreg]
  7683                           ;EUSART_Write@txData stored from wreg
  7684     135C  00F0               	movwf	EUSART_Write@txData
  7685     135D                     l2883:
  7686     135D                     l41:	
  7687                           ;EUSART.c: 111:     {;EUSART.c: 112:     }
  7688                           
  7689                           
  7690                           ;EUSART.c: 110:     while(0 == PIR1bits.TXIF)
  7691     135D  0020               	movlb	0	; select bank0
  7692     135E  1E11               	btfss	17,4	;volatile
  7693     135F  2B61               	goto	u2761
  7694     1360  2B62               	goto	u2760
  7695     1361                     u2761:
  7696     1361  2B5D               	goto	l41
  7697     1362                     u2760:
  7698     1362                     l2885:
  7699                           
  7700                           ;EUSART.c: 114:     TX1REG = txData;
  7701     1362  0870               	movf	EUSART_Write@txData,w
  7702     1363  0023               	movlb	3	; select bank3
  7703     1364  009A               	movwf	26	;volatile
  7704     1365                     l44:
  7705     1365  0008               	return
  7706     1366                     __end_of_EUSART_Write:
  7707                           
  7708                           	psect	text20
  7709     02B6                     __ptext20:	
  7710 ;; *************** function _pf_mount *****************
  7711 ;; Defined at:
  7712 ;;		line 819 in file "pff.c"
  7713 ;; Parameters:    Size  Location     Type
  7714 ;;  fs              1    wreg     PTR struct .
  7715 ;;		 -> fs(42), 
  7716 ;; Auto vars:     Size  Location     Type
  7717 ;;  fs              1   53[BANK1 ] PTR struct .
  7718 ;;		 -> fs(42), 
  7719 ;;  buf            36    0[BANK1 ] unsigned char [36]
  7720 ;;  fsize           4   48[BANK1 ] unsigned long 
  7721 ;;  bsect           4   44[BANK1 ] unsigned long 
  7722 ;;  mclst           4   40[BANK1 ] unsigned long 
  7723 ;;  tsect           4   36[BANK1 ] unsigned long 
  7724 ;;  fmt             1   52[BANK1 ] unsigned char 
  7725 ;; Return value:  Size  Location     Type
  7726 ;;                  1    wreg      enum E71
  7727 ;; Registers used:
  7728 ;;		wreg, fsr1l, fsr1h, status,2, status,0, pclath, cstack
  7729 ;; Tracked objects:
  7730 ;;		On entry : 0/0
  7731 ;;		On exit  : 0/0
  7732 ;;		Unchanged: 0/0
  7733 ;; Data sizes:     COMMON   BANK0   BANK1   BANK2   BANK3   BANK4   BANK5   BANK6   BANK7   BANK8   BANK9  BANK10  BANK1
      +1  BANK12  BANK13  BANK14  BANK15  BANK16  BANK17  BANK18  BANK19  BANK20  BANK21  BANK22  BANK23  BANK24  BANK25
  7734 ;;      Params:         0       0       0       0       0       0       0       0       0       0       0       0       
      +0       0       0       0       0       0       0       0       0       0       0       0       0       0       0
  7735 ;;      Locals:         0       0      54       0       0       0       0       0       0       0       0       0       
      +0       0       0       0       0       0       0       0       0       0       0       0       0       0       0
  7736 ;;      Temps:          0      18       0       0       0       0       0       0       0       0       0       0       
      +0       0       0       0       0       0       0       0       0       0       0       0       0       0       0
  7737 ;;      Totals:         0      18      54       0       0       0       0       0       0       0       0       0       
      +0       0       0       0       0       0       0       0       0       0       0       0       0       0       0
  7738 ;;Total ram usage:       72 bytes
  7739 ;; Hardware stack levels used: 1
  7740 ;; Hardware stack levels required when called: 7
  7741 ;; This function calls:
  7742 ;;		___lldiv
  7743 ;;		___lmul
  7744 ;;		_check_fs
  7745 ;;		_disk_initialize
  7746 ;;		_disk_readp
  7747 ;;		_ld_dword
  7748 ;;		_ld_word
  7749 ;; This function is called by:
  7750 ;;		_main
  7751 ;; This function uses a non-reentrant model
  7752 ;;
  7753                           
  7754     02B6                     _pf_mount:	
  7755                           ;psect for function _pf_mount
  7756                           
  7757                           
  7758                           ;incstack = 0
  7759                           ; Regs used in _pf_mount: [wreg+fsr1l+fsr1h+status,2+status,0+pclath+cstack]
  7760                           ;pf_mount@fs stored from wreg
  7761     02B6  0021               	movlb	1	; select bank1
  7762     02B7  00D5               	movwf	pf_mount@fs^(0+128)
  7763     02B8                     l3477:
  7764                           
  7765                           ;pff.c: 820:  FATFS *fs;pff.c: 822: {;pff.c: 823:  BYTE fmt, buf[36];;pff.c: 824:  DWORD
      +                           bsect, fsize, tsect, mclst;;pff.c: 827:  FatFs = 0;
  7766     02B8  0020               	movlb	0	; select bank0
  7767     02B9  01EF               	clrf	_FatFs
  7768     02BA                     l3479:
  7769                           
  7770                           ;pff.c: 829:  if (disk_initialize() & 0x01) {
  7771     02BA  318D  25AC  3182   	fcall	_disk_initialize
  7772     02BD  3901               	andlw	1
  7773     02BE  1903               	btfsc	3,2
  7774     02BF  2AC1               	goto	u3741
  7775     02C0  2AC2               	goto	u3740
  7776     02C1                     u3741:
  7777     02C1  2AC4               	goto	l3485
  7778     02C2                     u3740:
  7779     02C2                     l3481:
  7780                           
  7781                           ;pff.c: 830:   return FR_NOT_READY;
  7782     02C2  3002               	movlw	2
  7783     02C3  2D2A               	goto	l273
  7784     02C4                     l3485:
  7785                           
  7786                           ;pff.c: 834:  bsect = 0;
  7787     02C4  3000               	movlw	0
  7788     02C5  0021               	movlb	1	; select bank1
  7789     02C6  00CF               	movwf	(pf_mount@bsect+3)^(0+128)
  7790     02C7  3000               	movlw	0
  7791     02C8  00CE               	movwf	(pf_mount@bsect+2)^(0+128)
  7792     02C9  3000               	movlw	0
  7793     02CA  00CD               	movwf	(pf_mount@bsect+1)^(0+128)
  7794     02CB  3000               	movlw	0
  7795     02CC  00CC               	movwf	pf_mount@bsect^(0+128)
  7796     02CD                     l3487:
  7797                           
  7798                           ;pff.c: 835:  fmt = check_fs(buf, bsect);
  7799     02CD  3000               	movlw	0
  7800     02CE  0020               	movlb	0	; select bank0
  7801     02CF  00BE               	movwf	check_fs@sect+3
  7802     02D0  3000               	movlw	0
  7803     02D1  00BD               	movwf	check_fs@sect+2
  7804     02D2  3000               	movlw	0
  7805     02D3  00BC               	movwf	check_fs@sect+1
  7806     02D4  3000               	movlw	0
  7807     02D5  00BB               	movwf	check_fs@sect
  7808     02D6  30A0               	movlw	(low (pf_mount@buf| 0))& (0+255)
  7809     02D7  3195  2561  3182   	fcall	_check_fs
  7810     02DA  0021               	movlb	1	; select bank1
  7811     02DB  00D4               	movwf	pf_mount@fmt^(0+128)
  7812     02DC                     l3489:
  7813                           
  7814                           ;pff.c: 836:  if (fmt == 1) {
  7815     02DC  0354               	decf	pf_mount@fmt^(0+128),w
  7816     02DD  1D03               	btfss	3,2
  7817     02DE  2AE0               	goto	u3751
  7818     02DF  2AE1               	goto	u3750
  7819     02E0                     u3751:
  7820     02E0  2B27               	goto	l3499
  7821     02E1                     u3750:
  7822     02E1                     l3491:
  7823                           
  7824                           ;pff.c: 838:   if (disk_readp(buf, bsect, 446, 16)) {
  7825     02E1  3000               	movlw	0
  7826     02E2  0020               	movlb	0	; select bank0
  7827     02E3  00AA               	movwf	disk_readp@sector+3
  7828     02E4  3000               	movlw	0
  7829     02E5  00A9               	movwf	disk_readp@sector+2
  7830     02E6  3000               	movlw	0
  7831     02E7  00A8               	movwf	disk_readp@sector+1
  7832     02E8  3000               	movlw	0
  7833     02E9  00A7               	movwf	disk_readp@sector
  7834     02EA  30BE               	movlw	190
  7835     02EB  00AB               	movwf	disk_readp@offset
  7836     02EC  3001               	movlw	1
  7837     02ED  00AC               	movwf	disk_readp@offset+1
  7838     02EE  3010               	movlw	16
  7839     02EF  00AD               	movwf	disk_readp@count
  7840     02F0  3000               	movlw	0
  7841     02F1  00AE               	movwf	disk_readp@count+1
  7842     02F2  30A0               	movlw	(low (pf_mount@buf| 0))& (0+255)
  7843     02F3  318B  234C  3182   	fcall	_disk_readp
  7844     02F6  3A00               	xorlw	0
  7845     02F7  1903               	skipnz
  7846     02F8  2AFA               	goto	u3761
  7847     02F9  2AFB               	goto	u3760
  7848     02FA                     u3761:
  7849     02FA  2AFF               	goto	l3495
  7850     02FB                     u3760:
  7851     02FB                     l3493:
  7852                           
  7853                           ;pff.c: 839:    fmt = 3;
  7854     02FB  3003               	movlw	3
  7855     02FC  0021               	movlb	1	; select bank1
  7856     02FD  00D4               	movwf	pf_mount@fmt^(0+128)
  7857                           
  7858                           ;pff.c: 840:   } else {
  7859     02FE  2B27               	goto	l3499
  7860     02FF                     l3495:
  7861                           
  7862                           ;pff.c: 841:    if (buf[4]) {
  7863     02FF  0021               	movlb	1	; select bank1
  7864     0300  0824               	movf	(pf_mount@buf^(0+128)+4),w
  7865     0301  1903               	btfsc	3,2
  7866     0302  2B04               	goto	u3771
  7867     0303  2B05               	goto	u3770
  7868     0304                     u3771:
  7869     0304  2B27               	goto	l3499
  7870     0305                     u3770:
  7871     0305                     l3497:
  7872                           
  7873                           ;pff.c: 842:     bsect = ld_dword(&buf[8]);
  7874     0305  30A8               	movlw	(low ((pf_mount@buf| 0+8)))& (0+255)
  7875     0306  318A  221A  3182   	fcall	_ld_dword
  7876     0309  0873               	movf	?_ld_dword+3,w
  7877     030A  0021               	movlb	1	; select bank1
  7878     030B  00CF               	movwf	(pf_mount@bsect+3)^(0+128)
  7879     030C  0872               	movf	?_ld_dword+2,w
  7880     030D  00CE               	movwf	(pf_mount@bsect+2)^(0+128)
  7881     030E  0871               	movf	?_ld_dword+1,w
  7882     030F  00CD               	movwf	(pf_mount@bsect+1)^(0+128)
  7883     0310  0870               	movf	?_ld_dword,w
  7884     0311  00CC               	movwf	pf_mount@bsect^(0+128)
  7885                           
  7886                           ;pff.c: 843:     fmt = check_fs(buf, bsect);
  7887     0312  084F               	movf	(pf_mount@bsect+3)^(0+128),w
  7888     0313  0020               	movlb	0	; select bank0
  7889     0314  00BE               	movwf	check_fs@sect+3
  7890     0315  0021               	movlb	1	; select bank1
  7891     0316  084E               	movf	(pf_mount@bsect+2)^(0+128),w
  7892     0317  0020               	movlb	0	; select bank0
  7893     0318  00BD               	movwf	check_fs@sect+2
  7894     0319  0021               	movlb	1	; select bank1
  7895     031A  084D               	movf	(pf_mount@bsect+1)^(0+128),w
  7896     031B  0020               	movlb	0	; select bank0
  7897     031C  00BC               	movwf	check_fs@sect+1
  7898     031D  0021               	movlb	1	; select bank1
  7899     031E  084C               	movf	pf_mount@bsect^(0+128),w
  7900     031F  0020               	movlb	0	; select bank0
  7901     0320  00BB               	movwf	check_fs@sect
  7902     0321  30A0               	movlw	(low (pf_mount@buf| 0))& (0+255)
  7903     0322  3195  2561  3182   	fcall	_check_fs
  7904     0325  0021               	movlb	1	; select bank1
  7905     0326  00D4               	movwf	pf_mount@fmt^(0+128)
  7906     0327                     l3499:
  7907                           
  7908                           ;pff.c: 847:  if (fmt == 3) return FR_DISK_ERR;
  7909     0327  3003               	movlw	3
  7910     0328  0654               	xorwf	pf_mount@fmt^(0+128),w
  7911     0329  1D03               	btfss	3,2
  7912     032A  2B2C               	goto	u3781
  7913     032B  2B2D               	goto	u3780
  7914     032C                     u3781:
  7915     032C  2B2F               	goto	l3505
  7916     032D                     u3780:
  7917     032D                     l3501:
  7918     032D  3001               	movlw	1
  7919     032E  2D2A               	goto	l273
  7920     032F                     l3505:
  7921                           
  7922                           ;pff.c: 848:  if (fmt) return FR_NO_FILESYSTEM;
  7923     032F  0854               	movf	pf_mount@fmt^(0+128),w
  7924     0330  1903               	btfsc	3,2
  7925     0331  2B33               	goto	u3791
  7926     0332  2B34               	goto	u3790
  7927     0333                     u3791:
  7928     0333  2B36               	goto	l3511
  7929     0334                     u3790:
  7930     0334                     l3507:
  7931     0334  3006               	movlw	6
  7932     0335  2D2A               	goto	l273
  7933     0336                     l3511:
  7934                           
  7935                           ;pff.c: 851:  if (disk_readp(buf, bsect, 13, sizeof (buf))) return FR_DISK_ERR;
  7936     0336  084F               	movf	(pf_mount@bsect+3)^(0+128),w
  7937     0337  0020               	movlb	0	; select bank0
  7938     0338  00AA               	movwf	disk_readp@sector+3
  7939     0339  0021               	movlb	1	; select bank1
  7940     033A  084E               	movf	(pf_mount@bsect+2)^(0+128),w
  7941     033B  0020               	movlb	0	; select bank0
  7942     033C  00A9               	movwf	disk_readp@sector+2
  7943     033D  0021               	movlb	1	; select bank1
  7944     033E  084D               	movf	(pf_mount@bsect+1)^(0+128),w
  7945     033F  0020               	movlb	0	; select bank0
  7946     0340  00A8               	movwf	disk_readp@sector+1
  7947     0341  0021               	movlb	1	; select bank1
  7948     0342  084C               	movf	pf_mount@bsect^(0+128),w
  7949     0343  0020               	movlb	0	; select bank0
  7950     0344  00A7               	movwf	disk_readp@sector
  7951     0345  300D               	movlw	13
  7952     0346  00AB               	movwf	disk_readp@offset
  7953     0347  3000               	movlw	0
  7954     0348  00AC               	movwf	disk_readp@offset+1
  7955     0349  3024               	movlw	36
  7956     034A  00AD               	movwf	disk_readp@count
  7957     034B  3000               	movlw	0
  7958     034C  00AE               	movwf	disk_readp@count+1
  7959     034D  30A0               	movlw	(low (pf_mount@buf| 0))& (0+255)
  7960     034E  318B  234C  3182   	fcall	_disk_readp
  7961     0351  3A00               	xorlw	0
  7962     0352  1903               	skipnz
  7963     0353  2B55               	goto	u3801
  7964     0354  2B56               	goto	u3800
  7965     0355                     u3801:
  7966     0355  2B57               	goto	l3517
  7967     0356                     u3800:
  7968     0356  2B2D               	goto	l3501
  7969     0357                     l3517:
  7970                           
  7971                           ;pff.c: 853:  fsize = ld_word(buf+22 -13);
  7972     0357  30A9               	movlw	(low ((pf_mount@buf| 0+9)))& (0+255)
  7973     0358  3193  23DC  3182   	fcall	_ld_word
  7974     035B  0870               	movf	?_ld_word,w
  7975     035C  0021               	movlb	1	; select bank1
  7976     035D  00D0               	movwf	pf_mount@fsize^(0+128)
  7977     035E  0871               	movf	?_ld_word+1,w
  7978     035F  00D1               	movwf	(pf_mount@fsize^(0+128)+1)
  7979     0360  01D2               	clrf	(pf_mount@fsize^(0+128)+2)
  7980     0361  01D3               	clrf	(pf_mount@fsize^(0+128)+3)
  7981     0362                     l3519:
  7982                           
  7983                           ;pff.c: 854:  if (!fsize) fsize = ld_dword(buf+36 -13);
  7984     0362  0853               	movf	(pf_mount@fsize+3)^(0+128),w
  7985     0363  0452               	iorwf	(pf_mount@fsize+2)^(0+128),w
  7986     0364  0451               	iorwf	(pf_mount@fsize+1)^(0+128),w
  7987     0365  0450               	iorwf	pf_mount@fsize^(0+128),w
  7988     0366  1D03               	skipz
  7989     0367  2B69               	goto	u3811
  7990     0368  2B6A               	goto	u3810
  7991     0369                     u3811:
  7992     0369  2B77               	goto	l3523
  7993     036A                     u3810:
  7994     036A                     l3521:
  7995     036A  30B7               	movlw	(low ((pf_mount@buf| 0+23)))& (0+255)
  7996     036B  318A  221A  3182   	fcall	_ld_dword
  7997     036E  0873               	movf	?_ld_dword+3,w
  7998     036F  0021               	movlb	1	; select bank1
  7999     0370  00D3               	movwf	(pf_mount@fsize+3)^(0+128)
  8000     0371  0872               	movf	?_ld_dword+2,w
  8001     0372  00D2               	movwf	(pf_mount@fsize+2)^(0+128)
  8002     0373  0871               	movf	?_ld_dword+1,w
  8003     0374  00D1               	movwf	(pf_mount@fsize+1)^(0+128)
  8004     0375  0870               	movf	?_ld_dword,w
  8005     0376  00D0               	movwf	pf_mount@fsize^(0+128)
  8006     0377                     l3523:
  8007                           
  8008                           ;pff.c: 856:  fsize *= buf[16 -13];
  8009     0377  0823               	movf	(pf_mount@buf^(0+128)+3),w
  8010     0378  0020               	movlb	0	; select bank0
  8011     0379  00C0               	movwf	??_pf_mount
  8012     037A  01C1               	clrf	??_pf_mount+1
  8013     037B  01C2               	clrf	??_pf_mount+2
  8014     037C  01C3               	clrf	??_pf_mount+3
  8015     037D  0843               	movf	??_pf_mount+3,w
  8016     037E  00F3               	movwf	___lmul@multiplier+3
  8017     037F  0842               	movf	??_pf_mount+2,w
  8018     0380  00F2               	movwf	___lmul@multiplier+2
  8019     0381  0841               	movf	??_pf_mount+1,w
  8020     0382  00F1               	movwf	___lmul@multiplier+1
  8021     0383  0840               	movf	??_pf_mount,w
  8022     0384  00F0               	movwf	___lmul@multiplier
  8023     0385  0021               	movlb	1	; select bank1
  8024     0386  0853               	movf	(pf_mount@fsize+3)^(0+128),w
  8025     0387  00F7               	movwf	___lmul@multiplicand+3
  8026     0388  0852               	movf	(pf_mount@fsize+2)^(0+128),w
  8027     0389  00F6               	movwf	___lmul@multiplicand+2
  8028     038A  0851               	movf	(pf_mount@fsize+1)^(0+128),w
  8029     038B  00F5               	movwf	___lmul@multiplicand+1
  8030     038C  0850               	movf	pf_mount@fsize^(0+128),w
  8031     038D  00F4               	movwf	___lmul@multiplicand
  8032     038E  3194  2454  3182   	fcall	___lmul
  8033     0391  0873               	movf	?___lmul+3,w
  8034     0392  0021               	movlb	1	; select bank1
  8035     0393  00D3               	movwf	(pf_mount@fsize+3)^(0+128)
  8036     0394  0872               	movf	?___lmul+2,w
  8037     0395  00D2               	movwf	(pf_mount@fsize+2)^(0+128)
  8038     0396  0871               	movf	?___lmul+1,w
  8039     0397  00D1               	movwf	(pf_mount@fsize+1)^(0+128)
  8040     0398  0870               	movf	?___lmul,w
  8041     0399  00D0               	movwf	pf_mount@fsize^(0+128)
  8042     039A                     l3525:
  8043                           
  8044                           ;pff.c: 857:  fs->fatbase = bsect + ld_word(buf+14 -13);
  8045     039A  084C               	movf	pf_mount@bsect^(0+128),w
  8046     039B  0020               	movlb	0	; select bank0
  8047     039C  00C0               	movwf	??_pf_mount
  8048     039D  0021               	movlb	1	; select bank1
  8049     039E  084D               	movf	(pf_mount@bsect+1)^(0+128),w
  8050     039F  0020               	movlb	0	; select bank0
  8051     03A0  00C1               	movwf	??_pf_mount+1
  8052     03A1  0021               	movlb	1	; select bank1
  8053     03A2  084E               	movf	(pf_mount@bsect+2)^(0+128),w
  8054     03A3  0020               	movlb	0	; select bank0
  8055     03A4  00C2               	movwf	??_pf_mount+2
  8056     03A5  0021               	movlb	1	; select bank1
  8057     03A6  084F               	movf	(pf_mount@bsect+3)^(0+128),w
  8058     03A7  0020               	movlb	0	; select bank0
  8059     03A8  00C3               	movwf	??_pf_mount+3
  8060     03A9  30A1               	movlw	(low ((pf_mount@buf| 0+1)))& (0+255)
  8061     03AA  3193  23DC  3182   	fcall	_ld_word
  8062     03AD  0870               	movf	?_ld_word,w
  8063     03AE  0020               	movlb	0	; select bank0
  8064     03AF  00C4               	movwf	??_pf_mount+4
  8065     03B0  0871               	movf	?_ld_word+1,w
  8066     03B1  00C5               	movwf	??_pf_mount+5
  8067     03B2  01C6               	clrf	??_pf_mount+6
  8068     03B3  01C7               	clrf	??_pf_mount+7
  8069     03B4  0844               	movf	??_pf_mount+4,w
  8070     03B5  07C0               	addwf	??_pf_mount,f
  8071     03B6  0845               	movf	??_pf_mount+5,w
  8072     03B7  3DC1               	addwfc	??_pf_mount+1,f
  8073     03B8  0846               	movf	??_pf_mount+6,w
  8074     03B9  3DC2               	addwfc	??_pf_mount+2,f
  8075     03BA  0847               	movf	??_pf_mount+7,w
  8076     03BB  3DC3               	addwfc	??_pf_mount+3,f
  8077     03BC  0021               	movlb	1	; select bank1
  8078     03BD  0855               	movf	pf_mount@fs^(0+128),w
  8079     03BE  3E0A               	addlw	10
  8080     03BF  0086               	movwf	6
  8081     03C0  3001               	movlw	1	; select bank2/3
  8082     03C1  0087               	movwf	7
  8083     03C2  0020               	movlb	0	; select bank0
  8084     03C3  0840               	movf	??_pf_mount,w
  8085     03C4  3FC0               	movwi [0]fsr1
  8086     03C5  0841               	movf	??_pf_mount+1,w
  8087     03C6  3FC1               	movwi [1]fsr1
  8088     03C7  0842               	movf	??_pf_mount+2,w
  8089     03C8  3FC2               	movwi [2]fsr1
  8090     03C9  0843               	movf	??_pf_mount+3,w
  8091     03CA  3FC3               	movwi [3]fsr1
  8092     03CB                     l3527:
  8093                           
  8094                           ;pff.c: 858:  fs->csize = buf[13 -13];
  8095     03CB  0021               	movlb	1	; select bank1
  8096     03CC  0855               	movf	pf_mount@fs^(0+128),w
  8097     03CD  3E02               	addlw	2
  8098     03CE  0086               	movwf	6
  8099     03CF  3001               	movlw	1	; select bank2/3
  8100     03D0  0087               	movwf	7
  8101     03D1  0820               	movf	pf_mount@buf^(0+128),w
  8102     03D2  0081               	movwf	1
  8103     03D3                     l3529:
  8104                           
  8105                           ;pff.c: 859:  fs->n_rootdir = ld_word(buf+17 -13);
  8106     03D3  30A4               	movlw	(low ((pf_mount@buf| 0+4)))& (0+255)
  8107     03D4  3193  23DC  3182   	fcall	_ld_word
  8108     03D7  0021               	movlb	1	; select bank1
  8109     03D8  0855               	movf	pf_mount@fs^(0+128),w
  8110     03D9  3E04               	addlw	4
  8111     03DA  0086               	movwf	6
  8112     03DB  3001               	movlw	1	; select bank2/3
  8113     03DC  0087               	movwf	7
  8114     03DD  0870               	movf	?_ld_word,w
  8115     03DE  3FC0               	movwi [0]fsr1
  8116     03DF  0871               	movf	?_ld_word+1,w
  8117     03E0  3FC1               	movwi [1]fsr1
  8118     03E1                     l3531:
  8119                           
  8120                           ;pff.c: 860:  tsect = ld_word(buf+19 -13);
  8121     03E1  30A6               	movlw	(low ((pf_mount@buf| 0+6)))& (0+255)
  8122     03E2  3193  23DC  3182   	fcall	_ld_word
  8123     03E5  0870               	movf	?_ld_word,w
  8124     03E6  0021               	movlb	1	; select bank1
  8125     03E7  00C4               	movwf	pf_mount@tsect^(0+128)
  8126     03E8  0871               	movf	?_ld_word+1,w
  8127     03E9  00C5               	movwf	(pf_mount@tsect^(0+128)+1)
  8128     03EA  01C6               	clrf	(pf_mount@tsect^(0+128)+2)
  8129     03EB  01C7               	clrf	(pf_mount@tsect^(0+128)+3)
  8130     03EC                     l3533:
  8131                           
  8132                           ;pff.c: 861:  if (!tsect) tsect = ld_dword(buf+32 -13);
  8133     03EC  0847               	movf	(pf_mount@tsect+3)^(0+128),w
  8134     03ED  0446               	iorwf	(pf_mount@tsect+2)^(0+128),w
  8135     03EE  0445               	iorwf	(pf_mount@tsect+1)^(0+128),w
  8136     03EF  0444               	iorwf	pf_mount@tsect^(0+128),w
  8137     03F0  1D03               	skipz
  8138     03F1  2BF3               	goto	u3821
  8139     03F2  2BF4               	goto	u3820
  8140     03F3                     u3821:
  8141     03F3  2C01               	goto	l282
  8142     03F4                     u3820:
  8143     03F4                     l3535:
  8144     03F4  30B3               	movlw	(low ((pf_mount@buf| 0+19)))& (0+255)
  8145     03F5  318A  221A  3182   	fcall	_ld_dword
  8146     03F8  0873               	movf	?_ld_dword+3,w
  8147     03F9  0021               	movlb	1	; select bank1
  8148     03FA  00C7               	movwf	(pf_mount@tsect+3)^(0+128)
  8149     03FB  0872               	movf	?_ld_dword+2,w
  8150     03FC  00C6               	movwf	(pf_mount@tsect+2)^(0+128)
  8151     03FD  0871               	movf	?_ld_dword+1,w
  8152     03FE  00C5               	movwf	(pf_mount@tsect+1)^(0+128)
  8153     03FF  0870               	movf	?_ld_dword,w
  8154     0400  00C4               	movwf	pf_mount@tsect^(0+128)
  8155     0401                     l282:
  8156                           
  8157                           ;pff.c: 862:  mclst = (tsect
  8158     0401  0855               	movf	pf_mount@fs^(0+128),w
  8159     0402  3E02               	addlw	2
  8160     0403  0086               	movwf	6
  8161     0404  3001               	movlw	1	; select bank2/3
  8162     0405  0087               	movwf	7
  8163     0406  0801               	movf	1,w
  8164     0407  0020               	movlb	0	; select bank0
  8165     0408  00C0               	movwf	??_pf_mount
  8166     0409  01C1               	clrf	??_pf_mount+1
  8167     040A  01C2               	clrf	??_pf_mount+2
  8168     040B  01C3               	clrf	??_pf_mount+3
  8169     040C  0843               	movf	??_pf_mount+3,w
  8170     040D  00A3               	movwf	___lldiv@divisor+3
  8171     040E  0842               	movf	??_pf_mount+2,w
  8172     040F  00A2               	movwf	___lldiv@divisor+2
  8173     0410  0841               	movf	??_pf_mount+1,w
  8174     0411  00A1               	movwf	___lldiv@divisor+1
  8175     0412  0840               	movf	??_pf_mount,w
  8176     0413  00A0               	movwf	___lldiv@divisor
  8177     0414  0021               	movlb	1	; select bank1
  8178     0415  0844               	movf	pf_mount@tsect^(0+128),w
  8179     0416  0020               	movlb	0	; select bank0
  8180     0417  00C4               	movwf	??_pf_mount+4
  8181     0418  0021               	movlb	1	; select bank1
  8182     0419  0845               	movf	(pf_mount@tsect+1)^(0+128),w
  8183     041A  0020               	movlb	0	; select bank0
  8184     041B  00C5               	movwf	??_pf_mount+5
  8185     041C  0021               	movlb	1	; select bank1
  8186     041D  0846               	movf	(pf_mount@tsect+2)^(0+128),w
  8187     041E  0020               	movlb	0	; select bank0
  8188     041F  00C6               	movwf	??_pf_mount+6
  8189     0420  0021               	movlb	1	; select bank1
  8190     0421  0847               	movf	(pf_mount@tsect+3)^(0+128),w
  8191     0422  0020               	movlb	0	; select bank0
  8192     0423  00C7               	movwf	??_pf_mount+7
  8193     0424  0021               	movlb	1	; select bank1
  8194     0425  0855               	movf	pf_mount@fs^(0+128),w
  8195     0426  3E04               	addlw	4
  8196     0427  0086               	movwf	6
  8197     0428  3001               	movlw	1	; select bank2/3
  8198     0429  0087               	movwf	7
  8199     042A  3F40               	moviw [0]fsr1
  8200     042B  0020               	movlb	0	; select bank0
  8201     042C  00C8               	movwf	??_pf_mount+8
  8202     042D  3F41               	moviw [1]fsr1
  8203     042E  00C9               	movwf	??_pf_mount+9
  8204     042F  3004               	movlw	4
  8205     0430                     u3835:
  8206     0430  36C9               	lsrf	??_pf_mount+9,f
  8207     0431  0CC8               	rrf	??_pf_mount+8,f
  8208     0432  0B89               	decfsz	9,f
  8209     0433  2C30               	goto	u3835
  8210     0434  0848               	movf	??_pf_mount+8,w
  8211     0435  00CA               	movwf	??_pf_mount+10
  8212     0436  0849               	movf	??_pf_mount+9,w
  8213     0437  00CB               	movwf	??_pf_mount+11
  8214     0438  01CC               	clrf	??_pf_mount+12
  8215     0439  01CD               	clrf	??_pf_mount+13
  8216     043A  30A1               	movlw	(low ((pf_mount@buf| 0+1)))& (0+255)
  8217     043B  3193  23DC  3182   	fcall	_ld_word
  8218     043E  0870               	movf	?_ld_word,w
  8219     043F  0020               	movlb	0	; select bank0
  8220     0440  00CE               	movwf	??_pf_mount+14
  8221     0441  0871               	movf	?_ld_word+1,w
  8222     0442  00CF               	movwf	??_pf_mount+15
  8223     0443  01D0               	clrf	??_pf_mount+16
  8224     0444  01D1               	clrf	??_pf_mount+17
  8225     0445  09CE               	comf	??_pf_mount+14,f
  8226     0446  09CF               	comf	??_pf_mount+15,f
  8227     0447  09D0               	comf	??_pf_mount+16,f
  8228     0448  09D1               	comf	??_pf_mount+17,f
  8229     0449  0ACE               	incf	??_pf_mount+14,f
  8230     044A  1903               	skipnz
  8231     044B  0ACF               	incf	??_pf_mount+15,f
  8232     044C  1903               	skipnz
  8233     044D  0AD0               	incf	??_pf_mount+16,f
  8234     044E  1903               	skipnz
  8235     044F  0AD1               	incf	??_pf_mount+17,f
  8236     0450  0021               	movlb	1	; select bank1
  8237     0451  0850               	movf	pf_mount@fsize^(0+128),w
  8238     0452  0020               	movlb	0	; select bank0
  8239     0453  02CE               	subwf	??_pf_mount+14,f
  8240     0454  0021               	movlb	1	; select bank1
  8241     0455  0851               	movf	(pf_mount@fsize+1)^(0+128),w
  8242     0456  0020               	movlb	0	; select bank0
  8243     0457  3BCF               	subwfb	??_pf_mount+15,f
  8244     0458  0021               	movlb	1	; select bank1
  8245     0459  0852               	movf	(pf_mount@fsize+2)^(0+128),w
  8246     045A  0020               	movlb	0	; select bank0
  8247     045B  3BD0               	subwfb	??_pf_mount+16,f
  8248     045C  0021               	movlb	1	; select bank1
  8249     045D  0853               	movf	(pf_mount@fsize+3)^(0+128),w
  8250     045E  0020               	movlb	0	; select bank0
  8251     045F  3BD1               	subwfb	??_pf_mount+17,f
  8252     0460  084A               	movf	??_pf_mount+10,w
  8253     0461  02CE               	subwf	??_pf_mount+14,f
  8254     0462  084B               	movf	??_pf_mount+11,w
  8255     0463  3BCF               	subwfb	??_pf_mount+15,f
  8256     0464  084C               	movf	??_pf_mount+12,w
  8257     0465  3BD0               	subwfb	??_pf_mount+16,f
  8258     0466  084D               	movf	??_pf_mount+13,w
  8259     0467  3BD1               	subwfb	??_pf_mount+17,f
  8260     0468  084E               	movf	??_pf_mount+14,w
  8261     0469  07C4               	addwf	??_pf_mount+4,f
  8262     046A  084F               	movf	??_pf_mount+15,w
  8263     046B  3DC5               	addwfc	??_pf_mount+5,f
  8264     046C  0850               	movf	??_pf_mount+16,w
  8265     046D  3DC6               	addwfc	??_pf_mount+6,f
  8266     046E  0851               	movf	??_pf_mount+17,w
  8267     046F  3DC7               	addwfc	??_pf_mount+7,f
  8268     0470  0847               	movf	??_pf_mount+7,w
  8269     0471  00A7               	movwf	___lldiv@dividend+3
  8270     0472  0846               	movf	??_pf_mount+6,w
  8271     0473  00A6               	movwf	___lldiv@dividend+2
  8272     0474  0845               	movf	??_pf_mount+5,w
  8273     0475  00A5               	movwf	___lldiv@dividend+1
  8274     0476  0844               	movf	??_pf_mount+4,w
  8275     0477  00A4               	movwf	___lldiv@dividend
  8276     0478  3195  25BB  3182   	fcall	___lldiv
  8277     047B  3002               	movlw	2
  8278     047C  0020               	movlb	0	; select bank0
  8279     047D  0720               	addwf	?___lldiv,w
  8280     047E  0021               	movlb	1	; select bank1
  8281     047F  00C8               	movwf	pf_mount@mclst^(0+128)
  8282     0480  3000               	movlw	0
  8283     0481  0020               	movlb	0	; select bank0
  8284     0482  3D21               	addwfc	?___lldiv+1,w
  8285     0483  0021               	movlb	1	; select bank1
  8286     0484  00C9               	movwf	(pf_mount@mclst+1)^(0+128)
  8287     0485  3000               	movlw	0
  8288     0486  0020               	movlb	0	; select bank0
  8289     0487  3D22               	addwfc	?___lldiv+2,w
  8290     0488  0021               	movlb	1	; select bank1
  8291     0489  00CA               	movwf	(pf_mount@mclst+2)^(0+128)
  8292     048A  3000               	movlw	0
  8293     048B  0020               	movlb	0	; select bank0
  8294     048C  3D23               	addwfc	?___lldiv+3,w
  8295     048D  0021               	movlb	1	; select bank1
  8296     048E  00CB               	movwf	(pf_mount@mclst+3)^(0+128)
  8297     048F                     l3537:
  8298                           
  8299                           ;pff.c: 865:  fs->n_fatent = (DWORD)mclst;
  8300     048F  0855               	movf	pf_mount@fs^(0+128),w
  8301     0490  3E06               	addlw	6
  8302     0491  0086               	movwf	6
  8303     0492  3001               	movlw	1	; select bank2/3
  8304     0493  0087               	movwf	7
  8305     0494  0848               	movf	pf_mount@mclst^(0+128),w
  8306     0495  3FC0               	movwi [0]fsr1
  8307     0496  0849               	movf	(pf_mount@mclst+1)^(0+128),w
  8308     0497  3FC1               	movwi [1]fsr1
  8309     0498  084A               	movf	(pf_mount@mclst+2)^(0+128),w
  8310     0499  3FC2               	movwi [2]fsr1
  8311     049A  084B               	movf	(pf_mount@mclst+3)^(0+128),w
  8312     049B  3FC3               	movwi [3]fsr1
  8313     049C                     l3539:
  8314                           
  8315                           ;pff.c: 867:  fmt = 0;
  8316     049C  01D4               	clrf	pf_mount@fmt^(0+128)
  8317     049D                     l3551:	
  8318                           ;pff.c: 868:  if (0 && mclst < 0xFF7) fmt = 1;
  8319                           
  8320     049D  084B               	movf	(pf_mount@mclst+3)^(0+128),w
  8321     049E  1D03               	btfss	3,2
  8322     049F  2CAB               	goto	u3840
  8323     04A0  084A               	movf	(pf_mount@mclst+2)^(0+128),w
  8324     04A1  1D03               	btfss	3,2
  8325     04A2  2CAB               	goto	u3840
  8326     04A3  30F7               	movlw	247
  8327     04A4  0248               	subwf	pf_mount@mclst^(0+128),w
  8328     04A5  30FF               	movlw	255
  8329     04A6  3B49               	subwfb	(pf_mount@mclst+1)^(0+128),w
  8330     04A7  1C03               	btfss	3,0
  8331     04A8  2CAA               	goto	u3841
  8332     04A9  2CAB               	goto	u3840
  8333     04AA                     u3841:
  8334     04AA  2CAE               	goto	l3555
  8335     04AB                     u3840:
  8336     04AB                     l3553:
  8337     04AB  3003               	movlw	3
  8338     04AC  0021               	movlb	1	; select bank1
  8339     04AD  00D4               	movwf	pf_mount@fmt^(0+128)
  8340     04AE                     l3555:
  8341                           
  8342                           ;pff.c: 871:  if (!fmt) return FR_NO_FILESYSTEM;
  8343     04AE  0021               	movlb	1	; select bank1
  8344     04AF  0854               	movf	pf_mount@fmt^(0+128),w
  8345     04B0  1D03               	btfss	3,2
  8346     04B1  2CB3               	goto	u3851
  8347     04B2  2CB4               	goto	u3850
  8348     04B3                     u3851:
  8349     04B3  2CB5               	goto	l3561
  8350     04B4                     u3850:
  8351     04B4  2B34               	goto	l3507
  8352     04B5                     l3561:
  8353                           
  8354                           ;pff.c: 872:  fs->fs_type = fmt;
  8355     04B5  0855               	movf	pf_mount@fs^(0+128),w
  8356     04B6  0086               	movwf	6
  8357     04B7  3001               	movlw	1	; select bank2/3
  8358     04B8  0087               	movwf	7
  8359     04B9  0854               	movf	pf_mount@fmt^(0+128),w
  8360     04BA  0081               	movwf	1
  8361     04BB                     l3565:	
  8362                           ;pff.c: 874:  if (1 || (1 && fmt == 3)) {
  8363                           
  8364                           
  8365                           ;pff.c: 875:   fs->dirbase = ld_dword(buf+(44 -13));
  8366     04BB  30BF               	movlw	(low ((pf_mount@buf| 0+31)))& (0+255)
  8367     04BC  318A  221A  3182   	fcall	_ld_dword
  8368     04BF  0021               	movlb	1	; select bank1
  8369     04C0  0855               	movf	pf_mount@fs^(0+128),w
  8370     04C1  3E0E               	addlw	14
  8371     04C2  0086               	movwf	6
  8372     04C3  3001               	movlw	1	; select bank2/3
  8373     04C4  0087               	movwf	7
  8374     04C5  0870               	movf	?_ld_dword,w
  8375     04C6  3FC0               	movwi [0]fsr1
  8376     04C7  0871               	movf	?_ld_dword+1,w
  8377     04C8  3FC1               	movwi [1]fsr1
  8378     04C9  0872               	movf	?_ld_dword+2,w
  8379     04CA  3FC2               	movwi [2]fsr1
  8380     04CB  0873               	movf	?_ld_dword+3,w
  8381     04CC  3FC3               	movwi [3]fsr1
  8382     04CD                     l290:	
  8383                           ;pff.c: 878:  }
  8384                           
  8385                           
  8386                           ;pff.c: 879:  fs->database = fs->fatbase + fsize + fs->n_rootdir / 16;
  8387     04CD  0850               	movf	pf_mount@fsize^(0+128),w
  8388     04CE  0020               	movlb	0	; select bank0
  8389     04CF  00C0               	movwf	??_pf_mount
  8390     04D0  0021               	movlb	1	; select bank1
  8391     04D1  0851               	movf	(pf_mount@fsize+1)^(0+128),w
  8392     04D2  0020               	movlb	0	; select bank0
  8393     04D3  00C1               	movwf	??_pf_mount+1
  8394     04D4  0021               	movlb	1	; select bank1
  8395     04D5  0852               	movf	(pf_mount@fsize+2)^(0+128),w
  8396     04D6  0020               	movlb	0	; select bank0
  8397     04D7  00C2               	movwf	??_pf_mount+2
  8398     04D8  0021               	movlb	1	; select bank1
  8399     04D9  0853               	movf	(pf_mount@fsize+3)^(0+128),w
  8400     04DA  0020               	movlb	0	; select bank0
  8401     04DB  00C3               	movwf	??_pf_mount+3
  8402     04DC  0021               	movlb	1	; select bank1
  8403     04DD  0855               	movf	pf_mount@fs^(0+128),w
  8404     04DE  3E0A               	addlw	10
  8405     04DF  0086               	movwf	6
  8406     04E0  3001               	movlw	1	; select bank2/3
  8407     04E1  0087               	movwf	7
  8408     04E2  3F40               	moviw [0]fsr1
  8409     04E3  0020               	movlb	0	; select bank0
  8410     04E4  00C4               	movwf	??_pf_mount+4
  8411     04E5  3F41               	moviw [1]fsr1
  8412     04E6  00C5               	movwf	??_pf_mount+5
  8413     04E7  3F42               	moviw [2]fsr1
  8414     04E8  00C6               	movwf	??_pf_mount+6
  8415     04E9  3F43               	moviw [3]fsr1
  8416     04EA  00C7               	movwf	??_pf_mount+7
  8417     04EB  0021               	movlb	1	; select bank1
  8418     04EC  0855               	movf	pf_mount@fs^(0+128),w
  8419     04ED  3E04               	addlw	4
  8420     04EE  0086               	movwf	6
  8421     04EF  3001               	movlw	1	; select bank2/3
  8422     04F0  0087               	movwf	7
  8423     04F1  3F40               	moviw [0]fsr1
  8424     04F2  0020               	movlb	0	; select bank0
  8425     04F3  00C8               	movwf	??_pf_mount+8
  8426     04F4  3F41               	moviw [1]fsr1
  8427     04F5  00C9               	movwf	??_pf_mount+9
  8428     04F6  3004               	movlw	4
  8429     04F7                     u3865:
  8430     04F7  36C9               	lsrf	??_pf_mount+9,f
  8431     04F8  0CC8               	rrf	??_pf_mount+8,f
  8432     04F9  0B89               	decfsz	9,f
  8433     04FA  2CF7               	goto	u3865
  8434     04FB  0848               	movf	??_pf_mount+8,w
  8435     04FC  00CA               	movwf	??_pf_mount+10
  8436     04FD  0849               	movf	??_pf_mount+9,w
  8437     04FE  00CB               	movwf	??_pf_mount+11
  8438     04FF  01CC               	clrf	??_pf_mount+12
  8439     0500  01CD               	clrf	??_pf_mount+13
  8440     0501  084A               	movf	??_pf_mount+10,w
  8441     0502  07C4               	addwf	??_pf_mount+4,f
  8442     0503  084B               	movf	??_pf_mount+11,w
  8443     0504  3DC5               	addwfc	??_pf_mount+5,f
  8444     0505  084C               	movf	??_pf_mount+12,w
  8445     0506  3DC6               	addwfc	??_pf_mount+6,f
  8446     0507  084D               	movf	??_pf_mount+13,w
  8447     0508  3DC7               	addwfc	??_pf_mount+7,f
  8448     0509  0844               	movf	??_pf_mount+4,w
  8449     050A  07C0               	addwf	??_pf_mount,f
  8450     050B  0845               	movf	??_pf_mount+5,w
  8451     050C  3DC1               	addwfc	??_pf_mount+1,f
  8452     050D  0846               	movf	??_pf_mount+6,w
  8453     050E  3DC2               	addwfc	??_pf_mount+2,f
  8454     050F  0847               	movf	??_pf_mount+7,w
  8455     0510  3DC3               	addwfc	??_pf_mount+3,f
  8456     0511  0021               	movlb	1	; select bank1
  8457     0512  0855               	movf	pf_mount@fs^(0+128),w
  8458     0513  3E12               	addlw	18
  8459     0514  0086               	movwf	6
  8460     0515  3001               	movlw	1	; select bank2/3
  8461     0516  0087               	movwf	7
  8462     0517  0020               	movlb	0	; select bank0
  8463     0518  0840               	movf	??_pf_mount,w
  8464     0519  3FC0               	movwi [0]fsr1
  8465     051A  0841               	movf	??_pf_mount+1,w
  8466     051B  3FC1               	movwi [1]fsr1
  8467     051C  0842               	movf	??_pf_mount+2,w
  8468     051D  3FC2               	movwi [2]fsr1
  8469     051E  0843               	movf	??_pf_mount+3,w
  8470     051F  3FC3               	movwi [3]fsr1
  8471     0520                     l3569:
  8472                           
  8473                           ;pff.c: 881:  fs->flag = 0;
  8474     0520  0021               	movlb	1	; select bank1
  8475     0521  0A55               	incf	pf_mount@fs^(0+128),w
  8476     0522  0086               	movwf	6
  8477     0523  3001               	movlw	1	; select bank2/3
  8478     0524  0087               	movwf	7
  8479     0525  0181               	clrf	1
  8480     0526                     l3571:
  8481                           
  8482                           ;pff.c: 882:  FatFs = fs;
  8483     0526  0855               	movf	pf_mount@fs^(0+128),w
  8484     0527  0020               	movlb	0	; select bank0
  8485     0528  00EF               	movwf	_FatFs
  8486     0529                     l3573:
  8487                           
  8488                           ;pff.c: 884:  return FR_OK;
  8489     0529  3000               	movlw	0
  8490     052A                     l273:
  8491     052A  0008               	return
  8492     052B                     __end_of_pf_mount:
  8493                           
  8494                           	psect	text21
  8495     0A1A                     __ptext21:	
  8496 ;; *************** function _ld_dword *****************
  8497 ;; Defined at:
  8498 ;;		line 393 in file "pff.c"
  8499 ;; Parameters:    Size  Location     Type
  8500 ;;  ptr             1    wreg     PTR const unsigned char 
  8501 ;;		 -> pf_open@dir(32), pf_mount@buf(36), get_fat@buf(4), 
  8502 ;; Auto vars:     Size  Location     Type
  8503 ;;  ptr             1    4[BANK0 ] PTR const unsigned char 
  8504 ;;		 -> pf_open@dir(32), pf_mount@buf(36), get_fat@buf(4), 
  8505 ;;  rv              4    0[BANK0 ] unsigned long 
  8506 ;; Return value:  Size  Location     Type
  8507 ;;                  4    0[COMMON] unsigned long 
  8508 ;; Registers used:
  8509 ;;		wreg, fsr1l, fsr1h, status,2, status,0
  8510 ;; Tracked objects:
  8511 ;;		On entry : 0/0
  8512 ;;		On exit  : 0/0
  8513 ;;		Unchanged: 0/0
  8514 ;; Data sizes:     COMMON   BANK0   BANK1   BANK2   BANK3   BANK4   BANK5   BANK6   BANK7   BANK8   BANK9  BANK10  BANK1
      +1  BANK12  BANK13  BANK14  BANK15  BANK16  BANK17  BANK18  BANK19  BANK20  BANK21  BANK22  BANK23  BANK24  BANK25
  8515 ;;      Params:         4       0       0       0       0       0       0       0       0       0       0       0       
      +0       0       0       0       0       0       0       0       0       0       0       0       0       0       0
  8516 ;;      Locals:         0       5       0       0       0       0       0       0       0       0       0       0       
      +0       0       0       0       0       0       0       0       0       0       0       0       0       0       0
  8517 ;;      Temps:          8       0       0       0       0       0       0       0       0       0       0       0       
      +0       0       0       0       0       0       0       0       0       0       0       0       0       0       0
  8518 ;;      Totals:        12       5       0       0       0       0       0       0       0       0       0       0       
      +0       0       0       0       0       0       0       0       0       0       0       0       0       0       0
  8519 ;;Total ram usage:       17 bytes
  8520 ;; Hardware stack levels used: 1
  8521 ;; This function calls:
  8522 ;;		Nothing
  8523 ;; This function is called by:
  8524 ;;		_get_fat
  8525 ;;		_pf_mount
  8526 ;;		_pf_open
  8527 ;; This function uses a non-reentrant model
  8528 ;;
  8529                           
  8530     0A1A                     _ld_dword:	
  8531                           ;psect for function _ld_dword
  8532                           
  8533                           
  8534                           ;incstack = 0
  8535                           ; Regs used in _ld_dword: [wreg+fsr1l+fsr1h+status,2+status,0]
  8536                           ;ld_dword@ptr stored from wreg
  8537     0A1A  0020               	movlb	0	; select bank0
  8538     0A1B  00A4               	movwf	ld_dword@ptr
  8539     0A1C                     l2555:
  8540                           
  8541                           ;pff.c: 393: static DWORD ld_dword (const BYTE* ptr);pff.c: 394: {;pff.c: 395:  DWORD rv
      +                          ;;pff.c: 397:  rv = ptr[3];
  8542     0A1C  0824               	movf	ld_dword@ptr,w
  8543     0A1D  3E03               	addlw	3
  8544     0A1E  0086               	movwf	6
  8545     0A1F  0187               	clrf	7
  8546     0A20  0801               	movf	1,w
  8547     0A21  00F4               	movwf	??_ld_dword
  8548     0A22  01F5               	clrf	??_ld_dword+1
  8549     0A23  01F6               	clrf	??_ld_dword+2
  8550     0A24  01F7               	clrf	??_ld_dword+3
  8551     0A25  0877               	movf	??_ld_dword+3,w
  8552     0A26  00A3               	movwf	ld_dword@rv+3
  8553     0A27  0876               	movf	??_ld_dword+2,w
  8554     0A28  00A2               	movwf	ld_dword@rv+2
  8555     0A29  0875               	movf	??_ld_dword+1,w
  8556     0A2A  00A1               	movwf	ld_dword@rv+1
  8557     0A2B  0874               	movf	??_ld_dword,w
  8558     0A2C  00A0               	movwf	ld_dword@rv
  8559                           
  8560                           ;pff.c: 398:  rv = rv << 8 | ptr[2];
  8561     0A2D  0824               	movf	ld_dword@ptr,w
  8562     0A2E  3E02               	addlw	2
  8563     0A2F  0086               	movwf	6
  8564     0A30  0187               	clrf	7
  8565     0A31  0801               	movf	1,w
  8566     0A32  00F4               	movwf	??_ld_dword
  8567     0A33  01F5               	clrf	??_ld_dword+1
  8568     0A34  01F6               	clrf	??_ld_dword+2
  8569     0A35  01F7               	clrf	??_ld_dword+3
  8570     0A36  0820               	movf	ld_dword@rv,w
  8571     0A37  00F8               	movwf	??_ld_dword+4
  8572     0A38  0821               	movf	ld_dword@rv+1,w
  8573     0A39  00F9               	movwf	??_ld_dword+5
  8574     0A3A  0822               	movf	ld_dword@rv+2,w
  8575     0A3B  00FA               	movwf	??_ld_dword+6
  8576     0A3C  0823               	movf	ld_dword@rv+3,w
  8577     0A3D  00FB               	movwf	??_ld_dword+7
  8578     0A3E  3008               	movlw	8
  8579     0A3F                     u2225:
  8580     0A3F  35F8               	lslf	??_ld_dword+4,f
  8581     0A40  0DF9               	rlf	??_ld_dword+5,f
  8582     0A41  0DFA               	rlf	??_ld_dword+6,f
  8583     0A42  0DFB               	rlf	??_ld_dword+7,f
  8584     0A43                     u2220:
  8585     0A43  0B89               	decfsz	9,f
  8586     0A44  2A3F               	goto	u2225
  8587     0A45  0878               	movf	??_ld_dword+4,w
  8588     0A46  04F4               	iorwf	??_ld_dword,f
  8589     0A47  0879               	movf	??_ld_dword+5,w
  8590     0A48  04F5               	iorwf	??_ld_dword+1,f
  8591     0A49  087A               	movf	??_ld_dword+6,w
  8592     0A4A  04F6               	iorwf	??_ld_dword+2,f
  8593     0A4B  087B               	movf	??_ld_dword+7,w
  8594     0A4C  04F7               	iorwf	??_ld_dword+3,f
  8595     0A4D  0877               	movf	??_ld_dword+3,w
  8596     0A4E  00A3               	movwf	ld_dword@rv+3
  8597     0A4F  0876               	movf	??_ld_dword+2,w
  8598     0A50  00A2               	movwf	ld_dword@rv+2
  8599     0A51  0875               	movf	??_ld_dword+1,w
  8600     0A52  00A1               	movwf	ld_dword@rv+1
  8601     0A53  0874               	movf	??_ld_dword,w
  8602     0A54  00A0               	movwf	ld_dword@rv
  8603                           
  8604                           ;pff.c: 399:  rv = rv << 8 | ptr[1];
  8605     0A55  0A24               	incf	ld_dword@ptr,w
  8606     0A56  0086               	movwf	6
  8607     0A57  0187               	clrf	7
  8608     0A58  0801               	movf	1,w
  8609     0A59  00F4               	movwf	??_ld_dword
  8610     0A5A  01F5               	clrf	??_ld_dword+1
  8611     0A5B  01F6               	clrf	??_ld_dword+2
  8612     0A5C  01F7               	clrf	??_ld_dword+3
  8613     0A5D  0820               	movf	ld_dword@rv,w
  8614     0A5E  00F8               	movwf	??_ld_dword+4
  8615     0A5F  0821               	movf	ld_dword@rv+1,w
  8616     0A60  00F9               	movwf	??_ld_dword+5
  8617     0A61  0822               	movf	ld_dword@rv+2,w
  8618     0A62  00FA               	movwf	??_ld_dword+6
  8619     0A63  0823               	movf	ld_dword@rv+3,w
  8620     0A64  00FB               	movwf	??_ld_dword+7
  8621     0A65  3008               	movlw	8
  8622     0A66                     u2235:
  8623     0A66  35F8               	lslf	??_ld_dword+4,f
  8624     0A67  0DF9               	rlf	??_ld_dword+5,f
  8625     0A68  0DFA               	rlf	??_ld_dword+6,f
  8626     0A69  0DFB               	rlf	??_ld_dword+7,f
  8627     0A6A                     u2230:
  8628     0A6A  0B89               	decfsz	9,f
  8629     0A6B  2A66               	goto	u2235
  8630     0A6C  0878               	movf	??_ld_dword+4,w
  8631     0A6D  04F4               	iorwf	??_ld_dword,f
  8632     0A6E  0879               	movf	??_ld_dword+5,w
  8633     0A6F  04F5               	iorwf	??_ld_dword+1,f
  8634     0A70  087A               	movf	??_ld_dword+6,w
  8635     0A71  04F6               	iorwf	??_ld_dword+2,f
  8636     0A72  087B               	movf	??_ld_dword+7,w
  8637     0A73  04F7               	iorwf	??_ld_dword+3,f
  8638     0A74  0877               	movf	??_ld_dword+3,w
  8639     0A75  00A3               	movwf	ld_dword@rv+3
  8640     0A76  0876               	movf	??_ld_dword+2,w
  8641     0A77  00A2               	movwf	ld_dword@rv+2
  8642     0A78  0875               	movf	??_ld_dword+1,w
  8643     0A79  00A1               	movwf	ld_dword@rv+1
  8644     0A7A  0874               	movf	??_ld_dword,w
  8645     0A7B  00A0               	movwf	ld_dword@rv
  8646                           
  8647                           ;pff.c: 400:  rv = rv << 8 | ptr[0];
  8648     0A7C  0824               	movf	ld_dword@ptr,w
  8649     0A7D  0086               	movwf	6
  8650     0A7E  0187               	clrf	7
  8651     0A7F  0801               	movf	1,w
  8652     0A80  00F4               	movwf	??_ld_dword
  8653     0A81  01F5               	clrf	??_ld_dword+1
  8654     0A82  01F6               	clrf	??_ld_dword+2
  8655     0A83  01F7               	clrf	??_ld_dword+3
  8656     0A84  0820               	movf	ld_dword@rv,w
  8657     0A85  00F8               	movwf	??_ld_dword+4
  8658     0A86  0821               	movf	ld_dword@rv+1,w
  8659     0A87  00F9               	movwf	??_ld_dword+5
  8660     0A88  0822               	movf	ld_dword@rv+2,w
  8661     0A89  00FA               	movwf	??_ld_dword+6
  8662     0A8A  0823               	movf	ld_dword@rv+3,w
  8663     0A8B  00FB               	movwf	??_ld_dword+7
  8664     0A8C  3008               	movlw	8
  8665     0A8D                     u2245:
  8666     0A8D  35F8               	lslf	??_ld_dword+4,f
  8667     0A8E  0DF9               	rlf	??_ld_dword+5,f
  8668     0A8F  0DFA               	rlf	??_ld_dword+6,f
  8669     0A90  0DFB               	rlf	??_ld_dword+7,f
  8670     0A91                     u2240:
  8671     0A91  0B89               	decfsz	9,f
  8672     0A92  2A8D               	goto	u2245
  8673     0A93  0878               	movf	??_ld_dword+4,w
  8674     0A94  04F4               	iorwf	??_ld_dword,f
  8675     0A95  0879               	movf	??_ld_dword+5,w
  8676     0A96  04F5               	iorwf	??_ld_dword+1,f
  8677     0A97  087A               	movf	??_ld_dword+6,w
  8678     0A98  04F6               	iorwf	??_ld_dword+2,f
  8679     0A99  087B               	movf	??_ld_dword+7,w
  8680     0A9A  04F7               	iorwf	??_ld_dword+3,f
  8681     0A9B  0877               	movf	??_ld_dword+3,w
  8682     0A9C  00A3               	movwf	ld_dword@rv+3
  8683     0A9D  0876               	movf	??_ld_dword+2,w
  8684     0A9E  00A2               	movwf	ld_dword@rv+2
  8685     0A9F  0875               	movf	??_ld_dword+1,w
  8686     0AA0  00A1               	movwf	ld_dword@rv+1
  8687     0AA1  0874               	movf	??_ld_dword,w
  8688     0AA2  00A0               	movwf	ld_dword@rv
  8689     0AA3                     l2557:
  8690                           
  8691                           ;pff.c: 401:  return rv;
  8692     0AA3  0823               	movf	ld_dword@rv+3,w
  8693     0AA4  00F3               	movwf	?_ld_dword+3
  8694     0AA5  0822               	movf	ld_dword@rv+2,w
  8695     0AA6  00F2               	movwf	?_ld_dword+2
  8696     0AA7  0821               	movf	ld_dword@rv+1,w
  8697     0AA8  00F1               	movwf	?_ld_dword+1
  8698     0AA9  0820               	movf	ld_dword@rv,w
  8699     0AAA  00F0               	movwf	?_ld_dword
  8700     0AAB                     l160:
  8701     0AAB  0008               	return
  8702     0AAC                     __end_of_ld_dword:
  8703                           
  8704                           	psect	text22
  8705     0DAC                     __ptext22:	
  8706 ;; *************** function _disk_initialize *****************
  8707 ;; Defined at:
  8708 ;;		line 93 in file "diskio.c"
  8709 ;; Parameters:    Size  Location     Type
  8710 ;;		None
  8711 ;; Auto vars:     Size  Location     Type
  8712 ;;  cmd             1   14[BANK0 ] unsigned char 
  8713 ;;  ocr             4    8[BANK0 ] unsigned char [4]
  8714 ;;  tmr             2   16[BANK0 ] unsigned short 
  8715 ;;  n               1   18[BANK0 ] unsigned char 
  8716 ;;  ty              1   15[BANK0 ] unsigned char 
  8717 ;; Return value:  Size  Location     Type
  8718 ;;                  1    wreg      unsigned char 
  8719 ;; Registers used:
  8720 ;;		wreg, fsr1l, fsr1h, status,2, status,0, pclath, cstack
  8721 ;; Tracked objects:
  8722 ;;		On entry : 0/0
  8723 ;;		On exit  : 0/0
  8724 ;;		Unchanged: 0/0
  8725 ;; Data sizes:     COMMON   BANK0   BANK1   BANK2   BANK3   BANK4   BANK5   BANK6   BANK7   BANK8   BANK9  BANK10  BANK1
      +1  BANK12  BANK13  BANK14  BANK15  BANK16  BANK17  BANK18  BANK19  BANK20  BANK21  BANK22  BANK23  BANK24  BANK25
  8726 ;;      Params:         0       0       0       0       0       0       0       0       0       0       0       0       
      +0       0       0       0       0       0       0       0       0       0       0       0       0       0       0
  8727 ;;      Locals:         0      11       0       0       0       0       0       0       0       0       0       0       
      +0       0       0       0       0       0       0       0       0       0       0       0       0       0       0
  8728 ;;      Temps:          0       1       0       0       0       0       0       0       0       0       0       0       
      +0       0       0       0       0       0       0       0       0       0       0       0       0       0       0
  8729 ;;      Totals:         0      12       0       0       0       0       0       0       0       0       0       0       
      +0       0       0       0       0       0       0       0       0       0       0       0       0       0       0
  8730 ;;Total ram usage:       12 bytes
  8731 ;; Hardware stack levels used: 1
  8732 ;; Hardware stack levels required when called: 5
  8733 ;; This function calls:
  8734 ;;		_dly_100us
  8735 ;;		_rcv_spi
  8736 ;;		_send_cmd
  8737 ;; This function is called by:
  8738 ;;		_pf_mount
  8739 ;;		_main
  8740 ;; This function uses a non-reentrant model
  8741 ;;
  8742                           
  8743     0DAC                     _disk_initialize:	
  8744                           ;psect for function _disk_initialize
  8745                           
  8746     0DAC                     l3135:	
  8747                           ;incstack = 0
  8748                           ; Regs used in _disk_initialize: [wreg+fsr1l+fsr1h+status,2+status,0+pclath+cstack]
  8749                           
  8750                           
  8751                           ;diskio.c: 95:     uint8_t n, ty, ocr[4];;diskio.c: 96:     uint16_t tmr;;diskio.c: 99: 
      +                              TRISCbits.TRISC2 = 0;
  8752     0DAC  0021               	movlb	1	; select bank1
  8753     0DAD  110E               	bcf	14,2	;volatile
  8754                           
  8755                           ;diskio.c: 100:     (LATCbits.LATC2 = 1);
  8756     0DAE  0022               	movlb	2	; select bank2
  8757     0DAF  150E               	bsf	14,2	;volatile
  8758     0DB0                     l3137:
  8759                           
  8760                           ;diskio.c: 103:     for (n = 10; n; n--) rcv_spi();
  8761     0DB0  300A               	movlw	10
  8762     0DB1  0020               	movlb	0	; select bank0
  8763     0DB2  00B2               	movwf	disk_initialize@n
  8764     0DB3  2DBA               	goto	l3143
  8765     0DB4                     l3139:
  8766     0DB4  3193  2335  318D   	fcall	_rcv_spi
  8767     0DB7                     l3141:
  8768     0DB7  3001               	movlw	1
  8769     0DB8  0020               	movlb	0	; select bank0
  8770     0DB9  02B2               	subwf	disk_initialize@n,f
  8771     0DBA                     l3143:
  8772     0DBA  0832               	movf	disk_initialize@n,w
  8773     0DBB  1D03               	btfss	3,2
  8774     0DBC  2DBE               	goto	u3181
  8775     0DBD  2DBF               	goto	u3180
  8776     0DBE                     u3181:
  8777     0DBE  2DB4               	goto	l3139
  8778     0DBF                     u3180:
  8779     0DBF                     l3145:
  8780                           
  8781                           ;diskio.c: 105:     ty = 0;
  8782     0DBF  01AF               	clrf	disk_initialize@ty
  8783     0DC0                     l3147:
  8784                           
  8785                           ;diskio.c: 107:     if (send_cmd((0x40+0), 0) == 1) {
  8786     0DC0  3000               	movlw	0
  8787     0DC1  00A3               	movwf	send_cmd@arg+3
  8788     0DC2  3000               	movlw	0
  8789     0DC3  00A2               	movwf	send_cmd@arg+2
  8790     0DC4  3000               	movlw	0
  8791     0DC5  00A1               	movwf	send_cmd@arg+1
  8792     0DC6  3000               	movlw	0
  8793     0DC7  00A0               	movwf	send_cmd@arg
  8794     0DC8  3040               	movlw	64
  8795     0DC9  3194  2427  318D   	fcall	_send_cmd
  8796     0DCC  3A01               	xorlw	1
  8797     0DCD  1D03               	skipz
  8798     0DCE  2DD0               	goto	u3191
  8799     0DCF  2DD1               	goto	u3190
  8800     0DD0                     u3191:
  8801     0DD0  2EC1               	goto	l3217
  8802     0DD1                     u3190:
  8803     0DD1                     l3149:
  8804                           
  8805                           ;diskio.c: 110:         if (send_cmd((0x40+8), 0x1AA) == 1) {
  8806     0DD1  3000               	movlw	0
  8807     0DD2  0020               	movlb	0	; select bank0
  8808     0DD3  00A3               	movwf	send_cmd@arg+3
  8809     0DD4  3000               	movlw	0
  8810     0DD5  00A2               	movwf	send_cmd@arg+2
  8811     0DD6  3001               	movlw	1
  8812     0DD7  00A1               	movwf	send_cmd@arg+1
  8813     0DD8  30AA               	movlw	170
  8814     0DD9  00A0               	movwf	send_cmd@arg
  8815     0DDA  3048               	movlw	72
  8816     0DDB  3194  2427  318D   	fcall	_send_cmd
  8817     0DDE  3A01               	xorlw	1
  8818     0DDF  1D03               	skipz
  8819     0DE0  2DE2               	goto	u3201
  8820     0DE1  2DE3               	goto	u3200
  8821     0DE2                     u3201:
  8822     0DE2  2E64               	goto	l3197
  8823     0DE3                     u3200:
  8824     0DE3                     l3151:
  8825                           
  8826                           ;diskio.c: 112:             for (n = 0; n < 4; n++) ocr[n] = rcv_spi();
  8827     0DE3  0020               	movlb	0	; select bank0
  8828     0DE4  01B2               	clrf	disk_initialize@n
  8829     0DE5                     l3157:
  8830     0DE5  0832               	movf	disk_initialize@n,w
  8831     0DE6  3E28               	addlw	(low (disk_initialize@ocr| 0))& (0+255)
  8832     0DE7  0086               	movwf	6
  8833     0DE8  0187               	clrf	7
  8834     0DE9  3193  2335  318D   	fcall	_rcv_spi
  8835     0DEC  0081               	movwf	1
  8836     0DED                     l3159:
  8837     0DED  3001               	movlw	1
  8838     0DEE  0020               	movlb	0	; select bank0
  8839     0DEF  00A7               	movwf	??_disk_initialize
  8840     0DF0  0827               	movf	??_disk_initialize,w
  8841     0DF1  07B2               	addwf	disk_initialize@n,f
  8842     0DF2                     l3161:
  8843     0DF2  3004               	movlw	4
  8844     0DF3  0232               	subwf	disk_initialize@n,w
  8845     0DF4  1C03               	skipc
  8846     0DF5  2DF7               	goto	u3211
  8847     0DF6  2DF8               	goto	u3210
  8848     0DF7                     u3211:
  8849     0DF7  2DE5               	goto	l3157
  8850     0DF8                     u3210:
  8851     0DF8                     l3163:
  8852                           
  8853                           ;diskio.c: 114:             if (ocr[2] == 0x01 && ocr[3] == 0xAA) {
  8854     0DF8  032A               	decf	disk_initialize@ocr+2,w
  8855     0DF9  1D03               	btfss	3,2
  8856     0DFA  2DFC               	goto	u3221
  8857     0DFB  2DFD               	goto	u3220
  8858     0DFC                     u3221:
  8859     0DFC  2EC1               	goto	l3217
  8860     0DFD                     u3220:
  8861     0DFD                     l3165:
  8862     0DFD  30AA               	movlw	170
  8863     0DFE  062B               	xorwf	disk_initialize@ocr+3,w
  8864     0DFF  1D03               	btfss	3,2
  8865     0E00  2E02               	goto	u3231
  8866     0E01  2E03               	goto	u3230
  8867     0E02                     u3231:
  8868     0E02  2EC1               	goto	l3217
  8869     0E03                     u3230:
  8870     0E03                     l3167:
  8871                           
  8872                           ;diskio.c: 116:                 for (tmr = 10000; tmr && send_cmd((0xC0+41), 1UL << 30);
      +                           tmr--) dly_100us();
  8873     0E03  3010               	movlw	16
  8874     0E04  00B0               	movwf	disk_initialize@tmr
  8875     0E05  3027               	movlw	39
  8876     0E06  00B1               	movwf	disk_initialize@tmr+1
  8877     0E07  2E10               	goto	l3173
  8878     0E08                     l3169:
  8879     0E08  3188  2000  318D   	fcall	_dly_100us
  8880     0E0B                     l3171:
  8881     0E0B  3001               	movlw	1
  8882     0E0C  0020               	movlb	0	; select bank0
  8883     0E0D  02B0               	subwf	disk_initialize@tmr,f
  8884     0E0E  3000               	movlw	0
  8885     0E0F  3BB1               	subwfb	disk_initialize@tmr+1,f
  8886     0E10                     l3173:
  8887     0E10  0830               	movf	disk_initialize@tmr,w
  8888     0E11  0431               	iorwf	disk_initialize@tmr+1,w
  8889     0E12  1903               	btfsc	3,2
  8890     0E13  2E15               	goto	u3241
  8891     0E14  2E16               	goto	u3240
  8892     0E15                     u3241:
  8893     0E15  2E27               	goto	l3177
  8894     0E16                     u3240:
  8895     0E16                     l3175:
  8896     0E16  3040               	movlw	64
  8897     0E17  00A3               	movwf	send_cmd@arg+3
  8898     0E18  3000               	movlw	0
  8899     0E19  00A2               	movwf	send_cmd@arg+2
  8900     0E1A  3000               	movlw	0
  8901     0E1B  00A1               	movwf	send_cmd@arg+1
  8902     0E1C  3000               	movlw	0
  8903     0E1D  00A0               	movwf	send_cmd@arg
  8904     0E1E  30E9               	movlw	233
  8905     0E1F  3194  2427  318D   	fcall	_send_cmd
  8906     0E22  3A00               	xorlw	0
  8907     0E23  1D03               	skipz
  8908     0E24  2E26               	goto	u3251
  8909     0E25  2E27               	goto	u3250
  8910     0E26                     u3251:
  8911     0E26  2E08               	goto	l3169
  8912     0E27                     u3250:
  8913     0E27                     l3177:
  8914                           
  8915                           ;diskio.c: 118:                 if (tmr && send_cmd((0x40+58), 0) == 0) {
  8916     0E27  0020               	movlb	0	; select bank0
  8917     0E28  0830               	movf	disk_initialize@tmr,w
  8918     0E29  0431               	iorwf	disk_initialize@tmr+1,w
  8919     0E2A  1903               	btfsc	3,2
  8920     0E2B  2E2D               	goto	u3261
  8921     0E2C  2E2E               	goto	u3260
  8922     0E2D                     u3261:
  8923     0E2D  2EC1               	goto	l415
  8924     0E2E                     u3260:
  8925     0E2E                     l3179:
  8926     0E2E  3000               	movlw	0
  8927     0E2F  00A3               	movwf	send_cmd@arg+3
  8928     0E30  3000               	movlw	0
  8929     0E31  00A2               	movwf	send_cmd@arg+2
  8930     0E32  3000               	movlw	0
  8931     0E33  00A1               	movwf	send_cmd@arg+1
  8932     0E34  3000               	movlw	0
  8933     0E35  00A0               	movwf	send_cmd@arg
  8934     0E36  307A               	movlw	122
  8935     0E37  3194  2427  318D   	fcall	_send_cmd
  8936     0E3A  3A00               	xorlw	0
  8937     0E3B  1D03               	skipz
  8938     0E3C  2E3E               	goto	u3271
  8939     0E3D  2E3F               	goto	u3270
  8940     0E3E                     u3271:
  8941     0E3E  2EC1               	goto	l415
  8942     0E3F                     u3270:
  8943     0E3F                     l3181:
  8944                           
  8945                           ;diskio.c: 119:                     for (n = 0; n < 4; n++) ocr[n] = rcv_spi();
  8946     0E3F  0020               	movlb	0	; select bank0
  8947     0E40  01B2               	clrf	disk_initialize@n
  8948     0E41                     l3187:
  8949     0E41  0832               	movf	disk_initialize@n,w
  8950     0E42  3E28               	addlw	(low (disk_initialize@ocr| 0))& (0+255)
  8951     0E43  0086               	movwf	6
  8952     0E44  0187               	clrf	7
  8953     0E45  3193  2335  318D   	fcall	_rcv_spi
  8954     0E48  0081               	movwf	1
  8955     0E49                     l3189:
  8956     0E49  3001               	movlw	1
  8957     0E4A  0020               	movlb	0	; select bank0
  8958     0E4B  00A7               	movwf	??_disk_initialize
  8959     0E4C  0827               	movf	??_disk_initialize,w
  8960     0E4D  07B2               	addwf	disk_initialize@n,f
  8961     0E4E                     l3191:
  8962     0E4E  3004               	movlw	4
  8963     0E4F  0232               	subwf	disk_initialize@n,w
  8964     0E50  1C03               	skipc
  8965     0E51  2E53               	goto	u3281
  8966     0E52  2E54               	goto	u3280
  8967     0E53                     u3281:
  8968     0E53  2E41               	goto	l3187
  8969     0E54                     u3280:
  8970     0E54                     l410:
  8971                           
  8972                           ;diskio.c: 120:                     ty = (ocr[0] & 0x40) ? (0x04 | 0x08) : 0x04;
  8973     0E54  1B28               	btfsc	disk_initialize@ocr,6
  8974     0E55  2E57               	goto	u3291
  8975     0E56  2E58               	goto	u3290
  8976     0E57                     u3291:
  8977     0E57  2E5D               	goto	l3195
  8978     0E58                     u3290:
  8979     0E58                     l3193:
  8980     0E58  3004               	movlw	4
  8981     0E59  00AC               	movwf	_disk_initialize$663
  8982     0E5A  3000               	movlw	0
  8983     0E5B  00AD               	movwf	_disk_initialize$663+1
  8984     0E5C  2E61               	goto	l414
  8985     0E5D                     l3195:
  8986     0E5D  300C               	movlw	12
  8987     0E5E  00AC               	movwf	_disk_initialize$663
  8988     0E5F  3000               	movlw	0
  8989     0E60  00AD               	movwf	_disk_initialize$663+1
  8990     0E61                     l414:
  8991     0E61  082C               	movf	_disk_initialize$663,w
  8992     0E62  00AF               	movwf	disk_initialize@ty
  8993     0E63  2EC1               	goto	l3217
  8994     0E64                     l3197:
  8995                           
  8996                           ;diskio.c: 126:             uint8_t cmd;;diskio.c: 127:             if (send_cmd((0xC0+4
      +                          1), 0) <= 1) { ty = 0x02; cmd = (0xC0+41); }
  8997     0E64  3000               	movlw	0
  8998     0E65  0020               	movlb	0	; select bank0
  8999     0E66  00A3               	movwf	send_cmd@arg+3
  9000     0E67  3000               	movlw	0
  9001     0E68  00A2               	movwf	send_cmd@arg+2
  9002     0E69  3000               	movlw	0
  9003     0E6A  00A1               	movwf	send_cmd@arg+1
  9004     0E6B  3000               	movlw	0
  9005     0E6C  00A0               	movwf	send_cmd@arg
  9006     0E6D  30E9               	movlw	233
  9007     0E6E  3194  2427  318D   	fcall	_send_cmd
  9008     0E71  0020               	movlb	0	; select bank0
  9009     0E72  00A7               	movwf	??_disk_initialize
  9010     0E73  3002               	movlw	2
  9011     0E74  0227               	subwf	??_disk_initialize,w
  9012     0E75  1803               	skipnc
  9013     0E76  2E78               	goto	u3301
  9014     0E77  2E79               	goto	u3300
  9015     0E78                     u3301:
  9016     0E78  2E7E               	goto	l416
  9017     0E79                     u3300:
  9018     0E79                     l3199:
  9019     0E79  3002               	movlw	2
  9020     0E7A  00AF               	movwf	disk_initialize@ty
  9021     0E7B  30E9               	movlw	233
  9022     0E7C  00AE               	movwf	disk_initialize@cmd
  9023     0E7D  2E82               	goto	l417
  9024     0E7E                     l416:	
  9025                           ;diskio.c: 128:             else { ty = 0x01; cmd = (0x40+1); }
  9026                           
  9027     0E7E  01AF               	clrf	disk_initialize@ty
  9028     0E7F  0AAF               	incf	disk_initialize@ty,f
  9029     0E80                     l3201:
  9030     0E80  3041               	movlw	65
  9031     0E81  00AE               	movwf	disk_initialize@cmd
  9032     0E82                     l417:
  9033                           
  9034                           ;diskio.c: 130:             for (tmr = 10000; tmr && send_cmd(cmd, 0); tmr--) dly_100us(
      +                          );
  9035     0E82  3010               	movlw	16
  9036     0E83  00B0               	movwf	disk_initialize@tmr
  9037     0E84  3027               	movlw	39
  9038     0E85  00B1               	movwf	disk_initialize@tmr+1
  9039     0E86  2E8F               	goto	l3207
  9040     0E87                     l3203:
  9041     0E87  3188  2000  318D   	fcall	_dly_100us
  9042     0E8A                     l3205:
  9043     0E8A  3001               	movlw	1
  9044     0E8B  0020               	movlb	0	; select bank0
  9045     0E8C  02B0               	subwf	disk_initialize@tmr,f
  9046     0E8D  3000               	movlw	0
  9047     0E8E  3BB1               	subwfb	disk_initialize@tmr+1,f
  9048     0E8F                     l3207:
  9049     0E8F  0830               	movf	disk_initialize@tmr,w
  9050     0E90  0431               	iorwf	disk_initialize@tmr+1,w
  9051     0E91  1903               	btfsc	3,2
  9052     0E92  2E94               	goto	u3311
  9053     0E93  2E95               	goto	u3310
  9054     0E94                     u3311:
  9055     0E94  2EA6               	goto	l3211
  9056     0E95                     u3310:
  9057     0E95                     l3209:
  9058     0E95  3000               	movlw	0
  9059     0E96  00A3               	movwf	send_cmd@arg+3
  9060     0E97  3000               	movlw	0
  9061     0E98  00A2               	movwf	send_cmd@arg+2
  9062     0E99  3000               	movlw	0
  9063     0E9A  00A1               	movwf	send_cmd@arg+1
  9064     0E9B  3000               	movlw	0
  9065     0E9C  00A0               	movwf	send_cmd@arg
  9066     0E9D  082E               	movf	disk_initialize@cmd,w
  9067     0E9E  3194  2427  318D   	fcall	_send_cmd
  9068     0EA1  3A00               	xorlw	0
  9069     0EA2  1D03               	skipz
  9070     0EA3  2EA5               	goto	u3321
  9071     0EA4  2EA6               	goto	u3320
  9072     0EA5                     u3321:
  9073     0EA5  2E87               	goto	l3203
  9074     0EA6                     u3320:
  9075     0EA6                     l3211:
  9076                           
  9077                           ;diskio.c: 132:             if (!tmr || send_cmd((0x40+16), 512) != 0) {
  9078     0EA6  0020               	movlb	0	; select bank0
  9079     0EA7  0830               	movf	disk_initialize@tmr,w
  9080     0EA8  0431               	iorwf	disk_initialize@tmr+1,w
  9081     0EA9  1903               	btfsc	3,2
  9082     0EAA  2EAC               	goto	u3331
  9083     0EAB  2EAD               	goto	u3330
  9084     0EAC                     u3331:
  9085     0EAC  2EBE               	goto	l3215
  9086     0EAD                     u3330:
  9087     0EAD                     l3213:
  9088     0EAD  3000               	movlw	0
  9089     0EAE  00A3               	movwf	send_cmd@arg+3
  9090     0EAF  3000               	movlw	0
  9091     0EB0  00A2               	movwf	send_cmd@arg+2
  9092     0EB1  3002               	movlw	2
  9093     0EB2  00A1               	movwf	send_cmd@arg+1
  9094     0EB3  3000               	movlw	0
  9095     0EB4  00A0               	movwf	send_cmd@arg
  9096     0EB5  3050               	movlw	80
  9097     0EB6  3194  2427  318D   	fcall	_send_cmd
  9098     0EB9  3A00               	xorlw	0
  9099     0EBA  1903               	skipnz
  9100     0EBB  2EBD               	goto	u3341
  9101     0EBC  2EBE               	goto	u3340
  9102     0EBD                     u3341:
  9103     0EBD  2EC1               	goto	l3217
  9104     0EBE                     u3340:
  9105     0EBE                     l3215:
  9106                           
  9107                           ;diskio.c: 133:                 ty = 0;
  9108     0EBE  0020               	movlb	0	; select bank0
  9109     0EBF  01AF               	clrf	disk_initialize@ty
  9110     0EC0  2EC1               	goto	l3217
  9111     0EC1                     l415:	
  9112                           ;diskio.c: 135:         }
  9113                           
  9114     0EC1                     l3217:
  9115                           
  9116                           ;diskio.c: 138:     CardType = ty;
  9117     0EC1  0020               	movlb	0	; select bank0
  9118     0EC2  082F               	movf	disk_initialize@ty,w
  9119     0EC3  0021               	movlb	1	; select bank1
  9120     0EC4  00E7               	movwf	_CardType^(0+128)
  9121     0EC5                     l3219:
  9122                           
  9123                           ;diskio.c: 139:     (LATCbits.LATC2 = 1);
  9124     0EC5  0022               	movlb	2	; select bank2
  9125     0EC6  150E               	bsf	14,2	;volatile
  9126     0EC7                     l3221:
  9127                           
  9128                           ;diskio.c: 140:     rcv_spi();
  9129     0EC7  3193  2335  318D   	fcall	_rcv_spi
  9130     0ECA                     l3223:
  9131                           
  9132                           ;diskio.c: 142:     return ty ? 0 : 0x01;
  9133     0ECA  0020               	movlb	0	; select bank0
  9134     0ECB  082F               	movf	disk_initialize@ty,w
  9135     0ECC  1903               	btfsc	3,2
  9136     0ECD  2ECF               	goto	u3351
  9137     0ECE  2ED1               	goto	u3350
  9138     0ECF                     u3351:
  9139     0ECF  3001               	movlw	1
  9140     0ED0  2ED2               	goto	u3360
  9141     0ED1                     u3350:
  9142     0ED1  3000               	movlw	0
  9143     0ED2                     u3360:
  9144     0ED2                     l426:
  9145     0ED2  0008               	return
  9146     0ED3                     __end_of_disk_initialize:
  9147                           
  9148                           	psect	text23
  9149     0800                     __ptext23:	
  9150 ;; *************** function _dly_100us *****************
  9151 ;; Defined at:
  9152 ;;		line 29 in file "diskio.c"
  9153 ;; Parameters:    Size  Location     Type
  9154 ;;		None
  9155 ;; Auto vars:     Size  Location     Type
  9156 ;;		None
  9157 ;; Return value:  Size  Location     Type
  9158 ;;                  1    wreg      void 
  9159 ;; Registers used:
  9160 ;;		wreg
  9161 ;; Tracked objects:
  9162 ;;		On entry : 0/0
  9163 ;;		On exit  : 0/0
  9164 ;;		Unchanged: 0/0
  9165 ;; Data sizes:     COMMON   BANK0   BANK1   BANK2   BANK3   BANK4   BANK5   BANK6   BANK7   BANK8   BANK9  BANK10  BANK1
      +1  BANK12  BANK13  BANK14  BANK15  BANK16  BANK17  BANK18  BANK19  BANK20  BANK21  BANK22  BANK23  BANK24  BANK25
  9166 ;;      Params:         0       0       0       0       0       0       0       0       0       0       0       0       
      +0       0       0       0       0       0       0       0       0       0       0       0       0       0       0
  9167 ;;      Locals:         0       0       0       0       0       0       0       0       0       0       0       0       
      +0       0       0       0       0       0       0       0       0       0       0       0       0       0       0
  9168 ;;      Temps:          0       0       0       0       0       0       0       0       0       0       0       0       
      +0       0       0       0       0       0       0       0       0       0       0       0       0       0       0
  9169 ;;      Totals:         0       0       0       0       0       0       0       0       0       0       0       0       
      +0       0       0       0       0       0       0       0       0       0       0       0       0       0       0
  9170 ;;Total ram usage:        0 bytes
  9171 ;; Hardware stack levels used: 1
  9172 ;; This function calls:
  9173 ;;		Nothing
  9174 ;; This function is called by:
  9175 ;;		_disk_initialize
  9176 ;; This function uses a non-reentrant model
  9177 ;;
  9178                           
  9179     0800                     _dly_100us:	
  9180                           ;psect for function _dly_100us
  9181                           
  9182     0800                     l3005:	
  9183                           ;incstack = 0
  9184                           ; Regs used in _dly_100us: [wreg]
  9185                           
  9186                           
  9187                           ;diskio.c: 31:     _delay((unsigned long)((100)*(32000000/4000000.0)));
  9188     0800  30A0               	movlw	160
  9189     0801                     u4187:
  9190     0801  3200               	nop2
  9191     0802  0B89               	decfsz	9,f
  9192     0803  2801               	goto	u4187
  9193     0804                     l376:
  9194     0804  0008               	return
  9195     0805                     __end_of_dly_100us:
  9196                           
  9197                           	psect	text24
  9198     1561                     __ptext24:	
  9199 ;; *************** function _check_fs *****************
  9200 ;; Defined at:
  9201 ;;		line 783 in file "pff.c"
  9202 ;; Parameters:    Size  Location     Type
  9203 ;;  buf             1    wreg     PTR unsigned char 
  9204 ;;		 -> pf_mount@buf(36), 
  9205 ;;  sect            4   27[BANK0 ] unsigned long 
  9206 ;; Auto vars:     Size  Location     Type
  9207 ;;  buf             1   31[BANK0 ] PTR unsigned char 
  9208 ;;		 -> pf_mount@buf(36), 
  9209 ;; Return value:  Size  Location     Type
  9210 ;;                  1    wreg      unsigned char 
  9211 ;; Registers used:
  9212 ;;		wreg, fsr1l, fsr1h, status,2, status,0, pclath, cstack
  9213 ;; Tracked objects:
  9214 ;;		On entry : 0/0
  9215 ;;		On exit  : 0/0
  9216 ;;		Unchanged: 0/0
  9217 ;; Data sizes:     COMMON   BANK0   BANK1   BANK2   BANK3   BANK4   BANK5   BANK6   BANK7   BANK8   BANK9  BANK10  BANK1
      +1  BANK12  BANK13  BANK14  BANK15  BANK16  BANK17  BANK18  BANK19  BANK20  BANK21  BANK22  BANK23  BANK24  BANK25
  9218 ;;      Params:         0       4       0       0       0       0       0       0       0       0       0       0       
      +0       0       0       0       0       0       0       0       0       0       0       0       0       0       0
  9219 ;;      Locals:         0       1       0       0       0       0       0       0       0       0       0       0       
      +0       0       0       0       0       0       0       0       0       0       0       0       0       0       0
  9220 ;;      Temps:          0       0       0       0       0       0       0       0       0       0       0       0       
      +0       0       0       0       0       0       0       0       0       0       0       0       0       0       0
  9221 ;;      Totals:         0       5       0       0       0       0       0       0       0       0       0       0       
      +0       0       0       0       0       0       0       0       0       0       0       0       0       0       0
  9222 ;;Total ram usage:        5 bytes
  9223 ;; Hardware stack levels used: 1
  9224 ;; Hardware stack levels required when called: 6
  9225 ;; This function calls:
  9226 ;;		_disk_readp
  9227 ;;		_ld_word
  9228 ;; This function is called by:
  9229 ;;		_pf_mount
  9230 ;; This function uses a non-reentrant model
  9231 ;;
  9232                           
  9233     1561                     _check_fs:	
  9234                           ;psect for function _check_fs
  9235                           
  9236                           
  9237                           ;incstack = 0
  9238                           ; Regs used in _check_fs: [wreg+fsr1l+fsr1h+status,2+status,0+pclath+cstack]
  9239                           ;check_fs@buf stored from wreg
  9240     1561  0020               	movlb	0	; select bank0
  9241     1562  00BF               	movwf	check_fs@buf
  9242     1563                     l3103:
  9243                           
  9244                           ;pff.c: 784:  BYTE *buf,;pff.c: 785:  DWORD sect;pff.c: 787: {;pff.c: 788:  if (disk_rea
      +                          dp(buf, sect, 510, 2)) {
  9245     1563  083E               	movf	check_fs@sect+3,w
  9246     1564  00AA               	movwf	disk_readp@sector+3
  9247     1565  083D               	movf	check_fs@sect+2,w
  9248     1566  00A9               	movwf	disk_readp@sector+2
  9249     1567  083C               	movf	check_fs@sect+1,w
  9250     1568  00A8               	movwf	disk_readp@sector+1
  9251     1569  083B               	movf	check_fs@sect,w
  9252     156A  00A7               	movwf	disk_readp@sector
  9253     156B  30FE               	movlw	254
  9254     156C  00AB               	movwf	disk_readp@offset
  9255     156D  3001               	movlw	1
  9256     156E  00AC               	movwf	disk_readp@offset+1
  9257     156F  3002               	movlw	2
  9258     1570  00AD               	movwf	disk_readp@count
  9259     1571  3000               	movlw	0
  9260     1572  00AE               	movwf	disk_readp@count+1
  9261     1573  083F               	movf	check_fs@buf,w
  9262     1574  318B  234C  3195   	fcall	_disk_readp
  9263     1577  3A00               	xorlw	0
  9264     1578  1903               	skipnz
  9265     1579  2D7B               	goto	u3141
  9266     157A  2D7C               	goto	u3140
  9267     157B                     u3141:
  9268     157B  2D7E               	goto	l3109
  9269     157C                     u3140:
  9270     157C                     l3105:
  9271                           
  9272                           ;pff.c: 789:   return 3;
  9273     157C  3003               	movlw	3
  9274     157D  2DBA               	goto	l266
  9275     157E                     l3109:
  9276                           
  9277                           ;pff.c: 791:  if (ld_word(buf) != 0xAA55) {
  9278     157E  0020               	movlb	0	; select bank0
  9279     157F  083F               	movf	check_fs@buf,w
  9280     1580  3193  23DC  3195   	fcall	_ld_word
  9281     1583  3055               	movlw	85
  9282     1584  0670               	xorwf	?_ld_word,w
  9283     1585  30AA               	movlw	170
  9284     1586  1903               	skipnz
  9285     1587  0671               	xorwf	?_ld_word+1,w
  9286     1588  1903               	btfsc	3,2
  9287     1589  2D8B               	goto	u3151
  9288     158A  2D8C               	goto	u3150
  9289     158B                     u3151:
  9290     158B  2D90               	goto	l3123
  9291     158C                     u3150:
  9292     158C                     l3111:
  9293                           
  9294                           ;pff.c: 792:   return 2;
  9295     158C  3002               	movlw	2
  9296     158D  2DBA               	goto	l266
  9297     158E                     l3119:
  9298                           
  9299                           ;pff.c: 796:   return 0;
  9300     158E  3000               	movlw	0
  9301     158F  2DBA               	goto	l266
  9302     1590                     l3123:
  9303     1590  0020               	movlb	0	; select bank0
  9304     1591  083E               	movf	check_fs@sect+3,w
  9305     1592  00AA               	movwf	disk_readp@sector+3
  9306     1593  083D               	movf	check_fs@sect+2,w
  9307     1594  00A9               	movwf	disk_readp@sector+2
  9308     1595  083C               	movf	check_fs@sect+1,w
  9309     1596  00A8               	movwf	disk_readp@sector+1
  9310     1597  083B               	movf	check_fs@sect,w
  9311     1598  00A7               	movwf	disk_readp@sector
  9312     1599  3052               	movlw	82
  9313     159A  00AB               	movwf	disk_readp@offset
  9314     159B  3000               	movlw	0
  9315     159C  00AC               	movwf	disk_readp@offset+1
  9316     159D  3002               	movlw	2
  9317     159E  00AD               	movwf	disk_readp@count
  9318     159F  3000               	movlw	0
  9319     15A0  00AE               	movwf	disk_readp@count+1
  9320     15A1  083F               	movf	check_fs@buf,w
  9321     15A2  318B  234C  3195   	fcall	_disk_readp
  9322     15A5  3A00               	xorlw	0
  9323     15A6  1D03               	skipz
  9324     15A7  2DA9               	goto	u3161
  9325     15A8  2DAA               	goto	u3160
  9326     15A9                     u3161:
  9327     15A9  2DB9               	goto	l3131
  9328     15AA                     u3160:
  9329     15AA                     l3125:
  9330     15AA  0020               	movlb	0	; select bank0
  9331     15AB  083F               	movf	check_fs@buf,w
  9332     15AC  3193  23DC  3195   	fcall	_ld_word
  9333     15AF  3046               	movlw	70
  9334     15B0  0670               	xorwf	?_ld_word,w
  9335     15B1  3041               	movlw	65
  9336     15B2  1903               	skipnz
  9337     15B3  0671               	xorwf	?_ld_word+1,w
  9338     15B4  1D03               	btfss	3,2
  9339     15B5  2DB7               	goto	u3171
  9340     15B6  2DB8               	goto	u3170
  9341     15B7                     u3171:
  9342     15B7  2DB9               	goto	l3131
  9343     15B8                     u3170:
  9344     15B8  2D8E               	goto	l3119
  9345     15B9                     l3131:
  9346                           
  9347                           ;pff.c: 801:  return 1;
  9348     15B9  3001               	movlw	1
  9349     15BA                     l266:
  9350     15BA  0008               	return
  9351     15BB                     __end_of_check_fs:
  9352                           
  9353                           	psect	text25
  9354     13DC                     __ptext25:	
  9355 ;; *************** function _ld_word *****************
  9356 ;; Defined at:
  9357 ;;		line 384 in file "pff.c"
  9358 ;; Parameters:    Size  Location     Type
  9359 ;;  ptr             1    wreg     PTR const unsigned char 
  9360 ;;		 -> pf_open@dir(32), pf_mount@buf(36), 
  9361 ;; Auto vars:     Size  Location     Type
  9362 ;;  ptr             1    8[COMMON] PTR const unsigned char 
  9363 ;;		 -> pf_open@dir(32), pf_mount@buf(36), 
  9364 ;;  rv              2    6[COMMON] unsigned short 
  9365 ;; Return value:  Size  Location     Type
  9366 ;;                  2    0[COMMON] unsigned short 
  9367 ;; Registers used:
  9368 ;;		wreg, fsr1l, fsr1h
  9369 ;; Tracked objects:
  9370 ;;		On entry : 0/0
  9371 ;;		On exit  : 0/0
  9372 ;;		Unchanged: 0/0
  9373 ;; Data sizes:     COMMON   BANK0   BANK1   BANK2   BANK3   BANK4   BANK5   BANK6   BANK7   BANK8   BANK9  BANK10  BANK1
      +1  BANK12  BANK13  BANK14  BANK15  BANK16  BANK17  BANK18  BANK19  BANK20  BANK21  BANK22  BANK23  BANK24  BANK25
  9374 ;;      Params:         2       0       0       0       0       0       0       0       0       0       0       0       
      +0       0       0       0       0       0       0       0       0       0       0       0       0       0       0
  9375 ;;      Locals:         3       0       0       0       0       0       0       0       0       0       0       0       
      +0       0       0       0       0       0       0       0       0       0       0       0       0       0       0
  9376 ;;      Temps:          4       0       0       0       0       0       0       0       0       0       0       0       
      +0       0       0       0       0       0       0       0       0       0       0       0       0       0       0
  9377 ;;      Totals:         9       0       0       0       0       0       0       0       0       0       0       0       
      +0       0       0       0       0       0       0       0       0       0       0       0       0       0       0
  9378 ;;Total ram usage:        9 bytes
  9379 ;; Hardware stack levels used: 1
  9380 ;; This function calls:
  9381 ;;		Nothing
  9382 ;; This function is called by:
  9383 ;;		_get_clust
  9384 ;;		_check_fs
  9385 ;;		_pf_mount
  9386 ;; This function uses a non-reentrant model
  9387 ;;
  9388                           
  9389     13DC                     _ld_word:	
  9390                           ;psect for function _ld_word
  9391                           
  9392                           
  9393                           ;incstack = 0
  9394                           ; Regs used in _ld_word: [wregfsr1]
  9395                           ;ld_word@ptr stored from wreg
  9396     13DC  00F8               	movwf	ld_word@ptr
  9397     13DD                     l2671:
  9398                           
  9399                           ;pff.c: 384: static WORD ld_word (const BYTE* ptr);pff.c: 385: {;pff.c: 386:  WORD rv;;p
      +                          ff.c: 388:  rv = ptr[1];
  9400     13DD  0A78               	incf	ld_word@ptr,w
  9401     13DE  0086               	movwf	6
  9402     13DF  0187               	clrf	7
  9403     13E0  0801               	movf	1,w
  9404     13E1  00F2               	movwf	??_ld_word
  9405     13E2  01F3               	clrf	??_ld_word+1
  9406     13E3  0872               	movf	??_ld_word,w
  9407     13E4  00F6               	movwf	ld_word@rv
  9408     13E5  0873               	movf	??_ld_word+1,w
  9409     13E6  00F7               	movwf	ld_word@rv+1
  9410                           
  9411                           ;pff.c: 389:  rv = rv << 8 | ptr[0];
  9412     13E7  0878               	movf	ld_word@ptr,w
  9413     13E8  0086               	movwf	6
  9414     13E9  0187               	clrf	7
  9415     13EA  0801               	movf	1,w
  9416     13EB  00F2               	movwf	??_ld_word
  9417     13EC  01F3               	clrf	??_ld_word+1
  9418     13ED  0876               	movf	ld_word@rv,w
  9419     13EE  00F5               	movwf	??_ld_word+3
  9420     13EF  01F4               	clrf	??_ld_word+2
  9421     13F0  0872               	movf	??_ld_word,w
  9422     13F1  0474               	iorwf	??_ld_word+2,w
  9423     13F2  00F6               	movwf	ld_word@rv
  9424     13F3  0873               	movf	??_ld_word+1,w
  9425     13F4  0475               	iorwf	??_ld_word+3,w
  9426     13F5  00F7               	movwf	ld_word@rv+1
  9427     13F6                     l2673:
  9428                           
  9429                           ;pff.c: 390:  return rv;
  9430     13F6  0877               	movf	ld_word@rv+1,w
  9431     13F7  00F1               	movwf	?_ld_word+1
  9432     13F8  0876               	movf	ld_word@rv,w
  9433     13F9  00F0               	movwf	?_ld_word
  9434     13FA                     l157:
  9435     13FA  0008               	return
  9436     13FB                     __end_of_ld_word:
  9437                           
  9438                           	psect	text26
  9439     0B4C                     __ptext26:	
  9440 ;; *************** function _disk_readp *****************
  9441 ;; Defined at:
  9442 ;;		line 145 in file "diskio.c"
  9443 ;; Parameters:    Size  Location     Type
  9444 ;;  buff            1    wreg     PTR unsigned char 
  9445 ;;		 -> pf_open@dir(32), pf_mount@buf(36), get_fat@buf(4), 
  9446 ;;  sector          4    7[BANK0 ] unsigned long 
  9447 ;;  offset          2   11[BANK0 ] unsigned int 
  9448 ;;  count           2   13[BANK0 ] unsigned int 
  9449 ;; Auto vars:     Size  Location     Type
  9450 ;;  buff            1   26[BANK0 ] PTR unsigned char 
  9451 ;;		 -> pf_open@dir(32), pf_mount@buf(36), get_fat@buf(4), 
  9452 ;;  i               2   23[BANK0 ] unsigned short 
  9453 ;;  count0          2   21[BANK0 ] unsigned int 
  9454 ;;  offset0         2   19[BANK0 ] unsigned int 
  9455 ;;  token           1   25[BANK0 ] unsigned char 
  9456 ;; Return value:  Size  Location     Type
  9457 ;;                  1    wreg      enum E101
  9458 ;; Registers used:
  9459 ;;		wreg, fsr1l, fsr1h, status,2, status,0, pclath, cstack
  9460 ;; Tracked objects:
  9461 ;;		On entry : 0/0
  9462 ;;		On exit  : 0/0
  9463 ;;		Unchanged: 0/0
  9464 ;; Data sizes:     COMMON   BANK0   BANK1   BANK2   BANK3   BANK4   BANK5   BANK6   BANK7   BANK8   BANK9  BANK10  BANK1
      +1  BANK12  BANK13  BANK14  BANK15  BANK16  BANK17  BANK18  BANK19  BANK20  BANK21  BANK22  BANK23  BANK24  BANK25
  9465 ;;      Params:         0       8       0       0       0       0       0       0       0       0       0       0       
      +0       0       0       0       0       0       0       0       0       0       0       0       0       0       0
  9466 ;;      Locals:         0       8       0       0       0       0       0       0       0       0       0       0       
      +0       0       0       0       0       0       0       0       0       0       0       0       0       0       0
  9467 ;;      Temps:          0       4       0       0       0       0       0       0       0       0       0       0       
      +0       0       0       0       0       0       0       0       0       0       0       0       0       0       0
  9468 ;;      Totals:         0      20       0       0       0       0       0       0       0       0       0       0       
      +0       0       0       0       0       0       0       0       0       0       0       0       0       0       0
  9469 ;;Total ram usage:       20 bytes
  9470 ;; Hardware stack levels used: 1
  9471 ;; Hardware stack levels required when called: 5
  9472 ;; This function calls:
  9473 ;;		_rcv_spi
  9474 ;;		_send_cmd
  9475 ;; This function is called by:
  9476 ;;		_get_fat
  9477 ;;		_dir_find
  9478 ;;		_check_fs
  9479 ;;		_pf_mount
  9480 ;;		_pf_read
  9481 ;; This function uses a non-reentrant model
  9482 ;;
  9483                           
  9484     0B4C                     _disk_readp:	
  9485                           ;psect for function _disk_readp
  9486                           
  9487                           
  9488                           ;incstack = 0
  9489                           ; Regs used in _disk_readp: [wreg+fsr1l+fsr1h+status,2+status,0+pclath+cstack]
  9490                           ;disk_readp@buff stored from wreg
  9491     0B4C  0020               	movlb	0	; select bank0
  9492     0B4D  00BA               	movwf	disk_readp@buff
  9493     0B4E                     l2561:
  9494                           
  9495                           ;diskio.c: 145: DRESULT disk_readp(BYTE* buff, DWORD sector, UINT offset, UINT count);di
      +                          skio.c: 146: {;diskio.c: 147:     uint16_t i;;diskio.c: 148:     uint8_t token;;diskio.c
      +                          : 149:     UINT offset0 = offset;
  9496     0B4E  082C               	movf	disk_readp@offset+1,w
  9497     0B4F  00B4               	movwf	disk_readp@offset0+1
  9498     0B50  082B               	movf	disk_readp@offset,w
  9499     0B51  00B3               	movwf	disk_readp@offset0
  9500                           
  9501                           ;diskio.c: 150:     UINT count0 = count;
  9502     0B52  082E               	movf	disk_readp@count+1,w
  9503     0B53  00B6               	movwf	disk_readp@count0+1
  9504     0B54  082D               	movf	disk_readp@count,w
  9505     0B55  00B5               	movwf	disk_readp@count0
  9506     0B56                     l2563:
  9507                           
  9508                           ;diskio.c: 152:     if (!(CardType & 0x08)) sector *= 512;
  9509     0B56  0021               	movlb	1	; select bank1
  9510     0B57  19E7               	btfsc	_CardType^(0+128),3
  9511     0B58  2B5A               	goto	u2251
  9512     0B59  2B5B               	goto	u2250
  9513     0B5A                     u2251:
  9514     0B5A  2B63               	goto	l2567
  9515     0B5B                     u2250:
  9516     0B5B                     l2565:
  9517     0B5B  3009               	movlw	9
  9518     0B5C                     u2265:
  9519     0B5C  0020               	movlb	0	; select bank0
  9520     0B5D  35A7               	lslf	disk_readp@sector,f
  9521     0B5E  0DA8               	rlf	disk_readp@sector+1,f
  9522     0B5F  0DA9               	rlf	disk_readp@sector+2,f
  9523     0B60  0DAA               	rlf	disk_readp@sector+3,f
  9524     0B61  0B89               	decfsz	9,f
  9525     0B62  2B5C               	goto	u2265
  9526     0B63                     l2567:
  9527                           
  9528                           ;diskio.c: 154:     if (send_cmd((0x40+17), sector) != 0) {
  9529     0B63  0020               	movlb	0	; select bank0
  9530     0B64  082A               	movf	disk_readp@sector+3,w
  9531     0B65  00A3               	movwf	send_cmd@arg+3
  9532     0B66  0829               	movf	disk_readp@sector+2,w
  9533     0B67  00A2               	movwf	send_cmd@arg+2
  9534     0B68  0828               	movf	disk_readp@sector+1,w
  9535     0B69  00A1               	movwf	send_cmd@arg+1
  9536     0B6A  0827               	movf	disk_readp@sector,w
  9537     0B6B  00A0               	movwf	send_cmd@arg
  9538     0B6C  3051               	movlw	81
  9539     0B6D  3194  2427  318B   	fcall	_send_cmd
  9540     0B70  3A00               	xorlw	0
  9541     0B71  1903               	skipnz
  9542     0B72  2B74               	goto	u2271
  9543     0B73  2B75               	goto	u2270
  9544     0B74                     u2271:
  9545     0B74  2B7C               	goto	l2577
  9546     0B75                     u2270:
  9547     0B75                     l2569:
  9548                           
  9549                           ;diskio.c: 155:         (LATCbits.LATC2 = 1); rcv_spi();
  9550     0B75  0022               	movlb	2	; select bank2
  9551     0B76  150E               	bsf	14,2	;volatile
  9552     0B77                     l2571:
  9553     0B77  3193  2335  318B   	fcall	_rcv_spi
  9554     0B7A                     l2573:
  9555                           
  9556                           ;diskio.c: 156:         return RES_ERROR;
  9557     0B7A  3001               	movlw	1
  9558     0B7B  2BF7               	goto	l431
  9559     0B7C                     l2577:
  9560                           
  9561                           ;diskio.c: 159:     i = 40000;
  9562     0B7C  3040               	movlw	64
  9563     0B7D  0020               	movlb	0	; select bank0
  9564     0B7E  00B7               	movwf	disk_readp@i
  9565     0B7F  309C               	movlw	156
  9566     0B80  00B8               	movwf	disk_readp@i+1
  9567     0B81                     l2579:
  9568                           
  9569                           ;diskio.c: 161:         token = rcv_spi();
  9570     0B81  3193  2335  318B   	fcall	_rcv_spi
  9571     0B84  0020               	movlb	0	; select bank0
  9572     0B85  00B9               	movwf	disk_readp@token
  9573     0B86                     l2581:
  9574                           
  9575                           ;diskio.c: 162:     } while (token == 0xFF && --i);
  9576     0B86  0A39               	incf	disk_readp@token,w
  9577     0B87  1D03               	btfss	3,2
  9578     0B88  2B8A               	goto	u2281
  9579     0B89  2B8B               	goto	u2280
  9580     0B8A                     u2281:
  9581     0B8A  2B95               	goto	l2585
  9582     0B8B                     u2280:
  9583     0B8B                     l2583:
  9584     0B8B  3001               	movlw	1
  9585     0B8C  02B7               	subwf	disk_readp@i,f
  9586     0B8D  3000               	movlw	0
  9587     0B8E  3BB8               	subwfb	disk_readp@i+1,f
  9588     0B8F  0837               	movf	disk_readp@i,w
  9589     0B90  0438               	iorwf	disk_readp@i+1,w
  9590     0B91  1D03               	btfss	3,2
  9591     0B92  2B94               	goto	u2291
  9592     0B93  2B95               	goto	u2290
  9593     0B94                     u2291:
  9594     0B94  2B81               	goto	l2579
  9595     0B95                     u2290:
  9596     0B95                     l2585:
  9597                           
  9598                           ;diskio.c: 164:     if (token != 0xFE) {
  9599     0B95  30FE               	movlw	254
  9600     0B96  0639               	xorwf	disk_readp@token,w
  9601     0B97  1903               	btfsc	3,2
  9602     0B98  2B9A               	goto	u2301
  9603     0B99  2B9B               	goto	u2300
  9604     0B9A                     u2301:
  9605     0B9A  2BA1               	goto	l2597
  9606     0B9B                     u2300:
  9607     0B9B                     l2587:
  9608                           
  9609                           ;diskio.c: 165:         (LATCbits.LATC2 = 1); rcv_spi();
  9610     0B9B  0022               	movlb	2	; select bank2
  9611     0B9C  150E               	bsf	14,2	;volatile
  9612     0B9D  2B77               	goto	l2571
  9613     0B9E                     l2595:
  9614     0B9E  3193  2335  318B   	fcall	_rcv_spi
  9615     0BA1                     l2597:
  9616     0BA1  3001               	movlw	1
  9617     0BA2  0020               	movlb	0	; select bank0
  9618     0BA3  02AB               	subwf	disk_readp@offset,f
  9619     0BA4  3000               	movlw	0
  9620     0BA5  3BAC               	subwfb	disk_readp@offset+1,f
  9621     0BA6  0A2B               	incf	disk_readp@offset,w
  9622     0BA7  1D03               	skipz
  9623     0BA8  2BAD               	goto	u2311
  9624     0BA9  0A2C               	incf	disk_readp@offset+1,w
  9625     0BAA  1D03               	btfss	3,2
  9626     0BAB  2BAD               	goto	u2311
  9627     0BAC  2BAE               	goto	u2310
  9628     0BAD                     u2311:
  9629     0BAD  2B9E               	goto	l2595
  9630     0BAE                     u2310:
  9631     0BAE  2BBB               	goto	l2603
  9632     0BAF                     l2599:
  9633     0BAF  083A               	movf	disk_readp@buff,w
  9634     0BB0  0086               	movwf	6
  9635     0BB1  0187               	clrf	7
  9636     0BB2  3193  2335  318B   	fcall	_rcv_spi
  9637     0BB5  0081               	movwf	1
  9638     0BB6                     l2601:
  9639     0BB6  3001               	movlw	1
  9640     0BB7  0020               	movlb	0	; select bank0
  9641     0BB8  00AF               	movwf	??_disk_readp
  9642     0BB9  082F               	movf	??_disk_readp,w
  9643     0BBA  07BA               	addwf	disk_readp@buff,f
  9644     0BBB                     l2603:
  9645     0BBB  3001               	movlw	1
  9646     0BBC  02AD               	subwf	disk_readp@count,f
  9647     0BBD  3000               	movlw	0
  9648     0BBE  3BAE               	subwfb	disk_readp@count+1,f
  9649     0BBF  0A2D               	incf	disk_readp@count,w
  9650     0BC0  1D03               	skipz
  9651     0BC1  2BC6               	goto	u2321
  9652     0BC2  0A2E               	incf	disk_readp@count+1,w
  9653     0BC3  1D03               	btfss	3,2
  9654     0BC4  2BC6               	goto	u2321
  9655     0BC5  2BC7               	goto	u2320
  9656     0BC6                     u2321:
  9657     0BC6  2BAF               	goto	l2599
  9658     0BC7                     u2320:
  9659     0BC7                     l2605:
  9660                           
  9661                           ;diskio.c: 173:     i = (uint16_t)(512 - (offset0 + count0));
  9662     0BC7  0933               	comf	disk_readp@offset0,w
  9663     0BC8  00AF               	movwf	??_disk_readp
  9664     0BC9  0934               	comf	disk_readp@offset0+1,w
  9665     0BCA  00B0               	movwf	??_disk_readp+1
  9666     0BCB  0AAF               	incf	??_disk_readp,f
  9667     0BCC  1903               	skipnz
  9668     0BCD  0AB0               	incf	??_disk_readp+1,f
  9669     0BCE  0835               	movf	disk_readp@count0,w
  9670     0BCF  022F               	subwf	??_disk_readp,w
  9671     0BD0  00B1               	movwf	??_disk_readp+2
  9672     0BD1  0836               	movf	disk_readp@count0+1,w
  9673     0BD2  3B30               	subwfb	??_disk_readp+1,w
  9674     0BD3  00B2               	movwf	??_disk_readp+3
  9675     0BD4  0831               	movf	??_disk_readp+2,w
  9676     0BD5  3E00               	addlw	0
  9677     0BD6  00B7               	movwf	disk_readp@i
  9678     0BD7  3002               	movlw	2
  9679     0BD8  3D32               	addwfc	??_disk_readp+3,w
  9680     0BD9  00B8               	movwf	disk_readp@i+1
  9681                           
  9682                           ;diskio.c: 174:     while (i--) rcv_spi();
  9683     0BDA  2BDE               	goto	l2609
  9684     0BDB                     l2607:
  9685     0BDB  3193  2335  318B   	fcall	_rcv_spi
  9686     0BDE                     l2609:
  9687     0BDE  3001               	movlw	1
  9688     0BDF  0020               	movlb	0	; select bank0
  9689     0BE0  02B7               	subwf	disk_readp@i,f
  9690     0BE1  3000               	movlw	0
  9691     0BE2  3BB8               	subwfb	disk_readp@i+1,f
  9692     0BE3  0A37               	incf	disk_readp@i,w
  9693     0BE4  1D03               	skipz
  9694     0BE5  2BEA               	goto	u2331
  9695     0BE6  0A38               	incf	disk_readp@i+1,w
  9696     0BE7  1D03               	btfss	3,2
  9697     0BE8  2BEA               	goto	u2331
  9698     0BE9  2BEB               	goto	u2330
  9699     0BEA                     u2331:
  9700     0BEA  2BDB               	goto	l2607
  9701     0BEB                     u2330:
  9702     0BEB                     l2611:
  9703                           
  9704                           ;diskio.c: 177:     rcv_spi();
  9705     0BEB  3193  2335  318B   	fcall	_rcv_spi
  9706                           
  9707                           ;diskio.c: 178:     rcv_spi();
  9708     0BEE  3193  2335  318B   	fcall	_rcv_spi
  9709     0BF1                     l2613:
  9710                           
  9711                           ;diskio.c: 180:     (LATCbits.LATC2 = 1);
  9712     0BF1  0022               	movlb	2	; select bank2
  9713     0BF2  150E               	bsf	14,2	;volatile
  9714                           
  9715                           ;diskio.c: 181:     rcv_spi();
  9716     0BF3  3193  2335  318B   	fcall	_rcv_spi
  9717     0BF6                     l2615:
  9718                           
  9719                           ;diskio.c: 183:     return RES_OK;
  9720     0BF6  3000               	movlw	0
  9721     0BF7                     l431:
  9722     0BF7  0008               	return
  9723     0BF8                     __end_of_disk_readp:
  9724                           
  9725                           	psect	text27
  9726     1427                     __ptext27:	
  9727 ;; *************** function _send_cmd *****************
  9728 ;; Defined at:
  9729 ;;		line 79 in file "diskio.c"
  9730 ;; Parameters:    Size  Location     Type
  9731 ;;  cmd             1    wreg     unsigned char 
  9732 ;;  arg             4    0[BANK0 ] unsigned long 
  9733 ;; Auto vars:     Size  Location     Type
  9734 ;;  cmd             1    5[BANK0 ] unsigned char 
  9735 ;;  res             1    6[BANK0 ] unsigned char 
  9736 ;; Return value:  Size  Location     Type
  9737 ;;                  1    wreg      unsigned char 
  9738 ;; Registers used:
  9739 ;;		wreg, status,2, status,0, pclath, cstack
  9740 ;; Tracked objects:
  9741 ;;		On entry : 0/0
  9742 ;;		On exit  : 0/0
  9743 ;;		Unchanged: 0/0
  9744 ;; Data sizes:     COMMON   BANK0   BANK1   BANK2   BANK3   BANK4   BANK5   BANK6   BANK7   BANK8   BANK9  BANK10  BANK1
      +1  BANK12  BANK13  BANK14  BANK15  BANK16  BANK17  BANK18  BANK19  BANK20  BANK21  BANK22  BANK23  BANK24  BANK25
  9745 ;;      Params:         0       4       0       0       0       0       0       0       0       0       0       0       
      +0       0       0       0       0       0       0       0       0       0       0       0       0       0       0
  9746 ;;      Locals:         0       2       0       0       0       0       0       0       0       0       0       0       
      +0       0       0       0       0       0       0       0       0       0       0       0       0       0       0
  9747 ;;      Temps:          0       1       0       0       0       0       0       0       0       0       0       0       
      +0       0       0       0       0       0       0       0       0       0       0       0       0       0       0
  9748 ;;      Totals:         0       7       0       0       0       0       0       0       0       0       0       0       
      +0       0       0       0       0       0       0       0       0       0       0       0       0       0       0
  9749 ;;Total ram usage:        7 bytes
  9750 ;; Hardware stack levels used: 1
  9751 ;; Hardware stack levels required when called: 4
  9752 ;; This function calls:
  9753 ;;		_send_cmd_raw
  9754 ;; This function is called by:
  9755 ;;		_disk_initialize
  9756 ;;		_disk_readp
  9757 ;;		_disk_writep
  9758 ;; This function uses a non-reentrant model
  9759 ;;
  9760                           
  9761     1427                     _send_cmd:	
  9762                           ;psect for function _send_cmd
  9763                           
  9764                           
  9765                           ;incstack = 0
  9766                           ; Regs used in _send_cmd: [wreg+status,2+status,0+pclath+cstack]
  9767                           ;send_cmd@cmd stored from wreg
  9768     1427  0020               	movlb	0	; select bank0
  9769     1428  00A5               	movwf	send_cmd@cmd
  9770     1429                     l2539:
  9771                           
  9772                           ;diskio.c: 79: static uint8_t send_cmd(uint8_t cmd, uint32_t arg);diskio.c: 80: {;diskio
      +                          .c: 81:     uint8_t res;;diskio.c: 83:     if (cmd & 0x80) {
  9773     1429  1FA5               	btfss	send_cmd@cmd,7
  9774     142A  2C2C               	goto	u2201
  9775     142B  2C2D               	goto	u2200
  9776     142C                     u2201:
  9777     142C  2C47               	goto	l2551
  9778     142D                     u2200:
  9779     142D                     l2541:
  9780                           
  9781                           ;diskio.c: 84:         cmd &= 0x7F;
  9782     142D  307F               	movlw	127
  9783     142E  00A4               	movwf	??_send_cmd
  9784     142F  0824               	movf	??_send_cmd,w
  9785     1430  05A5               	andwf	send_cmd@cmd,f
  9786     1431                     l2543:
  9787                           
  9788                           ;diskio.c: 85:         res = send_cmd_raw((0x40+55), 0);
  9789     1431  3000               	movlw	0
  9790     1432  00F6               	movwf	send_cmd_raw@arg+3
  9791     1433  3000               	movlw	0
  9792     1434  00F5               	movwf	send_cmd_raw@arg+2
  9793     1435  3000               	movlw	0
  9794     1436  00F4               	movwf	send_cmd_raw@arg+1
  9795     1437  3000               	movlw	0
  9796     1438  00F3               	movwf	send_cmd_raw@arg
  9797     1439  3077               	movlw	119
  9798     143A  3188  2005  3194   	fcall	_send_cmd_raw
  9799     143D  0020               	movlb	0	; select bank0
  9800     143E  00A6               	movwf	send_cmd@res
  9801     143F                     l2545:
  9802                           
  9803                           ;diskio.c: 86:         if (res > 1) return res;
  9804     143F  3002               	movlw	2
  9805     1440  0226               	subwf	send_cmd@res,w
  9806     1441  1C03               	skipc
  9807     1442  2C44               	goto	u2211
  9808     1443  2C45               	goto	u2210
  9809     1444                     u2211:
  9810     1444  2C47               	goto	l2551
  9811     1445                     u2210:
  9812     1445                     l2547:
  9813     1445  0826               	movf	send_cmd@res,w
  9814     1446  2C53               	goto	l392
  9815     1447                     l2551:
  9816                           
  9817                           ;diskio.c: 88:     return send_cmd_raw(cmd, arg);
  9818     1447  0823               	movf	send_cmd@arg+3,w
  9819     1448  00F6               	movwf	send_cmd_raw@arg+3
  9820     1449  0822               	movf	send_cmd@arg+2,w
  9821     144A  00F5               	movwf	send_cmd_raw@arg+2
  9822     144B  0821               	movf	send_cmd@arg+1,w
  9823     144C  00F4               	movwf	send_cmd_raw@arg+1
  9824     144D  0820               	movf	send_cmd@arg,w
  9825     144E  00F3               	movwf	send_cmd_raw@arg
  9826     144F  0825               	movf	send_cmd@cmd,w
  9827     1450  3188  2005  3194   	fcall	_send_cmd_raw
  9828     1453                     l392:
  9829     1453  0008               	return
  9830     1454                     __end_of_send_cmd:
  9831                           
  9832                           	psect	text28
  9833     0805                     __ptext28:	
  9834 ;; *************** function _send_cmd_raw *****************
  9835 ;; Defined at:
  9836 ;;		line 53 in file "diskio.c"
  9837 ;; Parameters:    Size  Location     Type
  9838 ;;  cmd             1    wreg     unsigned char 
  9839 ;;  arg             4    3[COMMON] unsigned long 
  9840 ;; Auto vars:     Size  Location     Type
  9841 ;;  cmd             1   12[COMMON] unsigned char 
  9842 ;;  n               1   13[COMMON] unsigned char 
  9843 ;;  res             1   11[COMMON] unsigned char 
  9844 ;; Return value:  Size  Location     Type
  9845 ;;                  1    wreg      unsigned char 
  9846 ;; Registers used:
  9847 ;;		wreg, status,2, status,0, pclath, cstack
  9848 ;; Tracked objects:
  9849 ;;		On entry : 0/0
  9850 ;;		On exit  : 0/0
  9851 ;;		Unchanged: 0/0
  9852 ;; Data sizes:     COMMON   BANK0   BANK1   BANK2   BANK3   BANK4   BANK5   BANK6   BANK7   BANK8   BANK9  BANK10  BANK1
      +1  BANK12  BANK13  BANK14  BANK15  BANK16  BANK17  BANK18  BANK19  BANK20  BANK21  BANK22  BANK23  BANK24  BANK25
  9853 ;;      Params:         4       0       0       0       0       0       0       0       0       0       0       0       
      +0       0       0       0       0       0       0       0       0       0       0       0       0       0       0
  9854 ;;      Locals:         3       0       0       0       0       0       0       0       0       0       0       0       
      +0       0       0       0       0       0       0       0       0       0       0       0       0       0       0
  9855 ;;      Temps:          4       0       0       0       0       0       0       0       0       0       0       0       
      +0       0       0       0       0       0       0       0       0       0       0       0       0       0       0
  9856 ;;      Totals:        11       0       0       0       0       0       0       0       0       0       0       0       
      +0       0       0       0       0       0       0       0       0       0       0       0       0       0       0
  9857 ;;Total ram usage:       11 bytes
  9858 ;; Hardware stack levels used: 1
  9859 ;; Hardware stack levels required when called: 3
  9860 ;; This function calls:
  9861 ;;		_rcv_spi
  9862 ;;		_xmit_spi
  9863 ;; This function is called by:
  9864 ;;		_send_cmd
  9865 ;; This function uses a non-reentrant model
  9866 ;;
  9867                           
  9868     0805                     _send_cmd_raw:	
  9869                           ;psect for function _send_cmd_raw
  9870                           
  9871                           
  9872                           ;incstack = 0
  9873                           ; Regs used in _send_cmd_raw: [wreg+status,2+status,0+pclath+cstack]
  9874                           ;send_cmd_raw@cmd stored from wreg
  9875     0805  00FC               	movwf	send_cmd_raw@cmd
  9876     0806                     l2509:
  9877                           
  9878                           ;diskio.c: 53: static uint8_t send_cmd_raw(uint8_t cmd, uint32_t arg);diskio.c: 54: {;di
      +                          skio.c: 55:     uint8_t n, res;;diskio.c: 58:     (LATCbits.LATC2 = 1); rcv_spi();
  9879     0806  0022               	movlb	2	; select bank2
  9880     0807  150E               	bsf	14,2	;volatile
  9881     0808                     l2511:
  9882     0808  3193  2335  3188   	fcall	_rcv_spi
  9883     080B                     l2513:
  9884                           
  9885                           ;diskio.c: 59:     (LATCbits.LATC2 = 0); rcv_spi();
  9886     080B  0022               	movlb	2	; select bank2
  9887     080C  110E               	bcf	14,2	;volatile
  9888     080D  3193  2335  3188   	fcall	_rcv_spi
  9889                           
  9890                           ;diskio.c: 61:     xmit_spi(cmd);
  9891     0810  087C               	movf	send_cmd_raw@cmd,w
  9892     0811  3193  2340  3188   	fcall	_xmit_spi
  9893                           
  9894                           ;diskio.c: 62:     xmit_spi((uint8_t)(arg >> 24));
  9895     0814  0873               	movf	send_cmd_raw@arg,w
  9896     0815  00F7               	movwf	??_send_cmd_raw
  9897     0816  0874               	movf	send_cmd_raw@arg+1,w
  9898     0817  00F8               	movwf	??_send_cmd_raw+1
  9899     0818  0875               	movf	send_cmd_raw@arg+2,w
  9900     0819  00F9               	movwf	??_send_cmd_raw+2
  9901     081A  0876               	movf	send_cmd_raw@arg+3,w
  9902     081B  00FA               	movwf	??_send_cmd_raw+3
  9903     081C  3018               	movlw	24
  9904     081D                     u2135:
  9905     081D  36FA               	lsrf	??_send_cmd_raw+3,f
  9906     081E  0CF9               	rrf	??_send_cmd_raw+2,f
  9907     081F  0CF8               	rrf	??_send_cmd_raw+1,f
  9908     0820  0CF7               	rrf	??_send_cmd_raw,f
  9909     0821                     u2130:
  9910     0821  0B89               	decfsz	9,f
  9911     0822  281D               	goto	u2135
  9912     0823  0877               	movf	??_send_cmd_raw,w
  9913     0824  3193  2340  3188   	fcall	_xmit_spi
  9914                           
  9915                           ;diskio.c: 63:     xmit_spi((uint8_t)(arg >> 16));
  9916     0827  0873               	movf	send_cmd_raw@arg,w
  9917     0828  00F7               	movwf	??_send_cmd_raw
  9918     0829  0874               	movf	send_cmd_raw@arg+1,w
  9919     082A  00F8               	movwf	??_send_cmd_raw+1
  9920     082B  0875               	movf	send_cmd_raw@arg+2,w
  9921     082C  00F9               	movwf	??_send_cmd_raw+2
  9922     082D  0876               	movf	send_cmd_raw@arg+3,w
  9923     082E  00FA               	movwf	??_send_cmd_raw+3
  9924     082F  3010               	movlw	16
  9925     0830                     u2145:
  9926     0830  36FA               	lsrf	??_send_cmd_raw+3,f
  9927     0831  0CF9               	rrf	??_send_cmd_raw+2,f
  9928     0832  0CF8               	rrf	??_send_cmd_raw+1,f
  9929     0833  0CF7               	rrf	??_send_cmd_raw,f
  9930     0834                     u2140:
  9931     0834  0B89               	decfsz	9,f
  9932     0835  2830               	goto	u2145
  9933     0836  0877               	movf	??_send_cmd_raw,w
  9934     0837  3193  2340  3188   	fcall	_xmit_spi
  9935                           
  9936                           ;diskio.c: 64:     xmit_spi((uint8_t)(arg >> 8));
  9937     083A  0873               	movf	send_cmd_raw@arg,w
  9938     083B  00F7               	movwf	??_send_cmd_raw
  9939     083C  0874               	movf	send_cmd_raw@arg+1,w
  9940     083D  00F8               	movwf	??_send_cmd_raw+1
  9941     083E  0875               	movf	send_cmd_raw@arg+2,w
  9942     083F  00F9               	movwf	??_send_cmd_raw+2
  9943     0840  0876               	movf	send_cmd_raw@arg+3,w
  9944     0841  00FA               	movwf	??_send_cmd_raw+3
  9945     0842  3008               	movlw	8
  9946     0843                     u2155:
  9947     0843  36FA               	lsrf	??_send_cmd_raw+3,f
  9948     0844  0CF9               	rrf	??_send_cmd_raw+2,f
  9949     0845  0CF8               	rrf	??_send_cmd_raw+1,f
  9950     0846  0CF7               	rrf	??_send_cmd_raw,f
  9951     0847                     u2150:
  9952     0847  0B89               	decfsz	9,f
  9953     0848  2843               	goto	u2155
  9954     0849  0877               	movf	??_send_cmd_raw,w
  9955     084A  3193  2340  3188   	fcall	_xmit_spi
  9956                           
  9957                           ;diskio.c: 65:     xmit_spi((uint8_t)arg);
  9958     084D  0873               	movf	send_cmd_raw@arg,w
  9959     084E  3193  2340  3188   	fcall	_xmit_spi
  9960     0851                     l2515:
  9961                           
  9962                           ;diskio.c: 68:     n = 0x01;
  9963     0851  01FD               	clrf	send_cmd_raw@n
  9964     0852  0AFD               	incf	send_cmd_raw@n,f
  9965     0853                     l2517:
  9966                           
  9967                           ;diskio.c: 69:     if (cmd == (0x40+0)) n = 0x95;
  9968     0853  3040               	movlw	64
  9969     0854  067C               	xorwf	send_cmd_raw@cmd,w
  9970     0855  1D03               	btfss	3,2
  9971     0856  2858               	goto	u2161
  9972     0857  2859               	goto	u2160
  9973     0858                     u2161:
  9974     0858  285B               	goto	l2521
  9975     0859                     u2160:
  9976     0859                     l2519:
  9977     0859  3095               	movlw	149
  9978     085A  00FD               	movwf	send_cmd_raw@n
  9979     085B                     l2521:
  9980                           
  9981                           ;diskio.c: 70:     if (cmd == (0x40+8)) n = 0x87;
  9982     085B  3048               	movlw	72
  9983     085C  067C               	xorwf	send_cmd_raw@cmd,w
  9984     085D  1D03               	btfss	3,2
  9985     085E  2860               	goto	u2171
  9986     085F  2861               	goto	u2170
  9987     0860                     u2171:
  9988     0860  2863               	goto	l2525
  9989     0861                     u2170:
  9990     0861                     l2523:
  9991     0861  3087               	movlw	135
  9992     0862  00FD               	movwf	send_cmd_raw@n
  9993     0863                     l2525:
  9994                           
  9995                           ;diskio.c: 71:     xmit_spi(n);
  9996     0863  087D               	movf	send_cmd_raw@n,w
  9997     0864  3193  2340  3188   	fcall	_xmit_spi
  9998     0867                     l2527:
  9999                           
 10000                           ;diskio.c: 73:     n = 10;
 10001     0867  300A               	movlw	10
 10002     0868  00FD               	movwf	send_cmd_raw@n
 10003     0869                     l2529:
 10004     0869  3193  2335  3188   	fcall	_rcv_spi
 10005     086C  00FB               	movwf	send_cmd_raw@res
 10006     086D                     l2531:
 10007     086D  1FFB               	btfss	send_cmd_raw@res,7
 10008     086E  2870               	goto	u2181
 10009     086F  2871               	goto	u2180
 10010     0870                     u2181:
 10011     0870  2877               	goto	l2535
 10012     0871                     u2180:
 10013     0871                     l2533:
 10014     0871  3001               	movlw	1
 10015     0872  02FD               	subwf	send_cmd_raw@n,f
 10016     0873  1D03               	btfss	3,2
 10017     0874  2876               	goto	u2191
 10018     0875  2877               	goto	u2190
 10019     0876                     u2191:
 10020     0876  2869               	goto	l2529
 10021     0877                     u2190:
 10022     0877                     l2535:
 10023                           
 10024                           ;diskio.c: 76:     return res;
 10025     0877  087B               	movf	send_cmd_raw@res,w
 10026     0878                     l387:
 10027     0878  0008               	return
 10028     0879                     __end_of_send_cmd_raw:
 10029                           
 10030                           	psect	text29
 10031     1340                     __ptext29:	
 10032 ;; *************** function _xmit_spi *****************
 10033 ;; Defined at:
 10034 ;;		line 18 in file "diskio.c"
 10035 ;; Parameters:    Size  Location     Type
 10036 ;;  d               1    wreg     unsigned char 
 10037 ;; Auto vars:     Size  Location     Type
 10038 ;;  d               1    2[COMMON] unsigned char 
 10039 ;; Return value:  Size  Location     Type
 10040 ;;                  1    wreg      void 
 10041 ;; Registers used:
 10042 ;;		wreg, status,2, status,0, pclath, cstack
 10043 ;; Tracked objects:
 10044 ;;		On entry : 0/0
 10045 ;;		On exit  : 0/0
 10046 ;;		Unchanged: 0/0
 10047 ;; Data sizes:     COMMON   BANK0   BANK1   BANK2   BANK3   BANK4   BANK5   BANK6   BANK7   BANK8   BANK9  BANK10  BANK1
      +1  BANK12  BANK13  BANK14  BANK15  BANK16  BANK17  BANK18  BANK19  BANK20  BANK21  BANK22  BANK23  BANK24  BANK25
 10048 ;;      Params:         0       0       0       0       0       0       0       0       0       0       0       0       
      +0       0       0       0       0       0       0       0       0       0       0       0       0       0       0
 10049 ;;      Locals:         1       0       0       0       0       0       0       0       0       0       0       0       
      +0       0       0       0       0       0       0       0       0       0       0       0       0       0       0
 10050 ;;      Temps:          0       0       0       0       0       0       0       0       0       0       0       0       
      +0       0       0       0       0       0       0       0       0       0       0       0       0       0       0
 10051 ;;      Totals:         1       0       0       0       0       0       0       0       0       0       0       0       
      +0       0       0       0       0       0       0       0       0       0       0       0       0       0       0
 10052 ;;Total ram usage:        1 bytes
 10053 ;; Hardware stack levels used: 1
 10054 ;; Hardware stack levels required when called: 2
 10055 ;; This function calls:
 10056 ;;		_xfer_spi
 10057 ;; This function is called by:
 10058 ;;		_send_cmd_raw
 10059 ;;		_disk_writep
 10060 ;; This function uses a non-reentrant model
 10061 ;;
 10062                           
 10063     1340                     _xmit_spi:	
 10064                           ;psect for function _xmit_spi
 10065                           
 10066                           
 10067                           ;incstack = 0
 10068                           ; Regs used in _xmit_spi: [wreg+status,2+status,0+pclath+cstack]
 10069                           ;xmit_spi@d stored from wreg
 10070     1340  00F2               	movwf	xmit_spi@d
 10071     1341                     l2503:
 10072                           
 10073                           ;diskio.c: 18: static void xmit_spi(uint8_t d);diskio.c: 19: {;diskio.c: 20:     (void)x
      +                          fer_spi(d);
 10074     1341  0872               	movf	xmit_spi@d,w
 10075     1342  3193  233A  3193   	fcall	_xfer_spi
 10076     1345                     l370:
 10077     1345  0008               	return
 10078     1346                     __end_of_xmit_spi:
 10079                           
 10080                           	psect	text30
 10081     1335                     __ptext30:	
 10082 ;; *************** function _rcv_spi *****************
 10083 ;; Defined at:
 10084 ;;		line 23 in file "diskio.c"
 10085 ;; Parameters:    Size  Location     Type
 10086 ;;		None
 10087 ;; Auto vars:     Size  Location     Type
 10088 ;;		None
 10089 ;; Return value:  Size  Location     Type
 10090 ;;                  1    wreg      unsigned char 
 10091 ;; Registers used:
 10092 ;;		wreg, pclath, cstack
 10093 ;; Tracked objects:
 10094 ;;		On entry : 0/0
 10095 ;;		On exit  : 0/0
 10096 ;;		Unchanged: 0/0
 10097 ;; Data sizes:     COMMON   BANK0   BANK1   BANK2   BANK3   BANK4   BANK5   BANK6   BANK7   BANK8   BANK9  BANK10  BANK1
      +1  BANK12  BANK13  BANK14  BANK15  BANK16  BANK17  BANK18  BANK19  BANK20  BANK21  BANK22  BANK23  BANK24  BANK25
 10098 ;;      Params:         0       0       0       0       0       0       0       0       0       0       0       0       
      +0       0       0       0       0       0       0       0       0       0       0       0       0       0       0
 10099 ;;      Locals:         0       0       0       0       0       0       0       0       0       0       0       0       
      +0       0       0       0       0       0       0       0       0       0       0       0       0       0       0
 10100 ;;      Temps:          0       0       0       0       0       0       0       0       0       0       0       0       
      +0       0       0       0       0       0       0       0       0       0       0       0       0       0       0
 10101 ;;      Totals:         0       0       0       0       0       0       0       0       0       0       0       0       
      +0       0       0       0       0       0       0       0       0       0       0       0       0       0       0
 10102 ;;Total ram usage:        0 bytes
 10103 ;; Hardware stack levels used: 1
 10104 ;; Hardware stack levels required when called: 2
 10105 ;; This function calls:
 10106 ;;		_xfer_spi
 10107 ;; This function is called by:
 10108 ;;		_send_cmd_raw
 10109 ;;		_disk_initialize
 10110 ;;		_disk_readp
 10111 ;;		_disk_writep
 10112 ;; This function uses a non-reentrant model
 10113 ;;
 10114                           
 10115     1335                     _rcv_spi:	
 10116                           ;psect for function _rcv_spi
 10117                           
 10118     1335                     l2505:	
 10119                           ;incstack = 0
 10120                           ; Regs used in _rcv_spi: [wreg+pclath+cstack]
 10121                           
 10122                           
 10123                           ;diskio.c: 25:     return xfer_spi(0xFF);
 10124     1335  30FF               	movlw	255
 10125     1336  3193  233A  3193   	fcall	_xfer_spi
 10126     1339                     l373:
 10127     1339  0008               	return
 10128     133A                     __end_of_rcv_spi:
 10129                           
 10130                           	psect	text31
 10131     133A                     __ptext31:	
 10132 ;; *************** function _xfer_spi *****************
 10133 ;; Defined at:
 10134 ;;		line 13 in file "diskio.c"
 10135 ;; Parameters:    Size  Location     Type
 10136 ;;  d               1    wreg     unsigned char 
 10137 ;; Auto vars:     Size  Location     Type
 10138 ;;  d               1    1[COMMON] unsigned char 
 10139 ;; Return value:  Size  Location     Type
 10140 ;;                  1    wreg      unsigned char 
 10141 ;; Registers used:
 10142 ;;		wreg, pclath, cstack
 10143 ;; Tracked objects:
 10144 ;;		On entry : 0/0
 10145 ;;		On exit  : 0/0
 10146 ;;		Unchanged: 0/0
 10147 ;; Data sizes:     COMMON   BANK0   BANK1   BANK2   BANK3   BANK4   BANK5   BANK6   BANK7   BANK8   BANK9  BANK10  BANK1
      +1  BANK12  BANK13  BANK14  BANK15  BANK16  BANK17  BANK18  BANK19  BANK20  BANK21  BANK22  BANK23  BANK24  BANK25
 10148 ;;      Params:         0       0       0       0       0       0       0       0       0       0       0       0       
      +0       0       0       0       0       0       0       0       0       0       0       0       0       0       0
 10149 ;;      Locals:         1       0       0       0       0       0       0       0       0       0       0       0       
      +0       0       0       0       0       0       0       0       0       0       0       0       0       0       0
 10150 ;;      Temps:          0       0       0       0       0       0       0       0       0       0       0       0       
      +0       0       0       0       0       0       0       0       0       0       0       0       0       0       0
 10151 ;;      Totals:         1       0       0       0       0       0       0       0       0       0       0       0       
      +0       0       0       0       0       0       0       0       0       0       0       0       0       0       0
 10152 ;;Total ram usage:        1 bytes
 10153 ;; Hardware stack levels used: 1
 10154 ;; Hardware stack levels required when called: 1
 10155 ;; This function calls:
 10156 ;;		_SPI_Exchange8bit
 10157 ;; This function is called by:
 10158 ;;		_xmit_spi
 10159 ;;		_rcv_spi
 10160 ;; This function uses a non-reentrant model
 10161 ;;
 10162                           
 10163     133A                     _xfer_spi:	
 10164                           ;psect for function _xfer_spi
 10165                           
 10166                           
 10167                           ;incstack = 0
 10168                           ; Regs used in _xfer_spi: [wreg+pclath+cstack]
 10169                           ;xfer_spi@d stored from wreg
 10170     133A  00F1               	movwf	xfer_spi@d
 10171     133B                     l2499:
 10172                           
 10173                           ;diskio.c: 13: static __attribute__((inline)) uint8_t xfer_spi(uint8_t d);diskio.c: 14: 
      +                          {;diskio.c: 15:     return SPI_Exchange8bit(d);
 10174     133B  0871               	movf	xfer_spi@d,w
 10175     133C  3193  2366  3193   	fcall	_SPI_Exchange8bit
 10176     133F                     l367:
 10177     133F  0008               	return
 10178     1340                     __end_of_xfer_spi:
 10179                           
 10180                           	psect	text32
 10181     1366                     __ptext32:	
 10182 ;; *************** function _SPI_Exchange8bit *****************
 10183 ;; Defined at:
 10184 ;;		line 86 in file "SPI.c"
 10185 ;; Parameters:    Size  Location     Type
 10186 ;;  data            1    wreg     unsigned char 
 10187 ;; Auto vars:     Size  Location     Type
 10188 ;;  data            1    0[COMMON] unsigned char 
 10189 ;; Return value:  Size  Location     Type
 10190 ;;                  1    wreg      unsigned char 
 10191 ;; Registers used:
 10192 ;;		wreg
 10193 ;; Tracked objects:
 10194 ;;		On entry : 0/0
 10195 ;;		On exit  : 0/0
 10196 ;;		Unchanged: 0/0
 10197 ;; Data sizes:     COMMON   BANK0   BANK1   BANK2   BANK3   BANK4   BANK5   BANK6   BANK7   BANK8   BANK9  BANK10  BANK1
      +1  BANK12  BANK13  BANK14  BANK15  BANK16  BANK17  BANK18  BANK19  BANK20  BANK21  BANK22  BANK23  BANK24  BANK25
 10198 ;;      Params:         0       0       0       0       0       0       0       0       0       0       0       0       
      +0       0       0       0       0       0       0       0       0       0       0       0       0       0       0
 10199 ;;      Locals:         1       0       0       0       0       0       0       0       0       0       0       0       
      +0       0       0       0       0       0       0       0       0       0       0       0       0       0       0
 10200 ;;      Temps:          0       0       0       0       0       0       0       0       0       0       0       0       
      +0       0       0       0       0       0       0       0       0       0       0       0       0       0       0
 10201 ;;      Totals:         1       0       0       0       0       0       0       0       0       0       0       0       
      +0       0       0       0       0       0       0       0       0       0       0       0       0       0       0
 10202 ;;Total ram usage:        1 bytes
 10203 ;; Hardware stack levels used: 1
 10204 ;; This function calls:
 10205 ;;		Nothing
 10206 ;; This function is called by:
 10207 ;;		_xfer_spi
 10208 ;;		_SPI_Exchange8bitBuffer
 10209 ;; This function uses a non-reentrant model
 10210 ;;
 10211                           
 10212     1366                     _SPI_Exchange8bit:	
 10213                           ;psect for function _SPI_Exchange8bit
 10214                           
 10215                           
 10216                           ;incstack = 0
 10217                           ; Regs used in _SPI_Exchange8bit: [wreg]
 10218                           ;SPI_Exchange8bit@data stored from wreg
 10219     1366  00F0               	movwf	SPI_Exchange8bit@data
 10220     1367                     l2491:
 10221                           
 10222                           ;SPI.c: 86: uint8_t SPI_Exchange8bit(uint8_t data);SPI.c: 87: {;SPI.c: 89:     SSP1CON1b
      +                          its.WCOL = 0;
 10223     1367  0024               	movlb	4	; select bank4
 10224     1368  1395               	bcf	21,7	;volatile
 10225     1369                     l2493:
 10226                           
 10227                           ;SPI.c: 92:     SSPBUF = data;
 10228     1369  0870               	movf	SPI_Exchange8bit@data,w
 10229     136A  0091               	movwf	17	;volatile
 10230     136B                     l119:	
 10231                           ;SPI.c: 96:     {;SPI.c: 97:     }
 10232                           
 10233                           
 10234                           ;SPI.c: 95:     while (SSP1STATbits.BF == 0x0)
 10235     136B  1C14               	btfss	20,0	;volatile
 10236     136C  2B6E               	goto	u2121
 10237     136D  2B6F               	goto	u2120
 10238     136E                     u2121:
 10239     136E  2B6B               	goto	l119
 10240     136F                     u2120:
 10241     136F                     l2495:
 10242                           
 10243                           ;SPI.c: 100:     return (SSPBUF);
 10244     136F  0811               	movf	17,w	;volatile
 10245     1370                     l122:
 10246     1370  0008               	return
 10247     1371                     __end_of_SPI_Exchange8bit:
 10248                           
 10249                           	psect	text33
 10250     1454                     __ptext33:	
 10251 ;; *************** function ___lmul *****************
 10252 ;; Defined at:
 10253 ;;		line 15 in file "C:\Program Files\Microchip\xc8\v2.46\pic\sources\c99\common\Umul32.c"
 10254 ;; Parameters:    Size  Location     Type
 10255 ;;  multiplier      4    0[COMMON] unsigned long 
 10256 ;;  multiplicand    4    4[COMMON] unsigned long 
 10257 ;; Auto vars:     Size  Location     Type
 10258 ;;  product         4    8[COMMON] unsigned long 
 10259 ;; Return value:  Size  Location     Type
 10260 ;;                  4    0[COMMON] unsigned long 
 10261 ;; Registers used:
 10262 ;;		wreg, status,2, status,0
 10263 ;; Tracked objects:
 10264 ;;		On entry : 0/0
 10265 ;;		On exit  : 0/0
 10266 ;;		Unchanged: 0/0
 10267 ;; Data sizes:     COMMON   BANK0   BANK1   BANK2   BANK3   BANK4   BANK5   BANK6   BANK7   BANK8   BANK9  BANK10  BANK1
      +1  BANK12  BANK13  BANK14  BANK15  BANK16  BANK17  BANK18  BANK19  BANK20  BANK21  BANK22  BANK23  BANK24  BANK25
 10268 ;;      Params:         8       0       0       0       0       0       0       0       0       0       0       0       
      +0       0       0       0       0       0       0       0       0       0       0       0       0       0       0
 10269 ;;      Locals:         4       0       0       0       0       0       0       0       0       0       0       0       
      +0       0       0       0       0       0       0       0       0       0       0       0       0       0       0
 10270 ;;      Temps:          0       0       0       0       0       0       0       0       0       0       0       0       
      +0       0       0       0       0       0       0       0       0       0       0       0       0       0       0
 10271 ;;      Totals:        12       0       0       0       0       0       0       0       0       0       0       0       
      +0       0       0       0       0       0       0       0       0       0       0       0       0       0       0
 10272 ;;Total ram usage:       12 bytes
 10273 ;; Hardware stack levels used: 1
 10274 ;; This function calls:
 10275 ;;		Nothing
 10276 ;; This function is called by:
 10277 ;;		_clust2sect
 10278 ;;		_pf_mount
 10279 ;; This function uses a non-reentrant model
 10280 ;;
 10281                           
 10282     1454                     ___lmul:	
 10283                           ;psect for function ___lmul
 10284                           
 10285     1454                     l2619:	
 10286                           ;incstack = 0
 10287                           ; Regs used in ___lmul: [wreg+status,2+status,0]
 10288                           
 10289     1454  3000               	movlw	0
 10290     1455  00FB               	movwf	___lmul@product+3
 10291     1456  3000               	movlw	0
 10292     1457  00FA               	movwf	___lmul@product+2
 10293     1458  3000               	movlw	0
 10294     1459  00F9               	movwf	___lmul@product+1
 10295     145A  3000               	movlw	0
 10296     145B  00F8               	movwf	___lmul@product
 10297     145C                     l2621:
 10298     145C  1C70               	btfss	___lmul@multiplier,0
 10299     145D  2C5F               	goto	u2341
 10300     145E  2C60               	goto	u2340
 10301     145F                     u2341:
 10302     145F  2C68               	goto	l2625
 10303     1460                     u2340:
 10304     1460                     l2623:
 10305     1460  0874               	movf	___lmul@multiplicand,w
 10306     1461  07F8               	addwf	___lmul@product,f
 10307     1462  0875               	movf	___lmul@multiplicand+1,w
 10308     1463  3DF9               	addwfc	___lmul@product+1,f
 10309     1464  0876               	movf	___lmul@multiplicand+2,w
 10310     1465  3DFA               	addwfc	___lmul@product+2,f
 10311     1466  0877               	movf	___lmul@multiplicand+3,w
 10312     1467  3DFB               	addwfc	___lmul@product+3,f
 10313     1468                     l2625:
 10314     1468  3001               	movlw	1
 10315     1469                     u2355:
 10316     1469  35F4               	lslf	___lmul@multiplicand,f
 10317     146A  0DF5               	rlf	___lmul@multiplicand+1,f
 10318     146B  0DF6               	rlf	___lmul@multiplicand+2,f
 10319     146C  0DF7               	rlf	___lmul@multiplicand+3,f
 10320     146D  0B89               	decfsz	9,f
 10321     146E  2C69               	goto	u2355
 10322     146F                     l2627:
 10323     146F  3001               	movlw	1
 10324     1470                     u2365:
 10325     1470  36F3               	lsrf	___lmul@multiplier+3,f
 10326     1471  0CF2               	rrf	___lmul@multiplier+2,f
 10327     1472  0CF1               	rrf	___lmul@multiplier+1,f
 10328     1473  0CF0               	rrf	___lmul@multiplier,f
 10329     1474  0B89               	decfsz	9,f
 10330     1475  2C70               	goto	u2365
 10331     1476  0873               	movf	___lmul@multiplier+3,w
 10332     1477  0472               	iorwf	___lmul@multiplier+2,w
 10333     1478  0471               	iorwf	___lmul@multiplier+1,w
 10334     1479  0470               	iorwf	___lmul@multiplier,w
 10335     147A  1D03               	skipz
 10336     147B  2C7D               	goto	u2371
 10337     147C  2C7E               	goto	u2370
 10338     147D                     u2371:
 10339     147D  2C5C               	goto	l2621
 10340     147E                     u2370:
 10341     147E                     l2629:
 10342     147E  087B               	movf	___lmul@product+3,w
 10343     147F  00F3               	movwf	?___lmul+3
 10344     1480  087A               	movf	___lmul@product+2,w
 10345     1481  00F2               	movwf	?___lmul+2
 10346     1482  0879               	movf	___lmul@product+1,w
 10347     1483  00F1               	movwf	?___lmul+1
 10348     1484  0878               	movf	___lmul@product,w
 10349     1485  00F0               	movwf	?___lmul
 10350     1486                     l651:
 10351     1486  0008               	return
 10352     1487                     __end_of___lmul:
 10353                           
 10354                           	psect	text34
 10355     15BB                     __ptext34:	
 10356 ;; *************** function ___lldiv *****************
 10357 ;; Defined at:
 10358 ;;		line 5 in file "C:\Program Files\Microchip\xc8\v2.46\pic\sources\c99\common\__lldiv.c"
 10359 ;; Parameters:    Size  Location     Type
 10360 ;;  divisor         4    0[BANK0 ] unsigned long 
 10361 ;;  dividend        4    4[BANK0 ] unsigned long 
 10362 ;; Auto vars:     Size  Location     Type
 10363 ;;  quotient        4    8[BANK0 ] unsigned long 
 10364 ;;  counter         1   12[BANK0 ] unsigned char 
 10365 ;; Return value:  Size  Location     Type
 10366 ;;                  4    0[BANK0 ] unsigned long 
 10367 ;; Registers used:
 10368 ;;		wreg, status,2, status,0
 10369 ;; Tracked objects:
 10370 ;;		On entry : 0/0
 10371 ;;		On exit  : 0/0
 10372 ;;		Unchanged: 0/0
 10373 ;; Data sizes:     COMMON   BANK0   BANK1   BANK2   BANK3   BANK4   BANK5   BANK6   BANK7   BANK8   BANK9  BANK10  BANK1
      +1  BANK12  BANK13  BANK14  BANK15  BANK16  BANK17  BANK18  BANK19  BANK20  BANK21  BANK22  BANK23  BANK24  BANK25
 10374 ;;      Params:         0       8       0       0       0       0       0       0       0       0       0       0       
      +0       0       0       0       0       0       0       0       0       0       0       0       0       0       0
 10375 ;;      Locals:         0       5       0       0       0       0       0       0       0       0       0       0       
      +0       0       0       0       0       0       0       0       0       0       0       0       0       0       0
 10376 ;;      Temps:          1       0       0       0       0       0       0       0       0       0       0       0       
      +0       0       0       0       0       0       0       0       0       0       0       0       0       0       0
 10377 ;;      Totals:         1      13       0       0       0       0       0       0       0       0       0       0       
      +0       0       0       0       0       0       0       0       0       0       0       0       0       0       0
 10378 ;;Total ram usage:       14 bytes
 10379 ;; Hardware stack levels used: 1
 10380 ;; This function calls:
 10381 ;;		Nothing
 10382 ;; This function is called by:
 10383 ;;		_pf_mount
 10384 ;;		_pf_lseek
 10385 ;; This function uses a non-reentrant model
 10386 ;;
 10387                           
 10388     15BB                     ___lldiv:	
 10389                           ;psect for function ___lldiv
 10390                           
 10391     15BB                     l3007:	
 10392                           ;incstack = 0
 10393                           ; Regs used in ___lldiv: [wreg+status,2+status,0]
 10394                           
 10395     15BB  3000               	movlw	0
 10396     15BC  0020               	movlb	0	; select bank0
 10397     15BD  00AB               	movwf	___lldiv@quotient+3
 10398     15BE  3000               	movlw	0
 10399     15BF  00AA               	movwf	___lldiv@quotient+2
 10400     15C0  3000               	movlw	0
 10401     15C1  00A9               	movwf	___lldiv@quotient+1
 10402     15C2  3000               	movlw	0
 10403     15C3  00A8               	movwf	___lldiv@quotient
 10404     15C4  0823               	movf	___lldiv@divisor+3,w
 10405     15C5  0422               	iorwf	___lldiv@divisor+2,w
 10406     15C6  0421               	iorwf	___lldiv@divisor+1,w
 10407     15C7  0420               	iorwf	___lldiv@divisor,w
 10408     15C8  1903               	skipnz
 10409     15C9  2DCB               	goto	u2941
 10410     15CA  2DCC               	goto	u2940
 10411     15CB                     u2941:
 10412     15CB  2E0D               	goto	l3027
 10413     15CC                     u2940:
 10414     15CC                     l3009:
 10415     15CC  01AC               	clrf	___lldiv@counter
 10416     15CD  0AAC               	incf	___lldiv@counter,f
 10417     15CE  2DDA               	goto	l3013
 10418     15CF                     l3011:
 10419     15CF  3001               	movlw	1
 10420     15D0                     u2955:
 10421     15D0  35A0               	lslf	___lldiv@divisor,f
 10422     15D1  0DA1               	rlf	___lldiv@divisor+1,f
 10423     15D2  0DA2               	rlf	___lldiv@divisor+2,f
 10424     15D3  0DA3               	rlf	___lldiv@divisor+3,f
 10425     15D4  0B89               	decfsz	9,f
 10426     15D5  2DD0               	goto	u2955
 10427     15D6  3001               	movlw	1
 10428     15D7  00F9               	movwf	??___lldiv
 10429     15D8  0879               	movf	??___lldiv,w
 10430     15D9  07AC               	addwf	___lldiv@counter,f
 10431     15DA                     l3013:
 10432     15DA  1FA3               	btfss	___lldiv@divisor+3,7
 10433     15DB  2DDD               	goto	u2961
 10434     15DC  2DDE               	goto	u2960
 10435     15DD                     u2961:
 10436     15DD  2DCF               	goto	l3011
 10437     15DE                     u2960:
 10438     15DE                     l3015:
 10439     15DE  3001               	movlw	1
 10440     15DF                     u2975:
 10441     15DF  35A8               	lslf	___lldiv@quotient,f
 10442     15E0  0DA9               	rlf	___lldiv@quotient+1,f
 10443     15E1  0DAA               	rlf	___lldiv@quotient+2,f
 10444     15E2  0DAB               	rlf	___lldiv@quotient+3,f
 10445     15E3  0B89               	decfsz	9,f
 10446     15E4  2DDF               	goto	u2975
 10447     15E5                     l3017:
 10448     15E5  0823               	movf	___lldiv@divisor+3,w
 10449     15E6  0227               	subwf	___lldiv@dividend+3,w
 10450     15E7  1D03               	skipz
 10451     15E8  2DF3               	goto	u2985
 10452     15E9  0822               	movf	___lldiv@divisor+2,w
 10453     15EA  0226               	subwf	___lldiv@dividend+2,w
 10454     15EB  1D03               	skipz
 10455     15EC  2DF3               	goto	u2985
 10456     15ED  0821               	movf	___lldiv@divisor+1,w
 10457     15EE  0225               	subwf	___lldiv@dividend+1,w
 10458     15EF  1D03               	skipz
 10459     15F0  2DF3               	goto	u2985
 10460     15F1  0820               	movf	___lldiv@divisor,w
 10461     15F2  0224               	subwf	___lldiv@dividend,w
 10462     15F3                     u2985:
 10463     15F3  1C03               	skipc
 10464     15F4  2DF6               	goto	u2981
 10465     15F5  2DF7               	goto	u2980
 10466     15F6                     u2981:
 10467     15F6  2E00               	goto	l3023
 10468     15F7                     u2980:
 10469     15F7                     l3019:
 10470     15F7  0820               	movf	___lldiv@divisor,w
 10471     15F8  02A4               	subwf	___lldiv@dividend,f
 10472     15F9  0821               	movf	___lldiv@divisor+1,w
 10473     15FA  3BA5               	subwfb	___lldiv@dividend+1,f
 10474     15FB  0822               	movf	___lldiv@divisor+2,w
 10475     15FC  3BA6               	subwfb	___lldiv@dividend+2,f
 10476     15FD  0823               	movf	___lldiv@divisor+3,w
 10477     15FE  3BA7               	subwfb	___lldiv@dividend+3,f
 10478     15FF                     l3021:
 10479     15FF  1428               	bsf	___lldiv@quotient,0
 10480     1600                     l3023:
 10481     1600  3001               	movlw	1
 10482     1601                     u2995:
 10483     1601  36A3               	lsrf	___lldiv@divisor+3,f
 10484     1602  0CA2               	rrf	___lldiv@divisor+2,f
 10485     1603  0CA1               	rrf	___lldiv@divisor+1,f
 10486     1604  0CA0               	rrf	___lldiv@divisor,f
 10487     1605  0B89               	decfsz	9,f
 10488     1606  2E01               	goto	u2995
 10489     1607                     l3025:
 10490     1607  3001               	movlw	1
 10491     1608  02AC               	subwf	___lldiv@counter,f
 10492     1609  1D03               	btfss	3,2
 10493     160A  2E0C               	goto	u3001
 10494     160B  2E0D               	goto	u3000
 10495     160C                     u3001:
 10496     160C  2DDE               	goto	l3015
 10497     160D                     u3000:
 10498     160D                     l3027:
 10499     160D  082B               	movf	___lldiv@quotient+3,w
 10500     160E  00A3               	movwf	?___lldiv+3
 10501     160F  082A               	movf	___lldiv@quotient+2,w
 10502     1610  00A2               	movwf	?___lldiv+2
 10503     1611  0829               	movf	___lldiv@quotient+1,w
 10504     1612  00A1               	movwf	?___lldiv+1
 10505     1613  0828               	movf	___lldiv@quotient,w
 10506     1614  00A0               	movwf	?___lldiv
 10507     1615                     l673:
 10508     1615  0008               	return
 10509     1616                     __end_of___lldiv:
 10510                           
 10511                           	psect	text35
 10512     150D                     __ptext35:	
 10513 ;; *************** function _initMain *****************
 10514 ;; Defined at:
 10515 ;;		line 47 in file "main.c"
 10516 ;; Parameters:    Size  Location     Type
 10517 ;;		None
 10518 ;; Auto vars:     Size  Location     Type
 10519 ;;		None
 10520 ;; Return value:  Size  Location     Type
 10521 ;;                  1    wreg      void 
 10522 ;; Registers used:
 10523 ;;		wreg, status,2, status,0, pclath, cstack
 10524 ;; Tracked objects:
 10525 ;;		On entry : 0/0
 10526 ;;		On exit  : 0/0
 10527 ;;		Unchanged: 0/0
 10528 ;; Data sizes:     COMMON   BANK0   BANK1   BANK2   BANK3   BANK4   BANK5   BANK6   BANK7   BANK8   BANK9  BANK10  BANK1
      +1  BANK12  BANK13  BANK14  BANK15  BANK16  BANK17  BANK18  BANK19  BANK20  BANK21  BANK22  BANK23  BANK24  BANK25
 10529 ;;      Params:         0       0       0       0       0       0       0       0       0       0       0       0       
      +0       0       0       0       0       0       0       0       0       0       0       0       0       0       0
 10530 ;;      Locals:         0       0       0       0       0       0       0       0       0       0       0       0       
      +0       0       0       0       0       0       0       0       0       0       0       0       0       0       0
 10531 ;;      Temps:          2       0       0       0       0       0       0       0       0       0       0       0       
      +0       0       0       0       0       0       0       0       0       0       0       0       0       0       0
 10532 ;;      Totals:         2       0       0       0       0       0       0       0       0       0       0       0       
      +0       0       0       0       0       0       0       0       0       0       0       0       0       0       0
 10533 ;;Total ram usage:        2 bytes
 10534 ;; Hardware stack levels used: 1
 10535 ;; Hardware stack levels required when called: 2
 10536 ;; This function calls:
 10537 ;;		_EUSART_Initialize
 10538 ;;		_SPI_Initialize
 10539 ;;		_internal_32
 10540 ;; This function is called by:
 10541 ;;		_main
 10542 ;; This function uses a non-reentrant model
 10543 ;;
 10544                           
 10545     150D                     _initMain:	
 10546                           ;psect for function _initMain
 10547                           
 10548     150D                     l3577:	
 10549                           ;incstack = 0
 10550                           ; Regs used in _initMain: [wreg+status,2+status,0+pclath+cstack]
 10551                           
 10552                           
 10553                           ;main.c: 50:     internal_32();
 10554     150D  3193  2353  3195   	fcall	_internal_32
 10555     1510                     l3579:
 10556                           
 10557                           ;main.c: 53:     _delay((unsigned long)((100)*(32000000/4000.0)));
 10558     1510  3005               	movlw	5
 10559     1511  00FC               	movwf	??_initMain+1
 10560     1512  300F               	movlw	15
 10561     1513  00FB               	movwf	??_initMain
 10562     1514  30F1               	movlw	241
 10563     1515                     u4197:
 10564     1515  0B89               	decfsz	9,f
 10565     1516  2D15               	goto	u4197
 10566     1517  0BFB               	decfsz	??_initMain,f
 10567     1518  2D15               	goto	u4197
 10568     1519  0BFC               	decfsz	??_initMain+1,f
 10569     151A  2D15               	goto	u4197
 10570     151B  0000               	nop
 10571     151C                     l3581:
 10572                           
 10573                           ;main.c: 58:     ANSELBbits.ANSB2 = 0;
 10574     151C  0023               	movlb	3	; select bank3
 10575     151D  110D               	bcf	13,2	;volatile
 10576     151E                     l3583:
 10577                           
 10578                           ;main.c: 59:     ANSELBbits.ANSB3 = 0;
 10579     151E  118D               	bcf	13,3	;volatile
 10580     151F                     l3585:
 10581                           
 10582                           ;main.c: 60:     TRISBbits.TRISB2 = 0;
 10583     151F  0021               	movlb	1	; select bank1
 10584     1520  110D               	bcf	13,2	;volatile
 10585     1521                     l3587:
 10586                           
 10587                           ;main.c: 61:     TRISBbits.TRISB3 = 1;
 10588     1521  158D               	bsf	13,3	;volatile
 10589     1522                     l3589:
 10590                           
 10591                           ;main.c: 70:     ANSELCbits.ANSC2 = 0;
 10592     1522  0023               	movlb	3	; select bank3
 10593     1523  110E               	bcf	14,2	;volatile
 10594     1524                     l3591:
 10595                           
 10596                           ;main.c: 71:     ANSELCbits.ANSC3 = 0;
 10597     1524  118E               	bcf	14,3	;volatile
 10598     1525                     l3593:
 10599                           
 10600                           ;main.c: 72:     ANSELCbits.ANSC4 = 0;
 10601     1525  120E               	bcf	14,4	;volatile
 10602     1526                     l3595:
 10603                           
 10604                           ;main.c: 73:     ANSELCbits.ANSC5 = 0;
 10605     1526  128E               	bcf	14,5	;volatile
 10606     1527                     l3597:
 10607                           
 10608                           ;main.c: 75:     TRISCbits.TRISC2 = 0;
 10609     1527  0021               	movlb	1	; select bank1
 10610     1528  110E               	bcf	14,2	;volatile
 10611     1529                     l3599:
 10612                           
 10613                           ;main.c: 76:     TRISCbits.TRISC3 = 0;
 10614     1529  118E               	bcf	14,3	;volatile
 10615     152A                     l3601:
 10616                           
 10617                           ;main.c: 77:     TRISCbits.TRISC4 = 1;
 10618     152A  160E               	bsf	14,4	;volatile
 10619     152B                     l3603:
 10620                           
 10621                           ;main.c: 78:     TRISCbits.TRISC5 = 0;
 10622     152B  128E               	bcf	14,5	;volatile
 10623     152C                     l3605:
 10624                           
 10625                           ;main.c: 80:     LATCbits.LATC2 = 1;
 10626     152C  0022               	movlb	2	; select bank2
 10627     152D  150E               	bsf	14,2	;volatile
 10628     152E                     l3607:
 10629                           
 10630                           ;main.c: 85:     PPSLOCK = 0x55;
 10631     152E  3055               	movlw	85
 10632     152F  003C               	movlb	28	; select bank28
 10633     1530  008F               	movwf	15	;volsfr
 10634     1531                     l3609:
 10635                           
 10636                           ;main.c: 86:     PPSLOCK = 0xAA;
 10637     1531  30AA               	movlw	170
 10638     1532  008F               	movwf	15	;volsfr
 10639     1533                     l3611:
 10640                           
 10641                           ;main.c: 87:     PPSLOCKbits.PPSLOCKED = 0x00;
 10642     1533  100F               	bcf	15,0	;volsfr
 10643     1534                     l3613:
 10644                           
 10645                           ;main.c: 90:     RB2PPSbits.RB2PPS = 0x14;
 10646     1534  003D               	movlb	29	; select bank29
 10647     1535  081A               	movf	26,w	;volatile
 10648     1536  39E0               	andlw	-32
 10649     1537  3814               	iorlw	20
 10650     1538  009A               	movwf	26	;volatile
 10651     1539                     l3615:
 10652                           
 10653                           ;main.c: 91:     RXPPSbits.RXPPS = 0x0B;
 10654     1539  003C               	movlb	28	; select bank28
 10655     153A  0824               	movf	36,w	;volatile
 10656     153B  39E0               	andlw	-32
 10657     153C  380B               	iorlw	11
 10658     153D  00A4               	movwf	36	;volatile
 10659     153E                     l3617:
 10660                           
 10661                           ;main.c: 94:     SSPDATPPSbits.SSPDATPPS = 0x14;
 10662     153E  0821               	movf	33,w	;volatile
 10663     153F  39E0               	andlw	-32
 10664     1540  3814               	iorlw	20
 10665     1541  00A1               	movwf	33	;volatile
 10666     1542                     l3619:
 10667                           
 10668                           ;main.c: 95:     RC3PPSbits.RC3PPS = 0x10;
 10669     1542  003D               	movlb	29	; select bank29
 10670     1543  0823               	movf	35,w	;volatile
 10671     1544  39E0               	andlw	-32
 10672     1545  3810               	iorlw	16
 10673     1546  00A3               	movwf	35	;volatile
 10674     1547                     l3621:
 10675                           
 10676                           ;main.c: 96:     RC5PPSbits.RC5PPS = 0x11;
 10677     1547  0825               	movf	37,w	;volatile
 10678     1548  39E0               	andlw	-32
 10679     1549  3811               	iorlw	17
 10680     154A  00A5               	movwf	37	;volatile
 10681     154B                     l3623:
 10682                           
 10683                           ;main.c: 98:     PPSLOCK = 0x55;
 10684     154B  3055               	movlw	85
 10685     154C  003C               	movlb	28	; select bank28
 10686     154D  008F               	movwf	15	;volsfr
 10687     154E                     l3625:
 10688                           
 10689                           ;main.c: 99:     PPSLOCK = 0xAA;
 10690     154E  30AA               	movlw	170
 10691     154F  008F               	movwf	15	;volsfr
 10692     1550                     l3627:
 10693                           
 10694                           ;main.c: 100:     PPSLOCKbits.PPSLOCKED = 0x01;
 10695     1550  140F               	bsf	15,0	;volsfr
 10696     1551                     l3629:
 10697                           
 10698                           ;main.c: 103:     SPI_Initialize();
 10699     1551  3193  234C  3195   	fcall	_SPI_Initialize
 10700     1554                     l3631:
 10701                           
 10702                           ;main.c: 104:     EUSART_Initialize(19200);
 10703     1554  3000               	movlw	0
 10704     1555  0020               	movlb	0	; select bank0
 10705     1556  00A9               	movwf	EUSART_Initialize@baudrate+3
 10706     1557  3000               	movlw	0
 10707     1558  00A8               	movwf	EUSART_Initialize@baudrate+2
 10708     1559  304B               	movlw	75
 10709     155A  00A7               	movwf	EUSART_Initialize@baudrate+1
 10710     155B  3000               	movlw	0
 10711     155C  00A6               	movwf	EUSART_Initialize@baudrate
 10712     155D  3180  2006  3195   	fcall	_EUSART_Initialize
 10713     1560                     l520:
 10714     1560  0008               	return
 10715     1561                     __end_of_initMain:
 10716                           
 10717                           	psect	text36
 10718     1353                     __ptext36:	
 10719 ;; *************** function _internal_32 *****************
 10720 ;; Defined at:
 10721 ;;		line 36 in file "PIC16F1718_Internal.c"
 10722 ;; Parameters:    Size  Location     Type
 10723 ;;		None
 10724 ;; Auto vars:     Size  Location     Type
 10725 ;;		None
 10726 ;; Return value:  Size  Location     Type
 10727 ;;                  1    wreg      void 
 10728 ;; Registers used:
 10729 ;;		None
 10730 ;; Tracked objects:
 10731 ;;		On entry : 0/0
 10732 ;;		On exit  : 0/0
 10733 ;;		Unchanged: 0/0
 10734 ;; Data sizes:     COMMON   BANK0   BANK1   BANK2   BANK3   BANK4   BANK5   BANK6   BANK7   BANK8   BANK9  BANK10  BANK1
      +1  BANK12  BANK13  BANK14  BANK15  BANK16  BANK17  BANK18  BANK19  BANK20  BANK21  BANK22  BANK23  BANK24  BANK25
 10735 ;;      Params:         0       0       0       0       0       0       0       0       0       0       0       0       
      +0       0       0       0       0       0       0       0       0       0       0       0       0       0       0
 10736 ;;      Locals:         0       0       0       0       0       0       0       0       0       0       0       0       
      +0       0       0       0       0       0       0       0       0       0       0       0       0       0       0
 10737 ;;      Temps:          0       0       0       0       0       0       0       0       0       0       0       0       
      +0       0       0       0       0       0       0       0       0       0       0       0       0       0       0
 10738 ;;      Totals:         0       0       0       0       0       0       0       0       0       0       0       0       
      +0       0       0       0       0       0       0       0       0       0       0       0       0       0       0
 10739 ;;Total ram usage:        0 bytes
 10740 ;; Hardware stack levels used: 1
 10741 ;; This function calls:
 10742 ;;		Nothing
 10743 ;; This function is called by:
 10744 ;;		_initMain
 10745 ;; This function uses a non-reentrant model
 10746 ;;
 10747                           
 10748     1353                     _internal_32:	
 10749                           ;psect for function _internal_32
 10750                           
 10751     1353                     l3097:	
 10752                           ;incstack = 0
 10753                           ; Regs used in _internal_32: []
 10754                           
 10755                           
 10756                           ;PIC16F1718_Internal.c: 38:     SCS0 = 0;
 10757     1353  0021               	movlb	1	; select bank1
 10758     1354  1019               	bcf	25,0	;volatile
 10759                           
 10760                           ;PIC16F1718_Internal.c: 39:     SCS1 = 0;
 10761     1355  1099               	bcf	25,1	;volatile
 10762                           
 10763                           ;PIC16F1718_Internal.c: 42:     IRCF0 = 0;
 10764     1356  1199               	bcf	25,3	;volatile
 10765                           
 10766                           ;PIC16F1718_Internal.c: 43:     IRCF1 = 1;
 10767     1357  1619               	bsf	25,4	;volatile
 10768                           
 10769                           ;PIC16F1718_Internal.c: 44:     IRCF2 = 1;
 10770     1358  1699               	bsf	25,5	;volatile
 10771                           
 10772                           ;PIC16F1718_Internal.c: 45:     IRCF3 = 1;
 10773     1359  1719               	bsf	25,6	;volatile
 10774                           
 10775                           ;PIC16F1718_Internal.c: 48:     SPLLEN = 1;
 10776     135A  1799               	bsf	25,7	;volatile
 10777     135B                     l83:
 10778     135B  0008               	return
 10779     135C                     __end_of_internal_32:
 10780                           
 10781                           	psect	text37
 10782     134C                     __ptext37:	
 10783 ;; *************** function _SPI_Initialize *****************
 10784 ;; Defined at:
 10785 ;;		line 52 in file "SPI.c"
 10786 ;; Parameters:    Size  Location     Type
 10787 ;;		None
 10788 ;; Auto vars:     Size  Location     Type
 10789 ;;		None
 10790 ;; Return value:  Size  Location     Type
 10791 ;;                  1    wreg      void 
 10792 ;; Registers used:
 10793 ;;		wreg, status,2
 10794 ;; Tracked objects:
 10795 ;;		On entry : 0/0
 10796 ;;		On exit  : 0/0
 10797 ;;		Unchanged: 0/0
 10798 ;; Data sizes:     COMMON   BANK0   BANK1   BANK2   BANK3   BANK4   BANK5   BANK6   BANK7   BANK8   BANK9  BANK10  BANK1
      +1  BANK12  BANK13  BANK14  BANK15  BANK16  BANK17  BANK18  BANK19  BANK20  BANK21  BANK22  BANK23  BANK24  BANK25
 10799 ;;      Params:         0       0       0       0       0       0       0       0       0       0       0       0       
      +0       0       0       0       0       0       0       0       0       0       0       0       0       0       0
 10800 ;;      Locals:         0       0       0       0       0       0       0       0       0       0       0       0       
      +0       0       0       0       0       0       0       0       0       0       0       0       0       0       0
 10801 ;;      Temps:          0       0       0       0       0       0       0       0       0       0       0       0       
      +0       0       0       0       0       0       0       0       0       0       0       0       0       0       0
 10802 ;;      Totals:         0       0       0       0       0       0       0       0       0       0       0       0       
      +0       0       0       0       0       0       0       0       0       0       0       0       0       0       0
 10803 ;;Total ram usage:        0 bytes
 10804 ;; Hardware stack levels used: 1
 10805 ;; This function calls:
 10806 ;;		Nothing
 10807 ;; This function is called by:
 10808 ;;		_initMain
 10809 ;; This function uses a non-reentrant model
 10810 ;;
 10811                           
 10812     134C                     _SPI_Initialize:	
 10813                           ;psect for function _SPI_Initialize
 10814                           
 10815     134C                     l3099:	
 10816                           ;incstack = 0
 10817                           ; Regs used in _SPI_Initialize: [wreg+status,2]
 10818                           
 10819                           
 10820                           ;SPI.c: 59:     SSP1STAT = 0x40;
 10821     134C  3040               	movlw	64
 10822     134D  0024               	movlb	4	; select bank4
 10823     134E  0094               	movwf	20	;volatile
 10824                           
 10825                           ;SPI.c: 63:     SSP1CON1 = 0x22;
 10826     134F  3022               	movlw	34
 10827     1350  0095               	movwf	21	;volatile
 10828     1351                     l3101:
 10829                           
 10830                           ;SPI.c: 66:     SSP1ADD = 0x00;
 10831     1351  0192               	clrf	18	;volatile
 10832     1352                     l116:
 10833     1352  0008               	return
 10834     1353                     __end_of_SPI_Initialize:
 10835                           
 10836                           	psect	text38
 10837     0006                     __ptext38:	
 10838 ;; *************** function _EUSART_Initialize *****************
 10839 ;; Defined at:
 10840 ;;		line 36 in file "EUSART.c"
 10841 ;; Parameters:    Size  Location     Type
 10842 ;;  baudrate        4    6[BANK0 ] const long 
 10843 ;; Auto vars:     Size  Location     Type
 10844 ;;  x               2    9[COMMON] unsigned int 
 10845 ;; Return value:  Size  Location     Type
 10846 ;;                  1    wreg      unsigned char 
 10847 ;; Registers used:
 10848 ;;		wreg, status,2, status,0, pclath, cstack
 10849 ;; Tracked objects:
 10850 ;;		On entry : 0/0
 10851 ;;		On exit  : 0/0
 10852 ;;		Unchanged: 0/0
 10853 ;; Data sizes:     COMMON   BANK0   BANK1   BANK2   BANK3   BANK4   BANK5   BANK6   BANK7   BANK8   BANK9  BANK10  BANK1
      +1  BANK12  BANK13  BANK14  BANK15  BANK16  BANK17  BANK18  BANK19  BANK20  BANK21  BANK22  BANK23  BANK24  BANK25
 10854 ;;      Params:         0       4       0       0       0       0       0       0       0       0       0       0       
      +0       0       0       0       0       0       0       0       0       0       0       0       0       0       0
 10855 ;;      Locals:         2       0       0       0       0       0       0       0       0       0       0       0       
      +0       0       0       0       0       0       0       0       0       0       0       0       0       0       0
 10856 ;;      Temps:          0      12       0       0       0       0       0       0       0       0       0       0       
      +0       0       0       0       0       0       0       0       0       0       0       0       0       0       0
 10857 ;;      Totals:         2      16       0       0       0       0       0       0       0       0       0       0       
      +0       0       0       0       0       0       0       0       0       0       0       0       0       0       0
 10858 ;;Total ram usage:       18 bytes
 10859 ;; Hardware stack levels used: 1
 10860 ;; Hardware stack levels required when called: 1
 10861 ;; This function calls:
 10862 ;;		___aldiv
 10863 ;; This function is called by:
 10864 ;;		_initMain
 10865 ;; This function uses a non-reentrant model
 10866 ;;
 10867                           
 10868     0006                     _EUSART_Initialize:	
 10869                           ;psect for function _EUSART_Initialize
 10870                           
 10871     0006                     l3071:	
 10872                           ;incstack = 0
 10873                           ; Regs used in _EUSART_Initialize: [wreg+status,2+status,0+pclath+cstack]
 10874                           
 10875                           
 10876                           ;EUSART.c: 36: char EUSART_Initialize(const long int baudrate);EUSART.c: 37: {;EUSART.c:
      +                           38:     unsigned int x;;EUSART.c: 39:  x = (32000000 - baudrate*64)/(baudrate*64);
 10877     0006  0020               	movlb	0	; select bank0
 10878     0007  0826               	movf	EUSART_Initialize@baudrate,w
 10879     0008  00AA               	movwf	??_EUSART_Initialize
 10880     0009  0827               	movf	EUSART_Initialize@baudrate+1,w
 10881     000A  00AB               	movwf	??_EUSART_Initialize+1
 10882     000B  0828               	movf	EUSART_Initialize@baudrate+2,w
 10883     000C  00AC               	movwf	??_EUSART_Initialize+2
 10884     000D  0829               	movf	EUSART_Initialize@baudrate+3,w
 10885     000E  00AD               	movwf	??_EUSART_Initialize+3
 10886     000F  3006               	movlw	6
 10887     0010                     u3115:
 10888     0010  35AA               	lslf	??_EUSART_Initialize,f
 10889     0011  0DAB               	rlf	??_EUSART_Initialize+1,f
 10890     0012  0DAC               	rlf	??_EUSART_Initialize+2,f
 10891     0013  0DAD               	rlf	??_EUSART_Initialize+3,f
 10892     0014                     u3110:
 10893     0014  0B89               	decfsz	9,f
 10894     0015  2810               	goto	u3115
 10895     0016  082D               	movf	??_EUSART_Initialize+3,w
 10896     0017  00F3               	movwf	___aldiv@divisor+3
 10897     0018  082C               	movf	??_EUSART_Initialize+2,w
 10898     0019  00F2               	movwf	___aldiv@divisor+2
 10899     001A  082B               	movf	??_EUSART_Initialize+1,w
 10900     001B  00F1               	movwf	___aldiv@divisor+1
 10901     001C  082A               	movf	??_EUSART_Initialize,w
 10902     001D  00F0               	movwf	___aldiv@divisor
 10903     001E  0826               	movf	EUSART_Initialize@baudrate,w
 10904     001F  00AE               	movwf	??_EUSART_Initialize+4
 10905     0020  0827               	movf	EUSART_Initialize@baudrate+1,w
 10906     0021  00AF               	movwf	??_EUSART_Initialize+5
 10907     0022  0828               	movf	EUSART_Initialize@baudrate+2,w
 10908     0023  00B0               	movwf	??_EUSART_Initialize+6
 10909     0024  0829               	movf	EUSART_Initialize@baudrate+3,w
 10910     0025  00B1               	movwf	??_EUSART_Initialize+7
 10911     0026  3006               	movlw	6
 10912     0027                     u3125:
 10913     0027  35AE               	lslf	??_EUSART_Initialize+4,f
 10914     0028  0DAF               	rlf	??_EUSART_Initialize+5,f
 10915     0029  0DB0               	rlf	??_EUSART_Initialize+6,f
 10916     002A  0DB1               	rlf	??_EUSART_Initialize+7,f
 10917     002B                     u3120:
 10918     002B  0B89               	decfsz	9,f
 10919     002C  2827               	goto	u3125
 10920     002D  3000               	movlw	0
 10921     002E  00B2               	movwf	??_EUSART_Initialize+8
 10922     002F  3048               	movlw	72
 10923     0030  00B3               	movwf	??_EUSART_Initialize+9
 10924     0031  30E8               	movlw	232
 10925     0032  00B4               	movwf	??_EUSART_Initialize+10
 10926     0033  3001               	movlw	1
 10927     0034  00B5               	movwf	??_EUSART_Initialize+11
 10928     0035  082E               	movf	??_EUSART_Initialize+4,w
 10929     0036  02B2               	subwf	??_EUSART_Initialize+8,f
 10930     0037  082F               	movf	??_EUSART_Initialize+5,w
 10931     0038  3BB3               	subwfb	??_EUSART_Initialize+9,f
 10932     0039  0830               	movf	??_EUSART_Initialize+6,w
 10933     003A  3BB4               	subwfb	??_EUSART_Initialize+10,f
 10934     003B  0831               	movf	??_EUSART_Initialize+7,w
 10935     003C  3BB5               	subwfb	??_EUSART_Initialize+11,f
 10936     003D  0835               	movf	??_EUSART_Initialize+11,w
 10937     003E  00F7               	movwf	___aldiv@dividend+3
 10938     003F  0834               	movf	??_EUSART_Initialize+10,w
 10939     0040  00F6               	movwf	___aldiv@dividend+2
 10940     0041  0833               	movf	??_EUSART_Initialize+9,w
 10941     0042  00F5               	movwf	___aldiv@dividend+1
 10942     0043  0832               	movf	??_EUSART_Initialize+8,w
 10943     0044  00F4               	movwf	___aldiv@dividend
 10944     0045  3189  218A  3180   	fcall	___aldiv
 10945     0048  0871               	movf	?___aldiv+1,w
 10946     0049  00FA               	movwf	EUSART_Initialize@x+1
 10947     004A  0870               	movf	?___aldiv,w
 10948     004B  00F9               	movwf	EUSART_Initialize@x
 10949     004C                     l3073:
 10950                           
 10951                           ;EUSART.c: 41:  SPBRGL = x;
 10952     004C  0879               	movf	EUSART_Initialize@x,w
 10953     004D  0023               	movlb	3	; select bank3
 10954     004E  009B               	movwf	27	;volatile
 10955     004F                     l3075:
 10956                           
 10957                           ;EUSART.c: 42:     BRGH = 0;
 10958     004F  111E               	bcf	30,2	;volatile
 10959     0050                     l3077:
 10960                           
 10961                           ;EUSART.c: 43:     BRG16 = 0;
 10962     0050  119F               	bcf	31,3	;volatile
 10963     0051                     l3079:
 10964                           
 10965                           ;EUSART.c: 44:     SYNC = 0;
 10966     0051  121E               	bcf	30,4	;volatile
 10967     0052                     l3081:
 10968                           
 10969                           ;EUSART.c: 45:     SPEN = 1;
 10970     0052  179D               	bsf	29,7	;volatile
 10971     0053                     l3083:
 10972                           
 10973                           ;EUSART.c: 46:     CREN = 1;
 10974     0053  161D               	bsf	29,4	;volatile
 10975     0054                     l3085:
 10976                           
 10977                           ;EUSART.c: 47:     TXEN = 1;
 10978     0054  169E               	bsf	30,5	;volatile
 10979     0055                     l25:
 10980     0055  0008               	return
 10981     0056                     __end_of_EUSART_Initialize:
 10982                           
 10983                           	psect	text39
 10984     098A                     __ptext39:	
 10985 ;; *************** function ___aldiv *****************
 10986 ;; Defined at:
 10987 ;;		line 5 in file "C:\Program Files\Microchip\xc8\v2.46\pic\sources\c99\common\aldiv.c"
 10988 ;; Parameters:    Size  Location     Type
 10989 ;;  divisor         4    0[COMMON] long 
 10990 ;;  dividend        4    4[COMMON] long 
 10991 ;; Auto vars:     Size  Location     Type
 10992 ;;  quotient        4    2[BANK0 ] long 
 10993 ;;  sign            1    1[BANK0 ] unsigned char 
 10994 ;;  counter         1    0[BANK0 ] unsigned char 
 10995 ;; Return value:  Size  Location     Type
 10996 ;;                  4    0[COMMON] long 
 10997 ;; Registers used:
 10998 ;;		wreg, status,2, status,0
 10999 ;; Tracked objects:
 11000 ;;		On entry : 0/0
 11001 ;;		On exit  : 0/0
 11002 ;;		Unchanged: 0/0
 11003 ;; Data sizes:     COMMON   BANK0   BANK1   BANK2   BANK3   BANK4   BANK5   BANK6   BANK7   BANK8   BANK9  BANK10  BANK1
      +1  BANK12  BANK13  BANK14  BANK15  BANK16  BANK17  BANK18  BANK19  BANK20  BANK21  BANK22  BANK23  BANK24  BANK25
 11004 ;;      Params:         8       0       0       0       0       0       0       0       0       0       0       0       
      +0       0       0       0       0       0       0       0       0       0       0       0       0       0       0
 11005 ;;      Locals:         0       6       0       0       0       0       0       0       0       0       0       0       
      +0       0       0       0       0       0       0       0       0       0       0       0       0       0       0
 11006 ;;      Temps:          1       0       0       0       0       0       0       0       0       0       0       0       
      +0       0       0       0       0       0       0       0       0       0       0       0       0       0       0
 11007 ;;      Totals:         9       6       0       0       0       0       0       0       0       0       0       0       
      +0       0       0       0       0       0       0       0       0       0       0       0       0       0       0
 11008 ;;Total ram usage:       15 bytes
 11009 ;; Hardware stack levels used: 1
 11010 ;; This function calls:
 11011 ;;		Nothing
 11012 ;; This function is called by:
 11013 ;;		_EUSART_Initialize
 11014 ;; This function uses a non-reentrant model
 11015 ;;
 11016                           
 11017     098A                     ___aldiv:	
 11018                           ;psect for function ___aldiv
 11019                           
 11020     098A                     l3031:	
 11021                           ;incstack = 0
 11022                           ; Regs used in ___aldiv: [wreg+status,2+status,0]
 11023                           
 11024     098A  0020               	movlb	0	; select bank0
 11025     098B  01A1               	clrf	___aldiv@sign
 11026     098C                     l3033:
 11027     098C  1FF3               	btfss	___aldiv@divisor+3,7
 11028     098D  298F               	goto	u3011
 11029     098E  2990               	goto	u3010
 11030     098F                     u3011:
 11031     098F  299D               	goto	l702
 11032     0990                     u3010:
 11033     0990                     l3035:
 11034     0990  09F0               	comf	___aldiv@divisor,f
 11035     0991  09F1               	comf	___aldiv@divisor+1,f
 11036     0992  09F2               	comf	___aldiv@divisor+2,f
 11037     0993  09F3               	comf	___aldiv@divisor+3,f
 11038     0994  0AF0               	incf	___aldiv@divisor,f
 11039     0995  1903               	skipnz
 11040     0996  0AF1               	incf	___aldiv@divisor+1,f
 11041     0997  1903               	skipnz
 11042     0998  0AF2               	incf	___aldiv@divisor+2,f
 11043     0999  1903               	skipnz
 11044     099A  0AF3               	incf	___aldiv@divisor+3,f
 11045     099B  01A1               	clrf	___aldiv@sign
 11046     099C  0AA1               	incf	___aldiv@sign,f
 11047     099D                     l702:
 11048     099D  1FF7               	btfss	___aldiv@dividend+3,7
 11049     099E  29A0               	goto	u3021
 11050     099F  29A1               	goto	u3020
 11051     09A0                     u3021:
 11052     09A0  29B0               	goto	l3041
 11053     09A1                     u3020:
 11054     09A1                     l3037:
 11055     09A1  09F4               	comf	___aldiv@dividend,f
 11056     09A2  09F5               	comf	___aldiv@dividend+1,f
 11057     09A3  09F6               	comf	___aldiv@dividend+2,f
 11058     09A4  09F7               	comf	___aldiv@dividend+3,f
 11059     09A5  0AF4               	incf	___aldiv@dividend,f
 11060     09A6  1903               	skipnz
 11061     09A7  0AF5               	incf	___aldiv@dividend+1,f
 11062     09A8  1903               	skipnz
 11063     09A9  0AF6               	incf	___aldiv@dividend+2,f
 11064     09AA  1903               	skipnz
 11065     09AB  0AF7               	incf	___aldiv@dividend+3,f
 11066     09AC                     l3039:
 11067     09AC  3001               	movlw	1
 11068     09AD  00F8               	movwf	??___aldiv
 11069     09AE  0878               	movf	??___aldiv,w
 11070     09AF  06A1               	xorwf	___aldiv@sign,f
 11071     09B0                     l3041:
 11072     09B0  3000               	movlw	0
 11073     09B1  00A5               	movwf	___aldiv@quotient+3
 11074     09B2  3000               	movlw	0
 11075     09B3  00A4               	movwf	___aldiv@quotient+2
 11076     09B4  3000               	movlw	0
 11077     09B5  00A3               	movwf	___aldiv@quotient+1
 11078     09B6  3000               	movlw	0
 11079     09B7  00A2               	movwf	___aldiv@quotient
 11080     09B8                     l3043:
 11081     09B8  0873               	movf	___aldiv@divisor+3,w
 11082     09B9  0472               	iorwf	___aldiv@divisor+2,w
 11083     09BA  0471               	iorwf	___aldiv@divisor+1,w
 11084     09BB  0470               	iorwf	___aldiv@divisor,w
 11085     09BC  1903               	skipnz
 11086     09BD  29BF               	goto	u3031
 11087     09BE  29C0               	goto	u3030
 11088     09BF                     u3031:
 11089     09BF  2A01               	goto	l3063
 11090     09C0                     u3030:
 11091     09C0                     l3045:
 11092     09C0  01A0               	clrf	___aldiv@counter
 11093     09C1  0AA0               	incf	___aldiv@counter,f
 11094     09C2  29CE               	goto	l3049
 11095     09C3                     l3047:
 11096     09C3  3001               	movlw	1
 11097     09C4                     u3045:
 11098     09C4  35F0               	lslf	___aldiv@divisor,f
 11099     09C5  0DF1               	rlf	___aldiv@divisor+1,f
 11100     09C6  0DF2               	rlf	___aldiv@divisor+2,f
 11101     09C7  0DF3               	rlf	___aldiv@divisor+3,f
 11102     09C8  0B89               	decfsz	9,f
 11103     09C9  29C4               	goto	u3045
 11104     09CA  3001               	movlw	1
 11105     09CB  00F8               	movwf	??___aldiv
 11106     09CC  0878               	movf	??___aldiv,w
 11107     09CD  07A0               	addwf	___aldiv@counter,f
 11108     09CE                     l3049:
 11109     09CE  1FF3               	btfss	___aldiv@divisor+3,7
 11110     09CF  29D1               	goto	u3051
 11111     09D0  29D2               	goto	u3050
 11112     09D1                     u3051:
 11113     09D1  29C3               	goto	l3047
 11114     09D2                     u3050:
 11115     09D2                     l3051:
 11116     09D2  3001               	movlw	1
 11117     09D3                     u3065:
 11118     09D3  35A2               	lslf	___aldiv@quotient,f
 11119     09D4  0DA3               	rlf	___aldiv@quotient+1,f
 11120     09D5  0DA4               	rlf	___aldiv@quotient+2,f
 11121     09D6  0DA5               	rlf	___aldiv@quotient+3,f
 11122     09D7  0B89               	decfsz	9,f
 11123     09D8  29D3               	goto	u3065
 11124     09D9                     l3053:
 11125     09D9  0873               	movf	___aldiv@divisor+3,w
 11126     09DA  0277               	subwf	___aldiv@dividend+3,w
 11127     09DB  1D03               	skipz
 11128     09DC  29E7               	goto	u3075
 11129     09DD  0872               	movf	___aldiv@divisor+2,w
 11130     09DE  0276               	subwf	___aldiv@dividend+2,w
 11131     09DF  1D03               	skipz
 11132     09E0  29E7               	goto	u3075
 11133     09E1  0871               	movf	___aldiv@divisor+1,w
 11134     09E2  0275               	subwf	___aldiv@dividend+1,w
 11135     09E3  1D03               	skipz
 11136     09E4  29E7               	goto	u3075
 11137     09E5  0870               	movf	___aldiv@divisor,w
 11138     09E6  0274               	subwf	___aldiv@dividend,w
 11139     09E7                     u3075:
 11140     09E7  1C03               	skipc
 11141     09E8  29EA               	goto	u3071
 11142     09E9  29EB               	goto	u3070
 11143     09EA                     u3071:
 11144     09EA  29F4               	goto	l3059
 11145     09EB                     u3070:
 11146     09EB                     l3055:
 11147     09EB  0870               	movf	___aldiv@divisor,w
 11148     09EC  02F4               	subwf	___aldiv@dividend,f
 11149     09ED  0871               	movf	___aldiv@divisor+1,w
 11150     09EE  3BF5               	subwfb	___aldiv@dividend+1,f
 11151     09EF  0872               	movf	___aldiv@divisor+2,w
 11152     09F0  3BF6               	subwfb	___aldiv@dividend+2,f
 11153     09F1  0873               	movf	___aldiv@divisor+3,w
 11154     09F2  3BF7               	subwfb	___aldiv@dividend+3,f
 11155     09F3                     l3057:
 11156     09F3  1422               	bsf	___aldiv@quotient,0
 11157     09F4                     l3059:
 11158     09F4  3001               	movlw	1
 11159     09F5                     u3085:
 11160     09F5  36F3               	lsrf	___aldiv@divisor+3,f
 11161     09F6  0CF2               	rrf	___aldiv@divisor+2,f
 11162     09F7  0CF1               	rrf	___aldiv@divisor+1,f
 11163     09F8  0CF0               	rrf	___aldiv@divisor,f
 11164     09F9  0B89               	decfsz	9,f
 11165     09FA  29F5               	goto	u3085
 11166     09FB                     l3061:
 11167     09FB  3001               	movlw	1
 11168     09FC  02A0               	subwf	___aldiv@counter,f
 11169     09FD  1D03               	btfss	3,2
 11170     09FE  2A00               	goto	u3091
 11171     09FF  2A01               	goto	u3090
 11172     0A00                     u3091:
 11173     0A00  29D2               	goto	l3051
 11174     0A01                     u3090:
 11175     0A01                     l3063:
 11176     0A01  0821               	movf	___aldiv@sign,w
 11177     0A02  1903               	btfsc	3,2
 11178     0A03  2A05               	goto	u3101
 11179     0A04  2A06               	goto	u3100
 11180     0A05                     u3101:
 11181     0A05  2A11               	goto	l3067
 11182     0A06                     u3100:
 11183     0A06                     l3065:
 11184     0A06  09A2               	comf	___aldiv@quotient,f
 11185     0A07  09A3               	comf	___aldiv@quotient+1,f
 11186     0A08  09A4               	comf	___aldiv@quotient+2,f
 11187     0A09  09A5               	comf	___aldiv@quotient+3,f
 11188     0A0A  0AA2               	incf	___aldiv@quotient,f
 11189     0A0B  1903               	skipnz
 11190     0A0C  0AA3               	incf	___aldiv@quotient+1,f
 11191     0A0D  1903               	skipnz
 11192     0A0E  0AA4               	incf	___aldiv@quotient+2,f
 11193     0A0F  1903               	skipnz
 11194     0A10  0AA5               	incf	___aldiv@quotient+3,f
 11195     0A11                     l3067:
 11196     0A11  0825               	movf	___aldiv@quotient+3,w
 11197     0A12  00F3               	movwf	?___aldiv+3
 11198     0A13  0824               	movf	___aldiv@quotient+2,w
 11199     0A14  00F2               	movwf	?___aldiv+2
 11200     0A15  0823               	movf	___aldiv@quotient+1,w
 11201     0A16  00F1               	movwf	?___aldiv+1
 11202     0A17  0822               	movf	___aldiv@quotient,w
 11203     0A18  00F0               	movwf	?___aldiv
 11204     0A19                     l712:
 11205     0A19  0008               	return
 11206     0A1A                     __end_of___aldiv:
 11207     007E                     btemp	set	126	;btemp
 11208     007E                     wtemp0	set	126
 11209                           
 11210                           	psect	config
 11211                           
 11212                           ;Config register CONFIG1 @ 0x8007
 11213                           ;	Oscillator Selection Bits
 11214                           ;	FOSC = INTOSC, INTOSC oscillator: I/O function on CLKIN pin
 11215                           ;	Watchdog Timer Enable
 11216                           ;	WDTE = OFF, WDT disabled
 11217                           ;	Power-up Timer Enable
 11218                           ;	PWRTE = OFF, PWRT disabled
 11219                           ;	MCLR Pin Function Select
 11220                           ;	MCLRE = OFF, MCLR/VPP pin function is digital input if LVP bit is also 0.
 11221                           ;	Flash Program Memory Code Protection
 11222                           ;	CP = OFF, Program memory code protection is disabled
 11223                           ;	Brown-out Reset Enable
 11224                           ;	BOREN = OFF, Brown-out Reset disabled
 11225                           ;	Clock Out Enable
 11226                           ;	CLKOUTEN = OFF, CLKOUT function is disabled. I/O or oscillator function on the CLKOUT 
      +                          pin
 11227                           ;	Internal/External Switchover Mode
 11228                           ;	IESO = ON, Internal/External Switchover Mode is enabled
 11229                           ;	Fail-Safe Clock Monitor Enable
 11230                           ;	FCMEN = OFF, Fail-Safe Clock Monitor is disabled
 11231     8007                     	org	32775
 11232     8007  19A4               	dw	6564
 11233                           
 11234                           ;Config register CONFIG2 @ 0x8008
 11235                           ;	Flash Memory Self-Write Protection
 11236                           ;	WRT = OFF, Write protection off
 11237                           ;	Peripheral Pin Select one-way control
 11238                           ;	PPS1WAY = ON, The PPSLOCK bit cannot be cleared once it is set by software
 11239                           ;	Zero-cross detect disable
 11240                           ;	ZCDDIS = ON, ZCD disabled. ZCD can be enabled by setting the ZCDSEN bit of ZCDCON
 11241                           ;	Phase Lock Loop enable
 11242                           ;	PLLEN = OFF, 4x PLL is disabled
 11243                           ;	Stack Overflow/Underflow Reset Enable
 11244                           ;	STVREN = ON, Stack Overflow or Underflow will cause a Reset
 11245                           ;	Brown-out Reset Voltage Selection
 11246                           ;	BORV = LO, Brown-out Reset Voltage (Vbor), low trip point selected.
 11247                           ;	Low-Power Brown Out Reset
 11248                           ;	LPBOR = OFF, Low-Power BOR is disabled
 11249                           ;	In-Circuit Debugger Mode
 11250                           ;	DEBUG = 0x1, unprogrammed default
 11251                           ;	Low-Voltage Programming Enable
 11252                           ;	LVP = OFF, High-voltage on MCLR/VPP must be used for programming
 11253     8008                     	org	32776
 11254     8008  1EFF               	dw	7935

Data Sizes:
    Strings     200
    Constant    25
    Data        0
    BSS         46
    Persistent  32
    Stack       0

Auto Spaces:
    Space          Size  Autos    Used
    COMMON           14     14      14
    BANK0            80     79      80
    BANK1            80     69      72
    BANK2            80     39      39
    BANK3            80      0      42
    BANK4            80      0       0
    BANK5            80      0       0
    BANK6            80      0       0
    BANK7            80      0       0
    BANK8            80      0       0
    BANK9            80      0       0
    BANK10           80      0       0
    BANK11           80      0       0
    BANK12           80      0       0
    BANK13           80      0       0
    BANK14           80      0       0
    BANK15           80      0       0
    BANK16           80      0       0
    BANK17           80      0       0
    BANK18           80      0       0
    BANK19           80      0       0
    BANK20           80      0       0
    BANK21           80      0       0
    BANK22           80      0       0
    BANK23           80      0       0
    BANK24           80      0       0
    BANK25           32      0       0

Pointer List with Targets:

    check_fs@buf	PTR unsigned char  size(1) Largest target is 36
		 -> pf_mount@buf(BANK1[36]), 

    clust2sect@fs	PTR struct . size(1) Largest target is 42
		 -> fs(BANK3[42]), NULL(NULL[0]), 

    create_name@dj	PTR struct . size(1) Largest target is 16
		 -> pf_open@dj(BANK1[15]), 

    create_name@dj$fn	PTR unsigned char  size(1) Largest target is 12
		 -> pf_open@sp(BANK1[12]), 

    create_name@p	PTR const unsigned char  size(2) Largest target is 8
		 -> STR_2(CODE[8]), 

    create_name@path	PTR PTR const unsigned char  size(1) Largest target is 2
		 -> follow_path@path(BANK0[2]), 

    create_name@sfn	PTR unsigned char  size(1) Largest target is 12
		 -> pf_open@sp(BANK1[12]), 

    dir_find@dir	PTR unsigned char  size(1) Largest target is 32
		 -> pf_open@dir(BANK1[32]), 

    dir_find@dj	PTR struct . size(1) Largest target is 16
		 -> pf_open@dj(BANK1[15]), 

    dir_find@dj$fn	PTR unsigned char  size(1) Largest target is 12
		 -> pf_open@sp(BANK1[12]), 

    dir_next@dj	PTR struct . size(1) Largest target is 16
		 -> pf_open@dj(BANK1[15]), 

    dir_next@dj$fn	PTR unsigned char  size(1) Largest target is 12
		 -> pf_open@sp(BANK1[12]), 

    dir_next@fs	PTR struct . size(1) Largest target is 42
		 -> fs(BANK3[42]), NULL(NULL[0]), 

    dir_rewind@dj	PTR struct . size(1) Largest target is 16
		 -> pf_open@dj(BANK1[15]), 

    dir_rewind@dj$fn	PTR unsigned char  size(1) Largest target is 12
		 -> pf_open@sp(BANK1[12]), 

    dir_rewind@fs	PTR struct . size(1) Largest target is 42
		 -> fs(BANK3[42]), NULL(NULL[0]), 

    disk_readp@buff	PTR unsigned char  size(1) Largest target is 36
		 -> get_fat@buf(BANK0[4]), pf_mount@buf(BANK1[36]), pf_open@dir(BANK1[32]), 

    disk_writep@buff	PTR const unsigned char  size(2) Largest target is 32
		 -> write_test@msg(CODE[25]), write_test@pad(BANK2[32]), NULL(NULL[0]), 

    dj$fn	PTR unsigned char  size(1) Largest target is 12
		 -> pf_open@sp(BANK1[12]), 

    EUSART_Write_Text@text	PTR unsigned char  size(2) Largest target is 20
		 -> STR_1(CODE[20]), STR_10(CODE[20]), STR_11(CODE[16]), STR_12(CODE[13]), 
		 -> STR_13(CODE[12]), STR_14(CODE[12]), STR_3(CODE[14]), STR_4(CODE[12]), 
		 -> STR_5(CODE[17]), STR_6(CODE[15]), STR_7(CODE[16]), STR_8(CODE[15]), 
		 -> STR_9(CODE[10]), 

    FatFs	PTR struct . size(1) Largest target is 42
		 -> fs(BANK3[42]), NULL(NULL[0]), 

    follow_path@dir	PTR unsigned char  size(1) Largest target is 32
		 -> pf_open@dir(BANK1[32]), 

    follow_path@dj	PTR struct . size(1) Largest target is 16
		 -> pf_open@dj(BANK1[15]), 

    follow_path@dj$fn	PTR unsigned char  size(1) Largest target is 12
		 -> pf_open@sp(BANK1[12]), 

    follow_path@path	PTR const unsigned char  size(2) Largest target is 8
		 -> STR_2(CODE[8]), 

    get_clust@dir	PTR unsigned char  size(1) Largest target is 32
		 -> pf_open@dir(BANK1[32]), 

    get_clust@fs	PTR struct . size(1) Largest target is 42
		 -> fs(BANK3[42]), NULL(NULL[0]), 

    get_fat@fs	PTR struct . size(1) Largest target is 42
		 -> fs(BANK3[42]), NULL(NULL[0]), 

    ld_dword@ptr	PTR const unsigned char  size(1) Largest target is 36
		 -> get_fat@buf(BANK0[4]), pf_mount@buf(BANK1[36]), pf_open@dir(BANK1[32]), 

    ld_word@ptr	PTR const unsigned char  size(1) Largest target is 36
		 -> pf_mount@buf(BANK1[36]), pf_open@dir(BANK1[32]), 

    mem_cmp@d	PTR const unsigned char  size(1) Largest target is 32
		 -> pf_open@dir(BANK1[32]), 

    mem_cmp@dst	PTR const void  size(1) Largest target is 32
		 -> pf_open@dir(BANK1[32]), 

    mem_cmp@s	PTR const unsigned char  size(1) Largest target is 12
		 -> pf_open@sp(BANK1[12]), 

    mem_cmp@src	PTR const void  size(1) Largest target is 12
		 -> pf_open@sp(BANK1[12]), 

    mem_set@d	PTR unsigned char  size(1) Largest target is 12
		 -> pf_open@sp(BANK1[12]), 

    mem_set@dst	PTR void  size(1) Largest target is 12
		 -> pf_open@sp(BANK1[12]), 

    memset@dest	PTR void  size(1) Largest target is 32
		 -> write_test@pad(BANK2[32]), 

    memset@p	PTR unsigned char  size(1) Largest target is 32
		 -> write_test@pad(BANK2[32]), 

    pf_lseek@fs	PTR struct . size(1) Largest target is 42
		 -> fs(BANK3[42]), NULL(NULL[0]), 

    pf_mount@fs	PTR struct . size(1) Largest target is 42
		 -> fs(BANK3[42]), 

    pf_open@fs	PTR struct . size(1) Largest target is 42
		 -> fs(BANK3[42]), NULL(NULL[0]), 

    pf_open@path	PTR const unsigned char  size(2) Largest target is 8
		 -> STR_2(CODE[8]), 

    pf_write@buff	PTR const void  size(2) Largest target is 32
		 -> write_test@msg(CODE[25]), write_test@pad(BANK2[32]), NULL(NULL[0]), 

    pf_write@bw	PTR unsigned int  size(1) Largest target is 2
		 -> write_test@bw(BANK2[2]), 

    pf_write@fs	PTR struct . size(1) Largest target is 42
		 -> fs(BANK3[42]), NULL(NULL[0]), 

    pf_write@p	PTR const unsigned char  size(2) Largest target is 32
		 -> write_test@msg(CODE[25]), write_test@pad(BANK2[32]), NULL(NULL[0]), 

    S236$fn	PTR unsigned char  size(1) Largest target is 12
		 -> pf_open@sp(BANK1[12]), 

    sp__memset	PTR void  size(1) Largest target is 32
		 -> write_test@pad(BANK2[32]), 

    strlen@a	PTR const unsigned char  size(2) Largest target is 25
		 -> write_test@msg(CODE[25]), 

    strlen@s	PTR const unsigned char  size(2) Largest target is 25
		 -> write_test@msg(CODE[25]), 


Critical Paths under _main in COMMON

    _get_clust->_ld_word
    _dir_rewind->_clust2sect
    _create_name->_mem_set
    _clust2sect->___lmul
    _EUSART_Write_Text->_EUSART_Write
    _send_cmd->_send_cmd_raw
    _send_cmd_raw->_xmit_spi
    _xmit_spi->_xfer_spi
    _rcv_spi->_xfer_spi
    _xfer_spi->_SPI_Exchange8bit
    ___lldiv->_ld_word
    _initMain->_EUSART_Initialize
    _EUSART_Initialize->___aldiv

Critical Paths under _main in BANK0

    _write_test->_pf_write
    _pf_write->_get_fat
    _disk_writep->_send_cmd
    _pf_open->_follow_path
    _follow_path->_dir_find
    _dir_find->_dir_next
    _dir_rewind->_clust2sect
    _dir_next->_get_fat
    _pf_lseek->_get_fat
    _get_fat->_disk_readp
    _pf_mount->_check_fs
    _disk_initialize->_send_cmd
    _check_fs->_disk_readp
    _disk_readp->_send_cmd
    _initMain->_EUSART_Initialize
    _EUSART_Initialize->___aldiv

Critical Paths under _main in BANK1

    _main->_write_test
    _write_test->_pf_open

Critical Paths under _main in BANK2

    _main->_write_test

Critical Paths under _main in BANK3

    None.

Critical Paths under _main in BANK4

    None.

Critical Paths under _main in BANK5

    None.

Critical Paths under _main in BANK6

    None.

Critical Paths under _main in BANK7

    None.

Critical Paths under _main in BANK8

    None.

Critical Paths under _main in BANK9

    None.

Critical Paths under _main in BANK10

    None.

Critical Paths under _main in BANK11

    None.

Critical Paths under _main in BANK12

    None.

Critical Paths under _main in BANK13

    None.

Critical Paths under _main in BANK14

    None.

Critical Paths under _main in BANK15

    None.

Critical Paths under _main in BANK16

    None.

Critical Paths under _main in BANK17

    None.

Critical Paths under _main in BANK18

    None.

Critical Paths under _main in BANK19

    None.

Critical Paths under _main in BANK20

    None.

Critical Paths under _main in BANK21

    None.

Critical Paths under _main in BANK22

    None.

Critical Paths under _main in BANK23

    None.

Critical Paths under _main in BANK24

    None.

Critical Paths under _main in BANK25

    None.

Call Graph Tables:

 ---------------------------------------------------------------------------------
 (Depth) Function   	        Calls       Base Space   Used Autos Params    Refs
 ---------------------------------------------------------------------------------
 (0) _main                                                 2     2      0   51957
                                             77 BANK0      2     2      0
                  _EUSART_Write_Text
                    _disk_initialize
                           _initMain
                           _pf_mount
                         _write_test
 ---------------------------------------------------------------------------------
 (1) _write_test                                          47    47      0   35324
                                             61 BANK1      8     8      0
                                              0 BANK2     39    39      0
                  _EUSART_Write_Text
                             _memset
                           _pf_lseek
                            _pf_open
                           _pf_write
                             _strlen
 ---------------------------------------------------------------------------------
 (2) _strlen                                               5     3      2     166
                                              0 COMMON     5     3      2
 ---------------------------------------------------------------------------------
 (2) _pf_write                                            31    26      5    9505
                                             46 BANK0     31    26      5
                         _clust2sect
                        _disk_writep
                            _get_fat
                             _strlen (ARG)
 ---------------------------------------------------------------------------------
 (3) _disk_writep                                         12     6      6    2182
                                              7 BANK0     11     5      6
                            _rcv_spi
                           _send_cmd
                           _xmit_spi
 ---------------------------------------------------------------------------------
 (2) _pf_open                                             63    61      2   16726
                                             74 BANK0      2     0      2
                                              0 BANK1     61    61      0
                        _follow_path
                          _get_clust
                           _ld_dword
 ---------------------------------------------------------------------------------
 (3) _follow_path                                          6     3      3   15260
                                             68 BANK0      6     3      3
                        _create_name
                           _dir_find
                         _dir_rewind
                          _get_clust
 ---------------------------------------------------------------------------------
 (3) _get_clust                                           14    10      4     579
                                              9 COMMON     4     0      4
                                              0 BANK0      9     9      0
                            _ld_word
 ---------------------------------------------------------------------------------
 (4) _dir_find                                             8     7      1   11721
                                             60 BANK0      8     7      1
                           _dir_next
                         _dir_rewind
                         _disk_readp
                            _mem_cmp
 ---------------------------------------------------------------------------------
 (5) _mem_cmp                                              8     5      3     321
                                              0 COMMON     8     5      3
 ---------------------------------------------------------------------------------
 (4) _dir_rewind                                          14    14      0    1289
                                             12 BANK0     14    14      0
                         _clust2sect
 ---------------------------------------------------------------------------------
 (5) _dir_next                                            14    14      0    5959
                                             46 BANK0     14    14      0
                         _clust2sect
                            _get_fat
 ---------------------------------------------------------------------------------
 (4) _create_name                                         14    13      1    1103
                                              7 COMMON     5     4      1
                                              0 BANK0      8     8      0
                            _mem_set
 ---------------------------------------------------------------------------------
 (5) _mem_set                                              7     3      4     275
                                              0 COMMON     7     3      4
 ---------------------------------------------------------------------------------
 (2) _pf_lseek                                            35    31      4    7133
                                             46 BANK0     18    14      4
                                              0 BANK1     17    17      0
                            ___lldiv
                         _clust2sect
                            _get_fat
 ---------------------------------------------------------------------------------
 (3) _get_fat                                             19    15      4    4595
                                             27 BANK0     19    15      4
                         _disk_readp
                           _ld_dword
 ---------------------------------------------------------------------------------
 (3) _clust2sect                                          13     9      4     888
                                             12 COMMON     1     1      0
                                              0 BANK0     12     8      4
                             ___lmul
 ---------------------------------------------------------------------------------
 (2) _memset                                               7     3      4     281
                                              0 COMMON     7     3      4
 ---------------------------------------------------------------------------------
 (2) _EUSART_Write_Text                                    5     3      2    1100
                                              1 COMMON     5     3      2
                       _EUSART_Write
 ---------------------------------------------------------------------------------
 (3) _EUSART_Write                                         1     1      0      22
                                              0 COMMON     1     1      0
 ---------------------------------------------------------------------------------
 (1) _pf_mount                                            72    72      0   13124
                                             32 BANK0     18    18      0
                                              0 BANK1     54    54      0
                            ___lldiv
                             ___lmul
                           _check_fs
                    _disk_initialize
                         _disk_readp
                           _ld_dword
                            _ld_word
 ---------------------------------------------------------------------------------
 (4) _ld_dword                                            17    13      4     378
                                              0 COMMON    12     8      4
                                              0 BANK0      5     5      0
 ---------------------------------------------------------------------------------
 (2) _disk_initialize                                     12    12      0    1814
                                              7 BANK0     12    12      0
                          _dly_100us
                            _rcv_spi
                           _send_cmd
 ---------------------------------------------------------------------------------
 (3) _dly_100us                                            0     0      0       0
 ---------------------------------------------------------------------------------
 (2) _check_fs                                             5     1      4    4544
                                             27 BANK0      5     1      4
                         _disk_readp
                            _ld_word
 ---------------------------------------------------------------------------------
 (4) _ld_word                                              9     7      2     420
                                              0 COMMON     9     7      2
 ---------------------------------------------------------------------------------
 (4) _disk_readp                                          20    12      8    3708
                                              7 BANK0     20    12      8
                            _rcv_spi
                           _send_cmd
 ---------------------------------------------------------------------------------
 (5) _send_cmd                                             7     3      4    1305
                                              0 BANK0      7     3      4
                       _send_cmd_raw
 ---------------------------------------------------------------------------------
 (6) _send_cmd_raw                                        11     7      4     509
                                              3 COMMON    11     7      4
                            _rcv_spi
                           _xmit_spi
 ---------------------------------------------------------------------------------
 (7) _xmit_spi                                             1     1      0      66
                                              2 COMMON     1     1      0
                           _xfer_spi
 ---------------------------------------------------------------------------------
 (7) _rcv_spi                                              0     0      0      44
                           _xfer_spi
 ---------------------------------------------------------------------------------
 (8) _xfer_spi                                             1     1      0      44
                                              1 COMMON     1     1      0
                   _SPI_Exchange8bit
 ---------------------------------------------------------------------------------
 (9) _SPI_Exchange8bit                                     1     1      0      22
                                              0 COMMON     1     1      0
 ---------------------------------------------------------------------------------
 (4) ___lmul                                              12     4      8     396
                                              0 COMMON    12     4      8
 ---------------------------------------------------------------------------------
 (3) ___lldiv                                             14     6      8     618
                                              9 COMMON     1     1      0
                                              0 BANK0     13     5      8
                            _ld_word (ARG)
 ---------------------------------------------------------------------------------
 (1) _initMain                                             2     2      0     595
                                             11 COMMON     2     2      0
                  _EUSART_Initialize
                     _SPI_Initialize
                        _internal_32
 ---------------------------------------------------------------------------------
 (2) _internal_32                                          0     0      0       0
 ---------------------------------------------------------------------------------
 (2) _SPI_Initialize                                       0     0      0       0
 ---------------------------------------------------------------------------------
 (2) _EUSART_Initialize                                   18    14      4     595
                                              9 COMMON     2     2      0
                                              6 BANK0     16    12      4
                            ___aldiv
 ---------------------------------------------------------------------------------
 (3) ___aldiv                                             15     7      8     452
                                              0 COMMON     9     1      8
                                              0 BANK0      6     6      0
 ---------------------------------------------------------------------------------
 Estimated maximum stack depth 9
 ---------------------------------------------------------------------------------

 Call Graph Graphs:

 _main (ROOT)
   _EUSART_Write_Text
     _EUSART_Write
   _disk_initialize
     _dly_100us
     _rcv_spi
       _xfer_spi
         _SPI_Exchange8bit
     _send_cmd
       _send_cmd_raw
         _rcv_spi
         _xmit_spi
           _xfer_spi
   _initMain
     _EUSART_Initialize
       ___aldiv
     _SPI_Initialize
     _internal_32
   _pf_mount
     ___lldiv
       _ld_word (ARG)
     ___lmul
     _check_fs
       _disk_readp
         _rcv_spi
         _send_cmd
       _ld_word
     _disk_initialize
     _disk_readp
     _ld_dword
     _ld_word
   _write_test
     _EUSART_Write_Text
     _memset
     _pf_lseek
       ___lldiv
       _clust2sect
         ___lmul
       _get_fat
         _disk_readp
         _ld_dword
     _pf_open
       _follow_path
         _create_name
           _mem_set
         _dir_find
           _dir_next
             _clust2sect
             _get_fat
           _dir_rewind
             _clust2sect
           _disk_readp
           _mem_cmp
         _dir_rewind
         _get_clust
           _ld_word
       _get_clust
       _ld_dword
     _pf_write
       _clust2sect
       _disk_writep
         _rcv_spi
         _send_cmd
         _xmit_spi
       _get_fat
       _strlen (ARG)
     _strlen

 Address spaces:
Name               Size   Autos  Total    Cost      Usage
BIGRAM             7F0      0       0       0        0.0%
NULL                 0      0       0       0        0.0%
CODE                 0      0       0       0        0.0%
BITCOMMON            E      0       0       1        0.0%
BITSFR0              0      0       0       1        0.0%
SFR0                 0      0       0       1        0.0%
COMMON               E      E       E       2      100.0%
BITSFR1              0      0       0       2        0.0%
SFR1                 0      0       0       2        0.0%
BITSFR2              0      0       0       3        0.0%
SFR2                 0      0       0       3        0.0%
STACK                0      0       0       3        0.0%
BITBANK0            50      0       0       4        0.0%
BITSFR3              0      0       0       4        0.0%
SFR3                 0      0       0       4        0.0%
BANK0               50     4F      50       5      100.0%
BITSFR4              0      0       0       5        0.0%
SFR4                 0      0       0       5        0.0%
BITBANK1            50      0       0       6        0.0%
BITSFR5              0      0       0       6        0.0%
SFR5                 0      0       0       6        0.0%
BANK1               50     45      48       7       90.0%
BITSFR6              0      0       0       7        0.0%
SFR6                 0      0       0       7        0.0%
BITBANK2            50      0       0       8        0.0%
BITSFR7              0      0       0       8        0.0%
SFR7                 0      0       0       8        0.0%
BANK2               50     27      27       9       48.8%
BITSFR8              0      0       0       9        0.0%
SFR8                 0      0       0       9        0.0%
BITBANK3            50      0       0      10        0.0%
BITSFR9              0      0       0      10        0.0%
SFR9                 0      0       0      10        0.0%
BANK3               50      0      2A      11       52.5%
BITSFR10             0      0       0      11        0.0%
SFR10                0      0       0      11        0.0%
BITBANK4            50      0       0      12        0.0%
BITSFR11             0      0       0      12        0.0%
SFR11                0      0       0      12        0.0%
BANK4               50      0       0      13        0.0%
BITSFR12             0      0       0      13        0.0%
SFR12                0      0       0      13        0.0%
BITSFR13             0      0       0      14        0.0%
SFR13                0      0       0      14        0.0%
ABS                  0      0      F7      14        0.0%
BITBANK5            50      0       0      15        0.0%
BITSFR14             0      0       0      15        0.0%
SFR14                0      0       0      15        0.0%
BANK5               50      0       0      16        0.0%
BITSFR15             0      0       0      16        0.0%
SFR15                0      0       0      16        0.0%
BITBANK6            50      0       0      17        0.0%
BITSFR16             0      0       0      17        0.0%
SFR16                0      0       0      17        0.0%
BANK6               50      0       0      18        0.0%
BITSFR17             0      0       0      18        0.0%
SFR17                0      0       0      18        0.0%
BITBANK7            50      0       0      19        0.0%
BITSFR18             0      0       0      19        0.0%
SFR18                0      0       0      19        0.0%
BANK7               50      0       0      20        0.0%
BITSFR19             0      0       0      20        0.0%
SFR19                0      0       0      20        0.0%
BITBANK8            50      0       0      21        0.0%
BITSFR20             0      0       0      21        0.0%
SFR20                0      0       0      21        0.0%
BANK8               50      0       0      22        0.0%
BITSFR21             0      0       0      22        0.0%
SFR21                0      0       0      22        0.0%
BITBANK9            50      0       0      23        0.0%
BITSFR22             0      0       0      23        0.0%
SFR22                0      0       0      23        0.0%
BANK9               50      0       0      24        0.0%
BITSFR23             0      0       0      24        0.0%
SFR23                0      0       0      24        0.0%
BITBANK10           50      0       0      25        0.0%
BITSFR24             0      0       0      25        0.0%
SFR24                0      0       0      25        0.0%
BANK10              50      0       0      26        0.0%
BITSFR25             0      0       0      26        0.0%
SFR25                0      0       0      26        0.0%
BITBANK11           50      0       0      27        0.0%
BITSFR26             0      0       0      27        0.0%
SFR26                0      0       0      27        0.0%
BITSFR27             0      0       0      28        0.0%
SFR27                0      0       0      28        0.0%
DATA                 0      0      F7      28        0.0%
BANK11              50      0       0      29        0.0%
BITSFR28             0      0       0      29        0.0%
SFR28                0      0       0      29        0.0%
BITBANK12           50      0       0      30        0.0%
BITSFR29             0      0       0      30        0.0%
SFR29                0      0       0      30        0.0%
BANK12              50      0       0      31        0.0%
BITSFR30             0      0       0      31        0.0%
SFR30                0      0       0      31        0.0%
BITBANK13           50      0       0      32        0.0%
BITSFR31             0      0       0      32        0.0%
SFR31                0      0       0      32        0.0%
BANK13              50      0       0      33        0.0%
BITBANK14           50      0       0      34        0.0%
BANK14              50      0       0      35        0.0%
BITBANK15           50      0       0      36        0.0%
BANK15              50      0       0      37        0.0%
BITBANK16           50      0       0      38        0.0%
BANK16              50      0       0      39        0.0%
BITBANK17           50      0       0      40        0.0%
BANK17              50      0       0      41        0.0%
BITBANK18           50      0       0      42        0.0%
BANK18              50      0       0      43        0.0%
BITBANK19           50      0       0      44        0.0%
BANK19              50      0       0      45        0.0%
BITBANK20           50      0       0      46        0.0%
BANK20              50      0       0      47        0.0%
BITBANK21           50      0       0      48        0.0%
BANK21              50      0       0      49        0.0%
BITBANK22           50      0       0      50        0.0%
BANK22              50      0       0      51        0.0%
BITBANK23           50      0       0      52        0.0%
BANK23              50      0       0      53        0.0%
BITBANK24           50      0       0      54        0.0%
BANK24              50      0       0      55        0.0%
BITBANK25           20      0       0      56        0.0%
BANK25              20      0       0      57        0.0%


Microchip Technology PIC Macro Assembler V2.46 build 20240104201356 
Symbol Table                                                                                   Fri Dec 26 17:37:08 2025

           _SPI_Initialize 134C                get_fat@clst 003B               create_name@c 0027  
             create_name@i 0026               create_name@p 0021                         l25 0055  
                       l41 135D                         l50 13DB                         l44 1365  
                       l83 135B                         _fs 01A0              pf_mount@bsect 00CC  
            pf_mount@mclst 00C8              pf_mount@fsize 00D0                disk_readp@i 0037  
            create_name@dj 0020              pf_mount@tsect 00C4              create_name@ni 0023  
            create_name@si 0024                        l200 17FF                        l201 17D2  
                      l122 1370                        l116 1352                        l213 0DAB  
                      l119 136B                        l160 0AAB                        l224 177C  
                      l320 02B5                        l410 0E54                        l180 0B4B  
                      l324 00C1                        l157 13FA                        l414 0E61  
                      l166 13A3                        l174 1426                        l262 0989  
                      l431 0BF7                        l415 0EC1                        l247 0900  
                      l520 1560                        l416 0E7E                        l344 07EE  
                      l417 0E82                        l273 052A                        l370 1345  
                      l266 15BA                        l426 0ED2                        l290 04CD  
                      l282 0401                        l346 056F                        l194 14C0  
                      l530 0F0E                        l531 0F0E                        l188 16FC  
                      l373 1339                        l702 099D                        l294 167D  
                      l462 0C69                        l454 0CA3                        l550 0FF7  
                      l534 0F3A                        l526 0EF3                        l367 133F  
                      l551 0FF7                        l535 0F3A                        l527 0EF3  
                      l712 0A19                        l392 1453                        l376 0804  
                      l544 0FAE                        l560 14E7                        l553 0FFF  
                      l545 0FAE                        l651 1486                        l387 0878  
                      l563 14FF                        l564 14FF                        l566 150A  
                      l567 150A                        l559 14E7                        l673 1615  
        disk_readp@offset0 0033                        wreg 0009          disk_initialize@ty 002F  
           create_name@sfn 0025                       l1105 1389                       l3011 15CF  
                     l3101 1351                       l3021 15FF                       l3013 15DA  
                     l3005 0800                       l3031 098A                       l3023 1600  
                     l3015 15DE                       l3007 15BB                       l3111 158C  
                     l3103 1563                       l3041 09B0                       l3033 098C  
                     l3025 1607                       l3017 15E5                       l3009 15CC  
                     l3105 157C                       l3201 0E80                       l3051 09D2  
                     l3043 09B8                       l3035 0990                       l3019 15F7  
                     l3027 160D                       l3131 15B9                       l3123 1590  
                     l3211 0EA6                       l3203 0E87                       l1099 13BE  
                     l3061 09FB                       l3053 09D9                       l3045 09C0  
                     l3037 09A1                       l3125 15AA                       l3109 157E  
                     l3221 0EC7                       l3213 0EAD                       l3205 0E8A  
                     l3141 0DB7                       l3301 00A9                       l3055 09EB  
                     l3047 09C3                       l3063 0A01                       l3039 09AC  
                     l3071 0006                       l2503 1341                       l2511 0808  
                     l3119 158E                       l3223 0ECA                       l3215 0EBE  
                     l3207 0E8F                       l3151 0DE3                       l3143 0DBA  
                     l3135 0DAC                       l3231 161F                       l3311 011D  
                     l3303 00B1                       l3065 0A06                       l3057 09F3  
                     l3049 09CE                       l3081 0052                       l3073 004C  
                     l2505 1335                       l2521 085B                       l2513 080B  
                     l2601 0BB6                       l3209 0E95                       l3161 0DF2  
                     l3217 0EC1                       l3145 0DBF                       l3137 0DB0  
                     l3401 0536                       l3241 1635                       l3321 017B  
                     l3313 013A                       l3305 00EB                       l3067 0A11  
                     l3059 09F4                       l3083 0053                       l3075 004F  
                     l2531 086D                       l2523 0861                       l2515 0851  
                     l2611 0BEB                       l2603 0BBB                       l3219 0EC5  
                     l3171 0E0B                       l3163 0DF8                       l3147 0DC0  
                     l3139 0DB4                       l3091 13C2                       l3411 0588  
                     l3403 053E                       l3251 1645                       l3243 163A  
                     l3235 1621                       l3227 1616                       l3323 018A  
                     l3315 013F                       l3331 019F                       l3307 0103  
                     l3085 0054                       l3077 0050                       l2621 145C  
                     l2533 0871                       l2525 0863                       l2517 0853  
                     l2509 0806                       l2541 142D                       l2613 0BF1  
                     l2605 0BC7                       l3181 0E3F                       l3173 0E10  
                     l3165 0DFD                       l3157 0DE5                       l3149 0DD1  
                     l3501 032D                       l3093 13CC                       l3421 068D  
                     l3413 0591                       l2701 1787                       l3261 167C  
                     l3237 1626                       l3229 161A                       l3341 01C6  
                     l3333 01B8                       l3317 0154                       l3309 0108  
                     l3079 0051                       l2623 1460                       l2535 0877  
                     l2527 0867                       l2519 0859                       l2543 1431  
                     l2551 1447                       l2615 0BF6                       l2607 0BDB  
                     l3191 0E4E                       l3175 0E16                       l3167 0E03  
                     l3159 0DED                       l3511 0336                       l3095 13D0  
                     l3431 0708                       l3423 06A9                       l3415 05B3  
                     l3407 0540                       l2703 179B                       l3255 1647  
                     l3247 163C                       l3239 1628                       l3351 0207  
                     l3343 01E8                       l3335 01C0                       l3319 0162  
                     l3271 0069                       l3097 1353                       l3601 152A  
                     l2625 1468                       l2529 0869                       l2545 143F  
                     l2609 0BDE                       l2561 0B4E                       l3193 0E58  
                     l3177 0E27                       l3169 0E08                       l3521 036A  
                     l3505 032F                       l3089 13BF                       l2633 0AAC  
                     l3441 0750                       l3425 06CB                       l3417 05BB  
                     l3409 0560                       l2721 17DE                       l2705 17BB  
                     l2801 1740                       l3257 166B                       l3249 1641  
                     l3361 0246                       l3345 0200                       l3329 0191  
                     l3353 020D                       l3281 0075                       l3265 0056  
                     l3099 134C                       l3611 1533                       l3603 152B  
                     l2627 146F                       l2619 1454                       l2491 1367  
                     l2547 1445                       l2539 1429                       l2571 0B77  
                     l2563 0B56                       l3195 0E5D                       l3187 0E41  
                     l3179 0E2E                       l2555 0A1C                       l3531 03E1  
                     l3523 0377                       l3507 0334                       l2643 0AE8  
                     l2635 0AAF                       l3443 0761                       l3435 070A  
                     l3427 06DA                       l3419 061C                       l2731 0CA8  
                     l2723 17F2                       l2715 17C5                       l2811 1753  
                     l3259 1676                       l3371 0268                       l3355 0226  
                     l3283 007B                       l3275 006B                       l3267 005D  
                     l3621 1547                       l3613 1534                       l3605 152C  
                     l2629 147E                       l2493 1369                       l2581 0B86  
                     l2573 0B7A                       l2565 0B5B                       l3189 0E49  
                     l3197 0E64                       l2557 0AA3                       l3533 03EC  
                     l3525 039A                       l3517 0357                       l2661 1691  
                     l2653 0B42                       l2637 0ABE                       l3453 0792  
                     l3445 0784                       l3437 0727                       l3429 0702  
                     l2741 0CD1                       l2733 0CB5                       l2725 17FE  
                     l2709 17BD                       l2813 175B                       l2805 1746  
                     l2901 0936                       l3373 026C                       l3357 0230  
                     l3285 0083                       l3293 009E                       l3277 0073  
                     l3269 0064                       l3461 1376                       l3631 1554  
                     l3623 154B                       l3615 1539                       l3607 152E  
                     l2495 136F                       l2583 0B8B                       l2567 0B63  
                     l2671 13DD                       l3199 0E79                       l3551 049D  
                     l3535 03F4                       l3527 03CB                       l3519 0362  
                     l3471 13A8                       l2663 16B8                       l2647 0B30  
                     l2639 0ADE                       l3447 078C                       l3439 0736  
                     l3455 07ED                       l2831 088F                       l2751 0D14  
                     l2743 0CDD                       l2735 0CBB                       l2807 174B  
                     l2911 094F                       l2903 093C                       l3375 0276  
                     l3367 024D                       l3359 0234                       l3295 00A7  
                     l3287 0096                       l3463 137A                       l3625 154E  
                     l3617 153E                       l3609 1531                       l2585 0B95  
                     l2569 0B75                       l2577 0B7C                       l2673 13F6  
                     l3561 04B5                       l3553 04AB                       l3537 048F  
                     l3529 03D3                       l3481 02C2                       l3473 13AE  
                     l3393 052B                       l2681 1393                       l2841 08AF  
                     l2833 0891                       l2825 087B                       l2761 0D5E  
                     l2753 0D35                       l2745 0D00                       l2737 0CCF  
                     l2729 0CA6                       l2817 176F                       l2809 1750  
                     l2921 096B                       l2913 0957                       l2905 0941  
                     l3385 02A5                       l3377 028B                       l3369 0264  
                     l3289 009C                       l3465 1383                       l3641 0EEC  
                     l3633 0ED3                       l3801 14C4                       l3627 1550  
                     l3619 1542                       l2499 133B                       l2595 0B9E  
                     l2587 0B9B                       l2579 0B81                       l3571 0526  
                     l3555 04AE                       l3539 049C                       l3491 02E1  
                     l3475 13B2                       l2667 16C1                       l2659 167E  
                     l3395 052F                       l2683 1397                       l2851 08CF  
                     l2843 08B6                       l2835 0898                       l2827 0880  
                     l2755 0D4D                       l2771 0DA3                       l2691 140E  
                     l2819 1776                       l2923 0973                       l2907 0949  
                     l2931 0BF8                       l3379 029E                       l3387 02AE  
                     l3459 1371                       l3651 0F16                       l3643 0EF4  
                     l3635 0ED6                       l3811 14EF                       l3803 14D1  
                     l3629 1551                       l3581 151C                       l2597 0BA1  
                     l3573 0529                       l3565 04BB                       l3493 02FB  
                     l3485 02C4                       l3477 02B8                       l3469 13A5  
                     l3397 0534                       l2677 138B                       l2845 08BC  
                     l2837 08A5                       l2829 088C                       l2773 0DAA  
                     l2757 0D5C                       l2693 1422                       l2685 13FC  
                     l2781 1491                       l2925 0976                       l2917 095D  
                     l2941 0C26                       l2933 0BFF                       l3661 0F71  
                     l3653 0F2E                       l3645 0F02                       l3637 0EDD  
                     l3813 14F8                       l3805 14D8                       l3591 1524  
                     l3583 151E                       l2599 0BAF                       l3495 02FF  
                     l3487 02CD                       l3479 02BA                       l2679 138E  
                     l2847 08C2                       l2839 08A9                       l2767 0D7F  
                     l2687 1400                       l2791 16FF                       l2783 149D  
                     l2927 0988                       l2951 0C2D                       l2943 0C28  
                     l2935 0C07                       l3671 0FA7                       l3663 0F7D  
                     l3655 0F33                       l3647 0F07                       l3639 0EE7  
                     l3815 1500                       l3807 14E0                       l3593 1525  
                     l3585 151F                       l3577 150D                       l3569 0520  
                     l3497 0305                       l3489 02DC                       l2865 08D4  
                     l2849 08C8                       l2873 08D9                       l2769 0D8B  
                     l2697 177F                       l2689 1402                       l2793 1705  
                     l2785 14A4                       l2777 1489                       l2961 0C38  
                     l2953 0C31                       l2945 0C2B                       l2937 0C0C  
                     l3681 0FDD                       l3673 0FAF                       l3665 0F82  
                     l3657 0F3B                       l3649 0F0F                       l3817 1507  
                     l3809 14E8                       l3595 1526                       l3587 1521  
                     l3579 1510                       l3499 0327                       l2883 135D  
                     l2699 1781                       l2795 170A                       l2787 14B8  
                     l2891 0908                       l2971 0C55                       l2963 0C3C  
                     l2955 0C36                       l2939 0C14                       l3683 0FEB  
                     l3675 0FB3                       l3667 0F8E                       l3659 0F40  
                     l3597 1527                       l3589 1522                       l2885 1362  
                     l2877 08E2                       l2893 0912                       l2973 0C5E  
                     l2981 0C61                       l2949 0C2D                       l2965 0C41  
                     l3685 0FF0                       l3669 0FA2                       l3599 1529  
                     l2879 08FF                       l2799 170D                       l2895 091C  
                     l2887 0903                       l2991 0C78                       l2983 0C6B  
                     l2967 0C48                       l3687 0FF8                       l3679 0FBA  
                     l2897 0920                       l2889 0904                       l2993 0C7D  
                     l2969 0C50                       l2899 092A                       l2995 0C82  
                     l2989 0C6F                       l2997 0C93                       l2999 0C9B  
                     l3799 14C1                       STR_1 1819                       STR_2 18D9  
                     STR_3 1890                       STR_4 18B7                       STR_5 1841  
                     STR_6 1872                       STR_7 1852                       STR_8 1881  
                     STR_9 18CF                       _BRGH 0CF2                       _CREN 0CEC  
                     u3000 160D                       u2120 136F                       u2200 142D  
                     u3001 160C                       u2121 136E                       u2201 142C  
                     u3010 0990                       u2130 0821                       u2210 1445  
                     u3011 098F                       u2211 1444                       u3100 0A06  
                     u3020 09A1                       u2140 0834                       u2300 0B9B  
                     u2220 0A43                       u3101 0A05                       u3021 09A0  
                     u2301 0B9A                       u3030 09C0                       u3110 0014  
                     u2150 0847                       u2310 0BAE                       u2230 0A6A  
                     u3031 09BF                       u2135 081D                       u2311 0BAD  
                     u3120 002B                       u2160 0859                       u2320 0BC7  
                     u3200 0DE3                       u2240 0A91                       u2400 0B02  
                     u2161 0858                       u2145 0830                       u2321 0BC6  
                     u3201 0DE2                       u2225 0A3F                       u3050 09D2  
                     u2170 0861                       u2330 0BEB                       u2250 0B5B  
                     u3210 0DF8                       u3130 13DB                       u2410 0B2F  
                     u3051 09D1                       u3115 0010                       u2171 0860  
                     u2155 0843                       u2331 0BEA                       u2251 0B5A  
                     u3211 0DF7                       u2235 0A66                       u3131 13DA  
                     u2411 0B2E                       u2340 1460                       u2180 0871  
                     u3140 157C                       u3300 0E79                       u3220 0DFD  
                     u2420 16B8                       u2500 0CCF                       u3045 09C4  
                     u3125 0027                       u2341 145F                       u2181 0870  
                     u3141 157B                       u3301 0E78                       u3221 0DFC  
                     u2245 0A8D                       u2421 16B7                       u2405 0AFE  
                     u2501 0CCE                       u3070 09EB                       u2190 0877  
                     u2270 0B75                       u3150 158C                       u3310 0E95  
                     u3230 0E03                       u2430 13A3                       u2510 0CDD  
                     u3071 09EA                       u2191 0876                       u2271 0B74  
                     u3151 158B                       u3311 0E94                       u3231 0E02  
                     u2431 13A2                       u2511 0CDC                       u2280 0B8B  
                     u3160 15AA                       u3320 0EA6                       u3240 0E16  
                     u2520 0D00                       u2440 140E                       u3400 1645  
                     u3065 09D3                       u2281 0B8A                       u2265 0B5C  
                     u3161 15A9                       u3321 0EA5                       u3241 0E15  
                     u2425 16B4                       u2521 0CFF                       u2441 140D  
                     u3401 1644                       u3090 0A01                       u2370 147E  
                     u2290 0B95                       u3170 15B8                       u3330 0EAD  
                     u3250 0E27                       u2530 0D13                       u2450 1422  
                     u2610 173D                       u3410 0069                       u3091 0A00  
                     u3075 09E7                       u2371 147D                       u2355 1469  
                     u2291 0B94                       u3171 15B7                       u3331 0EAC  
                     u3251 0E26                       u2531 0D12                       u2451 1421  
                     u2611 173B                       u3411 0068                       u3340 0EBE  
                     u3260 0E2E                       u3180 0DBF                       u2380 0ABE  
                     u2700 08BC                       u2460 179B                       u2620 173E  
                     u3500 013F                       u3420 0073                       u3085 09F5  
                     u2365 1470                       u3341 0EBD                       u3261 0E2D  
                     u3181 0DBE                       u2381 0ABD                       u2701 08BB  
                     u2461 179A                       u2605 1727                       u3501 013E  
                     u3421 0072                       u3350 0ED1                       u3270 0E3F  
                     u3190 0DD1                       u2390 0ADE                       u2710 08C2  
                     u2550 0D35                       u2470 17BB                       u2630 1745  
                     u3510 0154                       u3430 007B                       u4150 14E0  
                     u3351 0ECF                       u3271 0E3E                       u3191 0DD0  
                     u2391 0ADD                       u2711 08C1                       u2551 0D34  
                     u2535 0D0F                       u2471 17BA                       u2631 1744  
                     u3511 0153                       u3431 007A                       u4151 14DF  
                     u3360 0ED2                       u3280 0E54                       u3600 0534  
                     u2720 08C8                       u2560 0D5C                       u2480 17C5  
                     u2640 1750                       u2800 094E                       u3520 018A  
                     u3440 0083                       u4160 14F8                       u3281 0E53  
                     u3601 0533                       u2721 08C7                       u2561 0D5B  
                     u2545 0D19                       u2481 17C4                       u2641 174F  
                     u2801 094D                       u3521 0189                       u3441 0082  
                     u4161 14F7                       u3290 0E58                       u3610 053E  
                     u2730 08CE                       u2570 0D7E                       u2490 0CBB  
                     u2650 175B                       u2810 095C                       u3370 161F  
                     u3530 01C0                       u3450 0096                       u3291 0E57  
                     u2395 0ADA                       u3611 053D                       u2731 08CD  
                     u2571 0D7D                       u2491 0CBA                       u2475 17B7  
                     u2651 175A                       u2811 095B                       u3371 161E  
                     u3531 01BF                       u3451 0095                       u3700 078C  
                     u3620 0560                       u2740 08FD                       u2660 176E  
                     u2820 096A                       u3380 163A                       u2900 0C5E  
                     u3540 0200                       u3460 00B1                       u3701 078B  
                     u3621 055F                       u2741 08FB                       u2661 176D  
                     u2821 0969                       u3381 1639                       u2901 0C5D  
                     u3541 01FF                       u3461 00B0                       u3710 07CC  
                     u3630 0591                       u2750 08FE                       u2670 177B  
                     u2590 170A                       u2830 0973                       u3390 1641  
                     u2910 0C69                       u3550 0230                       u3470 0103  
                     u3631 0590                       u2575 0D7A                       u2671 177A  
                     u2591 1709                       u2831 0972                       u3391 1640  
                     u2911 0C68                       u3551 022F                       u3471 0102  
                     u3800 0356                       u2760 1362                       u3640 05A2  
                     u2680 08AF                       u2920 0C9B                       u2840 0BFF  
                     u3560 0246                       u3480 011D                       u3720 1383  
                     u3801 0355                       u2761 1361                       u3625 055C  
                     u2681 08AE                       u2585 149E                       u2921 0C9A  
                     u2841 0BFE                       u3561 0245                       u3481 011C  
                     u3721 1382                       u4177 14CA                       u3810 036A  
                     u3730 13BE                       u3650 05BB                       u2690 08B5  
                     u2770 0912                       u2930 0CA2                       u2850 0C07  
                     u3570 028B                       u3490 012F                       u4187 0801  
                     u3811 0369                       u3731 13BD                       u3715 07C8  
                     u3651 05BA                       u2691 08B4                       u2771 0911  
                     u2931 0CA1                       u2851 0C06                       u3571 028A  
                     u3555 022C                       u3475 00FF                       u2940 15CC  
                     u3820 03F4                       u3740 02C2                       u3660 061C  
                     u2780 091C                       u2860 0C0C                       u3580 029E  
                     u3900 0F71                       u4197 1515                       u2941 15CB  
                     u3821 03F3                       u3741 02C1                       u3661 061B  
                     u3645 059E                       u2781 091B                       u2861 0C0B  
                     u3581 029D                       u3901 0F70                       u3750 02E1  
                     u3670 06DA                       u2790 0936                       u3590 02B4  
                     u3910 0FA7                       u3751 02E0                       u3671 06D9  
                     u2791 0935                       u3591 02B3                       u3495 012B  
                     u3911 0FA6                       u2960 15DE                       u3840 04AB  
                     u3760 02FB                       u3680 0702                       u2880 0C26  
                     u3920 0FB9                       u2961 15DD                       u3841 04AA  
                     u3761 02FA                       u3681 0701                       u3665 0618  
                     u2881 0C25                       u3921 0FB8                       u3850 04B4  
                     u3770 0305                       u3690 0750                       u2890 0C48  
                     u3930 0FDD                       u2955 15D0                       u3851 04B3  
                     u3835 0430                       u3771 0304                       u3691 074F  
                     u2891 0C47                       u2875 0C0D                       u3931 0FDC  
                     u2980 15F7                       u3780 032D                       u3940 0FF0  
                     u2981 15F6                       u3781 032C                       u3685 06FE  
                     u3941 0FEF                       u3790 0334                       u3870 0EEC  
                     u2975 15DF                       u3791 0333                       u3695 074C  
                     u3935 0FD9                       u3871 0EEB                       u3880 0F07  
                     u2985 15F3                       u3865 04F7                       u3881 0F06  
                     u3890 0F33                       _SCS0 04C8                       u2995 1601  
                     u3891 0F32                       _SCS1 04C9               get_clust@dir 0028  
                     _SPEN 0CEF                       _TXEN 0CF5                       _SYNC 0CF4  
                     _main 14C1                       fsr0h 0005                       fsr1h 0007  
                     indf0 0000                       fsr0l 0004                       indf1 0001  
                     fsr1l 0006                       btemp 007E                ld_dword@ptr 0024  
                     start 0002     __end_of_SPI_Initialize 1353         disk_initialize@cmd 002E  
             ?_follow_path 0064         disk_initialize@ocr 0028         disk_initialize@tmr 0030  
          create_name@path 0077              write_test@pad 0120              write_test@msg 1800  
            ?_EUSART_Write 0070            __end_of___aldiv 0A1A                      ?_main 0070  
                    STR_10 182D                      STR_11 1862                      STR_12 189E  
                    STR_13 18C3                      STR_14 18AB                      _BRG16 0CFB  
          __end_of___lldiv 1616                      _IRCF0 04CB                      _IRCF1 04CC  
                    _IRCF2 04CD                      _IRCF3 04CE              get_clust@clst 0024  
                    _FatFs 006F        ___lmul@multiplicand 0074            __end_of_get_fat 0B4C  
          __end_of_ld_word 13FB            __end_of_mem_cmp 1427            __end_of_mem_set 13A4  
          __end_of_pf_open 167E            __end_of_rcv_spi 133A                      status 0003  
                    wtemp0 007E               ?_internal_32 0070             disk_readp@buff 003A  
          ?_SPI_Initialize 0070              disk_writep@sc 0029              disk_writep@wc 00E5  
          __initialization 07EF               __end_of_main 150D               clust2sect@fs 007C  
           ??_EUSART_Write 0070                     ??_main 006D   __end_of_SPI_Exchange8bit 1371  
                   _RC1REG 0199                     _SPBRGL 019B                     _TX1REG 019A  
                   _SPLLEN 04CF                     _SSPBUF 0211           __end_of_check_fs 15BB  
         __end_of_dir_find 177D           __end_of_dir_next 0DAC           __end_of_ld_dword 0AAC  
                   ___lmul 1454                  ??___aldiv 0078                  ??___lldiv 0079  
         __end_of_initMain 1561                     _memset 13A4           __end_of_pf_lseek 07EF  
         __end_of_pf_mount 052B           __end_of_pf_write 02B6                  ??_get_fat 003F  
                   _strlen 1371           __end_of_send_cmd 1454                  ??_ld_word 0072  
                ??_mem_cmp 0073                  ??_mem_set 0074                  ??_pf_open 007E  
                ??_rcv_spi 0072                pf_lseek@bcs 00A8                pf_lseek@ofs 004E  
         __end_of_xfer_spi 1340                pf_open@path 006A           __end_of_xmit_spi 1346  
  __end_of__initialization 07FD                pf_mount@buf 00A0                pf_mount@fmt 00D4  
          disk_readp@count 002D            disk_readp@token 0039             __pcstackCOMMON 0070  
              pf_write@btw 0050            write_test@chunk 0140            write_test@total 0142  
               __pbssBANK0 006F                 __pbssBANK1 00E5                 __pbssBANK3 01A0  
           pf_write@remain 0061       __end_of_EUSART_Write 1366                 __pmaintext 14C1  
                  ?___lmul 0070              ?_send_cmd_raw 0073          ??_disk_initialize 0027  
                  ?_memset 0070             ___lmul@product 0078                    ?_strlen 0070  
               _dir_rewind 177D                  ?_check_fs 003B                 _disk_readp 0B4C  
           follow_path@dir 0064             follow_path@res 0068                send_cmd@cmd 0025  
              send_cmd@arg 0020                    _SSP1ADD 0212                send_cmd@res 0026  
                  _PPSLOCK 0E0F                  ?_dir_find 005C                  ?_dir_next 0070  
               _clust2sect 167E                  ?_ld_dword 0070           ??_SPI_Initialize 0070  
                ?_initMain 0070          __end_of_dly_100us 0805                  ?_pf_lseek 004E  
                ?_pf_mount 0070                  ?_pf_write 004E                  ?_send_cmd 0020  
           ??_send_cmd_raw 0077          __end_of_get_clust 14C1                    ___aldiv 098A  
                ?_xfer_spi 0070                    ___lldiv 15BB        _disk_initialize$663 002C  
                ?_xmit_spi 0070                    __ptext1 0ED3                    __ptext2 1371  
                  __ptext3 0056                    __ptext4 0BF8                    __ptext5 1616  
                  __ptext6 0901                    __ptext7 1487                    __ptext8 16FD  
                  __ptext9 13FB                    _get_fat 0AAC                    _ld_word 13DC  
                  _mem_cmp 13FB                    _mem_set 138A                    _pf_open 1616  
               ??_check_fs 007E           ___aldiv@dividend 0074                    _rcv_spi 1335  
               ??_dir_find 005D          ?_SPI_Exchange8bit 0070                 ??_dir_next 004E  
                  clrloop0 1347                 ??_ld_dword 0074       end_of_initialization 07FD  
       ??_SPI_Exchange8bit 0070       SPI_Exchange8bit@data 0070                 ??_initMain 007B  
                  memset@c 0070                    memset@n 0072                    memset@p 0076  
               ??_pf_lseek 0052                 ??_pf_mount 0040                 ??_pf_write 0053  
        _EUSART_Initialize 0006            ___lldiv@divisor 0020                 ??_send_cmd 0024  
          ___lldiv@counter 002C         ?_EUSART_Initialize 0026               pf_lseek@clst 00AC  
             pf_lseek@sect 00A0           ___aldiv@quotient 0022                 ??_xfer_spi 0071  
       EUSART_Initialize@x 0079                    strlen@a 0073                    strlen@s 0070  
               dir_find@dj 0062        ??_EUSART_Initialize 002A                 ??_xmit_spi 0072  
              ?_dir_rewind 0070                 dir_next@dj 005B                 dir_next@fs 0054  
            send_cmd_raw@n 007D                ?_disk_readp 0027                  _TRISBbits 008D  
                _TRISCbits 008E                 get_fat@buf 0049                ?_clust2sect 0020  
         disk_readp@count0 0035                  _RXPPSbits 0E24           disk_readp@offset 002B  
         disk_readp@sector 0027              ??_create_name 0078           disk_initialize@n 0032  
__end_of_EUSART_Initialize 0056            disk_writep@buff 0027            disk_writep@resp 0031  
               ld_dword@rv 0020              ??_disk_writep 002D               write_test@bw 0145  
             write_test@fr 0144             __end_of___lmul 1487               _EUSART_Write 135C  
               _write_test 0ED3             clust2sect@clst 0020             __end_of_memset 13BF  
               ld_word@ptr 0078             __end_of_strlen 138A        start_initialization 07EF  
     __end_of_send_cmd_raw 0879                 mem_cmp@cnt 0071                 mem_cmp@dst 0077  
             pf_write@buff 004E               pf_write@clst 0065                 mem_cmp@src 0070  
             pf_write@sect 005D               pf_write@wcnt 006A          _EUSART_Write_Text 13BF  
          _disk_initialize 0DAC                 mem_set@cnt 0072                 mem_set@dst 0075  
               mem_set@val 0070         ?_EUSART_Write_Text 0071              ??_follow_path 0067  
      __end_of_create_name 0901                   ??___lmul 0078      __end_ofwrite_test@msg 1819  
      ??_EUSART_Write_Text 0073                   ??_memset 0074        __end_of_disk_writep 0CA4  
               pf_lseek@fs 00B0                 memset@dest 0075                 pf_open@dir 00A0  
               pf_open@res 00CC                   ??_strlen 0072                 pf_mount@fs 00D5  
                ___latbits 0003              __pcstackBANK0 0020              __pcstackBANK1 00A0  
            __pcstackBANK2 0120               check_fs@sect 003B                 pf_write@cs 0069  
               pf_write@bw 0052                 pf_write@fs 006C  __end_of_EUSART_Write_Text 13DC  
            ??_internal_32 0070                  _dly_100us 0800                   ?___aldiv 0070  
                 ?___lldiv 0020  EUSART_Initialize@baudrate 0026                  _get_clust 1487  
            follow_path@dj 0069                ?_write_test 0070        __end_of_follow_path 098A  
                 ?_get_fat 003B                   ?_ld_word 0070                   ?_mem_cmp 0070  
                 ?_mem_set 0070                   ?_pf_open 006A                   ?_rcv_spi 0070  
           _dir_rewind$358 0030    __end_of_disk_initialize 0ED3            ___aldiv@divisor 0070  
          ___aldiv@counter 0020                _create_name 0879                   _LATCbits 010E  
                clear_ram0 1346                 ?_dly_100us 0070            follow_path@path 0065  
                 _PIR1bits 0011                _disk_writep 0BF8                   _SSP1CON1 0215  
                dir_find@c 0061        __end_of_internal_32 135C                   _SSP1STAT 0214  
                dir_next@i 0059                 ?_get_clust 0079                  get_fat@fs 004D  
             ??_dir_rewind 002C                   _CardType 00E7               ??_disk_readp 002F  
             ??_clust2sect 0024          ___lmul@multiplier 0070                  ld_word@rv 0076  
       __end_of_dir_rewind 1800                _follow_path 0901         __end_of_disk_readp 0BF8  
             _send_cmd_raw 0805                  pf_open@dj 00CE                  pf_open@fs 00CD  
                pf_open@sp 00C0         __end_of_clust2sect 16FD                check_fs@buf 003F  
               _ANSELBbits 018D                 _ANSELCbits 018E                  pf_write@p 005B  
                 _check_fs 1561                   __ptext10 177D                   __ptext11 0CA4  
                 __ptext20 02B6                   __ptext12 0879                   __ptext21 0A1A  
                 __ptext13 138A                   __ptext30 1335                   __ptext22 0DAC  
                 __ptext14 052B                   __ptext31 133A                   __ptext23 0800  
                 __ptext15 0AAC                   __ptext32 1366                   __ptext24 1561  
                 __ptext16 167E                   __ptext33 1454                   __ptext25 13DC  
                 __ptext17 13A4                   __ptext34 15BB                   __ptext26 0B4C  
                 __ptext18 13BF                   __ptext35 150D                   __ptext27 1427  
                 __ptext19 135C                   __ptext36 1353                   __ptext28 0805  
                 __ptext37 134C                   __ptext29 1340                   __ptext38 0006  
                 __ptext39 098A                   _dir_find 16FD               _SSP1CON1bits 0215  
                 _dir_next 0CA4           ?_disk_initialize 0070                   _ld_dword 0A1A  
                 _initMain 150D              _SSPDATPPSbits 0E21                   _pf_lseek 052B  
                 _pf_mount 02B6                   _pf_write 0056                _internal_32 1353  
                 _send_cmd 1427                ??_dly_100us 0070                 _RB2PPSbits 0E9A  
               _RC1STAbits 019D                 _RC3PPSbits 0EA3                 _RC5PPSbits 0EA5  
                 _xfer_spi 133A               _SSP1STATbits 0214                ??_get_clust 0020  
                 _xmit_spi 1340                  xfer_spi@d 0071                   mem_cmp@d 0075  
                 mem_cmp@r 0073                   mem_cmp@s 0076                   mem_set@d 0076  
           __pstringtext10 18AB             __pstringtext11 18B7             __pstringtext12 18C3  
           __pstringtext13 18CF             __pstringtext14 18D9             __pstringtext15 0000  
         ___lldiv@dividend 0024                _PPSLOCKbits 0E0F                  xmit_spi@d 0072  
         _SPI_Exchange8bit 1366              pf_lseek@ifptr 00A4               ??_write_test 00DD  
            __pstringtext1 1800              __pstringtext2 182D              __pstringtext3 1841  
            __pstringtext4 1852              __pstringtext5 1862              __pstringtext6 1872  
            __pstringtext7 1881              __pstringtext8 1890              __pstringtext9 189E  
         ___lldiv@quotient 0028             dir_rewind@clst 0036                dir_find@dir 005C  
              dir_find@res 0063      EUSART_Write_Text@text 0071               ___aldiv@sign 0021  
             dir_next@clst 0055         EUSART_Write@txData 0070            send_cmd_raw@cmd 007C  
          send_cmd_raw@arg 0073            send_cmd_raw@res 007B               ?_create_name 0077  
             dir_rewind@dj 0035               dir_rewind@fs 0034         __end_of_write_test 1000  
       EUSART_Write_Text@i 0074               ?_disk_writep 0027  
