Microchip MPLAB XC8 Compiler V2.46

Linker command line:

-W-3 \
  --edf=C:\Program Files\Microchip\xc8\v2.46\pic\dat\20240104201356_en.msgs \
  -cn -h+dist/default/production\63_Joystick.X.production.sym \
  --cmf=dist/default/production\63_Joystick.X.production.cmf -z -Q16F1718 \
  -oC:\Users\ARMSTR~1\AppData\Local\Temp\xcAsicc.\driver_tmp_3.o \
  --defsym=__MPLAB_BUILD=1 --fixupoverflow=error \
  -Mdist/default/production/63_Joystick.X.production.map \
  --md=C:\Users\ARMSTR~1\AppData\Local\Temp\xcAsicc.\driver_tmp_0.dat -E1 \
  -ver=XC8 Compiler --acfsm=1493 -ACODE=00h-07FFhx8 -ASTRCODE=00h-03FFFh \
  -ASTRING=00h-0FFhx64 -ACONST=00h-0FFhx64 -AENTRY=00h-0FFhx64 \
  -ACOMMON=070h-07Fh -ABANK0=020h-06Fh -ABANK1=0A0h-0EFh \
  -ABANK2=0120h-016Fh -ABANK3=01A0h-01EFh -ABANK4=0220h-026Fh \
  -ABANK5=02A0h-02EFh -ABANK6=0320h-036Fh -ABANK7=03A0h-03EFh \
  -ABANK8=0420h-046Fh -ABANK9=04A0h-04EFh -ABANK10=0520h-056Fh \
  -ABANK11=05A0h-05EFh -ABANK12=0620h-066Fh -ABANK13=06A0h-06EFh \
  -ABANK14=0720h-076Fh -ABANK15=07A0h-07EFh -ABANK16=0820h-086Fh \
  -ABANK17=08A0h-08EFh -ABANK18=0920h-096Fh -ABANK19=09A0h-09EFh \
  -ABANK20=0A20h-0A6Fh -ABANK21=0AA0h-0AEFh -ABANK22=0B20h-0B6Fh \
  -ABANK23=0BA0h-0BEFh -ABANK24=0C20h-0C6Fh -ABANK25=0CA0h-0CBFh \
  -ABIGRAM=02000h-027EFh \
  -ARAM=020h-06Fh,0A0h-0EFh,0120h-016Fh,01A0h-01EFh,0220h-026Fh,02A0h-02EFh,0320h-036Fh,03A0h-03EFh,0420h-046Fh,04A0h-04EFh,0520h-056Fh,05A0h-05EFh,0620h-066Fh,06A0h-06EFh,0720h-076Fh,07A0h-07EFh,0820h-086Fh,08A0h-08EFh,0920h-096Fh,09A0h-09EFh,0A20h-0A6Fh,0AA0h-0AEFh,0B20h-0B6Fh,0BA0h-0BEFh,0C20h-0C6Fh,0CA0h-0CBFh \
  -AABS1=020h-07Fh,0A0h-0EFh,0120h-016Fh,01A0h-01EFh,0220h-026Fh,02A0h-02EFh,0320h-036Fh,03A0h-03EFh,0420h-046Fh,04A0h-04EFh,0520h-056Fh,05A0h-05EFh,0620h-066Fh,06A0h-06EFh,0720h-076Fh,07A0h-07EFh,0820h-086Fh,08A0h-08EFh,0920h-096Fh,09A0h-09EFh,0A20h-0A6Fh,0AA0h-0AEFh,0B20h-0B6Fh,0BA0h-0BEFh,0C20h-0C6Fh,0CA0h-0CBFh \
  -ASFR0=00h-01Fh -ASFR1=080h-09Fh -ASFR2=0100h-011Fh -ASFR3=0180h-019Fh \
  -ASFR4=0200h-021Fh -ASFR5=0280h-029Fh -ASFR6=0300h-031Fh \
  -ASFR7=0380h-039Fh -ASFR8=0400h-041Fh -ASFR9=0480h-049Fh \
  -ASFR10=0500h-051Fh -ASFR11=0580h-059Fh -ASFR12=0600h-061Fh \
  -ASFR13=0680h-069Fh -ASFR14=0700h-071Fh -ASFR15=0780h-079Fh \
  -ASFR16=0800h-081Fh -ASFR17=0880h-089Fh -ASFR18=0900h-091Fh \
  -ASFR19=0980h-099Fh -ASFR20=0A00h-0A1Fh -ASFR21=0A80h-0A9Fh \
  -ASFR22=0B00h-0B1Fh -ASFR23=0B80h-0B9Fh -ASFR24=0C00h-0C1Fh \
  -ASFR25=0C80h-0C9Fh -ASFR26=0D00h-0D6Fh -ASFR27=0D80h-0DEFh \
  -ASFR28=0E00h-0E6Fh -ASFR29=0E80h-0EEFh -ASFR30=0F00h-0F6Fh \
  -ASFR31=0F80h-0FEFh -ACONFIG=08007h-08008h -DCONFIG=2 \
  -AIDLOC=08000h-08003h -DIDLOC=2 -DCODE=2 -DSTRCODE=2 -DSTRING=2 -DCONST=2 \
  -DENTRY=2 -preset_vec=00h,intentry,sivt,init,end_init -ppowerup=CODE \
  -pcinit=CODE -pfunctab=ENTRY -k \
  C:\Users\ARMSTR~1\AppData\Local\Temp\xcAsicc.\driver_tmp_12.o \
  dist/default/production\63_Joystick.X.production.o 

Object code version is 3.11

Machine type is 16F1718



                Name                               Link     Load   Length Selector   Space Scale
C:\Users\ARMSTR~1\AppData\Local\Temp\xcAsicc.\driver_tmp_12.o
                end_init                              2        2        2        0       0
                reset_vec                             0        0        2        0       0
                config                             8007     8007        2        0       4
dist/default/production\63_Joystick.X.production.o
                cinit                               7E1      7E1       1F      FC2       0
                config                             8007     8007        2        0       4
                text38                             179F     179F        A     2F3E       0
                text37                             1786     1786        7     2F0C       0
                text36                             17B5     17B5       14     2F6A       0
                text35                                4        4       5A        0       0
                text34                              12D      12D       6D      25A       0
                text33                              B2F      B2F       1F     165E       0
                text32                              D70      D70       4A     1AE0       0
                text31                             178D     178D        9     2F1A       0
                text30                              F43      F43       5E     1E86       0
                text29                               C3       C3       6A      186       0
                text28                              B11      B11       1E     1622       0
                text27                              B93      B93       24     1726       0
                text26                              BB7      BB7       25     176E       0
                text25                              B70      B70       23     16E0       0
                text24                              C8D      C8D       32     191A       0
                text23                             1780     1780        2     2F00       0
                text22                              EA0      EA0       50     1D40       0
                text21                              C5F      C5F       2E     18BE       0
                text20                              B4E      B4E       22     169C       0
                text19                             17E4     17E4       1C     2FC8       0
                text18                              E04      E04       4D     1C08       0
                text17                              19A      19A       74      334       0
                text16                              C06      C06       2C     180C       0
                text15                              289      289       90      512       0
                text14                              20E      20E       7B      41C       0
                text13                              FA1      FA1       5F     1F42       0
                text12                              EF0      EF0       53     1DE0       0
                text11                              DBA      DBA       4A     1B74       0
                text10                              CF3      CF3       3C     19E6       0
                text9                               CBF      CBF       34     197E       0
                text8                               BDC      BDC       2A     17B8       0
                text7                               C32      C32       2D     1864       0
                text6                              17C9     17C9       1B     2F92       0
                text5                               3CB      3CB      416      796       0
                text4                               D2F      D2F       41     1A5E       0
                text3                                5E       5E       65       BC       0
                text2                              1796     1796        9     2F2C       0
                text1                               E51      E51       4F     1CA2       0
                maintext                            319      319       B2      632       0
                cstackBANK0                          20       20       50       20       1
                cstackCOMMON                         70       70        E       70       1
                cstackBANK1                          A0       A0       3D       A0       1
                clrtext                            17A9     17A9        C     2F52       0
                dataBANK1                            DD       DD        4       A0       1
                stringtext18                       189D     189D        8     3000       0
                stringtext17                       1895     1895        8     3000       0
                stringtext16                       188D     188D        8     3000       0
                stringtext15                       1885     1885        8     3000       0
                stringtext14                       187C     187C        9     3000       0
                stringtext13                       1873     1873        9     3000       0
                stringtext12                       186A     186A        9     3000       0
                stringtext11                       1861     1861        9     3000       0
                stringtext10                       1858     1858        9     3000       0
                stringtext9                        184F     184F        9     3000       0
                stringtext8                        1846     1846        9     3000       0
                stringtext7                        183D     183D        9     3000       0
                stringtext6                        1834     1834        9     3000       0
                stringtext5                        181D     181D        D     3000       0
                stringtext4                        180F     180F        E     3000       0
                stringtext3                        1800     1800        F     3000       0
                stringtext2                         800      800      310     1000       0
                stringtext1                        182A     182A        A     3000       0
                idataBANK1                         1782     1782        4     2F04       0

TOTAL           Name                               Link     Load   Length     Space
        CLASS   CODE           
                end_init                              2        2        2         0
                cinit                               7E1      7E1       1F         0
                reset_vec                             0        0        2         0
                text38                             179F     179F        A         0
                text37                             1786     1786        7         0
                text36                             17B5     17B5       14         0
                text35                                4        4       5A         0
                text34                              12D      12D       6D         0
                text33                              B2F      B2F       1F         0
                text32                              D70      D70       4A         0
                text31                             178D     178D        9         0
                text30                              F43      F43       5E         0
                text29                               C3       C3       6A         0
                text28                              B11      B11       1E         0
                text27                              B93      B93       24         0
                text26                              BB7      BB7       25         0
                text25                              B70      B70       23         0
                text24                              C8D      C8D       32         0
                text23                             1780     1780        2         0
                text22                              EA0      EA0       50         0
                text21                              C5F      C5F       2E         0
                text20                              B4E      B4E       22         0
                text19                             17E4     17E4       1C         0
                text18                              E04      E04       4D         0
                text17                              19A      19A       74         0
                text16                              C06      C06       2C         0
                text15                              289      289       90         0
                text14                              20E      20E       7B         0
                text13                              FA1      FA1       5F         0
                text12                              EF0      EF0       53         0
                text11                              DBA      DBA       4A         0
                text10                              CF3      CF3       3C         0
                text9                               CBF      CBF       34         0
                text8                               BDC      BDC       2A         0
                text7                               C32      C32       2D         0
                text6                              17C9     17C9       1B         0
                text5                               3CB      3CB      416         0
                text4                               D2F      D2F       41         0
                text3                                5E       5E       65         0
                text2                              1796     1796        9         0
                text1                               E51      E51       4F         0
                maintext                            319      319       B2         0
                clrtext                            17A9     17A9        C         0
                idataBANK1                         1782     1782        4         0

        CLASS   STRCODE        
                stringtext18                       189D     189D        8         0
                stringtext17                       1895     1895        8         0
                stringtext16                       188D     188D        8         0
                stringtext15                       1885     1885        8         0
                stringtext14                       187C     187C        9         0
                stringtext13                       1873     1873        9         0
                stringtext12                       186A     186A        9         0
                stringtext11                       1861     1861        9         0
                stringtext10                       1858     1858        9         0
                stringtext9                        184F     184F        9         0
                stringtext8                        1846     1846        9         0
                stringtext7                        183D     183D        9         0
                stringtext6                        1834     1834        9         0
                stringtext5                        181D     181D        D         0
                stringtext4                        180F     180F        E         0
                stringtext3                        1800     1800        F         0
                stringtext2                         800      800      310         0
                stringtext1                        182A     182A        A         0

        CLASS   STRING         

        CLASS   CONST          

        CLASS   ENTRY          

        CLASS   COMMON         
                cstackCOMMON                         70       70        E         1

        CLASS   BANK0          
                cstackBANK0                          20       20       50         1

        CLASS   BANK1          
                cstackBANK1                          A0       A0       3D         1
                dataBANK1                            DD       DD        4         1

        CLASS   BANK2          

        CLASS   BANK3          

        CLASS   BANK4          

        CLASS   BANK5          

        CLASS   BANK6          

        CLASS   BANK7          

        CLASS   BANK8          

        CLASS   BANK9          

        CLASS   BANK10         

        CLASS   BANK11         

        CLASS   BANK12         

        CLASS   BANK13         

        CLASS   BANK14         

        CLASS   BANK15         

        CLASS   BANK16         

        CLASS   BANK17         

        CLASS   BANK18         

        CLASS   BANK19         

        CLASS   BANK20         

        CLASS   BANK21         

        CLASS   BANK22         

        CLASS   BANK23         

        CLASS   BANK24         

        CLASS   BANK25         

        CLASS   BIGRAM         

        CLASS   RAM            

        CLASS   ABS1           
                abs_s1                               7E       7E        2         1
                abs_s1                              7E0      7E0       10         1
                abs_s1                              820      820       50         1
                abs_s1                              8A0      8A0       50         1
                abs_s1                              920      920       50         1
                abs_s1                              9A0      9A0       50         1
                abs_s1                              A20      A20       50         1
                abs_s1                              AA0      AA0       50         1
                abs_s1                              B20      B20       50         1
                abs_s1                              BA0      BA0       50         1
                abs_s1                              C20      C20       50         1
                abs_s1                              CA0      CA0       20         1
                abs_s1                             24F0     24F0        0         1
                abs_s1                             26F0     26F0        0         1

        CLASS   SFR0           

        CLASS   SFR1           

        CLASS   SFR2           

        CLASS   SFR3           

        CLASS   SFR4           

        CLASS   SFR5           

        CLASS   SFR6           

        CLASS   SFR7           

        CLASS   SFR8           

        CLASS   SFR9           

        CLASS   SFR10          

        CLASS   SFR11          

        CLASS   SFR12          

        CLASS   SFR13          

        CLASS   SFR14          

        CLASS   SFR15          

        CLASS   SFR16          

        CLASS   SFR17          

        CLASS   SFR18          

        CLASS   SFR19          

        CLASS   SFR20          

        CLASS   SFR21          

        CLASS   SFR22          

        CLASS   SFR23          

        CLASS   SFR24          

        CLASS   SFR25          

        CLASS   SFR26          

        CLASS   SFR27          

        CLASS   SFR28          

        CLASS   SFR29          

        CLASS   SFR30          

        CLASS   SFR31          

        CLASS   CONFIG         
                config                             8007     8007        2         4

        CLASS   IDLOC          

        CLASS   BANK31         

        CLASS   BANK30         

        CLASS   BANK29         

        CLASS   BANK28         

        CLASS   BANK27         

        CLASS   BANK26         

        CLASS   HEAP           

        CLASS   STACK          

        CLASS   EEDATA         



SEGMENTS        Name                           Load    Length   Top    Selector   Space  Class     Delta

                reset_vec                      000000  00005E  00005E         0       0  CODE        2
                cstackBANK0                    000020  000050  000070        20       1  BANK0       1
                cstackCOMMON                   000070  00000E  00007E        70       1  COMMON      1
                cstackBANK1                    0000A0  000041  0000E1        A0       1  BANK1       1
                text3                          00005E  000065  0000C3        BC       0  CODE        2
                text29                         0000C3  00006A  00012D       186       0  CODE        2
                text34                         00012D  00006D  00019A       25A       0  CODE        2
                text17                         00019A  000074  00020E       334       0  CODE        2
                text14                         00020E  00007B  000289       41C       0  CODE        2
                text15                         000289  000090  000319       512       0  CODE        2
                maintext                       000319  0000B2  0003CB       632       0  CODE        2
                text5                          0003CB  000416  0007E1       796       0  CODE        2
                cinit                          0007E1  00001F  000800       FC2       0  CODE        2
                stringtext2                    000800  000310  000B10      1000       0  STRCODE     2
                text28                         000B11  00001E  000B2F      1622       0  CODE        2
                text33                         000B2F  00001F  000B4E      165E       0  CODE        2
                text20                         000B4E  000022  000B70      169C       0  CODE        2
                text25                         000B70  000023  000B93      16E0       0  CODE        2
                text27                         000B93  000024  000BB7      1726       0  CODE        2
                text26                         000BB7  000025  000BDC      176E       0  CODE        2
                text8                          000BDC  00002A  000C06      17B8       0  CODE        2
                text16                         000C06  00002C  000C32      180C       0  CODE        2
                text7                          000C32  00002D  000C5F      1864       0  CODE        2
                text21                         000C5F  00002E  000C8D      18BE       0  CODE        2
                text24                         000C8D  000032  000CBF      191A       0  CODE        2
                text9                          000CBF  000034  000CF3      197E       0  CODE        2
                text10                         000CF3  00003C  000D2F      19E6       0  CODE        2
                text4                          000D2F  000041  000D70      1A5E       0  CODE        2
                text32                         000D70  00004A  000DBA      1AE0       0  CODE        2
                text11                         000DBA  00004A  000E04      1B74       0  CODE        2
                text18                         000E04  00004D  000E51      1C08       0  CODE        2
                text1                          000E51  00004F  000EA0      1CA2       0  CODE        2
                text22                         000EA0  000050  000EF0      1D40       0  CODE        2
                text12                         000EF0  000053  000F43      1DE0       0  CODE        2
                text30                         000F43  00005E  000FA1      1E86       0  CODE        2
                text13                         000FA1  00005F  001000      1F42       0  CODE        2
                text23                         001780  000002  001782      2F00       0  CODE        2
                idataBANK1                     001782  000004  001786      2F04       0  CODE        2
                text37                         001786  000007  00178D      2F0C       0  CODE        2
                text31                         00178D  000009  001796      2F1A       0  CODE        2
                text2                          001796  000009  00179F      2F2C       0  CODE        2
                text38                         00179F  00000A  0017A9      2F3E       0  CODE        2
                clrtext                        0017A9  00000C  0017B5      2F52       0  CODE        2
                text36                         0017B5  000014  0017C9      2F6A       0  CODE        2
                text6                          0017C9  00001B  0017E4      2F92       0  CODE        2
                text19                         0017E4  00001C  001800      2FC8       0  CODE        2
                stringtext3                    001800  0000A5  0018A5      3000       0  STRCODE     2


UNUSED ADDRESS RANGES

        Name                Unused          Largest block    Delta
        BANK1            000E1-000EF               F           1
        BANK10           00520-0056F              50           1
        BANK11           005A0-005EF              50           1
        BANK12           00620-0066F              50           1
        BANK13           006A0-006EF              50           1
        BANK14           00720-0076F              50           1
        BANK15           007A0-007DF              40           1
        BANK2            00120-0016F              50           1
        BANK3            001A0-001EF              50           1
        BANK4            00220-0026F              50           1
        BANK5            002A0-002EF              50           1
        BANK6            00320-0036F              50           1
        BANK7            003A0-003EF              50           1
        BANK8            00420-0046F              50           1
        BANK9            004A0-004EF              50           1
        BIGRAM           02000-027EF             7F0           1
        CODE             00B10-00B10               1           2
                         01000-0177F             780
                         018A5-03FFF             800
        CONST            00B10-00B10               1           2
                         01000-0177F             100
                         018A5-03FFF             100
        ENTRY            00B10-00B10               1           2
                         01000-0177F             100
                         018A5-03FFF             100
        IDLOC            08000-08003               4           2
        RAM              000E1-000EF               F           1
                         00120-0016F              50
                         001A0-001EF              50
                         00220-0026F              50
                         002A0-002EF              50
                         00320-0036F              50
                         003A0-003EF              50
                         00420-0046F              50
                         004A0-004EF              50
                         00520-0056F              50
                         005A0-005EF              50
                         00620-0066F              50
                         006A0-006EF              50
                         00720-0076F              50
                         007A0-007DF              40
        SFR0             00000-0001F              20           1
        SFR1             00080-0009F              20           1
        SFR10            00500-0051F              20           1
        SFR11            00580-0059F              20           1
        SFR12            00600-0061F              20           1
        SFR13            00680-0069F              20           1
        SFR14            00700-0071F              20           1
        SFR15            00780-0079F              20           1
        SFR16            00800-0081F              20           1
        SFR17            00880-0089F              20           1
        SFR18            00900-0091F              20           1
        SFR19            00980-0099F              20           1
        SFR2             00100-0011F              20           1
        SFR20            00A00-00A1F              20           1
        SFR21            00A80-00A9F              20           1
        SFR22            00B00-00B1F              20           1
        SFR23            00B80-00B9F              20           1
        SFR24            00C00-00C1F              20           1
        SFR25            00C80-00C9F              20           1
        SFR26            00D00-00D6F              70           1
        SFR27            00D80-00DEF              70           1
        SFR28            00E00-00E6F              70           1
        SFR29            00E80-00EEF              70           1
        SFR3             00180-0019F              20           1
        SFR30            00F00-00F6F              70           1
        SFR31            00F80-00FEF              70           1
        SFR4             00200-0021F              20           1
        SFR5             00280-0029F              20           1
        SFR6             00300-0031F              20           1
        SFR7             00380-0039F              20           1
        SFR8             00400-0041F              20           1
        SFR9             00480-0049F              20           1
        STRCODE          00B10-00B10               1           2
                         01000-0177F             780
                         018A5-03FFF            275B
        STRING           00B10-00B10               1           2
                         01000-0177F             100
                         018A5-03FFF             100

                                  Symbol Table

?_ADC_Read_Averaged                cstackBANK0  00020
?_Joystick_DirectionString         cstackCOMMON 00070
?_OLED_Printf_Line                 cstackBANK0  00026
?___aldiv                          cstackCOMMON 00070
?___almod                          cstackCOMMON 00070
?___awdiv                          cstackCOMMON 00070
?___awmod                          cstackCOMMON 00070
?___lldiv                          cstackCOMMON 00070
?___llmod                          cstackCOMMON 00070
?___lwdiv                          cstackCOMMON 00070
?___lwmod                          cstackCOMMON 00070
?_strcmp                           cstackCOMMON 00070
ADC_ConfigurePin@channel           cstackCOMMON 00072
ADC_Read_Averaged@channel          cstackBANK0  00026
ADC_Read_Averaged@i                cstackBANK0  0002B
ADC_Read_Averaged@samples          cstackBANK0  00020
ADC_Read_Averaged@sum              cstackBANK0  00027
I2C_Start@st                       cstackCOMMON 00073
I2C_Stop@st                        cstackCOMMON 00073
I2C_WaitIF@timeout_ms              cstackCOMMON 00070
I2C_WaitIdle@timeout_ms            cstackCOMMON 00070
I2C_WriteByte@data                 cstackCOMMON 00073
I2C_WriteByte@st                   cstackCOMMON 00074
Joystick_DirectionString@direction cstackCOMMON 00072
Joystick_GetDirection@dir          cstackCOMMON 00073
Joystick_GetDirection@joy          cstackCOMMON 00074
Joystick_Read@joy                  cstackBANK0  00030
OLED_Clear@p                       cstackCOMMON 0007C
OLED_Command@cmd                   cstackCOMMON 00075
OLED_Command@st                    cstackCOMMON 00076
OLED_Printf_Line@ap                cstackBANK1  000CB
OLED_Printf_Line@buf               cstackBANK0  0004E
OLED_Printf_Line@ch                cstackBANK1  000BE
OLED_Printf_Line@col               cstackBANK1  000B5
OLED_Printf_Line@dst               cstackBANK1  000CE
OLED_Printf_Line@fmt               cstackBANK0  00026
OLED_Printf_Line@i                 cstackBANK1  000BF
OLED_Printf_Line@i_352             cstackBANK1  000C0
OLED_Printf_Line@i_355             cstackBANK1  000C1
OLED_Printf_Line@i_358             cstackBANK1  000C2
OLED_Printf_Line@i_361             cstackBANK1  000C3
OLED_Printf_Line@last_text         (abs)        026F0
OLED_Printf_Line@line              cstackBANK1  000CA
OLED_Printf_Line@nibble            cstackBANK1  000BD
OLED_Printf_Line@p                 cstackBANK1  000B6
OLED_Printf_Line@src               cstackBANK1  000CC
OLED_Printf_Line@str               cstackBANK1  000B3
OLED_Printf_Line@temp              cstackBANK1  000A0
OLED_Printf_Line@temp_351          cstackBANK0  00038
OLED_Printf_Line@temp_354          cstackBANK0  00043
OLED_Printf_Line@temp_357          cstackBANK1  000A6
OLED_Printf_Line@temp_360          cstackBANK1  000AC
OLED_Printf_Line@val               cstackBANK1  000C8
OLED_Printf_Line@val_350           cstackBANK1  000B7
OLED_Printf_Line@val_353           cstackBANK1  000C4
OLED_Printf_Line@val_356           cstackBANK1  000BB
OLED_Printf_Line@val_359           cstackBANK1  000B1
OLED_SetOrientation@o              cstackCOMMON 00079
OLED_UpdateLine@page               cstackCOMMON 0007C
OLED_WriteData@data                cstackCOMMON 00075
OLED_WriteData@i                   cstackCOMMON 00079
OLED_WriteData@len                 cstackCOMMON 00077
OLED_WriteData@st                  cstackCOMMON 0007B
OLED_YX@col                        cstackCOMMON 0007A
OLED_YX@col_char                   cstackCOMMON 00077
OLED_YX@page                       cstackCOMMON 00079
_ADCON0bits                        (abs)        0009D
_ADCON1bits                        (abs)        0009E
_ADC_ConfigurePin                  text3        0005E
_ADC_Init                          text38       0179F
_ADC_Read_Averaged                 text34       0012D
_ADRESH                            (abs)        0009C
_ADRESL                            (abs)        0009B
_ANSELAbits                        (abs)        0018C
_ANSELBbits                        (abs)        0018D
_ANSELCbits                        (abs)        0018E
_BatteryIcon                       stringtext1  0182A
_I2C_ClearErrors                   text37       01786
_I2C_Init                          text36       017B5
_I2C_Start                         text26       00BB7
_I2C_Stop                          text25       00B70
_I2C_WaitIF                        text28       00B11
_I2C_WaitIdle                      text27       00B93
_I2C_WriteByte                     text24       00C8D
_IRCF0                             (abs)        004CB
_IRCF1                             (abs)        004CC
_IRCF2                             (abs)        004CD
_IRCF3                             (abs)        004CE
_Joystick_Calibrate                text33       00B2F
_Joystick_DirectionString          text32       00D70
_Joystick_GetDirection             text30       00F43
_Joystick_Init                     text31       0178D
_Joystick_Read                     text29       000C3
_OLED_Clear                        text18       00E04
_OLED_Command                      text21       00C5F
_OLED_Init                         text17       0019A
_OLED_Printf_Line                  text5        003CB
_OLED_Printf_Line$363              cstackBANK0  0006E
_OLED_SetOrientation               text4        00D2F
_OLED_UpdateLine                   text16       00C06
_OLED_WriteData                    text22       00EA0
_OLED_YX                           text20       00B4E
_OPTION_REGbits                    (abs)        00095
_OledFont                          stringtext2  00800
_PIR1bits                          (abs)        00011
_PIR2bits                          (abs)        00012
_PORTBbits                         (abs)        0000D
_PPSLOCK                           (abs)        00E0F
_PPSLOCKbits                       (abs)        00E0F
_RB2PPSbits                        (abs)        00E9A
_RC4PPSbits                        (abs)        00EA4
_RC5PPSbits                        (abs)        00EA5
_RXPPSbits                         (abs)        00E24
_SCS0                              (abs)        004C8
_SCS1                              (abs)        004C9
_SPLLEN                            (abs)        004CF
_SSD1306_CtrlW                     text23       01780
_SSPADD                            (abs)        00212
_SSPBUF                            (abs)        00211
_SSPCLKPPSbits                     (abs)        00E20
_SSPCON1bits                       (abs)        00215
_SSPCON2                           (abs)        00216
_SSPCON2bits                       (abs)        00216
_SSPCONbits                        (abs)        00215
_SSPDATPPSbits                     (abs)        00E21
_SSPSTATbits                       (abs)        00214
_TRISAbits                         (abs)        0008C
_TRISBbits                         (abs)        0008D
_TRISCbits                         (abs)        0008E
_WPUBbits                          (abs)        0020D
__H__absolute__                    __absolute__ 00000
__Habs1                            abs1         00000
__Hbank0                           bank0        00000
__Hbank1                           bank1        00000
__Hbank10                          bank10       00000
__Hbank11                          bank11       00000
__Hbank12                          bank12       00000
__Hbank13                          bank13       00000
__Hbank14                          bank14       00000
__Hbank15                          bank15       00000
__Hbank16                          bank16       00000
__Hbank17                          bank17       00000
__Hbank18                          bank18       00000
__Hbank19                          bank19       00000
__Hbank2                           bank2        00000
__Hbank20                          bank20       00000
__Hbank21                          bank21       00000
__Hbank22                          bank22       00000
__Hbank23                          bank23       00000
__Hbank24                          bank24       00000
__Hbank25                          bank25       00000
__Hbank26                          bank26       00000
__Hbank27                          bank27       00000
__Hbank28                          bank28       00000
__Hbank29                          bank29       00000
__Hbank3                           bank3        00000
__Hbank30                          bank30       00000
__Hbank31                          bank31       00000
__Hbank4                           bank4        00000
__Hbank5                           bank5        00000
__Hbank6                           bank6        00000
__Hbank7                           bank7        00000
__Hbank8                           bank8        00000
__Hbank9                           bank9        00000
__Hbigram                          bigram       00000
__Hcinit                           cinit        00800
__Hclrtext                         clrtext      00000
__Hcode                            code         00000
__Hcommon                          common       00000
__Hconfig                          config       08009
__HcstackBANK0                     cstackBANK0  00000
__HcstackBANK1                     cstackBANK1  00000
__HcstackCOMMON                    cstackCOMMON 00000
__HdataBANK1                       dataBANK1    00000
__Heeprom_data                     eeprom_data  00000
__Hend_init                        end_init     00004
__Hfunctab                         functab      00000
__Hheap                            heap         00000
__HidataBANK1                      idataBANK1   00000
__Hinit                            init         00002
__Hintentry                        intentry     00002
__Hmaintext                        maintext     00000
__Hpowerup                         powerup      00000
__Hram                             ram          00000
__Hreset_vec                       reset_vec    00002
__Hsfr0                            sfr0         00000
__Hsfr1                            sfr1         00000
__Hsfr10                           sfr10        00000
__Hsfr11                           sfr11        00000
__Hsfr12                           sfr12        00000
__Hsfr13                           sfr13        00000
__Hsfr14                           sfr14        00000
__Hsfr15                           sfr15        00000
__Hsfr16                           sfr16        00000
__Hsfr17                           sfr17        00000
__Hsfr18                           sfr18        00000
__Hsfr19                           sfr19        00000
__Hsfr2                            sfr2         00000
__Hsfr20                           sfr20        00000
__Hsfr21                           sfr21        00000
__Hsfr22                           sfr22        00000
__Hsfr23                           sfr23        00000
__Hsfr24                           sfr24        00000
__Hsfr25                           sfr25        00000
__Hsfr26                           sfr26        00000
__Hsfr27                           sfr27        00000
__Hsfr28                           sfr28        00000
__Hsfr29                           sfr29        00000
__Hsfr3                            sfr3         00000
__Hsfr30                           sfr30        00000
__Hsfr31                           sfr31        00000
__Hsfr4                            sfr4         00000
__Hsfr5                            sfr5         00000
__Hsfr6                            sfr6         00000
__Hsfr7                            sfr7         00000
__Hsfr8                            sfr8         00000
__Hsfr9                            sfr9         00000
__Hsivt                            sivt         00002
__Hspace_0                         (abs)        018A5
__Hspace_1                         (abs)        000E1
__Hspace_2                         (abs)        00000
__Hspace_3                         (abs)        00000
__Hspace_4                         (abs)        10010
__Hstack                           stack        00000
__Hstrings                         strings      00000
__Hstringtext1                     stringtext1  00000
__Hstringtext10                    stringtext10 00000
__Hstringtext11                    stringtext11 00000
__Hstringtext12                    stringtext12 00000
__Hstringtext13                    stringtext13 00000
__Hstringtext14                    stringtext14 00000
__Hstringtext15                    stringtext15 00000
__Hstringtext16                    stringtext16 00000
__Hstringtext17                    stringtext17 00000
__Hstringtext18                    stringtext18 00000
__Hstringtext19                    stringtext19 00000
__Hstringtext2                     stringtext2  00000
__Hstringtext3                     stringtext3  00000
__Hstringtext4                     stringtext4  00000
__Hstringtext5                     stringtext5  00000
__Hstringtext6                     stringtext6  00000
__Hstringtext7                     stringtext7  00000
__Hstringtext8                     stringtext8  00000
__Hstringtext9                     stringtext9  00000
__Htext                            text         00000
__L__absolute__                    __absolute__ 00000
__Labs1                            abs1         00000
__Lbank0                           bank0        00000
__Lbank1                           bank1        00000
__Lbank10                          bank10       00000
__Lbank11                          bank11       00000
__Lbank12                          bank12       00000
__Lbank13                          bank13       00000
__Lbank14                          bank14       00000
__Lbank15                          bank15       00000
__Lbank16                          bank16       00000
__Lbank17                          bank17       00000
__Lbank18                          bank18       00000
__Lbank19                          bank19       00000
__Lbank2                           bank2        00000
__Lbank20                          bank20       00000
__Lbank21                          bank21       00000
__Lbank22                          bank22       00000
__Lbank23                          bank23       00000
__Lbank24                          bank24       00000
__Lbank25                          bank25       00000
__Lbank26                          bank26       00000
__Lbank27                          bank27       00000
__Lbank28                          bank28       00000
__Lbank29                          bank29       00000
__Lbank3                           bank3        00000
__Lbank30                          bank30       00000
__Lbank31                          bank31       00000
__Lbank4                           bank4        00000
__Lbank5                           bank5        00000
__Lbank6                           bank6        00000
__Lbank7                           bank7        00000
__Lbank8                           bank8        00000
__Lbank9                           bank9        00000
__Lbigram                          bigram       00000
__Lcinit                           cinit        007E1
__Lclrtext                         clrtext      00000
__Lcode                            code         00000
__Lcommon                          common       00000
__Lconfig                          config       00000
__LcstackBANK0                     cstackBANK0  00000
__LcstackBANK1                     cstackBANK1  00000
__LcstackCOMMON                    cstackCOMMON 00000
__LdataBANK1                       dataBANK1    00000
__Leeprom_data                     eeprom_data  00000
__Lend_init                        end_init     00002
__Lfunctab                         functab      00000
__Lheap                            heap         00000
__LidataBANK1                      idataBANK1   00000
__Linit                            init         00002
__Lintentry                        intentry     00002
__Lmaintext                        maintext     00000
__Lpowerup                         powerup      00000
__Lram                             ram          00000
__Lreset_vec                       reset_vec    00000
__Lsfr0                            sfr0         00000
__Lsfr1                            sfr1         00000
__Lsfr10                           sfr10        00000
__Lsfr11                           sfr11        00000
__Lsfr12                           sfr12        00000
__Lsfr13                           sfr13        00000
__Lsfr14                           sfr14        00000
__Lsfr15                           sfr15        00000
__Lsfr16                           sfr16        00000
__Lsfr17                           sfr17        00000
__Lsfr18                           sfr18        00000
__Lsfr19                           sfr19        00000
__Lsfr2                            sfr2         00000
__Lsfr20                           sfr20        00000
__Lsfr21                           sfr21        00000
__Lsfr22                           sfr22        00000
__Lsfr23                           sfr23        00000
__Lsfr24                           sfr24        00000
__Lsfr25                           sfr25        00000
__Lsfr26                           sfr26        00000
__Lsfr27                           sfr27        00000
__Lsfr28                           sfr28        00000
__Lsfr29                           sfr29        00000
__Lsfr3                            sfr3         00000
__Lsfr30                           sfr30        00000
__Lsfr31                           sfr31        00000
__Lsfr4                            sfr4         00000
__Lsfr5                            sfr5         00000
__Lsfr6                            sfr6         00000
__Lsfr7                            sfr7         00000
__Lsfr8                            sfr8         00000
__Lsfr9                            sfr9         00000
__Lsivt                            sivt         00002
__Lspace_0                         (abs)        00000
__Lspace_1                         (abs)        00000
__Lspace_2                         (abs)        00000
__Lspace_3                         (abs)        00000
__Lspace_4                         (abs)        00000
__Lstack                           stack        00000
__Lstrings                         strings      00000
__Lstringtext1                     stringtext1  00000
__Lstringtext10                    stringtext10 00000
__Lstringtext11                    stringtext11 00000
__Lstringtext12                    stringtext12 00000
__Lstringtext13                    stringtext13 00000
__Lstringtext14                    stringtext14 00000
__Lstringtext15                    stringtext15 00000
__Lstringtext16                    stringtext16 00000
__Lstringtext17                    stringtext17 00000
__Lstringtext18                    stringtext18 00000
__Lstringtext19                    stringtext19 00000
__Lstringtext2                     stringtext2  00000
__Lstringtext3                     stringtext3  00000
__Lstringtext4                     stringtext4  00000
__Lstringtext5                     stringtext5  00000
__Lstringtext6                     stringtext6  00000
__Lstringtext7                     stringtext7  00000
__Lstringtext8                     stringtext8  00000
__Lstringtext9                     stringtext9  00000
__Ltext                            text         00000
__S0                               (abs)        018A5
__S1                               (abs)        000E1
___aldiv                           text15       00289
___aldiv@counter                   cstackBANK0  00020
___aldiv@dividend                  cstackCOMMON 00074
___aldiv@divisor                   cstackCOMMON 00070
___aldiv@quotient                  cstackBANK0  00022
___aldiv@sign                      cstackBANK0  00021
___almod                           text14       0020E
___almod@counter                   cstackCOMMON 00079
___almod@dividend                  cstackCOMMON 00074
___almod@divisor                   cstackCOMMON 00070
___almod@sign                      cstackCOMMON 0007A
___awdiv                           text13       00FA1
___awdiv@counter                   cstackCOMMON 00075
___awdiv@dividend                  cstackCOMMON 00072
___awdiv@divisor                   cstackCOMMON 00070
___awdiv@quotient                  cstackCOMMON 00077
___awdiv@sign                      cstackCOMMON 00076
___awmod                           text12       00EF0
___awmod@counter                   cstackCOMMON 00075
___awmod@dividend                  cstackCOMMON 00072
___awmod@divisor                   cstackCOMMON 00070
___awmod@sign                      cstackCOMMON 00076
___heap_hi                         (abs)        00000
___heap_lo                         (abs)        00000
___int_sp                          stack        00000
___int_stack_hi                    stack        00000
___int_stack_lo                    stack        00000
___latbits                         (abs)        00003
___lldiv                           text35       00004
___lldiv@counter                   cstackCOMMON 0007D
___lldiv@dividend                  cstackCOMMON 00074
___lldiv@divisor                   cstackCOMMON 00070
___lldiv@quotient                  cstackCOMMON 00079
___llmod                           text11       00DBA
___llmod@counter                   cstackCOMMON 00079
___llmod@dividend                  cstackCOMMON 00074
___llmod@divisor                   cstackCOMMON 00070
___lwdiv                           text10       00CF3
___lwdiv@counter                   cstackCOMMON 00077
___lwdiv@dividend                  cstackCOMMON 00072
___lwdiv@divisor                   cstackCOMMON 00070
___lwdiv@quotient                  cstackCOMMON 00075
___lwmod                           text9        00CBF
___lwmod@counter                   cstackCOMMON 00075
___lwmod@dividend                  cstackCOMMON 00072
___lwmod@divisor                   cstackCOMMON 00070
___sp                              stack        00000
___stack_hi                        stack        00000
___stack_lo                        stack        00000
___stackhi                         (abs)        00000
___stacklo                         (abs)        00000
__end_of_ADC_ConfigurePin          text3        000C3
__end_of_ADC_Init                  text38       017A9
__end_of_ADC_Read_Averaged         text34       0019A
__end_of_BatteryIcon               stringtext1  01834
__end_of_I2C_ClearErrors           text37       0178D
__end_of_I2C_Init                  text36       017C9
__end_of_I2C_Start                 text26       00BDC
__end_of_I2C_Stop                  text25       00B93
__end_of_I2C_WaitIF                text28       00B2F
__end_of_I2C_WaitIdle              text27       00BB7
__end_of_I2C_WriteByte             text24       00CBF
__end_of_Joystick_Calibrate        text33       00B4E
__end_of_Joystick_DirectionString  text32       00DBA
__end_of_Joystick_GetDirection     text30       00FA1
__end_of_Joystick_Init             text31       01796
__end_of_Joystick_Read             text29       0012D
__end_of_OLED_Clear                text18       00E51
__end_of_OLED_Command              text21       00C8D
__end_of_OLED_Init                 text17       0020E
__end_of_OLED_Printf_Line          text5        007E1
__end_of_OLED_SetOrientation       text4        00D70
__end_of_OLED_UpdateLine           text16       00C32
__end_of_OLED_WriteData            text22       00EF0
__end_of_OLED_YX                   text20       00B70
__end_of_OledFont                  stringtext2  00B00
__end_of_SSD1306_CtrlW             text23       01782
__end_of___aldiv                   text15       00319
__end_of___almod                   text14       00289
__end_of___awdiv                   text13       01000
__end_of___awmod                   text12       00F43
__end_of___lldiv                   text35       0005E
__end_of___llmod                   text11       00E04
__end_of___lwdiv                   text10       00D2F
__end_of___lwmod                   text9        00CF3
__end_of__initialization           cinit        007FD
__end_of_initMain                  text1        00EA0
__end_of_internal_32               text2        0179F
__end_of_main                      maintext     003CB
__end_of_memcpy                    text8        00C06
__end_of_memset                    text19       01800
__end_of_strcmp                    text7        00C5F
__end_of_strcpy                    text6        017E4
__initialization                   cinit        007E1
__pbssBIGRAM                       (abs)        024F0
__pcstackBANK0                     cstackBANK0  00020
__pcstackBANK1                     cstackBANK1  000A0
__pcstackCOMMON                    cstackCOMMON 00070
__pdataBANK1                       dataBANK1    000DD
__pidataBANK1                      idataBANK1   01782
__pmaintext                        maintext     00319
__pstringtext1                     stringtext1  0182A
__pstringtext10                    stringtext10 01858
__pstringtext11                    stringtext11 01861
__pstringtext12                    stringtext12 0186A
__pstringtext13                    stringtext13 01873
__pstringtext14                    stringtext14 0187C
__pstringtext15                    stringtext15 01885
__pstringtext16                    stringtext16 0188D
__pstringtext17                    stringtext17 01895
__pstringtext18                    stringtext18 0189D
__pstringtext19                    stringtext19 00000
__pstringtext2                     stringtext2  00800
__pstringtext3                     stringtext3  01800
__pstringtext4                     stringtext4  0180F
__pstringtext5                     stringtext5  0181D
__pstringtext6                     stringtext6  01834
__pstringtext7                     stringtext7  0183D
__pstringtext8                     stringtext8  01846
__pstringtext9                     stringtext9  0184F
__ptext1                           text1        00E51
__ptext10                          text10       00CF3
__ptext11                          text11       00DBA
__ptext12                          text12       00EF0
__ptext13                          text13       00FA1
__ptext14                          text14       0020E
__ptext15                          text15       00289
__ptext16                          text16       00C06
__ptext17                          text17       0019A
__ptext18                          text18       00E04
__ptext19                          text19       017E4
__ptext2                           text2        01796
__ptext20                          text20       00B4E
__ptext21                          text21       00C5F
__ptext22                          text22       00EA0
__ptext23                          text23       01780
__ptext24                          text24       00C8D
__ptext25                          text25       00B70
__ptext26                          text26       00BB7
__ptext27                          text27       00B93
__ptext28                          text28       00B11
__ptext29                          text29       000C3
__ptext3                           text3        0005E
__ptext30                          text30       00F43
__ptext31                          text31       0178D
__ptext32                          text32       00D70
__ptext33                          text33       00B2F
__ptext34                          text34       0012D
__ptext35                          text35       00004
__ptext36                          text36       017B5
__ptext37                          text37       01786
__ptext38                          text38       0179F
__ptext4                           text4        00D2F
__ptext5                           text5        003CB
__ptext6                           text6        017C9
__ptext7                           text7        00C32
__ptext8                           text8        00BDC
__ptext9                           text9        00CBF
_initMain                          text1        00E51
_internal_32                       text2        01796
_joy_center_x                      dataBANK1    000DF
_joy_center_y                      dataBANK1    000DD
_main                              maintext     00319
_main$885                          cstackBANK1  000D1
_memcpy                            text8        00BDC
_memset                            text19       017E4
_screen_buffer                     (abs)        024F0
_strcmp                            text7        00C32
_strcpy                            text6        017C9
btemp                              (abs)        0007E
clear_ram0                         clrtext      017A9
end_of_initialization              cinit        007FD
intlevel0                          functab      00000
intlevel1                          functab      00000
intlevel2                          functab      00000
intlevel3                          functab      00000
intlevel4                          functab      00000
intlevel5                          functab      00000
main@joy                           cstackBANK1  000D3
memcpy@d                           cstackCOMMON 00076
memcpy@d1                          cstackCOMMON 00070
memcpy@n                           cstackCOMMON 00074
memcpy@s                           cstackCOMMON 00078
memcpy@s1                          cstackCOMMON 00072
memcpy@tmp                         cstackCOMMON 0007A
memset@c                           cstackCOMMON 00072
memset@dest                        cstackCOMMON 00070
memset@n                           cstackCOMMON 00074
memset@p                           cstackCOMMON 00076
reset_vec                          reset_vec    00000
start                              init         00002
start_initialization               cinit        007E1
strcmp@l                           cstackCOMMON 00073
strcmp@r                           cstackCOMMON 00070
strcpy@d                           cstackCOMMON 00075
strcpy@dest                        cstackCOMMON 00070
strcpy@src                         cstackCOMMON 00072
wtemp0                             (abs)        0007E


MODULE INFORMATION

Module		Function		Class		Link	Load	Size
C:\Program Files\Microchip\xc8\v2.46\pic\sources\c99\common\lwdiv.c
		___lwdiv       		CODE           	0CF3	0000	60

C:\Program Files\Microchip\xc8\v2.46\pic\sources\c99\common\lwdiv.c estimated size: 60

./ADC.h
		_ADC_Read_Averaged		CODE           	012D	0000	109
		_ADC_ConfigurePin		CODE           	005E	0000	101
		_ADC_Init      		CODE           	179F	0000	10

./ADC.h estimated size: 220

C:\Program Files\Microchip\xc8\v2.46\pic\sources\c99\common\awdiv.c
		___awdiv       		CODE           	0FA1	0000	95

C:\Program Files\Microchip\xc8\v2.46\pic\sources\c99\common\awdiv.c estimated size: 95

C:\Program Files\Microchip\xc8\v2.46\pic\sources\c99\common\aldiv.c
		___aldiv       		CODE           	0289	0000	144

C:\Program Files\Microchip\xc8\v2.46\pic\sources\c99\common\aldiv.c estimated size: 144

I2C.c
		_I2C_Stop      		CODE           	0B70	0000	35
		_I2C_WriteByte 		CODE           	0C8D	0000	50
		_I2C_WaitIF    		CODE           	0B11	0000	30
		_I2C_WaitIdle  		CODE           	0B93	0000	36
		_I2C_Init      		CODE           	17B5	0000	20
		_I2C_ClearErrors		CODE           	1786	0000	7
		_I2C_Start     		CODE           	0BB7	0000	37

I2C.c estimated size: 215

C:\Program Files\Microchip\xc8\v2.46\pic\sources\c99\common\strcmp.c
		_strcmp        		CODE           	0C32	0000	45

C:\Program Files\Microchip\xc8\v2.46\pic\sources\c99\common\strcmp.c estimated size: 45

C:\Program Files\Microchip\xc8\v2.46\pic\sources\c99\common\strcpy.c
		_strcpy        		CODE           	17C9	0000	27

C:\Program Files\Microchip\xc8\v2.46\pic\sources\c99\common\strcpy.c estimated size: 27

C:\Program Files\Microchip\xc8\v2.46\pic\sources\c99\common\memset.c
		_memset        		CODE           	17E4	0000	28

C:\Program Files\Microchip\xc8\v2.46\pic\sources\c99\common\memset.c estimated size: 28

PIC16F1718_Internal.c
		_internal_32   		CODE           	1796	0000	9

PIC16F1718_Internal.c estimated size: 9

shared
		_OledFont      		STRCODE        	0800	0000	768
		__initialization		CODE           	07E1	0000	28
		_BatteryIcon   		STRCODE        	182A	0000	10

shared estimated size: 806

C:\Program Files\Microchip\xc8\v2.46\pic\sources\c99\common\__lldiv.c
		___lldiv       		CODE           	0004	0000	90

C:\Program Files\Microchip\xc8\v2.46\pic\sources\c99\common\__lldiv.c estimated size: 90

OLED_SSD1306.c
		_OLED_Clear    		CODE           	0E04	0000	77
		_OLED_SetOrientation		CODE           	0D2F	0000	65
		_OLED_Command  		CODE           	0C5F	0000	46
		_OLED_WriteData		CODE           	0EA0	0000	80
		_SSD1306_CtrlW 		CODE           	1780	0000	2
		_OLED_Init     		CODE           	019A	0000	116
		_OLED_UpdateLine		CODE           	0C06	0000	44
		_OLED_Printf_Line		CODE           	03CB	0000	1046
		_OLED_YX       		CODE           	0B4E	0000	34

OLED_SSD1306.c estimated size: 1510

C:\Program Files\Microchip\xc8\v2.46\pic\sources\c99\common\memcpy.c
		_memcpy        		CODE           	0BDC	0000	42

C:\Program Files\Microchip\xc8\v2.46\pic\sources\c99\common\memcpy.c estimated size: 42

C:\Program Files\Microchip\xc8\v2.46\pic\sources\c99\common\lwmod.c
		___lwmod       		CODE           	0CBF	0000	52

C:\Program Files\Microchip\xc8\v2.46\pic\sources\c99\common\lwmod.c estimated size: 52

C:\Program Files\Microchip\xc8\v2.46\pic\sources\c99\common\awmod.c
		___awmod       		CODE           	0EF0	0000	83

C:\Program Files\Microchip\xc8\v2.46\pic\sources\c99\common\awmod.c estimated size: 83

C:\Program Files\Microchip\xc8\v2.46\pic\sources\c99\common\llmod.c
		___llmod       		CODE           	0DBA	0000	74

C:\Program Files\Microchip\xc8\v2.46\pic\sources\c99\common\llmod.c estimated size: 74

main.c
		_Joystick_Calibrate		CODE           	0B2F	0000	31
		_Joystick_GetDirection		CODE           	0F43	0000	94
		_Joystick_DirectionString		CODE           	0D70	0000	74
		_main          		CODE           	0319	0000	178
		_Joystick_Read 		CODE           	00C3	0000	106
		_Joystick_Init 		CODE           	178D	0000	9
		_initMain      		CODE           	0E51	0000	79

main.c estimated size: 571

C:\Program Files\Microchip\xc8\v2.46\pic\sources\c99\common\almod.c
		___almod       		CODE           	020E	0000	123

C:\Program Files\Microchip\xc8\v2.46\pic\sources\c99\common\almod.c estimated size: 123

