

Microchip MPLAB XC8 Assembler V2.46 build 20240104201356 
                                                                                               Fri Dec 26 03:33:39 2025

Microchip MPLAB XC8 C Compiler v2.46 (Free license) build 20240104201356 Og1 
     1                           	processor	16F1718
     2                           	pagewidth 120
     3                           	opt	flic
     4                           	psect	stringtext1,global,class=STRCODE,delta=2,noexec
     5                           	psect	stringtext2,global,class=STRCODE,delta=2,noexec
     6                           	psect	stringtext3,global,class=STRCODE,delta=2,noexec
     7                           	psect	stringtext4,global,class=STRCODE,delta=2,noexec
     8                           	psect	stringtext5,global,class=STRCODE,delta=2,noexec
     9                           	psect	cinit,global,class=CODE,merge=1,delta=2
    10                           	psect	bssBANK1,global,class=BANK1,space=1,delta=1,noexec
    11                           	psect	clrtext,global,class=CODE,delta=2
    12                           	psect	cstackBANK1,global,class=BANK1,space=1,delta=1,noexec
    13                           	psect	cstackCOMMON,global,class=COMMON,space=1,delta=1,noexec
    14                           	psect	cstackBANK0,global,class=BANK0,space=1,delta=1,noexec
    15                           	psect	maintext,global,class=CODE,merge=1,split=1,delta=2
    16                           	psect	text1,local,class=CODE,merge=1,delta=2
    17                           	psect	text2,local,class=CODE,merge=1,delta=2
    18                           	psect	text3,local,class=CODE,merge=1,delta=2
    19                           	psect	text4,local,class=CODE,merge=1,delta=2,group=1
    20                           	psect	text5,local,class=CODE,merge=1,delta=2
    21                           	psect	text6,local,class=CODE,merge=1,delta=2
    22                           	psect	text7,local,class=CODE,merge=1,delta=2,group=2
    23                           	psect	text8,local,class=CODE,merge=1,delta=2,group=2
    24                           	psect	text9,local,class=CODE,merge=1,delta=2,group=2
    25                           	psect	text10,local,class=CODE,merge=1,delta=2,group=1
    26                           	psect	text11,local,class=CODE,merge=1,delta=2,group=1
    27                           	psect	text12,local,class=CODE,merge=1,delta=2,group=1
    28                           	psect	text13,local,class=CODE,merge=1,delta=2,group=1
    29                           	psect	text14,local,class=CODE,merge=1,delta=2,group=1
    30                           	psect	text15,local,class=CODE,merge=1,delta=2,group=1
    31                           	psect	text16,local,class=CODE,merge=1,delta=2,group=1
    32                           	psect	text17,local,class=CODE,merge=1,delta=2
    33                           	psect	text18,local,class=CODE,merge=1,delta=2
    34                           	psect	text19,local,class=CODE,merge=1,delta=2
    35                           	psect	text20,local,class=CODE,merge=1,delta=2,group=2
    36                           	psect	text21,local,class=CODE,merge=1,delta=2
    37                           	psect	text22,local,class=CODE,merge=1,delta=2
    38                           	psect	text23,local,class=CODE,merge=1,delta=2
    39                           	psect	text24,local,class=CODE,merge=1,delta=2
    40                           	psect	text25,local,class=CODE,merge=1,delta=2
    41                           	psect	text26,local,class=CODE,merge=1,delta=2
    42                           	psect	text27,local,class=CODE,merge=1,delta=2
    43                           	psect	text28,local,class=CODE,merge=1,delta=2
    44                           	psect	text29,local,class=CODE,merge=1,delta=2
    45                           	psect	text30,local,class=CODE,merge=1,delta=2
    46                           	psect	text31,local,class=CODE,merge=1,delta=2
    47                           	psect	text32,local,class=CODE,merge=1,delta=2
    48                           	psect	text33,local,class=CODE,merge=1,delta=2,group=1
    49                           	psect	text34,local,class=CODE,merge=1,delta=2
    50                           	psect	config,global,abs,ovrld,class=CONFIG,space=4,delta=2,noexec
    51                           	dabs	1,0xCA0,32
    52                           	dabs	1,0xC20,80
    53                           	dabs	1,0xBA0,80
    54                           	dabs	1,0xB30,64
    55                           	dabs	1,0xB20,16
    56                           	dabs	1,0xAA0,80
    57                           	dabs	1,0xA20,80
    58                           	dabs	1,0x9A0,80
    59                           	dabs	1,0x920,80
    60                           	dabs	1,0x8A0,80
    61                           	dabs	1,0x820,80
    62                           	dabs	1,0x7E0,16
    63                           	dabs	1,0x24F0,0,_screen_buffer
    64                           	dabs	1,0x26F0,0,OLED_Printf_Line@last_text
    65                           	dabs	1,0x7E,2
    66     0000                     
    67                           ; Generated 07/09/2023 GMT
    68                           ; 
    69                           ; Copyright © 2023, Microchip Technology Inc. and its subsidiaries ("Microchip")
    70                           ; All rights reserved.
    71                           ; 
    72                           ; This software is developed by Microchip Technology Inc. and its subsidiaries ("Microch
      +                          ip").
    73                           ; 
    74                           ; Redistribution and use in source and binary forms, with or without modification, are
    75                           ; permitted provided that the following conditions are met:
    76                           ; 
    77                           ;     1. Redistributions of source code must retain the above copyright notice, this lis
      +                          t of
    78                           ;        conditions and the following disclaimer.
    79                           ; 
    80                           ;     2. Redistributions in binary form must reproduce the above copyright notice, this 
      +                          list
    81                           ;        of conditions and the following disclaimer in the documentation and/or other
    82                           ;        materials provided with the distribution. Publication is not required when
    83                           ;        this file is used in an embedded application.
    84                           ; 
    85                           ;     3. Microchip's name may not be used to endorse or promote products derived from th
      +                          is
    86                           ;        software without specific prior written permission.
    87                           ; 
    88                           ; THIS SOFTWARE IS PROVIDED BY MICROCHIP "AS IS" AND ANY EXPRESS OR IMPLIED WARRANTIES,
    89                           ; INCLUDING, BUT NOT LIMITED TO, THE IMPLIED WARRANTIES OF MERCHANTABILITY AND FITNESS F
      +                          OR
    90                           ; PURPOSE ARE DISCLAIMED.  IN NO EVENT SHALL MICROCHIP BE LIABLE FOR ANY DIRECT, INDIREC
      +                          T,
    91                           ; INCIDENTAL, SPECIAL, EXEMPLARY, OR CONSEQUENTIAL DAMAGES (INCLUDING BUT NOT LIMITED TO
    92                           ; PROCUREMENT OF SUBSTITUTE GOODS OR SERVICES; LOSS OF USE, DATA OR PROFITS; OR BUSINESS
    93                           ; INTERRUPTION) HOWSOEVER CAUSED AND ON ANY THEORY OF LIABILITY, WHETHER IN CONTRACT, ST
      +                          RICT
    94                           ; LIABILITY, OR TORT (INCLUDING NEGLIGENCE OR OTHERWISE) ARISING IN ANY WAY OUT OF THE U
      +                          SE OF
    95                           ; THIS SOFTWARE, EVEN IF ADVISED OF THE POSSIBILITY OF SUCH DAMAGE.
    96                           ; 
    97                           ; 
    98                           ; Code-generator required, PIC16F1718 Definitions
    99                           ; 
   100                           ; SFR Addresses
   101     0000                     	;# 
   102     0001                     	;# 
   103     0002                     	;# 
   104     0003                     	;# 
   105     0004                     	;# 
   106     0005                     	;# 
   107     0006                     	;# 
   108     0007                     	;# 
   109     0008                     	;# 
   110     0009                     	;# 
   111     000A                     	;# 
   112     000B                     	;# 
   113     000C                     	;# 
   114     000D                     	;# 
   115     000E                     	;# 
   116     0010                     	;# 
   117     0011                     	;# 
   118     0012                     	;# 
   119     0013                     	;# 
   120     0015                     	;# 
   121     0016                     	;# 
   122     0016                     	;# 
   123     0017                     	;# 
   124     0018                     	;# 
   125     0019                     	;# 
   126     001A                     	;# 
   127     001B                     	;# 
   128     001C                     	;# 
   129     008C                     	;# 
   130     008D                     	;# 
   131     008E                     	;# 
   132     0090                     	;# 
   133     0091                     	;# 
   134     0092                     	;# 
   135     0093                     	;# 
   136     0095                     	;# 
   137     0096                     	;# 
   138     0097                     	;# 
   139     0098                     	;# 
   140     0099                     	;# 
   141     009A                     	;# 
   142     009B                     	;# 
   143     009B                     	;# 
   144     009C                     	;# 
   145     009D                     	;# 
   146     009E                     	;# 
   147     009F                     	;# 
   148     010C                     	;# 
   149     010D                     	;# 
   150     010E                     	;# 
   151     0111                     	;# 
   152     0112                     	;# 
   153     0113                     	;# 
   154     0114                     	;# 
   155     0115                     	;# 
   156     0116                     	;# 
   157     0117                     	;# 
   158     0118                     	;# 
   159     0119                     	;# 
   160     011A                     	;# 
   161     011B                     	;# 
   162     011B                     	;# 
   163     011C                     	;# 
   164     018C                     	;# 
   165     018D                     	;# 
   166     018E                     	;# 
   167     0191                     	;# 
   168     0191                     	;# 
   169     0192                     	;# 
   170     0193                     	;# 
   171     0193                     	;# 
   172     0194                     	;# 
   173     0195                     	;# 
   174     0196                     	;# 
   175     0197                     	;# 
   176     0199                     	;# 
   177     0199                     	;# 
   178     0199                     	;# 
   179     019A                     	;# 
   180     019A                     	;# 
   181     019A                     	;# 
   182     019B                     	;# 
   183     019B                     	;# 
   184     019B                     	;# 
   185     019B                     	;# 
   186     019B                     	;# 
   187     019C                     	;# 
   188     019C                     	;# 
   189     019C                     	;# 
   190     019D                     	;# 
   191     019D                     	;# 
   192     019D                     	;# 
   193     019E                     	;# 
   194     019E                     	;# 
   195     019E                     	;# 
   196     019F                     	;# 
   197     019F                     	;# 
   198     019F                     	;# 
   199     019F                     	;# 
   200     019F                     	;# 
   201     020C                     	;# 
   202     020D                     	;# 
   203     020E                     	;# 
   204     0210                     	;# 
   205     0211                     	;# 
   206     0211                     	;# 
   207     0212                     	;# 
   208     0212                     	;# 
   209     0213                     	;# 
   210     0213                     	;# 
   211     0214                     	;# 
   212     0214                     	;# 
   213     0215                     	;# 
   214     0215                     	;# 
   215     0215                     	;# 
   216     0215                     	;# 
   217     0216                     	;# 
   218     0216                     	;# 
   219     0217                     	;# 
   220     0217                     	;# 
   221     028C                     	;# 
   222     028D                     	;# 
   223     028E                     	;# 
   224     0291                     	;# 
   225     0291                     	;# 
   226     0292                     	;# 
   227     0293                     	;# 
   228     0293                     	;# 
   229     0298                     	;# 
   230     0298                     	;# 
   231     0299                     	;# 
   232     029A                     	;# 
   233     029A                     	;# 
   234     029E                     	;# 
   235     030C                     	;# 
   236     030D                     	;# 
   237     030E                     	;# 
   238     038C                     	;# 
   239     038D                     	;# 
   240     038E                     	;# 
   241     0390                     	;# 
   242     0391                     	;# 
   243     0392                     	;# 
   244     0393                     	;# 
   245     0394                     	;# 
   246     0395                     	;# 
   247     0396                     	;# 
   248     0397                     	;# 
   249     0398                     	;# 
   250     0399                     	;# 
   251     039D                     	;# 
   252     039E                     	;# 
   253     039F                     	;# 
   254     0415                     	;# 
   255     0416                     	;# 
   256     0417                     	;# 
   257     041C                     	;# 
   258     041D                     	;# 
   259     041E                     	;# 
   260     0498                     	;# 
   261     0498                     	;# 
   262     0499                     	;# 
   263     049A                     	;# 
   264     049B                     	;# 
   265     049B                     	;# 
   266     049C                     	;# 
   267     049D                     	;# 
   268     049E                     	;# 
   269     049F                     	;# 
   270     0511                     	;# 
   271     0515                     	;# 
   272     0617                     	;# 
   273     0618                     	;# 
   274     0619                     	;# 
   275     0619                     	;# 
   276     061A                     	;# 
   277     061B                     	;# 
   278     061C                     	;# 
   279     061C                     	;# 
   280     0691                     	;# 
   281     0692                     	;# 
   282     0693                     	;# 
   283     0694                     	;# 
   284     0695                     	;# 
   285     0696                     	;# 
   286     0697                     	;# 
   287     0698                     	;# 
   288     0699                     	;# 
   289     069A                     	;# 
   290     069B                     	;# 
   291     069C                     	;# 
   292     069D                     	;# 
   293     069E                     	;# 
   294     069F                     	;# 
   295     0E0F                     	;# 
   296     0E10                     	;# 
   297     0E11                     	;# 
   298     0E12                     	;# 
   299     0E13                     	;# 
   300     0E14                     	;# 
   301     0E15                     	;# 
   302     0E17                     	;# 
   303     0E20                     	;# 
   304     0E21                     	;# 
   305     0E22                     	;# 
   306     0E24                     	;# 
   307     0E25                     	;# 
   308     0E28                     	;# 
   309     0E29                     	;# 
   310     0E2A                     	;# 
   311     0E2B                     	;# 
   312     0E90                     	;# 
   313     0E91                     	;# 
   314     0E92                     	;# 
   315     0E93                     	;# 
   316     0E94                     	;# 
   317     0E95                     	;# 
   318     0E96                     	;# 
   319     0E97                     	;# 
   320     0E98                     	;# 
   321     0E99                     	;# 
   322     0E9A                     	;# 
   323     0E9B                     	;# 
   324     0E9C                     	;# 
   325     0E9D                     	;# 
   326     0E9E                     	;# 
   327     0E9F                     	;# 
   328     0EA0                     	;# 
   329     0EA1                     	;# 
   330     0EA2                     	;# 
   331     0EA3                     	;# 
   332     0EA4                     	;# 
   333     0EA5                     	;# 
   334     0EA6                     	;# 
   335     0EA7                     	;# 
   336     0F0F                     	;# 
   337     0F10                     	;# 
   338     0F11                     	;# 
   339     0F12                     	;# 
   340     0F13                     	;# 
   341     0F14                     	;# 
   342     0F15                     	;# 
   343     0F16                     	;# 
   344     0F17                     	;# 
   345     0F18                     	;# 
   346     0F19                     	;# 
   347     0F1A                     	;# 
   348     0F1B                     	;# 
   349     0F1C                     	;# 
   350     0F1D                     	;# 
   351     0F1E                     	;# 
   352     0F1F                     	;# 
   353     0F20                     	;# 
   354     0F21                     	;# 
   355     0F22                     	;# 
   356     0F23                     	;# 
   357     0F24                     	;# 
   358     0F25                     	;# 
   359     0F26                     	;# 
   360     0F27                     	;# 
   361     0F28                     	;# 
   362     0F29                     	;# 
   363     0F2A                     	;# 
   364     0F2B                     	;# 
   365     0F2C                     	;# 
   366     0F2D                     	;# 
   367     0F2E                     	;# 
   368     0F2F                     	;# 
   369     0F30                     	;# 
   370     0F31                     	;# 
   371     0F32                     	;# 
   372     0F33                     	;# 
   373     0F34                     	;# 
   374     0F35                     	;# 
   375     0F36                     	;# 
   376     0F37                     	;# 
   377     0FE4                     	;# 
   378     0FE5                     	;# 
   379     0FE6                     	;# 
   380     0FE7                     	;# 
   381     0FE8                     	;# 
   382     0FE9                     	;# 
   383     0FEA                     	;# 
   384     0FEB                     	;# 
   385     0FED                     	;# 
   386     0FEE                     	;# 
   387     0FEF                     	;# 
   388     0000                     	;# 
   389     0001                     	;# 
   390     0002                     	;# 
   391     0003                     	;# 
   392     0004                     	;# 
   393     0005                     	;# 
   394     0006                     	;# 
   395     0007                     	;# 
   396     0008                     	;# 
   397     0009                     	;# 
   398     000A                     	;# 
   399     000B                     	;# 
   400     000C                     	;# 
   401     000D                     	;# 
   402     000E                     	;# 
   403     0010                     	;# 
   404     0011                     	;# 
   405     0012                     	;# 
   406     0013                     	;# 
   407     0015                     	;# 
   408     0016                     	;# 
   409     0016                     	;# 
   410     0017                     	;# 
   411     0018                     	;# 
   412     0019                     	;# 
   413     001A                     	;# 
   414     001B                     	;# 
   415     001C                     	;# 
   416     008C                     	;# 
   417     008D                     	;# 
   418     008E                     	;# 
   419     0090                     	;# 
   420     0091                     	;# 
   421     0092                     	;# 
   422     0093                     	;# 
   423     0095                     	;# 
   424     0096                     	;# 
   425     0097                     	;# 
   426     0098                     	;# 
   427     0099                     	;# 
   428     009A                     	;# 
   429     009B                     	;# 
   430     009B                     	;# 
   431     009C                     	;# 
   432     009D                     	;# 
   433     009E                     	;# 
   434     009F                     	;# 
   435     010C                     	;# 
   436     010D                     	;# 
   437     010E                     	;# 
   438     0111                     	;# 
   439     0112                     	;# 
   440     0113                     	;# 
   441     0114                     	;# 
   442     0115                     	;# 
   443     0116                     	;# 
   444     0117                     	;# 
   445     0118                     	;# 
   446     0119                     	;# 
   447     011A                     	;# 
   448     011B                     	;# 
   449     011B                     	;# 
   450     011C                     	;# 
   451     018C                     	;# 
   452     018D                     	;# 
   453     018E                     	;# 
   454     0191                     	;# 
   455     0191                     	;# 
   456     0192                     	;# 
   457     0193                     	;# 
   458     0193                     	;# 
   459     0194                     	;# 
   460     0195                     	;# 
   461     0196                     	;# 
   462     0197                     	;# 
   463     0199                     	;# 
   464     0199                     	;# 
   465     0199                     	;# 
   466     019A                     	;# 
   467     019A                     	;# 
   468     019A                     	;# 
   469     019B                     	;# 
   470     019B                     	;# 
   471     019B                     	;# 
   472     019B                     	;# 
   473     019B                     	;# 
   474     019C                     	;# 
   475     019C                     	;# 
   476     019C                     	;# 
   477     019D                     	;# 
   478     019D                     	;# 
   479     019D                     	;# 
   480     019E                     	;# 
   481     019E                     	;# 
   482     019E                     	;# 
   483     019F                     	;# 
   484     019F                     	;# 
   485     019F                     	;# 
   486     019F                     	;# 
   487     019F                     	;# 
   488     020C                     	;# 
   489     020D                     	;# 
   490     020E                     	;# 
   491     0210                     	;# 
   492     0211                     	;# 
   493     0211                     	;# 
   494     0212                     	;# 
   495     0212                     	;# 
   496     0213                     	;# 
   497     0213                     	;# 
   498     0214                     	;# 
   499     0214                     	;# 
   500     0215                     	;# 
   501     0215                     	;# 
   502     0215                     	;# 
   503     0215                     	;# 
   504     0216                     	;# 
   505     0216                     	;# 
   506     0217                     	;# 
   507     0217                     	;# 
   508     028C                     	;# 
   509     028D                     	;# 
   510     028E                     	;# 
   511     0291                     	;# 
   512     0291                     	;# 
   513     0292                     	;# 
   514     0293                     	;# 
   515     0293                     	;# 
   516     0298                     	;# 
   517     0298                     	;# 
   518     0299                     	;# 
   519     029A                     	;# 
   520     029A                     	;# 
   521     029E                     	;# 
   522     030C                     	;# 
   523     030D                     	;# 
   524     030E                     	;# 
   525     038C                     	;# 
   526     038D                     	;# 
   527     038E                     	;# 
   528     0390                     	;# 
   529     0391                     	;# 
   530     0392                     	;# 
   531     0393                     	;# 
   532     0394                     	;# 
   533     0395                     	;# 
   534     0396                     	;# 
   535     0397                     	;# 
   536     0398                     	;# 
   537     0399                     	;# 
   538     039D                     	;# 
   539     039E                     	;# 
   540     039F                     	;# 
   541     0415                     	;# 
   542     0416                     	;# 
   543     0417                     	;# 
   544     041C                     	;# 
   545     041D                     	;# 
   546     041E                     	;# 
   547     0498                     	;# 
   548     0498                     	;# 
   549     0499                     	;# 
   550     049A                     	;# 
   551     049B                     	;# 
   552     049B                     	;# 
   553     049C                     	;# 
   554     049D                     	;# 
   555     049E                     	;# 
   556     049F                     	;# 
   557     0511                     	;# 
   558     0515                     	;# 
   559     0617                     	;# 
   560     0618                     	;# 
   561     0619                     	;# 
   562     0619                     	;# 
   563     061A                     	;# 
   564     061B                     	;# 
   565     061C                     	;# 
   566     061C                     	;# 
   567     0691                     	;# 
   568     0692                     	;# 
   569     0693                     	;# 
   570     0694                     	;# 
   571     0695                     	;# 
   572     0696                     	;# 
   573     0697                     	;# 
   574     0698                     	;# 
   575     0699                     	;# 
   576     069A                     	;# 
   577     069B                     	;# 
   578     069C                     	;# 
   579     069D                     	;# 
   580     069E                     	;# 
   581     069F                     	;# 
   582     0E0F                     	;# 
   583     0E10                     	;# 
   584     0E11                     	;# 
   585     0E12                     	;# 
   586     0E13                     	;# 
   587     0E14                     	;# 
   588     0E15                     	;# 
   589     0E17                     	;# 
   590     0E20                     	;# 
   591     0E21                     	;# 
   592     0E22                     	;# 
   593     0E24                     	;# 
   594     0E25                     	;# 
   595     0E28                     	;# 
   596     0E29                     	;# 
   597     0E2A                     	;# 
   598     0E2B                     	;# 
   599     0E90                     	;# 
   600     0E91                     	;# 
   601     0E92                     	;# 
   602     0E93                     	;# 
   603     0E94                     	;# 
   604     0E95                     	;# 
   605     0E96                     	;# 
   606     0E97                     	;# 
   607     0E98                     	;# 
   608     0E99                     	;# 
   609     0E9A                     	;# 
   610     0E9B                     	;# 
   611     0E9C                     	;# 
   612     0E9D                     	;# 
   613     0E9E                     	;# 
   614     0E9F                     	;# 
   615     0EA0                     	;# 
   616     0EA1                     	;# 
   617     0EA2                     	;# 
   618     0EA3                     	;# 
   619     0EA4                     	;# 
   620     0EA5                     	;# 
   621     0EA6                     	;# 
   622     0EA7                     	;# 
   623     0F0F                     	;# 
   624     0F10                     	;# 
   625     0F11                     	;# 
   626     0F12                     	;# 
   627     0F13                     	;# 
   628     0F14                     	;# 
   629     0F15                     	;# 
   630     0F16                     	;# 
   631     0F17                     	;# 
   632     0F18                     	;# 
   633     0F19                     	;# 
   634     0F1A                     	;# 
   635     0F1B                     	;# 
   636     0F1C                     	;# 
   637     0F1D                     	;# 
   638     0F1E                     	;# 
   639     0F1F                     	;# 
   640     0F20                     	;# 
   641     0F21                     	;# 
   642     0F22                     	;# 
   643     0F23                     	;# 
   644     0F24                     	;# 
   645     0F25                     	;# 
   646     0F26                     	;# 
   647     0F27                     	;# 
   648     0F28                     	;# 
   649     0F29                     	;# 
   650     0F2A                     	;# 
   651     0F2B                     	;# 
   652     0F2C                     	;# 
   653     0F2D                     	;# 
   654     0F2E                     	;# 
   655     0F2F                     	;# 
   656     0F30                     	;# 
   657     0F31                     	;# 
   658     0F32                     	;# 
   659     0F33                     	;# 
   660     0F34                     	;# 
   661     0F35                     	;# 
   662     0F36                     	;# 
   663     0F37                     	;# 
   664     0FE4                     	;# 
   665     0FE5                     	;# 
   666     0FE6                     	;# 
   667     0FE7                     	;# 
   668     0FE8                     	;# 
   669     0FE9                     	;# 
   670     0FEA                     	;# 
   671     0FEB                     	;# 
   672     0FED                     	;# 
   673     0FEE                     	;# 
   674     0FEF                     	;# 
   675     0000                     	;# 
   676     0001                     	;# 
   677     0002                     	;# 
   678     0003                     	;# 
   679     0004                     	;# 
   680     0005                     	;# 
   681     0006                     	;# 
   682     0007                     	;# 
   683     0008                     	;# 
   684     0009                     	;# 
   685     000A                     	;# 
   686     000B                     	;# 
   687     000C                     	;# 
   688     000D                     	;# 
   689     000E                     	;# 
   690     0010                     	;# 
   691     0011                     	;# 
   692     0012                     	;# 
   693     0013                     	;# 
   694     0015                     	;# 
   695     0016                     	;# 
   696     0016                     	;# 
   697     0017                     	;# 
   698     0018                     	;# 
   699     0019                     	;# 
   700     001A                     	;# 
   701     001B                     	;# 
   702     001C                     	;# 
   703     008C                     	;# 
   704     008D                     	;# 
   705     008E                     	;# 
   706     0090                     	;# 
   707     0091                     	;# 
   708     0092                     	;# 
   709     0093                     	;# 
   710     0095                     	;# 
   711     0096                     	;# 
   712     0097                     	;# 
   713     0098                     	;# 
   714     0099                     	;# 
   715     009A                     	;# 
   716     009B                     	;# 
   717     009B                     	;# 
   718     009C                     	;# 
   719     009D                     	;# 
   720     009E                     	;# 
   721     009F                     	;# 
   722     010C                     	;# 
   723     010D                     	;# 
   724     010E                     	;# 
   725     0111                     	;# 
   726     0112                     	;# 
   727     0113                     	;# 
   728     0114                     	;# 
   729     0115                     	;# 
   730     0116                     	;# 
   731     0117                     	;# 
   732     0118                     	;# 
   733     0119                     	;# 
   734     011A                     	;# 
   735     011B                     	;# 
   736     011B                     	;# 
   737     011C                     	;# 
   738     018C                     	;# 
   739     018D                     	;# 
   740     018E                     	;# 
   741     0191                     	;# 
   742     0191                     	;# 
   743     0192                     	;# 
   744     0193                     	;# 
   745     0193                     	;# 
   746     0194                     	;# 
   747     0195                     	;# 
   748     0196                     	;# 
   749     0197                     	;# 
   750     0199                     	;# 
   751     0199                     	;# 
   752     0199                     	;# 
   753     019A                     	;# 
   754     019A                     	;# 
   755     019A                     	;# 
   756     019B                     	;# 
   757     019B                     	;# 
   758     019B                     	;# 
   759     019B                     	;# 
   760     019B                     	;# 
   761     019C                     	;# 
   762     019C                     	;# 
   763     019C                     	;# 
   764     019D                     	;# 
   765     019D                     	;# 
   766     019D                     	;# 
   767     019E                     	;# 
   768     019E                     	;# 
   769     019E                     	;# 
   770     019F                     	;# 
   771     019F                     	;# 
   772     019F                     	;# 
   773     019F                     	;# 
   774     019F                     	;# 
   775     020C                     	;# 
   776     020D                     	;# 
   777     020E                     	;# 
   778     0210                     	;# 
   779     0211                     	;# 
   780     0211                     	;# 
   781     0212                     	;# 
   782     0212                     	;# 
   783     0213                     	;# 
   784     0213                     	;# 
   785     0214                     	;# 
   786     0214                     	;# 
   787     0215                     	;# 
   788     0215                     	;# 
   789     0215                     	;# 
   790     0215                     	;# 
   791     0216                     	;# 
   792     0216                     	;# 
   793     0217                     	;# 
   794     0217                     	;# 
   795     028C                     	;# 
   796     028D                     	;# 
   797     028E                     	;# 
   798     0291                     	;# 
   799     0291                     	;# 
   800     0292                     	;# 
   801     0293                     	;# 
   802     0293                     	;# 
   803     0298                     	;# 
   804     0298                     	;# 
   805     0299                     	;# 
   806     029A                     	;# 
   807     029A                     	;# 
   808     029E                     	;# 
   809     030C                     	;# 
   810     030D                     	;# 
   811     030E                     	;# 
   812     038C                     	;# 
   813     038D                     	;# 
   814     038E                     	;# 
   815     0390                     	;# 
   816     0391                     	;# 
   817     0392                     	;# 
   818     0393                     	;# 
   819     0394                     	;# 
   820     0395                     	;# 
   821     0396                     	;# 
   822     0397                     	;# 
   823     0398                     	;# 
   824     0399                     	;# 
   825     039D                     	;# 
   826     039E                     	;# 
   827     039F                     	;# 
   828     0415                     	;# 
   829     0416                     	;# 
   830     0417                     	;# 
   831     041C                     	;# 
   832     041D                     	;# 
   833     041E                     	;# 
   834     0498                     	;# 
   835     0498                     	;# 
   836     0499                     	;# 
   837     049A                     	;# 
   838     049B                     	;# 
   839     049B                     	;# 
   840     049C                     	;# 
   841     049D                     	;# 
   842     049E                     	;# 
   843     049F                     	;# 
   844     0511                     	;# 
   845     0515                     	;# 
   846     0617                     	;# 
   847     0618                     	;# 
   848     0619                     	;# 
   849     0619                     	;# 
   850     061A                     	;# 
   851     061B                     	;# 
   852     061C                     	;# 
   853     061C                     	;# 
   854     0691                     	;# 
   855     0692                     	;# 
   856     0693                     	;# 
   857     0694                     	;# 
   858     0695                     	;# 
   859     0696                     	;# 
   860     0697                     	;# 
   861     0698                     	;# 
   862     0699                     	;# 
   863     069A                     	;# 
   864     069B                     	;# 
   865     069C                     	;# 
   866     069D                     	;# 
   867     069E                     	;# 
   868     069F                     	;# 
   869     0E0F                     	;# 
   870     0E10                     	;# 
   871     0E11                     	;# 
   872     0E12                     	;# 
   873     0E13                     	;# 
   874     0E14                     	;# 
   875     0E15                     	;# 
   876     0E17                     	;# 
   877     0E20                     	;# 
   878     0E21                     	;# 
   879     0E22                     	;# 
   880     0E24                     	;# 
   881     0E25                     	;# 
   882     0E28                     	;# 
   883     0E29                     	;# 
   884     0E2A                     	;# 
   885     0E2B                     	;# 
   886     0E90                     	;# 
   887     0E91                     	;# 
   888     0E92                     	;# 
   889     0E93                     	;# 
   890     0E94                     	;# 
   891     0E95                     	;# 
   892     0E96                     	;# 
   893     0E97                     	;# 
   894     0E98                     	;# 
   895     0E99                     	;# 
   896     0E9A                     	;# 
   897     0E9B                     	;# 
   898     0E9C                     	;# 
   899     0E9D                     	;# 
   900     0E9E                     	;# 
   901     0E9F                     	;# 
   902     0EA0                     	;# 
   903     0EA1                     	;# 
   904     0EA2                     	;# 
   905     0EA3                     	;# 
   906     0EA4                     	;# 
   907     0EA5                     	;# 
   908     0EA6                     	;# 
   909     0EA7                     	;# 
   910     0F0F                     	;# 
   911     0F10                     	;# 
   912     0F11                     	;# 
   913     0F12                     	;# 
   914     0F13                     	;# 
   915     0F14                     	;# 
   916     0F15                     	;# 
   917     0F16                     	;# 
   918     0F17                     	;# 
   919     0F18                     	;# 
   920     0F19                     	;# 
   921     0F1A                     	;# 
   922     0F1B                     	;# 
   923     0F1C                     	;# 
   924     0F1D                     	;# 
   925     0F1E                     	;# 
   926     0F1F                     	;# 
   927     0F20                     	;# 
   928     0F21                     	;# 
   929     0F22                     	;# 
   930     0F23                     	;# 
   931     0F24                     	;# 
   932     0F25                     	;# 
   933     0F26                     	;# 
   934     0F27                     	;# 
   935     0F28                     	;# 
   936     0F29                     	;# 
   937     0F2A                     	;# 
   938     0F2B                     	;# 
   939     0F2C                     	;# 
   940     0F2D                     	;# 
   941     0F2E                     	;# 
   942     0F2F                     	;# 
   943     0F30                     	;# 
   944     0F31                     	;# 
   945     0F32                     	;# 
   946     0F33                     	;# 
   947     0F34                     	;# 
   948     0F35                     	;# 
   949     0F36                     	;# 
   950     0F37                     	;# 
   951     0FE4                     	;# 
   952     0FE5                     	;# 
   953     0FE6                     	;# 
   954     0FE7                     	;# 
   955     0FE8                     	;# 
   956     0FE9                     	;# 
   957     0FEA                     	;# 
   958     0FEB                     	;# 
   959     0FED                     	;# 
   960     0FEE                     	;# 
   961     0FEF                     	;# 
   962     0000                     	;# 
   963     0001                     	;# 
   964     0002                     	;# 
   965     0003                     	;# 
   966     0004                     	;# 
   967     0005                     	;# 
   968     0006                     	;# 
   969     0007                     	;# 
   970     0008                     	;# 
   971     0009                     	;# 
   972     000A                     	;# 
   973     000B                     	;# 
   974     000C                     	;# 
   975     000D                     	;# 
   976     000E                     	;# 
   977     0010                     	;# 
   978     0011                     	;# 
   979     0012                     	;# 
   980     0013                     	;# 
   981     0015                     	;# 
   982     0016                     	;# 
   983     0016                     	;# 
   984     0017                     	;# 
   985     0018                     	;# 
   986     0019                     	;# 
   987     001A                     	;# 
   988     001B                     	;# 
   989     001C                     	;# 
   990     008C                     	;# 
   991     008D                     	;# 
   992     008E                     	;# 
   993     0090                     	;# 
   994     0091                     	;# 
   995     0092                     	;# 
   996     0093                     	;# 
   997     0095                     	;# 
   998     0096                     	;# 
   999     0097                     	;# 
  1000     0098                     	;# 
  1001     0099                     	;# 
  1002     009A                     	;# 
  1003     009B                     	;# 
  1004     009B                     	;# 
  1005     009C                     	;# 
  1006     009D                     	;# 
  1007     009E                     	;# 
  1008     009F                     	;# 
  1009     010C                     	;# 
  1010     010D                     	;# 
  1011     010E                     	;# 
  1012     0111                     	;# 
  1013     0112                     	;# 
  1014     0113                     	;# 
  1015     0114                     	;# 
  1016     0115                     	;# 
  1017     0116                     	;# 
  1018     0117                     	;# 
  1019     0118                     	;# 
  1020     0119                     	;# 
  1021     011A                     	;# 
  1022     011B                     	;# 
  1023     011B                     	;# 
  1024     011C                     	;# 
  1025     018C                     	;# 
  1026     018D                     	;# 
  1027     018E                     	;# 
  1028     0191                     	;# 
  1029     0191                     	;# 
  1030     0192                     	;# 
  1031     0193                     	;# 
  1032     0193                     	;# 
  1033     0194                     	;# 
  1034     0195                     	;# 
  1035     0196                     	;# 
  1036     0197                     	;# 
  1037     0199                     	;# 
  1038     0199                     	;# 
  1039     0199                     	;# 
  1040     019A                     	;# 
  1041     019A                     	;# 
  1042     019A                     	;# 
  1043     019B                     	;# 
  1044     019B                     	;# 
  1045     019B                     	;# 
  1046     019B                     	;# 
  1047     019B                     	;# 
  1048     019C                     	;# 
  1049     019C                     	;# 
  1050     019C                     	;# 
  1051     019D                     	;# 
  1052     019D                     	;# 
  1053     019D                     	;# 
  1054     019E                     	;# 
  1055     019E                     	;# 
  1056     019E                     	;# 
  1057     019F                     	;# 
  1058     019F                     	;# 
  1059     019F                     	;# 
  1060     019F                     	;# 
  1061     019F                     	;# 
  1062     020C                     	;# 
  1063     020D                     	;# 
  1064     020E                     	;# 
  1065     0210                     	;# 
  1066     0211                     	;# 
  1067     0211                     	;# 
  1068     0212                     	;# 
  1069     0212                     	;# 
  1070     0213                     	;# 
  1071     0213                     	;# 
  1072     0214                     	;# 
  1073     0214                     	;# 
  1074     0215                     	;# 
  1075     0215                     	;# 
  1076     0215                     	;# 
  1077     0215                     	;# 
  1078     0216                     	;# 
  1079     0216                     	;# 
  1080     0217                     	;# 
  1081     0217                     	;# 
  1082     028C                     	;# 
  1083     028D                     	;# 
  1084     028E                     	;# 
  1085     0291                     	;# 
  1086     0291                     	;# 
  1087     0292                     	;# 
  1088     0293                     	;# 
  1089     0293                     	;# 
  1090     0298                     	;# 
  1091     0298                     	;# 
  1092     0299                     	;# 
  1093     029A                     	;# 
  1094     029A                     	;# 
  1095     029E                     	;# 
  1096     030C                     	;# 
  1097     030D                     	;# 
  1098     030E                     	;# 
  1099     038C                     	;# 
  1100     038D                     	;# 
  1101     038E                     	;# 
  1102     0390                     	;# 
  1103     0391                     	;# 
  1104     0392                     	;# 
  1105     0393                     	;# 
  1106     0394                     	;# 
  1107     0395                     	;# 
  1108     0396                     	;# 
  1109     0397                     	;# 
  1110     0398                     	;# 
  1111     0399                     	;# 
  1112     039D                     	;# 
  1113     039E                     	;# 
  1114     039F                     	;# 
  1115     0415                     	;# 
  1116     0416                     	;# 
  1117     0417                     	;# 
  1118     041C                     	;# 
  1119     041D                     	;# 
  1120     041E                     	;# 
  1121     0498                     	;# 
  1122     0498                     	;# 
  1123     0499                     	;# 
  1124     049A                     	;# 
  1125     049B                     	;# 
  1126     049B                     	;# 
  1127     049C                     	;# 
  1128     049D                     	;# 
  1129     049E                     	;# 
  1130     049F                     	;# 
  1131     0511                     	;# 
  1132     0515                     	;# 
  1133     0617                     	;# 
  1134     0618                     	;# 
  1135     0619                     	;# 
  1136     0619                     	;# 
  1137     061A                     	;# 
  1138     061B                     	;# 
  1139     061C                     	;# 
  1140     061C                     	;# 
  1141     0691                     	;# 
  1142     0692                     	;# 
  1143     0693                     	;# 
  1144     0694                     	;# 
  1145     0695                     	;# 
  1146     0696                     	;# 
  1147     0697                     	;# 
  1148     0698                     	;# 
  1149     0699                     	;# 
  1150     069A                     	;# 
  1151     069B                     	;# 
  1152     069C                     	;# 
  1153     069D                     	;# 
  1154     069E                     	;# 
  1155     069F                     	;# 
  1156     0E0F                     	;# 
  1157     0E10                     	;# 
  1158     0E11                     	;# 
  1159     0E12                     	;# 
  1160     0E13                     	;# 
  1161     0E14                     	;# 
  1162     0E15                     	;# 
  1163     0E17                     	;# 
  1164     0E20                     	;# 
  1165     0E21                     	;# 
  1166     0E22                     	;# 
  1167     0E24                     	;# 
  1168     0E25                     	;# 
  1169     0E28                     	;# 
  1170     0E29                     	;# 
  1171     0E2A                     	;# 
  1172     0E2B                     	;# 
  1173     0E90                     	;# 
  1174     0E91                     	;# 
  1175     0E92                     	;# 
  1176     0E93                     	;# 
  1177     0E94                     	;# 
  1178     0E95                     	;# 
  1179     0E96                     	;# 
  1180     0E97                     	;# 
  1181     0E98                     	;# 
  1182     0E99                     	;# 
  1183     0E9A                     	;# 
  1184     0E9B                     	;# 
  1185     0E9C                     	;# 
  1186     0E9D                     	;# 
  1187     0E9E                     	;# 
  1188     0E9F                     	;# 
  1189     0EA0                     	;# 
  1190     0EA1                     	;# 
  1191     0EA2                     	;# 
  1192     0EA3                     	;# 
  1193     0EA4                     	;# 
  1194     0EA5                     	;# 
  1195     0EA6                     	;# 
  1196     0EA7                     	;# 
  1197     0F0F                     	;# 
  1198     0F10                     	;# 
  1199     0F11                     	;# 
  1200     0F12                     	;# 
  1201     0F13                     	;# 
  1202     0F14                     	;# 
  1203     0F15                     	;# 
  1204     0F16                     	;# 
  1205     0F17                     	;# 
  1206     0F18                     	;# 
  1207     0F19                     	;# 
  1208     0F1A                     	;# 
  1209     0F1B                     	;# 
  1210     0F1C                     	;# 
  1211     0F1D                     	;# 
  1212     0F1E                     	;# 
  1213     0F1F                     	;# 
  1214     0F20                     	;# 
  1215     0F21                     	;# 
  1216     0F22                     	;# 
  1217     0F23                     	;# 
  1218     0F24                     	;# 
  1219     0F25                     	;# 
  1220     0F26                     	;# 
  1221     0F27                     	;# 
  1222     0F28                     	;# 
  1223     0F29                     	;# 
  1224     0F2A                     	;# 
  1225     0F2B                     	;# 
  1226     0F2C                     	;# 
  1227     0F2D                     	;# 
  1228     0F2E                     	;# 
  1229     0F2F                     	;# 
  1230     0F30                     	;# 
  1231     0F31                     	;# 
  1232     0F32                     	;# 
  1233     0F33                     	;# 
  1234     0F34                     	;# 
  1235     0F35                     	;# 
  1236     0F36                     	;# 
  1237     0F37                     	;# 
  1238     0FE4                     	;# 
  1239     0FE5                     	;# 
  1240     0FE6                     	;# 
  1241     0FE7                     	;# 
  1242     0FE8                     	;# 
  1243     0FE9                     	;# 
  1244     0FEA                     	;# 
  1245     0FEB                     	;# 
  1246     0FED                     	;# 
  1247     0FEE                     	;# 
  1248     0FEF                     	;_screen_buffer
  1249                           
  1250                           	psect	stringtext1
  1251     1000                     __pstringtext1:
  1252     1000                     _BatteryIcon:
  1253     1000  34FF               	retlw	255
  1254     1001  3481               	retlw	129
  1255     1002  34BD               	retlw	189
  1256     1003  34BD               	retlw	189
  1257     1004  34BD               	retlw	189
  1258     1005  3481               	retlw	129
  1259     1006  34FF               	retlw	255
  1260     1007  3418               	retlw	24
  1261     1008  3400               	retlw	0
  1262     1009  3400               	retlw	0
  1263     100A                     __end_of_BatteryIcon:
  1264                           
  1265                           	psect	stringtext2
  1266     0800                     __pstringtext2:
  1267     0800                     _OledFont:
  1268     0800  3400               	retlw	0
  1269     0801  3400               	retlw	0
  1270     0802  3400               	retlw	0
  1271     0803  3400               	retlw	0
  1272     0804  3400               	retlw	0
  1273     0805  3400               	retlw	0
  1274     0806  3400               	retlw	0
  1275     0807  3400               	retlw	0
  1276     0808  3400               	retlw	0
  1277     0809  3400               	retlw	0
  1278     080A  345F               	retlw	95
  1279     080B  3400               	retlw	0
  1280     080C  3400               	retlw	0
  1281     080D  3400               	retlw	0
  1282     080E  3400               	retlw	0
  1283     080F  3400               	retlw	0
  1284     0810  3400               	retlw	0
  1285     0811  3400               	retlw	0
  1286     0812  3407               	retlw	7
  1287     0813  3400               	retlw	0
  1288     0814  3407               	retlw	7
  1289     0815  3400               	retlw	0
  1290     0816  3400               	retlw	0
  1291     0817  3400               	retlw	0
  1292     0818  3400               	retlw	0
  1293     0819  3414               	retlw	20
  1294     081A  347F               	retlw	127
  1295     081B  3414               	retlw	20
  1296     081C  347F               	retlw	127
  1297     081D  3414               	retlw	20
  1298     081E  3400               	retlw	0
  1299     081F  3400               	retlw	0
  1300     0820  3400               	retlw	0
  1301     0821  3424               	retlw	36
  1302     0822  342A               	retlw	42
  1303     0823  347F               	retlw	127
  1304     0824  342A               	retlw	42
  1305     0825  3412               	retlw	18
  1306     0826  3400               	retlw	0
  1307     0827  3400               	retlw	0
  1308     0828  3400               	retlw	0
  1309     0829  3423               	retlw	35
  1310     082A  3413               	retlw	19
  1311     082B  3408               	retlw	8
  1312     082C  3464               	retlw	100
  1313     082D  3462               	retlw	98
  1314     082E  3400               	retlw	0
  1315     082F  3400               	retlw	0
  1316     0830  3400               	retlw	0
  1317     0831  3436               	retlw	54
  1318     0832  3449               	retlw	73
  1319     0833  3455               	retlw	85
  1320     0834  3422               	retlw	34
  1321     0835  3450               	retlw	80
  1322     0836  3400               	retlw	0
  1323     0837  3400               	retlw	0
  1324     0838  3400               	retlw	0
  1325     0839  3400               	retlw	0
  1326     083A  3405               	retlw	5
  1327     083B  3403               	retlw	3
  1328     083C  3400               	retlw	0
  1329     083D  3400               	retlw	0
  1330     083E  3400               	retlw	0
  1331     083F  3400               	retlw	0
  1332     0840  3400               	retlw	0
  1333     0841  341C               	retlw	28
  1334     0842  3422               	retlw	34
  1335     0843  3441               	retlw	65
  1336     0844  3400               	retlw	0
  1337     0845  3400               	retlw	0
  1338     0846  3400               	retlw	0
  1339     0847  3400               	retlw	0
  1340     0848  3400               	retlw	0
  1341     0849  3441               	retlw	65
  1342     084A  3422               	retlw	34
  1343     084B  341C               	retlw	28
  1344     084C  3400               	retlw	0
  1345     084D  3400               	retlw	0
  1346     084E  3400               	retlw	0
  1347     084F  3400               	retlw	0
  1348     0850  3400               	retlw	0
  1349     0851  3408               	retlw	8
  1350     0852  342A               	retlw	42
  1351     0853  341C               	retlw	28
  1352     0854  342A               	retlw	42
  1353     0855  3408               	retlw	8
  1354     0856  3400               	retlw	0
  1355     0857  3400               	retlw	0
  1356     0858  3400               	retlw	0
  1357     0859  3408               	retlw	8
  1358     085A  3408               	retlw	8
  1359     085B  343E               	retlw	62
  1360     085C  3408               	retlw	8
  1361     085D  3408               	retlw	8
  1362     085E  3400               	retlw	0
  1363     085F  3400               	retlw	0
  1364     0860  3400               	retlw	0
  1365     0861  34A0               	retlw	160
  1366     0862  3460               	retlw	96
  1367     0863  3400               	retlw	0
  1368     0864  3400               	retlw	0
  1369     0865  3400               	retlw	0
  1370     0866  3400               	retlw	0
  1371     0867  3400               	retlw	0
  1372     0868  3400               	retlw	0
  1373     0869  3408               	retlw	8
  1374     086A  3408               	retlw	8
  1375     086B  3408               	retlw	8
  1376     086C  3408               	retlw	8
  1377     086D  3408               	retlw	8
  1378     086E  3400               	retlw	0
  1379     086F  3400               	retlw	0
  1380     0870  3400               	retlw	0
  1381     0871  3460               	retlw	96
  1382     0872  3460               	retlw	96
  1383     0873  3400               	retlw	0
  1384     0874  3400               	retlw	0
  1385     0875  3400               	retlw	0
  1386     0876  3400               	retlw	0
  1387     0877  3400               	retlw	0
  1388     0878  3400               	retlw	0
  1389     0879  3420               	retlw	32
  1390     087A  3410               	retlw	16
  1391     087B  3408               	retlw	8
  1392     087C  3404               	retlw	4
  1393     087D  3402               	retlw	2
  1394     087E  3400               	retlw	0
  1395     087F  3400               	retlw	0
  1396     0880  3400               	retlw	0
  1397     0881  343E               	retlw	62
  1398     0882  3451               	retlw	81
  1399     0883  3449               	retlw	73
  1400     0884  3445               	retlw	69
  1401     0885  343E               	retlw	62
  1402     0886  3400               	retlw	0
  1403     0887  3400               	retlw	0
  1404     0888  3400               	retlw	0
  1405     0889  3400               	retlw	0
  1406     088A  3442               	retlw	66
  1407     088B  347F               	retlw	127
  1408     088C  3440               	retlw	64
  1409     088D  3400               	retlw	0
  1410     088E  3400               	retlw	0
  1411     088F  3400               	retlw	0
  1412     0890  3400               	retlw	0
  1413     0891  3462               	retlw	98
  1414     0892  3451               	retlw	81
  1415     0893  3449               	retlw	73
  1416     0894  3449               	retlw	73
  1417     0895  3446               	retlw	70
  1418     0896  3400               	retlw	0
  1419     0897  3400               	retlw	0
  1420     0898  3400               	retlw	0
  1421     0899  3422               	retlw	34
  1422     089A  3441               	retlw	65
  1423     089B  3449               	retlw	73
  1424     089C  3449               	retlw	73
  1425     089D  3436               	retlw	54
  1426     089E  3400               	retlw	0
  1427     089F  3400               	retlw	0
  1428     08A0  3400               	retlw	0
  1429     08A1  3418               	retlw	24
  1430     08A2  3414               	retlw	20
  1431     08A3  3412               	retlw	18
  1432     08A4  347F               	retlw	127
  1433     08A5  3410               	retlw	16
  1434     08A6  3400               	retlw	0
  1435     08A7  3400               	retlw	0
  1436     08A8  3400               	retlw	0
  1437     08A9  3427               	retlw	39
  1438     08AA  3445               	retlw	69
  1439     08AB  3445               	retlw	69
  1440     08AC  3445               	retlw	69
  1441     08AD  3439               	retlw	57
  1442     08AE  3400               	retlw	0
  1443     08AF  3400               	retlw	0
  1444     08B0  3400               	retlw	0
  1445     08B1  343C               	retlw	60
  1446     08B2  344A               	retlw	74
  1447     08B3  3449               	retlw	73
  1448     08B4  3449               	retlw	73
  1449     08B5  3430               	retlw	48
  1450     08B6  3400               	retlw	0
  1451     08B7  3400               	retlw	0
  1452     08B8  3400               	retlw	0
  1453     08B9  3401               	retlw	1
  1454     08BA  3471               	retlw	113
  1455     08BB  3409               	retlw	9
  1456     08BC  3405               	retlw	5
  1457     08BD  3403               	retlw	3
  1458     08BE  3400               	retlw	0
  1459     08BF  3400               	retlw	0
  1460     08C0  3400               	retlw	0
  1461     08C1  3436               	retlw	54
  1462     08C2  3449               	retlw	73
  1463     08C3  3449               	retlw	73
  1464     08C4  3449               	retlw	73
  1465     08C5  3436               	retlw	54
  1466     08C6  3400               	retlw	0
  1467     08C7  3400               	retlw	0
  1468     08C8  3400               	retlw	0
  1469     08C9  3406               	retlw	6
  1470     08CA  3449               	retlw	73
  1471     08CB  3449               	retlw	73
  1472     08CC  3429               	retlw	41
  1473     08CD  341E               	retlw	30
  1474     08CE  3400               	retlw	0
  1475     08CF  3400               	retlw	0
  1476     08D0  3400               	retlw	0
  1477     08D1  3400               	retlw	0
  1478     08D2  3436               	retlw	54
  1479     08D3  3436               	retlw	54
  1480     08D4  3400               	retlw	0
  1481     08D5  3400               	retlw	0
  1482     08D6  3400               	retlw	0
  1483     08D7  3400               	retlw	0
  1484     08D8  3400               	retlw	0
  1485     08D9  3400               	retlw	0
  1486     08DA  34AC               	retlw	172
  1487     08DB  346C               	retlw	108
  1488     08DC  3400               	retlw	0
  1489     08DD  3400               	retlw	0
  1490     08DE  3400               	retlw	0
  1491     08DF  3400               	retlw	0
  1492     08E0  3400               	retlw	0
  1493     08E1  3408               	retlw	8
  1494     08E2  3414               	retlw	20
  1495     08E3  3422               	retlw	34
  1496     08E4  3441               	retlw	65
  1497     08E5  3400               	retlw	0
  1498     08E6  3400               	retlw	0
  1499     08E7  3400               	retlw	0
  1500     08E8  3400               	retlw	0
  1501     08E9  3414               	retlw	20
  1502     08EA  3414               	retlw	20
  1503     08EB  3414               	retlw	20
  1504     08EC  3414               	retlw	20
  1505     08ED  3414               	retlw	20
  1506     08EE  3400               	retlw	0
  1507     08EF  3400               	retlw	0
  1508     08F0  3400               	retlw	0
  1509     08F1  3441               	retlw	65
  1510     08F2  3422               	retlw	34
  1511     08F3  3414               	retlw	20
  1512     08F4  3408               	retlw	8
  1513     08F5  3400               	retlw	0
  1514     08F6  3400               	retlw	0
  1515     08F7  3400               	retlw	0
  1516     08F8  3400               	retlw	0
  1517     08F9  3402               	retlw	2
  1518     08FA  3401               	retlw	1
  1519     08FB  3451               	retlw	81
  1520     08FC  3409               	retlw	9
  1521     08FD  3406               	retlw	6
  1522     08FE  3400               	retlw	0
  1523     08FF  3400               	retlw	0
  1524     0900  3400               	retlw	0
  1525     0901  3432               	retlw	50
  1526     0902  3449               	retlw	73
  1527     0903  3479               	retlw	121
  1528     0904  3441               	retlw	65
  1529     0905  343E               	retlw	62
  1530     0906  3400               	retlw	0
  1531     0907  3400               	retlw	0
  1532     0908  3400               	retlw	0
  1533     0909  347E               	retlw	126
  1534     090A  3409               	retlw	9
  1535     090B  3409               	retlw	9
  1536     090C  3409               	retlw	9
  1537     090D  347E               	retlw	126
  1538     090E  3400               	retlw	0
  1539     090F  3400               	retlw	0
  1540     0910  3400               	retlw	0
  1541     0911  347F               	retlw	127
  1542     0912  3449               	retlw	73
  1543     0913  3449               	retlw	73
  1544     0914  3449               	retlw	73
  1545     0915  3436               	retlw	54
  1546     0916  3400               	retlw	0
  1547     0917  3400               	retlw	0
  1548     0918  3400               	retlw	0
  1549     0919  343E               	retlw	62
  1550     091A  3441               	retlw	65
  1551     091B  3441               	retlw	65
  1552     091C  3441               	retlw	65
  1553     091D  3422               	retlw	34
  1554     091E  3400               	retlw	0
  1555     091F  3400               	retlw	0
  1556     0920  3400               	retlw	0
  1557     0921  347F               	retlw	127
  1558     0922  3441               	retlw	65
  1559     0923  3441               	retlw	65
  1560     0924  3422               	retlw	34
  1561     0925  341C               	retlw	28
  1562     0926  3400               	retlw	0
  1563     0927  3400               	retlw	0
  1564     0928  3400               	retlw	0
  1565     0929  347F               	retlw	127
  1566     092A  3449               	retlw	73
  1567     092B  3449               	retlw	73
  1568     092C  3449               	retlw	73
  1569     092D  3441               	retlw	65
  1570     092E  3400               	retlw	0
  1571     092F  3400               	retlw	0
  1572     0930  3400               	retlw	0
  1573     0931  347F               	retlw	127
  1574     0932  3409               	retlw	9
  1575     0933  3409               	retlw	9
  1576     0934  3409               	retlw	9
  1577     0935  3401               	retlw	1
  1578     0936  3400               	retlw	0
  1579     0937  3400               	retlw	0
  1580     0938  3400               	retlw	0
  1581     0939  343E               	retlw	62
  1582     093A  3441               	retlw	65
  1583     093B  3441               	retlw	65
  1584     093C  3451               	retlw	81
  1585     093D  3472               	retlw	114
  1586     093E  3400               	retlw	0
  1587     093F  3400               	retlw	0
  1588     0940  3400               	retlw	0
  1589     0941  347F               	retlw	127
  1590     0942  3408               	retlw	8
  1591     0943  3408               	retlw	8
  1592     0944  3408               	retlw	8
  1593     0945  347F               	retlw	127
  1594     0946  3400               	retlw	0
  1595     0947  3400               	retlw	0
  1596     0948  3400               	retlw	0
  1597     0949  3441               	retlw	65
  1598     094A  347F               	retlw	127
  1599     094B  3441               	retlw	65
  1600     094C  3400               	retlw	0
  1601     094D  3400               	retlw	0
  1602     094E  3400               	retlw	0
  1603     094F  3400               	retlw	0
  1604     0950  3400               	retlw	0
  1605     0951  3420               	retlw	32
  1606     0952  3440               	retlw	64
  1607     0953  3441               	retlw	65
  1608     0954  343F               	retlw	63
  1609     0955  3401               	retlw	1
  1610     0956  3400               	retlw	0
  1611     0957  3400               	retlw	0
  1612     0958  3400               	retlw	0
  1613     0959  347F               	retlw	127
  1614     095A  3408               	retlw	8
  1615     095B  3414               	retlw	20
  1616     095C  3422               	retlw	34
  1617     095D  3441               	retlw	65
  1618     095E  3400               	retlw	0
  1619     095F  3400               	retlw	0
  1620     0960  3400               	retlw	0
  1621     0961  347F               	retlw	127
  1622     0962  3440               	retlw	64
  1623     0963  3440               	retlw	64
  1624     0964  3440               	retlw	64
  1625     0965  3440               	retlw	64
  1626     0966  3400               	retlw	0
  1627     0967  3400               	retlw	0
  1628     0968  3400               	retlw	0
  1629     0969  347F               	retlw	127
  1630     096A  3402               	retlw	2
  1631     096B  340C               	retlw	12
  1632     096C  3402               	retlw	2
  1633     096D  347F               	retlw	127
  1634     096E  3400               	retlw	0
  1635     096F  3400               	retlw	0
  1636     0970  3400               	retlw	0
  1637     0971  347F               	retlw	127
  1638     0972  3404               	retlw	4
  1639     0973  3408               	retlw	8
  1640     0974  3410               	retlw	16
  1641     0975  347F               	retlw	127
  1642     0976  3400               	retlw	0
  1643     0977  3400               	retlw	0
  1644     0978  3400               	retlw	0
  1645     0979  343E               	retlw	62
  1646     097A  3441               	retlw	65
  1647     097B  3441               	retlw	65
  1648     097C  3441               	retlw	65
  1649     097D  343E               	retlw	62
  1650     097E  3400               	retlw	0
  1651     097F  3400               	retlw	0
  1652     0980  3400               	retlw	0
  1653     0981  347F               	retlw	127
  1654     0982  3409               	retlw	9
  1655     0983  3409               	retlw	9
  1656     0984  3409               	retlw	9
  1657     0985  3406               	retlw	6
  1658     0986  3400               	retlw	0
  1659     0987  3400               	retlw	0
  1660     0988  3400               	retlw	0
  1661     0989  343E               	retlw	62
  1662     098A  3441               	retlw	65
  1663     098B  3451               	retlw	81
  1664     098C  3421               	retlw	33
  1665     098D  345E               	retlw	94
  1666     098E  3400               	retlw	0
  1667     098F  3400               	retlw	0
  1668     0990  3400               	retlw	0
  1669     0991  347F               	retlw	127
  1670     0992  3409               	retlw	9
  1671     0993  3419               	retlw	25
  1672     0994  3429               	retlw	41
  1673     0995  3446               	retlw	70
  1674     0996  3400               	retlw	0
  1675     0997  3400               	retlw	0
  1676     0998  3400               	retlw	0
  1677     0999  3426               	retlw	38
  1678     099A  3449               	retlw	73
  1679     099B  3449               	retlw	73
  1680     099C  3449               	retlw	73
  1681     099D  3432               	retlw	50
  1682     099E  3400               	retlw	0
  1683     099F  3400               	retlw	0
  1684     09A0  3400               	retlw	0
  1685     09A1  3401               	retlw	1
  1686     09A2  3401               	retlw	1
  1687     09A3  347F               	retlw	127
  1688     09A4  3401               	retlw	1
  1689     09A5  3401               	retlw	1
  1690     09A6  3400               	retlw	0
  1691     09A7  3400               	retlw	0
  1692     09A8  3400               	retlw	0
  1693     09A9  343F               	retlw	63
  1694     09AA  3440               	retlw	64
  1695     09AB  3440               	retlw	64
  1696     09AC  3440               	retlw	64
  1697     09AD  343F               	retlw	63
  1698     09AE  3400               	retlw	0
  1699     09AF  3400               	retlw	0
  1700     09B0  3400               	retlw	0
  1701     09B1  341F               	retlw	31
  1702     09B2  3420               	retlw	32
  1703     09B3  3440               	retlw	64
  1704     09B4  3420               	retlw	32
  1705     09B5  341F               	retlw	31
  1706     09B6  3400               	retlw	0
  1707     09B7  3400               	retlw	0
  1708     09B8  3400               	retlw	0
  1709     09B9  343F               	retlw	63
  1710     09BA  3440               	retlw	64
  1711     09BB  3438               	retlw	56
  1712     09BC  3440               	retlw	64
  1713     09BD  343F               	retlw	63
  1714     09BE  3400               	retlw	0
  1715     09BF  3400               	retlw	0
  1716     09C0  3400               	retlw	0
  1717     09C1  3463               	retlw	99
  1718     09C2  3414               	retlw	20
  1719     09C3  3408               	retlw	8
  1720     09C4  3414               	retlw	20
  1721     09C5  3463               	retlw	99
  1722     09C6  3400               	retlw	0
  1723     09C7  3400               	retlw	0
  1724     09C8  3400               	retlw	0
  1725     09C9  3403               	retlw	3
  1726     09CA  3404               	retlw	4
  1727     09CB  3478               	retlw	120
  1728     09CC  3404               	retlw	4
  1729     09CD  3403               	retlw	3
  1730     09CE  3400               	retlw	0
  1731     09CF  3400               	retlw	0
  1732     09D0  3400               	retlw	0
  1733     09D1  3461               	retlw	97
  1734     09D2  3451               	retlw	81
  1735     09D3  3449               	retlw	73
  1736     09D4  3445               	retlw	69
  1737     09D5  3443               	retlw	67
  1738     09D6  3400               	retlw	0
  1739     09D7  3400               	retlw	0
  1740     09D8  3400               	retlw	0
  1741     09D9  347F               	retlw	127
  1742     09DA  3441               	retlw	65
  1743     09DB  3441               	retlw	65
  1744     09DC  3400               	retlw	0
  1745     09DD  3400               	retlw	0
  1746     09DE  3400               	retlw	0
  1747     09DF  3400               	retlw	0
  1748     09E0  3400               	retlw	0
  1749     09E1  3402               	retlw	2
  1750     09E2  3404               	retlw	4
  1751     09E3  3408               	retlw	8
  1752     09E4  3410               	retlw	16
  1753     09E5  3420               	retlw	32
  1754     09E6  3400               	retlw	0
  1755     09E7  3400               	retlw	0
  1756     09E8  3400               	retlw	0
  1757     09E9  3441               	retlw	65
  1758     09EA  3441               	retlw	65
  1759     09EB  347F               	retlw	127
  1760     09EC  3400               	retlw	0
  1761     09ED  3400               	retlw	0
  1762     09EE  3400               	retlw	0
  1763     09EF  3400               	retlw	0
  1764     09F0  3400               	retlw	0
  1765     09F1  3404               	retlw	4
  1766     09F2  3402               	retlw	2
  1767     09F3  3401               	retlw	1
  1768     09F4  3402               	retlw	2
  1769     09F5  3404               	retlw	4
  1770     09F6  3400               	retlw	0
  1771     09F7  3400               	retlw	0
  1772     09F8  3400               	retlw	0
  1773     09F9  3480               	retlw	128
  1774     09FA  3480               	retlw	128
  1775     09FB  3480               	retlw	128
  1776     09FC  3480               	retlw	128
  1777     09FD  3480               	retlw	128
  1778     09FE  3400               	retlw	0
  1779     09FF  3400               	retlw	0
  1780     0A00  3400               	retlw	0
  1781     0A01  3401               	retlw	1
  1782     0A02  3402               	retlw	2
  1783     0A03  3404               	retlw	4
  1784     0A04  3400               	retlw	0
  1785     0A05  3400               	retlw	0
  1786     0A06  3400               	retlw	0
  1787     0A07  3400               	retlw	0
  1788     0A08  3400               	retlw	0
  1789     0A09  3420               	retlw	32
  1790     0A0A  3454               	retlw	84
  1791     0A0B  3454               	retlw	84
  1792     0A0C  3454               	retlw	84
  1793     0A0D  3478               	retlw	120
  1794     0A0E  3400               	retlw	0
  1795     0A0F  3400               	retlw	0
  1796     0A10  3400               	retlw	0
  1797     0A11  347F               	retlw	127
  1798     0A12  3448               	retlw	72
  1799     0A13  3444               	retlw	68
  1800     0A14  3444               	retlw	68
  1801     0A15  3438               	retlw	56
  1802     0A16  3400               	retlw	0
  1803     0A17  3400               	retlw	0
  1804     0A18  3400               	retlw	0
  1805     0A19  3438               	retlw	56
  1806     0A1A  3444               	retlw	68
  1807     0A1B  3444               	retlw	68
  1808     0A1C  3428               	retlw	40
  1809     0A1D  3400               	retlw	0
  1810     0A1E  3400               	retlw	0
  1811     0A1F  3400               	retlw	0
  1812     0A20  3400               	retlw	0
  1813     0A21  3438               	retlw	56
  1814     0A22  3444               	retlw	68
  1815     0A23  3444               	retlw	68
  1816     0A24  3448               	retlw	72
  1817     0A25  347F               	retlw	127
  1818     0A26  3400               	retlw	0
  1819     0A27  3400               	retlw	0
  1820     0A28  3400               	retlw	0
  1821     0A29  3438               	retlw	56
  1822     0A2A  3454               	retlw	84
  1823     0A2B  3454               	retlw	84
  1824     0A2C  3454               	retlw	84
  1825     0A2D  3418               	retlw	24
  1826     0A2E  3400               	retlw	0
  1827     0A2F  3400               	retlw	0
  1828     0A30  3400               	retlw	0
  1829     0A31  3408               	retlw	8
  1830     0A32  347E               	retlw	126
  1831     0A33  3409               	retlw	9
  1832     0A34  3402               	retlw	2
  1833     0A35  3400               	retlw	0
  1834     0A36  3400               	retlw	0
  1835     0A37  3400               	retlw	0
  1836     0A38  3400               	retlw	0
  1837     0A39  3418               	retlw	24
  1838     0A3A  34A4               	retlw	164
  1839     0A3B  34A4               	retlw	164
  1840     0A3C  34A4               	retlw	164
  1841     0A3D  347C               	retlw	124
  1842     0A3E  3400               	retlw	0
  1843     0A3F  3400               	retlw	0
  1844     0A40  3400               	retlw	0
  1845     0A41  347F               	retlw	127
  1846     0A42  3408               	retlw	8
  1847     0A43  3404               	retlw	4
  1848     0A44  3404               	retlw	4
  1849     0A45  3478               	retlw	120
  1850     0A46  3400               	retlw	0
  1851     0A47  3400               	retlw	0
  1852     0A48  3400               	retlw	0
  1853     0A49  3400               	retlw	0
  1854     0A4A  347D               	retlw	125
  1855     0A4B  3400               	retlw	0
  1856     0A4C  3400               	retlw	0
  1857     0A4D  3400               	retlw	0
  1858     0A4E  3400               	retlw	0
  1859     0A4F  3400               	retlw	0
  1860     0A50  3400               	retlw	0
  1861     0A51  3480               	retlw	128
  1862     0A52  3484               	retlw	132
  1863     0A53  347D               	retlw	125
  1864     0A54  3400               	retlw	0
  1865     0A55  3400               	retlw	0
  1866     0A56  3400               	retlw	0
  1867     0A57  3400               	retlw	0
  1868     0A58  3400               	retlw	0
  1869     0A59  347F               	retlw	127
  1870     0A5A  3410               	retlw	16
  1871     0A5B  3428               	retlw	40
  1872     0A5C  3444               	retlw	68
  1873     0A5D  3400               	retlw	0
  1874     0A5E  3400               	retlw	0
  1875     0A5F  3400               	retlw	0
  1876     0A60  3400               	retlw	0
  1877     0A61  3441               	retlw	65
  1878     0A62  347F               	retlw	127
  1879     0A63  3440               	retlw	64
  1880     0A64  3400               	retlw	0
  1881     0A65  3400               	retlw	0
  1882     0A66  3400               	retlw	0
  1883     0A67  3400               	retlw	0
  1884     0A68  3400               	retlw	0
  1885     0A69  347C               	retlw	124
  1886     0A6A  3404               	retlw	4
  1887     0A6B  3418               	retlw	24
  1888     0A6C  3404               	retlw	4
  1889     0A6D  3478               	retlw	120
  1890     0A6E  3400               	retlw	0
  1891     0A6F  3400               	retlw	0
  1892     0A70  3400               	retlw	0
  1893     0A71  347C               	retlw	124
  1894     0A72  3408               	retlw	8
  1895     0A73  3404               	retlw	4
  1896     0A74  347C               	retlw	124
  1897     0A75  3400               	retlw	0
  1898     0A76  3400               	retlw	0
  1899     0A77  3400               	retlw	0
  1900     0A78  3400               	retlw	0
  1901     0A79  3438               	retlw	56
  1902     0A7A  3444               	retlw	68
  1903     0A7B  3444               	retlw	68
  1904     0A7C  3438               	retlw	56
  1905     0A7D  3400               	retlw	0
  1906     0A7E  3400               	retlw	0
  1907     0A7F  3400               	retlw	0
  1908     0A80  3400               	retlw	0
  1909     0A81  34FC               	retlw	252
  1910     0A82  3424               	retlw	36
  1911     0A83  3424               	retlw	36
  1912     0A84  3418               	retlw	24
  1913     0A85  3400               	retlw	0
  1914     0A86  3400               	retlw	0
  1915     0A87  3400               	retlw	0
  1916     0A88  3400               	retlw	0
  1917     0A89  3418               	retlw	24
  1918     0A8A  3424               	retlw	36
  1919     0A8B  3424               	retlw	36
  1920     0A8C  34FC               	retlw	252
  1921     0A8D  3400               	retlw	0
  1922     0A8E  3400               	retlw	0
  1923     0A8F  3400               	retlw	0
  1924     0A90  3400               	retlw	0
  1925     0A91  3400               	retlw	0
  1926     0A92  347C               	retlw	124
  1927     0A93  3408               	retlw	8
  1928     0A94  3404               	retlw	4
  1929     0A95  3400               	retlw	0
  1930     0A96  3400               	retlw	0
  1931     0A97  3400               	retlw	0
  1932     0A98  3400               	retlw	0
  1933     0A99  3448               	retlw	72
  1934     0A9A  3454               	retlw	84
  1935     0A9B  3454               	retlw	84
  1936     0A9C  3424               	retlw	36
  1937     0A9D  3400               	retlw	0
  1938     0A9E  3400               	retlw	0
  1939     0A9F  3400               	retlw	0
  1940     0AA0  3400               	retlw	0
  1941     0AA1  3404               	retlw	4
  1942     0AA2  347F               	retlw	127
  1943     0AA3  3444               	retlw	68
  1944     0AA4  3400               	retlw	0
  1945     0AA5  3400               	retlw	0
  1946     0AA6  3400               	retlw	0
  1947     0AA7  3400               	retlw	0
  1948     0AA8  3400               	retlw	0
  1949     0AA9  343C               	retlw	60
  1950     0AAA  3440               	retlw	64
  1951     0AAB  3440               	retlw	64
  1952     0AAC  347C               	retlw	124
  1953     0AAD  3400               	retlw	0
  1954     0AAE  3400               	retlw	0
  1955     0AAF  3400               	retlw	0
  1956     0AB0  3400               	retlw	0
  1957     0AB1  341C               	retlw	28
  1958     0AB2  3420               	retlw	32
  1959     0AB3  3440               	retlw	64
  1960     0AB4  3420               	retlw	32
  1961     0AB5  341C               	retlw	28
  1962     0AB6  3400               	retlw	0
  1963     0AB7  3400               	retlw	0
  1964     0AB8  3400               	retlw	0
  1965     0AB9  343C               	retlw	60
  1966     0ABA  3440               	retlw	64
  1967     0ABB  3430               	retlw	48
  1968     0ABC  3440               	retlw	64
  1969     0ABD  343C               	retlw	60
  1970     0ABE  3400               	retlw	0
  1971     0ABF  3400               	retlw	0
  1972     0AC0  3400               	retlw	0
  1973     0AC1  3444               	retlw	68
  1974     0AC2  3428               	retlw	40
  1975     0AC3  3410               	retlw	16
  1976     0AC4  3428               	retlw	40
  1977     0AC5  3444               	retlw	68
  1978     0AC6  3400               	retlw	0
  1979     0AC7  3400               	retlw	0
  1980     0AC8  3400               	retlw	0
  1981     0AC9  341C               	retlw	28
  1982     0ACA  34A0               	retlw	160
  1983     0ACB  34A0               	retlw	160
  1984     0ACC  347C               	retlw	124
  1985     0ACD  3400               	retlw	0
  1986     0ACE  3400               	retlw	0
  1987     0ACF  3400               	retlw	0
  1988     0AD0  3400               	retlw	0
  1989     0AD1  3444               	retlw	68
  1990     0AD2  3464               	retlw	100
  1991     0AD3  3454               	retlw	84
  1992     0AD4  344C               	retlw	76
  1993     0AD5  3444               	retlw	68
  1994     0AD6  3400               	retlw	0
  1995     0AD7  3400               	retlw	0
  1996     0AD8  3400               	retlw	0
  1997     0AD9  3408               	retlw	8
  1998     0ADA  3436               	retlw	54
  1999     0ADB  3441               	retlw	65
  2000     0ADC  3400               	retlw	0
  2001     0ADD  3400               	retlw	0
  2002     0ADE  3400               	retlw	0
  2003     0ADF  3400               	retlw	0
  2004     0AE0  3400               	retlw	0
  2005     0AE1  3400               	retlw	0
  2006     0AE2  347F               	retlw	127
  2007     0AE3  3400               	retlw	0
  2008     0AE4  3400               	retlw	0
  2009     0AE5  3400               	retlw	0
  2010     0AE6  3400               	retlw	0
  2011     0AE7  3400               	retlw	0
  2012     0AE8  3400               	retlw	0
  2013     0AE9  3441               	retlw	65
  2014     0AEA  3436               	retlw	54
  2015     0AEB  3408               	retlw	8
  2016     0AEC  3400               	retlw	0
  2017     0AED  3400               	retlw	0
  2018     0AEE  3400               	retlw	0
  2019     0AEF  3400               	retlw	0
  2020     0AF0  3400               	retlw	0
  2021     0AF1  3402               	retlw	2
  2022     0AF2  3401               	retlw	1
  2023     0AF3  3401               	retlw	1
  2024     0AF4  3402               	retlw	2
  2025     0AF5  3401               	retlw	1
  2026     0AF6  3400               	retlw	0
  2027     0AF7  3400               	retlw	0
  2028     0AF8  3400               	retlw	0
  2029     0AF9  3402               	retlw	2
  2030     0AFA  3405               	retlw	5
  2031     0AFB  3405               	retlw	5
  2032     0AFC  3402               	retlw	2
  2033     0AFD  3400               	retlw	0
  2034     0AFE  3400               	retlw	0
  2035     0AFF  3400               	retlw	0
  2036     0B00                     __end_of_OledFont:
  2037     0012                     _PIR2bits	set	18
  2038     0011                     _PIR1bits	set	17
  2039     008E                     _TRISCbits	set	142
  2040     009E                     _ADCON1bits	set	158
  2041     008D                     _TRISBbits	set	141
  2042     008C                     _TRISAbits	set	140
  2043     009B                     _ADRESL	set	155
  2044     009C                     _ADRESH	set	156
  2045     009D                     _ADCON0bits	set	157
  2046     04CF                     _SPLLEN	set	1231
  2047     04CE                     _IRCF3	set	1230
  2048     04CD                     _IRCF2	set	1229
  2049     04CC                     _IRCF1	set	1228
  2050     04CB                     _IRCF0	set	1227
  2051     04C9                     _SCS1	set	1225
  2052     04C8                     _SCS0	set	1224
  2053     018E                     _ANSELCbits	set	398
  2054     018D                     _ANSELBbits	set	397
  2055     018C                     _ANSELAbits	set	396
  2056     0211                     _SSPBUF	set	529
  2057     0216                     _SSPCON2bits	set	534
  2058     0214                     _SSPSTATbits	set	532
  2059     0216                     _SSPCON2	set	534
  2060     0215                     _SSPCON1bits	set	533
  2061     0212                     _SSPADD	set	530
  2062     0215                     _SSPCONbits	set	533
  2063     0E20                     _SSPCLKPPSbits	set	3616
  2064     0E21                     _SSPDATPPSbits	set	3617
  2065     0E24                     _RXPPSbits	set	3620
  2066     0E0F                     _PPSLOCKbits	set	3599
  2067     0E0F                     _PPSLOCK	set	3599
  2068     0EA5                     _RC5PPSbits	set	3749
  2069     0EA4                     _RC4PPSbits	set	3748
  2070     0E9A                     _RB2PPSbits	set	3738
  2071     0B00                     STR_1:
  2072     0B00  344C               	retlw	76	;'L'
  2073     0B01  3469               	retlw	105	;'i'
  2074     0B02  3467               	retlw	103	;'g'
  2075     0B03  3468               	retlw	104	;'h'
  2076     0B04  3474               	retlw	116	;'t'
  2077     0B05  343A               	retlw	58	;':'
  2078     0B06  3420               	retlw	32	;' '
  2079     0B07  3425               	retlw	37	;'%'
  2080     0B08  3475               	retlw	117	;'u'
  2081     0B09  3400               	retlw	0
  2082                           
  2083                           	psect	stringtext3
  2084     100A                     __pstringtext3:
  2085     100A                     STR_3:
  2086     100A  344C               	retlw	76	;'L'
  2087     100B  3449               	retlw	73	;'I'
  2088     100C  3447               	retlw	71	;'G'
  2089     100D  3448               	retlw	72	;'H'
  2090     100E  3454               	retlw	84	;'T'
  2091     100F  3400               	retlw	0
  2092                           
  2093                           	psect	stringtext4
  2094     1010                     __pstringtext4:
  2095     1010                     STR_2:
  2096     1010  3444               	retlw	68	;'D'
  2097     1011  3441               	retlw	65	;'A'
  2098     1012  3452               	retlw	82	;'R'
  2099     1013  344B               	retlw	75	;'K'
  2100     1014  3400               	retlw	0
  2101                           
  2102                           	psect	stringtext5
  2103     0000                     __pstringtext5:
  2104                           
  2105                           	psect	cinit
  2106     07EE                     start_initialization:	
  2107                           ; #config settings
  2108                           
  2109     07EE                     __initialization:	;BIGRAM
  2110                           
  2111                           ; Clear objects allocated to BIGRAM
  2112     07EE  30F0               	movlw	low (0+9456)
  2113     07EF  0084               	movwf	4
  2114     07F0  3024               	movlw	high (0+9456)
  2115     07F1  0085               	movwf	5
  2116     07F2  3000               	movlw	0
  2117     07F3  00FE               	movwf	btemp
  2118     07F4  3003               	movlw	3
  2119     07F5  00FF               	movwf	btemp+1
  2120     07F6  318B  23F3  3187   	fcall	clear_ram0
  2121                           
  2122                           ; Clear objects allocated to BANK1
  2123     07F9  0021               	movlb	1	; select bank1
  2124     07FA  01D2               	clrf	__pbssBANK1& (0+127)
  2125     07FB  01D3               	clrf	(__pbssBANK1+1)& (0+127)
  2126     07FC  01D4               	clrf	(__pbssBANK1+2)& (0+127)
  2127     07FD                     end_of_initialization:	
  2128                           ;End of C runtime variable initialization code
  2129                           
  2130     07FD                     __end_of__initialization:
  2131     07FD  0020               	movlb	0
  2132     07FE  3183  2B3D         	ljmp	_main	;jump to C main() function
  2133                           
  2134                           	psect	bssBANK1
  2135     00D2                     __pbssBANK1:
  2136     00D2                     main@filt:
  2137     00D2                     	ds	2
  2138     00D4                     main@isDark:
  2139     00D4                     	ds	1
  2140                           
  2141                           	psect	clrtext
  2142     0BF3                     clear_ram0:	
  2143                           ;	Called with FSR0 containing the base address, and
  2144                           ;	btemp/btemp+1 has the size to clear
  2145                           
  2146     0BF3  0064               	clrwdt	;clear the watchdog before getting into this loop
  2147     0BF4                     clrloop0:
  2148     0BF4  0180               	clrf	0	;clear RAM location pointed to by FSR
  2149     0BF5  3101               	addfsr 0,1
  2150     0BF6  3001               	movlw	1
  2151     0BF7  02FE               	subwf	btemp,f
  2152     0BF8  3000               	movlw	0
  2153     0BF9  3BFF               	subwfb	btemp+1,f
  2154     0BFA  087F               	movf	btemp+1,w
  2155     0BFB  047E               	iorwf	btemp,w
  2156     0BFC  1D03               	skipz
  2157     0BFD  2BF4               	goto	clrloop0	;have we reached the end yet?
  2158     0BFE  3400               	retlw	0	;all done for this memory range, return
  2159                           
  2160                           	psect	cstackBANK1
  2161     00A0                     __pcstackBANK1:
  2162     00A0                     OLED_Printf_Line@temp:
  2163                           
  2164                           ; 6 bytes @ 0x0
  2165     00A0                     	ds	6
  2166     00A6                     OLED_Printf_Line@temp_357:
  2167                           
  2168                           ; 6 bytes @ 0x6
  2169     00A6                     	ds	6
  2170     00AC                     OLED_Printf_Line@temp_360:
  2171                           
  2172                           ; 5 bytes @ 0xC
  2173     00AC                     	ds	5
  2174     00B1                     OLED_Printf_Line@str:
  2175                           
  2176                           ; 1 bytes @ 0x11
  2177     00B1                     	ds	1
  2178     00B2                     OLED_Printf_Line@col:
  2179                           
  2180                           ; 1 bytes @ 0x12
  2181     00B2                     	ds	1
  2182     00B3                     OLED_Printf_Line@p:
  2183                           
  2184                           ; 1 bytes @ 0x13
  2185     00B3                     	ds	1
  2186     00B4                     OLED_Printf_Line@val_350:
  2187                           
  2188                           ; 4 bytes @ 0x14
  2189     00B4                     	ds	4
  2190     00B8                     OLED_Printf_Line@val_356:
  2191                           
  2192                           ; 2 bytes @ 0x18
  2193     00B8                     	ds	2
  2194     00BA                     OLED_Printf_Line@nibble:
  2195                           
  2196                           ; 1 bytes @ 0x1A
  2197     00BA                     	ds	1
  2198     00BB                     OLED_Printf_Line@ch:
  2199                           
  2200                           ; 1 bytes @ 0x1B
  2201     00BB                     	ds	1
  2202     00BC                     OLED_Printf_Line@i:
  2203                           
  2204                           ; 1 bytes @ 0x1C
  2205     00BC                     	ds	1
  2206     00BD                     OLED_Printf_Line@i_352:
  2207                           
  2208                           ; 1 bytes @ 0x1D
  2209     00BD                     	ds	1
  2210     00BE                     OLED_Printf_Line@i_355:
  2211                           
  2212                           ; 1 bytes @ 0x1E
  2213     00BE                     	ds	1
  2214     00BF                     OLED_Printf_Line@i_358:
  2215                           
  2216                           ; 1 bytes @ 0x1F
  2217     00BF                     	ds	1
  2218     00C0                     OLED_Printf_Line@i_361:
  2219                           
  2220                           ; 1 bytes @ 0x20
  2221     00C0                     	ds	1
  2222     00C1                     OLED_Printf_Line@val_353:
  2223                           
  2224                           ; 4 bytes @ 0x21
  2225     00C1                     	ds	4
  2226     00C5                     OLED_Printf_Line@val:
  2227                           
  2228                           ; 2 bytes @ 0x25
  2229     00C5                     	ds	2
  2230     00C7                     OLED_Printf_Line@line:
  2231                           
  2232                           ; 1 bytes @ 0x27
  2233     00C7                     	ds	1
  2234     00C8                     OLED_Printf_Line@ap:
  2235                           
  2236                           ; 1 bytes @ 0x28
  2237     00C8                     	ds	1
  2238     00C9                     OLED_Printf_Line@src:
  2239                           
  2240                           ; 2 bytes @ 0x29
  2241     00C9                     	ds	2
  2242     00CB                     OLED_Printf_Line@dst:
  2243                           
  2244                           ; 1 bytes @ 0x2B
  2245     00CB                     	ds	1
  2246     00CC                     ??_main:
  2247                           
  2248                           ; 1 bytes @ 0x2C
  2249     00CC                     	ds	2
  2250     00CE                     main@adc:
  2251                           
  2252                           ; 2 bytes @ 0x2E
  2253     00CE                     	ds	2
  2254     00D0                     _main$731:
  2255                           
  2256                           ; 2 bytes @ 0x30
  2257     00D0                     	ds	2
  2258                           
  2259                           	psect	cstackCOMMON
  2260     0070                     __pcstackCOMMON:
  2261     0070                     ?_I2C_ClearErrors:
  2262     0070                     ??_I2C_ClearErrors:	
  2263                           ; 1 bytes @ 0x0
  2264                           
  2265     0070                     ?_OLED_Clear:	
  2266                           ; 1 bytes @ 0x0
  2267                           
  2268     0070                     ?_I2C_WaitIF:	
  2269                           ; 1 bytes @ 0x0
  2270                           
  2271     0070                     ?_I2C_Init:	
  2272                           ; 1 bytes @ 0x0
  2273                           
  2274     0070                     ??_I2C_Init:	
  2275                           ; 1 bytes @ 0x0
  2276                           
  2277     0070                     ?_I2C_WaitIdle:	
  2278                           ; 1 bytes @ 0x0
  2279                           
  2280     0070                     ?_I2C_Start:	
  2281                           ; 1 bytes @ 0x0
  2282                           
  2283     0070                     ?_I2C_Stop:	
  2284                           ; 1 bytes @ 0x0
  2285                           
  2286     0070                     ?_I2C_WriteByte:	
  2287                           ; 1 bytes @ 0x0
  2288                           
  2289     0070                     ?_SSD1306_CtrlW:	
  2290                           ; 1 bytes @ 0x0
  2291                           
  2292     0070                     ??_SSD1306_CtrlW:	
  2293                           ; 1 bytes @ 0x0
  2294                           
  2295     0070                     ?_OLED_Command:	
  2296                           ; 1 bytes @ 0x0
  2297                           
  2298     0070                     ?_OLED_SetOrientation:	
  2299                           ; 1 bytes @ 0x0
  2300                           
  2301     0070                     ?_OLED_Init:	
  2302                           ; 1 bytes @ 0x0
  2303                           
  2304     0070                     ?_OLED_UpdateLine:	
  2305                           ; 1 bytes @ 0x0
  2306                           
  2307     0070                     ?_internal_32:	
  2308                           ; 1 bytes @ 0x0
  2309                           
  2310     0070                     ??_internal_32:	
  2311                           ; 1 bytes @ 0x0
  2312                           
  2313     0070                     ?_ADC_ConfigurePin:	
  2314                           ; 1 bytes @ 0x0
  2315                           
  2316     0070                     ??_ADC_ConfigurePin:	
  2317                           ; 1 bytes @ 0x0
  2318                           
  2319     0070                     ?_ADC_Init:	
  2320                           ; 1 bytes @ 0x0
  2321                           
  2322     0070                     ??_ADC_Init:	
  2323                           ; 1 bytes @ 0x0
  2324                           
  2325     0070                     ?_initMain:	
  2326                           ; 1 bytes @ 0x0
  2327                           
  2328     0070                     ?_main:	
  2329                           ; 1 bytes @ 0x0
  2330                           
  2331     0070                     ?_memset:	
  2332                           ; 1 bytes @ 0x0
  2333                           
  2334     0070                     ?_strcmp:	
  2335                           ; 2 bytes @ 0x0
  2336                           
  2337     0070                     ?_strcpy:	
  2338                           ; 2 bytes @ 0x0
  2339                           
  2340     0070                     ?_memcpy:	
  2341                           ; 2 bytes @ 0x0
  2342                           
  2343     0070                     ?___wmul:	
  2344                           ; 2 bytes @ 0x0
  2345                           
  2346     0070                     ?___awdiv:	
  2347                           ; 2 bytes @ 0x0
  2348                           
  2349     0070                     ?___awmod:	
  2350                           ; 2 bytes @ 0x0
  2351                           
  2352     0070                     ?___lwdiv:	
  2353                           ; 2 bytes @ 0x0
  2354                           
  2355     0070                     ?___lwmod:	
  2356                           ; 2 bytes @ 0x0
  2357                           
  2358     0070                     ?___lldiv:	
  2359                           ; 2 bytes @ 0x0
  2360                           
  2361     0070                     ?___aldiv:	
  2362                           ; 4 bytes @ 0x0
  2363                           
  2364     0070                     ?___almod:	
  2365                           ; 4 bytes @ 0x0
  2366                           
  2367     0070                     ?___llmod:	
  2368                           ; 4 bytes @ 0x0
  2369                           
  2370     0070                     I2C_WaitIF@timeout_ms:	
  2371                           ; 4 bytes @ 0x0
  2372                           
  2373     0070                     I2C_WaitIdle@timeout_ms:	
  2374                           ; 2 bytes @ 0x0
  2375                           
  2376     0070                     ___wmul@multiplier:	
  2377                           ; 2 bytes @ 0x0
  2378                           
  2379     0070                     ___awdiv@divisor:	
  2380                           ; 2 bytes @ 0x0
  2381                           
  2382     0070                     ___awmod@divisor:	
  2383                           ; 2 bytes @ 0x0
  2384                           
  2385     0070                     ___lwdiv@divisor:	
  2386                           ; 2 bytes @ 0x0
  2387                           
  2388     0070                     ___lwmod@divisor:	
  2389                           ; 2 bytes @ 0x0
  2390                           
  2391     0070                     memcpy@d1:	
  2392                           ; 2 bytes @ 0x0
  2393                           
  2394     0070                     memset@dest:	
  2395                           ; 2 bytes @ 0x0
  2396                           
  2397     0070                     strcmp@r:	
  2398                           ; 2 bytes @ 0x0
  2399                           
  2400     0070                     strcpy@dest:	
  2401                           ; 2 bytes @ 0x0
  2402                           
  2403     0070                     ___lldiv@divisor:	
  2404                           ; 2 bytes @ 0x0
  2405                           
  2406     0070                     ___aldiv@divisor:	
  2407                           ; 4 bytes @ 0x0
  2408                           
  2409     0070                     ___almod@divisor:	
  2410                           ; 4 bytes @ 0x0
  2411                           
  2412     0070                     ___llmod@divisor:	
  2413                           ; 4 bytes @ 0x0
  2414                           
  2415                           
  2416                           ; 4 bytes @ 0x0
  2417     0070                     	ds	2
  2418     0072                     ??_strcmp:
  2419     0072                     ??_I2C_WaitIF:	
  2420                           ; 1 bytes @ 0x2
  2421                           
  2422     0072                     ??_I2C_WaitIdle:	
  2423                           ; 1 bytes @ 0x2
  2424                           
  2425     0072                     ADC_ConfigurePin@channel:	
  2426                           ; 1 bytes @ 0x2
  2427                           
  2428     0072                     strcpy@src:	
  2429                           ; 1 bytes @ 0x2
  2430                           
  2431     0072                     ___wmul@multiplicand:	
  2432                           ; 1 bytes @ 0x2
  2433                           
  2434     0072                     ___awdiv@dividend:	
  2435                           ; 2 bytes @ 0x2
  2436                           
  2437     0072                     ___awmod@dividend:	
  2438                           ; 2 bytes @ 0x2
  2439                           
  2440     0072                     ___lwdiv@dividend:	
  2441                           ; 2 bytes @ 0x2
  2442                           
  2443     0072                     ___lwmod@dividend:	
  2444                           ; 2 bytes @ 0x2
  2445                           
  2446     0072                     memcpy@s1:	
  2447                           ; 2 bytes @ 0x2
  2448                           
  2449     0072                     memset@c:	
  2450                           ; 2 bytes @ 0x2
  2451                           
  2452                           
  2453                           ; 2 bytes @ 0x2
  2454     0072                     	ds	1
  2455     0073                     ??_strcpy:
  2456     0073                     ??_I2C_Start:	
  2457                           ; 1 bytes @ 0x3
  2458                           
  2459     0073                     ??_I2C_Stop:	
  2460                           ; 1 bytes @ 0x3
  2461                           
  2462     0073                     ??_I2C_WriteByte:	
  2463                           ; 1 bytes @ 0x3
  2464                           
  2465     0073                     ??_initMain:	
  2466                           ; 1 bytes @ 0x3
  2467                           
  2468     0073                     I2C_Start@st:	
  2469                           ; 1 bytes @ 0x3
  2470                           
  2471     0073                     I2C_Stop@st:	
  2472                           ; 1 bytes @ 0x3
  2473                           
  2474     0073                     I2C_WriteByte@data:	
  2475                           ; 1 bytes @ 0x3
  2476                           
  2477     0073                     strcmp@l:	
  2478                           ; 1 bytes @ 0x3
  2479                           
  2480                           
  2481                           ; 1 bytes @ 0x3
  2482     0073                     	ds	1
  2483     0074                     ??___wmul:
  2484     0074                     ??___awdiv:	
  2485                           ; 1 bytes @ 0x4
  2486                           
  2487     0074                     ??___awmod:	
  2488                           ; 1 bytes @ 0x4
  2489                           
  2490     0074                     ??___lwdiv:	
  2491                           ; 1 bytes @ 0x4
  2492                           
  2493     0074                     ??___lwmod:	
  2494                           ; 1 bytes @ 0x4
  2495                           
  2496     0074                     I2C_WriteByte@st:	
  2497                           ; 1 bytes @ 0x4
  2498                           
  2499     0074                     ___wmul@product:	
  2500                           ; 1 bytes @ 0x4
  2501                           
  2502     0074                     memcpy@n:	
  2503                           ; 2 bytes @ 0x4
  2504                           
  2505     0074                     memset@n:	
  2506                           ; 2 bytes @ 0x4
  2507                           
  2508     0074                     ___lldiv@dividend:	
  2509                           ; 2 bytes @ 0x4
  2510                           
  2511     0074                     ___aldiv@dividend:	
  2512                           ; 4 bytes @ 0x4
  2513                           
  2514     0074                     ___almod@dividend:	
  2515                           ; 4 bytes @ 0x4
  2516                           
  2517     0074                     ___llmod@dividend:	
  2518                           ; 4 bytes @ 0x4
  2519                           
  2520                           
  2521                           ; 4 bytes @ 0x4
  2522     0074                     	ds	1
  2523     0075                     ??_OLED_Command:
  2524     0075                     ?_OLED_WriteData:	
  2525                           ; 1 bytes @ 0x5
  2526                           
  2527     0075                     OLED_Command@cmd:	
  2528                           ; 1 bytes @ 0x5
  2529                           
  2530     0075                     ___awdiv@counter:	
  2531                           ; 1 bytes @ 0x5
  2532                           
  2533     0075                     ___awmod@counter:	
  2534                           ; 1 bytes @ 0x5
  2535                           
  2536     0075                     ___lwmod@counter:	
  2537                           ; 1 bytes @ 0x5
  2538                           
  2539     0075                     OLED_WriteData@data:	
  2540                           ; 1 bytes @ 0x5
  2541                           
  2542     0075                     ___lwdiv@quotient:	
  2543                           ; 2 bytes @ 0x5
  2544                           
  2545     0075                     strcpy@d:	
  2546                           ; 2 bytes @ 0x5
  2547                           
  2548                           
  2549                           ; 2 bytes @ 0x5
  2550     0075                     	ds	1
  2551     0076                     ??_memset:
  2552     0076                     ??_memcpy:	
  2553                           ; 1 bytes @ 0x6
  2554                           
  2555     0076                     OLED_Command@st:	
  2556                           ; 1 bytes @ 0x6
  2557                           
  2558     0076                     ___awdiv@sign:	
  2559                           ; 1 bytes @ 0x6
  2560                           
  2561     0076                     ___awmod@sign:	
  2562                           ; 1 bytes @ 0x6
  2563                           
  2564     0076                     memcpy@d:	
  2565                           ; 1 bytes @ 0x6
  2566                           
  2567     0076                     memset@p:	
  2568                           ; 2 bytes @ 0x6
  2569                           
  2570                           
  2571                           ; 2 bytes @ 0x6
  2572     0076                     	ds	1
  2573     0077                     ??_OLED_SetOrientation:
  2574     0077                     ?_OLED_YX:	
  2575                           ; 1 bytes @ 0x7
  2576                           
  2577     0077                     OLED_YX@col_char:	
  2578                           ; 1 bytes @ 0x7
  2579                           
  2580     0077                     ___lwdiv@counter:	
  2581                           ; 1 bytes @ 0x7
  2582                           
  2583     0077                     OLED_WriteData@len:	
  2584                           ; 1 bytes @ 0x7
  2585                           
  2586     0077                     ___awdiv@quotient:	
  2587                           ; 2 bytes @ 0x7
  2588                           
  2589                           
  2590                           ; 2 bytes @ 0x7
  2591     0077                     	ds	1
  2592     0078                     ??_OLED_YX:
  2593     0078                     ??___lldiv:	
  2594                           ; 1 bytes @ 0x8
  2595                           
  2596     0078                     ??___aldiv:	
  2597                           ; 1 bytes @ 0x8
  2598                           
  2599     0078                     ??___almod:	
  2600                           ; 1 bytes @ 0x8
  2601                           
  2602     0078                     ??___llmod:	
  2603                           ; 1 bytes @ 0x8
  2604                           
  2605     0078                     memcpy@s:	
  2606                           ; 1 bytes @ 0x8
  2607                           
  2608                           
  2609                           ; 2 bytes @ 0x8
  2610     0078                     	ds	1
  2611     0079                     ??_OLED_WriteData:
  2612     0079                     OLED_SetOrientation@o:	
  2613                           ; 1 bytes @ 0x9
  2614                           
  2615     0079                     OLED_YX@page:	
  2616                           ; 1 bytes @ 0x9
  2617                           
  2618     0079                     ___almod@counter:	
  2619                           ; 1 bytes @ 0x9
  2620                           
  2621     0079                     ___llmod@counter:	
  2622                           ; 1 bytes @ 0x9
  2623                           
  2624     0079                     OLED_WriteData@i:	
  2625                           ; 1 bytes @ 0x9
  2626                           
  2627     0079                     ___lldiv@quotient:	
  2628                           ; 2 bytes @ 0x9
  2629                           
  2630                           
  2631                           ; 4 bytes @ 0x9
  2632     0079                     	ds	1
  2633     007A                     OLED_YX@col:
  2634     007A                     ___almod@sign:	
  2635                           ; 1 bytes @ 0xA
  2636                           
  2637     007A                     memcpy@tmp:	
  2638                           ; 1 bytes @ 0xA
  2639                           
  2640                           
  2641                           ; 1 bytes @ 0xA
  2642     007A                     	ds	1
  2643     007B                     OLED_WriteData@st:
  2644                           
  2645                           ; 1 bytes @ 0xB
  2646     007B                     	ds	1
  2647     007C                     OLED_Clear@p:
  2648     007C                     OLED_UpdateLine@page:	
  2649                           ; 1 bytes @ 0xC
  2650                           
  2651                           
  2652                           ; 1 bytes @ 0xC
  2653     007C                     	ds	1
  2654     007D                     ??_OLED_Init:
  2655     007D                     ___lldiv@counter:	
  2656                           ; 1 bytes @ 0xD
  2657                           
  2658                           
  2659                           ; 1 bytes @ 0xD
  2660     007D                     	ds	1
  2661                           
  2662                           	psect	cstackBANK0
  2663     0020                     __pcstackBANK0:
  2664     0020                     ??_OLED_Clear:
  2665     0020                     ??_OLED_UpdateLine:	
  2666                           ; 1 bytes @ 0x0
  2667                           
  2668     0020                     ?_ADC_Read_Averaged:	
  2669                           ; 1 bytes @ 0x0
  2670                           
  2671     0020                     ADC_Read_Averaged@samples:	
  2672                           ; 2 bytes @ 0x0
  2673                           
  2674     0020                     ___aldiv@counter:	
  2675                           ; 1 bytes @ 0x0
  2676                           
  2677                           
  2678                           ; 1 bytes @ 0x0
  2679     0020                     	ds	1
  2680     0021                     ___aldiv@sign:
  2681                           
  2682                           ; 1 bytes @ 0x1
  2683     0021                     	ds	1
  2684     0022                     ??_ADC_Read_Averaged:
  2685     0022                     ___aldiv@quotient:	
  2686                           ; 1 bytes @ 0x2
  2687                           
  2688                           
  2689                           ; 4 bytes @ 0x2
  2690     0022                     	ds	4
  2691     0026                     ?_OLED_Printf_Line:
  2692     0026                     ADC_Read_Averaged@channel:	
  2693                           ; 1 bytes @ 0x6
  2694                           
  2695     0026                     OLED_Printf_Line@fmt:	
  2696                           ; 1 bytes @ 0x6
  2697                           
  2698                           
  2699                           ; 2 bytes @ 0x6
  2700     0026                     	ds	1
  2701     0027                     ADC_Read_Averaged@sum:
  2702                           
  2703                           ; 4 bytes @ 0x7
  2704     0027                     	ds	3
  2705     002A                     ??_OLED_Printf_Line:
  2706                           
  2707                           ; 1 bytes @ 0xA
  2708     002A                     	ds	1
  2709     002B                     ADC_Read_Averaged@i:
  2710                           
  2711                           ; 1 bytes @ 0xB
  2712     002B                     	ds	11
  2713     0036                     OLED_Printf_Line@temp_351:
  2714                           
  2715                           ; 11 bytes @ 0x16
  2716     0036                     	ds	11
  2717     0041                     OLED_Printf_Line@temp_354:
  2718                           
  2719                           ; 11 bytes @ 0x21
  2720     0041                     	ds	11
  2721     004C                     OLED_Printf_Line@buf:
  2722                           
  2723                           ; 32 bytes @ 0x2C
  2724     004C                     	ds	32
  2725     006C                     _OLED_Printf_Line$363:
  2726                           
  2727                           ; 2 bytes @ 0x4C
  2728     006C                     	ds	2
  2729     006E                     OLED_Printf_Line@val_359:
  2730                           
  2731                           ; 2 bytes @ 0x4E
  2732     006E                     	ds	2
  2733                           
  2734                           	psect	maintext
  2735     033D                     __pmaintext:	
  2736 ;;
  2737 ;;Main: autosize = 0, tempsize = 2, incstack = 0, save=0
  2738 ;;
  2739 ;; *************** function _main *****************
  2740 ;; Defined at:
  2741 ;;		line 106 in file "main.c"
  2742 ;; Parameters:    Size  Location     Type
  2743 ;;		None
  2744 ;; Auto vars:     Size  Location     Type
  2745 ;;  adc             2   46[BANK1 ] unsigned short 
  2746 ;; Return value:  Size  Location     Type
  2747 ;;                  1    wreg      void 
  2748 ;; Registers used:
  2749 ;;		wreg, fsr0l, fsr0h, fsr1l, fsr1h, status,2, status,0, pclath, cstack
  2750 ;; Tracked objects:
  2751 ;;		On entry : B1F/0
  2752 ;;		On exit  : 0/0
  2753 ;;		Unchanged: 0/0
  2754 ;; Data sizes:     COMMON   BANK0   BANK1   BANK2   BANK3   BANK4   BANK5   BANK6   BANK7   BANK8   BANK9  BANK10  BANK1
      +1  BANK12  BANK13  BANK14  BANK15  BANK16  BANK17  BANK18  BANK19  BANK20  BANK21  BANK22  BANK23  BANK24  BANK25
  2755 ;;      Params:         0       0       0       0       0       0       0       0       0       0       0       0       
      +0       0       0       0       0       0       0       0       0       0       0       0       0       0       0
  2756 ;;      Locals:         0       0       4       0       0       0       0       0       0       0       0       0       
      +0       0       0       0       0       0       0       0       0       0       0       0       0       0       0
  2757 ;;      Temps:          0       0       2       0       0       0       0       0       0       0       0       0       
      +0       0       0       0       0       0       0       0       0       0       0       0       0       0       0
  2758 ;;      Totals:         0       0       6       0       0       0       0       0       0       0       0       0       
      +0       0       0       0       0       0       0       0       0       0       0       0       0       0       0
  2759 ;;Total ram usage:        6 bytes
  2760 ;; Hardware stack levels required when called: 6
  2761 ;; This function calls:
  2762 ;;		_ADC_Init
  2763 ;;		_ADC_Read_Averaged
  2764 ;;		_I2C_Init
  2765 ;;		_OLED_Clear
  2766 ;;		_OLED_Init
  2767 ;;		_OLED_Printf_Line
  2768 ;;		_OLED_SetOrientation
  2769 ;;		___wmul
  2770 ;;		_initMain
  2771 ;; This function is called by:
  2772 ;;		Startup code after reset
  2773 ;; This function uses a non-reentrant model
  2774 ;;
  2775                           
  2776     033D                     _main:	
  2777                           ;psect for function _main
  2778                           
  2779     033D                     l3084:	
  2780                           ;incstack = 0
  2781                           ; Regs used in _main: [wreg-fsr1h+status,2+status,0+pclath+cstack]
  2782                           
  2783                           
  2784                           ;main.c: 108:     initMain();
  2785     033D  318E  26C5  3183   	fcall	_initMain
  2786     0340                     l3086:
  2787                           
  2788                           ;main.c: 109:     I2C_Init();
  2789     0340  318B  23FF  3183   	fcall	_I2C_Init
  2790     0343                     l3088:
  2791                           
  2792                           ;main.c: 111:     OLED_Init();
  2793     0343  3181  21BE  3183   	fcall	_OLED_Init
  2794     0346                     l3090:
  2795                           
  2796                           ;main.c: 112:     OLED_SetOrientation(OLED_ORIENT_0);
  2797     0346  3000               	movlw	0
  2798     0347  318E  263A  3183   	fcall	_OLED_SetOrientation
  2799     034A                     l3092:
  2800                           
  2801                           ;main.c: 113:     OLED_Clear();
  2802     034A  318F  2710  3183   	fcall	_OLED_Clear
  2803                           
  2804                           ;main.c: 115:     ADC_Init();
  2805     034D  318B  23E9  3183   	fcall	_ADC_Init
  2806     0350                     l388:	
  2807                           ;main.c: 117:     uint16_t adc;;main.c: 118:     static uint16_t filt = 0;;main.c: 119: 
      +                              static uint8_t isDark = 0;;main.c: 121:     while (1)
  2808                           
  2809                           
  2810                           ;main.c: 122:     {;main.c: 124:         adc = ADC_Read_Averaged(ADC_AN0, 16);
  2811     0350  3010               	movlw	16
  2812     0351  0020               	movlb	0	; select bank0
  2813     0352  00A0               	movwf	ADC_Read_Averaged@samples
  2814     0353  3000               	movlw	0
  2815     0354  3181  2151  3183   	fcall	_ADC_Read_Averaged
  2816     0357  0020               	movlb	0	; select bank0
  2817     0358  0821               	movf	?_ADC_Read_Averaged+1,w
  2818     0359  0021               	movlb	1	; select bank1
  2819     035A  00CF               	movwf	(main@adc+1)^(0+128)
  2820     035B  0020               	movlb	0	; select bank0
  2821     035C  0820               	movf	?_ADC_Read_Averaged,w
  2822     035D  0021               	movlb	1	; select bank1
  2823     035E  00CE               	movwf	main@adc^(0+128)
  2824                           
  2825                           ;main.c: 127:         filt = (filt * 7 + adc) / 8;
  2826     035F  0853               	movf	(main@filt+1)^(0+128),w
  2827     0360  00F1               	movwf	___wmul@multiplier+1
  2828     0361  0852               	movf	main@filt^(0+128),w
  2829     0362  00F0               	movwf	___wmul@multiplier
  2830     0363  3007               	movlw	7
  2831     0364  00F2               	movwf	___wmul@multiplicand
  2832     0365  3000               	movlw	0
  2833     0366  00F3               	movwf	___wmul@multiplicand+1
  2834     0367  318C  2468  3183   	fcall	___wmul
  2835     036A  0021               	movlb	1	; select bank1
  2836     036B  084E               	movf	main@adc^(0+128),w
  2837     036C  0770               	addwf	?___wmul,w
  2838     036D  00CC               	movwf	??_main^(0+128)
  2839     036E  084F               	movf	(main@adc+1)^(0+128),w
  2840     036F  3D71               	addwfc	?___wmul+1,w
  2841     0370  00CD               	movwf	(??_main+1)^(0+128)
  2842     0371  36CD               	lsrf	(??_main^(0+128)+1),f
  2843     0372  0CCC               	rrf	??_main^(0+128),f
  2844     0373  36CD               	lsrf	(??_main^(0+128)+1),f
  2845     0374  0CCC               	rrf	??_main^(0+128),f
  2846     0375  36CD               	lsrf	(??_main^(0+128)+1),f
  2847     0376  0CCC               	rrf	??_main^(0+128),f
  2848     0377  084C               	movf	??_main^(0+128),w
  2849     0378  00D2               	movwf	main@filt^(0+128)
  2850     0379  084D               	movf	(??_main+1)^(0+128),w
  2851     037A  00D3               	movwf	(main@filt+1)^(0+128)
  2852     037B                     l3094:
  2853                           
  2854                           ;main.c: 130:         if (!isDark && filt < 300) {
  2855     037B  0854               	movf	main@isDark^(0+128),w
  2856     037C  1D03               	btfss	3,2
  2857     037D  2B7F               	goto	u3371
  2858     037E  2B80               	goto	u3370
  2859     037F                     u3371:
  2860     037F  2B8C               	goto	l3100
  2861     0380                     u3370:
  2862     0380                     l3096:
  2863     0380  3001               	movlw	1
  2864     0381  0253               	subwf	(main@filt+1)^(0+128),w
  2865     0382  302C               	movlw	44
  2866     0383  1903               	skipnz
  2867     0384  0252               	subwf	main@filt^(0+128),w
  2868     0385  1803               	skipnc
  2869     0386  2B88               	goto	u3381
  2870     0387  2B89               	goto	u3380
  2871     0388                     u3381:
  2872     0388  2B8C               	goto	l3100
  2873     0389                     u3380:
  2874     0389                     l3098:
  2875                           
  2876                           ;main.c: 131:             isDark = 1;
  2877     0389  01D4               	clrf	main@isDark^(0+128)
  2878     038A  0AD4               	incf	main@isDark^(0+128),f
  2879                           
  2880                           ;main.c: 132:         }
  2881     038B  2B9B               	goto	l3106
  2882     038C                     l3100:
  2883     038C  0854               	movf	main@isDark^(0+128),w
  2884     038D  1903               	btfsc	3,2
  2885     038E  2B90               	goto	u3391
  2886     038F  2B91               	goto	u3390
  2887     0390                     u3391:
  2888     0390  2B9B               	goto	l3106
  2889     0391                     u3390:
  2890     0391                     l3102:
  2891     0391  3001               	movlw	1
  2892     0392  0253               	subwf	(main@filt+1)^(0+128),w
  2893     0393  307D               	movlw	125
  2894     0394  1903               	skipnz
  2895     0395  0252               	subwf	main@filt^(0+128),w
  2896     0396  1C03               	skipc
  2897     0397  2B99               	goto	u3401
  2898     0398  2B9A               	goto	u3400
  2899     0399                     u3401:
  2900     0399  2B9B               	goto	l3106
  2901     039A                     u3400:
  2902     039A                     l3104:
  2903                           
  2904                           ;main.c: 134:             isDark = 0;
  2905     039A  01D4               	clrf	main@isDark^(0+128)
  2906     039B                     l3106:
  2907                           
  2908                           ;main.c: 138:         OLED_Printf_Line(0, "Light: %u", filt);
  2909     039B  3000               	movlw	low (STR_1| (0+32768))
  2910     039C  0020               	movlb	0	; select bank0
  2911     039D  00A6               	movwf	OLED_Printf_Line@fmt
  2912     039E  308B               	movlw	high (STR_1| (0+32768))
  2913     039F  00A7               	movwf	OLED_Printf_Line@fmt+1
  2914     03A0  0021               	movlb	1	; select bank1
  2915     03A1  0853               	movf	(main@filt+1)^(0+128),w
  2916     03A2  0020               	movlb	0	; select bank0
  2917     03A3  00A9               	movwf	?_OLED_Printf_Line+3
  2918     03A4  0021               	movlb	1	; select bank1
  2919     03A5  0852               	movf	main@filt^(0+128),w
  2920     03A6  0020               	movlb	0	; select bank0
  2921     03A7  00A8               	movwf	?_OLED_Printf_Line+2
  2922     03A8  3000               	movlw	0
  2923     03A9  3183  23D5  3183   	fcall	_OLED_Printf_Line
  2924     03AC                     l3108:
  2925                           
  2926                           ;main.c: 139:         OLED_Printf_Line(1, isDark ? "DARK" : "LIGHT");
  2927     03AC  0021               	movlb	1	; select bank1
  2928     03AD  0854               	movf	main@isDark^(0+128),w
  2929     03AE  1D03               	btfss	3,2
  2930     03AF  2BB1               	goto	u3411
  2931     03B0  2BB2               	goto	u3410
  2932     03B1                     u3411:
  2933     03B1  2BB7               	goto	l3112
  2934     03B2                     u3410:
  2935     03B2                     l3110:
  2936     03B2  300A               	movlw	low (STR_3| (0+32768))
  2937     03B3  00D0               	movwf	_main$731^(0+128)
  2938     03B4  3090               	movlw	high (STR_3| (0+32768))
  2939     03B5  00D1               	movwf	(_main$731^(0+128)+1)
  2940     03B6  2BBB               	goto	l3114
  2941     03B7                     l3112:
  2942     03B7  3010               	movlw	low (STR_2| (0+32768))
  2943     03B8  00D0               	movwf	_main$731^(0+128)
  2944     03B9  3090               	movlw	high (STR_2| (0+32768))
  2945     03BA  00D1               	movwf	(_main$731^(0+128)+1)
  2946     03BB                     l3114:
  2947     03BB  0851               	movf	(_main$731+1)^(0+128),w
  2948     03BC  0020               	movlb	0	; select bank0
  2949     03BD  00A7               	movwf	OLED_Printf_Line@fmt+1
  2950     03BE  0021               	movlb	1	; select bank1
  2951     03BF  0850               	movf	_main$731^(0+128),w
  2952     03C0  0020               	movlb	0	; select bank0
  2953     03C1  00A6               	movwf	OLED_Printf_Line@fmt
  2954     03C2  3001               	movlw	1
  2955     03C3  3183  23D5  3183   	fcall	_OLED_Printf_Line
  2956     03C6                     l3116:
  2957                           
  2958                           ;main.c: 141:         _delay((unsigned long)((100)*(32000000/4000.0)));
  2959     03C6  3005               	movlw	5
  2960     03C7  0021               	movlb	1	; select bank1
  2961     03C8  00CD               	movwf	(??_main^(0+128)+1)
  2962     03C9  300F               	movlw	15
  2963     03CA  00CC               	movwf	??_main^(0+128)
  2964     03CB  30F1               	movlw	241
  2965     03CC                     u3427:
  2966     03CC  0B89               	decfsz	9,f
  2967     03CD  2BCC               	goto	u3427
  2968     03CE  0BCC               	decfsz	??_main^(0+128),f
  2969     03CF  2BCC               	goto	u3427
  2970     03D0  0BCD               	decfsz	(??_main^(0+128)+1),f
  2971     03D1  2BCC               	goto	u3427
  2972     03D2  2B50               	goto	l388
  2973     03D3  3180  2802         	ljmp	start
  2974     03D5                     __end_of_main:
  2975                           
  2976                           	psect	text1
  2977     0EC5                     __ptext1:	
  2978 ;; *************** function _initMain *****************
  2979 ;; Defined at:
  2980 ;;		line 43 in file "main.c"
  2981 ;; Parameters:    Size  Location     Type
  2982 ;;		None
  2983 ;; Auto vars:     Size  Location     Type
  2984 ;;		None
  2985 ;; Return value:  Size  Location     Type
  2986 ;;                  1    wreg      void 
  2987 ;; Registers used:
  2988 ;;		wreg, fsr0l, fsr0h, status,2, status,0, pclath, cstack
  2989 ;; Tracked objects:
  2990 ;;		On entry : 0/0
  2991 ;;		On exit  : 0/0
  2992 ;;		Unchanged: 0/0
  2993 ;; Data sizes:     COMMON   BANK0   BANK1   BANK2   BANK3   BANK4   BANK5   BANK6   BANK7   BANK8   BANK9  BANK10  BANK1
      +1  BANK12  BANK13  BANK14  BANK15  BANK16  BANK17  BANK18  BANK19  BANK20  BANK21  BANK22  BANK23  BANK24  BANK25
  2994 ;;      Params:         0       0       0       0       0       0       0       0       0       0       0       0       
      +0       0       0       0       0       0       0       0       0       0       0       0       0       0       0
  2995 ;;      Locals:         0       0       0       0       0       0       0       0       0       0       0       0       
      +0       0       0       0       0       0       0       0       0       0       0       0       0       0       0
  2996 ;;      Temps:          1       0       0       0       0       0       0       0       0       0       0       0       
      +0       0       0       0       0       0       0       0       0       0       0       0       0       0       0
  2997 ;;      Totals:         1       0       0       0       0       0       0       0       0       0       0       0       
      +0       0       0       0       0       0       0       0       0       0       0       0       0       0       0
  2998 ;;Total ram usage:        1 bytes
  2999 ;; Hardware stack levels used: 1
  3000 ;; Hardware stack levels required when called: 1
  3001 ;; This function calls:
  3002 ;;		_ADC_ConfigurePin
  3003 ;;		_internal_32
  3004 ;; This function is called by:
  3005 ;;		_main
  3006 ;; This function uses a non-reentrant model
  3007 ;;
  3008                           
  3009     0EC5                     _initMain:	
  3010                           ;psect for function _initMain
  3011                           
  3012     0EC5                     l2912:	
  3013                           ;incstack = 0
  3014                           ; Regs used in _initMain: [wreg-fsr0h+status,2+status,0+pclath+cstack]
  3015                           
  3016                           
  3017                           ;main.c: 46:     internal_32();
  3018     0EC5  318B  23E0  318E   	fcall	_internal_32
  3019     0EC8                     l2914:
  3020                           
  3021                           ;main.c: 49:     _delay((unsigned long)((10)*(32000000/4000.0)));
  3022     0EC8  3068               	movlw	104
  3023     0EC9  00F3               	movwf	??_initMain
  3024     0ECA  30E4               	movlw	228
  3025     0ECB                     u3437:
  3026     0ECB  0B89               	decfsz	9,f
  3027     0ECC  2ECB               	goto	u3437
  3028     0ECD  0BF3               	decfsz	??_initMain,f
  3029     0ECE  2ECB               	goto	u3437
  3030     0ECF  3200               	nop2
  3031     0ED0                     l2916:
  3032                           
  3033                           ;main.c: 51:     TRISBbits.TRISB2 = 0;
  3034     0ED0  0021               	movlb	1	; select bank1
  3035     0ED1  110D               	bcf	13,2	;volatile
  3036     0ED2                     l2918:
  3037                           
  3038                           ;main.c: 52:     ANSELBbits.ANSB2 = 0;
  3039     0ED2  0023               	movlb	3	; select bank3
  3040     0ED3  110D               	bcf	13,2	;volatile
  3041     0ED4                     l2920:
  3042                           
  3043                           ;main.c: 59:     ANSELCbits.ANSC4 = 0;
  3044     0ED4  120E               	bcf	14,4	;volatile
  3045     0ED5                     l2922:
  3046                           
  3047                           ;main.c: 60:     ANSELCbits.ANSC5 = 0;
  3048     0ED5  128E               	bcf	14,5	;volatile
  3049     0ED6                     l2924:
  3050                           
  3051                           ;main.c: 61:     TRISCbits.TRISC4 = 1;
  3052     0ED6  0021               	movlb	1	; select bank1
  3053     0ED7  160E               	bsf	14,4	;volatile
  3054     0ED8                     l2926:
  3055                           
  3056                           ;main.c: 62:     TRISCbits.TRISC5 = 1;
  3057     0ED8  168E               	bsf	14,5	;volatile
  3058     0ED9                     l2928:
  3059                           
  3060                           ;main.c: 65:     PPSLOCK = 0x55; PPSLOCK = 0xAA; PPSLOCKbits.PPSLOCKED = 0;
  3061     0ED9  3055               	movlw	85
  3062     0EDA  003C               	movlb	28	; select bank28
  3063     0EDB  008F               	movwf	15	;volsfr
  3064     0EDC                     l2930:
  3065     0EDC  30AA               	movlw	170
  3066     0EDD  008F               	movwf	15	;volsfr
  3067     0EDE                     l2932:
  3068     0EDE  100F               	bcf	15,0	;volsfr
  3069     0EDF                     l2934:
  3070                           
  3071                           ;main.c: 67:     RB2PPSbits.RB2PPS = 0x14;
  3072     0EDF  003D               	movlb	29	; select bank29
  3073     0EE0  081A               	movf	26,w	;volatile
  3074     0EE1  39E0               	andlw	-32
  3075     0EE2  3814               	iorlw	20
  3076     0EE3  009A               	movwf	26	;volatile
  3077     0EE4                     l2936:
  3078                           
  3079                           ;main.c: 68:     RXPPSbits.RXPPS = 0x0B;
  3080     0EE4  003C               	movlb	28	; select bank28
  3081     0EE5  0824               	movf	36,w	;volatile
  3082     0EE6  39E0               	andlw	-32
  3083     0EE7  380B               	iorlw	11
  3084     0EE8  00A4               	movwf	36	;volatile
  3085     0EE9                     l2938:
  3086                           
  3087                           ;main.c: 70:     RC4PPSbits.RC4PPS = 0x11;
  3088     0EE9  003D               	movlb	29	; select bank29
  3089     0EEA  0824               	movf	36,w	;volatile
  3090     0EEB  39E0               	andlw	-32
  3091     0EEC  3811               	iorlw	17
  3092     0EED  00A4               	movwf	36	;volatile
  3093     0EEE                     l2940:
  3094                           
  3095                           ;main.c: 71:     SSPDATPPSbits.SSPDATPPS = 0x14;
  3096     0EEE  003C               	movlb	28	; select bank28
  3097     0EEF  0821               	movf	33,w	;volatile
  3098     0EF0  39E0               	andlw	-32
  3099     0EF1  3814               	iorlw	20
  3100     0EF2  00A1               	movwf	33	;volatile
  3101     0EF3                     l2942:
  3102                           
  3103                           ;main.c: 73:     SSPCLKPPSbits.SSPCLKPPS = 0x15;
  3104     0EF3  0820               	movf	32,w	;volatile
  3105     0EF4  39E0               	andlw	-32
  3106     0EF5  3815               	iorlw	21
  3107     0EF6  00A0               	movwf	32	;volatile
  3108     0EF7                     l2944:
  3109                           
  3110                           ;main.c: 74:     RC5PPSbits.RC5PPS = 0x10;
  3111     0EF7  003D               	movlb	29	; select bank29
  3112     0EF8  0825               	movf	37,w	;volatile
  3113     0EF9  39E0               	andlw	-32
  3114     0EFA  3810               	iorlw	16
  3115     0EFB  00A5               	movwf	37	;volatile
  3116     0EFC                     l2946:
  3117                           
  3118                           ;main.c: 76:     PPSLOCK = 0x55; PPSLOCK = 0xAA; PPSLOCKbits.PPSLOCKED = 1;
  3119     0EFC  3055               	movlw	85
  3120     0EFD  003C               	movlb	28	; select bank28
  3121     0EFE  008F               	movwf	15	;volsfr
  3122     0EFF                     l2948:
  3123     0EFF  30AA               	movlw	170
  3124     0F00  008F               	movwf	15	;volsfr
  3125     0F01                     l2950:
  3126     0F01  140F               	bsf	15,0	;volsfr
  3127     0F02                     l2952:
  3128                           
  3129                           ;main.c: 83:     ADCON1bits.ADCS = 0b010;
  3130     0F02  0021               	movlb	1	; select bank1
  3131     0F03  081E               	movf	30,w	;volatile
  3132     0F04  398F               	andlw	-113
  3133     0F05  3820               	iorlw	32
  3134     0F06  009E               	movwf	30	;volatile
  3135     0F07                     l2954:
  3136                           
  3137                           ;main.c: 86:     ADCON1bits.ADFM = 1;
  3138     0F07  179E               	bsf	30,7	;volatile
  3139     0F08                     l2956:
  3140                           
  3141                           ;main.c: 89:     ADCON1bits.ADNREF = 0;
  3142     0F08  111E               	bcf	30,2	;volatile
  3143     0F09                     l2958:
  3144                           
  3145                           ;main.c: 92:     ADCON1bits.ADPREF = 0b00;
  3146     0F09  30FC               	movlw	-4
  3147     0F0A  059E               	andwf	30,f	;volatile
  3148     0F0B                     l2960:
  3149                           
  3150                           ;main.c: 95:     ADC_ConfigurePin(ADC_AN0);
  3151     0F0B  3000               	movlw	0
  3152     0F0C  3180  20EC  318E   	fcall	_ADC_ConfigurePin
  3153     0F0F                     l379:
  3154     0F0F  0008               	return
  3155     0F10                     __end_of_initMain:
  3156                           
  3157                           	psect	text2
  3158     0BE0                     __ptext2:	
  3159 ;; *************** function _internal_32 *****************
  3160 ;; Defined at:
  3161 ;;		line 36 in file "PIC16F1718_Internal.c"
  3162 ;; Parameters:    Size  Location     Type
  3163 ;;		None
  3164 ;; Auto vars:     Size  Location     Type
  3165 ;;		None
  3166 ;; Return value:  Size  Location     Type
  3167 ;;                  1    wreg      void 
  3168 ;; Registers used:
  3169 ;;		None
  3170 ;; Tracked objects:
  3171 ;;		On entry : 0/0
  3172 ;;		On exit  : 0/0
  3173 ;;		Unchanged: 0/0
  3174 ;; Data sizes:     COMMON   BANK0   BANK1   BANK2   BANK3   BANK4   BANK5   BANK6   BANK7   BANK8   BANK9  BANK10  BANK1
      +1  BANK12  BANK13  BANK14  BANK15  BANK16  BANK17  BANK18  BANK19  BANK20  BANK21  BANK22  BANK23  BANK24  BANK25
  3175 ;;      Params:         0       0       0       0       0       0       0       0       0       0       0       0       
      +0       0       0       0       0       0       0       0       0       0       0       0       0       0       0
  3176 ;;      Locals:         0       0       0       0       0       0       0       0       0       0       0       0       
      +0       0       0       0       0       0       0       0       0       0       0       0       0       0       0
  3177 ;;      Temps:          0       0       0       0       0       0       0       0       0       0       0       0       
      +0       0       0       0       0       0       0       0       0       0       0       0       0       0       0
  3178 ;;      Totals:         0       0       0       0       0       0       0       0       0       0       0       0       
      +0       0       0       0       0       0       0       0       0       0       0       0       0       0       0
  3179 ;;Total ram usage:        0 bytes
  3180 ;; Hardware stack levels used: 1
  3181 ;; This function calls:
  3182 ;;		Nothing
  3183 ;; This function is called by:
  3184 ;;		_initMain
  3185 ;; This function uses a non-reentrant model
  3186 ;;
  3187                           
  3188     0BE0                     _internal_32:	
  3189                           ;psect for function _internal_32
  3190                           
  3191     0BE0                     l2300:	
  3192                           ;incstack = 0
  3193                           ; Regs used in _internal_32: []
  3194                           
  3195                           
  3196                           ;PIC16F1718_Internal.c: 38:     SCS0 = 0;
  3197     0BE0  0021               	movlb	1	; select bank1
  3198     0BE1  1019               	bcf	25,0	;volatile
  3199                           
  3200                           ;PIC16F1718_Internal.c: 39:     SCS1 = 0;
  3201     0BE2  1099               	bcf	25,1	;volatile
  3202                           
  3203                           ;PIC16F1718_Internal.c: 42:     IRCF0 = 0;
  3204     0BE3  1199               	bcf	25,3	;volatile
  3205                           
  3206                           ;PIC16F1718_Internal.c: 43:     IRCF1 = 1;
  3207     0BE4  1619               	bsf	25,4	;volatile
  3208                           
  3209                           ;PIC16F1718_Internal.c: 44:     IRCF2 = 1;
  3210     0BE5  1699               	bsf	25,5	;volatile
  3211                           
  3212                           ;PIC16F1718_Internal.c: 45:     IRCF3 = 1;
  3213     0BE6  1719               	bsf	25,6	;volatile
  3214                           
  3215                           ;PIC16F1718_Internal.c: 48:     SPLLEN = 1;
  3216     0BE7  1799               	bsf	25,7	;volatile
  3217     0BE8                     l273:
  3218     0BE8  0008               	return
  3219     0BE9                     __end_of_internal_32:
  3220                           
  3221                           	psect	text3
  3222     00EC                     __ptext3:	
  3223 ;; *************** function _ADC_ConfigurePin *****************
  3224 ;; Defined at:
  3225 ;;		line 53 in file "./ADC.h"
  3226 ;; Parameters:    Size  Location     Type
  3227 ;;  channel         1    wreg     enum E6091
  3228 ;; Auto vars:     Size  Location     Type
  3229 ;;  channel         1    2[COMMON] enum E6091
  3230 ;; Return value:  Size  Location     Type
  3231 ;;                  1    wreg      void 
  3232 ;; Registers used:
  3233 ;;		wreg, fsr0l, fsr0h, status,2, status,0
  3234 ;; Tracked objects:
  3235 ;;		On entry : 0/0
  3236 ;;		On exit  : 0/0
  3237 ;;		Unchanged: 0/0
  3238 ;; Data sizes:     COMMON   BANK0   BANK1   BANK2   BANK3   BANK4   BANK5   BANK6   BANK7   BANK8   BANK9  BANK10  BANK1
      +1  BANK12  BANK13  BANK14  BANK15  BANK16  BANK17  BANK18  BANK19  BANK20  BANK21  BANK22  BANK23  BANK24  BANK25
  3239 ;;      Params:         0       0       0       0       0       0       0       0       0       0       0       0       
      +0       0       0       0       0       0       0       0       0       0       0       0       0       0       0
  3240 ;;      Locals:         1       0       0       0       0       0       0       0       0       0       0       0       
      +0       0       0       0       0       0       0       0       0       0       0       0       0       0       0
  3241 ;;      Temps:          2       0       0       0       0       0       0       0       0       0       0       0       
      +0       0       0       0       0       0       0       0       0       0       0       0       0       0       0
  3242 ;;      Totals:         3       0       0       0       0       0       0       0       0       0       0       0       
      +0       0       0       0       0       0       0       0       0       0       0       0       0       0       0
  3243 ;;Total ram usage:        3 bytes
  3244 ;; Hardware stack levels used: 1
  3245 ;; This function calls:
  3246 ;;		Nothing
  3247 ;; This function is called by:
  3248 ;;		_initMain
  3249 ;; This function uses a non-reentrant model
  3250 ;;
  3251                           
  3252     00EC                     _ADC_ConfigurePin:	
  3253                           ;psect for function _ADC_ConfigurePin
  3254                           
  3255                           
  3256                           ;incstack = 0
  3257                           ; Regs used in _ADC_ConfigurePin: [wreg-fsr0h+status,2+status,0]
  3258                           ;ADC_ConfigurePin@channel stored from wreg
  3259     00EC  00F2               	movwf	ADC_ConfigurePin@channel
  3260     00ED                     l2302:
  3261                           
  3262                           ;./ADC.h: 53: void ADC_ConfigurePin(adc_channel_t channel);./ADC.h: 54: {;./ADC.h: 55:  
      +                             switch(channel) {
  3263     00ED  2925               	goto	l2306
  3264     00EE                     l351:	
  3265                           ;./ADC.h: 56:         case ADC_AN0: TRISAbits.TRISA0 = 1; ANSELAbits.ANSA0 = 1; break;
  3266                           
  3267     00EE  0021               	movlb	1	; select bank1
  3268     00EF  140C               	bsf	12,0	;volatile
  3269     00F0  0023               	movlb	3	; select bank3
  3270     00F1  140C               	bsf	12,0	;volatile
  3271     00F2  2950               	goto	l363
  3272     00F3                     l353:	
  3273                           ;./ADC.h: 57:         case ADC_AN1: TRISAbits.TRISA1 = 1; ANSELAbits.ANSA1 = 1; break;
  3274                           
  3275     00F3  0021               	movlb	1	; select bank1
  3276     00F4  148C               	bsf	12,1	;volatile
  3277     00F5  0023               	movlb	3	; select bank3
  3278     00F6  148C               	bsf	12,1	;volatile
  3279     00F7  2950               	goto	l363
  3280     00F8                     l354:	
  3281                           ;./ADC.h: 58:         case ADC_AN2: TRISAbits.TRISA2 = 1; ANSELAbits.ANSA2 = 1; break;
  3282                           
  3283     00F8  0021               	movlb	1	; select bank1
  3284     00F9  150C               	bsf	12,2	;volatile
  3285     00FA  0023               	movlb	3	; select bank3
  3286     00FB  150C               	bsf	12,2	;volatile
  3287     00FC  2950               	goto	l363
  3288     00FD                     l355:	
  3289                           ;./ADC.h: 59:         case ADC_AN3: TRISAbits.TRISA3 = 1; ANSELAbits.ANSA3 = 1; break;
  3290                           
  3291     00FD  0021               	movlb	1	; select bank1
  3292     00FE  158C               	bsf	12,3	;volatile
  3293     00FF  0023               	movlb	3	; select bank3
  3294     0100  158C               	bsf	12,3	;volatile
  3295     0101  2950               	goto	l363
  3296     0102                     l356:	
  3297                           ;./ADC.h: 60:         case ADC_AN4: TRISAbits.TRISA4 = 1; ANSELAbits.ANSA4 = 1; break;
  3298                           
  3299     0102  0021               	movlb	1	; select bank1
  3300     0103  160C               	bsf	12,4	;volatile
  3301     0104  0023               	movlb	3	; select bank3
  3302     0105  160C               	bsf	12,4	;volatile
  3303     0106  2950               	goto	l363
  3304     0107                     l357:	
  3305                           ;./ADC.h: 61:         case ADC_AN5: TRISAbits.TRISA5 = 1; ANSELAbits.ANSA5 = 1; break;
  3306                           
  3307     0107  0021               	movlb	1	; select bank1
  3308     0108  168C               	bsf	12,5	;volatile
  3309     0109  0023               	movlb	3	; select bank3
  3310     010A  168C               	bsf	12,5	;volatile
  3311     010B  2950               	goto	l363
  3312     010C                     l358:	
  3313                           ;./ADC.h: 62:         case ADC_AN8: TRISBbits.TRISB0 = 1; ANSELBbits.ANSB0 = 1; break;
  3314                           
  3315     010C  0021               	movlb	1	; select bank1
  3316     010D  140D               	bsf	13,0	;volatile
  3317     010E  0023               	movlb	3	; select bank3
  3318     010F  140D               	bsf	13,0	;volatile
  3319     0110  2950               	goto	l363
  3320     0111                     l359:	
  3321                           ;./ADC.h: 63:         case ADC_AN9: TRISBbits.TRISB1 = 1; ANSELBbits.ANSB1 = 1; break;
  3322                           
  3323     0111  0021               	movlb	1	; select bank1
  3324     0112  148D               	bsf	13,1	;volatile
  3325     0113  0023               	movlb	3	; select bank3
  3326     0114  148D               	bsf	13,1	;volatile
  3327     0115  2950               	goto	l363
  3328     0116                     l360:	
  3329                           ;./ADC.h: 64:         case ADC_AN10: TRISBbits.TRISB3 = 1; ANSELBbits.ANSB3 = 1; break;
  3330                           
  3331     0116  0021               	movlb	1	; select bank1
  3332     0117  158D               	bsf	13,3	;volatile
  3333     0118  0023               	movlb	3	; select bank3
  3334     0119  158D               	bsf	13,3	;volatile
  3335     011A  2950               	goto	l363
  3336     011B                     l361:	
  3337                           ;./ADC.h: 65:         case ADC_AN11: TRISBbits.TRISB4 = 1; ANSELBbits.ANSB4 = 1; break;
  3338                           
  3339     011B  0021               	movlb	1	; select bank1
  3340     011C  160D               	bsf	13,4	;volatile
  3341     011D  0023               	movlb	3	; select bank3
  3342     011E  160D               	bsf	13,4	;volatile
  3343     011F  2950               	goto	l363
  3344     0120                     l362:	
  3345                           ;./ADC.h: 66:         case ADC_AN12: TRISBbits.TRISB5 = 1; ANSELBbits.ANSB5 = 1; break;
  3346                           
  3347     0120  0021               	movlb	1	; select bank1
  3348     0121  168D               	bsf	13,5	;volatile
  3349     0122  0023               	movlb	3	; select bank3
  3350     0123  168D               	bsf	13,5	;volatile
  3351     0124  2950               	goto	l363
  3352     0125                     l2306:
  3353     0125  0872               	movf	ADC_ConfigurePin@channel,w
  3354     0126  00F0               	movwf	??_ADC_ConfigurePin
  3355     0127  01F1               	clrf	??_ADC_ConfigurePin+1
  3356                           
  3357                           ; Switch on 2 bytes has been partitioned into a top level switch of size 1, and 1 sub-sw
      +                          itches
  3358                           ; Switch size 1, requested type "simple"
  3359                           ; Number of cases is 1, Range of values is 0 to 0
  3360                           ; switch strategies available:
  3361                           ; Name         Instructions Cycles
  3362                           ; simple_byte            4     3 (average)
  3363                           ; direct_byte            8     6 (fixed)
  3364                           ; jumptable            260     6 (fixed)
  3365                           ;	Chosen strategy is simple_byte
  3366     0128  0871               	movf	??_ADC_ConfigurePin+1,w
  3367     0129  3A00               	xorlw	0	; case 0
  3368     012A  1903               	skipnz
  3369     012B  292D               	goto	l3158
  3370     012C  2950               	goto	l363
  3371     012D                     l3158:
  3372                           
  3373                           ; Switch size 1, requested type "simple"
  3374                           ; Number of cases is 11, Range of values is 0 to 12
  3375                           ; switch strategies available:
  3376                           ; Name         Instructions Cycles
  3377                           ; direct_byte           32     6 (fixed)
  3378                           ; simple_byte           34    18 (average)
  3379                           ; jumptable            260     6 (fixed)
  3380                           ;	Chosen strategy is simple_byte
  3381     012D  0870               	movf	??_ADC_ConfigurePin,w
  3382     012E  3A00               	xorlw	0	; case 0
  3383     012F  1903               	skipnz
  3384     0130  28EE               	goto	l351
  3385     0131  3A01               	xorlw	1	; case 1
  3386     0132  1903               	skipnz
  3387     0133  28F3               	goto	l353
  3388     0134  3A03               	xorlw	3	; case 2
  3389     0135  1903               	skipnz
  3390     0136  28F8               	goto	l354
  3391     0137  3A01               	xorlw	1	; case 3
  3392     0138  1903               	skipnz
  3393     0139  28FD               	goto	l355
  3394     013A  3A07               	xorlw	7	; case 4
  3395     013B  1903               	skipnz
  3396     013C  2902               	goto	l356
  3397     013D  3A01               	xorlw	1	; case 5
  3398     013E  1903               	skipnz
  3399     013F  2907               	goto	l357
  3400     0140  3A0D               	xorlw	13	; case 8
  3401     0141  1903               	skipnz
  3402     0142  290C               	goto	l358
  3403     0143  3A01               	xorlw	1	; case 9
  3404     0144  1903               	skipnz
  3405     0145  2911               	goto	l359
  3406     0146  3A03               	xorlw	3	; case 10
  3407     0147  1903               	skipnz
  3408     0148  2916               	goto	l360
  3409     0149  3A01               	xorlw	1	; case 11
  3410     014A  1903               	skipnz
  3411     014B  291B               	goto	l361
  3412     014C  3A07               	xorlw	7	; case 12
  3413     014D  1903               	skipnz
  3414     014E  2920               	goto	l362
  3415     014F  2950               	goto	l363
  3416     0150                     l363:
  3417     0150  0008               	return
  3418     0151                     __end_of_ADC_ConfigurePin:
  3419                           
  3420                           	psect	text4
  3421     0C68                     __ptext4:	
  3422 ;; *************** function ___wmul *****************
  3423 ;; Defined at:
  3424 ;;		line 15 in file "C:\Program Files\Microchip\xc8\v2.46\pic\sources\c99\common\Umul16.c"
  3425 ;; Parameters:    Size  Location     Type
  3426 ;;  multiplier      2    0[COMMON] unsigned int 
  3427 ;;  multiplicand    2    2[COMMON] unsigned int 
  3428 ;; Auto vars:     Size  Location     Type
  3429 ;;  product         2    4[COMMON] unsigned int 
  3430 ;; Return value:  Size  Location     Type
  3431 ;;                  2    0[COMMON] unsigned int 
  3432 ;; Registers used:
  3433 ;;		wreg, status,2, status,0
  3434 ;; Tracked objects:
  3435 ;;		On entry : 0/0
  3436 ;;		On exit  : 0/0
  3437 ;;		Unchanged: 0/0
  3438 ;; Data sizes:     COMMON   BANK0   BANK1   BANK2   BANK3   BANK4   BANK5   BANK6   BANK7   BANK8   BANK9  BANK10  BANK1
      +1  BANK12  BANK13  BANK14  BANK15  BANK16  BANK17  BANK18  BANK19  BANK20  BANK21  BANK22  BANK23  BANK24  BANK25
  3439 ;;      Params:         4       0       0       0       0       0       0       0       0       0       0       0       
      +0       0       0       0       0       0       0       0       0       0       0       0       0       0       0
  3440 ;;      Locals:         2       0       0       0       0       0       0       0       0       0       0       0       
      +0       0       0       0       0       0       0       0       0       0       0       0       0       0       0
  3441 ;;      Temps:          0       0       0       0       0       0       0       0       0       0       0       0       
      +0       0       0       0       0       0       0       0       0       0       0       0       0       0       0
  3442 ;;      Totals:         6       0       0       0       0       0       0       0       0       0       0       0       
      +0       0       0       0       0       0       0       0       0       0       0       0       0       0       0
  3443 ;;Total ram usage:        6 bytes
  3444 ;; Hardware stack levels used: 1
  3445 ;; This function calls:
  3446 ;;		Nothing
  3447 ;; This function is called by:
  3448 ;;		_main
  3449 ;;		_OLED_DrawBattery
  3450 ;; This function uses a non-reentrant model
  3451 ;;
  3452                           
  3453     0C68                     ___wmul:	
  3454                           ;psect for function ___wmul
  3455                           
  3456     0C68                     l2962:	
  3457                           ;incstack = 0
  3458                           ; Regs used in ___wmul: [wreg+status,2+status,0]
  3459                           
  3460     0C68  01F4               	clrf	___wmul@product
  3461     0C69  01F5               	clrf	___wmul@product+1
  3462     0C6A                     l2964:
  3463     0C6A  1C70               	btfss	___wmul@multiplier,0
  3464     0C6B  2C6D               	goto	u3081
  3465     0C6C  2C6E               	goto	u3080
  3466     0C6D                     u3081:
  3467     0C6D  2C72               	goto	l466
  3468     0C6E                     u3080:
  3469     0C6E                     l2966:
  3470     0C6E  0872               	movf	___wmul@multiplicand,w
  3471     0C6F  07F4               	addwf	___wmul@product,f
  3472     0C70  0873               	movf	___wmul@multiplicand+1,w
  3473     0C71  3DF5               	addwfc	___wmul@product+1,f
  3474     0C72                     l466:
  3475     0C72  3001               	movlw	1
  3476     0C73                     u3095:
  3477     0C73  35F2               	lslf	___wmul@multiplicand,f
  3478     0C74  0DF3               	rlf	___wmul@multiplicand+1,f
  3479     0C75  0B89               	decfsz	9,f
  3480     0C76  2C73               	goto	u3095
  3481     0C77                     l2968:
  3482     0C77  3001               	movlw	1
  3483     0C78                     u3105:
  3484     0C78  36F1               	lsrf	___wmul@multiplier+1,f
  3485     0C79  0CF0               	rrf	___wmul@multiplier,f
  3486     0C7A  0B89               	decfsz	9,f
  3487     0C7B  2C78               	goto	u3105
  3488     0C7C                     l2970:
  3489     0C7C  0870               	movf	___wmul@multiplier,w
  3490     0C7D  0471               	iorwf	___wmul@multiplier+1,w
  3491     0C7E  1D03               	btfss	3,2
  3492     0C7F  2C81               	goto	u3111
  3493     0C80  2C82               	goto	u3110
  3494     0C81                     u3111:
  3495     0C81  2C6A               	goto	l2964
  3496     0C82                     u3110:
  3497     0C82                     l2972:
  3498     0C82  0875               	movf	___wmul@product+1,w
  3499     0C83  00F1               	movwf	?___wmul+1
  3500     0C84  0874               	movf	___wmul@product,w
  3501     0C85  00F0               	movwf	?___wmul
  3502     0C86                     l468:
  3503     0C86  0008               	return
  3504     0C87                     __end_of___wmul:
  3505                           
  3506                           	psect	text5
  3507     0E3A                     __ptext5:	
  3508 ;; *************** function _OLED_SetOrientation *****************
  3509 ;; Defined at:
  3510 ;;		line 246 in file "OLED_SSD1306.c"
  3511 ;; Parameters:    Size  Location     Type
  3512 ;;  o               1    wreg     enum E6061
  3513 ;; Auto vars:     Size  Location     Type
  3514 ;;  o               1    9[COMMON] enum E6061
  3515 ;; Return value:  Size  Location     Type
  3516 ;;                  1    wreg      void 
  3517 ;; Registers used:
  3518 ;;		wreg, fsr0l, fsr0h, status,2, status,0, pclath, cstack
  3519 ;; Tracked objects:
  3520 ;;		On entry : 0/0
  3521 ;;		On exit  : 0/0
  3522 ;;		Unchanged: 0/0
  3523 ;; Data sizes:     COMMON   BANK0   BANK1   BANK2   BANK3   BANK4   BANK5   BANK6   BANK7   BANK8   BANK9  BANK10  BANK1
      +1  BANK12  BANK13  BANK14  BANK15  BANK16  BANK17  BANK18  BANK19  BANK20  BANK21  BANK22  BANK23  BANK24  BANK25
  3524 ;;      Params:         0       0       0       0       0       0       0       0       0       0       0       0       
      +0       0       0       0       0       0       0       0       0       0       0       0       0       0       0
  3525 ;;      Locals:         1       0       0       0       0       0       0       0       0       0       0       0       
      +0       0       0       0       0       0       0       0       0       0       0       0       0       0       0
  3526 ;;      Temps:          2       0       0       0       0       0       0       0       0       0       0       0       
      +0       0       0       0       0       0       0       0       0       0       0       0       0       0       0
  3527 ;;      Totals:         3       0       0       0       0       0       0       0       0       0       0       0       
      +0       0       0       0       0       0       0       0       0       0       0       0       0       0       0
  3528 ;;Total ram usage:        3 bytes
  3529 ;; Hardware stack levels used: 1
  3530 ;; Hardware stack levels required when called: 3
  3531 ;; This function calls:
  3532 ;;		_OLED_Command
  3533 ;; This function is called by:
  3534 ;;		_main
  3535 ;; This function uses a non-reentrant model
  3536 ;;
  3537                           
  3538     0E3A                     _OLED_SetOrientation:	
  3539                           ;psect for function _OLED_SetOrientation
  3540                           
  3541                           
  3542                           ;incstack = 0
  3543                           ; Regs used in _OLED_SetOrientation: [wreg-fsr0h+status,2+status,0+pclath+cstack]
  3544                           ;OLED_SetOrientation@o stored from wreg
  3545     0E3A  00F9               	movwf	OLED_SetOrientation@o
  3546     0E3B                     l2568:
  3547                           
  3548                           ;OLED_SSD1306.c: 246: void OLED_SetOrientation(oled_orient_t o);OLED_SSD1306.c: 247: {;O
      +                          LED_SSD1306.c: 248:     (void)OLED_Command(0x2E);
  3549     0E3B  302E               	movlw	46
  3550     0E3C  3180  2005  318E   	fcall	_OLED_Command
  3551                           
  3552                           ;OLED_SSD1306.c: 250:     switch (o)
  3553     0E3F  2E64               	goto	l2580
  3554     0E40                     l2570:
  3555                           
  3556                           ;OLED_SSD1306.c: 254:             (void)OLED_Command(0xA0 | 0x01);
  3557     0E40  30A1               	movlw	161
  3558     0E41  3180  2005  318E   	fcall	_OLED_Command
  3559                           
  3560                           ;OLED_SSD1306.c: 255:             (void)OLED_Command(0xC8);
  3561     0E44  30C8               	movlw	200
  3562     0E45  3180  2005  318E   	fcall	_OLED_Command
  3563                           
  3564                           ;OLED_SSD1306.c: 256:             break;
  3565     0E48  2E7A               	goto	l128
  3566     0E49                     l2572:
  3567                           
  3568                           ;OLED_SSD1306.c: 259:             (void)OLED_Command(0xA0 | 0x00);
  3569     0E49  30A0               	movlw	160
  3570     0E4A  3180  2005  318E   	fcall	_OLED_Command
  3571                           
  3572                           ;OLED_SSD1306.c: 260:             (void)OLED_Command(0xC0);
  3573     0E4D  30C0               	movlw	192
  3574     0E4E  3180  2005  318E   	fcall	_OLED_Command
  3575                           
  3576                           ;OLED_SSD1306.c: 261:             break;
  3577     0E51  2E7A               	goto	l128
  3578     0E52                     l2574:
  3579                           
  3580                           ;OLED_SSD1306.c: 264:             (void)OLED_Command(0xA0 | 0x00);
  3581     0E52  30A0               	movlw	160
  3582     0E53  3180  2005  318E   	fcall	_OLED_Command
  3583                           
  3584                           ;OLED_SSD1306.c: 265:             (void)OLED_Command(0xC8);
  3585     0E56  30C8               	movlw	200
  3586     0E57  3180  2005  318E   	fcall	_OLED_Command
  3587                           
  3588                           ;OLED_SSD1306.c: 266:             break;
  3589     0E5A  2E7A               	goto	l128
  3590     0E5B                     l2576:
  3591                           
  3592                           ;OLED_SSD1306.c: 269:             (void)OLED_Command(0xA0 | 0x01);
  3593     0E5B  30A1               	movlw	161
  3594     0E5C  3180  2005  318E   	fcall	_OLED_Command
  3595                           
  3596                           ;OLED_SSD1306.c: 270:             (void)OLED_Command(0xC0);
  3597     0E5F  30C0               	movlw	192
  3598     0E60  3180  2005  318E   	fcall	_OLED_Command
  3599                           
  3600                           ;OLED_SSD1306.c: 271:             break;
  3601     0E63  2E7A               	goto	l128
  3602     0E64                     l2580:
  3603     0E64  0879               	movf	OLED_SetOrientation@o,w
  3604     0E65  00F7               	movwf	??_OLED_SetOrientation
  3605     0E66  01F8               	clrf	??_OLED_SetOrientation+1
  3606                           
  3607                           ; Switch on 2 bytes has been partitioned into a top level switch of size 1, and 1 sub-sw
      +                          itches
  3608                           ; Switch size 1, requested type "simple"
  3609                           ; Number of cases is 1, Range of values is 0 to 0
  3610                           ; switch strategies available:
  3611                           ; Name         Instructions Cycles
  3612                           ; simple_byte            4     3 (average)
  3613                           ; direct_byte            8     6 (fixed)
  3614                           ; jumptable            260     6 (fixed)
  3615                           ;	Chosen strategy is simple_byte
  3616     0E67  0878               	movf	??_OLED_SetOrientation+1,w
  3617     0E68  3A00               	xorlw	0	; case 0
  3618     0E69  1903               	skipnz
  3619     0E6A  2E6C               	goto	l3160
  3620     0E6B  2E40               	goto	l2570
  3621     0E6C                     l3160:
  3622                           
  3623                           ; Switch size 1, requested type "simple"
  3624                           ; Number of cases is 4, Range of values is 0 to 3
  3625                           ; switch strategies available:
  3626                           ; Name         Instructions Cycles
  3627                           ; simple_byte           13     7 (average)
  3628                           ; direct_byte           14     6 (fixed)
  3629                           ; jumptable            260     6 (fixed)
  3630                           ;	Chosen strategy is simple_byte
  3631     0E6C  0877               	movf	??_OLED_SetOrientation,w
  3632     0E6D  3A00               	xorlw	0	; case 0
  3633     0E6E  1903               	skipnz
  3634     0E6F  2E40               	goto	l2570
  3635     0E70  3A01               	xorlw	1	; case 1
  3636     0E71  1903               	skipnz
  3637     0E72  2E49               	goto	l2572
  3638     0E73  3A03               	xorlw	3	; case 2
  3639     0E74  1903               	skipnz
  3640     0E75  2E52               	goto	l2574
  3641     0E76  3A01               	xorlw	1	; case 3
  3642     0E77  1903               	skipnz
  3643     0E78  2E5B               	goto	l2576
  3644     0E79  2E40               	goto	l2570
  3645     0E7A                     l128:
  3646     0E7A  0008               	return
  3647     0E7B                     __end_of_OLED_SetOrientation:
  3648                           
  3649                           	psect	text6
  3650     03D5                     __ptext6:	
  3651 ;; *************** function _OLED_Printf_Line *****************
  3652 ;; Defined at:
  3653 ;;		line 424 in file "OLED_SSD1306.c"
  3654 ;; Parameters:    Size  Location     Type
  3655 ;;  line            1    wreg     unsigned char 
  3656 ;;  fmt             2    6[BANK0 ] PTR const unsigned char 
  3657 ;;		 -> STR_3(6), STR_2(5), STR_1(10), 
  3658 ;; Auto vars:     Size  Location     Type
  3659 ;;  line            1   39[BANK1 ] unsigned char 
  3660 ;;  nibble          1   26[BANK1 ] unsigned char 
  3661 ;;  temp           11   33[BANK0 ] unsigned char [11]
  3662 ;;  val             4   33[BANK1 ] long 
  3663 ;;  i               1   30[BANK1 ] unsigned char 
  3664 ;;  temp           11   22[BANK0 ] unsigned char [11]
  3665 ;;  val             4   20[BANK1 ] unsigned long 
  3666 ;;  i               1   29[BANK1 ] unsigned char 
  3667 ;;  str             1   17[BANK1 ] PTR const unsigned char 
  3668 ;;		 -> ?_OLED_Printf_Line(1), 
  3669 ;;  temp            5   12[BANK1 ] unsigned char [5]
  3670 ;;  val             2   78[BANK0 ] unsigned short 
  3671 ;;  i               1   32[BANK1 ] unsigned char 
  3672 ;;  temp            6    6[BANK1 ] unsigned char [6]
  3673 ;;  val             2   24[BANK1 ] unsigned short 
  3674 ;;  i               1   31[BANK1 ] unsigned char 
  3675 ;;  temp            6    0[BANK1 ] unsigned char [6]
  3676 ;;  val             2   37[BANK1 ] short 
  3677 ;;  i               1   28[BANK1 ] unsigned char 
  3678 ;;  ch              1   27[BANK1 ] unsigned char 
  3679 ;;  p               1   19[BANK1 ] PTR const unsigned char 
  3680 ;;		 -> OLED_Printf_Line@buf(32), 
  3681 ;;  buf            32   44[BANK0 ] unsigned char [32]
  3682 ;;  src             2   41[BANK1 ] PTR const unsigned char 
  3683 ;;		 -> STR_3(6), STR_2(5), STR_1(10), 
  3684 ;;  dst             1   43[BANK1 ] PTR unsigned char 
  3685 ;;		 -> OLED_Printf_Line@buf(32), 
  3686 ;;  ap              1   40[BANK1 ] PTR void [1]
  3687 ;;		 -> ?_OLED_Printf_Line(1), 
  3688 ;;  col             1   18[BANK1 ] unsigned char 
  3689 ;; Return value:  Size  Location     Type
  3690 ;;                  1    wreg      void 
  3691 ;; Registers used:
  3692 ;;		wreg, fsr0l, fsr0h, fsr1l, fsr1h, status,2, status,0, pclath, cstack
  3693 ;; Tracked objects:
  3694 ;;		On entry : 0/0
  3695 ;;		On exit  : 0/0
  3696 ;;		Unchanged: 0/0
  3697 ;; Data sizes:     COMMON   BANK0   BANK1   BANK2   BANK3   BANK4   BANK5   BANK6   BANK7   BANK8   BANK9  BANK10  BANK1
      +1  BANK12  BANK13  BANK14  BANK15  BANK16  BANK17  BANK18  BANK19  BANK20  BANK21  BANK22  BANK23  BANK24  BANK25
  3698 ;;      Params:         0       4       0       0       0       0       0       0       0       0       0       0       
      +0       0       0       0       0       0       0       0       0       0       0       0       0       0       0
  3699 ;;      Locals:         0      58      44       0       0       0       0       0       0       0       0       0       
      +0       0       0       0       0       0       0       0       0       0       0       0       0       0       0
  3700 ;;      Temps:          0      12       0       0       0       0       0       0       0       0       0       0       
      +0       0       0       0       0       0       0       0       0       0       0       0       0       0       0
  3701 ;;      Totals:         0      74      44       0       0       0       0       0       0       0       0       0       
      +0       0       0       0       0       0       0       0       0       0       0       0       0       0       0
  3702 ;;Total ram usage:      118 bytes
  3703 ;; Hardware stack levels used: 1
  3704 ;; Hardware stack levels required when called: 5
  3705 ;; This function calls:
  3706 ;;		_OLED_UpdateLine
  3707 ;;		___aldiv
  3708 ;;		___almod
  3709 ;;		___awdiv
  3710 ;;		___awmod
  3711 ;;		___lldiv
  3712 ;;		___llmod
  3713 ;;		___lwdiv
  3714 ;;		___lwmod
  3715 ;;		_memcpy
  3716 ;;		_memset
  3717 ;;		_strcmp
  3718 ;;		_strcpy
  3719 ;; This function is called by:
  3720 ;;		_main
  3721 ;; This function uses a non-reentrant model
  3722 ;;
  3723                           
  3724     03D5                     _OLED_Printf_Line:	
  3725                           ;psect for function _OLED_Printf_Line
  3726                           
  3727                           
  3728                           ;incstack = 0
  3729                           ; Regs used in _OLED_Printf_Line: [wreg-fsr1h+status,2+status,0+pclath+cstack]
  3730                           ;OLED_Printf_Line@line stored from wreg
  3731     03D5  0021               	movlb	1	; select bank1
  3732     03D6  00C7               	movwf	OLED_Printf_Line@line^(0+128)
  3733     03D7                     l2642:
  3734                           
  3735                           ;OLED_SSD1306.c: 424: void OLED_Printf_Line(uint8_t line, const char* fmt, ...);OLED_SSD
      +                          1306.c: 425: {;OLED_SSD1306.c: 426:     static char last_text[8][32];;OLED_SSD1306.c: 42
      +                          7:     char buf[32];;OLED_SSD1306.c: 428:     char *dst = buf;
  3736     03D7  304C               	movlw	(low (OLED_Printf_Line@buf| 0))& (0+255)
  3737     03D8  00CB               	movwf	OLED_Printf_Line@dst^(0+128)
  3738                           
  3739                           ;OLED_SSD1306.c: 429:     const char *src = fmt;
  3740     03D9  0020               	movlb	0	; select bank0
  3741     03DA  0827               	movf	OLED_Printf_Line@fmt+1,w
  3742     03DB  0021               	movlb	1	; select bank1
  3743     03DC  00CA               	movwf	(OLED_Printf_Line@src+1)^(0+128)
  3744     03DD  0020               	movlb	0	; select bank0
  3745     03DE  0826               	movf	OLED_Printf_Line@fmt,w
  3746     03DF  0021               	movlb	1	; select bank1
  3747     03E0  00C9               	movwf	OLED_Printf_Line@src^(0+128)
  3748                           
  3749                           ;OLED_SSD1306.c: 431:     if (line >= (32 / 8)) return;
  3750     03E1  3004               	movlw	4
  3751     03E2  0247               	subwf	OLED_Printf_Line@line^(0+128),w
  3752     03E3  1C03               	skipc
  3753     03E4  2BE6               	goto	u2691
  3754     03E5  2BE7               	goto	u2690
  3755     03E6                     u2691:
  3756     03E6  2BE8               	goto	l2646
  3757     03E7                     u2690:
  3758     03E7  2FED               	goto	l166
  3759     03E8                     l2646:
  3760                           
  3761                           ;OLED_SSD1306.c: 433:     va_list ap;;OLED_SSD1306.c: 434:     *ap = __va_start();
  3762     03E8  3028               	movlw	(low ((?_OLED_Printf_Line| 0+2)))& (0+255)
  3763     03E9  00C8               	movwf	OLED_Printf_Line@ap^(0+128)
  3764                           
  3765                           ;OLED_SSD1306.c: 437:     while (*src && (dst - buf) < 31) {
  3766     03EA  2EFD               	goto	l2846
  3767     03EB                     l2648:
  3768                           
  3769                           ;OLED_SSD1306.c: 438:         if (*src == '%') {
  3770     03EB  0849               	movf	OLED_Printf_Line@src^(0+128),w
  3771     03EC  0084               	movwf	4
  3772     03ED  084A               	movf	(OLED_Printf_Line@src+1)^(0+128),w
  3773     03EE  0085               	movwf	5
  3774     03EF  0012               	moviw fsr0++
  3775     03F0  3A25               	xorlw	37
  3776     03F1  1D03               	btfss	3,2
  3777     03F2  2BF4               	goto	u2701
  3778     03F3  2BF5               	goto	u2700
  3779     03F4                     u2701:
  3780     03F4  2EEA               	goto	l2840
  3781     03F5                     u2700:
  3782     03F5                     l2650:
  3783                           
  3784                           ;OLED_SSD1306.c: 439:             src++;
  3785     03F5  3001               	movlw	1
  3786     03F6  07C9               	addwf	OLED_Printf_Line@src^(0+128),f
  3787     03F7  3000               	movlw	0
  3788     03F8  3DCA               	addwfc	(OLED_Printf_Line@src+1)^(0+128),f
  3789                           
  3790                           ;OLED_SSD1306.c: 440:             switch (*src) {
  3791     03F9  2ECA               	goto	l2836
  3792     03FA                     l2652:
  3793                           
  3794                           ;OLED_SSD1306.c: 442:                     int16_t val = (*(int *)__va_arg(*(int **)ap, (
      +                          int)0));
  3795     03FA  0848               	movf	OLED_Printf_Line@ap^(0+128),w
  3796     03FB  0086               	movwf	6
  3797     03FC  0187               	clrf	7
  3798     03FD  3F40               	moviw [0]fsr1
  3799     03FE  00C5               	movwf	OLED_Printf_Line@val^(0+128)
  3800     03FF  3F41               	moviw [1]fsr1
  3801     0400  00C6               	movwf	(OLED_Printf_Line@val+1)^(0+128)
  3802     0401                     l2654:
  3803     0401  3002               	movlw	2
  3804     0402  0020               	movlb	0	; select bank0
  3805     0403  00AA               	movwf	??_OLED_Printf_Line
  3806     0404  082A               	movf	??_OLED_Printf_Line,w
  3807     0405  0021               	movlb	1	; select bank1
  3808     0406  07C8               	addwf	OLED_Printf_Line@ap^(0+128),f
  3809     0407                     l2656:
  3810                           
  3811                           ;OLED_SSD1306.c: 443:                     if (val < 0) {
  3812     0407  1FC6               	btfss	(OLED_Printf_Line@val+1)^(0+128),7
  3813     0408  2C0A               	goto	u2711
  3814     0409  2C0B               	goto	u2710
  3815     040A                     u2711:
  3816     040A  2C1B               	goto	l2664
  3817     040B                     u2710:
  3818     040B                     l2658:
  3819                           
  3820                           ;OLED_SSD1306.c: 444:                         *dst++ = '-';
  3821     040B  084B               	movf	OLED_Printf_Line@dst^(0+128),w
  3822     040C  0086               	movwf	6
  3823     040D  0187               	clrf	7
  3824     040E  302D               	movlw	45
  3825     040F  0081               	movwf	1
  3826     0410                     l2660:
  3827     0410  3001               	movlw	1
  3828     0411  0020               	movlb	0	; select bank0
  3829     0412  00AA               	movwf	??_OLED_Printf_Line
  3830     0413  082A               	movf	??_OLED_Printf_Line,w
  3831     0414  0021               	movlb	1	; select bank1
  3832     0415  07CB               	addwf	OLED_Printf_Line@dst^(0+128),f
  3833     0416                     l2662:
  3834                           
  3835                           ;OLED_SSD1306.c: 445:                         val = -val;
  3836     0416  09C5               	comf	OLED_Printf_Line@val^(0+128),f
  3837     0417  09C6               	comf	(OLED_Printf_Line@val+1)^(0+128),f
  3838     0418  0AC5               	incf	OLED_Printf_Line@val^(0+128),f
  3839     0419  1903               	skipnz
  3840     041A  0AC6               	incf	(OLED_Printf_Line@val+1)^(0+128),f
  3841     041B                     l2664:
  3842                           
  3843                           ;OLED_SSD1306.c: 448:                     char temp[6];;OLED_SSD1306.c: 449:            
      +                                   uint8_t i = 0;
  3844     041B  01BC               	clrf	OLED_Printf_Line@i^(0+128)
  3845     041C                     l2666:
  3846                           
  3847                           ;OLED_SSD1306.c: 451:                         temp[i++] = '0' + (val % 10);
  3848     041C  083C               	movf	OLED_Printf_Line@i^(0+128),w
  3849     041D  3EA0               	addlw	(low (OLED_Printf_Line@temp| 0))& (0+255)
  3850     041E  0086               	movwf	6
  3851     041F  0187               	clrf	7
  3852     0420  300A               	movlw	10
  3853     0421  00F0               	movwf	___awmod@divisor
  3854     0422  3000               	movlw	0
  3855     0423  00F1               	movwf	___awmod@divisor+1
  3856     0424  0846               	movf	(OLED_Printf_Line@val+1)^(0+128),w
  3857     0425  00F3               	movwf	___awmod@dividend+1
  3858     0426  0845               	movf	OLED_Printf_Line@val^(0+128),w
  3859     0427  00F2               	movwf	___awmod@dividend
  3860     0428  318F  27AD  3183   	fcall	___awmod
  3861     042B  0870               	movf	?___awmod,w
  3862     042C  3E30               	addlw	48
  3863     042D  0081               	movwf	1
  3864     042E                     l2668:
  3865     042E  3001               	movlw	1
  3866     042F  0020               	movlb	0	; select bank0
  3867     0430  00AA               	movwf	??_OLED_Printf_Line
  3868     0431  082A               	movf	??_OLED_Printf_Line,w
  3869     0432  0021               	movlb	1	; select bank1
  3870     0433  07BC               	addwf	OLED_Printf_Line@i^(0+128),f
  3871     0434                     l2670:
  3872                           
  3873                           ;OLED_SSD1306.c: 452:                         val /= 10;
  3874     0434  300A               	movlw	10
  3875     0435  00F0               	movwf	___awdiv@divisor
  3876     0436  3000               	movlw	0
  3877     0437  00F1               	movwf	___awdiv@divisor+1
  3878     0438  0846               	movf	(OLED_Printf_Line@val+1)^(0+128),w
  3879     0439  00F3               	movwf	___awdiv@dividend+1
  3880     043A  0845               	movf	OLED_Printf_Line@val^(0+128),w
  3881     043B  00F2               	movwf	___awdiv@dividend
  3882     043C  3180  208D  3183   	fcall	___awdiv
  3883     043F  0871               	movf	?___awdiv+1,w
  3884     0440  0021               	movlb	1	; select bank1
  3885     0441  00C6               	movwf	(OLED_Printf_Line@val+1)^(0+128)
  3886     0442  0870               	movf	?___awdiv,w
  3887     0443  00C5               	movwf	OLED_Printf_Line@val^(0+128)
  3888     0444                     l2672:
  3889                           
  3890                           ;OLED_SSD1306.c: 453:                     } while (val && i < 6);
  3891     0444  0845               	movf	OLED_Printf_Line@val^(0+128),w
  3892     0445  0446               	iorwf	(OLED_Printf_Line@val+1)^(0+128),w
  3893     0446  1903               	btfsc	3,2
  3894     0447  2C49               	goto	u2721
  3895     0448  2C4A               	goto	u2720
  3896     0449                     u2721:
  3897     0449  2C60               	goto	l2680
  3898     044A                     u2720:
  3899     044A                     l2674:
  3900     044A  3006               	movlw	6
  3901     044B  023C               	subwf	OLED_Printf_Line@i^(0+128),w
  3902     044C  1C03               	skipc
  3903     044D  2C4F               	goto	u2731
  3904     044E  2C50               	goto	u2730
  3905     044F                     u2731:
  3906     044F  2C1C               	goto	l2666
  3907     0450                     u2730:
  3908     0450  2C60               	goto	l2680
  3909     0451                     l2676:
  3910     0451  084B               	movf	OLED_Printf_Line@dst^(0+128),w
  3911     0452  0086               	movwf	6
  3912     0453  0187               	clrf	7
  3913     0454  083C               	movf	OLED_Printf_Line@i^(0+128),w
  3914     0455  3EA0               	addlw	(low (OLED_Printf_Line@temp| 0))& (0+255)
  3915     0456  0084               	movwf	4
  3916     0457  0185               	clrf	5
  3917     0458  0800               	movf	0,w
  3918     0459  0081               	movwf	1
  3919     045A                     l2678:
  3920     045A  3001               	movlw	1
  3921     045B  0020               	movlb	0	; select bank0
  3922     045C  00AA               	movwf	??_OLED_Printf_Line
  3923     045D  082A               	movf	??_OLED_Printf_Line,w
  3924     045E  0021               	movlb	1	; select bank1
  3925     045F  07CB               	addwf	OLED_Printf_Line@dst^(0+128),f
  3926     0460                     l2680:
  3927     0460  3001               	movlw	1
  3928     0461  02BC               	subwf	OLED_Printf_Line@i^(0+128),f
  3929     0462  0A3C               	incf	OLED_Printf_Line@i^(0+128),w
  3930     0463  1D03               	btfss	3,2
  3931     0464  2C66               	goto	u2741
  3932     0465  2C67               	goto	u2740
  3933     0466                     u2741:
  3934     0466  2C51               	goto	l2676
  3935     0467                     u2740:
  3936     0467  2EE5               	goto	l2838
  3937     0468                     l2682:
  3938                           
  3939                           ;OLED_SSD1306.c: 458:                     src++;
  3940     0468  3001               	movlw	1
  3941     0469  07C9               	addwf	OLED_Printf_Line@src^(0+128),f
  3942     046A  3000               	movlw	0
  3943     046B  3DCA               	addwfc	(OLED_Printf_Line@src+1)^(0+128),f
  3944     046C                     l2684:
  3945                           
  3946                           ;OLED_SSD1306.c: 459:                     if (*src == 'u') {
  3947     046C  0849               	movf	OLED_Printf_Line@src^(0+128),w
  3948     046D  0084               	movwf	4
  3949     046E  084A               	movf	(OLED_Printf_Line@src+1)^(0+128),w
  3950     046F  0085               	movwf	5
  3951     0470  0012               	moviw fsr0++
  3952     0471  3A75               	xorlw	117
  3953     0472  1D03               	btfss	3,2
  3954     0473  2C75               	goto	u2751
  3955     0474  2C76               	goto	u2750
  3956     0475                     u2751:
  3957     0475  2CEA               	goto	l2708
  3958     0476                     u2750:
  3959     0476                     l2686:
  3960                           
  3961                           ;OLED_SSD1306.c: 460:                         uint32_t val = (*(uint32_t *)__va_arg(*(ui
      +                          nt32_t **)ap, (uint32_t)0));
  3962     0476  0848               	movf	OLED_Printf_Line@ap^(0+128),w
  3963     0477  0086               	movwf	6
  3964     0478  0187               	clrf	7
  3965     0479  3F40               	moviw [0]fsr1
  3966     047A  00B4               	movwf	OLED_Printf_Line@val_350^(0+128)
  3967     047B  3F41               	moviw [1]fsr1
  3968     047C  00B5               	movwf	(OLED_Printf_Line@val_350+1)^(0+128)
  3969     047D  3F42               	moviw [2]fsr1
  3970     047E  00B6               	movwf	(OLED_Printf_Line@val_350+2)^(0+128)
  3971     047F  3F43               	moviw [3]fsr1
  3972     0480  00B7               	movwf	(OLED_Printf_Line@val_350+3)^(0+128)
  3973     0481                     l2688:
  3974     0481  3004               	movlw	4
  3975     0482  0020               	movlb	0	; select bank0
  3976     0483  00AA               	movwf	??_OLED_Printf_Line
  3977     0484  082A               	movf	??_OLED_Printf_Line,w
  3978     0485  0021               	movlb	1	; select bank1
  3979     0486  07C8               	addwf	OLED_Printf_Line@ap^(0+128),f
  3980     0487                     l2690:
  3981                           
  3982                           ;OLED_SSD1306.c: 461:                         char temp[11];;OLED_SSD1306.c: 462:       
      +                                            uint8_t i = 0;
  3983     0487  01BD               	clrf	OLED_Printf_Line@i_352^(0+128)
  3984     0488                     l2692:
  3985                           
  3986                           ;OLED_SSD1306.c: 464:                             temp[i++] = '0' + (val % 10);
  3987     0488  083D               	movf	OLED_Printf_Line@i_352^(0+128),w
  3988     0489  3E36               	addlw	(low (OLED_Printf_Line@temp_351| 0))& (0+255)
  3989     048A  0086               	movwf	6
  3990     048B  0187               	clrf	7
  3991     048C  3000               	movlw	0
  3992     048D  00F3               	movwf	___llmod@divisor+3
  3993     048E  3000               	movlw	0
  3994     048F  00F2               	movwf	___llmod@divisor+2
  3995     0490  3000               	movlw	0
  3996     0491  00F1               	movwf	___llmod@divisor+1
  3997     0492  300A               	movlw	10
  3998     0493  00F0               	movwf	___llmod@divisor
  3999     0494  0837               	movf	(OLED_Printf_Line@val_350+3)^(0+128),w
  4000     0495  00F7               	movwf	___llmod@dividend+3
  4001     0496  0836               	movf	(OLED_Printf_Line@val_350+2)^(0+128),w
  4002     0497  00F6               	movwf	___llmod@dividend+2
  4003     0498  0835               	movf	(OLED_Printf_Line@val_350+1)^(0+128),w
  4004     0499  00F5               	movwf	___llmod@dividend+1
  4005     049A  0834               	movf	OLED_Printf_Line@val_350^(0+128),w
  4006     049B  00F4               	movwf	___llmod@dividend
  4007     049C  318E  267B  3183   	fcall	___llmod
  4008     049F  0870               	movf	?___llmod,w
  4009     04A0  3E30               	addlw	48
  4010     04A1  0081               	movwf	1
  4011     04A2                     l2694:
  4012     04A2  3001               	movlw	1
  4013     04A3  0020               	movlb	0	; select bank0
  4014     04A4  00AA               	movwf	??_OLED_Printf_Line
  4015     04A5  082A               	movf	??_OLED_Printf_Line,w
  4016     04A6  0021               	movlb	1	; select bank1
  4017     04A7  07BD               	addwf	OLED_Printf_Line@i_352^(0+128),f
  4018     04A8                     l2696:
  4019                           
  4020                           ;OLED_SSD1306.c: 465:                             val /= 10;
  4021     04A8  3000               	movlw	0
  4022     04A9  00F3               	movwf	___lldiv@divisor+3
  4023     04AA  3000               	movlw	0
  4024     04AB  00F2               	movwf	___lldiv@divisor+2
  4025     04AC  3000               	movlw	0
  4026     04AD  00F1               	movwf	___lldiv@divisor+1
  4027     04AE  300A               	movlw	10
  4028     04AF  00F0               	movwf	___lldiv@divisor
  4029     04B0  0837               	movf	(OLED_Printf_Line@val_350+3)^(0+128),w
  4030     04B1  00F7               	movwf	___lldiv@dividend+3
  4031     04B2  0836               	movf	(OLED_Printf_Line@val_350+2)^(0+128),w
  4032     04B3  00F6               	movwf	___lldiv@dividend+2
  4033     04B4  0835               	movf	(OLED_Printf_Line@val_350+1)^(0+128),w
  4034     04B5  00F5               	movwf	___lldiv@dividend+1
  4035     04B6  0834               	movf	OLED_Printf_Line@val_350^(0+128),w
  4036     04B7  00F4               	movwf	___lldiv@dividend
  4037     04B8  3180  2033  3183   	fcall	___lldiv
  4038     04BB  0873               	movf	?___lldiv+3,w
  4039     04BC  0021               	movlb	1	; select bank1
  4040     04BD  00B7               	movwf	(OLED_Printf_Line@val_350+3)^(0+128)
  4041     04BE  0872               	movf	?___lldiv+2,w
  4042     04BF  00B6               	movwf	(OLED_Printf_Line@val_350+2)^(0+128)
  4043     04C0  0871               	movf	?___lldiv+1,w
  4044     04C1  00B5               	movwf	(OLED_Printf_Line@val_350+1)^(0+128)
  4045     04C2  0870               	movf	?___lldiv,w
  4046     04C3  00B4               	movwf	OLED_Printf_Line@val_350^(0+128)
  4047     04C4                     l2698:
  4048                           
  4049                           ;OLED_SSD1306.c: 466:                         } while (val && i < 11);
  4050     04C4  0837               	movf	(OLED_Printf_Line@val_350+3)^(0+128),w
  4051     04C5  0436               	iorwf	(OLED_Printf_Line@val_350+2)^(0+128),w
  4052     04C6  0435               	iorwf	(OLED_Printf_Line@val_350+1)^(0+128),w
  4053     04C7  0434               	iorwf	OLED_Printf_Line@val_350^(0+128),w
  4054     04C8  1903               	skipnz
  4055     04C9  2CCB               	goto	u2761
  4056     04CA  2CCC               	goto	u2760
  4057     04CB                     u2761:
  4058     04CB  2CE2               	goto	l2706
  4059     04CC                     u2760:
  4060     04CC                     l2700:
  4061     04CC  300B               	movlw	11
  4062     04CD  023D               	subwf	OLED_Printf_Line@i_352^(0+128),w
  4063     04CE  1C03               	skipc
  4064     04CF  2CD1               	goto	u2771
  4065     04D0  2CD2               	goto	u2770
  4066     04D1                     u2771:
  4067     04D1  2C88               	goto	l2692
  4068     04D2                     u2770:
  4069     04D2  2CE2               	goto	l2706
  4070     04D3                     l2702:
  4071     04D3  084B               	movf	OLED_Printf_Line@dst^(0+128),w
  4072     04D4  0086               	movwf	6
  4073     04D5  0187               	clrf	7
  4074     04D6  083D               	movf	OLED_Printf_Line@i_352^(0+128),w
  4075     04D7  3E36               	addlw	(low (OLED_Printf_Line@temp_351| 0))& (0+255)
  4076     04D8  0084               	movwf	4
  4077     04D9  0185               	clrf	5
  4078     04DA  0800               	movf	0,w
  4079     04DB  0081               	movwf	1
  4080     04DC                     l2704:
  4081     04DC  3001               	movlw	1
  4082     04DD  0020               	movlb	0	; select bank0
  4083     04DE  00AA               	movwf	??_OLED_Printf_Line
  4084     04DF  082A               	movf	??_OLED_Printf_Line,w
  4085     04E0  0021               	movlb	1	; select bank1
  4086     04E1  07CB               	addwf	OLED_Printf_Line@dst^(0+128),f
  4087     04E2                     l2706:
  4088     04E2  3001               	movlw	1
  4089     04E3  02BD               	subwf	OLED_Printf_Line@i_352^(0+128),f
  4090     04E4  0A3D               	incf	OLED_Printf_Line@i_352^(0+128),w
  4091     04E5  1D03               	btfss	3,2
  4092     04E6  2CE8               	goto	u2781
  4093     04E7  2CE9               	goto	u2780
  4094     04E8                     u2781:
  4095     04E8  2CD3               	goto	l2702
  4096     04E9                     u2780:
  4097     04E9  2DA7               	goto	l2750
  4098     04EA                     l2708:
  4099     04EA  0849               	movf	OLED_Printf_Line@src^(0+128),w
  4100     04EB  0084               	movwf	4
  4101     04EC  084A               	movf	(OLED_Printf_Line@src+1)^(0+128),w
  4102     04ED  0085               	movwf	5
  4103     04EE  0012               	moviw fsr0++
  4104     04EF  3A64               	xorlw	100
  4105     04F0  1D03               	btfss	3,2
  4106     04F1  2CF3               	goto	u2791
  4107     04F2  2CF4               	goto	u2790
  4108     04F3                     u2791:
  4109     04F3  2D82               	goto	l2740
  4110     04F4                     u2790:
  4111     04F4                     l2710:
  4112                           
  4113                           ;OLED_SSD1306.c: 469:                         int32_t val = (*(int32_t *)__va_arg(*(int3
      +                          2_t **)ap, (int32_t)0));
  4114     04F4  0848               	movf	OLED_Printf_Line@ap^(0+128),w
  4115     04F5  0086               	movwf	6
  4116     04F6  0187               	clrf	7
  4117     04F7  3F40               	moviw [0]fsr1
  4118     04F8  00C1               	movwf	OLED_Printf_Line@val_353^(0+128)
  4119     04F9  3F41               	moviw [1]fsr1
  4120     04FA  00C2               	movwf	(OLED_Printf_Line@val_353+1)^(0+128)
  4121     04FB  3F42               	moviw [2]fsr1
  4122     04FC  00C3               	movwf	(OLED_Printf_Line@val_353+2)^(0+128)
  4123     04FD  3F43               	moviw [3]fsr1
  4124     04FE  00C4               	movwf	(OLED_Printf_Line@val_353+3)^(0+128)
  4125     04FF                     l2712:
  4126     04FF  3004               	movlw	4
  4127     0500  0020               	movlb	0	; select bank0
  4128     0501  00AA               	movwf	??_OLED_Printf_Line
  4129     0502  082A               	movf	??_OLED_Printf_Line,w
  4130     0503  0021               	movlb	1	; select bank1
  4131     0504  07C8               	addwf	OLED_Printf_Line@ap^(0+128),f
  4132     0505                     l2714:
  4133                           
  4134                           ;OLED_SSD1306.c: 470:                         if (val < 0) {
  4135     0505  1FC4               	btfss	(OLED_Printf_Line@val_353+3)^(0+128),7
  4136     0506  2D08               	goto	u2801
  4137     0507  2D09               	goto	u2800
  4138     0508                     u2801:
  4139     0508  2D1F               	goto	l2722
  4140     0509                     u2800:
  4141     0509                     l2716:
  4142                           
  4143                           ;OLED_SSD1306.c: 471:                             *dst++ = '-';
  4144     0509  084B               	movf	OLED_Printf_Line@dst^(0+128),w
  4145     050A  0086               	movwf	6
  4146     050B  0187               	clrf	7
  4147     050C  302D               	movlw	45
  4148     050D  0081               	movwf	1
  4149     050E                     l2718:
  4150     050E  3001               	movlw	1
  4151     050F  0020               	movlb	0	; select bank0
  4152     0510  00AA               	movwf	??_OLED_Printf_Line
  4153     0511  082A               	movf	??_OLED_Printf_Line,w
  4154     0512  0021               	movlb	1	; select bank1
  4155     0513  07CB               	addwf	OLED_Printf_Line@dst^(0+128),f
  4156     0514                     l2720:
  4157                           
  4158                           ;OLED_SSD1306.c: 472:                             val = -val;
  4159     0514  09C1               	comf	OLED_Printf_Line@val_353^(0+128),f
  4160     0515  09C2               	comf	(OLED_Printf_Line@val_353+1)^(0+128),f
  4161     0516  09C3               	comf	(OLED_Printf_Line@val_353+2)^(0+128),f
  4162     0517  09C4               	comf	(OLED_Printf_Line@val_353+3)^(0+128),f
  4163     0518  0AC1               	incf	OLED_Printf_Line@val_353^(0+128),f
  4164     0519  1903               	skipnz
  4165     051A  0AC2               	incf	(OLED_Printf_Line@val_353+1)^(0+128),f
  4166     051B  1903               	skipnz
  4167     051C  0AC3               	incf	(OLED_Printf_Line@val_353+2)^(0+128),f
  4168     051D  1903               	skipnz
  4169     051E  0AC4               	incf	(OLED_Printf_Line@val_353+3)^(0+128),f
  4170     051F                     l2722:
  4171                           
  4172                           ;OLED_SSD1306.c: 474:                         char temp[11];;OLED_SSD1306.c: 475:       
      +                                            uint8_t i = 0;
  4173     051F  01BE               	clrf	OLED_Printf_Line@i_355^(0+128)
  4174     0520                     l2724:
  4175                           
  4176                           ;OLED_SSD1306.c: 477:                             temp[i++] = '0' + (val % 10);
  4177     0520  083E               	movf	OLED_Printf_Line@i_355^(0+128),w
  4178     0521  3E41               	addlw	(low (OLED_Printf_Line@temp_354| 0))& (0+255)
  4179     0522  0086               	movwf	6
  4180     0523  0187               	clrf	7
  4181     0524  3000               	movlw	0
  4182     0525  00F3               	movwf	___almod@divisor+3
  4183     0526  3000               	movlw	0
  4184     0527  00F2               	movwf	___almod@divisor+2
  4185     0528  3000               	movlw	0
  4186     0529  00F1               	movwf	___almod@divisor+1
  4187     052A  300A               	movlw	10
  4188     052B  00F0               	movwf	___almod@divisor
  4189     052C  0844               	movf	(OLED_Printf_Line@val_353+3)^(0+128),w
  4190     052D  00F7               	movwf	___almod@dividend+3
  4191     052E  0843               	movf	(OLED_Printf_Line@val_353+2)^(0+128),w
  4192     052F  00F6               	movwf	___almod@dividend+2
  4193     0530  0842               	movf	(OLED_Printf_Line@val_353+1)^(0+128),w
  4194     0531  00F5               	movwf	___almod@dividend+1
  4195     0532  0841               	movf	OLED_Printf_Line@val_353^(0+128),w
  4196     0533  00F4               	movwf	___almod@dividend
  4197     0534  3182  2232  3183   	fcall	___almod
  4198     0537  0870               	movf	?___almod,w
  4199     0538  3E30               	addlw	48
  4200     0539  0081               	movwf	1
  4201     053A                     l2726:
  4202     053A  3001               	movlw	1
  4203     053B  0020               	movlb	0	; select bank0
  4204     053C  00AA               	movwf	??_OLED_Printf_Line
  4205     053D  082A               	movf	??_OLED_Printf_Line,w
  4206     053E  0021               	movlb	1	; select bank1
  4207     053F  07BE               	addwf	OLED_Printf_Line@i_355^(0+128),f
  4208     0540                     l2728:
  4209                           
  4210                           ;OLED_SSD1306.c: 478:                             val /= 10;
  4211     0540  3000               	movlw	0
  4212     0541  00F3               	movwf	___aldiv@divisor+3
  4213     0542  3000               	movlw	0
  4214     0543  00F2               	movwf	___aldiv@divisor+2
  4215     0544  3000               	movlw	0
  4216     0545  00F1               	movwf	___aldiv@divisor+1
  4217     0546  300A               	movlw	10
  4218     0547  00F0               	movwf	___aldiv@divisor
  4219     0548  0844               	movf	(OLED_Printf_Line@val_353+3)^(0+128),w
  4220     0549  00F7               	movwf	___aldiv@dividend+3
  4221     054A  0843               	movf	(OLED_Printf_Line@val_353+2)^(0+128),w
  4222     054B  00F6               	movwf	___aldiv@dividend+2
  4223     054C  0842               	movf	(OLED_Printf_Line@val_353+1)^(0+128),w
  4224     054D  00F5               	movwf	___aldiv@dividend+1
  4225     054E  0841               	movf	OLED_Printf_Line@val_353^(0+128),w
  4226     054F  00F4               	movwf	___aldiv@dividend
  4227     0550  3182  22AD  3183   	fcall	___aldiv
  4228     0553  0873               	movf	?___aldiv+3,w
  4229     0554  0021               	movlb	1	; select bank1
  4230     0555  00C4               	movwf	(OLED_Printf_Line@val_353+3)^(0+128)
  4231     0556  0872               	movf	?___aldiv+2,w
  4232     0557  00C3               	movwf	(OLED_Printf_Line@val_353+2)^(0+128)
  4233     0558  0871               	movf	?___aldiv+1,w
  4234     0559  00C2               	movwf	(OLED_Printf_Line@val_353+1)^(0+128)
  4235     055A  0870               	movf	?___aldiv,w
  4236     055B  00C1               	movwf	OLED_Printf_Line@val_353^(0+128)
  4237     055C                     l2730:
  4238                           
  4239                           ;OLED_SSD1306.c: 479:                         } while (val && i < 11);
  4240     055C  0844               	movf	(OLED_Printf_Line@val_353+3)^(0+128),w
  4241     055D  0443               	iorwf	(OLED_Printf_Line@val_353+2)^(0+128),w
  4242     055E  0442               	iorwf	(OLED_Printf_Line@val_353+1)^(0+128),w
  4243     055F  0441               	iorwf	OLED_Printf_Line@val_353^(0+128),w
  4244     0560  1903               	skipnz
  4245     0561  2D63               	goto	u2811
  4246     0562  2D64               	goto	u2810
  4247     0563                     u2811:
  4248     0563  2D7A               	goto	l2738
  4249     0564                     u2810:
  4250     0564                     l2732:
  4251     0564  300B               	movlw	11
  4252     0565  023E               	subwf	OLED_Printf_Line@i_355^(0+128),w
  4253     0566  1C03               	skipc
  4254     0567  2D69               	goto	u2821
  4255     0568  2D6A               	goto	u2820
  4256     0569                     u2821:
  4257     0569  2D20               	goto	l2724
  4258     056A                     u2820:
  4259     056A  2D7A               	goto	l2738
  4260     056B                     l2734:
  4261     056B  084B               	movf	OLED_Printf_Line@dst^(0+128),w
  4262     056C  0086               	movwf	6
  4263     056D  0187               	clrf	7
  4264     056E  083E               	movf	OLED_Printf_Line@i_355^(0+128),w
  4265     056F  3E41               	addlw	(low (OLED_Printf_Line@temp_354| 0))& (0+255)
  4266     0570  0084               	movwf	4
  4267     0571  0185               	clrf	5
  4268     0572  0800               	movf	0,w
  4269     0573  0081               	movwf	1
  4270     0574                     l2736:
  4271     0574  3001               	movlw	1
  4272     0575  0020               	movlb	0	; select bank0
  4273     0576  00AA               	movwf	??_OLED_Printf_Line
  4274     0577  082A               	movf	??_OLED_Printf_Line,w
  4275     0578  0021               	movlb	1	; select bank1
  4276     0579  07CB               	addwf	OLED_Printf_Line@dst^(0+128),f
  4277     057A                     l2738:
  4278     057A  3001               	movlw	1
  4279     057B  02BE               	subwf	OLED_Printf_Line@i_355^(0+128),f
  4280     057C  0A3E               	incf	OLED_Printf_Line@i_355^(0+128),w
  4281     057D  1D03               	btfss	3,2
  4282     057E  2D80               	goto	u2831
  4283     057F  2D81               	goto	u2830
  4284     0580                     u2831:
  4285     0580  2D6B               	goto	l2734
  4286     0581                     u2830:
  4287     0581  2DA7               	goto	l2750
  4288     0582                     l2740:
  4289                           
  4290                           ;OLED_SSD1306.c: 483:                         *dst++ = '%';
  4291     0582  084B               	movf	OLED_Printf_Line@dst^(0+128),w
  4292     0583  0086               	movwf	6
  4293     0584  0187               	clrf	7
  4294     0585  3025               	movlw	37
  4295     0586  0081               	movwf	1
  4296     0587                     l2742:
  4297     0587  3001               	movlw	1
  4298     0588  0020               	movlb	0	; select bank0
  4299     0589  00AA               	movwf	??_OLED_Printf_Line
  4300     058A  082A               	movf	??_OLED_Printf_Line,w
  4301     058B  0021               	movlb	1	; select bank1
  4302     058C  07CB               	addwf	OLED_Printf_Line@dst^(0+128),f
  4303     058D                     l2744:
  4304                           
  4305                           ;OLED_SSD1306.c: 484:                         *dst++ = 'l';
  4306     058D  084B               	movf	OLED_Printf_Line@dst^(0+128),w
  4307     058E  0086               	movwf	6
  4308     058F  0187               	clrf	7
  4309     0590  306C               	movlw	108
  4310     0591  0081               	movwf	1
  4311     0592  3001               	movlw	1
  4312     0593  0020               	movlb	0	; select bank0
  4313     0594  00AA               	movwf	??_OLED_Printf_Line
  4314     0595  082A               	movf	??_OLED_Printf_Line,w
  4315     0596  0021               	movlb	1	; select bank1
  4316     0597  07CB               	addwf	OLED_Printf_Line@dst^(0+128),f
  4317     0598                     l2746:
  4318                           
  4319                           ;OLED_SSD1306.c: 485:                         *dst++ = *src;
  4320     0598  084B               	movf	OLED_Printf_Line@dst^(0+128),w
  4321     0599  0086               	movwf	6
  4322     059A  0187               	clrf	7
  4323     059B  0849               	movf	OLED_Printf_Line@src^(0+128),w
  4324     059C  0084               	movwf	4
  4325     059D  084A               	movf	(OLED_Printf_Line@src+1)^(0+128),w
  4326     059E  0085               	movwf	5
  4327     059F  0800               	movf	0,w	;code access
  4328     05A0  0081               	movwf	1
  4329     05A1                     l2748:
  4330     05A1  3001               	movlw	1
  4331     05A2  0020               	movlb	0	; select bank0
  4332     05A3  00AA               	movwf	??_OLED_Printf_Line
  4333     05A4  082A               	movf	??_OLED_Printf_Line,w
  4334     05A5  0021               	movlb	1	; select bank1
  4335     05A6  07CB               	addwf	OLED_Printf_Line@dst^(0+128),f
  4336     05A7                     l2750:
  4337                           
  4338                           ;OLED_SSD1306.c: 487:                     src++;
  4339     05A7  3001               	movlw	1
  4340     05A8  07C9               	addwf	OLED_Printf_Line@src^(0+128),f
  4341     05A9  3000               	movlw	0
  4342     05AA  3DCA               	addwfc	(OLED_Printf_Line@src+1)^(0+128),f
  4343                           
  4344                           ;OLED_SSD1306.c: 488:                     break;
  4345     05AB  2EE5               	goto	l2838
  4346     05AC                     l2752:
  4347                           
  4348                           ;OLED_SSD1306.c: 491:                     uint16_t val = (*(unsigned int *)__va_arg(*(un
      +                          signed int **)ap, (unsigned int)0));
  4349     05AC  0848               	movf	OLED_Printf_Line@ap^(0+128),w
  4350     05AD  0086               	movwf	6
  4351     05AE  0187               	clrf	7
  4352     05AF  3F40               	moviw [0]fsr1
  4353     05B0  00B8               	movwf	OLED_Printf_Line@val_356^(0+128)
  4354     05B1  3F41               	moviw [1]fsr1
  4355     05B2  00B9               	movwf	(OLED_Printf_Line@val_356+1)^(0+128)
  4356     05B3                     l2754:
  4357     05B3  3002               	movlw	2
  4358     05B4  0020               	movlb	0	; select bank0
  4359     05B5  00AA               	movwf	??_OLED_Printf_Line
  4360     05B6  082A               	movf	??_OLED_Printf_Line,w
  4361     05B7  0021               	movlb	1	; select bank1
  4362     05B8  07C8               	addwf	OLED_Printf_Line@ap^(0+128),f
  4363     05B9                     l2756:
  4364                           
  4365                           ;OLED_SSD1306.c: 492:                     char temp[6];;OLED_SSD1306.c: 493:            
      +                                   uint8_t i = 0;
  4366     05B9  01BF               	clrf	OLED_Printf_Line@i_358^(0+128)
  4367     05BA                     l2758:
  4368                           
  4369                           ;OLED_SSD1306.c: 495:                         temp[i++] = '0' + (val % 10);
  4370     05BA  083F               	movf	OLED_Printf_Line@i_358^(0+128),w
  4371     05BB  3EA6               	addlw	(low (OLED_Printf_Line@temp_357| 0))& (0+255)
  4372     05BC  0086               	movwf	6
  4373     05BD  0187               	clrf	7
  4374     05BE  300A               	movlw	10
  4375     05BF  00F0               	movwf	___lwmod@divisor
  4376     05C0  3000               	movlw	0
  4377     05C1  00F1               	movwf	___lwmod@divisor+1
  4378     05C2  0839               	movf	(OLED_Printf_Line@val_356+1)^(0+128),w
  4379     05C3  00F3               	movwf	___lwmod@dividend+1
  4380     05C4  0838               	movf	OLED_Printf_Line@val_356^(0+128),w
  4381     05C5  00F2               	movwf	___lwmod@dividend
  4382     05C6  318D  25CA  3183   	fcall	___lwmod
  4383     05C9  0870               	movf	?___lwmod,w
  4384     05CA  3E30               	addlw	48
  4385     05CB  0081               	movwf	1
  4386     05CC                     l2760:
  4387     05CC  3001               	movlw	1
  4388     05CD  0020               	movlb	0	; select bank0
  4389     05CE  00AA               	movwf	??_OLED_Printf_Line
  4390     05CF  082A               	movf	??_OLED_Printf_Line,w
  4391     05D0  0021               	movlb	1	; select bank1
  4392     05D1  07BF               	addwf	OLED_Printf_Line@i_358^(0+128),f
  4393     05D2                     l2762:
  4394                           
  4395                           ;OLED_SSD1306.c: 496:                         val /= 10;
  4396     05D2  300A               	movlw	10
  4397     05D3  00F0               	movwf	___lwdiv@divisor
  4398     05D4  3000               	movlw	0
  4399     05D5  00F1               	movwf	___lwdiv@divisor+1
  4400     05D6  0839               	movf	(OLED_Printf_Line@val_356+1)^(0+128),w
  4401     05D7  00F3               	movwf	___lwdiv@dividend+1
  4402     05D8  0838               	movf	OLED_Printf_Line@val_356^(0+128),w
  4403     05D9  00F2               	movwf	___lwdiv@dividend
  4404     05DA  318D  25FE  3183   	fcall	___lwdiv
  4405     05DD  0871               	movf	?___lwdiv+1,w
  4406     05DE  0021               	movlb	1	; select bank1
  4407     05DF  00B9               	movwf	(OLED_Printf_Line@val_356+1)^(0+128)
  4408     05E0  0870               	movf	?___lwdiv,w
  4409     05E1  00B8               	movwf	OLED_Printf_Line@val_356^(0+128)
  4410     05E2                     l2764:
  4411                           
  4412                           ;OLED_SSD1306.c: 497:                     } while (val && i < 6);
  4413     05E2  0838               	movf	OLED_Printf_Line@val_356^(0+128),w
  4414     05E3  0439               	iorwf	(OLED_Printf_Line@val_356+1)^(0+128),w
  4415     05E4  1903               	btfsc	3,2
  4416     05E5  2DE7               	goto	u2841
  4417     05E6  2DE8               	goto	u2840
  4418     05E7                     u2841:
  4419     05E7  2DFE               	goto	l2772
  4420     05E8                     u2840:
  4421     05E8                     l2766:
  4422     05E8  3006               	movlw	6
  4423     05E9  023F               	subwf	OLED_Printf_Line@i_358^(0+128),w
  4424     05EA  1C03               	skipc
  4425     05EB  2DED               	goto	u2851
  4426     05EC  2DEE               	goto	u2850
  4427     05ED                     u2851:
  4428     05ED  2DBA               	goto	l2758
  4429     05EE                     u2850:
  4430     05EE  2DFE               	goto	l2772
  4431     05EF                     l2768:
  4432     05EF  084B               	movf	OLED_Printf_Line@dst^(0+128),w
  4433     05F0  0086               	movwf	6
  4434     05F1  0187               	clrf	7
  4435     05F2  083F               	movf	OLED_Printf_Line@i_358^(0+128),w
  4436     05F3  3EA6               	addlw	(low (OLED_Printf_Line@temp_357| 0))& (0+255)
  4437     05F4  0084               	movwf	4
  4438     05F5  0185               	clrf	5
  4439     05F6  0800               	movf	0,w
  4440     05F7  0081               	movwf	1
  4441     05F8                     l2770:
  4442     05F8  3001               	movlw	1
  4443     05F9  0020               	movlb	0	; select bank0
  4444     05FA  00AA               	movwf	??_OLED_Printf_Line
  4445     05FB  082A               	movf	??_OLED_Printf_Line,w
  4446     05FC  0021               	movlb	1	; select bank1
  4447     05FD  07CB               	addwf	OLED_Printf_Line@dst^(0+128),f
  4448     05FE                     l2772:
  4449     05FE  3001               	movlw	1
  4450     05FF  02BF               	subwf	OLED_Printf_Line@i_358^(0+128),f
  4451     0600  0A3F               	incf	OLED_Printf_Line@i_358^(0+128),w
  4452     0601  1D03               	btfss	3,2
  4453     0602  2E04               	goto	u2861
  4454     0603  2E05               	goto	u2860
  4455     0604                     u2861:
  4456     0604  2DEF               	goto	l2768
  4457     0605                     u2860:
  4458     0605  2EE5               	goto	l2838
  4459     0606                     l2774:
  4460                           
  4461                           ;OLED_SSD1306.c: 502:                     uint16_t val = (*(unsigned int *)__va_arg(*(un
      +                          signed int **)ap, (unsigned int)0));
  4462     0606  0848               	movf	OLED_Printf_Line@ap^(0+128),w
  4463     0607  0086               	movwf	6
  4464     0608  0187               	clrf	7
  4465     0609  3F40               	moviw [0]fsr1
  4466     060A  0020               	movlb	0	; select bank0
  4467     060B  00EE               	movwf	OLED_Printf_Line@val_359
  4468     060C  3F41               	moviw [1]fsr1
  4469     060D  00EF               	movwf	OLED_Printf_Line@val_359+1
  4470     060E                     l2776:
  4471     060E  3002               	movlw	2
  4472     060F  00AA               	movwf	??_OLED_Printf_Line
  4473     0610  082A               	movf	??_OLED_Printf_Line,w
  4474     0611  0021               	movlb	1	; select bank1
  4475     0612  07C8               	addwf	OLED_Printf_Line@ap^(0+128),f
  4476     0613                     l2778:
  4477                           
  4478                           ;OLED_SSD1306.c: 503:                     char temp[5];;OLED_SSD1306.c: 504:            
      +                                   uint8_t i = 0;
  4479     0613  01C0               	clrf	OLED_Printf_Line@i_361^(0+128)
  4480     0614                     l2780:
  4481                           
  4482                           ;OLED_SSD1306.c: 506:                         uint8_t nibble = val & 0xF;
  4483     0614  0020               	movlb	0	; select bank0
  4484     0615  086E               	movf	OLED_Printf_Line@val_359,w
  4485     0616  390F               	andlw	15
  4486     0617  0021               	movlb	1	; select bank1
  4487     0618  00BA               	movwf	OLED_Printf_Line@nibble^(0+128)
  4488     0619                     l2782:
  4489                           
  4490                           ;OLED_SSD1306.c: 507:                         temp[i++] = (nibble < 10) ? ('0' + nibble)
      +                           : ('A' + nibble - 10);
  4491     0619  300A               	movlw	10
  4492     061A  023A               	subwf	OLED_Printf_Line@nibble^(0+128),w
  4493     061B  1C03               	skipc
  4494     061C  2E1E               	goto	u2871
  4495     061D  2E1F               	goto	u2870
  4496     061E                     u2871:
  4497     061E  2E28               	goto	l2786
  4498     061F                     u2870:
  4499     061F                     l2784:
  4500     061F  083A               	movf	OLED_Printf_Line@nibble^(0+128),w
  4501     0620  3E37               	addlw	55
  4502     0621  0020               	movlb	0	; select bank0
  4503     0622  00EC               	movwf	_OLED_Printf_Line$363
  4504     0623  3000               	movlw	0
  4505     0624  1803               	skipnc
  4506     0625  3001               	movlw	1
  4507     0626  00ED               	movwf	_OLED_Printf_Line$363+1
  4508     0627  2E30               	goto	l2788
  4509     0628                     l2786:
  4510     0628  083A               	movf	OLED_Printf_Line@nibble^(0+128),w
  4511     0629  3E30               	addlw	48
  4512     062A  0020               	movlb	0	; select bank0
  4513     062B  00EC               	movwf	_OLED_Printf_Line$363
  4514     062C  3000               	movlw	0
  4515     062D  1803               	skipnc
  4516     062E  3001               	movlw	1
  4517     062F  00ED               	movwf	_OLED_Printf_Line$363+1
  4518     0630                     l2788:
  4519     0630  0021               	movlb	1	; select bank1
  4520     0631  0840               	movf	OLED_Printf_Line@i_361^(0+128),w
  4521     0632  3EAC               	addlw	(low (OLED_Printf_Line@temp_360| 0))& (0+255)
  4522     0633  0086               	movwf	6
  4523     0634  0187               	clrf	7
  4524     0635  0020               	movlb	0	; select bank0
  4525     0636  086C               	movf	_OLED_Printf_Line$363,w
  4526     0637  0081               	movwf	1
  4527     0638                     l2790:
  4528     0638  3001               	movlw	1
  4529     0639  00AA               	movwf	??_OLED_Printf_Line
  4530     063A  082A               	movf	??_OLED_Printf_Line,w
  4531     063B  0021               	movlb	1	; select bank1
  4532     063C  07C0               	addwf	OLED_Printf_Line@i_361^(0+128),f
  4533     063D                     l2792:
  4534                           
  4535                           ;OLED_SSD1306.c: 508:                         val >>= 4;
  4536     063D  3004               	movlw	4
  4537     063E  0020               	movlb	0	; select bank0
  4538     063F                     u2885:
  4539     063F  36EF               	lsrf	OLED_Printf_Line@val_359+1,f
  4540     0640  0CEE               	rrf	OLED_Printf_Line@val_359,f
  4541     0641  0B89               	decfsz	9,f
  4542     0642  2E3F               	goto	u2885
  4543     0643                     l2794:
  4544                           
  4545                           ;OLED_SSD1306.c: 509:                     } while (val && i < 5);
  4546     0643  086E               	movf	OLED_Printf_Line@val_359,w
  4547     0644  046F               	iorwf	OLED_Printf_Line@val_359+1,w
  4548     0645  1903               	btfsc	3,2
  4549     0646  2E48               	goto	u2891
  4550     0647  2E49               	goto	u2890
  4551     0648                     u2891:
  4552     0648  2E60               	goto	l2802
  4553     0649                     u2890:
  4554     0649                     l2796:
  4555     0649  3005               	movlw	5
  4556     064A  0021               	movlb	1	; select bank1
  4557     064B  0240               	subwf	OLED_Printf_Line@i_361^(0+128),w
  4558     064C  1C03               	skipc
  4559     064D  2E4F               	goto	u2901
  4560     064E  2E50               	goto	u2900
  4561     064F                     u2901:
  4562     064F  2E14               	goto	l2780
  4563     0650                     u2900:
  4564     0650  2E60               	goto	l2802
  4565     0651                     l2798:
  4566     0651  084B               	movf	OLED_Printf_Line@dst^(0+128),w
  4567     0652  0086               	movwf	6
  4568     0653  0187               	clrf	7
  4569     0654  0840               	movf	OLED_Printf_Line@i_361^(0+128),w
  4570     0655  3EAC               	addlw	(low (OLED_Printf_Line@temp_360| 0))& (0+255)
  4571     0656  0084               	movwf	4
  4572     0657  0185               	clrf	5
  4573     0658  0800               	movf	0,w
  4574     0659  0081               	movwf	1
  4575     065A                     l2800:
  4576     065A  3001               	movlw	1
  4577     065B  0020               	movlb	0	; select bank0
  4578     065C  00AA               	movwf	??_OLED_Printf_Line
  4579     065D  082A               	movf	??_OLED_Printf_Line,w
  4580     065E  0021               	movlb	1	; select bank1
  4581     065F  07CB               	addwf	OLED_Printf_Line@dst^(0+128),f
  4582     0660                     l2802:
  4583     0660  3001               	movlw	1
  4584     0661  0021               	movlb	1	; select bank1
  4585     0662  02C0               	subwf	OLED_Printf_Line@i_361^(0+128),f
  4586     0663  0A40               	incf	OLED_Printf_Line@i_361^(0+128),w
  4587     0664  1D03               	btfss	3,2
  4588     0665  2E67               	goto	u2911
  4589     0666  2E68               	goto	u2910
  4590     0667                     u2911:
  4591     0667  2E51               	goto	l2798
  4592     0668                     u2910:
  4593     0668  2EE5               	goto	l2838
  4594     0669                     l2804:
  4595                           
  4596                           ;OLED_SSD1306.c: 514:                     const char *str = (*(const char* *)__va_arg(*(
      +                          const char* **)ap, (const char*)0));
  4597     0669  0848               	movf	OLED_Printf_Line@ap^(0+128),w
  4598     066A  0086               	movwf	6
  4599     066B  0187               	clrf	7
  4600     066C  0801               	movf	1,w
  4601     066D  00B1               	movwf	OLED_Printf_Line@str^(0+128)
  4602     066E                     l2806:
  4603     066E  3001               	movlw	1
  4604     066F  0020               	movlb	0	; select bank0
  4605     0670  00AA               	movwf	??_OLED_Printf_Line
  4606     0671  082A               	movf	??_OLED_Printf_Line,w
  4607     0672  0021               	movlb	1	; select bank1
  4608     0673  07C8               	addwf	OLED_Printf_Line@ap^(0+128),f
  4609                           
  4610                           ;OLED_SSD1306.c: 515:                     while (*str && (dst - buf) < 31) {
  4611     0674  2E89               	goto	l2814
  4612     0675                     l2808:
  4613                           
  4614                           ;OLED_SSD1306.c: 516:                         *dst++ = *str++;
  4615     0675  084B               	movf	OLED_Printf_Line@dst^(0+128),w
  4616     0676  0086               	movwf	6
  4617     0677  0187               	clrf	7
  4618     0678  0831               	movf	OLED_Printf_Line@str^(0+128),w
  4619     0679  0084               	movwf	4
  4620     067A  0185               	clrf	5
  4621     067B  0800               	movf	0,w
  4622     067C  0081               	movwf	1
  4623     067D                     l2810:
  4624     067D  3001               	movlw	1
  4625     067E  0020               	movlb	0	; select bank0
  4626     067F  00AA               	movwf	??_OLED_Printf_Line
  4627     0680  082A               	movf	??_OLED_Printf_Line,w
  4628     0681  0021               	movlb	1	; select bank1
  4629     0682  07B1               	addwf	OLED_Printf_Line@str^(0+128),f
  4630     0683                     l2812:
  4631     0683  3001               	movlw	1
  4632     0684  0020               	movlb	0	; select bank0
  4633     0685  00AA               	movwf	??_OLED_Printf_Line
  4634     0686  082A               	movf	??_OLED_Printf_Line,w
  4635     0687  0021               	movlb	1	; select bank1
  4636     0688  07CB               	addwf	OLED_Printf_Line@dst^(0+128),f
  4637     0689                     l2814:
  4638                           
  4639                           ;OLED_SSD1306.c: 515:                     while (*str && (dst - buf) < 31) {
  4640     0689  0831               	movf	OLED_Printf_Line@str^(0+128),w
  4641     068A  0086               	movwf	6
  4642     068B  0187               	clrf	7
  4643     068C  0801               	movf	1,w
  4644     068D  1903               	btfsc	3,2
  4645     068E  2E90               	goto	u2921
  4646     068F  2E91               	goto	u2920
  4647     0690                     u2921:
  4648     0690  2EE5               	goto	l2838
  4649     0691                     u2920:
  4650     0691                     l2816:
  4651     0691  304C               	movlw	(low OLED_Printf_Line@buf)& (0+255)
  4652     0692  024B               	subwf	OLED_Printf_Line@dst^(0+128),w
  4653     0693  3A80               	xorlw	128
  4654     0694  3E61               	addlw	-159
  4655     0695  1C03               	skipc
  4656     0696  2E98               	goto	u2931
  4657     0697  2E99               	goto	u2930
  4658     0698                     u2931:
  4659     0698  2E75               	goto	l2808
  4660     0699                     u2930:
  4661     0699  2EE5               	goto	l2838
  4662     069A                     l2818:
  4663                           
  4664                           ;OLED_SSD1306.c: 521:                     *dst++ = (char)(*(int *)__va_arg(*(int **)ap, 
      +                          (int)0));
  4665     069A  084B               	movf	OLED_Printf_Line@dst^(0+128),w
  4666     069B  0086               	movwf	6
  4667     069C  0187               	clrf	7
  4668     069D  0848               	movf	OLED_Printf_Line@ap^(0+128),w
  4669     069E  0084               	movwf	4
  4670     069F  0185               	clrf	5
  4671     06A0  0800               	movf	0,w
  4672     06A1  0081               	movwf	1
  4673     06A2                     l2820:
  4674     06A2  3002               	movlw	2
  4675     06A3  0020               	movlb	0	; select bank0
  4676     06A4  00AA               	movwf	??_OLED_Printf_Line
  4677     06A5  082A               	movf	??_OLED_Printf_Line,w
  4678     06A6  0021               	movlb	1	; select bank1
  4679     06A7  07C8               	addwf	OLED_Printf_Line@ap^(0+128),f
  4680     06A8                     l2822:
  4681     06A8  3001               	movlw	1
  4682     06A9  0020               	movlb	0	; select bank0
  4683     06AA  00AA               	movwf	??_OLED_Printf_Line
  4684     06AB  082A               	movf	??_OLED_Printf_Line,w
  4685     06AC  0021               	movlb	1	; select bank1
  4686     06AD  07CB               	addwf	OLED_Printf_Line@dst^(0+128),f
  4687                           
  4688                           ;OLED_SSD1306.c: 522:                     break;
  4689     06AE  2EE5               	goto	l2838
  4690     06AF                     l2824:
  4691                           
  4692                           ;OLED_SSD1306.c: 525:                     *dst++ = '%';
  4693     06AF  084B               	movf	OLED_Printf_Line@dst^(0+128),w
  4694     06B0  0086               	movwf	6
  4695     06B1  0187               	clrf	7
  4696     06B2  3025               	movlw	37
  4697     06B3  0081               	movwf	1
  4698     06B4  2EA8               	goto	l2822
  4699     06B5                     l2828:
  4700                           
  4701                           ;OLED_SSD1306.c: 529:                     *dst++ = '%';
  4702     06B5  084B               	movf	OLED_Printf_Line@dst^(0+128),w
  4703     06B6  0086               	movwf	6
  4704     06B7  0187               	clrf	7
  4705     06B8  3025               	movlw	37
  4706     06B9  0081               	movwf	1
  4707     06BA                     l2830:
  4708     06BA  3001               	movlw	1
  4709     06BB  0020               	movlb	0	; select bank0
  4710     06BC  00AA               	movwf	??_OLED_Printf_Line
  4711     06BD  082A               	movf	??_OLED_Printf_Line,w
  4712     06BE  0021               	movlb	1	; select bank1
  4713     06BF  07CB               	addwf	OLED_Printf_Line@dst^(0+128),f
  4714     06C0                     l2832:
  4715                           
  4716                           ;OLED_SSD1306.c: 530:                     *dst++ = *src;
  4717     06C0  084B               	movf	OLED_Printf_Line@dst^(0+128),w
  4718     06C1  0086               	movwf	6
  4719     06C2  0187               	clrf	7
  4720     06C3  0849               	movf	OLED_Printf_Line@src^(0+128),w
  4721     06C4  0084               	movwf	4
  4722     06C5  084A               	movf	(OLED_Printf_Line@src+1)^(0+128),w
  4723     06C6  0085               	movwf	5
  4724     06C7  0800               	movf	0,w	;code access
  4725     06C8  0081               	movwf	1
  4726     06C9  2EA8               	goto	l2822
  4727     06CA                     l2836:
  4728     06CA  0849               	movf	OLED_Printf_Line@src^(0+128),w
  4729     06CB  0084               	movwf	4
  4730     06CC  084A               	movf	(OLED_Printf_Line@src+1)^(0+128),w
  4731     06CD  0085               	movwf	5
  4732     06CE  0800               	movf	0,w	;code access
  4733                           
  4734                           ; Switch size 1, requested type "simple"
  4735                           ; Number of cases is 7, Range of values is 37 to 120
  4736                           ; switch strategies available:
  4737                           ; Name         Instructions Cycles
  4738                           ; simple_byte           22    12 (average)
  4739                           ; direct_byte          177     9 (fixed)
  4740                           ; jumptable            263     9 (fixed)
  4741                           ;	Chosen strategy is simple_byte
  4742     06CF  3A25               	xorlw	37	; case 37
  4743     06D0  1903               	skipnz
  4744     06D1  2EAF               	goto	l2824
  4745     06D2  3A46               	xorlw	70	; case 99
  4746     06D3  1903               	skipnz
  4747     06D4  2E9A               	goto	l2818
  4748     06D5  3A07               	xorlw	7	; case 100
  4749     06D6  1903               	skipnz
  4750     06D7  2BFA               	goto	l2652
  4751     06D8  3A08               	xorlw	8	; case 108
  4752     06D9  1903               	skipnz
  4753     06DA  2C68               	goto	l2682
  4754     06DB  3A1F               	xorlw	31	; case 115
  4755     06DC  1903               	skipnz
  4756     06DD  2E69               	goto	l2804
  4757     06DE  3A06               	xorlw	6	; case 117
  4758     06DF  1903               	skipnz
  4759     06E0  2DAC               	goto	l2752
  4760     06E1  3A0D               	xorlw	13	; case 120
  4761     06E2  1903               	skipnz
  4762     06E3  2E06               	goto	l2774
  4763     06E4  2EB5               	goto	l2828
  4764     06E5                     l2838:
  4765                           
  4766                           ;OLED_SSD1306.c: 532:             src++;
  4767     06E5  3001               	movlw	1
  4768     06E6  07C9               	addwf	OLED_Printf_Line@src^(0+128),f
  4769     06E7  3000               	movlw	0
  4770     06E8  3DCA               	addwfc	(OLED_Printf_Line@src+1)^(0+128),f
  4771                           
  4772                           ;OLED_SSD1306.c: 533:         } else {
  4773     06E9  2EFD               	goto	l2846
  4774     06EA                     l2840:
  4775                           
  4776                           ;OLED_SSD1306.c: 534:             *dst++ = *src++;
  4777     06EA  084B               	movf	OLED_Printf_Line@dst^(0+128),w
  4778     06EB  0086               	movwf	6
  4779     06EC  0187               	clrf	7
  4780     06ED  0849               	movf	OLED_Printf_Line@src^(0+128),w
  4781     06EE  0084               	movwf	4
  4782     06EF  084A               	movf	(OLED_Printf_Line@src+1)^(0+128),w
  4783     06F0  0085               	movwf	5
  4784     06F1  0800               	movf	0,w	;code access
  4785     06F2  0081               	movwf	1
  4786     06F3                     l2842:
  4787     06F3  3001               	movlw	1
  4788     06F4  07C9               	addwf	OLED_Printf_Line@src^(0+128),f
  4789     06F5  3000               	movlw	0
  4790     06F6  3DCA               	addwfc	(OLED_Printf_Line@src+1)^(0+128),f
  4791     06F7                     l2844:
  4792     06F7  3001               	movlw	1
  4793     06F8  0020               	movlb	0	; select bank0
  4794     06F9  00AA               	movwf	??_OLED_Printf_Line
  4795     06FA  082A               	movf	??_OLED_Printf_Line,w
  4796     06FB  0021               	movlb	1	; select bank1
  4797     06FC  07CB               	addwf	OLED_Printf_Line@dst^(0+128),f
  4798     06FD                     l2846:
  4799                           
  4800                           ;OLED_SSD1306.c: 437:     while (*src && (dst - buf) < 31) {
  4801     06FD  0849               	movf	OLED_Printf_Line@src^(0+128),w
  4802     06FE  0084               	movwf	4
  4803     06FF  084A               	movf	(OLED_Printf_Line@src+1)^(0+128),w
  4804     0700  0085               	movwf	5
  4805     0701  0012               	moviw fsr0++
  4806     0702  1903               	btfsc	3,2
  4807     0703  2F05               	goto	u2941
  4808     0704  2F06               	goto	u2940
  4809     0705                     u2941:
  4810     0705  2F0E               	goto	l2850
  4811     0706                     u2940:
  4812     0706                     l2848:
  4813     0706  304C               	movlw	(low OLED_Printf_Line@buf)& (0+255)
  4814     0707  024B               	subwf	OLED_Printf_Line@dst^(0+128),w
  4815     0708  3A80               	xorlw	128
  4816     0709  3E61               	addlw	-159
  4817     070A  1C03               	skipc
  4818     070B  2F0D               	goto	u2951
  4819     070C  2F0E               	goto	u2950
  4820     070D                     u2951:
  4821     070D  2BEB               	goto	l2648
  4822     070E                     u2950:
  4823     070E                     l2850:
  4824                           
  4825                           ;OLED_SSD1306.c: 537:     *dst = '\0';
  4826     070E  084B               	movf	OLED_Printf_Line@dst^(0+128),w
  4827     070F  0086               	movwf	6
  4828     0710  0187               	clrf	7
  4829     0711  0181               	clrf	1
  4830     0712                     l2852:
  4831                           
  4832                           ;OLED_SSD1306.c: 541:     if (strcmp(buf, last_text[line]) == 0) return;
  4833     0712  0847               	movf	OLED_Printf_Line@line^(0+128),w
  4834     0713  0020               	movlb	0	; select bank0
  4835     0714  00AA               	movwf	??_OLED_Printf_Line
  4836     0715  01AB               	clrf	??_OLED_Printf_Line+1
  4837     0716  3005               	movlw	5
  4838     0717                     u2965:
  4839     0717  35AA               	lslf	??_OLED_Printf_Line,f
  4840     0718  0DAB               	rlf	??_OLED_Printf_Line+1,f
  4841     0719  0B89               	decfsz	9,f
  4842     071A  2F17               	goto	u2965
  4843     071B  30F0               	movlw	240
  4844     071C  00AC               	movwf	??_OLED_Printf_Line+2
  4845     071D  3026               	movlw	38
  4846     071E  00AD               	movwf	??_OLED_Printf_Line+3
  4847     071F  082A               	movf	??_OLED_Printf_Line,w
  4848     0720  072C               	addwf	??_OLED_Printf_Line+2,w
  4849     0721  00AE               	movwf	??_OLED_Printf_Line+4
  4850     0722  082B               	movf	??_OLED_Printf_Line+1,w
  4851     0723  3D2D               	addwfc	??_OLED_Printf_Line+3,w
  4852     0724  00AF               	movwf	??_OLED_Printf_Line+5
  4853     0725  082E               	movf	??_OLED_Printf_Line+4,w
  4854     0726  00F0               	movwf	strcmp@r
  4855     0727  082F               	movf	??_OLED_Printf_Line+5,w
  4856     0728  00F1               	movwf	strcmp@r+1
  4857     0729  304C               	movlw	(low (OLED_Printf_Line@buf| 0))& (0+255)
  4858     072A  318D  256B  3183   	fcall	_strcmp
  4859     072D  0870               	movf	?_strcmp,w
  4860     072E  0471               	iorwf	?_strcmp+1,w
  4861     072F  1D03               	btfss	3,2
  4862     0730  2F32               	goto	u2971
  4863     0731  2F33               	goto	u2970
  4864     0732                     u2971:
  4865     0732  2F34               	goto	l2856
  4866     0733                     u2970:
  4867     0733  2FED               	goto	l166
  4868     0734                     l2856:
  4869                           
  4870                           ;OLED_SSD1306.c: 542:     strcpy(last_text[line], buf);
  4871     0734  0021               	movlb	1	; select bank1
  4872     0735  0847               	movf	OLED_Printf_Line@line^(0+128),w
  4873     0736  0020               	movlb	0	; select bank0
  4874     0737  00AA               	movwf	??_OLED_Printf_Line
  4875     0738  01AB               	clrf	??_OLED_Printf_Line+1
  4876     0739  3005               	movlw	5
  4877     073A                     u2985:
  4878     073A  35AA               	lslf	??_OLED_Printf_Line,f
  4879     073B  0DAB               	rlf	??_OLED_Printf_Line+1,f
  4880     073C  0B89               	decfsz	9,f
  4881     073D  2F3A               	goto	u2985
  4882     073E  30F0               	movlw	240
  4883     073F  00AC               	movwf	??_OLED_Printf_Line+2
  4884     0740  3026               	movlw	38
  4885     0741  00AD               	movwf	??_OLED_Printf_Line+3
  4886     0742  082A               	movf	??_OLED_Printf_Line,w
  4887     0743  072C               	addwf	??_OLED_Printf_Line+2,w
  4888     0744  00F0               	movwf	strcpy@dest
  4889     0745  082B               	movf	??_OLED_Printf_Line+1,w
  4890     0746  3D2D               	addwfc	??_OLED_Printf_Line+3,w
  4891     0747  00F1               	movwf	strcpy@dest+1
  4892     0748  304C               	movlw	(low (OLED_Printf_Line@buf| 0))& (0+255)
  4893     0749  00F2               	movwf	strcpy@src
  4894     074A  318C  2413  3183   	fcall	_strcpy
  4895     074D                     l2858:
  4896                           
  4897                           ;OLED_SSD1306.c: 545:     memset(screen_buffer[line], 0, 128);
  4898     074D  0021               	movlb	1	; select bank1
  4899     074E  0847               	movf	OLED_Printf_Line@line^(0+128),w
  4900     074F  0020               	movlb	0	; select bank0
  4901     0750  00AA               	movwf	??_OLED_Printf_Line
  4902     0751  01AB               	clrf	??_OLED_Printf_Line+1
  4903     0752  3007               	movlw	7
  4904     0753                     u2995:
  4905     0753  35AA               	lslf	??_OLED_Printf_Line,f
  4906     0754  0DAB               	rlf	??_OLED_Printf_Line+1,f
  4907     0755  0B89               	decfsz	9,f
  4908     0756  2F53               	goto	u2995
  4909     0757  30F0               	movlw	240
  4910     0758  00AC               	movwf	??_OLED_Printf_Line+2
  4911     0759  3024               	movlw	36
  4912     075A  00AD               	movwf	??_OLED_Printf_Line+3
  4913     075B  082A               	movf	??_OLED_Printf_Line,w
  4914     075C  072C               	addwf	??_OLED_Printf_Line+2,w
  4915     075D  00F0               	movwf	memset@dest
  4916     075E  082B               	movf	??_OLED_Printf_Line+1,w
  4917     075F  3D2D               	addwfc	??_OLED_Printf_Line+3,w
  4918     0760  00F1               	movwf	memset@dest+1
  4919     0761  3000               	movlw	0
  4920     0762  00F2               	movwf	memset@c
  4921     0763  00F3               	movwf	memset@c+1
  4922     0764  3080               	movlw	128
  4923     0765  00F4               	movwf	memset@n
  4924     0766  3000               	movlw	0
  4925     0767  00F5               	movwf	memset@n+1
  4926     0768  318C  242E  3183   	fcall	_memset
  4927     076B                     l2860:
  4928                           
  4929                           ;OLED_SSD1306.c: 548:     uint8_t col = 0;
  4930     076B  0021               	movlb	1	; select bank1
  4931     076C  01B2               	clrf	OLED_Printf_Line@col^(0+128)
  4932     076D                     l2862:
  4933                           
  4934                           ;OLED_SSD1306.c: 549:     for (const char* p = buf; *p && (col + 8) <= 128; ++p)
  4935     076D  304C               	movlw	(low (OLED_Printf_Line@buf| 0))& (0+255)
  4936     076E  00B3               	movwf	OLED_Printf_Line@p^(0+128)
  4937     076F  2FCB               	goto	l2878
  4938     0770                     l2864:
  4939                           
  4940                           ;OLED_SSD1306.c: 550:     {;OLED_SSD1306.c: 551:         char ch = *p;
  4941     0770  0021               	movlb	1	; select bank1
  4942     0771  0833               	movf	OLED_Printf_Line@p^(0+128),w
  4943     0772  0086               	movwf	6
  4944     0773  0187               	clrf	7
  4945     0774  0801               	movf	1,w
  4946     0775  00BB               	movwf	OLED_Printf_Line@ch^(0+128)
  4947     0776                     l2866:
  4948                           
  4949                           ;OLED_SSD1306.c: 552:         if (ch < 32 || ch > 127) ch = ' ';
  4950     0776  3020               	movlw	32
  4951     0777  023B               	subwf	OLED_Printf_Line@ch^(0+128),w
  4952     0778  1C03               	skipc
  4953     0779  2F7B               	goto	u3001
  4954     077A  2F7C               	goto	u3000
  4955     077B                     u3001:
  4956     077B  2F82               	goto	l2870
  4957     077C                     u3000:
  4958     077C                     l2868:
  4959     077C  3080               	movlw	128
  4960     077D  023B               	subwf	OLED_Printf_Line@ch^(0+128),w
  4961     077E  1C03               	skipc
  4962     077F  2F81               	goto	u3011
  4963     0780  2F82               	goto	u3010
  4964     0781                     u3011:
  4965     0781  2F84               	goto	l2872
  4966     0782                     u3010:
  4967     0782                     l2870:
  4968     0782  3020               	movlw	32
  4969     0783  00BB               	movwf	OLED_Printf_Line@ch^(0+128)
  4970     0784                     l2872:
  4971                           
  4972                           ;OLED_SSD1306.c: 554:         memcpy(&screen_buffer[line][col], &OledFont[(uint8_t)(ch -
      +                           32)][0], 8);
  4973     0784  0832               	movf	OLED_Printf_Line@col^(0+128),w
  4974     0785  0020               	movlb	0	; select bank0
  4975     0786  00AA               	movwf	??_OLED_Printf_Line
  4976     0787  01AB               	clrf	??_OLED_Printf_Line+1
  4977     0788  0021               	movlb	1	; select bank1
  4978     0789  0847               	movf	OLED_Printf_Line@line^(0+128),w
  4979     078A  0020               	movlb	0	; select bank0
  4980     078B  00AC               	movwf	??_OLED_Printf_Line+2
  4981     078C  01AD               	clrf	??_OLED_Printf_Line+3
  4982     078D  3007               	movlw	7
  4983     078E                     u3025:
  4984     078E  35AC               	lslf	??_OLED_Printf_Line+2,f
  4985     078F  0DAD               	rlf	??_OLED_Printf_Line+3,f
  4986     0790  0B89               	decfsz	9,f
  4987     0791  2F8E               	goto	u3025
  4988     0792  30F0               	movlw	240
  4989     0793  00AE               	movwf	??_OLED_Printf_Line+4
  4990     0794  3024               	movlw	36
  4991     0795  00AF               	movwf	??_OLED_Printf_Line+5
  4992     0796  082C               	movf	??_OLED_Printf_Line+2,w
  4993     0797  072E               	addwf	??_OLED_Printf_Line+4,w
  4994     0798  00B0               	movwf	??_OLED_Printf_Line+6
  4995     0799  082D               	movf	??_OLED_Printf_Line+3,w
  4996     079A  3D2F               	addwfc	??_OLED_Printf_Line+5,w
  4997     079B  00B1               	movwf	??_OLED_Printf_Line+7
  4998     079C  082A               	movf	??_OLED_Printf_Line,w
  4999     079D  0730               	addwf	??_OLED_Printf_Line+6,w
  5000     079E  00F0               	movwf	memcpy@d1
  5001     079F  082B               	movf	??_OLED_Printf_Line+1,w
  5002     07A0  3D31               	addwfc	??_OLED_Printf_Line+7,w
  5003     07A1  00F1               	movwf	memcpy@d1+1
  5004     07A2  0021               	movlb	1	; select bank1
  5005     07A3  083B               	movf	OLED_Printf_Line@ch^(0+128),w
  5006     07A4  3EE0               	addlw	224
  5007     07A5  0020               	movlb	0	; select bank0
  5008     07A6  00B2               	movwf	??_OLED_Printf_Line+8
  5009     07A7  01B3               	clrf	??_OLED_Printf_Line+9
  5010     07A8  35B2               	lslf	??_OLED_Printf_Line+8,f
  5011     07A9  0DB3               	rlf	??_OLED_Printf_Line+9,f
  5012     07AA  35B2               	lslf	??_OLED_Printf_Line+8,f
  5013     07AB  0DB3               	rlf	??_OLED_Printf_Line+9,f
  5014     07AC  35B2               	lslf	??_OLED_Printf_Line+8,f
  5015     07AD  0DB3               	rlf	??_OLED_Printf_Line+9,f
  5016     07AE  3000               	movlw	low (_OledFont| (0+32768))
  5017     07AF  00B4               	movwf	??_OLED_Printf_Line+10
  5018     07B0  3088               	movlw	high (_OledFont| (0+32768))
  5019     07B1  00B5               	movwf	??_OLED_Printf_Line+11
  5020     07B2  0832               	movf	??_OLED_Printf_Line+8,w
  5021     07B3  0734               	addwf	??_OLED_Printf_Line+10,w
  5022     07B4  00F2               	movwf	memcpy@s1
  5023     07B5  0833               	movf	??_OLED_Printf_Line+9,w
  5024     07B6  3D35               	addwfc	??_OLED_Printf_Line+11,w
  5025     07B7  00F3               	movwf	memcpy@s1+1
  5026     07B8  3008               	movlw	8
  5027     07B9  00F4               	movwf	memcpy@n
  5028     07BA  3000               	movlw	0
  5029     07BB  00F5               	movwf	memcpy@n+1
  5030     07BC  318D  2515  3183   	fcall	_memcpy
  5031     07BF                     l2874:
  5032                           
  5033                           ;OLED_SSD1306.c: 555:         col += 8;
  5034     07BF  3008               	movlw	8
  5035     07C0  0020               	movlb	0	; select bank0
  5036     07C1  00AA               	movwf	??_OLED_Printf_Line
  5037     07C2  082A               	movf	??_OLED_Printf_Line,w
  5038     07C3  0021               	movlb	1	; select bank1
  5039     07C4  07B2               	addwf	OLED_Printf_Line@col^(0+128),f
  5040     07C5                     l2876:
  5041                           
  5042                           ;OLED_SSD1306.c: 556:     }
  5043     07C5  3001               	movlw	1
  5044     07C6  0020               	movlb	0	; select bank0
  5045     07C7  00AA               	movwf	??_OLED_Printf_Line
  5046     07C8  082A               	movf	??_OLED_Printf_Line,w
  5047     07C9  0021               	movlb	1	; select bank1
  5048     07CA  07B3               	addwf	OLED_Printf_Line@p^(0+128),f
  5049     07CB                     l2878:
  5050     07CB  0833               	movf	OLED_Printf_Line@p^(0+128),w
  5051     07CC  0086               	movwf	6
  5052     07CD  0187               	clrf	7
  5053     07CE  0801               	movf	1,w
  5054     07CF  1903               	btfsc	3,2
  5055     07D0  2FD2               	goto	u3031
  5056     07D1  2FD3               	goto	u3030
  5057     07D2                     u3031:
  5058     07D2  2FE8               	goto	l2882
  5059     07D3                     u3030:
  5060     07D3                     l2880:
  5061     07D3  0832               	movf	OLED_Printf_Line@col^(0+128),w
  5062     07D4  3E08               	addlw	8
  5063     07D5  0020               	movlb	0	; select bank0
  5064     07D6  00AA               	movwf	??_OLED_Printf_Line
  5065     07D7  3000               	movlw	0
  5066     07D8  1803               	skipnc
  5067     07D9  3001               	movlw	1
  5068     07DA  00AB               	movwf	??_OLED_Printf_Line+1
  5069     07DB  082B               	movf	??_OLED_Printf_Line+1,w
  5070     07DC  3A80               	xorlw	128
  5071     07DD  00AC               	movwf	??_OLED_Printf_Line+2
  5072     07DE  3080               	movlw	128
  5073     07DF  022C               	subwf	??_OLED_Printf_Line+2,w
  5074     07E0  1D03               	skipz
  5075     07E1  2FE4               	goto	u3045
  5076     07E2  3081               	movlw	129
  5077     07E3  022A               	subwf	??_OLED_Printf_Line,w
  5078     07E4                     u3045:
  5079     07E4  1C03               	skipc
  5080     07E5  2FE7               	goto	u3041
  5081     07E6  2FE8               	goto	u3040
  5082     07E7                     u3041:
  5083     07E7  2F70               	goto	l2864
  5084     07E8                     u3040:
  5085     07E8                     l2882:
  5086                           
  5087                           ;OLED_SSD1306.c: 558:     OLED_UpdateLine(line);
  5088     07E8  0021               	movlb	1	; select bank1
  5089     07E9  0847               	movf	OLED_Printf_Line@line^(0+128),w
  5090     07EA  318D  253F  3183   	fcall	_OLED_UpdateLine
  5091     07ED                     l166:
  5092     07ED  0008               	return
  5093     07EE                     __end_of_OLED_Printf_Line:
  5094                           
  5095                           	psect	text7
  5096     0C13                     __ptext7:	
  5097 ;; *************** function _strcpy *****************
  5098 ;; Defined at:
  5099 ;;		line 3 in file "C:\Program Files\Microchip\xc8\v2.46\pic\sources\c99\common\strcpy.c"
  5100 ;; Parameters:    Size  Location     Type
  5101 ;;  dest            2    0[COMMON] PTR unsigned char 
  5102 ;;		 -> OLED_Printf_Line@last_text(256), 
  5103 ;;  src             1    2[COMMON] PTR const unsigned char 
  5104 ;;		 -> OLED_Printf_Line@buf(32), 
  5105 ;; Auto vars:     Size  Location     Type
  5106 ;;  d               2    5[COMMON] PTR unsigned char 
  5107 ;;		 -> OLED_Printf_Line@last_text(256), 
  5108 ;; Return value:  Size  Location     Type
  5109 ;;                  2    0[COMMON] PTR unsigned char 
  5110 ;; Registers used:
  5111 ;;		wreg, fsr0l, fsr0h, fsr1l, fsr1h, status,2, status,0
  5112 ;; Tracked objects:
  5113 ;;		On entry : 0/0
  5114 ;;		On exit  : 0/0
  5115 ;;		Unchanged: 0/0
  5116 ;; Data sizes:     COMMON   BANK0   BANK1   BANK2   BANK3   BANK4   BANK5   BANK6   BANK7   BANK8   BANK9  BANK10  BANK1
      +1  BANK12  BANK13  BANK14  BANK15  BANK16  BANK17  BANK18  BANK19  BANK20  BANK21  BANK22  BANK23  BANK24  BANK25
  5117 ;;      Params:         3       0       0       0       0       0       0       0       0       0       0       0       
      +0       0       0       0       0       0       0       0       0       0       0       0       0       0       0
  5118 ;;      Locals:         2       0       0       0       0       0       0       0       0       0       0       0       
      +0       0       0       0       0       0       0       0       0       0       0       0       0       0       0
  5119 ;;      Temps:          2       0       0       0       0       0       0       0       0       0       0       0       
      +0       0       0       0       0       0       0       0       0       0       0       0       0       0       0
  5120 ;;      Totals:         7       0       0       0       0       0       0       0       0       0       0       0       
      +0       0       0       0       0       0       0       0       0       0       0       0       0       0       0
  5121 ;;Total ram usage:        7 bytes
  5122 ;; Hardware stack levels used: 1
  5123 ;; This function calls:
  5124 ;;		Nothing
  5125 ;; This function is called by:
  5126 ;;		_OLED_Printf_Line
  5127 ;; This function uses a non-reentrant model
  5128 ;;
  5129                           
  5130     0C13                     _strcpy:	
  5131                           ;psect for function _strcpy
  5132                           
  5133     0C13                     l2284:	
  5134                           ;incstack = 0
  5135                           ; Regs used in _strcpy: [wreg-fsr1h+status,2+status,0]
  5136                           
  5137     0C13  0871               	movf	strcpy@dest+1,w
  5138     0C14  00F6               	movwf	strcpy@d+1
  5139     0C15  0870               	movf	strcpy@dest,w
  5140     0C16  00F5               	movwf	strcpy@d
  5141     0C17                     l2286:
  5142     0C17  0876               	movf	strcpy@d+1,w
  5143     0C18  00F4               	movwf	??_strcpy+1
  5144     0C19  0875               	movf	strcpy@d,w
  5145     0C1A  00F3               	movwf	??_strcpy
  5146     0C1B  0AF5               	incf	strcpy@d,f
  5147     0C1C  1903               	skipnz
  5148     0C1D  0AF6               	incf	strcpy@d+1,f
  5149     0C1E  0873               	movf	??_strcpy,w
  5150     0C1F  0086               	movwf	6
  5151     0C20  0874               	movf	??_strcpy+1,w
  5152     0C21  0087               	movwf	7
  5153     0C22  0872               	movf	strcpy@src,w
  5154     0C23  0084               	movwf	4
  5155     0C24  0185               	clrf	5
  5156     0C25  0AF2               	incf	strcpy@src,f
  5157     0C26  0800               	movf	0,w
  5158     0C27  3FC0               	movwi [0]fsr1
  5159     0C28  0889               	movf	9,f
  5160     0C29  1D03               	btfss	3,2
  5161     0C2A  2C2C               	goto	u2031
  5162     0C2B  2C2D               	goto	u2030
  5163     0C2C                     u2031:
  5164     0C2C  2C17               	goto	l2286
  5165     0C2D                     u2030:
  5166     0C2D                     l948:
  5167     0C2D  0008               	return
  5168     0C2E                     __end_of_strcpy:
  5169                           
  5170                           	psect	text8
  5171     0D6B                     __ptext8:	
  5172 ;; *************** function _strcmp *****************
  5173 ;; Defined at:
  5174 ;;		line 3 in file "C:\Program Files\Microchip\xc8\v2.46\pic\sources\c99\common\strcmp.c"
  5175 ;; Parameters:    Size  Location     Type
  5176 ;;  l               1    wreg     PTR const unsigned char 
  5177 ;;		 -> OLED_Printf_Line@buf(32), 
  5178 ;;  r               2    0[COMMON] PTR const unsigned char 
  5179 ;;		 -> OLED_Printf_Line@last_text(256), 
  5180 ;; Auto vars:     Size  Location     Type
  5181 ;;  l               1    3[COMMON] PTR const unsigned char 
  5182 ;;		 -> OLED_Printf_Line@buf(32), 
  5183 ;; Return value:  Size  Location     Type
  5184 ;;                  2    0[COMMON] int 
  5185 ;; Registers used:
  5186 ;;		wreg, fsr0l, fsr0h, fsr1l, fsr1h, status,2, status,0
  5187 ;; Tracked objects:
  5188 ;;		On entry : 0/0
  5189 ;;		On exit  : 0/0
  5190 ;;		Unchanged: 0/0
  5191 ;; Data sizes:     COMMON   BANK0   BANK1   BANK2   BANK3   BANK4   BANK5   BANK6   BANK7   BANK8   BANK9  BANK10  BANK1
      +1  BANK12  BANK13  BANK14  BANK15  BANK16  BANK17  BANK18  BANK19  BANK20  BANK21  BANK22  BANK23  BANK24  BANK25
  5192 ;;      Params:         2       0       0       0       0       0       0       0       0       0       0       0       
      +0       0       0       0       0       0       0       0       0       0       0       0       0       0       0
  5193 ;;      Locals:         1       0       0       0       0       0       0       0       0       0       0       0       
      +0       0       0       0       0       0       0       0       0       0       0       0       0       0       0
  5194 ;;      Temps:          1       0       0       0       0       0       0       0       0       0       0       0       
      +0       0       0       0       0       0       0       0       0       0       0       0       0       0       0
  5195 ;;      Totals:         4       0       0       0       0       0       0       0       0       0       0       0       
      +0       0       0       0       0       0       0       0       0       0       0       0       0       0       0
  5196 ;;Total ram usage:        4 bytes
  5197 ;; Hardware stack levels used: 1
  5198 ;; This function calls:
  5199 ;;		Nothing
  5200 ;; This function is called by:
  5201 ;;		_OLED_Printf_Line
  5202 ;; This function uses a non-reentrant model
  5203 ;;
  5204                           
  5205     0D6B                     _strcmp:	
  5206                           ;psect for function _strcmp
  5207                           
  5208                           
  5209                           ;incstack = 0
  5210                           ; Regs used in _strcmp: [wreg-fsr1h+status,2+status,0]
  5211                           ;strcmp@l stored from wreg
  5212     0D6B  00F3               	movwf	strcmp@l
  5213     0D6C                     l2272:
  5214     0D6C  2D75               	goto	l2276
  5215     0D6D                     l2274:
  5216     0D6D  3001               	movlw	1
  5217     0D6E  00F2               	movwf	??_strcmp
  5218     0D6F  0872               	movf	??_strcmp,w
  5219     0D70  07F3               	addwf	strcmp@l,f
  5220     0D71  3001               	movlw	1
  5221     0D72  07F0               	addwf	strcmp@r,f
  5222     0D73  3000               	movlw	0
  5223     0D74  3DF1               	addwfc	strcmp@r+1,f
  5224     0D75                     l2276:
  5225     0D75  0870               	movf	strcmp@r,w
  5226     0D76  0086               	movwf	6
  5227     0D77  0871               	movf	strcmp@r+1,w
  5228     0D78  0087               	movwf	7
  5229     0D79  0873               	movf	strcmp@l,w
  5230     0D7A  0084               	movwf	4
  5231     0D7B  0185               	clrf	5
  5232     0D7C  0800               	movf	0,w
  5233     0D7D  0601               	xorwf	1,w
  5234     0D7E  1D03               	skipz
  5235     0D7F  2D81               	goto	u2011
  5236     0D80  2D82               	goto	u2010
  5237     0D81                     u2011:
  5238     0D81  2D8A               	goto	l2280
  5239     0D82                     u2010:
  5240     0D82                     l2278:
  5241     0D82  0873               	movf	strcmp@l,w
  5242     0D83  0086               	movwf	6
  5243     0D84  0187               	clrf	7
  5244     0D85  0801               	movf	1,w
  5245     0D86  1D03               	btfss	3,2
  5246     0D87  2D89               	goto	u2021
  5247     0D88  2D8A               	goto	u2020
  5248     0D89                     u2021:
  5249     0D89  2D6D               	goto	l2274
  5250     0D8A                     u2020:
  5251     0D8A                     l2280:
  5252     0D8A  0873               	movf	strcmp@l,w
  5253     0D8B  0086               	movwf	6
  5254     0D8C  0187               	clrf	7
  5255     0D8D  0870               	movf	strcmp@r,w
  5256     0D8E  0084               	movwf	4
  5257     0D8F  0871               	movf	strcmp@r+1,w
  5258     0D90  0085               	movwf	5
  5259     0D91  0800               	movf	0,w
  5260     0D92  0201               	subwf	1,w
  5261     0D93  00F0               	movwf	?_strcmp
  5262     0D94  01F1               	clrf	?_strcmp+1
  5263     0D95  1C03               	skipc
  5264     0D96  03F1               	decf	?_strcmp+1,f
  5265     0D97                     l942:
  5266     0D97  0008               	return
  5267     0D98                     __end_of_strcmp:
  5268                           
  5269                           	psect	text9
  5270     0D15                     __ptext9:	
  5271 ;; *************** function _memcpy *****************
  5272 ;; Defined at:
  5273 ;;		line 4 in file "C:\Program Files\Microchip\xc8\v2.46\pic\sources\c99\common\memcpy.c"
  5274 ;; Parameters:    Size  Location     Type
  5275 ;;  d1              2    0[COMMON] PTR void 
  5276 ;;		 -> screen_buffer(512), 
  5277 ;;  s1              2    2[COMMON] PTR const void 
  5278 ;;		 -> OledFont(768), 
  5279 ;;  n               2    4[COMMON] unsigned int 
  5280 ;; Auto vars:     Size  Location     Type
  5281 ;;  s               2    8[COMMON] PTR const unsigned char 
  5282 ;;		 -> OledFont(768), 
  5283 ;;  d               2    6[COMMON] PTR unsigned char 
  5284 ;;		 -> screen_buffer(512), 
  5285 ;;  tmp             1   10[COMMON] unsigned char 
  5286 ;; Return value:  Size  Location     Type
  5287 ;;                  2    0[COMMON] PTR void 
  5288 ;; Registers used:
  5289 ;;		wreg, fsr0l, fsr0h, fsr1l, fsr1h, status,2, status,0, pclath
  5290 ;; Tracked objects:
  5291 ;;		On entry : 0/0
  5292 ;;		On exit  : 0/0
  5293 ;;		Unchanged: 0/0
  5294 ;; Data sizes:     COMMON   BANK0   BANK1   BANK2   BANK3   BANK4   BANK5   BANK6   BANK7   BANK8   BANK9  BANK10  BANK1
      +1  BANK12  BANK13  BANK14  BANK15  BANK16  BANK17  BANK18  BANK19  BANK20  BANK21  BANK22  BANK23  BANK24  BANK25
  5295 ;;      Params:         6       0       0       0       0       0       0       0       0       0       0       0       
      +0       0       0       0       0       0       0       0       0       0       0       0       0       0       0
  5296 ;;      Locals:         5       0       0       0       0       0       0       0       0       0       0       0       
      +0       0       0       0       0       0       0       0       0       0       0       0       0       0       0
  5297 ;;      Temps:          0       0       0       0       0       0       0       0       0       0       0       0       
      +0       0       0       0       0       0       0       0       0       0       0       0       0       0       0
  5298 ;;      Totals:        11       0       0       0       0       0       0       0       0       0       0       0       
      +0       0       0       0       0       0       0       0       0       0       0       0       0       0       0
  5299 ;;Total ram usage:       11 bytes
  5300 ;; Hardware stack levels used: 1
  5301 ;; This function calls:
  5302 ;;		Nothing
  5303 ;; This function is called by:
  5304 ;;		_OLED_Printf_Line
  5305 ;; This function uses a non-reentrant model
  5306 ;;
  5307                           
  5308     0D15                     _memcpy:	
  5309                           ;psect for function _memcpy
  5310                           
  5311     0D15                     l2288:	
  5312                           ;incstack = 0
  5313                           ; Regs used in _memcpy: [wreg-fsr1h+status,2+status,0+pclath]
  5314                           
  5315     0D15  0873               	movf	memcpy@s1+1,w
  5316     0D16  00F9               	movwf	memcpy@s+1
  5317     0D17  0872               	movf	memcpy@s1,w
  5318     0D18  00F8               	movwf	memcpy@s
  5319     0D19  0871               	movf	memcpy@d1+1,w
  5320     0D1A  00F7               	movwf	memcpy@d+1
  5321     0D1B  0870               	movf	memcpy@d1,w
  5322     0D1C  00F6               	movwf	memcpy@d
  5323     0D1D  2D32               	goto	l2298
  5324     0D1E                     l2290:
  5325     0D1E  0878               	movf	memcpy@s,w
  5326     0D1F  0084               	movwf	4
  5327     0D20  0879               	movf	memcpy@s+1,w
  5328     0D21  0085               	movwf	5
  5329     0D22  0800               	movf	0,w	;code access
  5330     0D23  00FA               	movwf	memcpy@tmp
  5331     0D24                     l2292:
  5332     0D24  3001               	movlw	1
  5333     0D25  07F8               	addwf	memcpy@s,f
  5334     0D26  3000               	movlw	0
  5335     0D27  3DF9               	addwfc	memcpy@s+1,f
  5336     0D28                     l2294:
  5337     0D28  0876               	movf	memcpy@d,w
  5338     0D29  0086               	movwf	6
  5339     0D2A  0877               	movf	memcpy@d+1,w
  5340     0D2B  0087               	movwf	7
  5341     0D2C  087A               	movf	memcpy@tmp,w
  5342     0D2D  0081               	movwf	1
  5343     0D2E                     l2296:
  5344     0D2E  3001               	movlw	1
  5345     0D2F  07F6               	addwf	memcpy@d,f
  5346     0D30  3000               	movlw	0
  5347     0D31  3DF7               	addwfc	memcpy@d+1,f
  5348     0D32                     l2298:
  5349     0D32  3001               	movlw	1
  5350     0D33  02F4               	subwf	memcpy@n,f
  5351     0D34  3000               	movlw	0
  5352     0D35  3BF5               	subwfb	memcpy@n+1,f
  5353     0D36  0A74               	incf	memcpy@n,w
  5354     0D37  1D03               	skipz
  5355     0D38  2D3D               	goto	u2041
  5356     0D39  0A75               	incf	memcpy@n+1,w
  5357     0D3A  1D03               	btfss	3,2
  5358     0D3B  2D3D               	goto	u2041
  5359     0D3C  2D3E               	goto	u2040
  5360     0D3D                     u2041:
  5361     0D3D  2D1E               	goto	l2290
  5362     0D3E                     u2040:
  5363     0D3E                     l928:
  5364     0D3E  0008               	return
  5365     0D3F                     __end_of_memcpy:
  5366                           
  5367                           	psect	text10
  5368     0DCA                     __ptext10:	
  5369 ;; *************** function ___lwmod *****************
  5370 ;; Defined at:
  5371 ;;		line 5 in file "C:\Program Files\Microchip\xc8\v2.46\pic\sources\c99\common\lwmod.c"
  5372 ;; Parameters:    Size  Location     Type
  5373 ;;  divisor         2    0[COMMON] unsigned int 
  5374 ;;  dividend        2    2[COMMON] unsigned int 
  5375 ;; Auto vars:     Size  Location     Type
  5376 ;;  counter         1    5[COMMON] unsigned char 
  5377 ;; Return value:  Size  Location     Type
  5378 ;;                  2    0[COMMON] unsigned int 
  5379 ;; Registers used:
  5380 ;;		wreg, status,2, status,0
  5381 ;; Tracked objects:
  5382 ;;		On entry : 0/0
  5383 ;;		On exit  : 0/0
  5384 ;;		Unchanged: 0/0
  5385 ;; Data sizes:     COMMON   BANK0   BANK1   BANK2   BANK3   BANK4   BANK5   BANK6   BANK7   BANK8   BANK9  BANK10  BANK1
      +1  BANK12  BANK13  BANK14  BANK15  BANK16  BANK17  BANK18  BANK19  BANK20  BANK21  BANK22  BANK23  BANK24  BANK25
  5386 ;;      Params:         4       0       0       0       0       0       0       0       0       0       0       0       
      +0       0       0       0       0       0       0       0       0       0       0       0       0       0       0
  5387 ;;      Locals:         1       0       0       0       0       0       0       0       0       0       0       0       
      +0       0       0       0       0       0       0       0       0       0       0       0       0       0       0
  5388 ;;      Temps:          1       0       0       0       0       0       0       0       0       0       0       0       
      +0       0       0       0       0       0       0       0       0       0       0       0       0       0       0
  5389 ;;      Totals:         6       0       0       0       0       0       0       0       0       0       0       0       
      +0       0       0       0       0       0       0       0       0       0       0       0       0       0       0
  5390 ;;Total ram usage:        6 bytes
  5391 ;; Hardware stack levels used: 1
  5392 ;; This function calls:
  5393 ;;		Nothing
  5394 ;; This function is called by:
  5395 ;;		_OLED_Printf_Line
  5396 ;; This function uses a non-reentrant model
  5397 ;;
  5398                           
  5399     0DCA                     ___lwmod:	
  5400                           ;psect for function ___lwmod
  5401                           
  5402     0DCA                     l2536:	
  5403                           ;incstack = 0
  5404                           ; Regs used in ___lwmod: [wreg+status,2+status,0]
  5405                           
  5406     0DCA  0870               	movf	___lwmod@divisor,w
  5407     0DCB  0471               	iorwf	___lwmod@divisor+1,w
  5408     0DCC  1903               	btfsc	3,2
  5409     0DCD  2DCF               	goto	u2631
  5410     0DCE  2DD0               	goto	u2630
  5411     0DCF                     u2631:
  5412     0DCF  2DF9               	goto	l2554
  5413     0DD0                     u2630:
  5414     0DD0                     l2538:
  5415     0DD0  01F5               	clrf	___lwmod@counter
  5416     0DD1  0AF5               	incf	___lwmod@counter,f
  5417     0DD2  2DDC               	goto	l2544
  5418     0DD3                     l2540:
  5419     0DD3  3001               	movlw	1
  5420     0DD4                     u2645:
  5421     0DD4  35F0               	lslf	___lwmod@divisor,f
  5422     0DD5  0DF1               	rlf	___lwmod@divisor+1,f
  5423     0DD6  0B89               	decfsz	9,f
  5424     0DD7  2DD4               	goto	u2645
  5425     0DD8                     l2542:
  5426     0DD8  3001               	movlw	1
  5427     0DD9  00F4               	movwf	??___lwmod
  5428     0DDA  0874               	movf	??___lwmod,w
  5429     0DDB  07F5               	addwf	___lwmod@counter,f
  5430     0DDC                     l2544:
  5431     0DDC  1FF1               	btfss	___lwmod@divisor+1,7
  5432     0DDD  2DDF               	goto	u2651
  5433     0DDE  2DE0               	goto	u2650
  5434     0DDF                     u2651:
  5435     0DDF  2DD3               	goto	l2540
  5436     0DE0                     u2650:
  5437     0DE0                     l2546:
  5438     0DE0  0871               	movf	___lwmod@divisor+1,w
  5439     0DE1  0273               	subwf	___lwmod@dividend+1,w
  5440     0DE2  1D03               	skipz
  5441     0DE3  2DE6               	goto	u2665
  5442     0DE4  0870               	movf	___lwmod@divisor,w
  5443     0DE5  0272               	subwf	___lwmod@dividend,w
  5444     0DE6                     u2665:
  5445     0DE6  1C03               	skipc
  5446     0DE7  2DE9               	goto	u2661
  5447     0DE8  2DEA               	goto	u2660
  5448     0DE9                     u2661:
  5449     0DE9  2DEE               	goto	l2550
  5450     0DEA                     u2660:
  5451     0DEA                     l2548:
  5452     0DEA  0870               	movf	___lwmod@divisor,w
  5453     0DEB  02F2               	subwf	___lwmod@dividend,f
  5454     0DEC  0871               	movf	___lwmod@divisor+1,w
  5455     0DED  3BF3               	subwfb	___lwmod@dividend+1,f
  5456     0DEE                     l2550:
  5457     0DEE  3001               	movlw	1
  5458     0DEF                     u2675:
  5459     0DEF  36F1               	lsrf	___lwmod@divisor+1,f
  5460     0DF0  0CF0               	rrf	___lwmod@divisor,f
  5461     0DF1  0B89               	decfsz	9,f
  5462     0DF2  2DEF               	goto	u2675
  5463     0DF3                     l2552:
  5464     0DF3  3001               	movlw	1
  5465     0DF4  02F5               	subwf	___lwmod@counter,f
  5466     0DF5  1D03               	btfss	3,2
  5467     0DF6  2DF8               	goto	u2681
  5468     0DF7  2DF9               	goto	u2680
  5469     0DF8                     u2681:
  5470     0DF8  2DE0               	goto	l2546
  5471     0DF9                     u2680:
  5472     0DF9                     l2554:
  5473     0DF9  0873               	movf	___lwmod@dividend+1,w
  5474     0DFA  00F1               	movwf	?___lwmod+1
  5475     0DFB  0872               	movf	___lwmod@dividend,w
  5476     0DFC  00F0               	movwf	?___lwmod
  5477     0DFD                     l756:
  5478     0DFD  0008               	return
  5479     0DFE                     __end_of___lwmod:
  5480                           
  5481                           	psect	text11
  5482     0DFE                     __ptext11:	
  5483 ;; *************** function ___lwdiv *****************
  5484 ;; Defined at:
  5485 ;;		line 5 in file "C:\Program Files\Microchip\xc8\v2.46\pic\sources\c99\common\lwdiv.c"
  5486 ;; Parameters:    Size  Location     Type
  5487 ;;  divisor         2    0[COMMON] unsigned int 
  5488 ;;  dividend        2    2[COMMON] unsigned int 
  5489 ;; Auto vars:     Size  Location     Type
  5490 ;;  quotient        2    5[COMMON] unsigned int 
  5491 ;;  counter         1    7[COMMON] unsigned char 
  5492 ;; Return value:  Size  Location     Type
  5493 ;;                  2    0[COMMON] unsigned int 
  5494 ;; Registers used:
  5495 ;;		wreg, status,2, status,0
  5496 ;; Tracked objects:
  5497 ;;		On entry : 0/0
  5498 ;;		On exit  : 0/0
  5499 ;;		Unchanged: 0/0
  5500 ;; Data sizes:     COMMON   BANK0   BANK1   BANK2   BANK3   BANK4   BANK5   BANK6   BANK7   BANK8   BANK9  BANK10  BANK1
      +1  BANK12  BANK13  BANK14  BANK15  BANK16  BANK17  BANK18  BANK19  BANK20  BANK21  BANK22  BANK23  BANK24  BANK25
  5501 ;;      Params:         4       0       0       0       0       0       0       0       0       0       0       0       
      +0       0       0       0       0       0       0       0       0       0       0       0       0       0       0
  5502 ;;      Locals:         3       0       0       0       0       0       0       0       0       0       0       0       
      +0       0       0       0       0       0       0       0       0       0       0       0       0       0       0
  5503 ;;      Temps:          1       0       0       0       0       0       0       0       0       0       0       0       
      +0       0       0       0       0       0       0       0       0       0       0       0       0       0       0
  5504 ;;      Totals:         8       0       0       0       0       0       0       0       0       0       0       0       
      +0       0       0       0       0       0       0       0       0       0       0       0       0       0       0
  5505 ;;Total ram usage:        8 bytes
  5506 ;; Hardware stack levels used: 1
  5507 ;; This function calls:
  5508 ;;		Nothing
  5509 ;; This function is called by:
  5510 ;;		_OLED_Printf_Line
  5511 ;; This function uses a non-reentrant model
  5512 ;;
  5513                           
  5514     0DFE                     ___lwdiv:	
  5515                           ;psect for function ___lwdiv
  5516                           
  5517     0DFE                     l2510:	
  5518                           ;incstack = 0
  5519                           ; Regs used in ___lwdiv: [wreg+status,2+status,0]
  5520                           
  5521     0DFE  01F5               	clrf	___lwdiv@quotient
  5522     0DFF  01F6               	clrf	___lwdiv@quotient+1
  5523     0E00                     l2512:
  5524     0E00  0870               	movf	___lwdiv@divisor,w
  5525     0E01  0471               	iorwf	___lwdiv@divisor+1,w
  5526     0E02  1903               	btfsc	3,2
  5527     0E03  2E05               	goto	u2561
  5528     0E04  2E06               	goto	u2560
  5529     0E05                     u2561:
  5530     0E05  2E35               	goto	l2532
  5531     0E06                     u2560:
  5532     0E06                     l2514:
  5533     0E06  01F7               	clrf	___lwdiv@counter
  5534     0E07  0AF7               	incf	___lwdiv@counter,f
  5535     0E08  2E12               	goto	l2520
  5536     0E09                     l2516:
  5537     0E09  3001               	movlw	1
  5538     0E0A                     u2575:
  5539     0E0A  35F0               	lslf	___lwdiv@divisor,f
  5540     0E0B  0DF1               	rlf	___lwdiv@divisor+1,f
  5541     0E0C  0B89               	decfsz	9,f
  5542     0E0D  2E0A               	goto	u2575
  5543     0E0E                     l2518:
  5544     0E0E  3001               	movlw	1
  5545     0E0F  00F4               	movwf	??___lwdiv
  5546     0E10  0874               	movf	??___lwdiv,w
  5547     0E11  07F7               	addwf	___lwdiv@counter,f
  5548     0E12                     l2520:
  5549     0E12  1FF1               	btfss	___lwdiv@divisor+1,7
  5550     0E13  2E15               	goto	u2581
  5551     0E14  2E16               	goto	u2580
  5552     0E15                     u2581:
  5553     0E15  2E09               	goto	l2516
  5554     0E16                     u2580:
  5555     0E16                     l2522:
  5556     0E16  3001               	movlw	1
  5557     0E17                     u2595:
  5558     0E17  35F5               	lslf	___lwdiv@quotient,f
  5559     0E18  0DF6               	rlf	___lwdiv@quotient+1,f
  5560     0E19  0B89               	decfsz	9,f
  5561     0E1A  2E17               	goto	u2595
  5562     0E1B  0871               	movf	___lwdiv@divisor+1,w
  5563     0E1C  0273               	subwf	___lwdiv@dividend+1,w
  5564     0E1D  1D03               	skipz
  5565     0E1E  2E21               	goto	u2605
  5566     0E1F  0870               	movf	___lwdiv@divisor,w
  5567     0E20  0272               	subwf	___lwdiv@dividend,w
  5568     0E21                     u2605:
  5569     0E21  1C03               	skipc
  5570     0E22  2E24               	goto	u2601
  5571     0E23  2E25               	goto	u2600
  5572     0E24                     u2601:
  5573     0E24  2E2A               	goto	l2528
  5574     0E25                     u2600:
  5575     0E25                     l2524:
  5576     0E25  0870               	movf	___lwdiv@divisor,w
  5577     0E26  02F2               	subwf	___lwdiv@dividend,f
  5578     0E27  0871               	movf	___lwdiv@divisor+1,w
  5579     0E28  3BF3               	subwfb	___lwdiv@dividend+1,f
  5580     0E29                     l2526:
  5581     0E29  1475               	bsf	___lwdiv@quotient,0
  5582     0E2A                     l2528:
  5583     0E2A  3001               	movlw	1
  5584     0E2B                     u2615:
  5585     0E2B  36F1               	lsrf	___lwdiv@divisor+1,f
  5586     0E2C  0CF0               	rrf	___lwdiv@divisor,f
  5587     0E2D  0B89               	decfsz	9,f
  5588     0E2E  2E2B               	goto	u2615
  5589     0E2F                     l2530:
  5590     0E2F  3001               	movlw	1
  5591     0E30  02F7               	subwf	___lwdiv@counter,f
  5592     0E31  1D03               	btfss	3,2
  5593     0E32  2E34               	goto	u2621
  5594     0E33  2E35               	goto	u2620
  5595     0E34                     u2621:
  5596     0E34  2E16               	goto	l2522
  5597     0E35                     u2620:
  5598     0E35                     l2532:
  5599     0E35  0876               	movf	___lwdiv@quotient+1,w
  5600     0E36  00F1               	movwf	?___lwdiv+1
  5601     0E37  0875               	movf	___lwdiv@quotient,w
  5602     0E38  00F0               	movwf	?___lwdiv
  5603     0E39                     l746:
  5604     0E39  0008               	return
  5605     0E3A                     __end_of___lwdiv:
  5606                           
  5607                           	psect	text12
  5608     0E7B                     __ptext12:	
  5609 ;; *************** function ___llmod *****************
  5610 ;; Defined at:
  5611 ;;		line 5 in file "C:\Program Files\Microchip\xc8\v2.46\pic\sources\c99\common\llmod.c"
  5612 ;; Parameters:    Size  Location     Type
  5613 ;;  divisor         4    0[COMMON] unsigned long 
  5614 ;;  dividend        4    4[COMMON] unsigned long 
  5615 ;; Auto vars:     Size  Location     Type
  5616 ;;  counter         1    9[COMMON] unsigned char 
  5617 ;; Return value:  Size  Location     Type
  5618 ;;                  4    0[COMMON] unsigned long 
  5619 ;; Registers used:
  5620 ;;		wreg, status,2, status,0
  5621 ;; Tracked objects:
  5622 ;;		On entry : 0/0
  5623 ;;		On exit  : 0/0
  5624 ;;		Unchanged: 0/0
  5625 ;; Data sizes:     COMMON   BANK0   BANK1   BANK2   BANK3   BANK4   BANK5   BANK6   BANK7   BANK8   BANK9  BANK10  BANK1
      +1  BANK12  BANK13  BANK14  BANK15  BANK16  BANK17  BANK18  BANK19  BANK20  BANK21  BANK22  BANK23  BANK24  BANK25
  5626 ;;      Params:         8       0       0       0       0       0       0       0       0       0       0       0       
      +0       0       0       0       0       0       0       0       0       0       0       0       0       0       0
  5627 ;;      Locals:         1       0       0       0       0       0       0       0       0       0       0       0       
      +0       0       0       0       0       0       0       0       0       0       0       0       0       0       0
  5628 ;;      Temps:          1       0       0       0       0       0       0       0       0       0       0       0       
      +0       0       0       0       0       0       0       0       0       0       0       0       0       0       0
  5629 ;;      Totals:        10       0       0       0       0       0       0       0       0       0       0       0       
      +0       0       0       0       0       0       0       0       0       0       0       0       0       0       0
  5630 ;;Total ram usage:       10 bytes
  5631 ;; Hardware stack levels used: 1
  5632 ;; This function calls:
  5633 ;;		Nothing
  5634 ;; This function is called by:
  5635 ;;		_OLED_Printf_Line
  5636 ;; This function uses a non-reentrant model
  5637 ;;
  5638                           
  5639     0E7B                     ___llmod:	
  5640                           ;psect for function ___llmod
  5641                           
  5642     0E7B                     l2490:	
  5643                           ;incstack = 0
  5644                           ; Regs used in ___llmod: [wreg+status,2+status,0]
  5645                           
  5646     0E7B  0873               	movf	___llmod@divisor+3,w
  5647     0E7C  0472               	iorwf	___llmod@divisor+2,w
  5648     0E7D  0471               	iorwf	___llmod@divisor+1,w
  5649     0E7E  0470               	iorwf	___llmod@divisor,w
  5650     0E7F  1903               	skipnz
  5651     0E80  2E82               	goto	u2501
  5652     0E81  2E83               	goto	u2500
  5653     0E82                     u2501:
  5654     0E82  2EBC               	goto	l2506
  5655     0E83                     u2500:
  5656     0E83                     l2492:
  5657     0E83  01F9               	clrf	___llmod@counter
  5658     0E84  0AF9               	incf	___llmod@counter,f
  5659     0E85  2E91               	goto	l2496
  5660     0E86                     l2494:
  5661     0E86  3001               	movlw	1
  5662     0E87                     u2515:
  5663     0E87  35F0               	lslf	___llmod@divisor,f
  5664     0E88  0DF1               	rlf	___llmod@divisor+1,f
  5665     0E89  0DF2               	rlf	___llmod@divisor+2,f
  5666     0E8A  0DF3               	rlf	___llmod@divisor+3,f
  5667     0E8B  0B89               	decfsz	9,f
  5668     0E8C  2E87               	goto	u2515
  5669     0E8D  3001               	movlw	1
  5670     0E8E  00F8               	movwf	??___llmod
  5671     0E8F  0878               	movf	??___llmod,w
  5672     0E90  07F9               	addwf	___llmod@counter,f
  5673     0E91                     l2496:
  5674     0E91  1FF3               	btfss	___llmod@divisor+3,7
  5675     0E92  2E94               	goto	u2521
  5676     0E93  2E95               	goto	u2520
  5677     0E94                     u2521:
  5678     0E94  2E86               	goto	l2494
  5679     0E95                     u2520:
  5680     0E95                     l2498:
  5681     0E95  0873               	movf	___llmod@divisor+3,w
  5682     0E96  0277               	subwf	___llmod@dividend+3,w
  5683     0E97  1D03               	skipz
  5684     0E98  2EA3               	goto	u2535
  5685     0E99  0872               	movf	___llmod@divisor+2,w
  5686     0E9A  0276               	subwf	___llmod@dividend+2,w
  5687     0E9B  1D03               	skipz
  5688     0E9C  2EA3               	goto	u2535
  5689     0E9D  0871               	movf	___llmod@divisor+1,w
  5690     0E9E  0275               	subwf	___llmod@dividend+1,w
  5691     0E9F  1D03               	skipz
  5692     0EA0  2EA3               	goto	u2535
  5693     0EA1  0870               	movf	___llmod@divisor,w
  5694     0EA2  0274               	subwf	___llmod@dividend,w
  5695     0EA3                     u2535:
  5696     0EA3  1C03               	skipc
  5697     0EA4  2EA6               	goto	u2531
  5698     0EA5  2EA7               	goto	u2530
  5699     0EA6                     u2531:
  5700     0EA6  2EAF               	goto	l2502
  5701     0EA7                     u2530:
  5702     0EA7                     l2500:
  5703     0EA7  0870               	movf	___llmod@divisor,w
  5704     0EA8  02F4               	subwf	___llmod@dividend,f
  5705     0EA9  0871               	movf	___llmod@divisor+1,w
  5706     0EAA  3BF5               	subwfb	___llmod@dividend+1,f
  5707     0EAB  0872               	movf	___llmod@divisor+2,w
  5708     0EAC  3BF6               	subwfb	___llmod@dividend+2,f
  5709     0EAD  0873               	movf	___llmod@divisor+3,w
  5710     0EAE  3BF7               	subwfb	___llmod@dividend+3,f
  5711     0EAF                     l2502:
  5712     0EAF  3001               	movlw	1
  5713     0EB0                     u2545:
  5714     0EB0  36F3               	lsrf	___llmod@divisor+3,f
  5715     0EB1  0CF2               	rrf	___llmod@divisor+2,f
  5716     0EB2  0CF1               	rrf	___llmod@divisor+1,f
  5717     0EB3  0CF0               	rrf	___llmod@divisor,f
  5718     0EB4  0B89               	decfsz	9,f
  5719     0EB5  2EB0               	goto	u2545
  5720     0EB6                     l2504:
  5721     0EB6  3001               	movlw	1
  5722     0EB7  02F9               	subwf	___llmod@counter,f
  5723     0EB8  1D03               	btfss	3,2
  5724     0EB9  2EBB               	goto	u2551
  5725     0EBA  2EBC               	goto	u2550
  5726     0EBB                     u2551:
  5727     0EBB  2E95               	goto	l2498
  5728     0EBC                     u2550:
  5729     0EBC                     l2506:
  5730     0EBC  0877               	movf	___llmod@dividend+3,w
  5731     0EBD  00F3               	movwf	?___llmod+3
  5732     0EBE  0876               	movf	___llmod@dividend+2,w
  5733     0EBF  00F2               	movwf	?___llmod+2
  5734     0EC0  0875               	movf	___llmod@dividend+1,w
  5735     0EC1  00F1               	movwf	?___llmod+1
  5736     0EC2  0874               	movf	___llmod@dividend,w
  5737     0EC3  00F0               	movwf	?___llmod
  5738     0EC4                     l696:
  5739     0EC4  0008               	return
  5740     0EC5                     __end_of___llmod:
  5741                           
  5742                           	psect	text13
  5743     0FAD                     __ptext13:	
  5744 ;; *************** function ___awmod *****************
  5745 ;; Defined at:
  5746 ;;		line 5 in file "C:\Program Files\Microchip\xc8\v2.46\pic\sources\c99\common\awmod.c"
  5747 ;; Parameters:    Size  Location     Type
  5748 ;;  divisor         2    0[COMMON] int 
  5749 ;;  dividend        2    2[COMMON] int 
  5750 ;; Auto vars:     Size  Location     Type
  5751 ;;  sign            1    6[COMMON] unsigned char 
  5752 ;;  counter         1    5[COMMON] unsigned char 
  5753 ;; Return value:  Size  Location     Type
  5754 ;;                  2    0[COMMON] int 
  5755 ;; Registers used:
  5756 ;;		wreg, status,2, status,0
  5757 ;; Tracked objects:
  5758 ;;		On entry : 0/0
  5759 ;;		On exit  : 0/0
  5760 ;;		Unchanged: 0/0
  5761 ;; Data sizes:     COMMON   BANK0   BANK1   BANK2   BANK3   BANK4   BANK5   BANK6   BANK7   BANK8   BANK9  BANK10  BANK1
      +1  BANK12  BANK13  BANK14  BANK15  BANK16  BANK17  BANK18  BANK19  BANK20  BANK21  BANK22  BANK23  BANK24  BANK25
  5762 ;;      Params:         4       0       0       0       0       0       0       0       0       0       0       0       
      +0       0       0       0       0       0       0       0       0       0       0       0       0       0       0
  5763 ;;      Locals:         2       0       0       0       0       0       0       0       0       0       0       0       
      +0       0       0       0       0       0       0       0       0       0       0       0       0       0       0
  5764 ;;      Temps:          1       0       0       0       0       0       0       0       0       0       0       0       
      +0       0       0       0       0       0       0       0       0       0       0       0       0       0       0
  5765 ;;      Totals:         7       0       0       0       0       0       0       0       0       0       0       0       
      +0       0       0       0       0       0       0       0       0       0       0       0       0       0       0
  5766 ;;Total ram usage:        7 bytes
  5767 ;; Hardware stack levels used: 1
  5768 ;; This function calls:
  5769 ;;		Nothing
  5770 ;; This function is called by:
  5771 ;;		_OLED_Printf_Line
  5772 ;; This function uses a non-reentrant model
  5773 ;;
  5774                           
  5775     0FAD                     ___awmod:	
  5776                           ;psect for function ___awmod
  5777                           
  5778     0FAD                     l2452:	
  5779                           ;incstack = 0
  5780                           ; Regs used in ___awmod: [wreg+status,2+status,0]
  5781                           
  5782     0FAD  01F6               	clrf	___awmod@sign
  5783     0FAE                     l2454:
  5784     0FAE  1FF3               	btfss	___awmod@dividend+1,7
  5785     0FAF  2FB1               	goto	u2411
  5786     0FB0  2FB2               	goto	u2410
  5787     0FB1                     u2411:
  5788     0FB1  2FB9               	goto	l2460
  5789     0FB2                     u2410:
  5790     0FB2                     l2456:
  5791     0FB2  09F2               	comf	___awmod@dividend,f
  5792     0FB3  09F3               	comf	___awmod@dividend+1,f
  5793     0FB4  0AF2               	incf	___awmod@dividend,f
  5794     0FB5  1903               	skipnz
  5795     0FB6  0AF3               	incf	___awmod@dividend+1,f
  5796     0FB7                     l2458:
  5797     0FB7  01F6               	clrf	___awmod@sign
  5798     0FB8  0AF6               	incf	___awmod@sign,f
  5799     0FB9                     l2460:
  5800     0FB9  1FF1               	btfss	___awmod@divisor+1,7
  5801     0FBA  2FBC               	goto	u2421
  5802     0FBB  2FBD               	goto	u2420
  5803     0FBC                     u2421:
  5804     0FBC  2FC2               	goto	l2464
  5805     0FBD                     u2420:
  5806     0FBD                     l2462:
  5807     0FBD  09F0               	comf	___awmod@divisor,f
  5808     0FBE  09F1               	comf	___awmod@divisor+1,f
  5809     0FBF  0AF0               	incf	___awmod@divisor,f
  5810     0FC0  1903               	skipnz
  5811     0FC1  0AF1               	incf	___awmod@divisor+1,f
  5812     0FC2                     l2464:
  5813     0FC2  0870               	movf	___awmod@divisor,w
  5814     0FC3  0471               	iorwf	___awmod@divisor+1,w
  5815     0FC4  1903               	btfsc	3,2
  5816     0FC5  2FC7               	goto	u2431
  5817     0FC6  2FC8               	goto	u2430
  5818     0FC7                     u2431:
  5819     0FC7  2FF1               	goto	l2482
  5820     0FC8                     u2430:
  5821     0FC8                     l2466:
  5822     0FC8  01F5               	clrf	___awmod@counter
  5823     0FC9  0AF5               	incf	___awmod@counter,f
  5824     0FCA  2FD4               	goto	l2472
  5825     0FCB                     l2468:
  5826     0FCB  3001               	movlw	1
  5827     0FCC                     u2445:
  5828     0FCC  35F0               	lslf	___awmod@divisor,f
  5829     0FCD  0DF1               	rlf	___awmod@divisor+1,f
  5830     0FCE  0B89               	decfsz	9,f
  5831     0FCF  2FCC               	goto	u2445
  5832     0FD0                     l2470:
  5833     0FD0  3001               	movlw	1
  5834     0FD1  00F4               	movwf	??___awmod
  5835     0FD2  0874               	movf	??___awmod,w
  5836     0FD3  07F5               	addwf	___awmod@counter,f
  5837     0FD4                     l2472:
  5838     0FD4  1FF1               	btfss	___awmod@divisor+1,7
  5839     0FD5  2FD7               	goto	u2451
  5840     0FD6  2FD8               	goto	u2450
  5841     0FD7                     u2451:
  5842     0FD7  2FCB               	goto	l2468
  5843     0FD8                     u2450:
  5844     0FD8                     l2474:
  5845     0FD8  0871               	movf	___awmod@divisor+1,w
  5846     0FD9  0273               	subwf	___awmod@dividend+1,w
  5847     0FDA  1D03               	skipz
  5848     0FDB  2FDE               	goto	u2465
  5849     0FDC  0870               	movf	___awmod@divisor,w
  5850     0FDD  0272               	subwf	___awmod@dividend,w
  5851     0FDE                     u2465:
  5852     0FDE  1C03               	skipc
  5853     0FDF  2FE1               	goto	u2461
  5854     0FE0  2FE2               	goto	u2460
  5855     0FE1                     u2461:
  5856     0FE1  2FE6               	goto	l2478
  5857     0FE2                     u2460:
  5858     0FE2                     l2476:
  5859     0FE2  0870               	movf	___awmod@divisor,w
  5860     0FE3  02F2               	subwf	___awmod@dividend,f
  5861     0FE4  0871               	movf	___awmod@divisor+1,w
  5862     0FE5  3BF3               	subwfb	___awmod@dividend+1,f
  5863     0FE6                     l2478:
  5864     0FE6  3001               	movlw	1
  5865     0FE7                     u2475:
  5866     0FE7  36F1               	lsrf	___awmod@divisor+1,f
  5867     0FE8  0CF0               	rrf	___awmod@divisor,f
  5868     0FE9  0B89               	decfsz	9,f
  5869     0FEA  2FE7               	goto	u2475
  5870     0FEB                     l2480:
  5871     0FEB  3001               	movlw	1
  5872     0FEC  02F5               	subwf	___awmod@counter,f
  5873     0FED  1D03               	btfss	3,2
  5874     0FEE  2FF0               	goto	u2481
  5875     0FEF  2FF1               	goto	u2480
  5876     0FF0                     u2481:
  5877     0FF0  2FD8               	goto	l2474
  5878     0FF1                     u2480:
  5879     0FF1                     l2482:
  5880     0FF1  0876               	movf	___awmod@sign,w
  5881     0FF2  1903               	btfsc	3,2
  5882     0FF3  2FF5               	goto	u2491
  5883     0FF4  2FF6               	goto	u2490
  5884     0FF5                     u2491:
  5885     0FF5  2FFB               	goto	l2486
  5886     0FF6                     u2490:
  5887     0FF6                     l2484:
  5888     0FF6  09F2               	comf	___awmod@dividend,f
  5889     0FF7  09F3               	comf	___awmod@dividend+1,f
  5890     0FF8  0AF2               	incf	___awmod@dividend,f
  5891     0FF9  1903               	skipnz
  5892     0FFA  0AF3               	incf	___awmod@dividend+1,f
  5893     0FFB                     l2486:
  5894     0FFB  0873               	movf	___awmod@dividend+1,w
  5895     0FFC  00F1               	movwf	?___awmod+1
  5896     0FFD  0872               	movf	___awmod@dividend,w
  5897     0FFE  00F0               	movwf	?___awmod
  5898     0FFF                     l632:
  5899     0FFF  0008               	return
  5900     1000                     __end_of___awmod:
  5901                           
  5902                           	psect	text14
  5903     008D                     __ptext14:	
  5904 ;; *************** function ___awdiv *****************
  5905 ;; Defined at:
  5906 ;;		line 5 in file "C:\Program Files\Microchip\xc8\v2.46\pic\sources\c99\common\awdiv.c"
  5907 ;; Parameters:    Size  Location     Type
  5908 ;;  divisor         2    0[COMMON] int 
  5909 ;;  dividend        2    2[COMMON] int 
  5910 ;; Auto vars:     Size  Location     Type
  5911 ;;  quotient        2    7[COMMON] int 
  5912 ;;  sign            1    6[COMMON] unsigned char 
  5913 ;;  counter         1    5[COMMON] unsigned char 
  5914 ;; Return value:  Size  Location     Type
  5915 ;;                  2    0[COMMON] int 
  5916 ;; Registers used:
  5917 ;;		wreg, status,2, status,0
  5918 ;; Tracked objects:
  5919 ;;		On entry : 0/0
  5920 ;;		On exit  : 0/0
  5921 ;;		Unchanged: 0/0
  5922 ;; Data sizes:     COMMON   BANK0   BANK1   BANK2   BANK3   BANK4   BANK5   BANK6   BANK7   BANK8   BANK9  BANK10  BANK1
      +1  BANK12  BANK13  BANK14  BANK15  BANK16  BANK17  BANK18  BANK19  BANK20  BANK21  BANK22  BANK23  BANK24  BANK25
  5923 ;;      Params:         4       0       0       0       0       0       0       0       0       0       0       0       
      +0       0       0       0       0       0       0       0       0       0       0       0       0       0       0
  5924 ;;      Locals:         4       0       0       0       0       0       0       0       0       0       0       0       
      +0       0       0       0       0       0       0       0       0       0       0       0       0       0       0
  5925 ;;      Temps:          1       0       0       0       0       0       0       0       0       0       0       0       
      +0       0       0       0       0       0       0       0       0       0       0       0       0       0       0
  5926 ;;      Totals:         9       0       0       0       0       0       0       0       0       0       0       0       
      +0       0       0       0       0       0       0       0       0       0       0       0       0       0       0
  5927 ;;Total ram usage:        9 bytes
  5928 ;; Hardware stack levels used: 1
  5929 ;; This function calls:
  5930 ;;		Nothing
  5931 ;; This function is called by:
  5932 ;;		_OLED_Printf_Line
  5933 ;;		_OLED_DrawBattery
  5934 ;; This function uses a non-reentrant model
  5935 ;;
  5936                           
  5937     008D                     ___awdiv:	
  5938                           ;psect for function ___awdiv
  5939                           
  5940     008D                     l2408:	
  5941                           ;incstack = 0
  5942                           ; Regs used in ___awdiv: [wreg+status,2+status,0]
  5943                           
  5944     008D  01F6               	clrf	___awdiv@sign
  5945     008E                     l2410:
  5946     008E  1FF1               	btfss	___awdiv@divisor+1,7
  5947     008F  2891               	goto	u2311
  5948     0090  2892               	goto	u2310
  5949     0091                     u2311:
  5950     0091  2899               	goto	l2416
  5951     0092                     u2310:
  5952     0092                     l2412:
  5953     0092  09F0               	comf	___awdiv@divisor,f
  5954     0093  09F1               	comf	___awdiv@divisor+1,f
  5955     0094  0AF0               	incf	___awdiv@divisor,f
  5956     0095  1903               	skipnz
  5957     0096  0AF1               	incf	___awdiv@divisor+1,f
  5958     0097                     l2414:
  5959     0097  01F6               	clrf	___awdiv@sign
  5960     0098  0AF6               	incf	___awdiv@sign,f
  5961     0099                     l2416:
  5962     0099  1FF3               	btfss	___awdiv@dividend+1,7
  5963     009A  289C               	goto	u2321
  5964     009B  289D               	goto	u2320
  5965     009C                     u2321:
  5966     009C  28A6               	goto	l2422
  5967     009D                     u2320:
  5968     009D                     l2418:
  5969     009D  09F2               	comf	___awdiv@dividend,f
  5970     009E  09F3               	comf	___awdiv@dividend+1,f
  5971     009F  0AF2               	incf	___awdiv@dividend,f
  5972     00A0  1903               	skipnz
  5973     00A1  0AF3               	incf	___awdiv@dividend+1,f
  5974     00A2                     l2420:
  5975     00A2  3001               	movlw	1
  5976     00A3  00F4               	movwf	??___awdiv
  5977     00A4  0874               	movf	??___awdiv,w
  5978     00A5  06F6               	xorwf	___awdiv@sign,f
  5979     00A6                     l2422:
  5980     00A6  01F7               	clrf	___awdiv@quotient
  5981     00A7  01F8               	clrf	___awdiv@quotient+1
  5982     00A8                     l2424:
  5983     00A8  0870               	movf	___awdiv@divisor,w
  5984     00A9  0471               	iorwf	___awdiv@divisor+1,w
  5985     00AA  1903               	btfsc	3,2
  5986     00AB  28AD               	goto	u2331
  5987     00AC  28AE               	goto	u2330
  5988     00AD                     u2331:
  5989     00AD  28DD               	goto	l2444
  5990     00AE                     u2330:
  5991     00AE                     l2426:
  5992     00AE  01F5               	clrf	___awdiv@counter
  5993     00AF  0AF5               	incf	___awdiv@counter,f
  5994     00B0  28BA               	goto	l2432
  5995     00B1                     l2428:
  5996     00B1  3001               	movlw	1
  5997     00B2                     u2345:
  5998     00B2  35F0               	lslf	___awdiv@divisor,f
  5999     00B3  0DF1               	rlf	___awdiv@divisor+1,f
  6000     00B4  0B89               	decfsz	9,f
  6001     00B5  28B2               	goto	u2345
  6002     00B6                     l2430:
  6003     00B6  3001               	movlw	1
  6004     00B7  00F4               	movwf	??___awdiv
  6005     00B8  0874               	movf	??___awdiv,w
  6006     00B9  07F5               	addwf	___awdiv@counter,f
  6007     00BA                     l2432:
  6008     00BA  1FF1               	btfss	___awdiv@divisor+1,7
  6009     00BB  28BD               	goto	u2351
  6010     00BC  28BE               	goto	u2350
  6011     00BD                     u2351:
  6012     00BD  28B1               	goto	l2428
  6013     00BE                     u2350:
  6014     00BE                     l2434:
  6015     00BE  3001               	movlw	1
  6016     00BF                     u2365:
  6017     00BF  35F7               	lslf	___awdiv@quotient,f
  6018     00C0  0DF8               	rlf	___awdiv@quotient+1,f
  6019     00C1  0B89               	decfsz	9,f
  6020     00C2  28BF               	goto	u2365
  6021     00C3  0871               	movf	___awdiv@divisor+1,w
  6022     00C4  0273               	subwf	___awdiv@dividend+1,w
  6023     00C5  1D03               	skipz
  6024     00C6  28C9               	goto	u2375
  6025     00C7  0870               	movf	___awdiv@divisor,w
  6026     00C8  0272               	subwf	___awdiv@dividend,w
  6027     00C9                     u2375:
  6028     00C9  1C03               	skipc
  6029     00CA  28CC               	goto	u2371
  6030     00CB  28CD               	goto	u2370
  6031     00CC                     u2371:
  6032     00CC  28D2               	goto	l2440
  6033     00CD                     u2370:
  6034     00CD                     l2436:
  6035     00CD  0870               	movf	___awdiv@divisor,w
  6036     00CE  02F2               	subwf	___awdiv@dividend,f
  6037     00CF  0871               	movf	___awdiv@divisor+1,w
  6038     00D0  3BF3               	subwfb	___awdiv@dividend+1,f
  6039     00D1                     l2438:
  6040     00D1  1477               	bsf	___awdiv@quotient,0
  6041     00D2                     l2440:
  6042     00D2  3001               	movlw	1
  6043     00D3                     u2385:
  6044     00D3  36F1               	lsrf	___awdiv@divisor+1,f
  6045     00D4  0CF0               	rrf	___awdiv@divisor,f
  6046     00D5  0B89               	decfsz	9,f
  6047     00D6  28D3               	goto	u2385
  6048     00D7                     l2442:
  6049     00D7  3001               	movlw	1
  6050     00D8  02F5               	subwf	___awdiv@counter,f
  6051     00D9  1D03               	btfss	3,2
  6052     00DA  28DC               	goto	u2391
  6053     00DB  28DD               	goto	u2390
  6054     00DC                     u2391:
  6055     00DC  28BE               	goto	l2434
  6056     00DD                     u2390:
  6057     00DD                     l2444:
  6058     00DD  0876               	movf	___awdiv@sign,w
  6059     00DE  1903               	btfsc	3,2
  6060     00DF  28E1               	goto	u2401
  6061     00E0  28E2               	goto	u2400
  6062     00E1                     u2401:
  6063     00E1  28E7               	goto	l2448
  6064     00E2                     u2400:
  6065     00E2                     l2446:
  6066     00E2  09F7               	comf	___awdiv@quotient,f
  6067     00E3  09F8               	comf	___awdiv@quotient+1,f
  6068     00E4  0AF7               	incf	___awdiv@quotient,f
  6069     00E5  1903               	skipnz
  6070     00E6  0AF8               	incf	___awdiv@quotient+1,f
  6071     00E7                     l2448:
  6072     00E7  0878               	movf	___awdiv@quotient+1,w
  6073     00E8  00F1               	movwf	?___awdiv+1
  6074     00E9  0877               	movf	___awdiv@quotient,w
  6075     00EA  00F0               	movwf	?___awdiv
  6076     00EB                     l619:
  6077     00EB  0008               	return
  6078     00EC                     __end_of___awdiv:
  6079                           
  6080                           	psect	text15
  6081     0232                     __ptext15:	
  6082 ;; *************** function ___almod *****************
  6083 ;; Defined at:
  6084 ;;		line 5 in file "C:\Program Files\Microchip\xc8\v2.46\pic\sources\c99\common\almod.c"
  6085 ;; Parameters:    Size  Location     Type
  6086 ;;  divisor         4    0[COMMON] long 
  6087 ;;  dividend        4    4[COMMON] long 
  6088 ;; Auto vars:     Size  Location     Type
  6089 ;;  sign            1   10[COMMON] unsigned char 
  6090 ;;  counter         1    9[COMMON] unsigned char 
  6091 ;; Return value:  Size  Location     Type
  6092 ;;                  4    0[COMMON] long 
  6093 ;; Registers used:
  6094 ;;		wreg, status,2, status,0
  6095 ;; Tracked objects:
  6096 ;;		On entry : 0/0
  6097 ;;		On exit  : 0/0
  6098 ;;		Unchanged: 0/0
  6099 ;; Data sizes:     COMMON   BANK0   BANK1   BANK2   BANK3   BANK4   BANK5   BANK6   BANK7   BANK8   BANK9  BANK10  BANK1
      +1  BANK12  BANK13  BANK14  BANK15  BANK16  BANK17  BANK18  BANK19  BANK20  BANK21  BANK22  BANK23  BANK24  BANK25
  6100 ;;      Params:         8       0       0       0       0       0       0       0       0       0       0       0       
      +0       0       0       0       0       0       0       0       0       0       0       0       0       0       0
  6101 ;;      Locals:         2       0       0       0       0       0       0       0       0       0       0       0       
      +0       0       0       0       0       0       0       0       0       0       0       0       0       0       0
  6102 ;;      Temps:          1       0       0       0       0       0       0       0       0       0       0       0       
      +0       0       0       0       0       0       0       0       0       0       0       0       0       0       0
  6103 ;;      Totals:        11       0       0       0       0       0       0       0       0       0       0       0       
      +0       0       0       0       0       0       0       0       0       0       0       0       0       0       0
  6104 ;;Total ram usage:       11 bytes
  6105 ;; Hardware stack levels used: 1
  6106 ;; This function calls:
  6107 ;;		Nothing
  6108 ;; This function is called by:
  6109 ;;		_OLED_Printf_Line
  6110 ;; This function uses a non-reentrant model
  6111 ;;
  6112                           
  6113     0232                     ___almod:	
  6114                           ;psect for function ___almod
  6115                           
  6116     0232                     l2376:	
  6117                           ;incstack = 0
  6118                           ; Regs used in ___almod: [wreg+status,2+status,0]
  6119                           
  6120     0232  01FA               	clrf	___almod@sign
  6121     0233                     l2378:
  6122     0233  1FF7               	btfss	___almod@dividend+3,7
  6123     0234  2A36               	goto	u2221
  6124     0235  2A37               	goto	u2220
  6125     0236                     u2221:
  6126     0236  2A44               	goto	l544
  6127     0237                     u2220:
  6128     0237                     l2380:
  6129     0237  09F4               	comf	___almod@dividend,f
  6130     0238  09F5               	comf	___almod@dividend+1,f
  6131     0239  09F6               	comf	___almod@dividend+2,f
  6132     023A  09F7               	comf	___almod@dividend+3,f
  6133     023B  0AF4               	incf	___almod@dividend,f
  6134     023C  1903               	skipnz
  6135     023D  0AF5               	incf	___almod@dividend+1,f
  6136     023E  1903               	skipnz
  6137     023F  0AF6               	incf	___almod@dividend+2,f
  6138     0240  1903               	skipnz
  6139     0241  0AF7               	incf	___almod@dividend+3,f
  6140     0242  01FA               	clrf	___almod@sign
  6141     0243  0AFA               	incf	___almod@sign,f
  6142     0244                     l544:
  6143     0244  1FF3               	btfss	___almod@divisor+3,7
  6144     0245  2A47               	goto	u2231
  6145     0246  2A48               	goto	u2230
  6146     0247                     u2231:
  6147     0247  2A53               	goto	l2384
  6148     0248                     u2230:
  6149     0248                     l2382:
  6150     0248  09F0               	comf	___almod@divisor,f
  6151     0249  09F1               	comf	___almod@divisor+1,f
  6152     024A  09F2               	comf	___almod@divisor+2,f
  6153     024B  09F3               	comf	___almod@divisor+3,f
  6154     024C  0AF0               	incf	___almod@divisor,f
  6155     024D  1903               	skipnz
  6156     024E  0AF1               	incf	___almod@divisor+1,f
  6157     024F  1903               	skipnz
  6158     0250  0AF2               	incf	___almod@divisor+2,f
  6159     0251  1903               	skipnz
  6160     0252  0AF3               	incf	___almod@divisor+3,f
  6161     0253                     l2384:
  6162     0253  0873               	movf	___almod@divisor+3,w
  6163     0254  0472               	iorwf	___almod@divisor+2,w
  6164     0255  0471               	iorwf	___almod@divisor+1,w
  6165     0256  0470               	iorwf	___almod@divisor,w
  6166     0257  1903               	skipnz
  6167     0258  2A5A               	goto	u2241
  6168     0259  2A5B               	goto	u2240
  6169     025A                     u2241:
  6170     025A  2A94               	goto	l2400
  6171     025B                     u2240:
  6172     025B                     l2386:
  6173     025B  01F9               	clrf	___almod@counter
  6174     025C  0AF9               	incf	___almod@counter,f
  6175     025D  2A69               	goto	l2390
  6176     025E                     l2388:
  6177     025E  3001               	movlw	1
  6178     025F                     u2255:
  6179     025F  35F0               	lslf	___almod@divisor,f
  6180     0260  0DF1               	rlf	___almod@divisor+1,f
  6181     0261  0DF2               	rlf	___almod@divisor+2,f
  6182     0262  0DF3               	rlf	___almod@divisor+3,f
  6183     0263  0B89               	decfsz	9,f
  6184     0264  2A5F               	goto	u2255
  6185     0265  3001               	movlw	1
  6186     0266  00F8               	movwf	??___almod
  6187     0267  0878               	movf	??___almod,w
  6188     0268  07F9               	addwf	___almod@counter,f
  6189     0269                     l2390:
  6190     0269  1FF3               	btfss	___almod@divisor+3,7
  6191     026A  2A6C               	goto	u2261
  6192     026B  2A6D               	goto	u2260
  6193     026C                     u2261:
  6194     026C  2A5E               	goto	l2388
  6195     026D                     u2260:
  6196     026D                     l2392:
  6197     026D  0873               	movf	___almod@divisor+3,w
  6198     026E  0277               	subwf	___almod@dividend+3,w
  6199     026F  1D03               	skipz
  6200     0270  2A7B               	goto	u2275
  6201     0271  0872               	movf	___almod@divisor+2,w
  6202     0272  0276               	subwf	___almod@dividend+2,w
  6203     0273  1D03               	skipz
  6204     0274  2A7B               	goto	u2275
  6205     0275  0871               	movf	___almod@divisor+1,w
  6206     0276  0275               	subwf	___almod@dividend+1,w
  6207     0277  1D03               	skipz
  6208     0278  2A7B               	goto	u2275
  6209     0279  0870               	movf	___almod@divisor,w
  6210     027A  0274               	subwf	___almod@dividend,w
  6211     027B                     u2275:
  6212     027B  1C03               	skipc
  6213     027C  2A7E               	goto	u2271
  6214     027D  2A7F               	goto	u2270
  6215     027E                     u2271:
  6216     027E  2A87               	goto	l2396
  6217     027F                     u2270:
  6218     027F                     l2394:
  6219     027F  0870               	movf	___almod@divisor,w
  6220     0280  02F4               	subwf	___almod@dividend,f
  6221     0281  0871               	movf	___almod@divisor+1,w
  6222     0282  3BF5               	subwfb	___almod@dividend+1,f
  6223     0283  0872               	movf	___almod@divisor+2,w
  6224     0284  3BF6               	subwfb	___almod@dividend+2,f
  6225     0285  0873               	movf	___almod@divisor+3,w
  6226     0286  3BF7               	subwfb	___almod@dividend+3,f
  6227     0287                     l2396:
  6228     0287  3001               	movlw	1
  6229     0288                     u2285:
  6230     0288  36F3               	lsrf	___almod@divisor+3,f
  6231     0289  0CF2               	rrf	___almod@divisor+2,f
  6232     028A  0CF1               	rrf	___almod@divisor+1,f
  6233     028B  0CF0               	rrf	___almod@divisor,f
  6234     028C  0B89               	decfsz	9,f
  6235     028D  2A88               	goto	u2285
  6236     028E                     l2398:
  6237     028E  3001               	movlw	1
  6238     028F  02F9               	subwf	___almod@counter,f
  6239     0290  1D03               	btfss	3,2
  6240     0291  2A93               	goto	u2291
  6241     0292  2A94               	goto	u2290
  6242     0293                     u2291:
  6243     0293  2A6D               	goto	l2392
  6244     0294                     u2290:
  6245     0294                     l2400:
  6246     0294  087A               	movf	___almod@sign,w
  6247     0295  1903               	btfsc	3,2
  6248     0296  2A98               	goto	u2301
  6249     0297  2A99               	goto	u2300
  6250     0298                     u2301:
  6251     0298  2AA4               	goto	l2404
  6252     0299                     u2300:
  6253     0299                     l2402:
  6254     0299  09F4               	comf	___almod@dividend,f
  6255     029A  09F5               	comf	___almod@dividend+1,f
  6256     029B  09F6               	comf	___almod@dividend+2,f
  6257     029C  09F7               	comf	___almod@dividend+3,f
  6258     029D  0AF4               	incf	___almod@dividend,f
  6259     029E  1903               	skipnz
  6260     029F  0AF5               	incf	___almod@dividend+1,f
  6261     02A0  1903               	skipnz
  6262     02A1  0AF6               	incf	___almod@dividend+2,f
  6263     02A2  1903               	skipnz
  6264     02A3  0AF7               	incf	___almod@dividend+3,f
  6265     02A4                     l2404:
  6266     02A4  0877               	movf	___almod@dividend+3,w
  6267     02A5  00F3               	movwf	?___almod+3
  6268     02A6  0876               	movf	___almod@dividend+2,w
  6269     02A7  00F2               	movwf	?___almod+2
  6270     02A8  0875               	movf	___almod@dividend+1,w
  6271     02A9  00F1               	movwf	?___almod+1
  6272     02AA  0874               	movf	___almod@dividend,w
  6273     02AB  00F0               	movwf	?___almod
  6274     02AC                     l554:
  6275     02AC  0008               	return
  6276     02AD                     __end_of___almod:
  6277                           
  6278                           	psect	text16
  6279     02AD                     __ptext16:	
  6280 ;; *************** function ___aldiv *****************
  6281 ;; Defined at:
  6282 ;;		line 5 in file "C:\Program Files\Microchip\xc8\v2.46\pic\sources\c99\common\aldiv.c"
  6283 ;; Parameters:    Size  Location     Type
  6284 ;;  divisor         4    0[COMMON] long 
  6285 ;;  dividend        4    4[COMMON] long 
  6286 ;; Auto vars:     Size  Location     Type
  6287 ;;  quotient        4    2[BANK0 ] long 
  6288 ;;  sign            1    1[BANK0 ] unsigned char 
  6289 ;;  counter         1    0[BANK0 ] unsigned char 
  6290 ;; Return value:  Size  Location     Type
  6291 ;;                  4    0[COMMON] long 
  6292 ;; Registers used:
  6293 ;;		wreg, status,2, status,0
  6294 ;; Tracked objects:
  6295 ;;		On entry : 0/0
  6296 ;;		On exit  : 0/0
  6297 ;;		Unchanged: 0/0
  6298 ;; Data sizes:     COMMON   BANK0   BANK1   BANK2   BANK3   BANK4   BANK5   BANK6   BANK7   BANK8   BANK9  BANK10  BANK1
      +1  BANK12  BANK13  BANK14  BANK15  BANK16  BANK17  BANK18  BANK19  BANK20  BANK21  BANK22  BANK23  BANK24  BANK25
  6299 ;;      Params:         8       0       0       0       0       0       0       0       0       0       0       0       
      +0       0       0       0       0       0       0       0       0       0       0       0       0       0       0
  6300 ;;      Locals:         0       6       0       0       0       0       0       0       0       0       0       0       
      +0       0       0       0       0       0       0       0       0       0       0       0       0       0       0
  6301 ;;      Temps:          1       0       0       0       0       0       0       0       0       0       0       0       
      +0       0       0       0       0       0       0       0       0       0       0       0       0       0       0
  6302 ;;      Totals:         9       6       0       0       0       0       0       0       0       0       0       0       
      +0       0       0       0       0       0       0       0       0       0       0       0       0       0       0
  6303 ;;Total ram usage:       15 bytes
  6304 ;; Hardware stack levels used: 1
  6305 ;; This function calls:
  6306 ;;		Nothing
  6307 ;; This function is called by:
  6308 ;;		_OLED_Printf_Line
  6309 ;; This function uses a non-reentrant model
  6310 ;;
  6311                           
  6312     02AD                     ___aldiv:	
  6313                           ;psect for function ___aldiv
  6314                           
  6315     02AD                     l2336:	
  6316                           ;incstack = 0
  6317                           ; Regs used in ___aldiv: [wreg+status,2+status,0]
  6318                           
  6319     02AD  0020               	movlb	0	; select bank0
  6320     02AE  01A1               	clrf	___aldiv@sign
  6321     02AF                     l2338:
  6322     02AF  1FF3               	btfss	___aldiv@divisor+3,7
  6323     02B0  2AB2               	goto	u2121
  6324     02B1  2AB3               	goto	u2120
  6325     02B2                     u2121:
  6326     02B2  2AC0               	goto	l531
  6327     02B3                     u2120:
  6328     02B3                     l2340:
  6329     02B3  09F0               	comf	___aldiv@divisor,f
  6330     02B4  09F1               	comf	___aldiv@divisor+1,f
  6331     02B5  09F2               	comf	___aldiv@divisor+2,f
  6332     02B6  09F3               	comf	___aldiv@divisor+3,f
  6333     02B7  0AF0               	incf	___aldiv@divisor,f
  6334     02B8  1903               	skipnz
  6335     02B9  0AF1               	incf	___aldiv@divisor+1,f
  6336     02BA  1903               	skipnz
  6337     02BB  0AF2               	incf	___aldiv@divisor+2,f
  6338     02BC  1903               	skipnz
  6339     02BD  0AF3               	incf	___aldiv@divisor+3,f
  6340     02BE  01A1               	clrf	___aldiv@sign
  6341     02BF  0AA1               	incf	___aldiv@sign,f
  6342     02C0                     l531:
  6343     02C0  1FF7               	btfss	___aldiv@dividend+3,7
  6344     02C1  2AC3               	goto	u2131
  6345     02C2  2AC4               	goto	u2130
  6346     02C3                     u2131:
  6347     02C3  2AD3               	goto	l2346
  6348     02C4                     u2130:
  6349     02C4                     l2342:
  6350     02C4  09F4               	comf	___aldiv@dividend,f
  6351     02C5  09F5               	comf	___aldiv@dividend+1,f
  6352     02C6  09F6               	comf	___aldiv@dividend+2,f
  6353     02C7  09F7               	comf	___aldiv@dividend+3,f
  6354     02C8  0AF4               	incf	___aldiv@dividend,f
  6355     02C9  1903               	skipnz
  6356     02CA  0AF5               	incf	___aldiv@dividend+1,f
  6357     02CB  1903               	skipnz
  6358     02CC  0AF6               	incf	___aldiv@dividend+2,f
  6359     02CD  1903               	skipnz
  6360     02CE  0AF7               	incf	___aldiv@dividend+3,f
  6361     02CF                     l2344:
  6362     02CF  3001               	movlw	1
  6363     02D0  00F8               	movwf	??___aldiv
  6364     02D1  0878               	movf	??___aldiv,w
  6365     02D2  06A1               	xorwf	___aldiv@sign,f
  6366     02D3                     l2346:
  6367     02D3  3000               	movlw	0
  6368     02D4  00A5               	movwf	___aldiv@quotient+3
  6369     02D5  3000               	movlw	0
  6370     02D6  00A4               	movwf	___aldiv@quotient+2
  6371     02D7  3000               	movlw	0
  6372     02D8  00A3               	movwf	___aldiv@quotient+1
  6373     02D9  3000               	movlw	0
  6374     02DA  00A2               	movwf	___aldiv@quotient
  6375     02DB                     l2348:
  6376     02DB  0873               	movf	___aldiv@divisor+3,w
  6377     02DC  0472               	iorwf	___aldiv@divisor+2,w
  6378     02DD  0471               	iorwf	___aldiv@divisor+1,w
  6379     02DE  0470               	iorwf	___aldiv@divisor,w
  6380     02DF  1903               	skipnz
  6381     02E0  2AE2               	goto	u2141
  6382     02E1  2AE3               	goto	u2140
  6383     02E2                     u2141:
  6384     02E2  2B24               	goto	l2368
  6385     02E3                     u2140:
  6386     02E3                     l2350:
  6387     02E3  01A0               	clrf	___aldiv@counter
  6388     02E4  0AA0               	incf	___aldiv@counter,f
  6389     02E5  2AF1               	goto	l2354
  6390     02E6                     l2352:
  6391     02E6  3001               	movlw	1
  6392     02E7                     u2155:
  6393     02E7  35F0               	lslf	___aldiv@divisor,f
  6394     02E8  0DF1               	rlf	___aldiv@divisor+1,f
  6395     02E9  0DF2               	rlf	___aldiv@divisor+2,f
  6396     02EA  0DF3               	rlf	___aldiv@divisor+3,f
  6397     02EB  0B89               	decfsz	9,f
  6398     02EC  2AE7               	goto	u2155
  6399     02ED  3001               	movlw	1
  6400     02EE  00F8               	movwf	??___aldiv
  6401     02EF  0878               	movf	??___aldiv,w
  6402     02F0  07A0               	addwf	___aldiv@counter,f
  6403     02F1                     l2354:
  6404     02F1  1FF3               	btfss	___aldiv@divisor+3,7
  6405     02F2  2AF4               	goto	u2161
  6406     02F3  2AF5               	goto	u2160
  6407     02F4                     u2161:
  6408     02F4  2AE6               	goto	l2352
  6409     02F5                     u2160:
  6410     02F5                     l2356:
  6411     02F5  3001               	movlw	1
  6412     02F6                     u2175:
  6413     02F6  35A2               	lslf	___aldiv@quotient,f
  6414     02F7  0DA3               	rlf	___aldiv@quotient+1,f
  6415     02F8  0DA4               	rlf	___aldiv@quotient+2,f
  6416     02F9  0DA5               	rlf	___aldiv@quotient+3,f
  6417     02FA  0B89               	decfsz	9,f
  6418     02FB  2AF6               	goto	u2175
  6419     02FC                     l2358:
  6420     02FC  0873               	movf	___aldiv@divisor+3,w
  6421     02FD  0277               	subwf	___aldiv@dividend+3,w
  6422     02FE  1D03               	skipz
  6423     02FF  2B0A               	goto	u2185
  6424     0300  0872               	movf	___aldiv@divisor+2,w
  6425     0301  0276               	subwf	___aldiv@dividend+2,w
  6426     0302  1D03               	skipz
  6427     0303  2B0A               	goto	u2185
  6428     0304  0871               	movf	___aldiv@divisor+1,w
  6429     0305  0275               	subwf	___aldiv@dividend+1,w
  6430     0306  1D03               	skipz
  6431     0307  2B0A               	goto	u2185
  6432     0308  0870               	movf	___aldiv@divisor,w
  6433     0309  0274               	subwf	___aldiv@dividend,w
  6434     030A                     u2185:
  6435     030A  1C03               	skipc
  6436     030B  2B0D               	goto	u2181
  6437     030C  2B0E               	goto	u2180
  6438     030D                     u2181:
  6439     030D  2B17               	goto	l2364
  6440     030E                     u2180:
  6441     030E                     l2360:
  6442     030E  0870               	movf	___aldiv@divisor,w
  6443     030F  02F4               	subwf	___aldiv@dividend,f
  6444     0310  0871               	movf	___aldiv@divisor+1,w
  6445     0311  3BF5               	subwfb	___aldiv@dividend+1,f
  6446     0312  0872               	movf	___aldiv@divisor+2,w
  6447     0313  3BF6               	subwfb	___aldiv@dividend+2,f
  6448     0314  0873               	movf	___aldiv@divisor+3,w
  6449     0315  3BF7               	subwfb	___aldiv@dividend+3,f
  6450     0316                     l2362:
  6451     0316  1422               	bsf	___aldiv@quotient,0
  6452     0317                     l2364:
  6453     0317  3001               	movlw	1
  6454     0318                     u2195:
  6455     0318  36F3               	lsrf	___aldiv@divisor+3,f
  6456     0319  0CF2               	rrf	___aldiv@divisor+2,f
  6457     031A  0CF1               	rrf	___aldiv@divisor+1,f
  6458     031B  0CF0               	rrf	___aldiv@divisor,f
  6459     031C  0B89               	decfsz	9,f
  6460     031D  2B18               	goto	u2195
  6461     031E                     l2366:
  6462     031E  3001               	movlw	1
  6463     031F  02A0               	subwf	___aldiv@counter,f
  6464     0320  1D03               	btfss	3,2
  6465     0321  2B23               	goto	u2201
  6466     0322  2B24               	goto	u2200
  6467     0323                     u2201:
  6468     0323  2AF5               	goto	l2356
  6469     0324                     u2200:
  6470     0324                     l2368:
  6471     0324  0821               	movf	___aldiv@sign,w
  6472     0325  1903               	btfsc	3,2
  6473     0326  2B28               	goto	u2211
  6474     0327  2B29               	goto	u2210
  6475     0328                     u2211:
  6476     0328  2B34               	goto	l2372
  6477     0329                     u2210:
  6478     0329                     l2370:
  6479     0329  09A2               	comf	___aldiv@quotient,f
  6480     032A  09A3               	comf	___aldiv@quotient+1,f
  6481     032B  09A4               	comf	___aldiv@quotient+2,f
  6482     032C  09A5               	comf	___aldiv@quotient+3,f
  6483     032D  0AA2               	incf	___aldiv@quotient,f
  6484     032E  1903               	skipnz
  6485     032F  0AA3               	incf	___aldiv@quotient+1,f
  6486     0330  1903               	skipnz
  6487     0331  0AA4               	incf	___aldiv@quotient+2,f
  6488     0332  1903               	skipnz
  6489     0333  0AA5               	incf	___aldiv@quotient+3,f
  6490     0334                     l2372:
  6491     0334  0825               	movf	___aldiv@quotient+3,w
  6492     0335  00F3               	movwf	?___aldiv+3
  6493     0336  0824               	movf	___aldiv@quotient+2,w
  6494     0337  00F2               	movwf	?___aldiv+2
  6495     0338  0823               	movf	___aldiv@quotient+1,w
  6496     0339  00F1               	movwf	?___aldiv+1
  6497     033A  0822               	movf	___aldiv@quotient,w
  6498     033B  00F0               	movwf	?___aldiv
  6499     033C                     l541:
  6500     033C  0008               	return
  6501     033D                     __end_of___aldiv:
  6502                           
  6503                           	psect	text17
  6504     0D3F                     __ptext17:	
  6505 ;; *************** function _OLED_UpdateLine *****************
  6506 ;; Defined at:
  6507 ;;		line 370 in file "OLED_SSD1306.c"
  6508 ;; Parameters:    Size  Location     Type
  6509 ;;  page            1    wreg     unsigned char 
  6510 ;; Auto vars:     Size  Location     Type
  6511 ;;  page            1   12[COMMON] unsigned char 
  6512 ;; Return value:  Size  Location     Type
  6513 ;;                  1    wreg      void 
  6514 ;; Registers used:
  6515 ;;		wreg, fsr0l, fsr0h, status,2, status,0, pclath, cstack
  6516 ;; Tracked objects:
  6517 ;;		On entry : 0/0
  6518 ;;		On exit  : 0/0
  6519 ;;		Unchanged: 0/0
  6520 ;; Data sizes:     COMMON   BANK0   BANK1   BANK2   BANK3   BANK4   BANK5   BANK6   BANK7   BANK8   BANK9  BANK10  BANK1
      +1  BANK12  BANK13  BANK14  BANK15  BANK16  BANK17  BANK18  BANK19  BANK20  BANK21  BANK22  BANK23  BANK24  BANK25
  6521 ;;      Params:         0       0       0       0       0       0       0       0       0       0       0       0       
      +0       0       0       0       0       0       0       0       0       0       0       0       0       0       0
  6522 ;;      Locals:         1       0       0       0       0       0       0       0       0       0       0       0       
      +0       0       0       0       0       0       0       0       0       0       0       0       0       0       0
  6523 ;;      Temps:          0       6       0       0       0       0       0       0       0       0       0       0       
      +0       0       0       0       0       0       0       0       0       0       0       0       0       0       0
  6524 ;;      Totals:         1       6       0       0       0       0       0       0       0       0       0       0       
      +0       0       0       0       0       0       0       0       0       0       0       0       0       0       0
  6525 ;;Total ram usage:        7 bytes
  6526 ;; Hardware stack levels used: 1
  6527 ;; Hardware stack levels required when called: 4
  6528 ;; This function calls:
  6529 ;;		_OLED_WriteData
  6530 ;;		_OLED_YX
  6531 ;; This function is called by:
  6532 ;;		_OLED_Printf_Line
  6533 ;; This function uses a non-reentrant model
  6534 ;;
  6535                           
  6536     0D3F                     _OLED_UpdateLine:	
  6537                           ;psect for function _OLED_UpdateLine
  6538                           
  6539                           
  6540                           ;incstack = 0
  6541                           ; Regs used in _OLED_UpdateLine: [wreg-fsr0h+status,2+status,0+pclath+cstack]
  6542                           ;OLED_UpdateLine@page stored from wreg
  6543     0D3F  00FC               	movwf	OLED_UpdateLine@page
  6544     0D40                     l2264:
  6545                           
  6546                           ;OLED_SSD1306.c: 370: void OLED_UpdateLine(uint8_t page);OLED_SSD1306.c: 371: {;OLED_SSD
      +                          1306.c: 372:     if (page >= (32 / 8)) return;
  6547     0D40  3004               	movlw	4
  6548     0D41  027C               	subwf	OLED_UpdateLine@page,w
  6549     0D42  1C03               	skipc
  6550     0D43  2D45               	goto	u1991
  6551     0D44  2D46               	goto	u1990
  6552     0D45                     u1991:
  6553     0D45  2D47               	goto	l2268
  6554     0D46                     u1990:
  6555     0D46  2D6A               	goto	l143
  6556     0D47                     l2268:
  6557                           
  6558                           ;OLED_SSD1306.c: 374:     OLED_YX(page, 0);
  6559     0D47  01F7               	clrf	OLED_YX@col_char
  6560     0D48  087C               	movf	OLED_UpdateLine@page,w
  6561     0D49  318C  2487  318D   	fcall	_OLED_YX
  6562     0D4C                     l2270:
  6563                           
  6564                           ;OLED_SSD1306.c: 375:     (void)OLED_WriteData(screen_buffer[page], 128);
  6565     0D4C  087C               	movf	OLED_UpdateLine@page,w
  6566     0D4D  0020               	movlb	0	; select bank0
  6567     0D4E  00A0               	movwf	??_OLED_UpdateLine
  6568     0D4F  01A1               	clrf	??_OLED_UpdateLine+1
  6569     0D50  3007               	movlw	7
  6570     0D51                     u2005:
  6571     0D51  35A0               	lslf	??_OLED_UpdateLine,f
  6572     0D52  0DA1               	rlf	??_OLED_UpdateLine+1,f
  6573     0D53  0B89               	decfsz	9,f
  6574     0D54  2D51               	goto	u2005
  6575     0D55  30F0               	movlw	240
  6576     0D56  00A2               	movwf	??_OLED_UpdateLine+2
  6577     0D57  3024               	movlw	36
  6578     0D58  00A3               	movwf	??_OLED_UpdateLine+3
  6579     0D59  0820               	movf	??_OLED_UpdateLine,w
  6580     0D5A  0722               	addwf	??_OLED_UpdateLine+2,w
  6581     0D5B  00A4               	movwf	??_OLED_UpdateLine+4
  6582     0D5C  0821               	movf	??_OLED_UpdateLine+1,w
  6583     0D5D  3D23               	addwfc	??_OLED_UpdateLine+3,w
  6584     0D5E  00A5               	movwf	??_OLED_UpdateLine+5
  6585     0D5F  0824               	movf	??_OLED_UpdateLine+4,w
  6586     0D60  00F5               	movwf	OLED_WriteData@data
  6587     0D61  0825               	movf	??_OLED_UpdateLine+5,w
  6588     0D62  00F6               	movwf	OLED_WriteData@data+1
  6589     0D63  3080               	movlw	128
  6590     0D64  00F7               	movwf	OLED_WriteData@len
  6591     0D65  3000               	movlw	0
  6592     0D66  00F8               	movwf	OLED_WriteData@len+1
  6593     0D67  318F  275D  318D   	fcall	_OLED_WriteData
  6594     0D6A                     l143:
  6595     0D6A  0008               	return
  6596     0D6B                     __end_of_OLED_UpdateLine:
  6597                           
  6598                           	psect	text18
  6599     01BE                     __ptext18:	
  6600 ;; *************** function _OLED_Init *****************
  6601 ;; Defined at:
  6602 ;;		line 298 in file "OLED_SSD1306.c"
  6603 ;; Parameters:    Size  Location     Type
  6604 ;;		None
  6605 ;; Auto vars:     Size  Location     Type
  6606 ;;		None
  6607 ;; Return value:  Size  Location     Type
  6608 ;;                  1    wreg      void 
  6609 ;; Registers used:
  6610 ;;		wreg, fsr0l, fsr0h, fsr1l, fsr1h, status,2, status,0, pclath, cstack
  6611 ;; Tracked objects:
  6612 ;;		On entry : 0/0
  6613 ;;		On exit  : 0/0
  6614 ;;		Unchanged: 0/0
  6615 ;; Data sizes:     COMMON   BANK0   BANK1   BANK2   BANK3   BANK4   BANK5   BANK6   BANK7   BANK8   BANK9  BANK10  BANK1
      +1  BANK12  BANK13  BANK14  BANK15  BANK16  BANK17  BANK18  BANK19  BANK20  BANK21  BANK22  BANK23  BANK24  BANK25
  6616 ;;      Params:         0       0       0       0       0       0       0       0       0       0       0       0       
      +0       0       0       0       0       0       0       0       0       0       0       0       0       0       0
  6617 ;;      Locals:         0       0       0       0       0       0       0       0       0       0       0       0       
      +0       0       0       0       0       0       0       0       0       0       0       0       0       0       0
  6618 ;;      Temps:          1       0       0       0       0       0       0       0       0       0       0       0       
      +0       0       0       0       0       0       0       0       0       0       0       0       0       0       0
  6619 ;;      Totals:         1       0       0       0       0       0       0       0       0       0       0       0       
      +0       0       0       0       0       0       0       0       0       0       0       0       0       0       0
  6620 ;;Total ram usage:        1 bytes
  6621 ;; Hardware stack levels used: 1
  6622 ;; Hardware stack levels required when called: 5
  6623 ;; This function calls:
  6624 ;;		_OLED_Clear
  6625 ;;		_OLED_Command
  6626 ;; This function is called by:
  6627 ;;		_main
  6628 ;; This function uses a non-reentrant model
  6629 ;;
  6630                           
  6631     01BE                     _OLED_Init:	
  6632                           ;psect for function _OLED_Init
  6633                           
  6634     01BE                     l2586:	
  6635                           ;incstack = 0
  6636                           ; Regs used in _OLED_Init: [wreg-fsr1h+status,2+status,0+pclath+cstack]
  6637                           
  6638                           
  6639                           ;OLED_SSD1306.c: 300:     _delay((unsigned long)((10)*(32000000/4000.0)));
  6640     01BE  3068               	movlw	104
  6641     01BF  00FD               	movwf	??_OLED_Init
  6642     01C0  30E4               	movlw	228
  6643     01C1                     u3447:
  6644     01C1  0B89               	decfsz	9,f
  6645     01C2  29C1               	goto	u3447
  6646     01C3  0BFD               	decfsz	??_OLED_Init,f
  6647     01C4  29C1               	goto	u3447
  6648     01C5  3200               	nop2
  6649     01C6                     l2588:
  6650                           
  6651                           ;OLED_SSD1306.c: 302:     (void)OLED_Command(0xAE);
  6652     01C6  30AE               	movlw	174
  6653     01C7  3180  2005  3181   	fcall	_OLED_Command
  6654     01CA                     l2590:
  6655                           
  6656                           ;OLED_SSD1306.c: 303:     (void)OLED_Command(0x2E);
  6657     01CA  302E               	movlw	46
  6658     01CB  3180  2005  3181   	fcall	_OLED_Command
  6659     01CE                     l2592:
  6660                           
  6661                           ;OLED_SSD1306.c: 305:     (void)OLED_Command(0xD5);
  6662     01CE  30D5               	movlw	213
  6663     01CF  3180  2005  3181   	fcall	_OLED_Command
  6664     01D2                     l2594:
  6665                           
  6666                           ;OLED_SSD1306.c: 306:     (void)OLED_Command(0x80);
  6667     01D2  3080               	movlw	128
  6668     01D3  3180  2005  3181   	fcall	_OLED_Command
  6669     01D6                     l2596:
  6670                           
  6671                           ;OLED_SSD1306.c: 308:     (void)OLED_Command(0xA8);
  6672     01D6  30A8               	movlw	168
  6673     01D7  3180  2005  3181   	fcall	_OLED_Command
  6674     01DA                     l2598:
  6675                           
  6676                           ;OLED_SSD1306.c: 312:     (void)OLED_Command(0x1F);
  6677     01DA  301F               	movlw	31
  6678     01DB  3180  2005  3181   	fcall	_OLED_Command
  6679     01DE                     l2600:
  6680                           
  6681                           ;OLED_SSD1306.c: 315:     (void)OLED_Command(0xD3);
  6682     01DE  30D3               	movlw	211
  6683     01DF  3180  2005  3181   	fcall	_OLED_Command
  6684     01E2                     l2602:
  6685                           
  6686                           ;OLED_SSD1306.c: 316:     (void)OLED_Command(0x00);
  6687     01E2  3000               	movlw	0
  6688     01E3  3180  2005  3181   	fcall	_OLED_Command
  6689     01E6                     l2604:
  6690                           
  6691                           ;OLED_SSD1306.c: 318:     (void)OLED_Command(0x40 | 0x00);
  6692     01E6  3040               	movlw	64
  6693     01E7  3180  2005  3181   	fcall	_OLED_Command
  6694     01EA                     l2606:
  6695                           
  6696                           ;OLED_SSD1306.c: 320:     (void)OLED_Command(0x8D);
  6697     01EA  308D               	movlw	141
  6698     01EB  3180  2005  3181   	fcall	_OLED_Command
  6699     01EE                     l2608:
  6700                           
  6701                           ;OLED_SSD1306.c: 321:     (void)OLED_Command(0x14);
  6702     01EE  3014               	movlw	20
  6703     01EF  3180  2005  3181   	fcall	_OLED_Command
  6704     01F2                     l2610:
  6705                           
  6706                           ;OLED_SSD1306.c: 323:     (void)OLED_Command(0x20);
  6707     01F2  3020               	movlw	32
  6708     01F3  3180  2005  3181   	fcall	_OLED_Command
  6709     01F6                     l2612:
  6710                           
  6711                           ;OLED_SSD1306.c: 324:     (void)OLED_Command(0x02);
  6712     01F6  3002               	movlw	2
  6713     01F7  3180  2005  3181   	fcall	_OLED_Command
  6714     01FA                     l2614:
  6715                           
  6716                           ;OLED_SSD1306.c: 326:     (void)OLED_Command(0xA0 | 0x01);
  6717     01FA  30A1               	movlw	161
  6718     01FB  3180  2005  3181   	fcall	_OLED_Command
  6719     01FE                     l2616:
  6720                           
  6721                           ;OLED_SSD1306.c: 327:     (void)OLED_Command(0xC8);
  6722     01FE  30C8               	movlw	200
  6723     01FF  3180  2005  3181   	fcall	_OLED_Command
  6724     0202                     l2618:
  6725                           
  6726                           ;OLED_SSD1306.c: 329:     (void)OLED_Command(0xDA);
  6727     0202  30DA               	movlw	218
  6728     0203  3180  2005  3181   	fcall	_OLED_Command
  6729     0206                     l2620:
  6730                           
  6731                           ;OLED_SSD1306.c: 333:     (void)OLED_Command(0x02);
  6732     0206  3002               	movlw	2
  6733     0207  3180  2005  3181   	fcall	_OLED_Command
  6734     020A                     l2622:
  6735                           
  6736                           ;OLED_SSD1306.c: 336:     (void)OLED_Command(0x81);
  6737     020A  3081               	movlw	129
  6738     020B  3180  2005  3181   	fcall	_OLED_Command
  6739     020E                     l2624:
  6740                           
  6741                           ;OLED_SSD1306.c: 337:     (void)OLED_Command(0x8F);
  6742     020E  308F               	movlw	143
  6743     020F  3180  2005  3181   	fcall	_OLED_Command
  6744     0212                     l2626:
  6745                           
  6746                           ;OLED_SSD1306.c: 339:     (void)OLED_Command(0xD9);
  6747     0212  30D9               	movlw	217
  6748     0213  3180  2005  3181   	fcall	_OLED_Command
  6749     0216                     l2628:
  6750                           
  6751                           ;OLED_SSD1306.c: 340:     (void)OLED_Command(0xF1);
  6752     0216  30F1               	movlw	241
  6753     0217  3180  2005  3181   	fcall	_OLED_Command
  6754     021A                     l2630:
  6755                           
  6756                           ;OLED_SSD1306.c: 342:     (void)OLED_Command(0xDB);
  6757     021A  30DB               	movlw	219
  6758     021B  3180  2005  3181   	fcall	_OLED_Command
  6759     021E                     l2632:
  6760                           
  6761                           ;OLED_SSD1306.c: 343:     (void)OLED_Command(0x40);
  6762     021E  3040               	movlw	64
  6763     021F  3180  2005  3181   	fcall	_OLED_Command
  6764     0222                     l2634:
  6765                           
  6766                           ;OLED_SSD1306.c: 345:     (void)OLED_Command(0xA4);
  6767     0222  30A4               	movlw	164
  6768     0223  3180  2005  3181   	fcall	_OLED_Command
  6769     0226                     l2636:
  6770                           
  6771                           ;OLED_SSD1306.c: 346:     (void)OLED_Command(0xA6);
  6772     0226  30A6               	movlw	166
  6773     0227  3180  2005  3181   	fcall	_OLED_Command
  6774     022A                     l2638:
  6775                           
  6776                           ;OLED_SSD1306.c: 347:     (void)OLED_Command(0xAF);
  6777     022A  30AF               	movlw	175
  6778     022B  3180  2005  3181   	fcall	_OLED_Command
  6779     022E                     l2640:
  6780                           
  6781                           ;OLED_SSD1306.c: 350:     OLED_Clear();
  6782     022E  318F  2710  3181   	fcall	_OLED_Clear
  6783     0231                     l134:
  6784     0231  0008               	return
  6785     0232                     __end_of_OLED_Init:
  6786                           
  6787                           	psect	text19
  6788     0F10                     __ptext19:	
  6789 ;; *************** function _OLED_Clear *****************
  6790 ;; Defined at:
  6791 ;;		line 356 in file "OLED_SSD1306.c"
  6792 ;; Parameters:    Size  Location     Type
  6793 ;;		None
  6794 ;; Auto vars:     Size  Location     Type
  6795 ;;  p               1   12[COMMON] unsigned char 
  6796 ;; Return value:  Size  Location     Type
  6797 ;;                  1    wreg      void 
  6798 ;; Registers used:
  6799 ;;		wreg, fsr0l, fsr0h, fsr1l, fsr1h, status,2, status,0, pclath, cstack
  6800 ;; Tracked objects:
  6801 ;;		On entry : 0/0
  6802 ;;		On exit  : 0/0
  6803 ;;		Unchanged: 0/0
  6804 ;; Data sizes:     COMMON   BANK0   BANK1   BANK2   BANK3   BANK4   BANK5   BANK6   BANK7   BANK8   BANK9  BANK10  BANK1
      +1  BANK12  BANK13  BANK14  BANK15  BANK16  BANK17  BANK18  BANK19  BANK20  BANK21  BANK22  BANK23  BANK24  BANK25
  6805 ;;      Params:         0       0       0       0       0       0       0       0       0       0       0       0       
      +0       0       0       0       0       0       0       0       0       0       0       0       0       0       0
  6806 ;;      Locals:         1       0       0       0       0       0       0       0       0       0       0       0       
      +0       0       0       0       0       0       0       0       0       0       0       0       0       0       0
  6807 ;;      Temps:          0       6       0       0       0       0       0       0       0       0       0       0       
      +0       0       0       0       0       0       0       0       0       0       0       0       0       0       0
  6808 ;;      Totals:         1       6       0       0       0       0       0       0       0       0       0       0       
      +0       0       0       0       0       0       0       0       0       0       0       0       0       0       0
  6809 ;;Total ram usage:        7 bytes
  6810 ;; Hardware stack levels used: 1
  6811 ;; Hardware stack levels required when called: 4
  6812 ;; This function calls:
  6813 ;;		_OLED_WriteData
  6814 ;;		_OLED_YX
  6815 ;;		_memset
  6816 ;; This function is called by:
  6817 ;;		_OLED_Init
  6818 ;;		_main
  6819 ;; This function uses a non-reentrant model
  6820 ;;
  6821                           
  6822     0F10                     _OLED_Clear:	
  6823                           ;psect for function _OLED_Clear
  6824                           
  6825     0F10                     l2248:	
  6826                           ;incstack = 0
  6827                           ; Regs used in _OLED_Clear: [wreg-fsr1h+status,2+status,0+pclath+cstack]
  6828                           
  6829                           
  6830                           ;OLED_SSD1306.c: 358:     for (uint8_t p = 0; p < (32 / 8); p++)
  6831     0F10  01FC               	clrf	OLED_Clear@p
  6832     0F11                     l2254:
  6833                           
  6834                           ;OLED_SSD1306.c: 359:     {;OLED_SSD1306.c: 360:         memset(screen_buffer[p], 0, 128
      +                          );
  6835     0F11  087C               	movf	OLED_Clear@p,w
  6836     0F12  0020               	movlb	0	; select bank0
  6837     0F13  00A0               	movwf	??_OLED_Clear
  6838     0F14  01A1               	clrf	??_OLED_Clear+1
  6839     0F15  3007               	movlw	7
  6840     0F16                     u1965:
  6841     0F16  35A0               	lslf	??_OLED_Clear,f
  6842     0F17  0DA1               	rlf	??_OLED_Clear+1,f
  6843     0F18  0B89               	decfsz	9,f
  6844     0F19  2F16               	goto	u1965
  6845     0F1A  30F0               	movlw	240
  6846     0F1B  00A2               	movwf	??_OLED_Clear+2
  6847     0F1C  3024               	movlw	36
  6848     0F1D  00A3               	movwf	??_OLED_Clear+3
  6849     0F1E  0820               	movf	??_OLED_Clear,w
  6850     0F1F  0722               	addwf	??_OLED_Clear+2,w
  6851     0F20  00F0               	movwf	memset@dest
  6852     0F21  0821               	movf	??_OLED_Clear+1,w
  6853     0F22  3D23               	addwfc	??_OLED_Clear+3,w
  6854     0F23  00F1               	movwf	memset@dest+1
  6855     0F24  3000               	movlw	0
  6856     0F25  00F2               	movwf	memset@c
  6857     0F26  00F3               	movwf	memset@c+1
  6858     0F27  3080               	movlw	128
  6859     0F28  00F4               	movwf	memset@n
  6860     0F29  3000               	movlw	0
  6861     0F2A  00F5               	movwf	memset@n+1
  6862     0F2B  318C  242E  318F   	fcall	_memset
  6863     0F2E                     l2256:
  6864                           
  6865                           ;OLED_SSD1306.c: 362:         OLED_YX(p, 0);
  6866     0F2E  01F7               	clrf	OLED_YX@col_char
  6867     0F2F  087C               	movf	OLED_Clear@p,w
  6868     0F30  318C  2487  318F   	fcall	_OLED_YX
  6869     0F33                     l2258:
  6870                           
  6871                           ;OLED_SSD1306.c: 363:         (void)OLED_WriteData(screen_buffer[p], 128);
  6872     0F33  087C               	movf	OLED_Clear@p,w
  6873     0F34  0020               	movlb	0	; select bank0
  6874     0F35  00A0               	movwf	??_OLED_Clear
  6875     0F36  01A1               	clrf	??_OLED_Clear+1
  6876     0F37  3007               	movlw	7
  6877     0F38                     u1975:
  6878     0F38  35A0               	lslf	??_OLED_Clear,f
  6879     0F39  0DA1               	rlf	??_OLED_Clear+1,f
  6880     0F3A  0B89               	decfsz	9,f
  6881     0F3B  2F38               	goto	u1975
  6882     0F3C  30F0               	movlw	240
  6883     0F3D  00A2               	movwf	??_OLED_Clear+2
  6884     0F3E  3024               	movlw	36
  6885     0F3F  00A3               	movwf	??_OLED_Clear+3
  6886     0F40  0820               	movf	??_OLED_Clear,w
  6887     0F41  0722               	addwf	??_OLED_Clear+2,w
  6888     0F42  00A4               	movwf	??_OLED_Clear+4
  6889     0F43  0821               	movf	??_OLED_Clear+1,w
  6890     0F44  3D23               	addwfc	??_OLED_Clear+3,w
  6891     0F45  00A5               	movwf	??_OLED_Clear+5
  6892     0F46  0824               	movf	??_OLED_Clear+4,w
  6893     0F47  00F5               	movwf	OLED_WriteData@data
  6894     0F48  0825               	movf	??_OLED_Clear+5,w
  6895     0F49  00F6               	movwf	OLED_WriteData@data+1
  6896     0F4A  3080               	movlw	128
  6897     0F4B  00F7               	movwf	OLED_WriteData@len
  6898     0F4C  3000               	movlw	0
  6899     0F4D  00F8               	movwf	OLED_WriteData@len+1
  6900     0F4E  318F  275D  318F   	fcall	_OLED_WriteData
  6901     0F51                     l2260:
  6902                           
  6903                           ;OLED_SSD1306.c: 364:     }
  6904     0F51  3001               	movlw	1
  6905     0F52  0020               	movlb	0	; select bank0
  6906     0F53  00A0               	movwf	??_OLED_Clear
  6907     0F54  0820               	movf	??_OLED_Clear,w
  6908     0F55  07FC               	addwf	OLED_Clear@p,f
  6909     0F56                     l2262:
  6910     0F56  3004               	movlw	4
  6911     0F57  027C               	subwf	OLED_Clear@p,w
  6912     0F58  1C03               	skipc
  6913     0F59  2F5B               	goto	u1981
  6914     0F5A  2F5C               	goto	u1980
  6915     0F5B                     u1981:
  6916     0F5B  2F11               	goto	l2254
  6917     0F5C                     u1980:
  6918     0F5C                     l139:
  6919     0F5C  0008               	return
  6920     0F5D                     __end_of_OLED_Clear:
  6921                           
  6922                           	psect	text20
  6923     0C2E                     __ptext20:	
  6924 ;; *************** function _memset *****************
  6925 ;; Defined at:
  6926 ;;		line 3 in file "C:\Program Files\Microchip\xc8\v2.46\pic\sources\c99\common\memset.c"
  6927 ;; Parameters:    Size  Location     Type
  6928 ;;  dest            2    0[COMMON] PTR void 
  6929 ;;		 -> screen_buffer(512), 
  6930 ;;  c               2    2[COMMON] int 
  6931 ;;  n               2    4[COMMON] unsigned int 
  6932 ;; Auto vars:     Size  Location     Type
  6933 ;;  p               2    6[COMMON] PTR unsigned char 
  6934 ;;		 -> screen_buffer(512), 
  6935 ;; Return value:  Size  Location     Type
  6936 ;;                  2    0[COMMON] PTR void 
  6937 ;; Registers used:
  6938 ;;		wreg, fsr1l, fsr1h, status,2, status,0
  6939 ;; Tracked objects:
  6940 ;;		On entry : 0/0
  6941 ;;		On exit  : 0/0
  6942 ;;		Unchanged: 0/0
  6943 ;; Data sizes:     COMMON   BANK0   BANK1   BANK2   BANK3   BANK4   BANK5   BANK6   BANK7   BANK8   BANK9  BANK10  BANK1
      +1  BANK12  BANK13  BANK14  BANK15  BANK16  BANK17  BANK18  BANK19  BANK20  BANK21  BANK22  BANK23  BANK24  BANK25
  6944 ;;      Params:         6       0       0       0       0       0       0       0       0       0       0       0       
      +0       0       0       0       0       0       0       0       0       0       0       0       0       0       0
  6945 ;;      Locals:         2       0       0       0       0       0       0       0       0       0       0       0       
      +0       0       0       0       0       0       0       0       0       0       0       0       0       0       0
  6946 ;;      Temps:          0       0       0       0       0       0       0       0       0       0       0       0       
      +0       0       0       0       0       0       0       0       0       0       0       0       0       0       0
  6947 ;;      Totals:         8       0       0       0       0       0       0       0       0       0       0       0       
      +0       0       0       0       0       0       0       0       0       0       0       0       0       0       0
  6948 ;;Total ram usage:        8 bytes
  6949 ;; Hardware stack levels used: 1
  6950 ;; This function calls:
  6951 ;;		Nothing
  6952 ;; This function is called by:
  6953 ;;		_OLED_Clear
  6954 ;;		_OLED_Printf_Line
  6955 ;; This function uses a non-reentrant model
  6956 ;;
  6957                           
  6958     0C2E                     _memset:	
  6959                           ;psect for function _memset
  6960                           
  6961     0C2E                     l2238:	
  6962                           ;incstack = 0
  6963                           ; Regs used in _memset: [wreg+fsr1l+fsr1h+status,2+status,0]
  6964                           
  6965     0C2E  0871               	movf	memset@dest+1,w
  6966     0C2F  00F7               	movwf	memset@p+1
  6967     0C30  0870               	movf	memset@dest,w
  6968     0C31  00F6               	movwf	memset@p
  6969     0C32  2C3D               	goto	l2244
  6970     0C33                     l2240:
  6971     0C33  0876               	movf	memset@p,w
  6972     0C34  0086               	movwf	6
  6973     0C35  0877               	movf	memset@p+1,w
  6974     0C36  0087               	movwf	7
  6975     0C37  0872               	movf	memset@c,w
  6976     0C38  0081               	movwf	1
  6977     0C39                     l2242:
  6978     0C39  3001               	movlw	1
  6979     0C3A  07F6               	addwf	memset@p,f
  6980     0C3B  3000               	movlw	0
  6981     0C3C  3DF7               	addwfc	memset@p+1,f
  6982     0C3D                     l2244:
  6983     0C3D  3001               	movlw	1
  6984     0C3E  02F4               	subwf	memset@n,f
  6985     0C3F  3000               	movlw	0
  6986     0C40  3BF5               	subwfb	memset@n+1,f
  6987     0C41  0A74               	incf	memset@n,w
  6988     0C42  1D03               	skipz
  6989     0C43  2C48               	goto	u1951
  6990     0C44  0A75               	incf	memset@n+1,w
  6991     0C45  1D03               	btfss	3,2
  6992     0C46  2C48               	goto	u1951
  6993     0C47  2C49               	goto	u1950
  6994     0C48                     u1951:
  6995     0C48  2C33               	goto	l2240
  6996     0C49                     u1950:
  6997     0C49                     l934:
  6998     0C49  0008               	return
  6999     0C4A                     __end_of_memset:
  7000                           
  7001                           	psect	text21
  7002     0C87                     __ptext21:	
  7003 ;; *************** function _OLED_YX *****************
  7004 ;; Defined at:
  7005 ;;		line 283 in file "OLED_SSD1306.c"
  7006 ;; Parameters:    Size  Location     Type
  7007 ;;  page            1    wreg     unsigned char 
  7008 ;;  col_char        1    7[COMMON] unsigned char 
  7009 ;; Auto vars:     Size  Location     Type
  7010 ;;  page            1    9[COMMON] unsigned char 
  7011 ;;  col             1   10[COMMON] unsigned char 
  7012 ;; Return value:  Size  Location     Type
  7013 ;;                  1    wreg      void 
  7014 ;; Registers used:
  7015 ;;		wreg, status,2, status,0, pclath, cstack
  7016 ;; Tracked objects:
  7017 ;;		On entry : 0/0
  7018 ;;		On exit  : 0/0
  7019 ;;		Unchanged: 0/0
  7020 ;; Data sizes:     COMMON   BANK0   BANK1   BANK2   BANK3   BANK4   BANK5   BANK6   BANK7   BANK8   BANK9  BANK10  BANK1
      +1  BANK12  BANK13  BANK14  BANK15  BANK16  BANK17  BANK18  BANK19  BANK20  BANK21  BANK22  BANK23  BANK24  BANK25
  7021 ;;      Params:         1       0       0       0       0       0       0       0       0       0       0       0       
      +0       0       0       0       0       0       0       0       0       0       0       0       0       0       0
  7022 ;;      Locals:         2       0       0       0       0       0       0       0       0       0       0       0       
      +0       0       0       0       0       0       0       0       0       0       0       0       0       0       0
  7023 ;;      Temps:          1       0       0       0       0       0       0       0       0       0       0       0       
      +0       0       0       0       0       0       0       0       0       0       0       0       0       0       0
  7024 ;;      Totals:         4       0       0       0       0       0       0       0       0       0       0       0       
      +0       0       0       0       0       0       0       0       0       0       0       0       0       0       0
  7025 ;;Total ram usage:        4 bytes
  7026 ;; Hardware stack levels used: 1
  7027 ;; Hardware stack levels required when called: 3
  7028 ;; This function calls:
  7029 ;;		_OLED_Command
  7030 ;; This function is called by:
  7031 ;;		_OLED_Clear
  7032 ;;		_OLED_UpdateLine
  7033 ;;		_OLED_WriteString
  7034 ;; This function uses a non-reentrant model
  7035 ;;
  7036                           
  7037     0C87                     _OLED_YX:	
  7038                           ;psect for function _OLED_YX
  7039                           
  7040                           
  7041                           ;incstack = 0
  7042                           ; Regs used in _OLED_YX: [wreg+status,2+status,0+pclath+cstack]
  7043                           ;OLED_YX@page stored from wreg
  7044     0C87  00F9               	movwf	OLED_YX@page
  7045     0C88                     l2230:
  7046                           
  7047                           ;OLED_SSD1306.c: 283: void OLED_YX(uint8_t page, uint8_t col_char);OLED_SSD1306.c: 284: 
      +                          {;OLED_SSD1306.c: 285:     uint8_t col = (uint8_t)(col_char * 8);
  7048     0C88  0877               	movf	OLED_YX@col_char,w
  7049     0C89  00F8               	movwf	??_OLED_YX
  7050     0C8A  3002               	movlw	2
  7051     0C8B                     u1935:
  7052     0C8B  35F8               	lslf	??_OLED_YX,f
  7053     0C8C  3EFF               	addlw	-1
  7054     0C8D  1D03               	skipz
  7055     0C8E  2C8B               	goto	u1935
  7056     0C8F  3578               	lslf	??_OLED_YX,w
  7057     0C90  00FA               	movwf	OLED_YX@col
  7058     0C91                     l2232:
  7059                           
  7060                           ;OLED_SSD1306.c: 287:     (void)OLED_Command(0xB0 | (page & 0x07));
  7061     0C91  0879               	movf	OLED_YX@page,w
  7062     0C92  3907               	andlw	7
  7063     0C93  38B0               	iorlw	176
  7064     0C94  3180  2005  318C   	fcall	_OLED_Command
  7065     0C97                     l2234:
  7066                           
  7067                           ;OLED_SSD1306.c: 288:     (void)OLED_Command(0x00 | (col & 0x0F));
  7068     0C97  087A               	movf	OLED_YX@col,w
  7069     0C98  390F               	andlw	15
  7070     0C99  3180  2005  318C   	fcall	_OLED_Command
  7071     0C9C                     l2236:
  7072                           
  7073                           ;OLED_SSD1306.c: 289:     (void)OLED_Command(0x10 | ((col >> 4) & 0x0F));
  7074     0C9C  087A               	movf	OLED_YX@col,w
  7075     0C9D  00F8               	movwf	??_OLED_YX
  7076     0C9E  3004               	movlw	4
  7077     0C9F                     u1945:
  7078     0C9F  36F8               	lsrf	??_OLED_YX,f
  7079     0CA0  0B89               	decfsz	9,f
  7080     0CA1  2C9F               	goto	u1945
  7081     0CA2  0878               	movf	??_OLED_YX,w
  7082     0CA3  390F               	andlw	15
  7083     0CA4  3810               	iorlw	16
  7084     0CA5  3180  2005  318C   	fcall	_OLED_Command
  7085     0CA8                     l131:
  7086     0CA8  0008               	return
  7087     0CA9                     __end_of_OLED_YX:
  7088                           
  7089                           	psect	text22
  7090     0005                     __ptext22:	
  7091 ;; *************** function _OLED_Command *****************
  7092 ;; Defined at:
  7093 ;;		line 190 in file "OLED_SSD1306.c"
  7094 ;; Parameters:    Size  Location     Type
  7095 ;;  cmd             1    wreg     unsigned char 
  7096 ;; Auto vars:     Size  Location     Type
  7097 ;;  cmd             1    5[COMMON] unsigned char 
  7098 ;;  st              1    6[COMMON] enum E6043
  7099 ;; Return value:  Size  Location     Type
  7100 ;;                  1    wreg      enum E6043
  7101 ;; Registers used:
  7102 ;;		wreg, status,2, status,0, pclath, cstack
  7103 ;; Tracked objects:
  7104 ;;		On entry : 0/0
  7105 ;;		On exit  : 0/0
  7106 ;;		Unchanged: 0/0
  7107 ;; Data sizes:     COMMON   BANK0   BANK1   BANK2   BANK3   BANK4   BANK5   BANK6   BANK7   BANK8   BANK9  BANK10  BANK1
      +1  BANK12  BANK13  BANK14  BANK15  BANK16  BANK17  BANK18  BANK19  BANK20  BANK21  BANK22  BANK23  BANK24  BANK25
  7108 ;;      Params:         0       0       0       0       0       0       0       0       0       0       0       0       
      +0       0       0       0       0       0       0       0       0       0       0       0       0       0       0
  7109 ;;      Locals:         2       0       0       0       0       0       0       0       0       0       0       0       
      +0       0       0       0       0       0       0       0       0       0       0       0       0       0       0
  7110 ;;      Temps:          0       0       0       0       0       0       0       0       0       0       0       0       
      +0       0       0       0       0       0       0       0       0       0       0       0       0       0       0
  7111 ;;      Totals:         2       0       0       0       0       0       0       0       0       0       0       0       
      +0       0       0       0       0       0       0       0       0       0       0       0       0       0       0
  7112 ;;Total ram usage:        2 bytes
  7113 ;; Hardware stack levels used: 1
  7114 ;; Hardware stack levels required when called: 2
  7115 ;; This function calls:
  7116 ;;		_I2C_Start
  7117 ;;		_I2C_Stop
  7118 ;;		_I2C_WriteByte
  7119 ;;		_SSD1306_CtrlW
  7120 ;; This function is called by:
  7121 ;;		_OLED_SetOrientation
  7122 ;;		_OLED_YX
  7123 ;;		_OLED_Init
  7124 ;;		_OLED_UpdatePartialLine
  7125 ;; This function uses a non-reentrant model
  7126 ;;
  7127                           
  7128     0005                     _OLED_Command:	
  7129                           ;psect for function _OLED_Command
  7130                           
  7131                           
  7132                           ;incstack = 0
  7133                           ; Regs used in _OLED_Command: [wreg+status,2+status,0+pclath+cstack]
  7134                           ;OLED_Command@cmd stored from wreg
  7135     0005  00F5               	movwf	OLED_Command@cmd
  7136     0006                     l2162:
  7137                           
  7138                           ;OLED_SSD1306.c: 190: static I2C_Status_t OLED_Command(uint8_t cmd);OLED_SSD1306.c: 191:
      +                           {;OLED_SSD1306.c: 192:     I2C_Status_t st;;OLED_SSD1306.c: 194:     st = I2C_Start();
  7139     0006  318C  24F0  3180   	fcall	_I2C_Start
  7140     0009  00F6               	movwf	OLED_Command@st
  7141     000A                     l2164:
  7142                           
  7143                           ;OLED_SSD1306.c: 195:     if (st != I2C_OK) return st;
  7144     000A  0876               	movf	OLED_Command@st,w
  7145     000B  1903               	btfsc	3,2
  7146     000C  280E               	goto	u1841
  7147     000D  280F               	goto	u1840
  7148     000E                     u1841:
  7149     000E  2810               	goto	l2168
  7150     000F                     u1840:
  7151     000F  2832               	goto	l105
  7152     0010                     l2168:
  7153                           
  7154                           ;OLED_SSD1306.c: 197:     st = I2C_WriteByte(SSD1306_CtrlW());
  7155     0010  318B  23D7  3180   	fcall	_SSD1306_CtrlW
  7156     0013  318D  2598  3180   	fcall	_I2C_WriteByte
  7157     0016  00F6               	movwf	OLED_Command@st
  7158     0017                     l2170:
  7159                           
  7160                           ;OLED_SSD1306.c: 198:     if (st != I2C_OK) { I2C_Stop(); return st; }
  7161     0017  0876               	movf	OLED_Command@st,w
  7162     0018  1903               	btfsc	3,2
  7163     0019  281B               	goto	u1851
  7164     001A  281C               	goto	u1850
  7165     001B                     u1851:
  7166     001B  2820               	goto	l2176
  7167     001C                     u1850:
  7168     001C                     l2172:
  7169     001C  318C  24A9  3180   	fcall	_I2C_Stop
  7170     001F  2832               	goto	l105
  7171     0020                     l2176:
  7172                           
  7173                           ;OLED_SSD1306.c: 200:     st = I2C_WriteByte(0x00);
  7174     0020  3000               	movlw	0
  7175     0021  318D  2598  3180   	fcall	_I2C_WriteByte
  7176     0024  00F6               	movwf	OLED_Command@st
  7177     0025                     l2178:
  7178                           
  7179                           ;OLED_SSD1306.c: 201:     if (st != I2C_OK) { I2C_Stop(); return st; }
  7180     0025  0876               	movf	OLED_Command@st,w
  7181     0026  1903               	btfsc	3,2
  7182     0027  2829               	goto	u1861
  7183     0028  282A               	goto	u1860
  7184     0029                     u1861:
  7185     0029  282B               	goto	l2184
  7186     002A                     u1860:
  7187     002A  281C               	goto	l2172
  7188     002B                     l2184:
  7189     002B  0875               	movf	OLED_Command@cmd,w
  7190     002C  318D  2598  3180   	fcall	_I2C_WriteByte
  7191                           
  7192                           ;OLED_SSD1306.c: 204:     I2C_Stop();
  7193     002F  318C  24A9  3180   	fcall	_I2C_Stop
  7194     0032                     l105:
  7195     0032  0008               	return
  7196     0033                     __end_of_OLED_Command:
  7197                           
  7198                           	psect	text23
  7199     0F5D                     __ptext23:	
  7200 ;; *************** function _OLED_WriteData *****************
  7201 ;; Defined at:
  7202 ;;		line 215 in file "OLED_SSD1306.c"
  7203 ;; Parameters:    Size  Location     Type
  7204 ;;  data            2    5[COMMON] PTR const unsigned char 
  7205 ;;		 -> OledFont(768), screen_buffer(512), 
  7206 ;;  len             2    7[COMMON] unsigned short 
  7207 ;; Auto vars:     Size  Location     Type
  7208 ;;  i               2    9[COMMON] unsigned short 
  7209 ;;  st              1   11[COMMON] enum E6043
  7210 ;; Return value:  Size  Location     Type
  7211 ;;                  1    wreg      enum E6043
  7212 ;; Registers used:
  7213 ;;		wreg, fsr0l, fsr0h, status,2, status,0, pclath, cstack
  7214 ;; Tracked objects:
  7215 ;;		On entry : 0/0
  7216 ;;		On exit  : 0/0
  7217 ;;		Unchanged: 0/0
  7218 ;; Data sizes:     COMMON   BANK0   BANK1   BANK2   BANK3   BANK4   BANK5   BANK6   BANK7   BANK8   BANK9  BANK10  BANK1
      +1  BANK12  BANK13  BANK14  BANK15  BANK16  BANK17  BANK18  BANK19  BANK20  BANK21  BANK22  BANK23  BANK24  BANK25
  7219 ;;      Params:         4       0       0       0       0       0       0       0       0       0       0       0       
      +0       0       0       0       0       0       0       0       0       0       0       0       0       0       0
  7220 ;;      Locals:         3       0       0       0       0       0       0       0       0       0       0       0       
      +0       0       0       0       0       0       0       0       0       0       0       0       0       0       0
  7221 ;;      Temps:          0       0       0       0       0       0       0       0       0       0       0       0       
      +0       0       0       0       0       0       0       0       0       0       0       0       0       0       0
  7222 ;;      Totals:         7       0       0       0       0       0       0       0       0       0       0       0       
      +0       0       0       0       0       0       0       0       0       0       0       0       0       0       0
  7223 ;;Total ram usage:        7 bytes
  7224 ;; Hardware stack levels used: 1
  7225 ;; Hardware stack levels required when called: 2
  7226 ;; This function calls:
  7227 ;;		_I2C_Start
  7228 ;;		_I2C_Stop
  7229 ;;		_I2C_WriteByte
  7230 ;;		_SSD1306_CtrlW
  7231 ;; This function is called by:
  7232 ;;		_OLED_Clear
  7233 ;;		_OLED_UpdateLine
  7234 ;;		_OLED_UpdatePartialLine
  7235 ;;		_OLED_WriteString
  7236 ;; This function uses a non-reentrant model
  7237 ;;
  7238                           
  7239     0F5D                     _OLED_WriteData:	
  7240                           ;psect for function _OLED_WriteData
  7241                           
  7242     0F5D                     l2188:	
  7243                           ;incstack = 0
  7244                           ; Regs used in _OLED_WriteData: [wreg-fsr0h+status,2+status,0+pclath+cstack]
  7245                           
  7246                           
  7247                           ;OLED_SSD1306.c: 215: static I2C_Status_t OLED_WriteData(const uint8_t* data, uint16_t l
      +                          en);OLED_SSD1306.c: 216: {;OLED_SSD1306.c: 217:     I2C_Status_t st;;OLED_SSD1306.c: 219
      +                          :     if (data == ((void*)0)) return I2C_TIMEOUT;
  7248     0F5D  0875               	movf	OLED_WriteData@data,w
  7249     0F5E  0476               	iorwf	OLED_WriteData@data+1,w
  7250     0F5F  1D03               	btfss	3,2
  7251     0F60  2F62               	goto	u1871
  7252     0F61  2F63               	goto	u1870
  7253     0F62                     u1871:
  7254     0F62  2F64               	goto	l2192
  7255     0F63                     u1870:
  7256     0F63  2FAC               	goto	l111
  7257     0F64                     l2192:
  7258                           
  7259                           ;OLED_SSD1306.c: 221:     st = I2C_Start();
  7260     0F64  318C  24F0  318F   	fcall	_I2C_Start
  7261     0F67  00FB               	movwf	OLED_WriteData@st
  7262     0F68                     l2194:
  7263                           
  7264                           ;OLED_SSD1306.c: 222:     if (st != I2C_OK) return st;
  7265     0F68  087B               	movf	OLED_WriteData@st,w
  7266     0F69  1903               	btfsc	3,2
  7267     0F6A  2F6C               	goto	u1881
  7268     0F6B  2F6D               	goto	u1880
  7269     0F6C                     u1881:
  7270     0F6C  2F6E               	goto	l2198
  7271     0F6D                     u1880:
  7272     0F6D  2FAC               	goto	l111
  7273     0F6E                     l2198:
  7274                           
  7275                           ;OLED_SSD1306.c: 224:     st = I2C_WriteByte(SSD1306_CtrlW());
  7276     0F6E  318B  23D7  318F   	fcall	_SSD1306_CtrlW
  7277     0F71  318D  2598  318F   	fcall	_I2C_WriteByte
  7278     0F74  00FB               	movwf	OLED_WriteData@st
  7279     0F75                     l2200:
  7280                           
  7281                           ;OLED_SSD1306.c: 225:     if (st != I2C_OK) { I2C_Stop(); return st; }
  7282     0F75  087B               	movf	OLED_WriteData@st,w
  7283     0F76  1903               	btfsc	3,2
  7284     0F77  2F79               	goto	u1891
  7285     0F78  2F7A               	goto	u1890
  7286     0F79                     u1891:
  7287     0F79  2F7E               	goto	l2206
  7288     0F7A                     u1890:
  7289     0F7A                     l2202:
  7290     0F7A  318C  24A9  318F   	fcall	_I2C_Stop
  7291     0F7D  2FAC               	goto	l111
  7292     0F7E                     l2206:
  7293                           
  7294                           ;OLED_SSD1306.c: 227:     st = I2C_WriteByte(0x40);
  7295     0F7E  3040               	movlw	64
  7296     0F7F  318D  2598  318F   	fcall	_I2C_WriteByte
  7297     0F82  00FB               	movwf	OLED_WriteData@st
  7298     0F83                     l2208:
  7299                           
  7300                           ;OLED_SSD1306.c: 228:     if (st != I2C_OK) { I2C_Stop(); return st; }
  7301     0F83  087B               	movf	OLED_WriteData@st,w
  7302     0F84  1903               	btfsc	3,2
  7303     0F85  2F87               	goto	u1901
  7304     0F86  2F88               	goto	u1900
  7305     0F87                     u1901:
  7306     0F87  2F89               	goto	l2214
  7307     0F88                     u1900:
  7308     0F88  2F7A               	goto	l2202
  7309     0F89                     l2214:
  7310                           
  7311                           ;OLED_SSD1306.c: 230:     for (uint16_t i = 0; i < len; i++)
  7312     0F89  01F9               	clrf	OLED_WriteData@i
  7313     0F8A  01FA               	clrf	OLED_WriteData@i+1
  7314     0F8B  2FA1               	goto	l115
  7315     0F8C                     l2216:
  7316                           
  7317                           ;OLED_SSD1306.c: 231:     {;OLED_SSD1306.c: 232:         st = I2C_WriteByte(data[i]);
  7318     0F8C  0875               	movf	OLED_WriteData@data,w
  7319     0F8D  0779               	addwf	OLED_WriteData@i,w
  7320     0F8E  0084               	movwf	4
  7321     0F8F  0876               	movf	OLED_WriteData@data+1,w
  7322     0F90  3D7A               	addwfc	OLED_WriteData@i+1,w
  7323     0F91  0085               	movwf	5
  7324     0F92  0800               	movf	0,w	;code access
  7325     0F93  318D  2598  318F   	fcall	_I2C_WriteByte
  7326     0F96  00FB               	movwf	OLED_WriteData@st
  7327     0F97                     l2218:
  7328                           
  7329                           ;OLED_SSD1306.c: 233:         if (st != I2C_OK) { I2C_Stop(); return st; }
  7330     0F97  087B               	movf	OLED_WriteData@st,w
  7331     0F98  1903               	btfsc	3,2
  7332     0F99  2F9B               	goto	u1911
  7333     0F9A  2F9C               	goto	u1910
  7334     0F9B                     u1911:
  7335     0F9B  2F9D               	goto	l2224
  7336     0F9C                     u1910:
  7337     0F9C  2F7A               	goto	l2202
  7338     0F9D                     l2224:
  7339                           
  7340                           ;OLED_SSD1306.c: 234:     }
  7341     0F9D  3001               	movlw	1
  7342     0F9E  07F9               	addwf	OLED_WriteData@i,f
  7343     0F9F  3000               	movlw	0
  7344     0FA0  3DFA               	addwfc	OLED_WriteData@i+1,f
  7345     0FA1                     l115:
  7346     0FA1  0878               	movf	OLED_WriteData@len+1,w
  7347     0FA2  027A               	subwf	OLED_WriteData@i+1,w
  7348     0FA3  1D03               	skipz
  7349     0FA4  2FA7               	goto	u1925
  7350     0FA5  0877               	movf	OLED_WriteData@len,w
  7351     0FA6  0279               	subwf	OLED_WriteData@i,w
  7352     0FA7                     u1925:
  7353     0FA7  1C03               	skipc
  7354     0FA8  2FAA               	goto	u1921
  7355     0FA9  2FAB               	goto	u1920
  7356     0FAA                     u1921:
  7357     0FAA  2F8C               	goto	l2216
  7358     0FAB                     u1920:
  7359     0FAB  2F7A               	goto	l2202
  7360     0FAC                     l111:
  7361     0FAC  0008               	return
  7362     0FAD                     __end_of_OLED_WriteData:
  7363                           
  7364                           	psect	text24
  7365     0BD7                     __ptext24:	
  7366 ;; *************** function _SSD1306_CtrlW *****************
  7367 ;; Defined at:
  7368 ;;		line 182 in file "OLED_SSD1306.c"
  7369 ;; Parameters:    Size  Location     Type
  7370 ;;		None
  7371 ;; Auto vars:     Size  Location     Type
  7372 ;;		None
  7373 ;; Return value:  Size  Location     Type
  7374 ;;                  1    wreg      unsigned char 
  7375 ;; Registers used:
  7376 ;;		wreg
  7377 ;; Tracked objects:
  7378 ;;		On entry : 0/0
  7379 ;;		On exit  : 0/0
  7380 ;;		Unchanged: 0/0
  7381 ;; Data sizes:     COMMON   BANK0   BANK1   BANK2   BANK3   BANK4   BANK5   BANK6   BANK7   BANK8   BANK9  BANK10  BANK1
      +1  BANK12  BANK13  BANK14  BANK15  BANK16  BANK17  BANK18  BANK19  BANK20  BANK21  BANK22  BANK23  BANK24  BANK25
  7382 ;;      Params:         0       0       0       0       0       0       0       0       0       0       0       0       
      +0       0       0       0       0       0       0       0       0       0       0       0       0       0       0
  7383 ;;      Locals:         0       0       0       0       0       0       0       0       0       0       0       0       
      +0       0       0       0       0       0       0       0       0       0       0       0       0       0       0
  7384 ;;      Temps:          0       0       0       0       0       0       0       0       0       0       0       0       
      +0       0       0       0       0       0       0       0       0       0       0       0       0       0       0
  7385 ;;      Totals:         0       0       0       0       0       0       0       0       0       0       0       0       
      +0       0       0       0       0       0       0       0       0       0       0       0       0       0       0
  7386 ;;Total ram usage:        0 bytes
  7387 ;; Hardware stack levels used: 1
  7388 ;; This function calls:
  7389 ;;		Nothing
  7390 ;; This function is called by:
  7391 ;;		_OLED_Command
  7392 ;;		_OLED_WriteData
  7393 ;; This function uses a non-reentrant model
  7394 ;;
  7395                           
  7396     0BD7                     _SSD1306_CtrlW:	
  7397                           ;psect for function _SSD1306_CtrlW
  7398                           
  7399     0BD7                     l2158:	
  7400                           ;incstack = 0
  7401                           ; Regs used in _SSD1306_CtrlW: [wreg]
  7402                           
  7403     0BD7  3078               	movlw	120
  7404     0BD8                     l101:
  7405     0BD8  0008               	return
  7406     0BD9                     __end_of_SSD1306_CtrlW:
  7407                           
  7408                           	psect	text25
  7409     0D98                     __ptext25:	
  7410 ;; *************** function _I2C_WriteByte *****************
  7411 ;; Defined at:
  7412 ;;		line 161 in file "I2C.c"
  7413 ;; Parameters:    Size  Location     Type
  7414 ;;  data            1    wreg     unsigned char 
  7415 ;; Auto vars:     Size  Location     Type
  7416 ;;  data            1    3[COMMON] unsigned char 
  7417 ;;  st              1    4[COMMON] enum E6036
  7418 ;; Return value:  Size  Location     Type
  7419 ;;                  1    wreg      enum E6036
  7420 ;; Registers used:
  7421 ;;		wreg, status,2, status,0, pclath, cstack
  7422 ;; Tracked objects:
  7423 ;;		On entry : 0/0
  7424 ;;		On exit  : 0/0
  7425 ;;		Unchanged: 0/0
  7426 ;; Data sizes:     COMMON   BANK0   BANK1   BANK2   BANK3   BANK4   BANK5   BANK6   BANK7   BANK8   BANK9  BANK10  BANK1
      +1  BANK12  BANK13  BANK14  BANK15  BANK16  BANK17  BANK18  BANK19  BANK20  BANK21  BANK22  BANK23  BANK24  BANK25
  7427 ;;      Params:         0       0       0       0       0       0       0       0       0       0       0       0       
      +0       0       0       0       0       0       0       0       0       0       0       0       0       0       0
  7428 ;;      Locals:         2       0       0       0       0       0       0       0       0       0       0       0       
      +0       0       0       0       0       0       0       0       0       0       0       0       0       0       0
  7429 ;;      Temps:          0       0       0       0       0       0       0       0       0       0       0       0       
      +0       0       0       0       0       0       0       0       0       0       0       0       0       0       0
  7430 ;;      Totals:         2       0       0       0       0       0       0       0       0       0       0       0       
      +0       0       0       0       0       0       0       0       0       0       0       0       0       0       0
  7431 ;;Total ram usage:        2 bytes
  7432 ;; Hardware stack levels used: 1
  7433 ;; Hardware stack levels required when called: 1
  7434 ;; This function calls:
  7435 ;;		_I2C_WaitIF
  7436 ;;		_I2C_WaitIdle
  7437 ;; This function is called by:
  7438 ;;		_OLED_Command
  7439 ;;		_OLED_WriteData
  7440 ;; This function uses a non-reentrant model
  7441 ;;
  7442                           
  7443     0D98                     _I2C_WriteByte:	
  7444                           ;psect for function _I2C_WriteByte
  7445                           
  7446                           
  7447                           ;incstack = 0
  7448                           ; Regs used in _I2C_WriteByte: [wreg+status,2+status,0+pclath+cstack]
  7449                           ;I2C_WriteByte@data stored from wreg
  7450     0D98  00F3               	movwf	I2C_WriteByte@data
  7451     0D99                     l2130:
  7452                           
  7453                           ;I2C.c: 161: I2C_Status_t I2C_WriteByte(uint8_t data);I2C.c: 162: {;I2C.c: 163:     I2C_
      +                          Status_t st;;I2C.c: 165:     st = I2C_WaitIdle(50);
  7454     0D99  3032               	movlw	50
  7455     0D9A  00F0               	movwf	I2C_WaitIdle@timeout_ms
  7456     0D9B  3000               	movlw	0
  7457     0D9C  00F1               	movwf	I2C_WaitIdle@timeout_ms+1
  7458     0D9D  318C  24CC  318D   	fcall	_I2C_WaitIdle
  7459     0DA0  00F4               	movwf	I2C_WriteByte@st
  7460     0DA1                     l2132:
  7461                           
  7462                           ;I2C.c: 166:     if (st != I2C_OK) return st;
  7463     0DA1  0874               	movf	I2C_WriteByte@st,w
  7464     0DA2  1903               	btfsc	3,2
  7465     0DA3  2DA5               	goto	u1811
  7466     0DA4  2DA6               	goto	u1810
  7467     0DA5                     u1811:
  7468     0DA5  2DA8               	goto	l60
  7469     0DA6                     u1810:
  7470     0DA6                     l2134:
  7471     0DA6  0874               	movf	I2C_WriteByte@st,w
  7472     0DA7  2DC9               	goto	l61
  7473     0DA8                     l60:
  7474                           
  7475                           ;I2C.c: 168:     PIR1bits.SSP1IF = 0;
  7476     0DA8  0020               	movlb	0	; select bank0
  7477     0DA9  1191               	bcf	17,3	;volatile
  7478     0DAA                     l2138:
  7479                           
  7480                           ;I2C.c: 169:     SSPBUF = data;
  7481     0DAA  0873               	movf	I2C_WriteByte@data,w
  7482     0DAB  0024               	movlb	4	; select bank4
  7483     0DAC  0091               	movwf	17	;volatile
  7484     0DAD                     l2140:
  7485                           
  7486                           ;I2C.c: 171:     st = I2C_WaitIF(50);
  7487     0DAD  3032               	movlw	50
  7488     0DAE  00F0               	movwf	I2C_WaitIF@timeout_ms
  7489     0DAF  3000               	movlw	0
  7490     0DB0  00F1               	movwf	I2C_WaitIF@timeout_ms+1
  7491     0DB1  318C  244A  318D   	fcall	_I2C_WaitIF
  7492     0DB4  00F4               	movwf	I2C_WriteByte@st
  7493     0DB5                     l2142:
  7494                           
  7495                           ;I2C.c: 172:     if (st != I2C_OK) return st;
  7496     0DB5  0874               	movf	I2C_WriteByte@st,w
  7497     0DB6  1903               	btfsc	3,2
  7498     0DB7  2DB9               	goto	u1821
  7499     0DB8  2DBA               	goto	u1820
  7500     0DB9                     u1821:
  7501     0DB9  2DBB               	goto	l62
  7502     0DBA                     u1820:
  7503     0DBA  2DA6               	goto	l2134
  7504     0DBB                     l62:
  7505                           
  7506                           ;I2C.c: 175:     if (PIR2bits.BCL1IF)
  7507     0DBB  0020               	movlb	0	; select bank0
  7508     0DBC  1D92               	btfss	18,3	;volatile
  7509     0DBD  2DBF               	goto	u1831
  7510     0DBE  2DC0               	goto	u1830
  7511     0DBF                     u1831:
  7512     0DBF  2DC3               	goto	l63
  7513     0DC0                     u1830:
  7514     0DC0                     l2148:
  7515                           
  7516                           ;I2C.c: 176:     {;I2C.c: 177:         PIR2bits.BCL1IF = 0;
  7517     0DC0  1192               	bcf	18,3	;volatile
  7518     0DC1                     l2150:
  7519                           
  7520                           ;I2C.c: 178:         return I2C_BUS_COLLISION;
  7521     0DC1  3003               	movlw	3
  7522     0DC2  2DC9               	goto	l61
  7523     0DC3                     l63:	
  7524                           ;I2C.c: 179:     }
  7525                           
  7526                           
  7527                           ;I2C.c: 182:     PIR1bits.SSP1IF = 0;
  7528     0DC3  1191               	bcf	17,3	;volatile
  7529     0DC4                     l2154:
  7530                           
  7531                           ;I2C.c: 183:     return (SSPCON2bits.ACKSTAT == 0) ? I2C_OK : I2C_NAK;
  7532     0DC4  0024               	movlb	4	; select bank4
  7533     0DC5  0E16               	swapf	22,w	;volatile
  7534     0DC6  0C89               	rrf	9,f
  7535     0DC7  0C89               	rrf	9,f
  7536     0DC8  3901               	andlw	1
  7537     0DC9                     l61:
  7538     0DC9  0008               	return
  7539     0DCA                     __end_of_I2C_WriteByte:
  7540                           
  7541                           	psect	text26
  7542     0CA9                     __ptext26:	
  7543 ;; *************** function _I2C_Stop *****************
  7544 ;; Defined at:
  7545 ;;		line 138 in file "I2C.c"
  7546 ;; Parameters:    Size  Location     Type
  7547 ;;		None
  7548 ;; Auto vars:     Size  Location     Type
  7549 ;;  st              1    3[COMMON] enum E6036
  7550 ;; Return value:  Size  Location     Type
  7551 ;;                  1    wreg      enum E6036
  7552 ;; Registers used:
  7553 ;;		wreg, status,2, status,0, pclath, cstack
  7554 ;; Tracked objects:
  7555 ;;		On entry : 0/0
  7556 ;;		On exit  : 0/0
  7557 ;;		Unchanged: 0/0
  7558 ;; Data sizes:     COMMON   BANK0   BANK1   BANK2   BANK3   BANK4   BANK5   BANK6   BANK7   BANK8   BANK9  BANK10  BANK1
      +1  BANK12  BANK13  BANK14  BANK15  BANK16  BANK17  BANK18  BANK19  BANK20  BANK21  BANK22  BANK23  BANK24  BANK25
  7559 ;;      Params:         0       0       0       0       0       0       0       0       0       0       0       0       
      +0       0       0       0       0       0       0       0       0       0       0       0       0       0       0
  7560 ;;      Locals:         1       0       0       0       0       0       0       0       0       0       0       0       
      +0       0       0       0       0       0       0       0       0       0       0       0       0       0       0
  7561 ;;      Temps:          0       0       0       0       0       0       0       0       0       0       0       0       
      +0       0       0       0       0       0       0       0       0       0       0       0       0       0       0
  7562 ;;      Totals:         1       0       0       0       0       0       0       0       0       0       0       0       
      +0       0       0       0       0       0       0       0       0       0       0       0       0       0       0
  7563 ;;Total ram usage:        1 bytes
  7564 ;; Hardware stack levels used: 1
  7565 ;; Hardware stack levels required when called: 1
  7566 ;; This function calls:
  7567 ;;		_I2C_WaitIF
  7568 ;;		_I2C_WaitIdle
  7569 ;; This function is called by:
  7570 ;;		_OLED_Command
  7571 ;;		_OLED_WriteData
  7572 ;; This function uses a non-reentrant model
  7573 ;;
  7574                           
  7575     0CA9                     _I2C_Stop:	
  7576                           ;psect for function _I2C_Stop
  7577                           
  7578     0CA9                     l2118:	
  7579                           ;incstack = 0
  7580                           ; Regs used in _I2C_Stop: [wreg+status,2+status,0+pclath+cstack]
  7581                           
  7582                           
  7583                           ;I2C.c: 140:     I2C_Status_t st;;I2C.c: 142:     st = I2C_WaitIdle(50);
  7584     0CA9  3032               	movlw	50
  7585     0CAA  00F0               	movwf	I2C_WaitIdle@timeout_ms
  7586     0CAB  3000               	movlw	0
  7587     0CAC  00F1               	movwf	I2C_WaitIdle@timeout_ms+1
  7588     0CAD  318C  24CC  318C   	fcall	_I2C_WaitIdle
  7589     0CB0  00F3               	movwf	I2C_Stop@st
  7590     0CB1                     l2120:
  7591                           
  7592                           ;I2C.c: 143:     if (st != I2C_OK) return st;
  7593     0CB1  0873               	movf	I2C_Stop@st,w
  7594     0CB2  1903               	btfsc	3,2
  7595     0CB3  2CB5               	goto	u1791
  7596     0CB4  2CB6               	goto	u1790
  7597     0CB5                     u1791:
  7598     0CB5  2CB7               	goto	l55
  7599     0CB6                     u1790:
  7600     0CB6  2CCB               	goto	l56
  7601     0CB7                     l55:
  7602                           
  7603                           ;I2C.c: 145:     PIR1bits.SSP1IF = 0;
  7604     0CB7  0020               	movlb	0	; select bank0
  7605     0CB8  1191               	bcf	17,3	;volatile
  7606                           
  7607                           ;I2C.c: 146:     SSPCON2bits.PEN = 1;
  7608     0CB9  0024               	movlb	4	; select bank4
  7609     0CBA  1516               	bsf	22,2	;volatile
  7610     0CBB                     l2124:
  7611                           
  7612                           ;I2C.c: 148:     st = I2C_WaitIF(50);
  7613     0CBB  3032               	movlw	50
  7614     0CBC  00F0               	movwf	I2C_WaitIF@timeout_ms
  7615     0CBD  3000               	movlw	0
  7616     0CBE  00F1               	movwf	I2C_WaitIF@timeout_ms+1
  7617     0CBF  318C  244A  318C   	fcall	_I2C_WaitIF
  7618     0CC2  00F3               	movwf	I2C_Stop@st
  7619     0CC3                     l2126:
  7620                           
  7621                           ;I2C.c: 149:     if (st != I2C_OK) return st;
  7622     0CC3  0873               	movf	I2C_Stop@st,w
  7623     0CC4  1903               	btfsc	3,2
  7624     0CC5  2CC7               	goto	u1801
  7625     0CC6  2CC8               	goto	u1800
  7626     0CC7                     u1801:
  7627     0CC7  2CC9               	goto	l57
  7628     0CC8                     u1800:
  7629     0CC8  2CCB               	goto	l56
  7630     0CC9                     l57:
  7631                           
  7632                           ;I2C.c: 151:     PIR1bits.SSP1IF = 0;
  7633     0CC9  0020               	movlb	0	; select bank0
  7634     0CCA  1191               	bcf	17,3	;volatile
  7635     0CCB                     l56:	
  7636                           ;I2C.c: 152:     return I2C_OK;;	Return value of _I2C_Stop is never used
  7637                           
  7638     0CCB  0008               	return
  7639     0CCC                     __end_of_I2C_Stop:
  7640                           
  7641                           	psect	text27
  7642     0CF0                     __ptext27:	
  7643 ;; *************** function _I2C_Start *****************
  7644 ;; Defined at:
  7645 ;;		line 98 in file "I2C.c"
  7646 ;; Parameters:    Size  Location     Type
  7647 ;;		None
  7648 ;; Auto vars:     Size  Location     Type
  7649 ;;  st              1    3[COMMON] enum E6036
  7650 ;; Return value:  Size  Location     Type
  7651 ;;                  1    wreg      enum E6036
  7652 ;; Registers used:
  7653 ;;		wreg, status,2, status,0, pclath, cstack
  7654 ;; Tracked objects:
  7655 ;;		On entry : 0/0
  7656 ;;		On exit  : 0/0
  7657 ;;		Unchanged: 0/0
  7658 ;; Data sizes:     COMMON   BANK0   BANK1   BANK2   BANK3   BANK4   BANK5   BANK6   BANK7   BANK8   BANK9  BANK10  BANK1
      +1  BANK12  BANK13  BANK14  BANK15  BANK16  BANK17  BANK18  BANK19  BANK20  BANK21  BANK22  BANK23  BANK24  BANK25
  7659 ;;      Params:         0       0       0       0       0       0       0       0       0       0       0       0       
      +0       0       0       0       0       0       0       0       0       0       0       0       0       0       0
  7660 ;;      Locals:         1       0       0       0       0       0       0       0       0       0       0       0       
      +0       0       0       0       0       0       0       0       0       0       0       0       0       0       0
  7661 ;;      Temps:          0       0       0       0       0       0       0       0       0       0       0       0       
      +0       0       0       0       0       0       0       0       0       0       0       0       0       0       0
  7662 ;;      Totals:         1       0       0       0       0       0       0       0       0       0       0       0       
      +0       0       0       0       0       0       0       0       0       0       0       0       0       0       0
  7663 ;;Total ram usage:        1 bytes
  7664 ;; Hardware stack levels used: 1
  7665 ;; Hardware stack levels required when called: 1
  7666 ;; This function calls:
  7667 ;;		_I2C_WaitIF
  7668 ;;		_I2C_WaitIdle
  7669 ;; This function is called by:
  7670 ;;		_OLED_Command
  7671 ;;		_OLED_WriteData
  7672 ;; This function uses a non-reentrant model
  7673 ;;
  7674                           
  7675     0CF0                     _I2C_Start:	
  7676                           ;psect for function _I2C_Start
  7677                           
  7678     0CF0                     l2098:	
  7679                           ;incstack = 0
  7680                           ; Regs used in _I2C_Start: [wreg+status,2+status,0+pclath+cstack]
  7681                           
  7682                           
  7683                           ;I2C.c: 100:     I2C_Status_t st;;I2C.c: 102:     st = I2C_WaitIdle(50);
  7684     0CF0  3032               	movlw	50
  7685     0CF1  00F0               	movwf	I2C_WaitIdle@timeout_ms
  7686     0CF2  3000               	movlw	0
  7687     0CF3  00F1               	movwf	I2C_WaitIdle@timeout_ms+1
  7688     0CF4  318C  24CC  318C   	fcall	_I2C_WaitIdle
  7689     0CF7  00F3               	movwf	I2C_Start@st
  7690     0CF8                     l2100:
  7691                           
  7692                           ;I2C.c: 103:     if (st != I2C_OK) return st;
  7693     0CF8  0873               	movf	I2C_Start@st,w
  7694     0CF9  1903               	btfsc	3,2
  7695     0CFA  2CFC               	goto	u1771
  7696     0CFB  2CFD               	goto	u1770
  7697     0CFC                     u1771:
  7698     0CFC  2CFF               	goto	l45
  7699     0CFD                     u1770:
  7700     0CFD                     l2102:
  7701     0CFD  0873               	movf	I2C_Start@st,w
  7702     0CFE  2D14               	goto	l46
  7703     0CFF                     l45:
  7704                           
  7705                           ;I2C.c: 105:     PIR1bits.SSP1IF = 0;
  7706     0CFF  0020               	movlb	0	; select bank0
  7707     0D00  1191               	bcf	17,3	;volatile
  7708                           
  7709                           ;I2C.c: 106:     SSPCON2bits.SEN = 1;
  7710     0D01  0024               	movlb	4	; select bank4
  7711     0D02  1416               	bsf	22,0	;volatile
  7712     0D03                     l2106:
  7713                           
  7714                           ;I2C.c: 108:     st = I2C_WaitIF(50);
  7715     0D03  3032               	movlw	50
  7716     0D04  00F0               	movwf	I2C_WaitIF@timeout_ms
  7717     0D05  3000               	movlw	0
  7718     0D06  00F1               	movwf	I2C_WaitIF@timeout_ms+1
  7719     0D07  318C  244A  318C   	fcall	_I2C_WaitIF
  7720     0D0A  00F3               	movwf	I2C_Start@st
  7721     0D0B                     l2108:
  7722                           
  7723                           ;I2C.c: 109:     if (st != I2C_OK) return st;
  7724     0D0B  0873               	movf	I2C_Start@st,w
  7725     0D0C  1903               	btfsc	3,2
  7726     0D0D  2D0F               	goto	u1781
  7727     0D0E  2D10               	goto	u1780
  7728     0D0F                     u1781:
  7729     0D0F  2D11               	goto	l47
  7730     0D10                     u1780:
  7731     0D10  2CFD               	goto	l2102
  7732     0D11                     l47:
  7733                           
  7734                           ;I2C.c: 111:     PIR1bits.SSP1IF = 0;
  7735     0D11  0020               	movlb	0	; select bank0
  7736     0D12  1191               	bcf	17,3	;volatile
  7737     0D13                     l2114:
  7738                           
  7739                           ;I2C.c: 112:     return I2C_OK;
  7740     0D13  3000               	movlw	0
  7741     0D14                     l46:
  7742     0D14  0008               	return
  7743     0D15                     __end_of_I2C_Start:
  7744                           
  7745                           	psect	text28
  7746     0CCC                     __ptext28:	
  7747 ;; *************** function _I2C_WaitIdle *****************
  7748 ;; Defined at:
  7749 ;;		line 81 in file "I2C.c"
  7750 ;; Parameters:    Size  Location     Type
  7751 ;;  timeout_ms      2    0[COMMON] unsigned short 
  7752 ;; Auto vars:     Size  Location     Type
  7753 ;;		None
  7754 ;; Return value:  Size  Location     Type
  7755 ;;                  1    wreg      enum E6036
  7756 ;; Registers used:
  7757 ;;		wreg, status,2, status,0
  7758 ;; Tracked objects:
  7759 ;;		On entry : 0/0
  7760 ;;		On exit  : 0/0
  7761 ;;		Unchanged: 0/0
  7762 ;; Data sizes:     COMMON   BANK0   BANK1   BANK2   BANK3   BANK4   BANK5   BANK6   BANK7   BANK8   BANK9  BANK10  BANK1
      +1  BANK12  BANK13  BANK14  BANK15  BANK16  BANK17  BANK18  BANK19  BANK20  BANK21  BANK22  BANK23  BANK24  BANK25
  7763 ;;      Params:         2       0       0       0       0       0       0       0       0       0       0       0       
      +0       0       0       0       0       0       0       0       0       0       0       0       0       0       0
  7764 ;;      Locals:         0       0       0       0       0       0       0       0       0       0       0       0       
      +0       0       0       0       0       0       0       0       0       0       0       0       0       0       0
  7765 ;;      Temps:          1       0       0       0       0       0       0       0       0       0       0       0       
      +0       0       0       0       0       0       0       0       0       0       0       0       0       0       0
  7766 ;;      Totals:         3       0       0       0       0       0       0       0       0       0       0       0       
      +0       0       0       0       0       0       0       0       0       0       0       0       0       0       0
  7767 ;;Total ram usage:        3 bytes
  7768 ;; Hardware stack levels used: 1
  7769 ;; This function calls:
  7770 ;;		Nothing
  7771 ;; This function is called by:
  7772 ;;		_I2C_Start
  7773 ;;		_I2C_Stop
  7774 ;;		_I2C_WriteByte
  7775 ;;		_I2C_RepeatedStart
  7776 ;;		_I2C_ReadByte
  7777 ;; This function uses a non-reentrant model
  7778 ;;
  7779                           
  7780     0CCC                     _I2C_WaitIdle:	
  7781                           ;psect for function _I2C_WaitIdle
  7782                           
  7783     0CCC                     l2080:	
  7784                           ;incstack = 0
  7785                           ; Regs used in _I2C_WaitIdle: [wreg+status,2+status,0]
  7786                           
  7787                           
  7788                           ;I2C.c: 81: I2C_Status_t I2C_WaitIdle(uint16_t timeout_ms);I2C.c: 82: {;I2C.c: 83:     w
      +                          hile (timeout_ms--)
  7789     0CCC  2CE2               	goto	l2092
  7790     0CCD                     l2082:
  7791                           
  7792                           ;I2C.c: 84:     {;I2C.c: 87:         if ((SSPCON2 & 0x1F) == 0 && SSPSTATbits.R_nW == 0)
  7793     0CCD  0024               	movlb	4	; select bank4
  7794     0CCE  0816               	movf	22,w	;volatile
  7795     0CCF  391F               	andlw	31
  7796     0CD0  1D03               	btfss	3,2
  7797     0CD1  2CD3               	goto	u1741
  7798     0CD2  2CD4               	goto	u1740
  7799     0CD3                     u1741:
  7800     0CD3  2CDA               	goto	l2090
  7801     0CD4                     u1740:
  7802     0CD4                     l2084:
  7803     0CD4  1914               	btfsc	20,2	;volatile
  7804     0CD5  2CD7               	goto	u1751
  7805     0CD6  2CD8               	goto	u1750
  7806     0CD7                     u1751:
  7807     0CD7  2CDA               	goto	l2090
  7808     0CD8                     u1750:
  7809     0CD8                     l2086:
  7810                           
  7811                           ;I2C.c: 88:             return I2C_OK;
  7812     0CD8  3000               	movlw	0
  7813     0CD9  2CEF               	goto	l41
  7814     0CDA                     l2090:
  7815                           
  7816                           ;I2C.c: 90:         _delay((unsigned long)((1)*(32000000/4000.0)));
  7817     0CDA  300B               	movlw	11
  7818     0CDB  00F2               	movwf	??_I2C_WaitIdle
  7819     0CDC  3062               	movlw	98
  7820     0CDD                     u3457:
  7821     0CDD  0B89               	decfsz	9,f
  7822     0CDE  2CDD               	goto	u3457
  7823     0CDF  0BF2               	decfsz	??_I2C_WaitIdle,f
  7824     0CE0  2CDD               	goto	u3457
  7825     0CE1  3200               	nop2
  7826     0CE2                     l2092:
  7827                           
  7828                           ;I2C.c: 83:     while (timeout_ms--)
  7829     0CE2  3001               	movlw	1
  7830     0CE3  02F0               	subwf	I2C_WaitIdle@timeout_ms,f
  7831     0CE4  3000               	movlw	0
  7832     0CE5  3BF1               	subwfb	I2C_WaitIdle@timeout_ms+1,f
  7833     0CE6  0A70               	incf	I2C_WaitIdle@timeout_ms,w
  7834     0CE7  1D03               	skipz
  7835     0CE8  2CED               	goto	u1761
  7836     0CE9  0A71               	incf	I2C_WaitIdle@timeout_ms+1,w
  7837     0CEA  1D03               	btfss	3,2
  7838     0CEB  2CED               	goto	u1761
  7839     0CEC  2CEE               	goto	u1760
  7840     0CED                     u1761:
  7841     0CED  2CCD               	goto	l2082
  7842     0CEE                     u1760:
  7843     0CEE                     l2094:
  7844                           
  7845                           ;I2C.c: 92:     return I2C_TIMEOUT;
  7846     0CEE  3002               	movlw	2
  7847     0CEF                     l41:
  7848     0CEF  0008               	return
  7849     0CF0                     __end_of_I2C_WaitIdle:
  7850                           
  7851                           	psect	text29
  7852     0C4A                     __ptext29:	
  7853 ;; *************** function _I2C_WaitIF *****************
  7854 ;; Defined at:
  7855 ;;		line 23 in file "I2C.c"
  7856 ;; Parameters:    Size  Location     Type
  7857 ;;  timeout_ms      2    0[COMMON] unsigned short 
  7858 ;; Auto vars:     Size  Location     Type
  7859 ;;		None
  7860 ;; Return value:  Size  Location     Type
  7861 ;;                  1    wreg      enum E6036
  7862 ;; Registers used:
  7863 ;;		wreg, status,2, status,0
  7864 ;; Tracked objects:
  7865 ;;		On entry : 0/0
  7866 ;;		On exit  : 0/0
  7867 ;;		Unchanged: 0/0
  7868 ;; Data sizes:     COMMON   BANK0   BANK1   BANK2   BANK3   BANK4   BANK5   BANK6   BANK7   BANK8   BANK9  BANK10  BANK1
      +1  BANK12  BANK13  BANK14  BANK15  BANK16  BANK17  BANK18  BANK19  BANK20  BANK21  BANK22  BANK23  BANK24  BANK25
  7869 ;;      Params:         2       0       0       0       0       0       0       0       0       0       0       0       
      +0       0       0       0       0       0       0       0       0       0       0       0       0       0       0
  7870 ;;      Locals:         0       0       0       0       0       0       0       0       0       0       0       0       
      +0       0       0       0       0       0       0       0       0       0       0       0       0       0       0
  7871 ;;      Temps:          1       0       0       0       0       0       0       0       0       0       0       0       
      +0       0       0       0       0       0       0       0       0       0       0       0       0       0       0
  7872 ;;      Totals:         3       0       0       0       0       0       0       0       0       0       0       0       
      +0       0       0       0       0       0       0       0       0       0       0       0       0       0       0
  7873 ;;Total ram usage:        3 bytes
  7874 ;; Hardware stack levels used: 1
  7875 ;; This function calls:
  7876 ;;		Nothing
  7877 ;; This function is called by:
  7878 ;;		_I2C_Start
  7879 ;;		_I2C_Stop
  7880 ;;		_I2C_WriteByte
  7881 ;;		_I2C_RepeatedStart
  7882 ;;		_I2C_ReadByte
  7883 ;; This function uses a non-reentrant model
  7884 ;;
  7885                           
  7886     0C4A                     _I2C_WaitIF:	
  7887                           ;psect for function _I2C_WaitIF
  7888                           
  7889     0C4A                     l2066:	
  7890                           ;incstack = 0
  7891                           ; Regs used in _I2C_WaitIF: [wreg+status,2+status,0]
  7892                           
  7893                           
  7894                           ;I2C.c: 23: static I2C_Status_t I2C_WaitIF(uint16_t timeout_ms);I2C.c: 24: {;I2C.c: 25: 
      +                              while (timeout_ms--)
  7895     0C4A  2C5A               	goto	l2074
  7896     0C4B                     l26:
  7897                           
  7898                           ;I2C.c: 26:     {;I2C.c: 27:         if (PIR1bits.SSP1IF)
  7899     0C4B  0020               	movlb	0	; select bank0
  7900     0C4C  1D91               	btfss	17,3	;volatile
  7901     0C4D  2C4F               	goto	u1721
  7902     0C4E  2C50               	goto	u1720
  7903     0C4F                     u1721:
  7904     0C4F  2C52               	goto	l2072
  7905     0C50                     u1720:
  7906     0C50                     l2068:
  7907                           
  7908                           ;I2C.c: 28:             return I2C_OK;
  7909     0C50  3000               	movlw	0
  7910     0C51  2C67               	goto	l28
  7911     0C52                     l2072:
  7912                           
  7913                           ;I2C.c: 30:         _delay((unsigned long)((1)*(32000000/4000.0)));
  7914     0C52  300B               	movlw	11
  7915     0C53  00F2               	movwf	??_I2C_WaitIF
  7916     0C54  3062               	movlw	98
  7917     0C55                     u3467:
  7918     0C55  0B89               	decfsz	9,f
  7919     0C56  2C55               	goto	u3467
  7920     0C57  0BF2               	decfsz	??_I2C_WaitIF,f
  7921     0C58  2C55               	goto	u3467
  7922     0C59  3200               	nop2
  7923     0C5A                     l2074:
  7924                           
  7925                           ;I2C.c: 25:     while (timeout_ms--)
  7926     0C5A  3001               	movlw	1
  7927     0C5B  02F0               	subwf	I2C_WaitIF@timeout_ms,f
  7928     0C5C  3000               	movlw	0
  7929     0C5D  3BF1               	subwfb	I2C_WaitIF@timeout_ms+1,f
  7930     0C5E  0A70               	incf	I2C_WaitIF@timeout_ms,w
  7931     0C5F  1D03               	skipz
  7932     0C60  2C65               	goto	u1731
  7933     0C61  0A71               	incf	I2C_WaitIF@timeout_ms+1,w
  7934     0C62  1D03               	btfss	3,2
  7935     0C63  2C65               	goto	u1731
  7936     0C64  2C66               	goto	u1730
  7937     0C65                     u1731:
  7938     0C65  2C4B               	goto	l26
  7939     0C66                     u1730:
  7940     0C66                     l2076:
  7941                           
  7942                           ;I2C.c: 32:     return I2C_TIMEOUT;
  7943     0C66  3002               	movlw	2
  7944     0C67                     l28:
  7945     0C67  0008               	return
  7946     0C68                     __end_of_I2C_WaitIF:
  7947                           
  7948                           	psect	text30
  7949     0BFF                     __ptext30:	
  7950 ;; *************** function _I2C_Init *****************
  7951 ;; Defined at:
  7952 ;;		line 41 in file "I2C.c"
  7953 ;; Parameters:    Size  Location     Type
  7954 ;;		None
  7955 ;; Auto vars:     Size  Location     Type
  7956 ;;		None
  7957 ;; Return value:  Size  Location     Type
  7958 ;;                  1    wreg      void 
  7959 ;; Registers used:
  7960 ;;		wreg, status,2, status,0, pclath, cstack
  7961 ;; Tracked objects:
  7962 ;;		On entry : 0/0
  7963 ;;		On exit  : 0/0
  7964 ;;		Unchanged: 0/0
  7965 ;; Data sizes:     COMMON   BANK0   BANK1   BANK2   BANK3   BANK4   BANK5   BANK6   BANK7   BANK8   BANK9  BANK10  BANK1
      +1  BANK12  BANK13  BANK14  BANK15  BANK16  BANK17  BANK18  BANK19  BANK20  BANK21  BANK22  BANK23  BANK24  BANK25
  7966 ;;      Params:         0       0       0       0       0       0       0       0       0       0       0       0       
      +0       0       0       0       0       0       0       0       0       0       0       0       0       0       0
  7967 ;;      Locals:         0       0       0       0       0       0       0       0       0       0       0       0       
      +0       0       0       0       0       0       0       0       0       0       0       0       0       0       0
  7968 ;;      Temps:          1       0       0       0       0       0       0       0       0       0       0       0       
      +0       0       0       0       0       0       0       0       0       0       0       0       0       0       0
  7969 ;;      Totals:         1       0       0       0       0       0       0       0       0       0       0       0       
      +0       0       0       0       0       0       0       0       0       0       0       0       0       0       0
  7970 ;;Total ram usage:        1 bytes
  7971 ;; Hardware stack levels used: 1
  7972 ;; Hardware stack levels required when called: 1
  7973 ;; This function calls:
  7974 ;;		_I2C_ClearErrors
  7975 ;; This function is called by:
  7976 ;;		_main
  7977 ;; This function uses a non-reentrant model
  7978 ;;
  7979                           
  7980     0BFF                     _I2C_Init:	
  7981                           ;psect for function _I2C_Init
  7982                           
  7983     0BFF                     l2558:	
  7984                           ;incstack = 0
  7985                           ; Regs used in _I2C_Init: [wreg+status,2+status,0+pclath+cstack]
  7986                           
  7987                           
  7988                           ;I2C.c: 44:     SSPCONbits.SSPM = 0x08;
  7989     0BFF  0024               	movlb	4	; select bank4
  7990     0C00  0815               	movf	21,w	;volatile
  7991     0C01  39F0               	andlw	-16
  7992     0C02  3808               	iorlw	8
  7993     0C03  0095               	movwf	21	;volatile
  7994     0C04                     l2560:
  7995                           
  7996                           ;I2C.c: 47:     SSPCONbits.SSPEN = 1;
  7997     0C04  1695               	bsf	21,5	;volatile
  7998     0C05                     l2562:
  7999                           
  8000                           ;I2C.c: 50:     SSPADD = 79;
  8001     0C05  304F               	movlw	79
  8002     0C06  0092               	movwf	18	;volatile
  8003     0C07                     l2564:
  8004                           
  8005                           ;I2C.c: 52:     I2C_ClearErrors();
  8006     0C07  318B  23D9  318B   	fcall	_I2C_ClearErrors
  8007     0C0A                     l2566:
  8008                           
  8009                           ;I2C.c: 53:     _delay((unsigned long)((10)*(32000000/4000.0)));
  8010     0C0A  3068               	movlw	104
  8011     0C0B  00F0               	movwf	??_I2C_Init
  8012     0C0C  30E4               	movlw	228
  8013     0C0D                     u3477:
  8014     0C0D  0B89               	decfsz	9,f
  8015     0C0E  2C0D               	goto	u3477
  8016     0C0F  0BF0               	decfsz	??_I2C_Init,f
  8017     0C10  2C0D               	goto	u3477
  8018     0C11  3200               	nop2
  8019     0C12                     l32:
  8020     0C12  0008               	return
  8021     0C13                     __end_of_I2C_Init:
  8022                           
  8023                           	psect	text31
  8024     0BD9                     __ptext31:	
  8025 ;; *************** function _I2C_ClearErrors *****************
  8026 ;; Defined at:
  8027 ;;		line 62 in file "I2C.c"
  8028 ;; Parameters:    Size  Location     Type
  8029 ;;		None
  8030 ;; Auto vars:     Size  Location     Type
  8031 ;;		None
  8032 ;; Return value:  Size  Location     Type
  8033 ;;                  1    wreg      void 
  8034 ;; Registers used:
  8035 ;;		None
  8036 ;; Tracked objects:
  8037 ;;		On entry : 0/0
  8038 ;;		On exit  : 0/0
  8039 ;;		Unchanged: 0/0
  8040 ;; Data sizes:     COMMON   BANK0   BANK1   BANK2   BANK3   BANK4   BANK5   BANK6   BANK7   BANK8   BANK9  BANK10  BANK1
      +1  BANK12  BANK13  BANK14  BANK15  BANK16  BANK17  BANK18  BANK19  BANK20  BANK21  BANK22  BANK23  BANK24  BANK25
  8041 ;;      Params:         0       0       0       0       0       0       0       0       0       0       0       0       
      +0       0       0       0       0       0       0       0       0       0       0       0       0       0       0
  8042 ;;      Locals:         0       0       0       0       0       0       0       0       0       0       0       0       
      +0       0       0       0       0       0       0       0       0       0       0       0       0       0       0
  8043 ;;      Temps:          0       0       0       0       0       0       0       0       0       0       0       0       
      +0       0       0       0       0       0       0       0       0       0       0       0       0       0       0
  8044 ;;      Totals:         0       0       0       0       0       0       0       0       0       0       0       0       
      +0       0       0       0       0       0       0       0       0       0       0       0       0       0       0
  8045 ;;Total ram usage:        0 bytes
  8046 ;; Hardware stack levels used: 1
  8047 ;; This function calls:
  8048 ;;		Nothing
  8049 ;; This function is called by:
  8050 ;;		_I2C_Init
  8051 ;; This function uses a non-reentrant model
  8052 ;;
  8053                           
  8054     0BD9                     _I2C_ClearErrors:	
  8055                           ;psect for function _I2C_ClearErrors
  8056                           
  8057     0BD9                     l2246:	
  8058                           ;incstack = 0
  8059                           ; Regs used in _I2C_ClearErrors: []
  8060                           
  8061                           
  8062                           ;I2C.c: 65:     SSPCON1bits.SSPOV = 0;
  8063     0BD9  0024               	movlb	4	; select bank4
  8064     0BDA  1315               	bcf	21,6	;volatile
  8065                           
  8066                           ;I2C.c: 66:     SSPCON1bits.WCOL = 0;
  8067     0BDB  1395               	bcf	21,7	;volatile
  8068                           
  8069                           ;I2C.c: 69:     PIR2bits.BCL1IF = 0;
  8070     0BDC  0020               	movlb	0	; select bank0
  8071     0BDD  1192               	bcf	18,3	;volatile
  8072                           
  8073                           ;I2C.c: 72:     PIR1bits.SSP1IF = 0;
  8074     0BDE  1191               	bcf	17,3	;volatile
  8075     0BDF                     l35:
  8076     0BDF  0008               	return
  8077     0BE0                     __end_of_I2C_ClearErrors:
  8078                           
  8079                           	psect	text32
  8080     0151                     __ptext32:	
  8081 ;; *************** function _ADC_Read_Averaged *****************
  8082 ;; Defined at:
  8083 ;;		line 99 in file "./ADC.h"
  8084 ;; Parameters:    Size  Location     Type
  8085 ;;  channel         1    wreg     enum E6091
  8086 ;;  samples         1    0[BANK0 ] unsigned char 
  8087 ;; Auto vars:     Size  Location     Type
  8088 ;;  channel         1    6[BANK0 ] enum E6091
  8089 ;;  i               1   11[BANK0 ] unsigned char 
  8090 ;;  sum             4    7[BANK0 ] unsigned long 
  8091 ;; Return value:  Size  Location     Type
  8092 ;;                  2    0[BANK0 ] unsigned short 
  8093 ;; Registers used:
  8094 ;;		wreg, status,2, status,0, pclath, cstack
  8095 ;; Tracked objects:
  8096 ;;		On entry : 0/0
  8097 ;;		On exit  : 0/0
  8098 ;;		Unchanged: 0/0
  8099 ;; Data sizes:     COMMON   BANK0   BANK1   BANK2   BANK3   BANK4   BANK5   BANK6   BANK7   BANK8   BANK9  BANK10  BANK1
      +1  BANK12  BANK13  BANK14  BANK15  BANK16  BANK17  BANK18  BANK19  BANK20  BANK21  BANK22  BANK23  BANK24  BANK25
  8100 ;;      Params:         0       2       0       0       0       0       0       0       0       0       0       0       
      +0       0       0       0       0       0       0       0       0       0       0       0       0       0       0
  8101 ;;      Locals:         0       6       0       0       0       0       0       0       0       0       0       0       
      +0       0       0       0       0       0       0       0       0       0       0       0       0       0       0
  8102 ;;      Temps:          0       4       0       0       0       0       0       0       0       0       0       0       
      +0       0       0       0       0       0       0       0       0       0       0       0       0       0       0
  8103 ;;      Totals:         0      12       0       0       0       0       0       0       0       0       0       0       
      +0       0       0       0       0       0       0       0       0       0       0       0       0       0       0
  8104 ;;Total ram usage:       12 bytes
  8105 ;; Hardware stack levels used: 1
  8106 ;; Hardware stack levels required when called: 1
  8107 ;; This function calls:
  8108 ;;		___lldiv
  8109 ;; This function is called by:
  8110 ;;		_main
  8111 ;; This function uses a non-reentrant model
  8112 ;;
  8113                           
  8114     0151                     _ADC_Read_Averaged:	
  8115                           ;psect for function _ADC_Read_Averaged
  8116                           
  8117                           
  8118                           ;incstack = 0
  8119                           ; Regs used in _ADC_Read_Averaged: [wreg+status,2+status,0+pclath+cstack]
  8120                           ;ADC_Read_Averaged@channel stored from wreg
  8121     0151  0020               	movlb	0	; select bank0
  8122     0152  00A6               	movwf	ADC_Read_Averaged@channel
  8123     0153                     l2890:
  8124                           
  8125                           ;./ADC.h: 99: uint16_t ADC_Read_Averaged(adc_channel_t channel, uint8_t samples);./ADC.h
      +                          : 100: {;./ADC.h: 101:     uint32_t sum = 0;
  8126     0153  3000               	movlw	0
  8127     0154  00AA               	movwf	ADC_Read_Averaged@sum+3
  8128     0155  3000               	movlw	0
  8129     0156  00A9               	movwf	ADC_Read_Averaged@sum+2
  8130     0157  3000               	movlw	0
  8131     0158  00A8               	movwf	ADC_Read_Averaged@sum+1
  8132     0159  3000               	movlw	0
  8133     015A  00A7               	movwf	ADC_Read_Averaged@sum
  8134     015B                     l2892:
  8135                           
  8136                           ;./ADC.h: 104:     ADCON0bits.CHS = (uint8_t)channel;
  8137     015B  0826               	movf	ADC_Read_Averaged@channel,w
  8138     015C  00A2               	movwf	??_ADC_Read_Averaged
  8139     015D  0DA2               	rlf	??_ADC_Read_Averaged,f
  8140     015E  0DA2               	rlf	??_ADC_Read_Averaged,f
  8141     015F  0021               	movlb	1	; select bank1
  8142     0160  081D               	movf	29,w	;volatile
  8143     0161  0020               	movlb	0	; select bank0
  8144     0162  0622               	xorwf	??_ADC_Read_Averaged,w
  8145     0163  3983               	andlw	-125
  8146     0164  0622               	xorwf	??_ADC_Read_Averaged,w
  8147     0165  0021               	movlb	1	; select bank1
  8148     0166  009D               	movwf	29	;volatile
  8149     0167                     l2894:
  8150                           
  8151                           ;./ADC.h: 105:     ADCON0bits.ADON = 1;
  8152     0167  141D               	bsf	29,0	;volatile
  8153     0168                     l2896:
  8154                           
  8155                           ;./ADC.h: 106:     _delay((unsigned long)((20)*(32000000/4000000.0)));
  8156     0168  3035               	movlw	53
  8157     0169                     u3487:
  8158     0169  0B89               	decfsz	9,f
  8159     016A  2969               	goto	u3487
  8160     016B  0000               	nop
  8161     016C                     l2898:
  8162                           
  8163                           ;./ADC.h: 109:     for (uint8_t i = 0; i < samples; i++)
  8164     016C  0020               	movlb	0	; select bank0
  8165     016D  01AB               	clrf	ADC_Read_Averaged@i
  8166     016E  299A               	goto	l2906
  8167     016F                     l370:
  8168                           
  8169                           ;./ADC.h: 110:     {;./ADC.h: 112:         ADCON0bits.GO = 1;
  8170     016F  0021               	movlb	1	; select bank1
  8171     0170  149D               	bsf	29,1	;volatile
  8172     0171                     l371:	
  8173                           ;./ADC.h: 113:         while (ADCON0bits.GO_nDONE);
  8174                           
  8175     0171  189D               	btfsc	29,1	;volatile
  8176     0172  2974               	goto	u3051
  8177     0173  2975               	goto	u3050
  8178     0174                     u3051:
  8179     0174  2971               	goto	l371
  8180     0175                     u3050:
  8181     0175                     l2900:
  8182                           
  8183                           ;./ADC.h: 115:         sum += (uint16_t)((ADRESH << 8) + ADRESL);
  8184     0175  081B               	movf	27,w	;volatile
  8185     0176  0020               	movlb	0	; select bank0
  8186     0177  07A7               	addwf	ADC_Read_Averaged@sum,f
  8187     0178  0021               	movlb	1	; select bank1
  8188     0179  081C               	movf	28,w	;volatile
  8189     017A  0020               	movlb	0	; select bank0
  8190     017B  3DA8               	addwfc	ADC_Read_Averaged@sum+1,f
  8191     017C  3000               	movlw	0
  8192     017D  3DA9               	addwfc	ADC_Read_Averaged@sum+2,f
  8193     017E  3DAA               	addwfc	ADC_Read_Averaged@sum+3,f
  8194                           
  8195                           ;./ADC.h: 118:         if (i < samples - 1) _delay((unsigned long)((5)*(32000000/4000000
      +                          .0)));
  8196     017F  0820               	movf	ADC_Read_Averaged@samples,w
  8197     0180  3EFF               	addlw	255
  8198     0181  00A2               	movwf	??_ADC_Read_Averaged
  8199     0182  30FF               	movlw	255
  8200     0183  1803               	skipnc
  8201     0184  3000               	movlw	0
  8202     0185  00A3               	movwf	??_ADC_Read_Averaged+1
  8203     0186  0823               	movf	??_ADC_Read_Averaged+1,w
  8204     0187  3A80               	xorlw	128
  8205     0188  3C80               	sublw	128
  8206     0189  1D03               	skipz
  8207     018A  298D               	goto	u3065
  8208     018B  0822               	movf	??_ADC_Read_Averaged,w
  8209     018C  022B               	subwf	ADC_Read_Averaged@i,w
  8210     018D                     u3065:
  8211     018D  1803               	skipnc
  8212     018E  2990               	goto	u3061
  8213     018F  2991               	goto	u3060
  8214     0190                     u3061:
  8215     0190  2995               	goto	l2904
  8216     0191                     u3060:
  8217     0191                     l2902:
  8218     0191  300D               	movlw	13
  8219     0192                     u3497:
  8220     0192  0B89               	decfsz	9,f
  8221     0193  2992               	goto	u3497
  8222     0194  0000               	nop
  8223     0195                     l2904:
  8224                           
  8225                           ;./ADC.h: 119:     }
  8226     0195  3001               	movlw	1
  8227     0196  0020               	movlb	0	; select bank0
  8228     0197  00A2               	movwf	??_ADC_Read_Averaged
  8229     0198  0822               	movf	??_ADC_Read_Averaged,w
  8230     0199  07AB               	addwf	ADC_Read_Averaged@i,f
  8231     019A                     l2906:
  8232     019A  0820               	movf	ADC_Read_Averaged@samples,w
  8233     019B  022B               	subwf	ADC_Read_Averaged@i,w
  8234     019C  1C03               	skipc
  8235     019D  299F               	goto	u3071
  8236     019E  29A0               	goto	u3070
  8237     019F                     u3071:
  8238     019F  296F               	goto	l370
  8239     01A0                     u3070:
  8240     01A0                     l2908:
  8241                           
  8242                           ;./ADC.h: 121:     return (uint16_t)(sum / samples);
  8243     01A0  0820               	movf	ADC_Read_Averaged@samples,w
  8244     01A1  00A2               	movwf	??_ADC_Read_Averaged
  8245     01A2  01A3               	clrf	??_ADC_Read_Averaged+1
  8246     01A3  01A4               	clrf	??_ADC_Read_Averaged+2
  8247     01A4  01A5               	clrf	??_ADC_Read_Averaged+3
  8248     01A5  0825               	movf	??_ADC_Read_Averaged+3,w
  8249     01A6  00F3               	movwf	___lldiv@divisor+3
  8250     01A7  0824               	movf	??_ADC_Read_Averaged+2,w
  8251     01A8  00F2               	movwf	___lldiv@divisor+2
  8252     01A9  0823               	movf	??_ADC_Read_Averaged+1,w
  8253     01AA  00F1               	movwf	___lldiv@divisor+1
  8254     01AB  0822               	movf	??_ADC_Read_Averaged,w
  8255     01AC  00F0               	movwf	___lldiv@divisor
  8256     01AD  082A               	movf	ADC_Read_Averaged@sum+3,w
  8257     01AE  00F7               	movwf	___lldiv@dividend+3
  8258     01AF  0829               	movf	ADC_Read_Averaged@sum+2,w
  8259     01B0  00F6               	movwf	___lldiv@dividend+2
  8260     01B1  0828               	movf	ADC_Read_Averaged@sum+1,w
  8261     01B2  00F5               	movwf	___lldiv@dividend+1
  8262     01B3  0827               	movf	ADC_Read_Averaged@sum,w
  8263     01B4  00F4               	movwf	___lldiv@dividend
  8264     01B5  3180  2033  3181   	fcall	___lldiv
  8265     01B8  0871               	movf	?___lldiv+1,w
  8266     01B9  0020               	movlb	0	; select bank0
  8267     01BA  00A1               	movwf	?_ADC_Read_Averaged+1
  8268     01BB  0870               	movf	?___lldiv,w
  8269     01BC  00A0               	movwf	?_ADC_Read_Averaged
  8270     01BD                     l376:
  8271     01BD  0008               	return
  8272     01BE                     __end_of_ADC_Read_Averaged:
  8273                           
  8274                           	psect	text33
  8275     0033                     __ptext33:	
  8276 ;; *************** function ___lldiv *****************
  8277 ;; Defined at:
  8278 ;;		line 5 in file "C:\Program Files\Microchip\xc8\v2.46\pic\sources\c99\common\__lldiv.c"
  8279 ;; Parameters:    Size  Location     Type
  8280 ;;  divisor         4    0[COMMON] unsigned long 
  8281 ;;  dividend        4    4[COMMON] unsigned long 
  8282 ;; Auto vars:     Size  Location     Type
  8283 ;;  quotient        4    9[COMMON] unsigned long 
  8284 ;;  counter         1   13[COMMON] unsigned char 
  8285 ;; Return value:  Size  Location     Type
  8286 ;;                  4    0[COMMON] unsigned long 
  8287 ;; Registers used:
  8288 ;;		wreg, status,2, status,0
  8289 ;; Tracked objects:
  8290 ;;		On entry : 0/0
  8291 ;;		On exit  : 0/0
  8292 ;;		Unchanged: 0/0
  8293 ;; Data sizes:     COMMON   BANK0   BANK1   BANK2   BANK3   BANK4   BANK5   BANK6   BANK7   BANK8   BANK9  BANK10  BANK1
      +1  BANK12  BANK13  BANK14  BANK15  BANK16  BANK17  BANK18  BANK19  BANK20  BANK21  BANK22  BANK23  BANK24  BANK25
  8294 ;;      Params:         8       0       0       0       0       0       0       0       0       0       0       0       
      +0       0       0       0       0       0       0       0       0       0       0       0       0       0       0
  8295 ;;      Locals:         5       0       0       0       0       0       0       0       0       0       0       0       
      +0       0       0       0       0       0       0       0       0       0       0       0       0       0       0
  8296 ;;      Temps:          1       0       0       0       0       0       0       0       0       0       0       0       
      +0       0       0       0       0       0       0       0       0       0       0       0       0       0       0
  8297 ;;      Totals:        14       0       0       0       0       0       0       0       0       0       0       0       
      +0       0       0       0       0       0       0       0       0       0       0       0       0       0       0
  8298 ;;Total ram usage:       14 bytes
  8299 ;; Hardware stack levels used: 1
  8300 ;; This function calls:
  8301 ;;		Nothing
  8302 ;; This function is called by:
  8303 ;;		_OLED_Printf_Line
  8304 ;;		_ADC_Read_Averaged
  8305 ;; This function uses a non-reentrant model
  8306 ;;
  8307                           
  8308     0033                     ___lldiv:	
  8309                           ;psect for function ___lldiv
  8310                           
  8311     0033                     l2312:	
  8312                           ;incstack = 0
  8313                           ; Regs used in ___lldiv: [wreg+status,2+status,0]
  8314                           
  8315     0033  3000               	movlw	0
  8316     0034  00FC               	movwf	___lldiv@quotient+3
  8317     0035  3000               	movlw	0
  8318     0036  00FB               	movwf	___lldiv@quotient+2
  8319     0037  3000               	movlw	0
  8320     0038  00FA               	movwf	___lldiv@quotient+1
  8321     0039  3000               	movlw	0
  8322     003A  00F9               	movwf	___lldiv@quotient
  8323     003B  0873               	movf	___lldiv@divisor+3,w
  8324     003C  0472               	iorwf	___lldiv@divisor+2,w
  8325     003D  0471               	iorwf	___lldiv@divisor+1,w
  8326     003E  0470               	iorwf	___lldiv@divisor,w
  8327     003F  1903               	skipnz
  8328     0040  2842               	goto	u2051
  8329     0041  2843               	goto	u2050
  8330     0042                     u2051:
  8331     0042  2884               	goto	l2332
  8332     0043                     u2050:
  8333     0043                     l2314:
  8334     0043  01FD               	clrf	___lldiv@counter
  8335     0044  0AFD               	incf	___lldiv@counter,f
  8336     0045  2851               	goto	l2318
  8337     0046                     l2316:
  8338     0046  3001               	movlw	1
  8339     0047                     u2065:
  8340     0047  35F0               	lslf	___lldiv@divisor,f
  8341     0048  0DF1               	rlf	___lldiv@divisor+1,f
  8342     0049  0DF2               	rlf	___lldiv@divisor+2,f
  8343     004A  0DF3               	rlf	___lldiv@divisor+3,f
  8344     004B  0B89               	decfsz	9,f
  8345     004C  2847               	goto	u2065
  8346     004D  3001               	movlw	1
  8347     004E  00F8               	movwf	??___lldiv
  8348     004F  0878               	movf	??___lldiv,w
  8349     0050  07FD               	addwf	___lldiv@counter,f
  8350     0051                     l2318:
  8351     0051  1FF3               	btfss	___lldiv@divisor+3,7
  8352     0052  2854               	goto	u2071
  8353     0053  2855               	goto	u2070
  8354     0054                     u2071:
  8355     0054  2846               	goto	l2316
  8356     0055                     u2070:
  8357     0055                     l2320:
  8358     0055  3001               	movlw	1
  8359     0056                     u2085:
  8360     0056  35F9               	lslf	___lldiv@quotient,f
  8361     0057  0DFA               	rlf	___lldiv@quotient+1,f
  8362     0058  0DFB               	rlf	___lldiv@quotient+2,f
  8363     0059  0DFC               	rlf	___lldiv@quotient+3,f
  8364     005A  0B89               	decfsz	9,f
  8365     005B  2856               	goto	u2085
  8366     005C                     l2322:
  8367     005C  0873               	movf	___lldiv@divisor+3,w
  8368     005D  0277               	subwf	___lldiv@dividend+3,w
  8369     005E  1D03               	skipz
  8370     005F  286A               	goto	u2095
  8371     0060  0872               	movf	___lldiv@divisor+2,w
  8372     0061  0276               	subwf	___lldiv@dividend+2,w
  8373     0062  1D03               	skipz
  8374     0063  286A               	goto	u2095
  8375     0064  0871               	movf	___lldiv@divisor+1,w
  8376     0065  0275               	subwf	___lldiv@dividend+1,w
  8377     0066  1D03               	skipz
  8378     0067  286A               	goto	u2095
  8379     0068  0870               	movf	___lldiv@divisor,w
  8380     0069  0274               	subwf	___lldiv@dividend,w
  8381     006A                     u2095:
  8382     006A  1C03               	skipc
  8383     006B  286D               	goto	u2091
  8384     006C  286E               	goto	u2090
  8385     006D                     u2091:
  8386     006D  2877               	goto	l2328
  8387     006E                     u2090:
  8388     006E                     l2324:
  8389     006E  0870               	movf	___lldiv@divisor,w
  8390     006F  02F4               	subwf	___lldiv@dividend,f
  8391     0070  0871               	movf	___lldiv@divisor+1,w
  8392     0071  3BF5               	subwfb	___lldiv@dividend+1,f
  8393     0072  0872               	movf	___lldiv@divisor+2,w
  8394     0073  3BF6               	subwfb	___lldiv@dividend+2,f
  8395     0074  0873               	movf	___lldiv@divisor+3,w
  8396     0075  3BF7               	subwfb	___lldiv@dividend+3,f
  8397     0076                     l2326:
  8398     0076  1479               	bsf	___lldiv@quotient,0
  8399     0077                     l2328:
  8400     0077  3001               	movlw	1
  8401     0078                     u2105:
  8402     0078  36F3               	lsrf	___lldiv@divisor+3,f
  8403     0079  0CF2               	rrf	___lldiv@divisor+2,f
  8404     007A  0CF1               	rrf	___lldiv@divisor+1,f
  8405     007B  0CF0               	rrf	___lldiv@divisor,f
  8406     007C  0B89               	decfsz	9,f
  8407     007D  2878               	goto	u2105
  8408     007E                     l2330:
  8409     007E  3001               	movlw	1
  8410     007F  02FD               	subwf	___lldiv@counter,f
  8411     0080  1D03               	btfss	3,2
  8412     0081  2883               	goto	u2111
  8413     0082  2884               	goto	u2110
  8414     0083                     u2111:
  8415     0083  2855               	goto	l2320
  8416     0084                     u2110:
  8417     0084                     l2332:
  8418     0084  087C               	movf	___lldiv@quotient+3,w
  8419     0085  00F3               	movwf	?___lldiv+3
  8420     0086  087B               	movf	___lldiv@quotient+2,w
  8421     0087  00F2               	movwf	?___lldiv+2
  8422     0088  087A               	movf	___lldiv@quotient+1,w
  8423     0089  00F1               	movwf	?___lldiv+1
  8424     008A  0879               	movf	___lldiv@quotient,w
  8425     008B  00F0               	movwf	?___lldiv
  8426     008C                     l502:
  8427     008C  0008               	return
  8428     008D                     __end_of___lldiv:
  8429                           
  8430                           	psect	text34
  8431     0BE9                     __ptext34:	
  8432 ;; *************** function _ADC_Init *****************
  8433 ;; Defined at:
  8434 ;;		line 76 in file "./ADC.h"
  8435 ;; Parameters:    Size  Location     Type
  8436 ;;		None
  8437 ;; Auto vars:     Size  Location     Type
  8438 ;;		None
  8439 ;; Return value:  Size  Location     Type
  8440 ;;                  1    wreg      void 
  8441 ;; Registers used:
  8442 ;;		wreg, status,2, status,0
  8443 ;; Tracked objects:
  8444 ;;		On entry : 0/0
  8445 ;;		On exit  : 0/0
  8446 ;;		Unchanged: 0/0
  8447 ;; Data sizes:     COMMON   BANK0   BANK1   BANK2   BANK3   BANK4   BANK5   BANK6   BANK7   BANK8   BANK9  BANK10  BANK1
      +1  BANK12  BANK13  BANK14  BANK15  BANK16  BANK17  BANK18  BANK19  BANK20  BANK21  BANK22  BANK23  BANK24  BANK25
  8448 ;;      Params:         0       0       0       0       0       0       0       0       0       0       0       0       
      +0       0       0       0       0       0       0       0       0       0       0       0       0       0       0
  8449 ;;      Locals:         0       0       0       0       0       0       0       0       0       0       0       0       
      +0       0       0       0       0       0       0       0       0       0       0       0       0       0       0
  8450 ;;      Temps:          0       0       0       0       0       0       0       0       0       0       0       0       
      +0       0       0       0       0       0       0       0       0       0       0       0       0       0       0
  8451 ;;      Totals:         0       0       0       0       0       0       0       0       0       0       0       0       
      +0       0       0       0       0       0       0       0       0       0       0       0       0       0       0
  8452 ;;Total ram usage:        0 bytes
  8453 ;; Hardware stack levels used: 1
  8454 ;; This function calls:
  8455 ;;		Nothing
  8456 ;; This function is called by:
  8457 ;;		_main
  8458 ;; This function uses a non-reentrant model
  8459 ;;
  8460                           
  8461     0BE9                     _ADC_Init:	
  8462                           ;psect for function _ADC_Init
  8463                           
  8464     0BE9                     l2884:	
  8465                           ;incstack = 0
  8466                           ; Regs used in _ADC_Init: [wreg+status,2+status,0]
  8467                           
  8468                           
  8469                           ;./ADC.h: 79:     ADCON1bits.ADCS = 0b010;
  8470     0BE9  0021               	movlb	1	; select bank1
  8471     0BEA  081E               	movf	30,w	;volatile
  8472     0BEB  398F               	andlw	-113
  8473     0BEC  3820               	iorlw	32
  8474     0BED  009E               	movwf	30	;volatile
  8475     0BEE                     l2886:
  8476                           
  8477                           ;./ADC.h: 82:     ADCON1bits.ADFM = 1;
  8478     0BEE  179E               	bsf	30,7	;volatile
  8479     0BEF                     l2888:
  8480                           
  8481                           ;./ADC.h: 85:     ADCON1bits.ADNREF = 0;
  8482     0BEF  111E               	bcf	30,2	;volatile
  8483                           
  8484                           ;./ADC.h: 88:     ADCON1bits.ADPREF = 0b00;
  8485     0BF0  30FC               	movlw	-4
  8486     0BF1  059E               	andwf	30,f	;volatile
  8487     0BF2                     l366:
  8488     0BF2  0008               	return
  8489     0BF3                     __end_of_ADC_Init:
  8490     007E                     btemp	set	126	;btemp
  8491     007E                     wtemp0	set	126
  8492     24F0                     
  8493                           	psect	config
  8494                           
  8495                           ;Config register CONFIG1 @ 0x8007
  8496                           ;	Oscillator Selection Bits
  8497                           ;	FOSC = INTOSC, INTOSC oscillator: I/O function on CLKIN pin
  8498                           ;	Watchdog Timer Enable
  8499                           ;	WDTE = OFF, WDT disabled
  8500                           ;	Power-up Timer Enable
  8501                           ;	PWRTE = OFF, PWRT disabled
  8502                           ;	MCLR Pin Function Select
  8503                           ;	MCLRE = OFF, MCLR/VPP pin function is digital input if LVP bit is also 0.
  8504                           ;	Flash Program Memory Code Protection
  8505                           ;	CP = OFF, Program memory code protection is disabled
  8506                           ;	Brown-out Reset Enable
  8507                           ;	BOREN = OFF, Brown-out Reset disabled
  8508                           ;	Clock Out Enable
  8509                           ;	CLKOUTEN = OFF, CLKOUT function is disabled. I/O or oscillator function on the CLKOUT 
      +                          pin
  8510                           ;	Internal/External Switchover Mode
  8511                           ;	IESO = ON, Internal/External Switchover Mode is enabled
  8512                           ;	Fail-Safe Clock Monitor Enable
  8513                           ;	FCMEN = OFF, Fail-Safe Clock Monitor is disabled
  8514     8007                     	org	32775
  8515     8007  19A4               	dw	6564
  8516                           
  8517                           ;Config register CONFIG2 @ 0x8008
  8518                           ;	Flash Memory Self-Write Protection
  8519                           ;	WRT = OFF, Write protection off
  8520                           ;	Peripheral Pin Select one-way control
  8521                           ;	PPS1WAY = ON, The PPSLOCK bit cannot be cleared once it is set by software
  8522                           ;	Zero-cross detect disable
  8523                           ;	ZCDDIS = ON, ZCD disabled. ZCD can be enabled by setting the ZCDSEN bit of ZCDCON
  8524                           ;	Phase Lock Loop enable
  8525                           ;	PLLEN = OFF, 4x PLL is disabled
  8526                           ;	Stack Overflow/Underflow Reset Enable
  8527                           ;	STVREN = ON, Stack Overflow or Underflow will cause a Reset
  8528                           ;	Brown-out Reset Voltage Selection
  8529                           ;	BORV = LO, Brown-out Reset Voltage (Vbor), low trip point selected.
  8530                           ;	Low-Power Brown Out Reset
  8531                           ;	LPBOR = OFF, Low-Power BOR is disabled
  8532                           ;	In-Circuit Debugger Mode
  8533                           ;	DEBUG = 0x1, unprogrammed default
  8534                           ;	Low-Voltage Programming Enable
  8535                           ;	LVP = OFF, High-voltage on MCLR/VPP must be used for programming
  8536     8008                     	org	32776
  8537     8008  1EFF               	dw	7935

Data Sizes:
    Strings     21
    Constant    778
    Data        0
    BSS         3
    Persistent  32
    Stack       0

Auto Spaces:
    Space          Size  Autos    Used
    COMMON           14     14      14
    BANK0            80     80      80
    BANK1            80     50      53
    BANK2            80      0       0
    BANK3            80      0       0
    BANK4            80      0       0
    BANK5            80      0       0
    BANK6            80      0       0
    BANK7            80      0       0
    BANK8            80      0       0
    BANK9            80      0       0
    BANK10           80      0       0
    BANK11           80      0       0
    BANK12           80      0       0
    BANK13           80      0       0
    BANK14           80      0       0
    BANK15           64      0       0
    BANK16            0      0       0
    BANK17            0      0       0
    BANK18            0      0       0
    BANK19            0      0       0
    BANK20            0      0       0
    BANK21            0      0       0
    BANK22            0      0       0
    BANK23            0      0       0
    BANK24            0      0       0
    BANK25            0      0       0

Pointer List with Targets:

    main$731	PTR const unsigned char  size(2) Largest target is 6
		 -> STR_2(CODE[5]), STR_3(CODE[6]), 

    memcpy@d	PTR unsigned char  size(2) Largest target is 512
		 -> screen_buffer(BIGRAM[512]), 

    memcpy@d1	PTR void  size(2) Largest target is 512
		 -> screen_buffer(BIGRAM[512]), 

    memcpy@s	PTR const unsigned char  size(2) Largest target is 768
		 -> OledFont(CODE[768]), 

    memcpy@s1	PTR const void  size(2) Largest target is 768
		 -> OledFont(CODE[768]), 

    memset@dest	PTR void  size(2) Largest target is 512
		 -> screen_buffer(BIGRAM[512]), 

    memset@p	PTR unsigned char  size(2) Largest target is 512
		 -> screen_buffer(BIGRAM[512]), 

    OLED_Printf_Line@ap	PTR void [1] size(1) Largest target is 1
		 -> ?_OLED_Printf_Line(BANK0[1]), 

    OLED_Printf_Line@dst	PTR unsigned char  size(1) Largest target is 32
		 -> OLED_Printf_Line@buf(BANK0[32]), 

    OLED_Printf_Line@fmt	PTR const unsigned char  size(2) Largest target is 10
		 -> STR_1(CODE[10]), STR_2(CODE[5]), STR_3(CODE[6]), 

    OLED_Printf_Line@p	PTR const unsigned char  size(1) Largest target is 32
		 -> OLED_Printf_Line@buf(BANK0[32]), 

    OLED_Printf_Line@src	PTR const unsigned char  size(2) Largest target is 10
		 -> STR_1(CODE[10]), STR_2(CODE[5]), STR_3(CODE[6]), 

    OLED_Printf_Line@str	PTR const unsigned char  size(1) Largest target is 1
		 -> ?_OLED_Printf_Line(BANK0[1]), 

    OLED_WriteData@data	PTR const unsigned char  size(2) Largest target is 768
		 -> OledFont(CODE[768]), screen_buffer(BIGRAM[512]), 

    sp__memcpy	PTR void  size(2) Largest target is 512
		 -> screen_buffer(BIGRAM[512]), 

    sp__memset	PTR void  size(2) Largest target is 512
		 -> screen_buffer(BIGRAM[512]), 

    sp__strcpy	PTR unsigned char  size(2) Largest target is 256
		 -> OLED_Printf_Line@last_text(BIGRAM[256]), 

    strcmp@l	PTR const unsigned char  size(1) Largest target is 32
		 -> OLED_Printf_Line@buf(BANK0[32]), 

    strcmp@r	PTR const unsigned char  size(2) Largest target is 256
		 -> OLED_Printf_Line@last_text(BIGRAM[256]), 

    strcpy@d	PTR unsigned char  size(2) Largest target is 256
		 -> OLED_Printf_Line@last_text(BIGRAM[256]), 

    strcpy@dest	PTR unsigned char  size(2) Largest target is 256
		 -> OLED_Printf_Line@last_text(BIGRAM[256]), 

    strcpy@src	PTR const unsigned char  size(1) Largest target is 32
		 -> OLED_Printf_Line@buf(BANK0[32]), 


Critical Paths under _main in COMMON

    _main->_OLED_Init
    _initMain->_ADC_ConfigurePin
    _OLED_SetOrientation->_OLED_Command
    _OLED_Printf_Line->___lldiv
    _OLED_UpdateLine->_OLED_WriteData
    _OLED_Init->_OLED_Clear
    _OLED_Clear->_OLED_WriteData
    _OLED_YX->_OLED_Command
    _OLED_Command->_I2C_WriteByte
    _OLED_WriteData->_I2C_WriteByte
    _I2C_WriteByte->_I2C_WaitIF
    _I2C_WriteByte->_I2C_WaitIdle
    _I2C_Stop->_I2C_WaitIF
    _I2C_Stop->_I2C_WaitIdle
    _I2C_Start->_I2C_WaitIF
    _I2C_Start->_I2C_WaitIdle
    _ADC_Read_Averaged->___lldiv

Critical Paths under _main in BANK0

    _main->_OLED_Printf_Line
    _OLED_Printf_Line->_OLED_UpdateLine
    _OLED_Printf_Line->___aldiv
    _OLED_Init->_OLED_Clear

Critical Paths under _main in BANK1

    _main->_OLED_Printf_Line

Critical Paths under _main in BANK2

    None.

Critical Paths under _main in BANK3

    None.

Critical Paths under _main in BANK4

    None.

Critical Paths under _main in BANK5

    None.

Critical Paths under _main in BANK6

    None.

Critical Paths under _main in BANK7

    None.

Critical Paths under _main in BANK8

    None.

Critical Paths under _main in BANK9

    None.

Critical Paths under _main in BANK10

    None.

Critical Paths under _main in BANK11

    None.

Critical Paths under _main in BANK12

    None.

Critical Paths under _main in BANK13

    None.

Critical Paths under _main in BANK14

    None.

Critical Paths under _main in BANK15

    None.

Critical Paths under _main in BANK16

    None.

Critical Paths under _main in BANK17

    None.

Critical Paths under _main in BANK18

    None.

Critical Paths under _main in BANK19

    None.

Critical Paths under _main in BANK20

    None.

Critical Paths under _main in BANK21

    None.

Critical Paths under _main in BANK22

    None.

Critical Paths under _main in BANK23

    None.

Critical Paths under _main in BANK24

    None.

Critical Paths under _main in BANK25

    None.

Call Graph Tables:

 ---------------------------------------------------------------------------------
 (Depth) Function   	        Calls       Base Space   Used Autos Params    Refs
 ---------------------------------------------------------------------------------
 (0) _main                                                 6     6      0   37190
                                             44 BANK1      6     6      0
                           _ADC_Init
                  _ADC_Read_Averaged
                           _I2C_Init
                         _OLED_Clear
                          _OLED_Init
                   _OLED_Printf_Line
                _OLED_SetOrientation
                             ___wmul
                           _initMain
 ---------------------------------------------------------------------------------
 (1) _initMain                                             1     1      0      22
                                              3 COMMON     1     1      0
                   _ADC_ConfigurePin
                        _internal_32
 ---------------------------------------------------------------------------------
 (2) _internal_32                                          0     0      0       0
 ---------------------------------------------------------------------------------
 (2) _ADC_ConfigurePin                                     3     3      0      22
                                              0 COMMON     3     3      0
 ---------------------------------------------------------------------------------
 (1) ___wmul                                               6     2      4     396
                                              0 COMMON     6     2      4
 ---------------------------------------------------------------------------------
 (1) _OLED_SetOrientation                                  3     3      0    3038
                                              7 COMMON     3     3      0
                       _OLED_Command
 ---------------------------------------------------------------------------------
 (1) _OLED_Printf_Line                                   118   114      4   14505
                                              6 BANK0     74    70      4
                                              0 BANK1     44    44      0
                    _OLED_UpdateLine
                            ___aldiv
                            ___almod
                            ___awdiv
                            ___awmod
                            ___lldiv
                            ___llmod
                            ___lwdiv
                            ___lwmod
                             _memcpy
                             _memset
                             _strcmp
                             _strcpy
 ---------------------------------------------------------------------------------
 (2) _strcpy                                               7     4      3     225
                                              0 COMMON     7     4      3
 ---------------------------------------------------------------------------------
 (2) _strcmp                                               4     2      2     221
                                              0 COMMON     4     2      2
 ---------------------------------------------------------------------------------
 (2) _memcpy                                              11     5      6     371
                                              0 COMMON    11     5      6
 ---------------------------------------------------------------------------------
 (2) ___lwmod                                              6     2      4     311
                                              0 COMMON     6     2      4
 ---------------------------------------------------------------------------------
 (2) ___lwdiv                                              8     4      4     314
                                              0 COMMON     8     4      4
 ---------------------------------------------------------------------------------
 (2) ___llmod                                             10     2      8     311
                                              0 COMMON    10     2      8
 ---------------------------------------------------------------------------------
 (2) ___awmod                                              7     3      4     448
                                              0 COMMON     7     3      4
 ---------------------------------------------------------------------------------
 (2) ___awdiv                                              9     5      4     604
                                              0 COMMON     9     5      4
 ---------------------------------------------------------------------------------
 (2) ___almod                                             11     3      8     448
                                              0 COMMON    11     3      8
 ---------------------------------------------------------------------------------
 (2) ___aldiv                                             15     7      8     452
                                              0 COMMON     9     1      8
                                              0 BANK0      6     6      0
 ---------------------------------------------------------------------------------
 (2) _OLED_UpdateLine                                      7     7      0    7135
                                             12 COMMON     1     1      0
                                              0 BANK0      6     6      0
                     _OLED_WriteData
                            _OLED_YX
 ---------------------------------------------------------------------------------
 (1) _OLED_Init                                            1     1      0   10749
                                             13 COMMON     1     1      0
                         _OLED_Clear
                       _OLED_Command
 ---------------------------------------------------------------------------------
 (2) _OLED_Clear                                           7     7      0    7733
                                             12 COMMON     1     1      0
                                              0 BANK0      6     6      0
                     _OLED_WriteData
                            _OLED_YX
                             _memset
 ---------------------------------------------------------------------------------
 (2) _memset                                               8     2      6     552
                                              0 COMMON     8     2      6
 ---------------------------------------------------------------------------------
 (3) _OLED_YX                                              4     3      1    3333
                                              7 COMMON     4     3      1
                       _OLED_Command
 ---------------------------------------------------------------------------------
 (2) _OLED_Command                                         2     2      0    3016
                                              5 COMMON     2     2      0
                          _I2C_Start
                           _I2C_Stop
                      _I2C_WriteByte
                      _SSD1306_CtrlW
 ---------------------------------------------------------------------------------
 (3) _OLED_WriteData                                       7     3      4    3736
                                              5 COMMON     7     3      4
                          _I2C_Start
                           _I2C_Stop
                      _I2C_WriteByte
                      _SSD1306_CtrlW
 ---------------------------------------------------------------------------------
 (3) _SSD1306_CtrlW                                        0     0      0       0
 ---------------------------------------------------------------------------------
 (3) _I2C_WriteByte                                        2     2      0     992
                                              3 COMMON     2     2      0
                         _I2C_WaitIF
                       _I2C_WaitIdle
 ---------------------------------------------------------------------------------
 (3) _I2C_Stop                                             1     1      0     938
                                              3 COMMON     1     1      0
                         _I2C_WaitIF
                       _I2C_WaitIdle
 ---------------------------------------------------------------------------------
 (3) _I2C_Start                                            1     1      0     970
                                              3 COMMON     1     1      0
                         _I2C_WaitIF
                       _I2C_WaitIdle
 ---------------------------------------------------------------------------------
 (4) _I2C_WaitIdle                                         3     1      2     402
                                              0 COMMON     3     1      2
 ---------------------------------------------------------------------------------
 (4) _I2C_WaitIF                                           3     1      2     478
                                              0 COMMON     3     1      2
 ---------------------------------------------------------------------------------
 (1) _I2C_Init                                             1     1      0       0
                                              0 COMMON     1     1      0
                    _I2C_ClearErrors
 ---------------------------------------------------------------------------------
 (2) _I2C_ClearErrors                                      0     0      0       0
 ---------------------------------------------------------------------------------
 (1) _ADC_Read_Averaged                                   12    10      2     700
                                              0 BANK0     12    10      2
                            ___lldiv
 ---------------------------------------------------------------------------------
 (2) ___lldiv                                             14     6      8     466
                                              0 COMMON    14     6      8
 ---------------------------------------------------------------------------------
 (1) _ADC_Init                                             0     0      0       0
 ---------------------------------------------------------------------------------
 Estimated maximum stack depth 4
 ---------------------------------------------------------------------------------

 Call Graph Graphs:

 _main (ROOT)
   _ADC_Init
   _ADC_Read_Averaged
     ___lldiv
   _I2C_Init
     _I2C_ClearErrors
   _OLED_Clear
     _OLED_WriteData
       _I2C_Start
         _I2C_WaitIF
         _I2C_WaitIdle
       _I2C_Stop
         _I2C_WaitIF
         _I2C_WaitIdle
       _I2C_WriteByte
         _I2C_WaitIF
         _I2C_WaitIdle
       _SSD1306_CtrlW
     _OLED_YX
       _OLED_Command
         _I2C_Start
         _I2C_Stop
         _I2C_WriteByte
         _SSD1306_CtrlW
     _memset
   _OLED_Init
     _OLED_Clear
     _OLED_Command
   _OLED_Printf_Line
     _OLED_UpdateLine
       _OLED_WriteData
       _OLED_YX
     ___aldiv
     ___almod
     ___awdiv
     ___awmod
     ___lldiv
     ___llmod
     ___lwdiv
     ___lwmod
     _memcpy
     _memset
     _strcmp
     _strcpy
   _OLED_SetOrientation
     _OLED_Command
   ___wmul
   _initMain
     _ADC_ConfigurePin
     _internal_32

 Address spaces:
Name               Size   Autos  Total    Cost      Usage
BIGRAM             7F0      0       0       0        0.0%
NULL                 0      0       0       0        0.0%
CODE                 0      0       0       0        0.0%
BITCOMMON            E      0       0       1        0.0%
BITSFR0              0      0       0       1        0.0%
SFR0                 0      0       0       1        0.0%
COMMON               E      E       E       2      100.0%
BITSFR1              0      0       0       2        0.0%
SFR1                 0      0       0       2        0.0%
BITSFR2              0      0       0       3        0.0%
SFR2                 0      0       0       3        0.0%
STACK                0      0       0       3        0.0%
BITBANK0            50      0       0       4        0.0%
BITSFR3              0      0       0       4        0.0%
SFR3                 0      0       0       4        0.0%
BANK0               50     50      50       5      100.0%
BITSFR4              0      0       0       5        0.0%
SFR4                 0      0       0       5        0.0%
BITBANK1            50      0       0       6        0.0%
BITSFR5              0      0       0       6        0.0%
SFR5                 0      0       0       6        0.0%
BANK1               50     32      35       7       66.2%
BITSFR6              0      0       0       7        0.0%
SFR6                 0      0       0       7        0.0%
BITBANK2            50      0       0       8        0.0%
BITSFR7              0      0       0       8        0.0%
SFR7                 0      0       0       8        0.0%
BANK2               50      0       0       9        0.0%
BITSFR8              0      0       0       9        0.0%
SFR8                 0      0       0       9        0.0%
BITBANK3            50      0       0      10        0.0%
BITSFR9              0      0       0      10        0.0%
SFR9                 0      0       0      10        0.0%
BANK3               50      0       0      11        0.0%
BITSFR10             0      0       0      11        0.0%
SFR10                0      0       0      11        0.0%
BITBANK4            50      0       0      12        0.0%
BITSFR11             0      0       0      12        0.0%
SFR11                0      0       0      12        0.0%
BANK4               50      0       0      13        0.0%
BITSFR12             0      0       0      13        0.0%
SFR12                0      0       0      13        0.0%
BITSFR13             0      0       0      14        0.0%
SFR13                0      0       0      14        0.0%
ABS                  0      0      93      14        0.0%
BITBANK5            50      0       0      15        0.0%
BITSFR14             0      0       0      15        0.0%
SFR14                0      0       0      15        0.0%
BANK5               50      0       0      16        0.0%
BITSFR15             0      0       0      16        0.0%
SFR15                0      0       0      16        0.0%
BITBANK6            50      0       0      17        0.0%
BITSFR16             0      0       0      17        0.0%
SFR16                0      0       0      17        0.0%
BANK6               50      0       0      18        0.0%
BITSFR17             0      0       0      18        0.0%
SFR17                0      0       0      18        0.0%
BITBANK7            50      0       0      19        0.0%
BITSFR18             0      0       0      19        0.0%
SFR18                0      0       0      19        0.0%
BANK7               50      0       0      20        0.0%
BITSFR19             0      0       0      20        0.0%
SFR19                0      0       0      20        0.0%
BITBANK8            50      0       0      21        0.0%
BITSFR20             0      0       0      21        0.0%
SFR20                0      0       0      21        0.0%
BANK8               50      0       0      22        0.0%
BITSFR21             0      0       0      22        0.0%
SFR21                0      0       0      22        0.0%
BITBANK9            50      0       0      23        0.0%
BITSFR22             0      0       0      23        0.0%
SFR22                0      0       0      23        0.0%
BANK9               50      0       0      24        0.0%
BITSFR23             0      0       0      24        0.0%
SFR23                0      0       0      24        0.0%
BITBANK10           50      0       0      25        0.0%
BITSFR24             0      0       0      25        0.0%
SFR24                0      0       0      25        0.0%
BANK10              50      0       0      26        0.0%
BITSFR25             0      0       0      26        0.0%
SFR25                0      0       0      26        0.0%
BITBANK11           50      0       0      27        0.0%
BITSFR26             0      0       0      27        0.0%
SFR26                0      0       0      27        0.0%
BITSFR27             0      0       0      28        0.0%
SFR27                0      0       0      28        0.0%
DATA                 0      0      93      28        0.0%
BANK11              50      0       0      29        0.0%
BITSFR28             0      0       0      29        0.0%
SFR28                0      0       0      29        0.0%
BITBANK12           50      0       0      30        0.0%
BITSFR29             0      0       0      30        0.0%
SFR29                0      0       0      30        0.0%
BANK12              50      0       0      31        0.0%
BITSFR30             0      0       0      31        0.0%
SFR30                0      0       0      31        0.0%
BITBANK13           50      0       0      32        0.0%
BITSFR31             0      0       0      32        0.0%
SFR31                0      0       0      32        0.0%
BANK13              50      0       0      33        0.0%
BITBANK14           50      0       0      34        0.0%
BANK14              50      0       0      35        0.0%
BITBANK15           50      0       0      36        0.0%
BANK15              40      0       0      37        0.0%
BITBANK16           50      0       0      38        0.0%
BANK16               0      0       0      39        0.0%
BITBANK17           50      0       0      40        0.0%
BANK17               0      0       0      41        0.0%
BITBANK18           50      0       0      42        0.0%
BANK18               0      0       0      43        0.0%
BITBANK19           50      0       0      44        0.0%
BANK19               0      0       0      45        0.0%
BITBANK20           50      0       0      46        0.0%
BANK20               0      0       0      47        0.0%
BITBANK21           50      0       0      48        0.0%
BANK21               0      0       0      49        0.0%
BITBANK22           50      0       0      50        0.0%
BANK22               0      0       0      51        0.0%
BITBANK23           50      0       0      52        0.0%
BANK23               0      0       0      53        0.0%
BITBANK24           50      0       0      54        0.0%
BANK24               0      0       0      55        0.0%
BITBANK25           20      0       0      56        0.0%
BANK25               0      0       0      57        0.0%


Microchip Technology PIC Macro Assembler V2.46 build 20240104201356 
Symbol Table                                                                                   Fri Dec 26 03:33:39 2025

           _ADC_ConfigurePin 00EC                  _SSPSTATbits 0214                           l32 0C12  
                         l41 0CEF                           l26 0C4B                           l35 0BDF  
                         l28 0C67                           l60 0DA8                           l45 0CFF  
                         l61 0DC9                           l46 0D14                           l62 0DBB  
                         l47 0D11                           l55 0CB7                           l63 0DC3  
                         l56 0CCB                           l57 0CC9                 ___awdiv@sign 0076  
        ___wmul@multiplicand 0072    OLED_Printf_Line@last_text 26F0                          l101 0BD8  
                        l111 0FAC                          l105 0032                          l115 0FA1  
                        l131 0CA8                          l134 0231                          l143 0D6A  
                        l128 0E7A                          l139 0F5C                          l502 008C  
                        l166 07ED                          l351 00EE                          l360 0116  
                        l361 011B                          l353 00F3                          l273 0BE8  
                        l370 016F                          l362 0120                          l354 00F8  
                        l371 0171                          l531 02C0                          l355 00FD  
                        l363 0150                          l356 0102                          l541 033C  
                        l357 0107                          l366 0BF2                          l358 010C  
                        l359 0111                          l376 01BD                          l544 0244  
                        l632 0FFF                          l554 02AC                          l466 0C72  
                        l619 00EB                          l379 0F0F                          l468 0C86  
                        l388 0350                          l746 0E39                          l756 0DFD  
                        l934 0C49                          l942 0D97                          l696 0EC4  
                        l928 0D3E                          l948 0C2D                 ___awmod@sign 0076  
                        wreg 0009                         l2100 0CF8                         l2102 0CFD  
                       l2120 0CB1                         l2200 0F75                         l2114 0D13  
                       l2106 0D03                         l2130 0D99                         l2202 0F7A  
                       l2108 0D0B                         l2124 0CBB                         l2140 0DAD  
                       l2132 0DA1                         l2300 0BE0                         l3100 038C  
                       l2126 0CC3                         l2118 0CA9                         l2150 0DC1  
                       l2142 0DB5                         l2134 0DA6                         l2214 0F89  
                       l2206 0F7E                         l2230 0C88                         l2302 00ED  
                       l3110 03B2                         l3102 0391                         l2320 0055  
                       l2312 0033                         l2072 0C52                         l2080 0CCC  
                       l2224 0F9D                         l2216 0F8C                         l2208 0F83  
                       l2232 0C91                         l2240 0C33                         l2400 0294  
                       l3112 03B7                         l3104 039A                         l2330 007E  
                       l2322 005C                         l2314 0043                         l2074 0C5A  
                       l2066 0C4A                         l2090 0CDA                         l2082 0CCD  
                       l2154 0DC4                         l2138 0DAA                         l2218 0F97  
                       l2170 0017                         l2162 0006                         l2234 0C97  
                       l2242 0C39                         l2402 0299                         l2410 008E  
                       l2306 0125                         l3114 03BB                         l3106 039B  
                       l2324 006E                         l2316 0046                         l2332 0084  
                       l2076 0C66                         l2068 0C50                         l2084 0CD4  
                       l2092 0CE2                         l2148 0DC0                         l2172 001C  
                       l2164 000A                         l2236 0C9C                         l2244 0C3D  
                       l2260 0F51                         l2340 02B3                         l2404 02A4  
                       l2420 00A2                         l2412 0092                         l2500 0EA7  
                       l3116 03C6                         l3108 03AC                         l2326 0076  
                       l2318 0051                         l2246 0BD9                         l2094 0CEE  
                       l2086 0CD8                         l2158 0BD7                         l2238 0C2E  
                       l2262 0F56                         l2254 0F11                         l2270 0D4C  
                       l2350 02E3                         l2342 02C4                         l2430 00B6  
                       l2422 00A6                         l2414 0097                         l2502 0EAF  
                       l2510 0DFE                         l2328 0077                         l2192 0F64  
                       l2184 002B                         l2176 0020                         l2168 0010  
                       l2256 0F2E                         l2248 0F10                         l2600 01DE  
                       l2264 0D40                         l2360 030E                         l2352 02E6  
                       l2344 02CF                         l2336 02AD                         l2440 00D2  
                       l2432 00BA                         l2424 00A8                         l2416 0099  
                       l2408 008D                         l2504 0EB6                         l2520 0E12  
                       l2512 0E00                         l2280 0D8A                         l2272 0D6C  
                       l3160 0E6C                         l2098 0CF0                         l2194 0F68  
                       l2178 0025                         l2258 0F33                         l2610 01F2  
                       l2602 01E2                         l2370 0329                         l2362 0316  
                       l2354 02F1                         l2346 02D3                         l2338 02AF  
                       l2442 00D7                         l2434 00BE                         l2426 00AE  
                       l2418 009D                         l2506 0EBC                         l2530 0E2F  
                       l2522 0E16                         l2514 0E06                         l2290 0D1E  
                       l2274 0D6D                         l3090 0346                         l2188 0F5D  
                       l2620 0206                         l2612 01F6                         l2604 01E6  
                       l2268 0D47                         l2372 0334                         l2364 0317  
                       l2356 02F5                         l2348 02DB                         l2380 0237  
                       l2436 00CD                         l2428 00B1                         l2444 00DD  
                       l2460 0FB9                         l2452 0FAD                         l2524 0E25  
                       l2516 0E09                         l2532 0E35                         l2540 0DD3  
                       l2292 0D24                         l2276 0D75                         l2284 0C13  
                       l2700 04CC                         l3092 034A                         l3084 033D  
                       l2198 0F6E                         l2630 021A                         l2622 020A  
                       l2614 01FA                         l2606 01EA                         l2366 031E  
                       l2358 02FC                         l2390 0269                         l2382 0248  
                       l2446 00E2                         l2438 00D1                         l2470 0FD0  
                       l2462 0FBD                         l2454 0FAE                         l2526 0E29  
                       l2518 0E0E                         l2550 0DEE                         l2542 0DD8  
                       l2294 0D28                         l2278 0D82                         l2286 0C17  
                       l2710 04F4                         l2702 04D3                         l3158 012D  
                       l3094 037B                         l3086 0340                         l2560 0C04  
                       l2640 022E                         l2632 021E                         l2624 020E  
                       l2616 01FE                         l2608 01EE                         l2368 0324  
                       l2392 026D                         l2384 0253                         l2376 0232  
                       l2448 00E7                         l2480 0FEB                         l2472 0FD4  
                       l2464 0FC2                         l2456 0FB2                         l2528 0E2A  
                       l2552 0DF3                         l2544 0DDC                         l2536 0DCA  
                       l2296 0D2E                         l2288 0D15                         l2800 065A  
                       l2720 0514                         l2712 04FF                         l2704 04DC  
                       l3096 0380                         l3088 0343                         l2562 0C05  
                       l2634 0222                         l2626 0212                         l2618 0202  
                       l2394 027F                         l2386 025B                         l2378 0233  
                       l2474 0FD8                         l2466 0FC8                         l2482 0FF1  
                       l2458 0FB7                         l2490 0E7B                         l2546 0DE0  
                       l2538 0DD0                         l2554 0DF9                         l2298 0D32  
                       l2810 067D                         l2802 0660                         l2730 055C  
                       l2722 051F                         l2714 0505                         l2706 04E2  
                       l2650 03F5                         l2642 03D7                         l2570 0E40  
                       l3098 0389                         l2900 0175                         l2564 0C07  
                       l2636 0226                         l2628 0216                         l2396 0287  
                       l2388 025E                         l2484 0FF6                         l2476 0FE2  
                       l2468 0FCB                         l2492 0E83                         l2548 0DEA  
                       l2820 06A2                         l2812 0683                         l2804 0669  
                       l2732 0564                         l2724 0520                         l2716 0509  
                       l2740 0582                         l2708 04EA                         l2660 0410  
                       l2652 03FA                         l2572 0E49                         l2580 0E64  
                       l2902 0191                         l2566 0C0A                         l2558 0BFF  
                       l2638 022A                         l2590 01CA                         l2398 028E  
                       l2486 0FFB                         l2478 0FE6                         l2494 0E86  
                       l2830 06BA                         l2822 06A8                         l2814 0689  
                       l2806 066E                         l2742 0587                         l2734 056B  
                       l2726 053A                         l2718 050E                         l2750 05A7  
                       l2670 0434                         l2662 0416                         l2654 0401  
                       l2646 03E8                         l2574 0E52                         l2904 0195  
                       l2592 01CE                         l2496 0E91                         l2832 06C0  
                       l2824 06AF                         l2816 0691                         l2808 0675  
                       l2760 05CC                         l2752 05AC                         l2744 058D  
                       l2736 0574                         l2728 0540                         l2680 0460  
                       l2672 0444                         l2664 041B                         l2656 0407  
                       l2840 06EA                         l2648 03EB                         l2576 0E5B  
                       l2568 0E3B                         l2920 0ED4                         l2912 0EC5  
                       l2906 019A                         l2594 01D2                         l2586 01BE  
                       l2498 0E95                         l2850 070E                         l2842 06F3  
                       l2818 069A                         l2770 05F8                         l2762 05D2  
                       l2754 05B3                         l2746 0598                         l2738 057A  
                       l2690 0487                         l2682 0468                         l2674 044A  
                       l2666 041C                         l2658 040B                         l2930 0EDC  
                       l2922 0ED5                         l2914 0EC8                         l2908 01A0  
                       l2596 01D6                         l2588 01C6                         l2860 076B  
                       l2852 0712                         l2844 06F7                         l2828 06B5  
                       l2780 0614                         l2772 05FE                         l2764 05E2  
                       l2756 05B9                         l2748 05A1                         l2692 0488  
                       l2684 046C                         l2676 0451                         l2668 042E  
                       l2836 06CA                         l2940 0EEE                         l2932 0EDE  
                       l2924 0ED6                         l2916 0ED0                         l2598 01DA  
                       l2870 0782                         l2862 076D                         l2790 0638  
                       l2782 0619                         l2774 0606                         l2766 05E8  
                       l2758 05BA                         l2694 04A2                         l2686 0476  
                       l2838 06E5                         l2678 045A                         l2846 06FD  
                       l2950 0F01                         l2942 0EF3                         l2934 0EDF  
                       l2926 0ED8                         l2918 0ED2                         l2880 07D3  
                       l2872 0784                         l2864 0770                         l2856 0734  
                       l2848 0706                         l2792 063D                         l2784 061F  
                       l2776 060E                         l2768 05EF                         l2696 04A8  
                       l2688 0481                         l2960 0F0B                         l2952 0F02  
                       l2944 0EF7                         l2936 0EE4                         l2928 0ED9  
                       l2890 0153                         l2882 07E8                         l2874 07BF  
                       l2866 0776                         l2858 074D                         l2794 0643  
                       l2786 0628                         l2778 0613                         l2698 04C4  
                       l2970 0C7C                         l2962 0C68                         l2954 0F07  
                       l2946 0EFC                         l2938 0EE9                         l2884 0BE9  
                       l2892 015B                         l2876 07C5                         l2868 077C  
                       l2796 0649                         l2788 0630                         l2972 0C82  
                       l2964 0C6A                         l2956 0F08                         l2948 0EFF  
                       l2886 0BEE                         l2894 0167                         l2878 07CB  
                       l2798 0651                         l2966 0C6E                         l2958 0F09  
                       l2888 0BEF                         l2896 0168                         l2968 0C77  
                       l2898 016C                         STR_1 0B00                         STR_2 1010  
                       STR_3 100A              __end_of_OLED_YX 0CA9                         u2010 0D82  
                       u2011 0D81                         u2020 0D8A                         u2005 0D51  
                       u2021 0D89                         u2110 0084                         u2030 0C2D  
                       u2111 0083                         u2031 0C2C                  ?_OLED_Clear 0070  
                       u2200 0324                         u2120 02B3                         u2040 0D3E  
                       u3000 077C                         u2105 0078                         u2201 0323  
                       u2121 02B2                         u2041 0D3D                         u3001 077B  
                       u2050 0043                         u2210 0329                         u2130 02C4  
                       u3010 0782                         u2051 0042                         u2211 0328  
                       u2131 02C3                         u3011 0781                         u2140 02E3  
                       u2300 0299                         u2220 0237                         u2141 02E2  
                       u2301 0298                         u2221 0236                         u2070 0055  
                       u2230 0248                         u2310 0092                         u3030 07D3  
                       u3110 0C82                         u2071 0054                         u2231 0247  
                       u2311 0091                         u3031 07D2                         u3111 0C81  
                       u2160 02F5                         u2240 025B                         u2400 00E2  
                       u2320 009D                         u3040 07E8                         u2065 0047  
                       u2161 02F4                         u2241 025A                         u2401 00E1  
                       u2321 009C                         u3041 07E7                         u3025 078E  
                       u3105 0C78                         u2090 006E                         u3050 0175  
                       u2330 00AE                         u2410 0FB2                         u2091 006D  
                       u3051 0174                         u2155 02E7                         u2331 00AD  
                       u2411 0FB1                         u3060 0191                         u2180 030E  
                       u2260 026D                         u2420 0FBD                         u2500 0E83  
                       u2085 0056                         u3061 0190                         u2181 030D  
                       u2261 026C                         u2421 0FBC                         u2501 0E82  
                       u3045 07E4                         u3070 01A0                         u2270 027F  
                       u2350 00BE                         u2430 0FC8                         u2095 006A  
                       u3071 019F                         u2175 02F6                         u2271 027E  
                       u2255 025F                         u2351 00BD                         u2431 0FC7  
                       u1720 0C50                         u1800 0CC8                         u2520 0E95  
                       u2600 0E25                         u3080 0C6E                         u3400 039A  
                       u3065 018D                         u1721 0C4F                         u1801 0CC7  
                       u2185 030A                         u2345 00B2                         u2521 0E94  
                       u2601 0E24                         u3081 0C6D                         u3401 0399  
                       u1730 0C66                         u1810 0DA6                         u2290 0294  
                       u2370 00CD                         u2450 0FD8                         u2530 0EA7  
                       u3410 03B2                         u1731 0C65                         u1811 0DA5  
                       u2195 0318                         u2291 0293                         u2275 027B  
                       u2371 00CC                         u2451 0FD7                         u2531 0EA6  
                       u2515 0E87                         u3411 03B1                         u1740 0CD4  
                       u1820 0DBA                         u1900 0F88                         u2460 0FE2  
                       u2620 0E35                         u2700 03F5                         u1741 0CD3  
                       u1821 0DB9                         u1901 0F87                         u2285 0288  
                       u2365 00BF                         u2461 0FE1                         u2445 0FCC  
                       u2621 0E34                         u2605 0E21                         u2701 03F4  
                       u1750 0CD8                         u1830 0DC0                         u1910 0F9C  
                       u2390 00DD                         u2550 0EBC                         u2630 0DD0  
                       u2710 040B                         u1751 0CD7                         u1831 0DBF  
                       u1911 0F9B                         u2391 00DC                         u2375 00C9  
                       u2551 0EBB                         u2535 0EA3                         u2615 0E2B  
                       u2631 0DCF                         u2711 040A                         u3095 0C73  
                       u1760 0CEE                         u1920 0FAB                         u1840 000F  
                       u2480 0FF1                         u2560 0E06                         u2800 0509  
                       u2720 044A                         u1761 0CED                         u1921 0FAA  
                       u1841 000E                         u2385 00D3                         u2481 0FF0  
                       u2465 0FDE                         u2545 0EB0                         u2561 0E05  
                       u2801 0508                         u2721 0449                         u1770 0CFD  
                       u1850 001C                         u2490 0FF6                         u2650 0DE0  
                       u2810 0564                         u2730 0450                         u3370 0380  
                       u1771 0CFC                         u1851 001B                         u2491 0FF5  
                       u2475 0FE7                         u2651 0DDF                         u2811 0563  
                       u2731 044F                         u3427 03CC                         u3371 037F  
                       u1780 0D10                         u1860 002A                         u2580 0E16  
                       u2660 0DEA                         u2900 0650                         u2820 056A  
                       u2740 0467                         u3380 0389                         u1781 0D0F  
                       u1925 0FA7                         u1861 0029                         u2581 0E15  
                       u2661 0DE9                         u2645 0DD4                         u2901 064F  
                       u2821 0569                         u2741 0466                         u3437 0ECB  
                       u3381 0388                         u1790 0CB6                         u1870 0F63  
                       u1950 0C49                         u2910 0668                         u2830 0581  
                       u2750 0476                         u3390 0391                         u1791 0CB5  
                       u1871 0F62                         u1935 0C8B                         u1951 0C48  
                       u3447 01C1                         u2575 0E0A                         u2911 0667  
                       u2831 0580                         u2751 0475                         u3391 0390  
                       u1880 0F6D                         u2680 0DF9                         u2920 0691  
                       u2840 05E8                         u2760 04CC                         u3457 0CDD  
                       u1881 0F6C                         u1945 0C9F                         u2681 0DF8  
                       u2665 0DE6                         u2921 0690                         u2841 05E7  
                       u2761 04CB                         u1890 0F7A                         u2930 0699  
                       u2850 05EE                         u2770 04D2                         u2690 03E7  
                       u3467 0C55                         u1891 0F79                         u2595 0E17  
                       u2675 0DEF                         u2931 0698                         u2851 05ED  
                       u2771 04D1                         u2691 03E6                         u1980 0F5C  
                       u2940 0706                         u2860 0605                         u2780 04E9  
                       u3477 0C0D                         u1981 0F5B                         u1965 0F16  
                       u2941 0705                         u2861 0604                         u2781 04E8  
                       u1990 0D46                         u2950 070E                         u2870 061F  
                       u2790 04F4                         u3487 0169                         u1975 0F38  
                       u1991 0D45                         u2951 070D                         u2871 061E  
                       u2791 04F3                         u3497 0192                         u2970 0733  
                       u2890 0649                         u2971 0732                         u2891 0648  
                       u2965 0717                         u2885 063F                         u2985 073A  
                       _SCS0 04C8                         u2995 0753                         _SCS1 04C9  
          OLED_Printf_Line@i 00BC            OLED_Printf_Line@p 00B3                         _main 033D  
           __end_of_I2C_Init 0C13                         fsr0h 0005                         fsr1h 0007  
                       indf0 0000                         fsr0l 0004                         indf1 0001  
                       fsr1l 0006                         btemp 007E             __end_of_I2C_Stop 0CCC  
           __end_of_ADC_Init 0BF3                         start 0002             ??_OLED_WriteData 0079  
            __end_of___aldiv 033D              __end_of___almod 02AD                        ?_main 0070  
            __end_of___awdiv 00EC              __end_of___awmod 1000              __end_of___lldiv 008D  
            ___awdiv@divisor 0070              __end_of___llmod 0EC5                        _IRCF0 04CB  
                      _IRCF1 04CC                        _IRCF2 04CD                        _IRCF3 04CE  
            __end_of___lwdiv 0E3A              __end_of___lwmod 0DFE              ___awdiv@counter 0075  
         OLED_Printf_Line@ch 00BB           OLED_Printf_Line@ap 00C8            ??_OLED_UpdateLine 0020  
          __end_of_I2C_Start 0D15                  _BatteryIcon 1000                 _I2C_WaitIdle 0CCC  
       I2C_WaitIF@timeout_ms 0070                        status 0003         OLED_SetOrientation@o 0079  
                      wtemp0 007E                 ?_internal_32 0070              __initialization 07EE  
               __end_of_main 03D5             __end_of_OledFont 0B00                       ??_main 00CC  
                  ??_OLED_YX 0078             ___llmod@dividend 0074                       _ADRESH 009C  
                     _ADRESL 009B             ___awdiv@dividend 0072                 ??_I2C_WaitIF 0072  
          __end_of_OLED_Init 0232                ?_OLED_Command 0070                       _SPLLEN 04CF  
                     _SSPADD 0212                       _SSPBUF 0211            ?_OLED_Printf_Line 0026  
         ??_OLED_Printf_Line 002A                    ??___aldiv 0078                    ??___almod 0078  
    ADC_ConfigurePin@channel 0072                       ___wmul 0C68                    ??___awdiv 0074  
                  ??___awmod 0074                    ??___lldiv 0078                    ??___llmod 0078  
        OLED_Printf_Line@col 00B2          OLED_Printf_Line@buf 004C                    ??___lwdiv 0074  
        OLED_Printf_Line@fmt 0026          OLED_Printf_Line@dst 00CB                    ??___lwmod 0074  
        OLED_Printf_Line@val 00C5          OLED_Printf_Line@src 00C9             __end_of_initMain 0F10  
        OLED_Printf_Line@str 00B1                       _memcpy 0D15                       _memset 0C2E  
                OLED_Clear@p 007C             ___awdiv@quotient 0077              ___awmod@divisor 0070  
            ___awmod@counter 0075                  OLED_YX@page 0079           __end_of_I2C_WaitIF 0C68  
                     _strcmp 0D6B                       _strcpy 0C13                    ?_I2C_Init 0070  
                  ?_I2C_Stop 0070                    ?_ADC_Init 0070     __end_of_ADC_ConfigurePin 0151  
             ??_OLED_Command 0075              I2C_WriteByte@st 0074      __end_of__initialization 07FD  
             __pcstackCOMMON 0070                _I2C_WriteByte 0D98                   ??_I2C_Init 0070  
                 ??_I2C_Stop 0073                   ??_ADC_Init 0070  __end_of_OLED_SetOrientation 0E7B  
               ??_OLED_Clear 0020                   __pbssBANK1 00D2                _SSD1306_CtrlW 0BD7  
                 __pmaintext 033D               ?_I2C_WriteByte 0070            _ADC_Read_Averaged 0151  
                    ?___wmul 0070           ?_ADC_Read_Averaged 0020                      ?_memcpy 0070  
                    ?_memset 0070                   I2C_Stop@st 0073              _OLED_UpdateLine 0D3F  
         __end_of_OLED_Clear 0F5D                      ?_strcmp 0070                      ?_strcpy 0070  
    OLED_Printf_Line@val_350 00B4      OLED_Printf_Line@val_353 00C1      OLED_Printf_Line@val_356 00B8  
    OLED_Printf_Line@val_359 006E          ??_ADC_Read_Averaged 0022                      _OLED_YX 0C87  
                    _PPSLOCK 0E0F                      _SSPCON2 0216       I2C_WaitIdle@timeout_ms 0070  
                  ?_initMain 0070                    _I2C_Start 0CF0               ?_SSD1306_CtrlW 0070  
  __end_of_ADC_Read_Averaged 01BE                      ___aldiv 02AD                      ___almod 0232  
                    ___awdiv 008D                      ___awmod 0FAD                      ___lldiv 0033  
                    ___llmod 0E7B            ??_I2C_ClearErrors 0070                      ___lwdiv 0DFE  
                    ___lwmod 0DCA         __end_of_OLED_Command 0033                      __ptext1 0EC5  
                    __ptext2 0BE0                      __ptext3 00EC                      __ptext4 0C68  
                    __ptext5 0E3A                      __ptext6 03D5                      __ptext7 0C13  
                    __ptext8 0D6B                      __ptext9 0D15         OLED_Printf_Line@line 00C7  
       OLED_Printf_Line@temp 00A0             ___awmod@dividend 0072             ___aldiv@dividend 0074  
                    main@adc 00CE                      clrloop0 0BF4         end_of_initialization 07FD  
                    memcpy@d 0076                      memcpy@n 0074                      memcpy@s 0078  
                 ??_initMain 0073                      memset@c 0072                      memset@n 0074  
                    memset@p 0076                    _OLED_Init 01BE                   ?_I2C_Start 0070  
          OLED_WriteData@len 0077              ??_I2C_WriteByte 0073              ___lldiv@divisor 0070  
            ___lldiv@counter 007D      __end_of_OLED_UpdateLine 0D6B             ___aldiv@quotient 0022  
                    strcmp@l 0073                      strcmp@r 0070                      strcpy@d 0075  
        OLED_UpdateLine@page 007C                    _TRISAbits 008C                    _TRISBbits 008D  
                  _TRISCbits 008E              OLED_YX@col_char 0077                    _RXPPSbits 0E24  
          ?_ADC_ConfigurePin 0070              OLED_Command@cmd 0075                   main@isDark 00D4  
            ??_SSD1306_CtrlW 0070           ??_ADC_ConfigurePin 0070                   ?_OLED_Init 0070  
             __end_of___wmul 0C87               __end_of_memcpy 0D3F               __end_of_memset 0C4A  
             __end_of_strcmp 0D98               __end_of_strcpy 0C2E          start_initialization 07EE  
            ___llmod@divisor 0070                  ??_I2C_Start 0073              ___llmod@counter 0079  
   ADC_Read_Averaged@channel 0026             ?_OLED_UpdateLine 0070                     ??___wmul 0074  
                 OLED_YX@col 007A     ADC_Read_Averaged@samples 0020                     ??_memcpy 0076  
                   ??_memset 0076                   memset@dest 0070                     ??_strcmp 0072  
                   ??_strcpy 0073                  __pbssBIGRAM 24F0                    ___latbits 0003  
                   ?_OLED_YX 0077                __pcstackBANK0 0020                __pcstackBANK1 00A0  
              ?_I2C_WaitIdle 0070                 _OLED_Command 0005              _I2C_ClearErrors 0BD9  
              ??_internal_32 0070                  ??_OLED_Init 007D                _screen_buffer 24F0  
           ___lwdiv@dividend 0072                     ?___aldiv 0070                     ?___almod 0070  
                   ?___awdiv 0070                     ?___awmod 0070                     ?___lldiv 0070  
                   ?___llmod 0070                     ?___lwdiv 0070                     ?___lwmod 0070  
     OLED_Printf_Line@nibble 00BA             _OLED_Printf_Line 03D5             ___almod@dividend 0074  
                I2C_Start@st 0073                     _I2C_Init 0BFF                     _I2C_Stop 0CA9  
                   _ADC_Init 0BE9               _OLED_WriteData 0F5D             ___lwdiv@quotient 0075  
             ??_I2C_WaitIdle 0072              ___aldiv@divisor 0070              ___aldiv@counter 0020  
             ___wmul@product 0074                    clear_ram0 0BF3     OLED_Printf_Line@temp_351 0036  
   OLED_Printf_Line@temp_360 00AC     OLED_Printf_Line@temp_354 0041     OLED_Printf_Line@temp_357 00A6  
           OLED_WriteData@st 007B                     _PIR1bits 0011                     _PIR2bits 0012  
        __end_of_internal_32 0BE9                   _ADCON0bits 009D                   _ADCON1bits 009E  
          ___wmul@multiplier 0070       __end_of_OLED_WriteData 0FAD               OLED_Command@st 0076  
    __end_of_I2C_ClearErrors 0BE0                   _I2C_WaitIF 0C4A                     _OledFont 0800  
                  memcpy@tmp 007A        __end_of_I2C_WriteByte 0DCA                   _ANSELAbits 018C  
                 _ANSELBbits 018D                   _ANSELCbits 018E              ?_OLED_WriteData 0075  
      OLED_Printf_Line@i_352 00BD        OLED_Printf_Line@i_361 00C0        OLED_Printf_Line@i_355 00BE  
      OLED_Printf_Line@i_358 00BF                     _main$731 00D0              ___lwdiv@divisor 0070  
            ___lwdiv@counter 0077                     __ptext10 0DCA                     __ptext11 0DFE  
                   __ptext20 0C2E                     __ptext12 0E7B                     __ptext21 0C87  
                   __ptext13 0FAD                     __ptext30 0BFF                     __ptext22 0005  
                   __ptext14 008D                     __ptext31 0BD9                     __ptext23 0F5D  
                   __ptext15 0232                     __ptext32 0151                     __ptext24 0BD7  
                   __ptext16 02AD                     __ptext33 0033                     __ptext25 0D98  
                   __ptext17 0D3F                     __ptext34 0BE9                     __ptext26 0CA9  
                   __ptext18 01BE                     __ptext27 0CF0                     __ptext19 0F10  
                   __ptext28 0CCC                     __ptext29 0C4A              ___almod@divisor 0070  
            ___almod@counter 0079                   strcpy@dest 0070                     _initMain 0EC5  
              _SSPDATPPSbits 0E21                  _internal_32 0BE0        __end_of_SSD1306_CtrlW 0BD9  
                 _RB2PPSbits 0E9A              OLED_WriteData@i 0079                   _RC4PPSbits 0EA4  
              _SSPCLKPPSbits 0E20                   _RC5PPSbits 0EA5         __end_of_I2C_WaitIdle 0CF0  
                   main@filt 00D2          _OLED_SetOrientation 0E3A                     memcpy@d1 0070  
                   memcpy@s1 0072             ?_I2C_ClearErrors 0070                  ?_I2C_WaitIF 0070  
                 _OLED_Clear 0F10         _OLED_Printf_Line$363 006C           OLED_WriteData@data 0075  
   __end_of_OLED_Printf_Line 07EE             ___lwmod@dividend 0072         ?_OLED_SetOrientation 0070  
           ___lldiv@dividend 0074                    strcpy@src 0072                  _PPSLOCKbits 0E0F  
              __pstringtext1 1000                __pstringtext2 0800                __pstringtext3 100A  
              __pstringtext4 1010                __pstringtext5 0000             ___lldiv@quotient 0079  
            ___lwmod@divisor 0070              ___lwmod@counter 0075                 ___aldiv@sign 0021  
                _SSPCON1bits 0215                  _SSPCON2bits 0216         ADC_Read_Averaged@sum 0027  
               ___almod@sign 007A        ??_OLED_SetOrientation 0077            I2C_WriteByte@data 0073  
                 _SSPCONbits 0215           ADC_Read_Averaged@i 002B          __end_of_BatteryIcon 100A  
