

Microchip MPLAB XC8 Assembler V2.46 build 20240104201356 
                                                                                               Thu Dec 25 21:43:59 2025

Microchip MPLAB XC8 C Compiler v2.46 (Free license) build 20240104201356 Og1 
     1                           	processor	16F1718
     2                           	pagewidth 120
     3                           	opt	flic
     4                           	psect	idataBANK0,global,class=CODE,delta=2,noexec
     5                           	psect	cinit,global,class=CODE,merge=1,delta=2
     6                           	psect	dataBANK0,global,class=BANK0,space=1,delta=1,noexec
     7                           	psect	cstackCOMMON,global,class=COMMON,space=1,delta=1,noexec
     8                           	psect	cstackBANK0,global,class=BANK0,space=1,delta=1,noexec
     9                           	psect	maintext,global,class=CODE,merge=1,split=1,delta=2
    10                           	psect	text1,local,class=CODE,merge=1,delta=2
    11                           	psect	text2,local,class=CODE,merge=1,delta=2
    12                           	psect	text3,local,class=CODE,merge=1,delta=2
    13                           	psect	text4,local,class=CODE,merge=1,delta=2
    14                           	psect	text5,local,class=CODE,merge=1,delta=2
    15                           	psect	text6,local,class=CODE,merge=1,delta=2
    16                           	psect	text7,local,class=CODE,merge=1,delta=2
    17                           	psect	text8,local,class=CODE,merge=1,delta=2,group=1
    18                           	psect	text9,local,class=CODE,merge=1,delta=2,group=1
    19                           	psect	config,global,abs,ovrld,class=CONFIG,space=4,delta=2,noexec
    20                           	dabs	1,0x7E,2
    21     0000                     
    22                           ; Generated 07/09/2023 GMT
    23                           ; 
    24                           ; Copyright © 2023, Microchip Technology Inc. and its subsidiaries ("Microchip")
    25                           ; All rights reserved.
    26                           ; 
    27                           ; This software is developed by Microchip Technology Inc. and its subsidiaries ("Microch
      +                          ip").
    28                           ; 
    29                           ; Redistribution and use in source and binary forms, with or without modification, are
    30                           ; permitted provided that the following conditions are met:
    31                           ; 
    32                           ;     1. Redistributions of source code must retain the above copyright notice, this lis
      +                          t of
    33                           ;        conditions and the following disclaimer.
    34                           ; 
    35                           ;     2. Redistributions in binary form must reproduce the above copyright notice, this 
      +                          list
    36                           ;        of conditions and the following disclaimer in the documentation and/or other
    37                           ;        materials provided with the distribution. Publication is not required when
    38                           ;        this file is used in an embedded application.
    39                           ; 
    40                           ;     3. Microchip's name may not be used to endorse or promote products derived from th
      +                          is
    41                           ;        software without specific prior written permission.
    42                           ; 
    43                           ; THIS SOFTWARE IS PROVIDED BY MICROCHIP "AS IS" AND ANY EXPRESS OR IMPLIED WARRANTIES,
    44                           ; INCLUDING, BUT NOT LIMITED TO, THE IMPLIED WARRANTIES OF MERCHANTABILITY AND FITNESS F
      +                          OR
    45                           ; PURPOSE ARE DISCLAIMED.  IN NO EVENT SHALL MICROCHIP BE LIABLE FOR ANY DIRECT, INDIREC
      +                          T,
    46                           ; INCIDENTAL, SPECIAL, EXEMPLARY, OR CONSEQUENTIAL DAMAGES (INCLUDING BUT NOT LIMITED TO
    47                           ; PROCUREMENT OF SUBSTITUTE GOODS OR SERVICES; LOSS OF USE, DATA OR PROFITS; OR BUSINESS
    48                           ; INTERRUPTION) HOWSOEVER CAUSED AND ON ANY THEORY OF LIABILITY, WHETHER IN CONTRACT, ST
      +                          RICT
    49                           ; LIABILITY, OR TORT (INCLUDING NEGLIGENCE OR OTHERWISE) ARISING IN ANY WAY OUT OF THE U
      +                          SE OF
    50                           ; THIS SOFTWARE, EVEN IF ADVISED OF THE POSSIBILITY OF SUCH DAMAGE.
    51                           ; 
    52                           ; 
    53                           ; Code-generator required, PIC16F1718 Definitions
    54                           ; 
    55                           ; SFR Addresses
    56     0000                     	;# 
    57     0001                     	;# 
    58     0002                     	;# 
    59     0003                     	;# 
    60     0004                     	;# 
    61     0005                     	;# 
    62     0006                     	;# 
    63     0007                     	;# 
    64     0008                     	;# 
    65     0009                     	;# 
    66     000A                     	;# 
    67     000B                     	;# 
    68     000C                     	;# 
    69     000D                     	;# 
    70     000E                     	;# 
    71     0010                     	;# 
    72     0011                     	;# 
    73     0012                     	;# 
    74     0013                     	;# 
    75     0015                     	;# 
    76     0016                     	;# 
    77     0016                     	;# 
    78     0017                     	;# 
    79     0018                     	;# 
    80     0019                     	;# 
    81     001A                     	;# 
    82     001B                     	;# 
    83     001C                     	;# 
    84     008C                     	;# 
    85     008D                     	;# 
    86     008E                     	;# 
    87     0090                     	;# 
    88     0091                     	;# 
    89     0092                     	;# 
    90     0093                     	;# 
    91     0095                     	;# 
    92     0096                     	;# 
    93     0097                     	;# 
    94     0098                     	;# 
    95     0099                     	;# 
    96     009A                     	;# 
    97     009B                     	;# 
    98     009B                     	;# 
    99     009C                     	;# 
   100     009D                     	;# 
   101     009E                     	;# 
   102     009F                     	;# 
   103     010C                     	;# 
   104     010D                     	;# 
   105     010E                     	;# 
   106     0111                     	;# 
   107     0112                     	;# 
   108     0113                     	;# 
   109     0114                     	;# 
   110     0115                     	;# 
   111     0116                     	;# 
   112     0117                     	;# 
   113     0118                     	;# 
   114     0119                     	;# 
   115     011A                     	;# 
   116     011B                     	;# 
   117     011B                     	;# 
   118     011C                     	;# 
   119     018C                     	;# 
   120     018D                     	;# 
   121     018E                     	;# 
   122     0191                     	;# 
   123     0191                     	;# 
   124     0192                     	;# 
   125     0193                     	;# 
   126     0193                     	;# 
   127     0194                     	;# 
   128     0195                     	;# 
   129     0196                     	;# 
   130     0197                     	;# 
   131     0199                     	;# 
   132     0199                     	;# 
   133     0199                     	;# 
   134     019A                     	;# 
   135     019A                     	;# 
   136     019A                     	;# 
   137     019B                     	;# 
   138     019B                     	;# 
   139     019B                     	;# 
   140     019B                     	;# 
   141     019B                     	;# 
   142     019C                     	;# 
   143     019C                     	;# 
   144     019C                     	;# 
   145     019D                     	;# 
   146     019D                     	;# 
   147     019D                     	;# 
   148     019E                     	;# 
   149     019E                     	;# 
   150     019E                     	;# 
   151     019F                     	;# 
   152     019F                     	;# 
   153     019F                     	;# 
   154     019F                     	;# 
   155     019F                     	;# 
   156     020C                     	;# 
   157     020D                     	;# 
   158     020E                     	;# 
   159     0210                     	;# 
   160     0211                     	;# 
   161     0211                     	;# 
   162     0212                     	;# 
   163     0212                     	;# 
   164     0213                     	;# 
   165     0213                     	;# 
   166     0214                     	;# 
   167     0214                     	;# 
   168     0215                     	;# 
   169     0215                     	;# 
   170     0215                     	;# 
   171     0215                     	;# 
   172     0216                     	;# 
   173     0216                     	;# 
   174     0217                     	;# 
   175     0217                     	;# 
   176     028C                     	;# 
   177     028D                     	;# 
   178     028E                     	;# 
   179     0291                     	;# 
   180     0291                     	;# 
   181     0292                     	;# 
   182     0293                     	;# 
   183     0293                     	;# 
   184     0298                     	;# 
   185     0298                     	;# 
   186     0299                     	;# 
   187     029A                     	;# 
   188     029A                     	;# 
   189     029E                     	;# 
   190     030C                     	;# 
   191     030D                     	;# 
   192     030E                     	;# 
   193     038C                     	;# 
   194     038D                     	;# 
   195     038E                     	;# 
   196     0390                     	;# 
   197     0391                     	;# 
   198     0392                     	;# 
   199     0393                     	;# 
   200     0394                     	;# 
   201     0395                     	;# 
   202     0396                     	;# 
   203     0397                     	;# 
   204     0398                     	;# 
   205     0399                     	;# 
   206     039D                     	;# 
   207     039E                     	;# 
   208     039F                     	;# 
   209     0415                     	;# 
   210     0416                     	;# 
   211     0417                     	;# 
   212     041C                     	;# 
   213     041D                     	;# 
   214     041E                     	;# 
   215     0498                     	;# 
   216     0498                     	;# 
   217     0499                     	;# 
   218     049A                     	;# 
   219     049B                     	;# 
   220     049B                     	;# 
   221     049C                     	;# 
   222     049D                     	;# 
   223     049E                     	;# 
   224     049F                     	;# 
   225     0511                     	;# 
   226     0515                     	;# 
   227     0617                     	;# 
   228     0618                     	;# 
   229     0619                     	;# 
   230     0619                     	;# 
   231     061A                     	;# 
   232     061B                     	;# 
   233     061C                     	;# 
   234     061C                     	;# 
   235     0691                     	;# 
   236     0692                     	;# 
   237     0693                     	;# 
   238     0694                     	;# 
   239     0695                     	;# 
   240     0696                     	;# 
   241     0697                     	;# 
   242     0698                     	;# 
   243     0699                     	;# 
   244     069A                     	;# 
   245     069B                     	;# 
   246     069C                     	;# 
   247     069D                     	;# 
   248     069E                     	;# 
   249     069F                     	;# 
   250     0E0F                     	;# 
   251     0E10                     	;# 
   252     0E11                     	;# 
   253     0E12                     	;# 
   254     0E13                     	;# 
   255     0E14                     	;# 
   256     0E15                     	;# 
   257     0E17                     	;# 
   258     0E20                     	;# 
   259     0E21                     	;# 
   260     0E22                     	;# 
   261     0E24                     	;# 
   262     0E25                     	;# 
   263     0E28                     	;# 
   264     0E29                     	;# 
   265     0E2A                     	;# 
   266     0E2B                     	;# 
   267     0E90                     	;# 
   268     0E91                     	;# 
   269     0E92                     	;# 
   270     0E93                     	;# 
   271     0E94                     	;# 
   272     0E95                     	;# 
   273     0E96                     	;# 
   274     0E97                     	;# 
   275     0E98                     	;# 
   276     0E99                     	;# 
   277     0E9A                     	;# 
   278     0E9B                     	;# 
   279     0E9C                     	;# 
   280     0E9D                     	;# 
   281     0E9E                     	;# 
   282     0E9F                     	;# 
   283     0EA0                     	;# 
   284     0EA1                     	;# 
   285     0EA2                     	;# 
   286     0EA3                     	;# 
   287     0EA4                     	;# 
   288     0EA5                     	;# 
   289     0EA6                     	;# 
   290     0EA7                     	;# 
   291     0F0F                     	;# 
   292     0F10                     	;# 
   293     0F11                     	;# 
   294     0F12                     	;# 
   295     0F13                     	;# 
   296     0F14                     	;# 
   297     0F15                     	;# 
   298     0F16                     	;# 
   299     0F17                     	;# 
   300     0F18                     	;# 
   301     0F19                     	;# 
   302     0F1A                     	;# 
   303     0F1B                     	;# 
   304     0F1C                     	;# 
   305     0F1D                     	;# 
   306     0F1E                     	;# 
   307     0F1F                     	;# 
   308     0F20                     	;# 
   309     0F21                     	;# 
   310     0F22                     	;# 
   311     0F23                     	;# 
   312     0F24                     	;# 
   313     0F25                     	;# 
   314     0F26                     	;# 
   315     0F27                     	;# 
   316     0F28                     	;# 
   317     0F29                     	;# 
   318     0F2A                     	;# 
   319     0F2B                     	;# 
   320     0F2C                     	;# 
   321     0F2D                     	;# 
   322     0F2E                     	;# 
   323     0F2F                     	;# 
   324     0F30                     	;# 
   325     0F31                     	;# 
   326     0F32                     	;# 
   327     0F33                     	;# 
   328     0F34                     	;# 
   329     0F35                     	;# 
   330     0F36                     	;# 
   331     0F37                     	;# 
   332     0FE4                     	;# 
   333     0FE5                     	;# 
   334     0FE6                     	;# 
   335     0FE7                     	;# 
   336     0FE8                     	;# 
   337     0FE9                     	;# 
   338     0FEA                     	;# 
   339     0FEB                     	;# 
   340     0FED                     	;# 
   341     0FEE                     	;# 
   342     0FEF                     	;# 
   343     0000                     	;# 
   344     0001                     	;# 
   345     0002                     	;# 
   346     0003                     	;# 
   347     0004                     	;# 
   348     0005                     	;# 
   349     0006                     	;# 
   350     0007                     	;# 
   351     0008                     	;# 
   352     0009                     	;# 
   353     000A                     	;# 
   354     000B                     	;# 
   355     000C                     	;# 
   356     000D                     	;# 
   357     000E                     	;# 
   358     0010                     	;# 
   359     0011                     	;# 
   360     0012                     	;# 
   361     0013                     	;# 
   362     0015                     	;# 
   363     0016                     	;# 
   364     0016                     	;# 
   365     0017                     	;# 
   366     0018                     	;# 
   367     0019                     	;# 
   368     001A                     	;# 
   369     001B                     	;# 
   370     001C                     	;# 
   371     008C                     	;# 
   372     008D                     	;# 
   373     008E                     	;# 
   374     0090                     	;# 
   375     0091                     	;# 
   376     0092                     	;# 
   377     0093                     	;# 
   378     0095                     	;# 
   379     0096                     	;# 
   380     0097                     	;# 
   381     0098                     	;# 
   382     0099                     	;# 
   383     009A                     	;# 
   384     009B                     	;# 
   385     009B                     	;# 
   386     009C                     	;# 
   387     009D                     	;# 
   388     009E                     	;# 
   389     009F                     	;# 
   390     010C                     	;# 
   391     010D                     	;# 
   392     010E                     	;# 
   393     0111                     	;# 
   394     0112                     	;# 
   395     0113                     	;# 
   396     0114                     	;# 
   397     0115                     	;# 
   398     0116                     	;# 
   399     0117                     	;# 
   400     0118                     	;# 
   401     0119                     	;# 
   402     011A                     	;# 
   403     011B                     	;# 
   404     011B                     	;# 
   405     011C                     	;# 
   406     018C                     	;# 
   407     018D                     	;# 
   408     018E                     	;# 
   409     0191                     	;# 
   410     0191                     	;# 
   411     0192                     	;# 
   412     0193                     	;# 
   413     0193                     	;# 
   414     0194                     	;# 
   415     0195                     	;# 
   416     0196                     	;# 
   417     0197                     	;# 
   418     0199                     	;# 
   419     0199                     	;# 
   420     0199                     	;# 
   421     019A                     	;# 
   422     019A                     	;# 
   423     019A                     	;# 
   424     019B                     	;# 
   425     019B                     	;# 
   426     019B                     	;# 
   427     019B                     	;# 
   428     019B                     	;# 
   429     019C                     	;# 
   430     019C                     	;# 
   431     019C                     	;# 
   432     019D                     	;# 
   433     019D                     	;# 
   434     019D                     	;# 
   435     019E                     	;# 
   436     019E                     	;# 
   437     019E                     	;# 
   438     019F                     	;# 
   439     019F                     	;# 
   440     019F                     	;# 
   441     019F                     	;# 
   442     019F                     	;# 
   443     020C                     	;# 
   444     020D                     	;# 
   445     020E                     	;# 
   446     0210                     	;# 
   447     0211                     	;# 
   448     0211                     	;# 
   449     0212                     	;# 
   450     0212                     	;# 
   451     0213                     	;# 
   452     0213                     	;# 
   453     0214                     	;# 
   454     0214                     	;# 
   455     0215                     	;# 
   456     0215                     	;# 
   457     0215                     	;# 
   458     0215                     	;# 
   459     0216                     	;# 
   460     0216                     	;# 
   461     0217                     	;# 
   462     0217                     	;# 
   463     028C                     	;# 
   464     028D                     	;# 
   465     028E                     	;# 
   466     0291                     	;# 
   467     0291                     	;# 
   468     0292                     	;# 
   469     0293                     	;# 
   470     0293                     	;# 
   471     0298                     	;# 
   472     0298                     	;# 
   473     0299                     	;# 
   474     029A                     	;# 
   475     029A                     	;# 
   476     029E                     	;# 
   477     030C                     	;# 
   478     030D                     	;# 
   479     030E                     	;# 
   480     038C                     	;# 
   481     038D                     	;# 
   482     038E                     	;# 
   483     0390                     	;# 
   484     0391                     	;# 
   485     0392                     	;# 
   486     0393                     	;# 
   487     0394                     	;# 
   488     0395                     	;# 
   489     0396                     	;# 
   490     0397                     	;# 
   491     0398                     	;# 
   492     0399                     	;# 
   493     039D                     	;# 
   494     039E                     	;# 
   495     039F                     	;# 
   496     0415                     	;# 
   497     0416                     	;# 
   498     0417                     	;# 
   499     041C                     	;# 
   500     041D                     	;# 
   501     041E                     	;# 
   502     0498                     	;# 
   503     0498                     	;# 
   504     0499                     	;# 
   505     049A                     	;# 
   506     049B                     	;# 
   507     049B                     	;# 
   508     049C                     	;# 
   509     049D                     	;# 
   510     049E                     	;# 
   511     049F                     	;# 
   512     0511                     	;# 
   513     0515                     	;# 
   514     0617                     	;# 
   515     0618                     	;# 
   516     0619                     	;# 
   517     0619                     	;# 
   518     061A                     	;# 
   519     061B                     	;# 
   520     061C                     	;# 
   521     061C                     	;# 
   522     0691                     	;# 
   523     0692                     	;# 
   524     0693                     	;# 
   525     0694                     	;# 
   526     0695                     	;# 
   527     0696                     	;# 
   528     0697                     	;# 
   529     0698                     	;# 
   530     0699                     	;# 
   531     069A                     	;# 
   532     069B                     	;# 
   533     069C                     	;# 
   534     069D                     	;# 
   535     069E                     	;# 
   536     069F                     	;# 
   537     0E0F                     	;# 
   538     0E10                     	;# 
   539     0E11                     	;# 
   540     0E12                     	;# 
   541     0E13                     	;# 
   542     0E14                     	;# 
   543     0E15                     	;# 
   544     0E17                     	;# 
   545     0E20                     	;# 
   546     0E21                     	;# 
   547     0E22                     	;# 
   548     0E24                     	;# 
   549     0E25                     	;# 
   550     0E28                     	;# 
   551     0E29                     	;# 
   552     0E2A                     	;# 
   553     0E2B                     	;# 
   554     0E90                     	;# 
   555     0E91                     	;# 
   556     0E92                     	;# 
   557     0E93                     	;# 
   558     0E94                     	;# 
   559     0E95                     	;# 
   560     0E96                     	;# 
   561     0E97                     	;# 
   562     0E98                     	;# 
   563     0E99                     	;# 
   564     0E9A                     	;# 
   565     0E9B                     	;# 
   566     0E9C                     	;# 
   567     0E9D                     	;# 
   568     0E9E                     	;# 
   569     0E9F                     	;# 
   570     0EA0                     	;# 
   571     0EA1                     	;# 
   572     0EA2                     	;# 
   573     0EA3                     	;# 
   574     0EA4                     	;# 
   575     0EA5                     	;# 
   576     0EA6                     	;# 
   577     0EA7                     	;# 
   578     0F0F                     	;# 
   579     0F10                     	;# 
   580     0F11                     	;# 
   581     0F12                     	;# 
   582     0F13                     	;# 
   583     0F14                     	;# 
   584     0F15                     	;# 
   585     0F16                     	;# 
   586     0F17                     	;# 
   587     0F18                     	;# 
   588     0F19                     	;# 
   589     0F1A                     	;# 
   590     0F1B                     	;# 
   591     0F1C                     	;# 
   592     0F1D                     	;# 
   593     0F1E                     	;# 
   594     0F1F                     	;# 
   595     0F20                     	;# 
   596     0F21                     	;# 
   597     0F22                     	;# 
   598     0F23                     	;# 
   599     0F24                     	;# 
   600     0F25                     	;# 
   601     0F26                     	;# 
   602     0F27                     	;# 
   603     0F28                     	;# 
   604     0F29                     	;# 
   605     0F2A                     	;# 
   606     0F2B                     	;# 
   607     0F2C                     	;# 
   608     0F2D                     	;# 
   609     0F2E                     	;# 
   610     0F2F                     	;# 
   611     0F30                     	;# 
   612     0F31                     	;# 
   613     0F32                     	;# 
   614     0F33                     	;# 
   615     0F34                     	;# 
   616     0F35                     	;# 
   617     0F36                     	;# 
   618     0F37                     	;# 
   619     0FE4                     	;# 
   620     0FE5                     	;# 
   621     0FE6                     	;# 
   622     0FE7                     	;# 
   623     0FE8                     	;# 
   624     0FE9                     	;# 
   625     0FEA                     	;# 
   626     0FEB                     	;# 
   627     0FED                     	;# 
   628     0FEE                     	;# 
   629     0FEF                     	;# 
   630     0000                     	;# 
   631     0001                     	;# 
   632     0002                     	;# 
   633     0003                     	;# 
   634     0004                     	;# 
   635     0005                     	;# 
   636     0006                     	;# 
   637     0007                     	;# 
   638     0008                     	;# 
   639     0009                     	;# 
   640     000A                     	;# 
   641     000B                     	;# 
   642     000C                     	;# 
   643     000D                     	;# 
   644     000E                     	;# 
   645     0010                     	;# 
   646     0011                     	;# 
   647     0012                     	;# 
   648     0013                     	;# 
   649     0015                     	;# 
   650     0016                     	;# 
   651     0016                     	;# 
   652     0017                     	;# 
   653     0018                     	;# 
   654     0019                     	;# 
   655     001A                     	;# 
   656     001B                     	;# 
   657     001C                     	;# 
   658     008C                     	;# 
   659     008D                     	;# 
   660     008E                     	;# 
   661     0090                     	;# 
   662     0091                     	;# 
   663     0092                     	;# 
   664     0093                     	;# 
   665     0095                     	;# 
   666     0096                     	;# 
   667     0097                     	;# 
   668     0098                     	;# 
   669     0099                     	;# 
   670     009A                     	;# 
   671     009B                     	;# 
   672     009B                     	;# 
   673     009C                     	;# 
   674     009D                     	;# 
   675     009E                     	;# 
   676     009F                     	;# 
   677     010C                     	;# 
   678     010D                     	;# 
   679     010E                     	;# 
   680     0111                     	;# 
   681     0112                     	;# 
   682     0113                     	;# 
   683     0114                     	;# 
   684     0115                     	;# 
   685     0116                     	;# 
   686     0117                     	;# 
   687     0118                     	;# 
   688     0119                     	;# 
   689     011A                     	;# 
   690     011B                     	;# 
   691     011B                     	;# 
   692     011C                     	;# 
   693     018C                     	;# 
   694     018D                     	;# 
   695     018E                     	;# 
   696     0191                     	;# 
   697     0191                     	;# 
   698     0192                     	;# 
   699     0193                     	;# 
   700     0193                     	;# 
   701     0194                     	;# 
   702     0195                     	;# 
   703     0196                     	;# 
   704     0197                     	;# 
   705     0199                     	;# 
   706     0199                     	;# 
   707     0199                     	;# 
   708     019A                     	;# 
   709     019A                     	;# 
   710     019A                     	;# 
   711     019B                     	;# 
   712     019B                     	;# 
   713     019B                     	;# 
   714     019B                     	;# 
   715     019B                     	;# 
   716     019C                     	;# 
   717     019C                     	;# 
   718     019C                     	;# 
   719     019D                     	;# 
   720     019D                     	;# 
   721     019D                     	;# 
   722     019E                     	;# 
   723     019E                     	;# 
   724     019E                     	;# 
   725     019F                     	;# 
   726     019F                     	;# 
   727     019F                     	;# 
   728     019F                     	;# 
   729     019F                     	;# 
   730     020C                     	;# 
   731     020D                     	;# 
   732     020E                     	;# 
   733     0210                     	;# 
   734     0211                     	;# 
   735     0211                     	;# 
   736     0212                     	;# 
   737     0212                     	;# 
   738     0213                     	;# 
   739     0213                     	;# 
   740     0214                     	;# 
   741     0214                     	;# 
   742     0215                     	;# 
   743     0215                     	;# 
   744     0215                     	;# 
   745     0215                     	;# 
   746     0216                     	;# 
   747     0216                     	;# 
   748     0217                     	;# 
   749     0217                     	;# 
   750     028C                     	;# 
   751     028D                     	;# 
   752     028E                     	;# 
   753     0291                     	;# 
   754     0291                     	;# 
   755     0292                     	;# 
   756     0293                     	;# 
   757     0293                     	;# 
   758     0298                     	;# 
   759     0298                     	;# 
   760     0299                     	;# 
   761     029A                     	;# 
   762     029A                     	;# 
   763     029E                     	;# 
   764     030C                     	;# 
   765     030D                     	;# 
   766     030E                     	;# 
   767     038C                     	;# 
   768     038D                     	;# 
   769     038E                     	;# 
   770     0390                     	;# 
   771     0391                     	;# 
   772     0392                     	;# 
   773     0393                     	;# 
   774     0394                     	;# 
   775     0395                     	;# 
   776     0396                     	;# 
   777     0397                     	;# 
   778     0398                     	;# 
   779     0399                     	;# 
   780     039D                     	;# 
   781     039E                     	;# 
   782     039F                     	;# 
   783     0415                     	;# 
   784     0416                     	;# 
   785     0417                     	;# 
   786     041C                     	;# 
   787     041D                     	;# 
   788     041E                     	;# 
   789     0498                     	;# 
   790     0498                     	;# 
   791     0499                     	;# 
   792     049A                     	;# 
   793     049B                     	;# 
   794     049B                     	;# 
   795     049C                     	;# 
   796     049D                     	;# 
   797     049E                     	;# 
   798     049F                     	;# 
   799     0511                     	;# 
   800     0515                     	;# 
   801     0617                     	;# 
   802     0618                     	;# 
   803     0619                     	;# 
   804     0619                     	;# 
   805     061A                     	;# 
   806     061B                     	;# 
   807     061C                     	;# 
   808     061C                     	;# 
   809     0691                     	;# 
   810     0692                     	;# 
   811     0693                     	;# 
   812     0694                     	;# 
   813     0695                     	;# 
   814     0696                     	;# 
   815     0697                     	;# 
   816     0698                     	;# 
   817     0699                     	;# 
   818     069A                     	;# 
   819     069B                     	;# 
   820     069C                     	;# 
   821     069D                     	;# 
   822     069E                     	;# 
   823     069F                     	;# 
   824     0E0F                     	;# 
   825     0E10                     	;# 
   826     0E11                     	;# 
   827     0E12                     	;# 
   828     0E13                     	;# 
   829     0E14                     	;# 
   830     0E15                     	;# 
   831     0E17                     	;# 
   832     0E20                     	;# 
   833     0E21                     	;# 
   834     0E22                     	;# 
   835     0E24                     	;# 
   836     0E25                     	;# 
   837     0E28                     	;# 
   838     0E29                     	;# 
   839     0E2A                     	;# 
   840     0E2B                     	;# 
   841     0E90                     	;# 
   842     0E91                     	;# 
   843     0E92                     	;# 
   844     0E93                     	;# 
   845     0E94                     	;# 
   846     0E95                     	;# 
   847     0E96                     	;# 
   848     0E97                     	;# 
   849     0E98                     	;# 
   850     0E99                     	;# 
   851     0E9A                     	;# 
   852     0E9B                     	;# 
   853     0E9C                     	;# 
   854     0E9D                     	;# 
   855     0E9E                     	;# 
   856     0E9F                     	;# 
   857     0EA0                     	;# 
   858     0EA1                     	;# 
   859     0EA2                     	;# 
   860     0EA3                     	;# 
   861     0EA4                     	;# 
   862     0EA5                     	;# 
   863     0EA6                     	;# 
   864     0EA7                     	;# 
   865     0F0F                     	;# 
   866     0F10                     	;# 
   867     0F11                     	;# 
   868     0F12                     	;# 
   869     0F13                     	;# 
   870     0F14                     	;# 
   871     0F15                     	;# 
   872     0F16                     	;# 
   873     0F17                     	;# 
   874     0F18                     	;# 
   875     0F19                     	;# 
   876     0F1A                     	;# 
   877     0F1B                     	;# 
   878     0F1C                     	;# 
   879     0F1D                     	;# 
   880     0F1E                     	;# 
   881     0F1F                     	;# 
   882     0F20                     	;# 
   883     0F21                     	;# 
   884     0F22                     	;# 
   885     0F23                     	;# 
   886     0F24                     	;# 
   887     0F25                     	;# 
   888     0F26                     	;# 
   889     0F27                     	;# 
   890     0F28                     	;# 
   891     0F29                     	;# 
   892     0F2A                     	;# 
   893     0F2B                     	;# 
   894     0F2C                     	;# 
   895     0F2D                     	;# 
   896     0F2E                     	;# 
   897     0F2F                     	;# 
   898     0F30                     	;# 
   899     0F31                     	;# 
   900     0F32                     	;# 
   901     0F33                     	;# 
   902     0F34                     	;# 
   903     0F35                     	;# 
   904     0F36                     	;# 
   905     0F37                     	;# 
   906     0FE4                     	;# 
   907     0FE5                     	;# 
   908     0FE6                     	;# 
   909     0FE7                     	;# 
   910     0FE8                     	;# 
   911     0FE9                     	;# 
   912     0FEA                     	;# 
   913     0FEB                     	;# 
   914     0FED                     	;# 
   915     0FEE                     	;# 
   916     0FEF                     	;# 
   917                           
   918                           	psect	idataBANK0
   919     04D3                     __pidataBANK0:
   920                           
   921                           ;initializer for calculate_timer_settings@F5325
   922     04D3  3401               	retlw	1
   923     04D4  3404               	retlw	4
   924     04D5  3410               	retlw	16
   925     04D6  3440               	retlw	64
   926     001B                     _PR2	set	27
   927     001C                     _T2CONbits	set	28
   928     008D                     _TRISBbits	set	141
   929     04CF                     _SPLLEN	set	1231
   930     04CE                     _IRCF3	set	1230
   931     04CD                     _IRCF2	set	1229
   932     04CC                     _IRCF1	set	1228
   933     04CB                     _IRCF0	set	1227
   934     04C9                     _SCS1	set	1225
   935     04C8                     _SCS0	set	1224
   936     018D                     _ANSELB	set	397
   937     0298                     _CCPR2L	set	664
   938     0291                     _CCPR1L	set	657
   939     029A                     _CCP2CONbits	set	666
   940     0293                     _CCP1CONbits	set	659
   941     029E                     _CCPTMRSbits	set	670
   942     041D                     _PR6	set	1053
   943     041E                     _T6CONbits	set	1054
   944     0416                     _PR4	set	1046
   945     0417                     _T4CONbits	set	1047
   946     0E0F                     _PPSLOCKbits	set	3599
   947     0E0F                     _PPSLOCK	set	3599
   948     0E99                     _RB1PPS	set	3737
   949     0E98                     _RB0PPS	set	3736
   950                           
   951                           	psect	cinit
   952     07ED                     start_initialization:	
   953                           ; #config settings
   954                           
   955     07ED                     __initialization:
   956                           
   957                           ; Initialize objects allocated to BANK0
   958     07ED  3184  24D3  3187   	fcall	__pidataBANK0	;fetch initializer
   959     07F0  00CB               	movwf	__pdataBANK0& (0+127)
   960     07F1  3184  24D4  3187   	fcall	__pidataBANK0+1	;fetch initializer
   961     07F4  00CC               	movwf	(__pdataBANK0+1)& (0+127)
   962     07F5  3184  24D5  3187   	fcall	__pidataBANK0+2	;fetch initializer
   963     07F8  00CD               	movwf	(__pdataBANK0+2)& (0+127)
   964     07F9  3184  24D6  3187   	fcall	__pidataBANK0+3	;fetch initializer
   965     07FC  00CE               	movwf	(__pdataBANK0+3)& (0+127)
   966     07FD                     end_of_initialization:	
   967                           ;End of C runtime variable initialization code
   968                           
   969     07FD                     __end_of__initialization:
   970     07FD  0020               	movlb	0
   971     07FE  3185  2DA1         	ljmp	_main	;jump to C main() function
   972                           
   973                           	psect	dataBANK0
   974     004B                     __pdataBANK0:
   975     004B                     calculate_timer_settings@F5325:
   976     004B                     	ds	4
   977                           
   978                           	psect	cstackCOMMON
   979     0070                     __pcstackCOMMON:
   980     0070                     ?_PWM_SetOutputPin:
   981     0070                     ?_PWM_Start:	
   982                           ; 1 bytes @ 0x0
   983                           
   984     0070                     ??_PWM_Start:	
   985                           ; 1 bytes @ 0x0
   986                           
   987     0070                     ?_PWM_SetDutyCycle10bit:	
   988                           ; 1 bytes @ 0x0
   989                           
   990     0070                     ?_internal_32:	
   991                           ; 1 bytes @ 0x0
   992                           
   993     0070                     ??_internal_32:	
   994                           ; 1 bytes @ 0x0
   995                           
   996     0070                     ?_main:	
   997                           ; 1 bytes @ 0x0
   998                           
   999     0070                     ?___lmul:	
  1000                           ; 1 bytes @ 0x0
  1001                           
  1002     0070                     PWM_SetDutyCycle10bit@duty_value:	
  1003                           ; 4 bytes @ 0x0
  1004                           
  1005     0070                     PWM_SetOutputPin@pps_register:	
  1006                           ; 2 bytes @ 0x0
  1007                           
  1008     0070                     ___lmul@multiplier:	
  1009                           ; 2 bytes @ 0x0
  1010                           
  1011                           
  1012                           ; 4 bytes @ 0x0
  1013     0070                     	ds	2
  1014     0072                     ??_PWM_SetOutputPin:
  1015     0072                     ??_PWM_SetDutyCycle10bit:	
  1016                           ; 1 bytes @ 0x2
  1017                           
  1018     0072                     PWM_Start@channel:	
  1019                           ; 1 bytes @ 0x2
  1020                           
  1021                           
  1022                           ; 1 bytes @ 0x2
  1023     0072                     	ds	2
  1024     0074                     PWM_SetDutyCycle10bit@channel:
  1025     0074                     PWM_SetOutputPin@channel:	
  1026                           ; 1 bytes @ 0x4
  1027                           
  1028     0074                     ___lmul@multiplicand:	
  1029                           ; 1 bytes @ 0x4
  1030                           
  1031                           
  1032                           ; 4 bytes @ 0x4
  1033     0074                     	ds	1
  1034     0075                     PWM_SetDutyCycle10bit@msb:
  1035     0075                     PWM_SetOutputPin@pps_value:	
  1036                           ; 1 bytes @ 0x5
  1037                           
  1038                           
  1039                           ; 1 bytes @ 0x5
  1040     0075                     	ds	1
  1041     0076                     PWM_SetDutyCycle10bit@lsb:
  1042                           
  1043                           ; 1 bytes @ 0x6
  1044     0076                     	ds	2
  1045     0078                     ??___lmul:
  1046     0078                     ___lmul@product:	
  1047                           ; 1 bytes @ 0x8
  1048                           
  1049                           
  1050                           ; 4 bytes @ 0x8
  1051     0078                     	ds	4
  1052     007C                     ??___lldiv:
  1053                           
  1054                           ; 1 bytes @ 0xC
  1055     007C                     	ds	1
  1056     007D                     ?_PWM_SetDutyCycle:
  1057     007D                     PWM_SetDutyCycle@duty_percent:	
  1058                           ; 1 bytes @ 0xD
  1059                           
  1060                           
  1061                           ; 1 bytes @ 0xD
  1062     007D                     	ds	1
  1063     007E                     ??_main:
  1064                           
  1065                           	psect	cstackBANK0
  1066     0020                     __pcstackBANK0:	
  1067                           ; 1 bytes @ 0xE
  1068                           
  1069     0020                     ?___lldiv:
  1070     0020                     ___lldiv@divisor:	
  1071                           ; 4 bytes @ 0x0
  1072                           
  1073                           
  1074                           ; 4 bytes @ 0x0
  1075     0020                     	ds	4
  1076     0024                     ___lldiv@dividend:
  1077                           
  1078                           ; 4 bytes @ 0x4
  1079     0024                     	ds	4
  1080     0028                     ___lldiv@quotient:
  1081                           
  1082                           ; 4 bytes @ 0x8
  1083     0028                     	ds	4
  1084     002C                     ___lldiv@counter:
  1085                           
  1086                           ; 1 bytes @ 0xC
  1087     002C                     	ds	1
  1088     002D                     ??_PWM_SetDutyCycle:
  1089     002D                     ?_calculate_timer_settings:	
  1090                           ; 1 bytes @ 0xD
  1091                           
  1092     002D                     calculate_timer_settings@freq_hz:	
  1093                           ; 1 bytes @ 0xD
  1094                           
  1095                           
  1096                           ; 4 bytes @ 0xD
  1097     002D                     	ds	4
  1098     0031                     calculate_timer_settings@pr_value:
  1099                           
  1100                           ; 1 bytes @ 0x11
  1101     0031                     	ds	1
  1102     0032                     calculate_timer_settings@prescaler:
  1103                           
  1104                           ; 1 bytes @ 0x12
  1105     0032                     	ds	1
  1106     0033                     ??_calculate_timer_settings:
  1107                           
  1108                           ; 1 bytes @ 0x13
  1109     0033                     	ds	2
  1110     0035                     PWM_SetDutyCycle@duty_10bit:
  1111                           
  1112                           ; 2 bytes @ 0x15
  1113     0035                     	ds	2
  1114     0037                     PWM_SetDutyCycle@channel:
  1115     0037                     calculate_timer_settings@prescale_values:	
  1116                           ; 1 bytes @ 0x17
  1117                           
  1118                           
  1119                           ; 4 bytes @ 0x17
  1120     0037                     	ds	1
  1121     0038                     PWM_SetDutyCycle@pr_value:
  1122                           
  1123                           ; 1 bytes @ 0x18
  1124     0038                     	ds	3
  1125     003B                     calculate_timer_settings@period:
  1126                           
  1127                           ; 4 bytes @ 0x1B
  1128     003B                     	ds	4
  1129     003F                     calculate_timer_settings@i:
  1130                           
  1131                           ; 2 bytes @ 0x1F
  1132     003F                     	ds	2
  1133     0041                     ?_PWM_Init:
  1134     0041                     PWM_Init@timer:	
  1135                           ; 1 bytes @ 0x21
  1136                           
  1137                           
  1138                           ; 1 bytes @ 0x21
  1139     0041                     	ds	1
  1140     0042                     PWM_Init@freq_hz:
  1141                           
  1142                           ; 4 bytes @ 0x22
  1143     0042                     	ds	4
  1144     0046                     ??_PWM_Init:
  1145                           
  1146                           ; 1 bytes @ 0x26
  1147     0046                     	ds	2
  1148     0048                     PWM_Init@channel:
  1149                           
  1150                           ; 1 bytes @ 0x28
  1151     0048                     	ds	1
  1152     0049                     PWM_Init@pr_value:
  1153                           
  1154                           ; 1 bytes @ 0x29
  1155     0049                     	ds	1
  1156     004A                     PWM_Init@prescaler:
  1157                           
  1158                           ; 1 bytes @ 0x2A
  1159     004A                     	ds	1
  1160                           
  1161                           	psect	maintext
  1162     05A1                     __pmaintext:	
  1163 ;;
  1164 ;;Main: autosize = 0, tempsize = 0, incstack = 0, save=0
  1165 ;;
  1166 ;; *************** function _main *****************
  1167 ;; Defined at:
  1168 ;;		line 20 in file "main.c"
  1169 ;; Parameters:    Size  Location     Type
  1170 ;;		None
  1171 ;; Auto vars:     Size  Location     Type
  1172 ;;		None
  1173 ;; Return value:  Size  Location     Type
  1174 ;;                  1    wreg      void 
  1175 ;; Registers used:
  1176 ;;		wreg, fsr0l, fsr0h, fsr1l, fsr1h, status,2, status,0, pclath, cstack
  1177 ;; Tracked objects:
  1178 ;;		On entry : B1F/0
  1179 ;;		On exit  : 0/0
  1180 ;;		Unchanged: 0/0
  1181 ;; Data sizes:     COMMON   BANK0   BANK1   BANK2   BANK3   BANK4   BANK5   BANK6   BANK7   BANK8   BANK9  BANK10  BANK1
      +1  BANK12  BANK13  BANK14  BANK15  BANK16  BANK17  BANK18  BANK19  BANK20  BANK21  BANK22  BANK23  BANK24  BANK25
  1182 ;;      Params:         0       0       0       0       0       0       0       0       0       0       0       0       
      +0       0       0       0       0       0       0       0       0       0       0       0       0       0       0
  1183 ;;      Locals:         0       0       0       0       0       0       0       0       0       0       0       0       
      +0       0       0       0       0       0       0       0       0       0       0       0       0       0       0
  1184 ;;      Temps:          0       0       0       0       0       0       0       0       0       0       0       0       
      +0       0       0       0       0       0       0       0       0       0       0       0       0       0       0
  1185 ;;      Totals:         0       0       0       0       0       0       0       0       0       0       0       0       
      +0       0       0       0       0       0       0       0       0       0       0       0       0       0       0
  1186 ;;Total ram usage:        0 bytes
  1187 ;; Hardware stack levels required when called: 3
  1188 ;; This function calls:
  1189 ;;		_PWM_Init
  1190 ;;		_PWM_SetDutyCycle
  1191 ;;		_PWM_SetOutputPin
  1192 ;;		_PWM_Start
  1193 ;;		_internal_32
  1194 ;; This function is called by:
  1195 ;;		Startup code after reset
  1196 ;; This function uses a non-reentrant model
  1197 ;;
  1198                           
  1199     05A1                     _main:	
  1200                           ;psect for function _main
  1201                           
  1202     05A1                     l1399:	
  1203                           ;incstack = 0
  1204                           ; Regs used in _main: [wreg-fsr1h+status,2+status,0+pclath+cstack]
  1205                           
  1206                           
  1207                           ;main.c: 22:     internal_32();
  1208     05A1  3184  24D7  3185   	fcall	_internal_32
  1209     05A4                     l1401:
  1210                           
  1211                           ;main.c: 25:     TRISBbits.TRISB0 = 0;
  1212     05A4  0021               	movlb	1	; select bank1
  1213     05A5  100D               	bcf	13,0	;volatile
  1214     05A6                     l1403:
  1215                           
  1216                           ;main.c: 26:     TRISBbits.TRISB1 = 0;
  1217     05A6  108D               	bcf	13,1	;volatile
  1218     05A7                     l1405:
  1219                           
  1220                           ;main.c: 27:     ANSELB = 0;
  1221     05A7  0023               	movlb	3	; select bank3
  1222     05A8  018D               	clrf	13	;volatile
  1223     05A9                     l1407:
  1224                           
  1225                           ;main.c: 30:     PWM_Init(PWM_CCP1, PWM_TIMER6, 31250);
  1226     05A9  3002               	movlw	2
  1227     05AA  0020               	movlb	0	; select bank0
  1228     05AB  00C1               	movwf	PWM_Init@timer
  1229     05AC  3000               	movlw	0
  1230     05AD  00C5               	movwf	PWM_Init@freq_hz+3
  1231     05AE  3000               	movlw	0
  1232     05AF  00C4               	movwf	PWM_Init@freq_hz+2
  1233     05B0  307A               	movlw	122
  1234     05B1  00C3               	movwf	PWM_Init@freq_hz+1
  1235     05B2  3012               	movlw	18
  1236     05B3  00C2               	movwf	PWM_Init@freq_hz
  1237     05B4  3001               	movlw	1
  1238     05B5  3187  2759  3185   	fcall	_PWM_Init
  1239     05B8                     l1409:
  1240                           
  1241                           ;main.c: 31:     PWM_Init(PWM_CCP2, PWM_TIMER6, 31250);
  1242     05B8  3002               	movlw	2
  1243     05B9  0020               	movlb	0	; select bank0
  1244     05BA  00C1               	movwf	PWM_Init@timer
  1245     05BB  3000               	movlw	0
  1246     05BC  00C5               	movwf	PWM_Init@freq_hz+3
  1247     05BD  3000               	movlw	0
  1248     05BE  00C4               	movwf	PWM_Init@freq_hz+2
  1249     05BF  307A               	movlw	122
  1250     05C0  00C3               	movwf	PWM_Init@freq_hz+1
  1251     05C1  3012               	movlw	18
  1252     05C2  00C2               	movwf	PWM_Init@freq_hz
  1253     05C3  3002               	movlw	2
  1254     05C4  3187  2759  3185   	fcall	_PWM_Init
  1255     05C7                     l1411:
  1256                           
  1257                           ;main.c: 34:     PWM_SetOutputPin(PWM_CCP1, &RB0PPS);
  1258     05C7  3098               	movlw	152
  1259     05C8  00F0               	movwf	PWM_SetOutputPin@pps_register
  1260     05C9  300E               	movlw	14
  1261     05CA  00F1               	movwf	PWM_SetOutputPin@pps_register+1
  1262     05CB  3001               	movlw	1
  1263     05CC  3184  24FF  3185   	fcall	_PWM_SetOutputPin
  1264     05CF                     l1413:
  1265                           
  1266                           ;main.c: 35:     PWM_SetOutputPin(PWM_CCP2, &RB1PPS);
  1267     05CF  3099               	movlw	153
  1268     05D0  00F0               	movwf	PWM_SetOutputPin@pps_register
  1269     05D1  300E               	movlw	14
  1270     05D2  00F1               	movwf	PWM_SetOutputPin@pps_register+1
  1271     05D3  3002               	movlw	2
  1272     05D4  3184  24FF  3185   	fcall	_PWM_SetOutputPin
  1273     05D7                     l1415:
  1274                           
  1275                           ;main.c: 38:     PWM_SetDutyCycle(PWM_CCP1, 75);
  1276     05D7  304B               	movlw	75
  1277     05D8  00FD               	movwf	PWM_SetDutyCycle@duty_percent
  1278     05D9  3001               	movlw	1
  1279     05DA  3186  26C8  3185   	fcall	_PWM_SetDutyCycle
  1280     05DD                     l1417:
  1281                           
  1282                           ;main.c: 39:     PWM_SetDutyCycle(PWM_CCP2, 50);
  1283     05DD  3032               	movlw	50
  1284     05DE  00FD               	movwf	PWM_SetDutyCycle@duty_percent
  1285     05DF  3002               	movlw	2
  1286     05E0  3186  26C8  3185   	fcall	_PWM_SetDutyCycle
  1287     05E3                     l1419:
  1288                           
  1289                           ;main.c: 42:     PWM_Start(PWM_CCP1);
  1290     05E3  3001               	movlw	1
  1291     05E4  3184  24E0  3185   	fcall	_PWM_Start
  1292     05E7                     l1421:
  1293                           
  1294                           ;main.c: 43:     PWM_Start(PWM_CCP2);
  1295     05E7  3002               	movlw	2
  1296     05E8  3184  24E0  3185   	fcall	_PWM_Start
  1297     05EB                     l58:	
  1298                           ;main.c: 45:     while(1) {
  1299                           
  1300     05EB                     l59:	
  1301                           ;main.c: 49:     }
  1302                           
  1303     05EB  2DEB               	goto	l58
  1304     05EC  3180  2803         	ljmp	start
  1305     05EE                     __end_of_main:
  1306                           
  1307                           	psect	text1
  1308     04D7                     __ptext1:	
  1309 ;; *************** function _internal_32 *****************
  1310 ;; Defined at:
  1311 ;;		line 36 in file "PIC16F1718_Internal.c"
  1312 ;; Parameters:    Size  Location     Type
  1313 ;;		None
  1314 ;; Auto vars:     Size  Location     Type
  1315 ;;		None
  1316 ;; Return value:  Size  Location     Type
  1317 ;;                  1    wreg      void 
  1318 ;; Registers used:
  1319 ;;		None
  1320 ;; Tracked objects:
  1321 ;;		On entry : 0/0
  1322 ;;		On exit  : 0/0
  1323 ;;		Unchanged: 0/0
  1324 ;; Data sizes:     COMMON   BANK0   BANK1   BANK2   BANK3   BANK4   BANK5   BANK6   BANK7   BANK8   BANK9  BANK10  BANK1
      +1  BANK12  BANK13  BANK14  BANK15  BANK16  BANK17  BANK18  BANK19  BANK20  BANK21  BANK22  BANK23  BANK24  BANK25
  1325 ;;      Params:         0       0       0       0       0       0       0       0       0       0       0       0       
      +0       0       0       0       0       0       0       0       0       0       0       0       0       0       0
  1326 ;;      Locals:         0       0       0       0       0       0       0       0       0       0       0       0       
      +0       0       0       0       0       0       0       0       0       0       0       0       0       0       0
  1327 ;;      Temps:          0       0       0       0       0       0       0       0       0       0       0       0       
      +0       0       0       0       0       0       0       0       0       0       0       0       0       0       0
  1328 ;;      Totals:         0       0       0       0       0       0       0       0       0       0       0       0       
      +0       0       0       0       0       0       0       0       0       0       0       0       0       0       0
  1329 ;;Total ram usage:        0 bytes
  1330 ;; Hardware stack levels used: 1
  1331 ;; This function calls:
  1332 ;;		Nothing
  1333 ;; This function is called by:
  1334 ;;		_main
  1335 ;; This function uses a non-reentrant model
  1336 ;;
  1337                           
  1338     04D7                     _internal_32:	
  1339                           ;psect for function _internal_32
  1340                           
  1341     04D7                     l797:	
  1342                           ;incstack = 0
  1343                           ; Regs used in _internal_32: []
  1344                           
  1345                           
  1346                           ;PIC16F1718_Internal.c: 38:     SCS0 = 0;
  1347     04D7  0021               	movlb	1	; select bank1
  1348     04D8  1019               	bcf	25,0	;volatile
  1349                           
  1350                           ;PIC16F1718_Internal.c: 39:     SCS1 = 0;
  1351     04D9  1099               	bcf	25,1	;volatile
  1352                           
  1353                           ;PIC16F1718_Internal.c: 42:     IRCF0 = 0;
  1354     04DA  1199               	bcf	25,3	;volatile
  1355                           
  1356                           ;PIC16F1718_Internal.c: 43:     IRCF1 = 1;
  1357     04DB  1619               	bsf	25,4	;volatile
  1358                           
  1359                           ;PIC16F1718_Internal.c: 44:     IRCF2 = 1;
  1360     04DC  1699               	bsf	25,5	;volatile
  1361                           
  1362                           ;PIC16F1718_Internal.c: 45:     IRCF3 = 1;
  1363     04DD  1719               	bsf	25,6	;volatile
  1364                           
  1365                           ;PIC16F1718_Internal.c: 48:     SPLLEN = 1;
  1366     04DE  1799               	bsf	25,7	;volatile
  1367     04DF                     l17:
  1368     04DF  0008               	return
  1369     04E0                     __end_of_internal_32:
  1370                           
  1371                           	psect	text2
  1372     04E0                     __ptext2:	
  1373 ;; *************** function _PWM_Start *****************
  1374 ;; Defined at:
  1375 ;;		line 166 in file "PWM.c"
  1376 ;; Parameters:    Size  Location     Type
  1377 ;;  channel         1    wreg     enum E5283
  1378 ;; Auto vars:     Size  Location     Type
  1379 ;;  channel         1    2[COMMON] enum E5283
  1380 ;; Return value:  Size  Location     Type
  1381 ;;                  1    wreg      void 
  1382 ;; Registers used:
  1383 ;;		wreg, fsr0l, fsr0h, status,2, status,0
  1384 ;; Tracked objects:
  1385 ;;		On entry : 0/0
  1386 ;;		On exit  : 0/0
  1387 ;;		Unchanged: 0/0
  1388 ;; Data sizes:     COMMON   BANK0   BANK1   BANK2   BANK3   BANK4   BANK5   BANK6   BANK7   BANK8   BANK9  BANK10  BANK1
      +1  BANK12  BANK13  BANK14  BANK15  BANK16  BANK17  BANK18  BANK19  BANK20  BANK21  BANK22  BANK23  BANK24  BANK25
  1389 ;;      Params:         0       0       0       0       0       0       0       0       0       0       0       0       
      +0       0       0       0       0       0       0       0       0       0       0       0       0       0       0
  1390 ;;      Locals:         1       0       0       0       0       0       0       0       0       0       0       0       
      +0       0       0       0       0       0       0       0       0       0       0       0       0       0       0
  1391 ;;      Temps:          2       0       0       0       0       0       0       0       0       0       0       0       
      +0       0       0       0       0       0       0       0       0       0       0       0       0       0       0
  1392 ;;      Totals:         3       0       0       0       0       0       0       0       0       0       0       0       
      +0       0       0       0       0       0       0       0       0       0       0       0       0       0       0
  1393 ;;Total ram usage:        3 bytes
  1394 ;; Hardware stack levels used: 1
  1395 ;; This function calls:
  1396 ;;		Nothing
  1397 ;; This function is called by:
  1398 ;;		_main
  1399 ;; This function uses a non-reentrant model
  1400 ;;
  1401                           
  1402     04E0                     _PWM_Start:	
  1403                           ;psect for function _PWM_Start
  1404                           
  1405                           
  1406                           ;incstack = 0
  1407                           ; Regs used in _PWM_Start: [wreg-fsr0h+status,2+status,0]
  1408                           ;PWM_Start@channel stored from wreg
  1409     04E0  00F2               	movwf	PWM_Start@channel
  1410     04E1                     l915:
  1411                           
  1412                           ;PWM.c: 167:     switch(channel) {
  1413     04E1  2CEE               	goto	l923
  1414     04E2                     l917:
  1415                           
  1416                           ;PWM.c: 169:             CCP1CONbits.CCP1M = 0b1100;
  1417     04E2  0025               	movlb	5	; select bank5
  1418     04E3  0813               	movf	19,w	;volatile
  1419     04E4  39F0               	andlw	-16
  1420     04E5  380C               	iorlw	12
  1421     04E6  0093               	movwf	19	;volatile
  1422                           
  1423                           ;PWM.c: 170:             break;
  1424     04E7  2CFE               	goto	l149
  1425     04E8                     l919:
  1426                           
  1427                           ;PWM.c: 172:             CCP2CONbits.CCP2M = 0b1100;
  1428     04E8  0025               	movlb	5	; select bank5
  1429     04E9  081A               	movf	26,w	;volatile
  1430     04EA  39F0               	andlw	-16
  1431     04EB  380C               	iorlw	12
  1432     04EC  009A               	movwf	26	;volatile
  1433                           
  1434                           ;PWM.c: 173:             break;
  1435     04ED  2CFE               	goto	l149
  1436     04EE                     l923:
  1437     04EE  0872               	movf	PWM_Start@channel,w
  1438     04EF  00F0               	movwf	??_PWM_Start
  1439     04F0  01F1               	clrf	??_PWM_Start+1
  1440                           
  1441                           ; Switch on 2 bytes has been partitioned into a top level switch of size 1, and 1 sub-sw
      +                          itches
  1442                           ; Switch size 1, requested type "simple"
  1443                           ; Number of cases is 1, Range of values is 0 to 0
  1444                           ; switch strategies available:
  1445                           ; Name         Instructions Cycles
  1446                           ; simple_byte            4     3 (average)
  1447                           ; direct_byte            8     6 (fixed)
  1448                           ; jumptable            260     6 (fixed)
  1449                           ;	Chosen strategy is simple_byte
  1450     04F1  0871               	movf	??_PWM_Start+1,w
  1451     04F2  3A00               	xorlw	0	; case 0
  1452     04F3  1903               	skipnz
  1453     04F4  2CF6               	goto	l1645
  1454     04F5  2CFE               	goto	l149
  1455     04F6                     l1645:
  1456                           
  1457                           ; Switch size 1, requested type "simple"
  1458                           ; Number of cases is 2, Range of values is 1 to 2
  1459                           ; switch strategies available:
  1460                           ; Name         Instructions Cycles
  1461                           ; simple_byte            7     4 (average)
  1462                           ; direct_byte           13     9 (fixed)
  1463                           ; jumptable            263     9 (fixed)
  1464                           ;	Chosen strategy is simple_byte
  1465     04F6  0870               	movf	??_PWM_Start,w
  1466     04F7  3A01               	xorlw	1	; case 1
  1467     04F8  1903               	skipnz
  1468     04F9  2CE2               	goto	l917
  1469     04FA  3A03               	xorlw	3	; case 2
  1470     04FB  1903               	skipnz
  1471     04FC  2CE8               	goto	l919
  1472     04FD  2CFE               	goto	l149
  1473     04FE                     l149:
  1474     04FE  0008               	return
  1475     04FF                     __end_of_PWM_Start:
  1476                           
  1477                           	psect	text3
  1478     04FF                     __ptext3:	
  1479 ;; *************** function _PWM_SetOutputPin *****************
  1480 ;; Defined at:
  1481 ;;		line 194 in file "PWM.c"
  1482 ;; Parameters:    Size  Location     Type
  1483 ;;  channel         1    wreg     enum E5283
  1484 ;;  pps_register    2    0[COMMON] PTR volatile unsigned ch
  1485 ;;		 -> RB1PPS(1), RB0PPS(1), 
  1486 ;; Auto vars:     Size  Location     Type
  1487 ;;  channel         1    4[COMMON] enum E5283
  1488 ;;  pps_value       1    5[COMMON] unsigned char 
  1489 ;; Return value:  Size  Location     Type
  1490 ;;                  1    wreg      void 
  1491 ;; Registers used:
  1492 ;;		wreg, fsr0l, fsr0h, fsr1l, fsr1h, status,2, status,0
  1493 ;; Tracked objects:
  1494 ;;		On entry : 0/0
  1495 ;;		On exit  : 0/0
  1496 ;;		Unchanged: 0/0
  1497 ;; Data sizes:     COMMON   BANK0   BANK1   BANK2   BANK3   BANK4   BANK5   BANK6   BANK7   BANK8   BANK9  BANK10  BANK1
      +1  BANK12  BANK13  BANK14  BANK15  BANK16  BANK17  BANK18  BANK19  BANK20  BANK21  BANK22  BANK23  BANK24  BANK25
  1498 ;;      Params:         2       0       0       0       0       0       0       0       0       0       0       0       
      +0       0       0       0       0       0       0       0       0       0       0       0       0       0       0
  1499 ;;      Locals:         2       0       0       0       0       0       0       0       0       0       0       0       
      +0       0       0       0       0       0       0       0       0       0       0       0       0       0       0
  1500 ;;      Temps:          2       0       0       0       0       0       0       0       0       0       0       0       
      +0       0       0       0       0       0       0       0       0       0       0       0       0       0       0
  1501 ;;      Totals:         6       0       0       0       0       0       0       0       0       0       0       0       
      +0       0       0       0       0       0       0       0       0       0       0       0       0       0       0
  1502 ;;Total ram usage:        6 bytes
  1503 ;; Hardware stack levels used: 1
  1504 ;; This function calls:
  1505 ;;		Nothing
  1506 ;; This function is called by:
  1507 ;;		_main
  1508 ;; This function uses a non-reentrant model
  1509 ;;
  1510                           
  1511     04FF                     _PWM_SetOutputPin:	
  1512                           ;psect for function _PWM_SetOutputPin
  1513                           
  1514                           
  1515                           ;incstack = 0
  1516                           ; Regs used in _PWM_SetOutputPin: [wreg-fsr1h+status,2+status,0]
  1517                           ;PWM_SetOutputPin@channel stored from wreg
  1518     04FF  00F4               	movwf	PWM_SetOutputPin@channel
  1519     0500                     l1335:
  1520                           
  1521                           ;PWM.c: 195:     uint8_t pps_value;;PWM.c: 198:     switch(channel) {
  1522     0500  2D07               	goto	l1343
  1523     0501                     l1337:
  1524                           
  1525                           ;PWM.c: 200:             pps_value = 0b01100;
  1526     0501  300C               	movlw	12
  1527     0502  00F5               	movwf	PWM_SetOutputPin@pps_value
  1528                           
  1529                           ;PWM.c: 201:             break;
  1530     0503  2D17               	goto	l1345
  1531     0504                     l1339:
  1532                           
  1533                           ;PWM.c: 203:             pps_value = 0b01101;
  1534     0504  300D               	movlw	13
  1535     0505  00F5               	movwf	PWM_SetOutputPin@pps_value
  1536                           
  1537                           ;PWM.c: 204:             break;
  1538     0506  2D17               	goto	l1345
  1539     0507                     l1343:
  1540     0507  0874               	movf	PWM_SetOutputPin@channel,w
  1541     0508  00F2               	movwf	??_PWM_SetOutputPin
  1542     0509  01F3               	clrf	??_PWM_SetOutputPin+1
  1543                           
  1544                           ; Switch on 2 bytes has been partitioned into a top level switch of size 1, and 1 sub-sw
      +                          itches
  1545                           ; Switch size 1, requested type "simple"
  1546                           ; Number of cases is 1, Range of values is 0 to 0
  1547                           ; switch strategies available:
  1548                           ; Name         Instructions Cycles
  1549                           ; simple_byte            4     3 (average)
  1550                           ; direct_byte            8     6 (fixed)
  1551                           ; jumptable            260     6 (fixed)
  1552                           ;	Chosen strategy is simple_byte
  1553     050A  0873               	movf	??_PWM_SetOutputPin+1,w
  1554     050B  3A00               	xorlw	0	; case 0
  1555     050C  1903               	skipnz
  1556     050D  2D0F               	goto	l1647
  1557     050E  2D28               	goto	l164
  1558     050F                     l1647:
  1559                           
  1560                           ; Switch size 1, requested type "simple"
  1561                           ; Number of cases is 2, Range of values is 1 to 2
  1562                           ; switch strategies available:
  1563                           ; Name         Instructions Cycles
  1564                           ; simple_byte            7     4 (average)
  1565                           ; direct_byte           13     9 (fixed)
  1566                           ; jumptable            263     9 (fixed)
  1567                           ;	Chosen strategy is simple_byte
  1568     050F  0872               	movf	??_PWM_SetOutputPin,w
  1569     0510  3A01               	xorlw	1	; case 1
  1570     0511  1903               	skipnz
  1571     0512  2D01               	goto	l1337
  1572     0513  3A03               	xorlw	3	; case 2
  1573     0514  1903               	skipnz
  1574     0515  2D04               	goto	l1339
  1575     0516  2D28               	goto	l164
  1576     0517                     l1345:
  1577                           
  1578                           ;PWM.c: 210:     PPSLOCK = 0x55;
  1579     0517  3055               	movlw	85
  1580     0518  003C               	movlb	28	; select bank28
  1581     0519  008F               	movwf	15	;volsfr
  1582                           
  1583                           ;PWM.c: 211:     PPSLOCK = 0xAA;
  1584     051A  30AA               	movlw	170
  1585     051B  008F               	movwf	15	;volsfr
  1586     051C                     l1347:
  1587                           
  1588                           ;PWM.c: 212:     PPSLOCKbits.PPSLOCKED = 0x00;
  1589     051C  100F               	bcf	15,0	;volsfr
  1590     051D                     l1349:
  1591                           
  1592                           ;PWM.c: 215:     *pps_register = pps_value;
  1593     051D  0870               	movf	PWM_SetOutputPin@pps_register,w
  1594     051E  0086               	movwf	6
  1595     051F  0871               	movf	PWM_SetOutputPin@pps_register+1,w
  1596     0520  0087               	movwf	7
  1597     0521  0875               	movf	PWM_SetOutputPin@pps_value,w
  1598     0522  0081               	movwf	1
  1599     0523                     l1351:
  1600                           
  1601                           ;PWM.c: 218:     PPSLOCK = 0x55;
  1602     0523  3055               	movlw	85
  1603     0524  008F               	movwf	15	;volsfr
  1604     0525                     l1353:
  1605                           
  1606                           ;PWM.c: 219:     PPSLOCK = 0xAA;
  1607     0525  30AA               	movlw	170
  1608     0526  008F               	movwf	15	;volsfr
  1609     0527                     l1355:
  1610                           
  1611                           ;PWM.c: 220:     PPSLOCKbits.PPSLOCKED = 0x01;
  1612     0527  140F               	bsf	15,0	;volsfr
  1613     0528                     l164:
  1614     0528  0008               	return
  1615     0529                     __end_of_PWM_SetOutputPin:
  1616                           
  1617                           	psect	text4
  1618     06C8                     __ptext4:	
  1619 ;; *************** function _PWM_SetDutyCycle *****************
  1620 ;; Defined at:
  1621 ;;		line 96 in file "PWM.c"
  1622 ;; Parameters:    Size  Location     Type
  1623 ;;  channel         1    wreg     enum E5283
  1624 ;;  duty_percent    1   13[COMMON] unsigned char 
  1625 ;; Auto vars:     Size  Location     Type
  1626 ;;  channel         1   23[BANK0 ] enum E5283
  1627 ;;  duty_10bit      2   21[BANK0 ] unsigned short 
  1628 ;;  pr_value        1   24[BANK0 ] unsigned char 
  1629 ;; Return value:  Size  Location     Type
  1630 ;;                  1    wreg      void 
  1631 ;; Registers used:
  1632 ;;		wreg, fsr0l, fsr0h, status,2, status,0, pclath, cstack
  1633 ;; Tracked objects:
  1634 ;;		On entry : 0/0
  1635 ;;		On exit  : 0/0
  1636 ;;		Unchanged: 0/0
  1637 ;; Data sizes:     COMMON   BANK0   BANK1   BANK2   BANK3   BANK4   BANK5   BANK6   BANK7   BANK8   BANK9  BANK10  BANK1
      +1  BANK12  BANK13  BANK14  BANK15  BANK16  BANK17  BANK18  BANK19  BANK20  BANK21  BANK22  BANK23  BANK24  BANK25
  1638 ;;      Params:         1       0       0       0       0       0       0       0       0       0       0       0       
      +0       0       0       0       0       0       0       0       0       0       0       0       0       0       0
  1639 ;;      Locals:         0       4       0       0       0       0       0       0       0       0       0       0       
      +0       0       0       0       0       0       0       0       0       0       0       0       0       0       0
  1640 ;;      Temps:          0       8       0       0       0       0       0       0       0       0       0       0       
      +0       0       0       0       0       0       0       0       0       0       0       0       0       0       0
  1641 ;;      Totals:         1      12       0       0       0       0       0       0       0       0       0       0       
      +0       0       0       0       0       0       0       0       0       0       0       0       0       0       0
  1642 ;;Total ram usage:       13 bytes
  1643 ;; Hardware stack levels used: 1
  1644 ;; Hardware stack levels required when called: 1
  1645 ;; This function calls:
  1646 ;;		_PWM_SetDutyCycle10bit
  1647 ;;		___lldiv
  1648 ;;		___lmul
  1649 ;; This function is called by:
  1650 ;;		_main
  1651 ;; This function uses a non-reentrant model
  1652 ;;
  1653                           
  1654     06C8                     _PWM_SetDutyCycle:	
  1655                           ;psect for function _PWM_SetDutyCycle
  1656                           
  1657                           
  1658                           ;incstack = 0
  1659                           ; Regs used in _PWM_SetDutyCycle: [wreg-fsr0h+status,2+status,0+pclath+cstack]
  1660                           ;PWM_SetDutyCycle@channel stored from wreg
  1661     06C8  0020               	movlb	0	; select bank0
  1662     06C9  00B7               	movwf	PWM_SetDutyCycle@channel
  1663     06CA                     l1361:
  1664                           
  1665                           ;PWM.c: 97:     uint16_t duty_10bit;;PWM.c: 98:     uint8_t pr_value;;PWM.c: 101:     if
      +                           (duty_percent > 100) {
  1666     06CA  3065               	movlw	101
  1667     06CB  027D               	subwf	PWM_SetDutyCycle@duty_percent,w
  1668     06CC  1C03               	skipc
  1669     06CD  2ECF               	goto	u311
  1670     06CE  2ED0               	goto	u310
  1671     06CF                     u311:
  1672     06CF  2EFC               	goto	l1387
  1673     06D0                     u310:
  1674     06D0                     l1363:
  1675                           
  1676                           ;PWM.c: 102:         duty_percent = 100;
  1677     06D0  3064               	movlw	100
  1678     06D1  00FD               	movwf	PWM_SetDutyCycle@duty_percent
  1679     06D2  2EFC               	goto	l1387
  1680     06D3                     l1365:
  1681     06D3  0020               	movlb	0	; select bank0
  1682     06D4  081B               	movf	27,w	;volatile
  1683     06D5  00B8               	movwf	PWM_SetDutyCycle@pr_value
  1684     06D6  2F0C               	goto	l1389
  1685     06D7                     l1367:
  1686     06D7  0028               	movlb	8	; select bank8
  1687     06D8  0816               	movf	22,w	;volatile
  1688     06D9  0020               	movlb	0	; select bank0
  1689     06DA  00B8               	movwf	PWM_SetDutyCycle@pr_value
  1690     06DB  2F0C               	goto	l1389
  1691     06DC                     l1369:
  1692     06DC  0028               	movlb	8	; select bank8
  1693     06DD  081D               	movf	29,w	;volatile
  1694     06DE  0020               	movlb	0	; select bank0
  1695     06DF  00B8               	movwf	PWM_SetDutyCycle@pr_value
  1696     06E0  2F0C               	goto	l1389
  1697     06E1                     l1373:
  1698     06E1  0025               	movlb	5	; select bank5
  1699     06E2  081E               	movf	30,w	;volatile
  1700     06E3  3903               	andlw	3
  1701                           
  1702                           ; Switch size 1, requested type "simple"
  1703                           ; Number of cases is 3, Range of values is 0 to 2
  1704                           ; switch strategies available:
  1705                           ; Name         Instructions Cycles
  1706                           ; simple_byte           10     6 (average)
  1707                           ; direct_byte           12     6 (fixed)
  1708                           ; jumptable            260     6 (fixed)
  1709                           ;	Chosen strategy is simple_byte
  1710     06E4  3A00               	xorlw	0	; case 0
  1711     06E5  1903               	skipnz
  1712     06E6  2ED3               	goto	l1365
  1713     06E7  3A01               	xorlw	1	; case 1
  1714     06E8  1903               	skipnz
  1715     06E9  2ED7               	goto	l1367
  1716     06EA  3A03               	xorlw	3	; case 2
  1717     06EB  1903               	skipnz
  1718     06EC  2EDC               	goto	l1369
  1719     06ED  2ED3               	goto	l1365
  1720     06EE                     l1383:
  1721     06EE  0025               	movlb	5	; select bank5
  1722     06EF  0C1E               	rrf	30,w	;volatile
  1723     06F0  0C89               	rrf	9,f
  1724     06F1  3903               	andlw	3
  1725                           
  1726                           ; Switch size 1, requested type "simple"
  1727                           ; Number of cases is 3, Range of values is 0 to 2
  1728                           ; switch strategies available:
  1729                           ; Name         Instructions Cycles
  1730                           ; simple_byte           10     6 (average)
  1731                           ; direct_byte           12     6 (fixed)
  1732                           ; jumptable            260     6 (fixed)
  1733                           ;	Chosen strategy is simple_byte
  1734     06F2  3A00               	xorlw	0	; case 0
  1735     06F3  1903               	skipnz
  1736     06F4  2ED3               	goto	l1365
  1737     06F5  3A01               	xorlw	1	; case 1
  1738     06F6  1903               	skipnz
  1739     06F7  2ED7               	goto	l1367
  1740     06F8  3A03               	xorlw	3	; case 2
  1741     06F9  1903               	skipnz
  1742     06FA  2EDC               	goto	l1369
  1743     06FB  2ED3               	goto	l1365
  1744     06FC                     l1387:
  1745     06FC  0837               	movf	PWM_SetDutyCycle@channel,w
  1746     06FD  00AD               	movwf	??_PWM_SetDutyCycle
  1747     06FE  01AE               	clrf	??_PWM_SetDutyCycle+1
  1748                           
  1749                           ; Switch on 2 bytes has been partitioned into a top level switch of size 1, and 1 sub-sw
      +                          itches
  1750                           ; Switch size 1, requested type "simple"
  1751                           ; Number of cases is 1, Range of values is 0 to 0
  1752                           ; switch strategies available:
  1753                           ; Name         Instructions Cycles
  1754                           ; simple_byte            4     3 (average)
  1755                           ; direct_byte            8     6 (fixed)
  1756                           ; jumptable            260     6 (fixed)
  1757                           ;	Chosen strategy is simple_byte
  1758     06FF  082E               	movf	??_PWM_SetDutyCycle+1,w
  1759     0700  3A00               	xorlw	0	; case 0
  1760     0701  1903               	skipnz
  1761     0702  2F04               	goto	l1649
  1762     0703  2ED3               	goto	l1365
  1763     0704                     l1649:
  1764                           
  1765                           ; Switch size 1, requested type "simple"
  1766                           ; Number of cases is 2, Range of values is 1 to 2
  1767                           ; switch strategies available:
  1768                           ; Name         Instructions Cycles
  1769                           ; simple_byte            7     4 (average)
  1770                           ; direct_byte           13     9 (fixed)
  1771                           ; jumptable            263     9 (fixed)
  1772                           ;	Chosen strategy is simple_byte
  1773     0704  082D               	movf	??_PWM_SetDutyCycle,w
  1774     0705  3A01               	xorlw	1	; case 1
  1775     0706  1903               	skipnz
  1776     0707  2EE1               	goto	l1373
  1777     0708  3A03               	xorlw	3	; case 2
  1778     0709  1903               	skipnz
  1779     070A  2EEE               	goto	l1383
  1780     070B  2ED3               	goto	l1365
  1781     070C                     l1389:
  1782                           
  1783                           ;PWM.c: 129:     duty_10bit = (uint16_t)(((uint32_t)duty_percent * (pr_value + 1) * 4) /
      +                           100);
  1784     070C  3000               	movlw	0
  1785     070D  00A3               	movwf	___lldiv@divisor+3
  1786     070E  3000               	movlw	0
  1787     070F  00A2               	movwf	___lldiv@divisor+2
  1788     0710  3000               	movlw	0
  1789     0711  00A1               	movwf	___lldiv@divisor+1
  1790     0712  3064               	movlw	100
  1791     0713  00A0               	movwf	___lldiv@divisor
  1792     0714  0838               	movf	PWM_SetDutyCycle@pr_value,w
  1793     0715  3E01               	addlw	1
  1794     0716  00F4               	movwf	___lmul@multiplicand
  1795     0717  3000               	movlw	0
  1796     0718  1803               	skipnc
  1797     0719  3001               	movlw	1
  1798     071A  00F5               	movwf	___lmul@multiplicand+1
  1799     071B  01F6               	clrf	___lmul@multiplicand+2
  1800     071C  1BF5               	btfsc	___lmul@multiplicand+1,7
  1801     071D  03F6               	decf	___lmul@multiplicand+2,f
  1802     071E  0876               	movf	___lmul@multiplicand+2,w
  1803     071F  00F7               	movwf	___lmul@multiplicand+3
  1804     0720  087D               	movf	PWM_SetDutyCycle@duty_percent,w
  1805     0721  00AD               	movwf	??_PWM_SetDutyCycle
  1806     0722  01AE               	clrf	??_PWM_SetDutyCycle+1
  1807     0723  01AF               	clrf	??_PWM_SetDutyCycle+2
  1808     0724  01B0               	clrf	??_PWM_SetDutyCycle+3
  1809     0725  0830               	movf	??_PWM_SetDutyCycle+3,w
  1810     0726  00F3               	movwf	___lmul@multiplier+3
  1811     0727  082F               	movf	??_PWM_SetDutyCycle+2,w
  1812     0728  00F2               	movwf	___lmul@multiplier+2
  1813     0729  082E               	movf	??_PWM_SetDutyCycle+1,w
  1814     072A  00F1               	movwf	___lmul@multiplier+1
  1815     072B  082D               	movf	??_PWM_SetDutyCycle,w
  1816     072C  00F0               	movwf	___lmul@multiplier
  1817     072D  3185  2529  3186   	fcall	___lmul
  1818     0730  0870               	movf	?___lmul,w
  1819     0731  0020               	movlb	0	; select bank0
  1820     0732  00B1               	movwf	??_PWM_SetDutyCycle+4
  1821     0733  0871               	movf	?___lmul+1,w
  1822     0734  00B2               	movwf	??_PWM_SetDutyCycle+5
  1823     0735  0872               	movf	?___lmul+2,w
  1824     0736  00B3               	movwf	??_PWM_SetDutyCycle+6
  1825     0737  0873               	movf	?___lmul+3,w
  1826     0738  00B4               	movwf	??_PWM_SetDutyCycle+7
  1827     0739  3002               	movlw	2
  1828     073A                     u325:
  1829     073A  35B1               	lslf	??_PWM_SetDutyCycle+4,f
  1830     073B  0DB2               	rlf	??_PWM_SetDutyCycle+5,f
  1831     073C  0DB3               	rlf	??_PWM_SetDutyCycle+6,f
  1832     073D  0DB4               	rlf	??_PWM_SetDutyCycle+7,f
  1833     073E                     u320:
  1834     073E  0B89               	decfsz	9,f
  1835     073F  2F3A               	goto	u325
  1836     0740  0834               	movf	??_PWM_SetDutyCycle+7,w
  1837     0741  00A7               	movwf	___lldiv@dividend+3
  1838     0742  0833               	movf	??_PWM_SetDutyCycle+6,w
  1839     0743  00A6               	movwf	___lldiv@dividend+2
  1840     0744  0832               	movf	??_PWM_SetDutyCycle+5,w
  1841     0745  00A5               	movwf	___lldiv@dividend+1
  1842     0746  0831               	movf	??_PWM_SetDutyCycle+4,w
  1843     0747  00A4               	movwf	___lldiv@dividend
  1844     0748  3185  25EE  3186   	fcall	___lldiv
  1845     074B  0020               	movlb	0	; select bank0
  1846     074C  0821               	movf	?___lldiv+1,w
  1847     074D  00B6               	movwf	PWM_SetDutyCycle@duty_10bit+1
  1848     074E  0820               	movf	?___lldiv,w
  1849     074F  00B5               	movwf	PWM_SetDutyCycle@duty_10bit
  1850     0750                     l1391:
  1851                           
  1852                           ;PWM.c: 131:     PWM_SetDutyCycle10bit(channel, duty_10bit);
  1853     0750  0836               	movf	PWM_SetDutyCycle@duty_10bit+1,w
  1854     0751  00F1               	movwf	PWM_SetDutyCycle10bit@duty_value+1
  1855     0752  0835               	movf	PWM_SetDutyCycle@duty_10bit,w
  1856     0753  00F0               	movwf	PWM_SetDutyCycle10bit@duty_value
  1857     0754  0837               	movf	PWM_SetDutyCycle@channel,w
  1858     0755  3185  255C  3186   	fcall	_PWM_SetDutyCycle10bit
  1859     0758                     l134:
  1860     0758  0008               	return
  1861     0759                     __end_of_PWM_SetDutyCycle:
  1862                           
  1863                           	psect	text5
  1864     055C                     __ptext5:	
  1865 ;; *************** function _PWM_SetDutyCycle10bit *****************
  1866 ;; Defined at:
  1867 ;;		line 137 in file "PWM.c"
  1868 ;; Parameters:    Size  Location     Type
  1869 ;;  channel         1    wreg     enum E5283
  1870 ;;  duty_value      2    0[COMMON] unsigned short 
  1871 ;; Auto vars:     Size  Location     Type
  1872 ;;  channel         1    4[COMMON] enum E5283
  1873 ;;  lsb             1    6[COMMON] unsigned char 
  1874 ;;  msb             1    5[COMMON] unsigned char 
  1875 ;; Return value:  Size  Location     Type
  1876 ;;                  1    wreg      void 
  1877 ;; Registers used:
  1878 ;;		wreg, fsr0l, fsr0h, status,2, status,0
  1879 ;; Tracked objects:
  1880 ;;		On entry : 0/0
  1881 ;;		On exit  : 0/0
  1882 ;;		Unchanged: 0/0
  1883 ;; Data sizes:     COMMON   BANK0   BANK1   BANK2   BANK3   BANK4   BANK5   BANK6   BANK7   BANK8   BANK9  BANK10  BANK1
      +1  BANK12  BANK13  BANK14  BANK15  BANK16  BANK17  BANK18  BANK19  BANK20  BANK21  BANK22  BANK23  BANK24  BANK25
  1884 ;;      Params:         2       0       0       0       0       0       0       0       0       0       0       0       
      +0       0       0       0       0       0       0       0       0       0       0       0       0       0       0
  1885 ;;      Locals:         3       0       0       0       0       0       0       0       0       0       0       0       
      +0       0       0       0       0       0       0       0       0       0       0       0       0       0       0
  1886 ;;      Temps:          2       0       0       0       0       0       0       0       0       0       0       0       
      +0       0       0       0       0       0       0       0       0       0       0       0       0       0       0
  1887 ;;      Totals:         7       0       0       0       0       0       0       0       0       0       0       0       
      +0       0       0       0       0       0       0       0       0       0       0       0       0       0       0
  1888 ;;Total ram usage:        7 bytes
  1889 ;; Hardware stack levels used: 1
  1890 ;; This function calls:
  1891 ;;		Nothing
  1892 ;; This function is called by:
  1893 ;;		_PWM_SetDutyCycle
  1894 ;; This function uses a non-reentrant model
  1895 ;;
  1896                           
  1897     055C                     _PWM_SetDutyCycle10bit:	
  1898                           ;psect for function _PWM_SetDutyCycle10bit
  1899                           
  1900                           
  1901                           ;incstack = 0
  1902                           ; Regs used in _PWM_SetDutyCycle10bit: [wreg-fsr0h+status,2+status,0]
  1903                           ;PWM_SetDutyCycle10bit@channel stored from wreg
  1904     055C  00F4               	movwf	PWM_SetDutyCycle10bit@channel
  1905     055D                     l1259:
  1906                           
  1907                           ;PWM.c: 138:     uint8_t msb;;PWM.c: 139:     uint8_t lsb;;PWM.c: 142:     if (duty_valu
      +                          e > 1023) {
  1908     055D  3004               	movlw	4
  1909     055E  0271               	subwf	PWM_SetDutyCycle10bit@duty_value+1,w
  1910     055F  3000               	movlw	0
  1911     0560  1903               	skipnz
  1912     0561  0270               	subwf	PWM_SetDutyCycle10bit@duty_value,w
  1913     0562  1C03               	skipc
  1914     0563  2D65               	goto	u301
  1915     0564  2D66               	goto	u300
  1916     0565                     u301:
  1917     0565  2D6A               	goto	l1263
  1918     0566                     u300:
  1919     0566                     l1261:
  1920                           
  1921                           ;PWM.c: 143:         duty_value = 1023;
  1922     0566  30FF               	movlw	255
  1923     0567  00F0               	movwf	PWM_SetDutyCycle10bit@duty_value
  1924     0568  3003               	movlw	3
  1925     0569  00F1               	movwf	PWM_SetDutyCycle10bit@duty_value+1
  1926     056A                     l1263:
  1927                           
  1928                           ;PWM.c: 147:     msb = (uint8_t)(duty_value >> 2);
  1929     056A  0871               	movf	PWM_SetDutyCycle10bit@duty_value+1,w
  1930     056B  00F3               	movwf	??_PWM_SetDutyCycle10bit+1
  1931     056C  0870               	movf	PWM_SetDutyCycle10bit@duty_value,w
  1932     056D  00F2               	movwf	??_PWM_SetDutyCycle10bit
  1933     056E  36F3               	lsrf	??_PWM_SetDutyCycle10bit+1,f
  1934     056F  0CF2               	rrf	??_PWM_SetDutyCycle10bit,f
  1935     0570  36F3               	lsrf	??_PWM_SetDutyCycle10bit+1,f
  1936     0571  0CF2               	rrf	??_PWM_SetDutyCycle10bit,f
  1937     0572  0872               	movf	??_PWM_SetDutyCycle10bit,w
  1938     0573  00F5               	movwf	PWM_SetDutyCycle10bit@msb
  1939     0574                     l1265:
  1940                           
  1941                           ;PWM.c: 148:     lsb = (uint8_t)(duty_value & 0x03);
  1942     0574  0870               	movf	PWM_SetDutyCycle10bit@duty_value,w
  1943     0575  3903               	andlw	3
  1944     0576  00F6               	movwf	PWM_SetDutyCycle10bit@lsb
  1945                           
  1946                           ;PWM.c: 151:     switch(channel) {
  1947     0577  2D90               	goto	l1277
  1948     0578                     l1267:
  1949                           
  1950                           ;PWM.c: 153:             CCPR1L = msb;
  1951     0578  0875               	movf	PWM_SetDutyCycle10bit@msb,w
  1952     0579  0025               	movlb	5	; select bank5
  1953     057A  0091               	movwf	17	;volatile
  1954     057B                     l1269:
  1955                           
  1956                           ;PWM.c: 154:             CCP1CONbits.DC1B = lsb;
  1957     057B  0876               	movf	PWM_SetDutyCycle10bit@lsb,w
  1958     057C  00F2               	movwf	??_PWM_SetDutyCycle10bit
  1959     057D  0EF2               	swapf	??_PWM_SetDutyCycle10bit,f
  1960     057E  0813               	movf	19,w	;volatile
  1961     057F  0672               	xorwf	??_PWM_SetDutyCycle10bit,w
  1962     0580  39CF               	andlw	-49
  1963     0581  0672               	xorwf	??_PWM_SetDutyCycle10bit,w
  1964     0582  0093               	movwf	19	;volatile
  1965                           
  1966                           ;PWM.c: 155:             break;
  1967     0583  2DA0               	goto	l142
  1968     0584                     l1271:
  1969                           
  1970                           ;PWM.c: 157:             CCPR2L = msb;
  1971     0584  0875               	movf	PWM_SetDutyCycle10bit@msb,w
  1972     0585  0025               	movlb	5	; select bank5
  1973     0586  0098               	movwf	24	;volatile
  1974     0587                     l1273:
  1975                           
  1976                           ;PWM.c: 158:             CCP2CONbits.DC2B = lsb;
  1977     0587  0876               	movf	PWM_SetDutyCycle10bit@lsb,w
  1978     0588  00F2               	movwf	??_PWM_SetDutyCycle10bit
  1979     0589  0EF2               	swapf	??_PWM_SetDutyCycle10bit,f
  1980     058A  081A               	movf	26,w	;volatile
  1981     058B  0672               	xorwf	??_PWM_SetDutyCycle10bit,w
  1982     058C  39CF               	andlw	-49
  1983     058D  0672               	xorwf	??_PWM_SetDutyCycle10bit,w
  1984     058E  009A               	movwf	26	;volatile
  1985                           
  1986                           ;PWM.c: 159:             break;
  1987     058F  2DA0               	goto	l142
  1988     0590                     l1277:
  1989     0590  0874               	movf	PWM_SetDutyCycle10bit@channel,w
  1990     0591  00F2               	movwf	??_PWM_SetDutyCycle10bit
  1991     0592  01F3               	clrf	??_PWM_SetDutyCycle10bit+1
  1992                           
  1993                           ; Switch on 2 bytes has been partitioned into a top level switch of size 1, and 1 sub-sw
      +                          itches
  1994                           ; Switch size 1, requested type "simple"
  1995                           ; Number of cases is 1, Range of values is 0 to 0
  1996                           ; switch strategies available:
  1997                           ; Name         Instructions Cycles
  1998                           ; simple_byte            4     3 (average)
  1999                           ; direct_byte            8     6 (fixed)
  2000                           ; jumptable            260     6 (fixed)
  2001                           ;	Chosen strategy is simple_byte
  2002     0593  0873               	movf	??_PWM_SetDutyCycle10bit+1,w
  2003     0594  3A00               	xorlw	0	; case 0
  2004     0595  1903               	skipnz
  2005     0596  2D98               	goto	l1651
  2006     0597  2DA0               	goto	l142
  2007     0598                     l1651:
  2008                           
  2009                           ; Switch size 1, requested type "simple"
  2010                           ; Number of cases is 2, Range of values is 1 to 2
  2011                           ; switch strategies available:
  2012                           ; Name         Instructions Cycles
  2013                           ; simple_byte            7     4 (average)
  2014                           ; direct_byte           13     9 (fixed)
  2015                           ; jumptable            263     9 (fixed)
  2016                           ;	Chosen strategy is simple_byte
  2017     0598  0872               	movf	??_PWM_SetDutyCycle10bit,w
  2018     0599  3A01               	xorlw	1	; case 1
  2019     059A  1903               	skipnz
  2020     059B  2D78               	goto	l1267
  2021     059C  3A03               	xorlw	3	; case 2
  2022     059D  1903               	skipnz
  2023     059E  2D84               	goto	l1271
  2024     059F  2DA0               	goto	l142
  2025     05A0                     l142:
  2026     05A0  0008               	return
  2027     05A1                     __end_of_PWM_SetDutyCycle10bit:
  2028                           
  2029                           	psect	text6
  2030     0759                     __ptext6:	
  2031 ;; *************** function _PWM_Init *****************
  2032 ;; Defined at:
  2033 ;;		line 42 in file "PWM.c"
  2034 ;; Parameters:    Size  Location     Type
  2035 ;;  channel         1    wreg     enum E5283
  2036 ;;  timer           1   33[BANK0 ] enum E5287
  2037 ;;  freq_hz         4   34[BANK0 ] unsigned long 
  2038 ;; Auto vars:     Size  Location     Type
  2039 ;;  channel         1   40[BANK0 ] enum E5283
  2040 ;;  prescaler       1   42[BANK0 ] enum E5292
  2041 ;;  pr_value        1   41[BANK0 ] unsigned char 
  2042 ;; Return value:  Size  Location     Type
  2043 ;;                  1    wreg      void 
  2044 ;; Registers used:
  2045 ;;		wreg, fsr0l, fsr0h, fsr1l, fsr1h, status,2, status,0, pclath, cstack
  2046 ;; Tracked objects:
  2047 ;;		On entry : 0/0
  2048 ;;		On exit  : 0/0
  2049 ;;		Unchanged: 0/0
  2050 ;; Data sizes:     COMMON   BANK0   BANK1   BANK2   BANK3   BANK4   BANK5   BANK6   BANK7   BANK8   BANK9  BANK10  BANK1
      +1  BANK12  BANK13  BANK14  BANK15  BANK16  BANK17  BANK18  BANK19  BANK20  BANK21  BANK22  BANK23  BANK24  BANK25
  2051 ;;      Params:         0       5       0       0       0       0       0       0       0       0       0       0       
      +0       0       0       0       0       0       0       0       0       0       0       0       0       0       0
  2052 ;;      Locals:         0       3       0       0       0       0       0       0       0       0       0       0       
      +0       0       0       0       0       0       0       0       0       0       0       0       0       0       0
  2053 ;;      Temps:          0       2       0       0       0       0       0       0       0       0       0       0       
      +0       0       0       0       0       0       0       0       0       0       0       0       0       0       0
  2054 ;;      Totals:         0      10       0       0       0       0       0       0       0       0       0       0       
      +0       0       0       0       0       0       0       0       0       0       0       0       0       0       0
  2055 ;;Total ram usage:       10 bytes
  2056 ;; Hardware stack levels used: 1
  2057 ;; Hardware stack levels required when called: 2
  2058 ;; This function calls:
  2059 ;;		_calculate_timer_settings
  2060 ;; This function is called by:
  2061 ;;		_main
  2062 ;; This function uses a non-reentrant model
  2063 ;;
  2064                           
  2065     0759                     _PWM_Init:	
  2066                           ;psect for function _PWM_Init
  2067                           
  2068                           
  2069                           ;incstack = 0
  2070                           ; Regs used in _PWM_Init: [wreg-fsr1h+status,2+status,0+pclath+cstack]
  2071                           ;PWM_Init@channel stored from wreg
  2072     0759  0020               	movlb	0	; select bank0
  2073     075A  00C8               	movwf	PWM_Init@channel
  2074     075B                     l1283:
  2075                           
  2076                           ;PWM.c: 43:     uint8_t pr_value;;PWM.c: 44:     PWM_Prescaler prescaler;;PWM.c: 47:    
      +                           calculate_timer_settings(freq_hz, &pr_value, &prescaler);
  2077     075B  0845               	movf	PWM_Init@freq_hz+3,w
  2078     075C  00B0               	movwf	calculate_timer_settings@freq_hz+3
  2079     075D  0844               	movf	PWM_Init@freq_hz+2,w
  2080     075E  00AF               	movwf	calculate_timer_settings@freq_hz+2
  2081     075F  0843               	movf	PWM_Init@freq_hz+1,w
  2082     0760  00AE               	movwf	calculate_timer_settings@freq_hz+1
  2083     0761  0842               	movf	PWM_Init@freq_hz,w
  2084     0762  00AD               	movwf	calculate_timer_settings@freq_hz
  2085     0763  3049               	movlw	(low (PWM_Init@pr_value| 0))& (0+255)
  2086     0764  00B1               	movwf	calculate_timer_settings@pr_value
  2087     0765  304A               	movlw	(low (PWM_Init@prescaler| 0))& (0+255)
  2088     0766  00B2               	movwf	calculate_timer_settings@prescaler
  2089     0767  3186  2649  3187   	fcall	_calculate_timer_settings
  2090                           
  2091                           ;PWM.c: 50:     switch(channel) {
  2092     076A  2F81               	goto	l1291
  2093     076B                     l1285:
  2094                           
  2095                           ;PWM.c: 52:             CCPTMRSbits.C1TSEL = timer;
  2096     076B  0025               	movlb	5	; select bank5
  2097     076C  081E               	movf	30,w	;volatile
  2098     076D  0020               	movlb	0	; select bank0
  2099     076E  0641               	xorwf	PWM_Init@timer,w
  2100     076F  39FC               	andlw	-4
  2101     0770  0641               	xorwf	PWM_Init@timer,w
  2102     0771  0025               	movlb	5	; select bank5
  2103     0772  009E               	movwf	30	;volatile
  2104                           
  2105                           ;PWM.c: 53:             break;
  2106     0773  2FB7               	goto	l1313
  2107     0774                     l1287:
  2108                           
  2109                           ;PWM.c: 55:             CCPTMRSbits.C2TSEL = timer;
  2110     0774  0841               	movf	PWM_Init@timer,w
  2111     0775  00C6               	movwf	??_PWM_Init
  2112     0776  0DC6               	rlf	??_PWM_Init,f
  2113     0777  0DC6               	rlf	??_PWM_Init,f
  2114     0778  0025               	movlb	5	; select bank5
  2115     0779  081E               	movf	30,w	;volatile
  2116     077A  0020               	movlb	0	; select bank0
  2117     077B  0646               	xorwf	??_PWM_Init,w
  2118     077C  39F3               	andlw	-13
  2119     077D  0646               	xorwf	??_PWM_Init,w
  2120     077E  0025               	movlb	5	; select bank5
  2121     077F  009E               	movwf	30	;volatile
  2122                           
  2123                           ;PWM.c: 56:             break;
  2124     0780  2FB7               	goto	l1313
  2125     0781                     l1291:
  2126     0781  0020               	movlb	0	; select bank0
  2127     0782  0848               	movf	PWM_Init@channel,w
  2128     0783  00C6               	movwf	??_PWM_Init
  2129     0784  01C7               	clrf	??_PWM_Init+1
  2130                           
  2131                           ; Switch on 2 bytes has been partitioned into a top level switch of size 1, and 1 sub-sw
      +                          itches
  2132                           ; Switch size 1, requested type "simple"
  2133                           ; Number of cases is 1, Range of values is 0 to 0
  2134                           ; switch strategies available:
  2135                           ; Name         Instructions Cycles
  2136                           ; simple_byte            4     3 (average)
  2137                           ; direct_byte            8     6 (fixed)
  2138                           ; jumptable            260     6 (fixed)
  2139                           ;	Chosen strategy is simple_byte
  2140     0785  0847               	movf	??_PWM_Init+1,w
  2141     0786  3A00               	xorlw	0	; case 0
  2142     0787  1903               	skipnz
  2143     0788  2F8A               	goto	l1653
  2144     0789  2FB7               	goto	l1313
  2145     078A                     l1653:
  2146                           
  2147                           ; Switch size 1, requested type "simple"
  2148                           ; Number of cases is 2, Range of values is 1 to 2
  2149                           ; switch strategies available:
  2150                           ; Name         Instructions Cycles
  2151                           ; simple_byte            7     4 (average)
  2152                           ; direct_byte           13     9 (fixed)
  2153                           ; jumptable            263     9 (fixed)
  2154                           ;	Chosen strategy is simple_byte
  2155     078A  0846               	movf	??_PWM_Init,w
  2156     078B  3A01               	xorlw	1	; case 1
  2157     078C  1903               	skipnz
  2158     078D  2F6B               	goto	l1285
  2159     078E  3A03               	xorlw	3	; case 2
  2160     078F  1903               	skipnz
  2161     0790  2F74               	goto	l1287
  2162     0791  2FB7               	goto	l1313
  2163     0792                     l1293:
  2164                           
  2165                           ;PWM.c: 62:             T2CONbits.T2CKPS = prescaler;
  2166     0792  081C               	movf	28,w	;volatile
  2167     0793  064A               	xorwf	PWM_Init@prescaler,w
  2168     0794  39FC               	andlw	-4
  2169     0795  064A               	xorwf	PWM_Init@prescaler,w
  2170     0796  009C               	movwf	28	;volatile
  2171     0797                     l1295:
  2172                           
  2173                           ;PWM.c: 63:             PR2 = pr_value;
  2174     0797  0849               	movf	PWM_Init@pr_value,w
  2175     0798  009B               	movwf	27	;volatile
  2176     0799                     l1297:
  2177                           
  2178                           ;PWM.c: 64:             T2CONbits.TMR2ON = 1;
  2179     0799  151C               	bsf	28,2	;volatile
  2180                           
  2181                           ;PWM.c: 65:             break;
  2182     079A  2FDB               	goto	l1321
  2183     079B                     l1299:
  2184                           
  2185                           ;PWM.c: 68:             T4CONbits.T4CKPS = prescaler;
  2186     079B  0028               	movlb	8	; select bank8
  2187     079C  0817               	movf	23,w	;volatile
  2188     079D  0020               	movlb	0	; select bank0
  2189     079E  064A               	xorwf	PWM_Init@prescaler,w
  2190     079F  39FC               	andlw	-4
  2191     07A0  064A               	xorwf	PWM_Init@prescaler,w
  2192     07A1  0028               	movlb	8	; select bank8
  2193     07A2  0097               	movwf	23	;volatile
  2194     07A3                     l1301:
  2195                           
  2196                           ;PWM.c: 69:             PR4 = pr_value;
  2197     07A3  0020               	movlb	0	; select bank0
  2198     07A4  0849               	movf	PWM_Init@pr_value,w
  2199     07A5  0028               	movlb	8	; select bank8
  2200     07A6  0096               	movwf	22	;volatile
  2201     07A7                     l1303:
  2202                           
  2203                           ;PWM.c: 70:             T4CONbits.TMR4ON = 1;
  2204     07A7  1517               	bsf	23,2	;volatile
  2205                           
  2206                           ;PWM.c: 71:             break;
  2207     07A8  2FDB               	goto	l1321
  2208     07A9                     l1305:
  2209                           
  2210                           ;PWM.c: 74:             T6CONbits.T6CKPS = prescaler;
  2211     07A9  0028               	movlb	8	; select bank8
  2212     07AA  081E               	movf	30,w	;volatile
  2213     07AB  0020               	movlb	0	; select bank0
  2214     07AC  064A               	xorwf	PWM_Init@prescaler,w
  2215     07AD  39FC               	andlw	-4
  2216     07AE  064A               	xorwf	PWM_Init@prescaler,w
  2217     07AF  0028               	movlb	8	; select bank8
  2218     07B0  009E               	movwf	30	;volatile
  2219     07B1                     l1307:
  2220                           
  2221                           ;PWM.c: 75:             PR6 = pr_value;
  2222     07B1  0020               	movlb	0	; select bank0
  2223     07B2  0849               	movf	PWM_Init@pr_value,w
  2224     07B3  0028               	movlb	8	; select bank8
  2225     07B4  009D               	movwf	29	;volatile
  2226     07B5                     l1309:
  2227                           
  2228                           ;PWM.c: 76:             T6CONbits.TMR6ON = 1;
  2229     07B5  151E               	bsf	30,2	;volatile
  2230                           
  2231                           ;PWM.c: 77:             break;
  2232     07B6  2FDB               	goto	l1321
  2233     07B7                     l1313:
  2234     07B7  0020               	movlb	0	; select bank0
  2235     07B8  0841               	movf	PWM_Init@timer,w
  2236     07B9  00C6               	movwf	??_PWM_Init
  2237     07BA  01C7               	clrf	??_PWM_Init+1
  2238                           
  2239                           ; Switch on 2 bytes has been partitioned into a top level switch of size 1, and 1 sub-sw
      +                          itches
  2240                           ; Switch size 1, requested type "simple"
  2241                           ; Number of cases is 1, Range of values is 0 to 0
  2242                           ; switch strategies available:
  2243                           ; Name         Instructions Cycles
  2244                           ; simple_byte            4     3 (average)
  2245                           ; direct_byte            8     6 (fixed)
  2246                           ; jumptable            260     6 (fixed)
  2247                           ;	Chosen strategy is simple_byte
  2248     07BB  0847               	movf	??_PWM_Init+1,w
  2249     07BC  3A00               	xorlw	0	; case 0
  2250     07BD  1903               	skipnz
  2251     07BE  2FC0               	goto	l1655
  2252     07BF  2FDB               	goto	l1321
  2253     07C0                     l1655:
  2254                           
  2255                           ; Switch size 1, requested type "simple"
  2256                           ; Number of cases is 3, Range of values is 0 to 2
  2257                           ; switch strategies available:
  2258                           ; Name         Instructions Cycles
  2259                           ; simple_byte           10     6 (average)
  2260                           ; direct_byte           12     6 (fixed)
  2261                           ; jumptable            260     6 (fixed)
  2262                           ;	Chosen strategy is simple_byte
  2263     07C0  0846               	movf	??_PWM_Init,w
  2264     07C1  3A00               	xorlw	0	; case 0
  2265     07C2  1903               	skipnz
  2266     07C3  2F92               	goto	l1293
  2267     07C4  3A01               	xorlw	1	; case 1
  2268     07C5  1903               	skipnz
  2269     07C6  2F9B               	goto	l1299
  2270     07C7  3A03               	xorlw	3	; case 2
  2271     07C8  1903               	skipnz
  2272     07C9  2FA9               	goto	l1305
  2273     07CA  2FDB               	goto	l1321
  2274     07CB                     l1315:
  2275                           
  2276                           ;PWM.c: 83:             CCP1CONbits.CCP1M = 0b1100;
  2277     07CB  0025               	movlb	5	; select bank5
  2278     07CC  0813               	movf	19,w	;volatile
  2279     07CD  39F0               	andlw	-16
  2280     07CE  380C               	iorlw	12
  2281     07CF  0093               	movwf	19	;volatile
  2282                           
  2283                           ;PWM.c: 84:             CCP1CONbits.DC1B = 0;
  2284     07D0  30CF               	movlw	-49
  2285     07D1  0593               	andwf	19,f	;volatile
  2286                           
  2287                           ;PWM.c: 85:             break;
  2288     07D2  2FEC               	goto	l113
  2289     07D3                     l1317:
  2290                           
  2291                           ;PWM.c: 87:             CCP2CONbits.CCP2M = 0b1100;
  2292     07D3  0025               	movlb	5	; select bank5
  2293     07D4  081A               	movf	26,w	;volatile
  2294     07D5  39F0               	andlw	-16
  2295     07D6  380C               	iorlw	12
  2296     07D7  009A               	movwf	26	;volatile
  2297                           
  2298                           ;PWM.c: 88:             CCP2CONbits.DC2B = 0;
  2299     07D8  30CF               	movlw	-49
  2300     07D9  059A               	andwf	26,f	;volatile
  2301                           
  2302                           ;PWM.c: 89:             break;
  2303     07DA  2FEC               	goto	l113
  2304     07DB                     l1321:
  2305     07DB  0020               	movlb	0	; select bank0
  2306     07DC  0848               	movf	PWM_Init@channel,w
  2307     07DD  00C6               	movwf	??_PWM_Init
  2308     07DE  01C7               	clrf	??_PWM_Init+1
  2309                           
  2310                           ; Switch on 2 bytes has been partitioned into a top level switch of size 1, and 1 sub-sw
      +                          itches
  2311                           ; Switch size 1, requested type "simple"
  2312                           ; Number of cases is 1, Range of values is 0 to 0
  2313                           ; switch strategies available:
  2314                           ; Name         Instructions Cycles
  2315                           ; simple_byte            4     3 (average)
  2316                           ; direct_byte            8     6 (fixed)
  2317                           ; jumptable            260     6 (fixed)
  2318                           ;	Chosen strategy is simple_byte
  2319     07DF  0847               	movf	??_PWM_Init+1,w
  2320     07E0  3A00               	xorlw	0	; case 0
  2321     07E1  1903               	skipnz
  2322     07E2  2FE4               	goto	l1657
  2323     07E3  2FEC               	goto	l113
  2324     07E4                     l1657:
  2325                           
  2326                           ; Switch size 1, requested type "simple"
  2327                           ; Number of cases is 2, Range of values is 1 to 2
  2328                           ; switch strategies available:
  2329                           ; Name         Instructions Cycles
  2330                           ; simple_byte            7     4 (average)
  2331                           ; direct_byte           13     9 (fixed)
  2332                           ; jumptable            263     9 (fixed)
  2333                           ;	Chosen strategy is simple_byte
  2334     07E4  0846               	movf	??_PWM_Init,w
  2335     07E5  3A01               	xorlw	1	; case 1
  2336     07E6  1903               	skipnz
  2337     07E7  2FCB               	goto	l1315
  2338     07E8  3A03               	xorlw	3	; case 2
  2339     07E9  1903               	skipnz
  2340     07EA  2FD3               	goto	l1317
  2341     07EB  2FEC               	goto	l113
  2342     07EC                     l113:
  2343     07EC  0008               	return
  2344     07ED                     __end_of_PWM_Init:
  2345                           
  2346                           	psect	text7
  2347     0649                     __ptext7:	
  2348 ;; *************** function _calculate_timer_settings *****************
  2349 ;; Defined at:
  2350 ;;		line 18 in file "PWM.c"
  2351 ;; Parameters:    Size  Location     Type
  2352 ;;  freq_hz         4   13[BANK0 ] unsigned long 
  2353 ;;  pr_value        1   17[BANK0 ] PTR unsigned char 
  2354 ;;		 -> PWM_SetFrequency@pr_value(1), PWM_Init@pr_value(1), 
  2355 ;;  prescaler       1   18[BANK0 ] PTR enum E5292
  2356 ;;		 -> PWM_SetFrequency@prescaler(1), PWM_Init@prescaler(1), 
  2357 ;; Auto vars:     Size  Location     Type
  2358 ;;  i               2   31[BANK0 ] int 
  2359 ;;  period          4   27[BANK0 ] unsigned long 
  2360 ;;  prescale_val    4   23[BANK0 ] unsigned char [4]
  2361 ;; Return value:  Size  Location     Type
  2362 ;;                  1    wreg      void 
  2363 ;; Registers used:
  2364 ;;		wreg, fsr1l, fsr1h, status,2, status,0, pclath, cstack
  2365 ;; Tracked objects:
  2366 ;;		On entry : 0/0
  2367 ;;		On exit  : 0/0
  2368 ;;		Unchanged: 0/0
  2369 ;; Data sizes:     COMMON   BANK0   BANK1   BANK2   BANK3   BANK4   BANK5   BANK6   BANK7   BANK8   BANK9  BANK10  BANK1
      +1  BANK12  BANK13  BANK14  BANK15  BANK16  BANK17  BANK18  BANK19  BANK20  BANK21  BANK22  BANK23  BANK24  BANK25
  2370 ;;      Params:         0       6       0       0       0       0       0       0       0       0       0       0       
      +0       0       0       0       0       0       0       0       0       0       0       0       0       0       0
  2371 ;;      Locals:         0      10       0       0       0       0       0       0       0       0       0       0       
      +0       0       0       0       0       0       0       0       0       0       0       0       0       0       0
  2372 ;;      Temps:          0       4       0       0       0       0       0       0       0       0       0       0       
      +0       0       0       0       0       0       0       0       0       0       0       0       0       0       0
  2373 ;;      Totals:         0      20       0       0       0       0       0       0       0       0       0       0       
      +0       0       0       0       0       0       0       0       0       0       0       0       0       0       0
  2374 ;;Total ram usage:       20 bytes
  2375 ;; Hardware stack levels used: 1
  2376 ;; Hardware stack levels required when called: 1
  2377 ;; This function calls:
  2378 ;;		___lldiv
  2379 ;;		___lmul
  2380 ;; This function is called by:
  2381 ;;		_PWM_Init
  2382 ;;		_PWM_SetFrequency
  2383 ;; This function uses a non-reentrant model
  2384 ;;
  2385                           
  2386     0649                     _calculate_timer_settings:	
  2387                           ;psect for function _calculate_timer_settings
  2388                           
  2389     0649                     l1239:	
  2390                           ;incstack = 0
  2391                           ; Regs used in _calculate_timer_settings: [wreg+fsr1l+fsr1h+status,2+status,0+pclath+cst
      +                          ack]
  2392                           
  2393                           
  2394                           ;PWM.c: 18: static void calculate_timer_settings(uint32_t freq_hz, uint8_t *pr_value,;PW
      +                          M.c: 19:                                     PWM_Prescaler *prescaler) {;PWM.c: 20:     
      +                          uint32_t period;;PWM.c: 21:     uint8_t prescale_values[] = {1, 4, 16, 64};
  2395     0649  0020               	movlb	0	; select bank0
  2396     064A  084E               	movf	calculate_timer_settings@F5325+3,w
  2397     064B  00BA               	movwf	calculate_timer_settings@prescale_values+3
  2398     064C  084D               	movf	calculate_timer_settings@F5325+2,w
  2399     064D  00B9               	movwf	calculate_timer_settings@prescale_values+2
  2400     064E  084C               	movf	calculate_timer_settings@F5325+1,w
  2401     064F  00B8               	movwf	calculate_timer_settings@prescale_values+1
  2402     0650  084B               	movf	calculate_timer_settings@F5325,w
  2403     0651  00B7               	movwf	calculate_timer_settings@prescale_values
  2404     0652                     l1241:
  2405                           
  2406                           ;PWM.c: 24:     for (int i = 0; i < 4; i++) {
  2407     0652  01BF               	clrf	calculate_timer_settings@i
  2408     0653  01C0               	clrf	calculate_timer_settings@i+1
  2409     0654                     l1247:
  2410                           
  2411                           ;PWM.c: 25:         period = ((32000000 / 4) / (freq_hz * prescale_values[i])) - 1;
  2412     0654  0020               	movlb	0	; select bank0
  2413     0655  083F               	movf	calculate_timer_settings@i,w
  2414     0656  3E37               	addlw	(low (calculate_timer_settings@prescale_values| 0))& (0+255)
  2415     0657  0086               	movwf	6
  2416     0658  0187               	clrf	7
  2417     0659  0801               	movf	1,w
  2418     065A  00B3               	movwf	??_calculate_timer_settings
  2419     065B  01B4               	clrf	??_calculate_timer_settings+1
  2420     065C  01B5               	clrf	??_calculate_timer_settings+2
  2421     065D  01B6               	clrf	??_calculate_timer_settings+3
  2422     065E  0836               	movf	??_calculate_timer_settings+3,w
  2423     065F  00F3               	movwf	___lmul@multiplier+3
  2424     0660  0835               	movf	??_calculate_timer_settings+2,w
  2425     0661  00F2               	movwf	___lmul@multiplier+2
  2426     0662  0834               	movf	??_calculate_timer_settings+1,w
  2427     0663  00F1               	movwf	___lmul@multiplier+1
  2428     0664  0833               	movf	??_calculate_timer_settings,w
  2429     0665  00F0               	movwf	___lmul@multiplier
  2430     0666  0830               	movf	calculate_timer_settings@freq_hz+3,w
  2431     0667  00F7               	movwf	___lmul@multiplicand+3
  2432     0668  082F               	movf	calculate_timer_settings@freq_hz+2,w
  2433     0669  00F6               	movwf	___lmul@multiplicand+2
  2434     066A  082E               	movf	calculate_timer_settings@freq_hz+1,w
  2435     066B  00F5               	movwf	___lmul@multiplicand+1
  2436     066C  082D               	movf	calculate_timer_settings@freq_hz,w
  2437     066D  00F4               	movwf	___lmul@multiplicand
  2438     066E  3185  2529  3186   	fcall	___lmul
  2439     0671  0873               	movf	?___lmul+3,w
  2440     0672  0020               	movlb	0	; select bank0
  2441     0673  00A3               	movwf	___lldiv@divisor+3
  2442     0674  0872               	movf	?___lmul+2,w
  2443     0675  00A2               	movwf	___lldiv@divisor+2
  2444     0676  0871               	movf	?___lmul+1,w
  2445     0677  00A1               	movwf	___lldiv@divisor+1
  2446     0678  0870               	movf	?___lmul,w
  2447     0679  00A0               	movwf	___lldiv@divisor
  2448     067A  3000               	movlw	0
  2449     067B  00A7               	movwf	___lldiv@dividend+3
  2450     067C  307A               	movlw	122
  2451     067D  00A6               	movwf	___lldiv@dividend+2
  2452     067E  3012               	movlw	18
  2453     067F  00A5               	movwf	___lldiv@dividend+1
  2454     0680  3000               	movlw	0
  2455     0681  00A4               	movwf	___lldiv@dividend
  2456     0682  3185  25EE  3186   	fcall	___lldiv
  2457     0685  30FF               	movlw	255
  2458     0686  0020               	movlb	0	; select bank0
  2459     0687  0720               	addwf	?___lldiv,w
  2460     0688  00BB               	movwf	calculate_timer_settings@period
  2461     0689  30FF               	movlw	255
  2462     068A  3D21               	addwfc	?___lldiv+1,w
  2463     068B  00BC               	movwf	calculate_timer_settings@period+1
  2464     068C  30FF               	movlw	255
  2465     068D  3D22               	addwfc	?___lldiv+2,w
  2466     068E  00BD               	movwf	calculate_timer_settings@period+2
  2467     068F  30FF               	movlw	255
  2468     0690  3D23               	addwfc	?___lldiv+3,w
  2469     0691  00BE               	movwf	calculate_timer_settings@period+3
  2470     0692                     l1249:
  2471                           
  2472                           ;PWM.c: 27:         if (period <= 255) {
  2473     0692  083E               	movf	calculate_timer_settings@period+3,w
  2474     0693  1D03               	btfss	3,2
  2475     0694  2E9D               	goto	u281
  2476     0695  083D               	movf	calculate_timer_settings@period+2,w
  2477     0696  1D03               	btfss	3,2
  2478     0697  2E9D               	goto	u281
  2479     0698  3001               	movlw	1
  2480     0699  023C               	subwf	calculate_timer_settings@period+1,w
  2481     069A  1803               	btfsc	3,0
  2482     069B  2E9D               	goto	u281
  2483     069C  2E9E               	goto	u280
  2484     069D                     u281:
  2485     069D  2EAA               	goto	l1255
  2486     069E                     u280:
  2487     069E                     l1251:
  2488                           
  2489                           ;PWM.c: 28:             *pr_value = (uint8_t)period;
  2490     069E  0020               	movlb	0	; select bank0
  2491     069F  0831               	movf	calculate_timer_settings@pr_value,w
  2492     06A0  0086               	movwf	6
  2493     06A1  0187               	clrf	7
  2494     06A2  083B               	movf	calculate_timer_settings@period,w
  2495     06A3  0081               	movwf	1
  2496                           
  2497                           ;PWM.c: 29:             *prescaler = (PWM_Prescaler)i;
  2498     06A4  0832               	movf	calculate_timer_settings@prescaler,w
  2499     06A5  0086               	movwf	6
  2500     06A6  0187               	clrf	7
  2501     06A7  083F               	movf	calculate_timer_settings@i,w
  2502     06A8  0081               	movwf	1
  2503     06A9  2EC7               	goto	l97
  2504     06AA                     l1255:
  2505                           
  2506                           ;PWM.c: 32:     }
  2507     06AA  3001               	movlw	1
  2508     06AB  0020               	movlb	0	; select bank0
  2509     06AC  07BF               	addwf	calculate_timer_settings@i,f
  2510     06AD  3000               	movlw	0
  2511     06AE  3DC0               	addwfc	calculate_timer_settings@i+1,f
  2512     06AF  0840               	movf	calculate_timer_settings@i+1,w
  2513     06B0  3A80               	xorlw	128
  2514     06B1  00B3               	movwf	??_calculate_timer_settings
  2515     06B2  3080               	movlw	128
  2516     06B3  0233               	subwf	??_calculate_timer_settings,w
  2517     06B4  1D03               	skipz
  2518     06B5  2EB8               	goto	u295
  2519     06B6  3004               	movlw	4
  2520     06B7  023F               	subwf	calculate_timer_settings@i,w
  2521     06B8                     u295:
  2522     06B8  1C03               	skipc
  2523     06B9  2EBB               	goto	u291
  2524     06BA  2EBC               	goto	u290
  2525     06BB                     u291:
  2526     06BB  2E54               	goto	l1247
  2527     06BC                     u290:
  2528     06BC                     l1257:
  2529                           
  2530                           ;PWM.c: 35:     *pr_value = 255;
  2531     06BC  0020               	movlb	0	; select bank0
  2532     06BD  0831               	movf	calculate_timer_settings@pr_value,w
  2533     06BE  0086               	movwf	6
  2534     06BF  0187               	clrf	7
  2535     06C0  30FF               	movlw	255
  2536     06C1  0081               	movwf	1
  2537                           
  2538                           ;PWM.c: 36:     *prescaler = PWM_PRESCALE_64;
  2539     06C2  0832               	movf	calculate_timer_settings@prescaler,w
  2540     06C3  0086               	movwf	6
  2541     06C4  0187               	clrf	7
  2542     06C5  3003               	movlw	3
  2543     06C6  0081               	movwf	1
  2544     06C7                     l97:
  2545     06C7  0008               	return
  2546     06C8                     __end_of_calculate_timer_settings:
  2547                           
  2548                           	psect	text8
  2549     0529                     __ptext8:	
  2550 ;; *************** function ___lmul *****************
  2551 ;; Defined at:
  2552 ;;		line 15 in file "C:\Program Files\Microchip\xc8\v2.46\pic\sources\c99\common\Umul32.c"
  2553 ;; Parameters:    Size  Location     Type
  2554 ;;  multiplier      4    0[COMMON] unsigned long 
  2555 ;;  multiplicand    4    4[COMMON] unsigned long 
  2556 ;; Auto vars:     Size  Location     Type
  2557 ;;  product         4    8[COMMON] unsigned long 
  2558 ;; Return value:  Size  Location     Type
  2559 ;;                  4    0[COMMON] unsigned long 
  2560 ;; Registers used:
  2561 ;;		wreg, status,2, status,0
  2562 ;; Tracked objects:
  2563 ;;		On entry : 0/0
  2564 ;;		On exit  : 0/0
  2565 ;;		Unchanged: 0/0
  2566 ;; Data sizes:     COMMON   BANK0   BANK1   BANK2   BANK3   BANK4   BANK5   BANK6   BANK7   BANK8   BANK9  BANK10  BANK1
      +1  BANK12  BANK13  BANK14  BANK15  BANK16  BANK17  BANK18  BANK19  BANK20  BANK21  BANK22  BANK23  BANK24  BANK25
  2567 ;;      Params:         8       0       0       0       0       0       0       0       0       0       0       0       
      +0       0       0       0       0       0       0       0       0       0       0       0       0       0       0
  2568 ;;      Locals:         4       0       0       0       0       0       0       0       0       0       0       0       
      +0       0       0       0       0       0       0       0       0       0       0       0       0       0       0
  2569 ;;      Temps:          0       0       0       0       0       0       0       0       0       0       0       0       
      +0       0       0       0       0       0       0       0       0       0       0       0       0       0       0
  2570 ;;      Totals:        12       0       0       0       0       0       0       0       0       0       0       0       
      +0       0       0       0       0       0       0       0       0       0       0       0       0       0       0
  2571 ;;Total ram usage:       12 bytes
  2572 ;; Hardware stack levels used: 1
  2573 ;; This function calls:
  2574 ;;		Nothing
  2575 ;; This function is called by:
  2576 ;;		_calculate_timer_settings
  2577 ;;		_PWM_SetDutyCycle
  2578 ;;		_PWM_GetDutyCycle
  2579 ;; This function uses a non-reentrant model
  2580 ;;
  2581                           
  2582     0529                     ___lmul:	
  2583                           ;psect for function ___lmul
  2584                           
  2585     0529                     l1201:	
  2586                           ;incstack = 0
  2587                           ; Regs used in ___lmul: [wreg+status,2+status,0]
  2588                           
  2589     0529  3000               	movlw	0
  2590     052A  00FB               	movwf	___lmul@product+3
  2591     052B  3000               	movlw	0
  2592     052C  00FA               	movwf	___lmul@product+2
  2593     052D  3000               	movlw	0
  2594     052E  00F9               	movwf	___lmul@product+1
  2595     052F  3000               	movlw	0
  2596     0530  00F8               	movwf	___lmul@product
  2597     0531                     l1203:
  2598     0531  1C70               	btfss	___lmul@multiplier,0
  2599     0532  2D34               	goto	u171
  2600     0533  2D35               	goto	u170
  2601     0534                     u171:
  2602     0534  2D3D               	goto	l1207
  2603     0535                     u170:
  2604     0535                     l1205:
  2605     0535  0874               	movf	___lmul@multiplicand,w
  2606     0536  07F8               	addwf	___lmul@product,f
  2607     0537  0875               	movf	___lmul@multiplicand+1,w
  2608     0538  3DF9               	addwfc	___lmul@product+1,f
  2609     0539  0876               	movf	___lmul@multiplicand+2,w
  2610     053A  3DFA               	addwfc	___lmul@product+2,f
  2611     053B  0877               	movf	___lmul@multiplicand+3,w
  2612     053C  3DFB               	addwfc	___lmul@product+3,f
  2613     053D                     l1207:
  2614     053D  3001               	movlw	1
  2615     053E                     u185:
  2616     053E  35F4               	lslf	___lmul@multiplicand,f
  2617     053F  0DF5               	rlf	___lmul@multiplicand+1,f
  2618     0540  0DF6               	rlf	___lmul@multiplicand+2,f
  2619     0541  0DF7               	rlf	___lmul@multiplicand+3,f
  2620     0542  0B89               	decfsz	9,f
  2621     0543  2D3E               	goto	u185
  2622     0544                     l1209:
  2623     0544  3001               	movlw	1
  2624     0545                     u195:
  2625     0545  36F3               	lsrf	___lmul@multiplier+3,f
  2626     0546  0CF2               	rrf	___lmul@multiplier+2,f
  2627     0547  0CF1               	rrf	___lmul@multiplier+1,f
  2628     0548  0CF0               	rrf	___lmul@multiplier,f
  2629     0549  0B89               	decfsz	9,f
  2630     054A  2D45               	goto	u195
  2631     054B  0873               	movf	___lmul@multiplier+3,w
  2632     054C  0472               	iorwf	___lmul@multiplier+2,w
  2633     054D  0471               	iorwf	___lmul@multiplier+1,w
  2634     054E  0470               	iorwf	___lmul@multiplier,w
  2635     054F  1D03               	skipz
  2636     0550  2D52               	goto	u201
  2637     0551  2D53               	goto	u200
  2638     0552                     u201:
  2639     0552  2D31               	goto	l1203
  2640     0553                     u200:
  2641     0553                     l1211:
  2642     0553  087B               	movf	___lmul@product+3,w
  2643     0554  00F3               	movwf	?___lmul+3
  2644     0555  087A               	movf	___lmul@product+2,w
  2645     0556  00F2               	movwf	?___lmul+2
  2646     0557  0879               	movf	___lmul@product+1,w
  2647     0558  00F1               	movwf	?___lmul+1
  2648     0559  0878               	movf	___lmul@product,w
  2649     055A  00F0               	movwf	?___lmul
  2650     055B                     l271:
  2651     055B  0008               	return
  2652     055C                     __end_of___lmul:
  2653                           
  2654                           	psect	text9
  2655     05EE                     __ptext9:	
  2656 ;; *************** function ___lldiv *****************
  2657 ;; Defined at:
  2658 ;;		line 5 in file "C:\Program Files\Microchip\xc8\v2.46\pic\sources\c99\common\__lldiv.c"
  2659 ;; Parameters:    Size  Location     Type
  2660 ;;  divisor         4    0[BANK0 ] unsigned long 
  2661 ;;  dividend        4    4[BANK0 ] unsigned long 
  2662 ;; Auto vars:     Size  Location     Type
  2663 ;;  quotient        4    8[BANK0 ] unsigned long 
  2664 ;;  counter         1   12[BANK0 ] unsigned char 
  2665 ;; Return value:  Size  Location     Type
  2666 ;;                  4    0[BANK0 ] unsigned long 
  2667 ;; Registers used:
  2668 ;;		wreg, status,2, status,0
  2669 ;; Tracked objects:
  2670 ;;		On entry : 0/0
  2671 ;;		On exit  : 0/0
  2672 ;;		Unchanged: 0/0
  2673 ;; Data sizes:     COMMON   BANK0   BANK1   BANK2   BANK3   BANK4   BANK5   BANK6   BANK7   BANK8   BANK9  BANK10  BANK1
      +1  BANK12  BANK13  BANK14  BANK15  BANK16  BANK17  BANK18  BANK19  BANK20  BANK21  BANK22  BANK23  BANK24  BANK25
  2674 ;;      Params:         0       8       0       0       0       0       0       0       0       0       0       0       
      +0       0       0       0       0       0       0       0       0       0       0       0       0       0       0
  2675 ;;      Locals:         0       5       0       0       0       0       0       0       0       0       0       0       
      +0       0       0       0       0       0       0       0       0       0       0       0       0       0       0
  2676 ;;      Temps:          1       0       0       0       0       0       0       0       0       0       0       0       
      +0       0       0       0       0       0       0       0       0       0       0       0       0       0       0
  2677 ;;      Totals:         1      13       0       0       0       0       0       0       0       0       0       0       
      +0       0       0       0       0       0       0       0       0       0       0       0       0       0       0
  2678 ;;Total ram usage:       14 bytes
  2679 ;; Hardware stack levels used: 1
  2680 ;; This function calls:
  2681 ;;		Nothing
  2682 ;; This function is called by:
  2683 ;;		_calculate_timer_settings
  2684 ;;		_PWM_SetDutyCycle
  2685 ;;		_PWM_GetDutyCycle
  2686 ;; This function uses a non-reentrant model
  2687 ;;
  2688                           
  2689     05EE                     ___lldiv:	
  2690                           ;psect for function ___lldiv
  2691                           
  2692     05EE                     l1215:	
  2693                           ;incstack = 0
  2694                           ; Regs used in ___lldiv: [wreg+status,2+status,0]
  2695                           
  2696     05EE  3000               	movlw	0
  2697     05EF  0020               	movlb	0	; select bank0
  2698     05F0  00AB               	movwf	___lldiv@quotient+3
  2699     05F1  3000               	movlw	0
  2700     05F2  00AA               	movwf	___lldiv@quotient+2
  2701     05F3  3000               	movlw	0
  2702     05F4  00A9               	movwf	___lldiv@quotient+1
  2703     05F5  3000               	movlw	0
  2704     05F6  00A8               	movwf	___lldiv@quotient
  2705     05F7  0823               	movf	___lldiv@divisor+3,w
  2706     05F8  0422               	iorwf	___lldiv@divisor+2,w
  2707     05F9  0421               	iorwf	___lldiv@divisor+1,w
  2708     05FA  0420               	iorwf	___lldiv@divisor,w
  2709     05FB  1903               	skipnz
  2710     05FC  2DFE               	goto	u211
  2711     05FD  2DFF               	goto	u210
  2712     05FE                     u211:
  2713     05FE  2E40               	goto	l1235
  2714     05FF                     u210:
  2715     05FF                     l1217:
  2716     05FF  01AC               	clrf	___lldiv@counter
  2717     0600  0AAC               	incf	___lldiv@counter,f
  2718     0601  2E0D               	goto	l1221
  2719     0602                     l1219:
  2720     0602  3001               	movlw	1
  2721     0603                     u225:
  2722     0603  35A0               	lslf	___lldiv@divisor,f
  2723     0604  0DA1               	rlf	___lldiv@divisor+1,f
  2724     0605  0DA2               	rlf	___lldiv@divisor+2,f
  2725     0606  0DA3               	rlf	___lldiv@divisor+3,f
  2726     0607  0B89               	decfsz	9,f
  2727     0608  2E03               	goto	u225
  2728     0609  3001               	movlw	1
  2729     060A  00FC               	movwf	??___lldiv
  2730     060B  087C               	movf	??___lldiv,w
  2731     060C  07AC               	addwf	___lldiv@counter,f
  2732     060D                     l1221:
  2733     060D  1FA3               	btfss	___lldiv@divisor+3,7
  2734     060E  2E10               	goto	u231
  2735     060F  2E11               	goto	u230
  2736     0610                     u231:
  2737     0610  2E02               	goto	l1219
  2738     0611                     u230:
  2739     0611                     l1223:
  2740     0611  3001               	movlw	1
  2741     0612                     u245:
  2742     0612  35A8               	lslf	___lldiv@quotient,f
  2743     0613  0DA9               	rlf	___lldiv@quotient+1,f
  2744     0614  0DAA               	rlf	___lldiv@quotient+2,f
  2745     0615  0DAB               	rlf	___lldiv@quotient+3,f
  2746     0616  0B89               	decfsz	9,f
  2747     0617  2E12               	goto	u245
  2748     0618                     l1225:
  2749     0618  0823               	movf	___lldiv@divisor+3,w
  2750     0619  0227               	subwf	___lldiv@dividend+3,w
  2751     061A  1D03               	skipz
  2752     061B  2E26               	goto	u255
  2753     061C  0822               	movf	___lldiv@divisor+2,w
  2754     061D  0226               	subwf	___lldiv@dividend+2,w
  2755     061E  1D03               	skipz
  2756     061F  2E26               	goto	u255
  2757     0620  0821               	movf	___lldiv@divisor+1,w
  2758     0621  0225               	subwf	___lldiv@dividend+1,w
  2759     0622  1D03               	skipz
  2760     0623  2E26               	goto	u255
  2761     0624  0820               	movf	___lldiv@divisor,w
  2762     0625  0224               	subwf	___lldiv@dividend,w
  2763     0626                     u255:
  2764     0626  1C03               	skipc
  2765     0627  2E29               	goto	u251
  2766     0628  2E2A               	goto	u250
  2767     0629                     u251:
  2768     0629  2E33               	goto	l1231
  2769     062A                     u250:
  2770     062A                     l1227:
  2771     062A  0820               	movf	___lldiv@divisor,w
  2772     062B  02A4               	subwf	___lldiv@dividend,f
  2773     062C  0821               	movf	___lldiv@divisor+1,w
  2774     062D  3BA5               	subwfb	___lldiv@dividend+1,f
  2775     062E  0822               	movf	___lldiv@divisor+2,w
  2776     062F  3BA6               	subwfb	___lldiv@dividend+2,f
  2777     0630  0823               	movf	___lldiv@divisor+3,w
  2778     0631  3BA7               	subwfb	___lldiv@dividend+3,f
  2779     0632                     l1229:
  2780     0632  1428               	bsf	___lldiv@quotient,0
  2781     0633                     l1231:
  2782     0633  3001               	movlw	1
  2783     0634                     u265:
  2784     0634  36A3               	lsrf	___lldiv@divisor+3,f
  2785     0635  0CA2               	rrf	___lldiv@divisor+2,f
  2786     0636  0CA1               	rrf	___lldiv@divisor+1,f
  2787     0637  0CA0               	rrf	___lldiv@divisor,f
  2788     0638  0B89               	decfsz	9,f
  2789     0639  2E34               	goto	u265
  2790     063A                     l1233:
  2791     063A  3001               	movlw	1
  2792     063B  02AC               	subwf	___lldiv@counter,f
  2793     063C  1D03               	btfss	3,2
  2794     063D  2E3F               	goto	u271
  2795     063E  2E40               	goto	u270
  2796     063F                     u271:
  2797     063F  2E11               	goto	l1223
  2798     0640                     u270:
  2799     0640                     l1235:
  2800     0640  082B               	movf	___lldiv@quotient+3,w
  2801     0641  00A3               	movwf	?___lldiv+3
  2802     0642  082A               	movf	___lldiv@quotient+2,w
  2803     0643  00A2               	movwf	?___lldiv+2
  2804     0644  0829               	movf	___lldiv@quotient+1,w
  2805     0645  00A1               	movwf	?___lldiv+1
  2806     0646  0828               	movf	___lldiv@quotient,w
  2807     0647  00A0               	movwf	?___lldiv
  2808     0648                     l293:
  2809     0648  0008               	return
  2810     0649                     __end_of___lldiv:
  2811     007E                     btemp	set	126	;btemp
  2812     007E                     wtemp0	set	126
  2813                           
  2814                           	psect	config
  2815                           
  2816                           ;Config register CONFIG1 @ 0x8007
  2817                           ;	Oscillator Selection Bits
  2818                           ;	FOSC = INTOSC, INTOSC oscillator: I/O function on CLKIN pin
  2819                           ;	Watchdog Timer Enable
  2820                           ;	WDTE = OFF, WDT disabled
  2821                           ;	Power-up Timer Enable
  2822                           ;	PWRTE = OFF, PWRT disabled
  2823                           ;	MCLR Pin Function Select
  2824                           ;	MCLRE = OFF, MCLR/VPP pin function is digital input if LVP bit is also 0.
  2825                           ;	Flash Program Memory Code Protection
  2826                           ;	CP = OFF, Program memory code protection is disabled
  2827                           ;	Brown-out Reset Enable
  2828                           ;	BOREN = OFF, Brown-out Reset disabled
  2829                           ;	Clock Out Enable
  2830                           ;	CLKOUTEN = OFF, CLKOUT function is disabled. I/O or oscillator function on the CLKOUT 
      +                          pin
  2831                           ;	Internal/External Switchover Mode
  2832                           ;	IESO = ON, Internal/External Switchover Mode is enabled
  2833                           ;	Fail-Safe Clock Monitor Enable
  2834                           ;	FCMEN = OFF, Fail-Safe Clock Monitor is disabled
  2835     8007                     	org	32775
  2836     8007  19A4               	dw	6564
  2837                           
  2838                           ;Config register CONFIG2 @ 0x8008
  2839                           ;	Flash Memory Self-Write Protection
  2840                           ;	WRT = OFF, Write protection off
  2841                           ;	Peripheral Pin Select one-way control
  2842                           ;	PPS1WAY = ON, The PPSLOCK bit cannot be cleared once it is set by software
  2843                           ;	Zero-cross detect disable
  2844                           ;	ZCDDIS = ON, ZCD disabled. ZCD can be enabled by setting the ZCDSEN bit of ZCDCON
  2845                           ;	Phase Lock Loop enable
  2846                           ;	PLLEN = OFF, 4x PLL is disabled
  2847                           ;	Stack Overflow/Underflow Reset Enable
  2848                           ;	STVREN = ON, Stack Overflow or Underflow will cause a Reset
  2849                           ;	Brown-out Reset Voltage Selection
  2850                           ;	BORV = LO, Brown-out Reset Voltage (Vbor), low trip point selected.
  2851                           ;	Low-Power Brown Out Reset
  2852                           ;	LPBOR = OFF, Low-Power BOR is disabled
  2853                           ;	In-Circuit Debugger Mode
  2854                           ;	DEBUG = 0x1, unprogrammed default
  2855                           ;	Low-Voltage Programming Enable
  2856                           ;	LVP = OFF, High-voltage on MCLR/VPP must be used for programming
  2857     8008                     	org	32776
  2858     8008  1EFF               	dw	7935

Data Sizes:
    Strings     0
    Constant    0
    Data        4
    BSS         0
    Persistent  32
    Stack       0

Auto Spaces:
    Space          Size  Autos    Used
    COMMON           14     14      14
    BANK0            80     43      47
    BANK1            80      0       0
    BANK2            80      0       0
    BANK3            80      0       0
    BANK4            80      0       0
    BANK5            80      0       0
    BANK6            80      0       0
    BANK7            80      0       0
    BANK8            80      0       0
    BANK9            80      0       0
    BANK10           80      0       0
    BANK11           80      0       0
    BANK12           80      0       0
    BANK13           80      0       0
    BANK14           80      0       0
    BANK15           80      0       0
    BANK16           80      0       0
    BANK17           80      0       0
    BANK18           80      0       0
    BANK19           80      0       0
    BANK20           80      0       0
    BANK21           80      0       0
    BANK22           80      0       0
    BANK23           80      0       0
    BANK24           80      0       0
    BANK25           32      0       0

Pointer List with Targets:

    calculate_timer_settings@pr_value	PTR unsigned char  size(1) Largest target is 1
		 -> PWM_Init@pr_value(BANK0[1]), PWM_SetFrequency@pr_value(COMMON[1]), 

    calculate_timer_settings@prescaler	PTR enum E5292 size(1) Largest target is 1
		 -> PWM_Init@prescaler(BANK0[1]), PWM_SetFrequency@prescaler(COMMON[1]), 

    PWM_SetOutputPin@pps_register	PTR volatile unsigned char  size(2) Largest target is 1
		 -> RB0PPS(SFR29[1]), RB1PPS(SFR29[1]), 


Critical Paths under _main in COMMON

    _main->_PWM_SetDutyCycle
    _PWM_SetDutyCycle->___lldiv
    _calculate_timer_settings->___lldiv
    ___lldiv->___lmul

Critical Paths under _main in BANK0

    _main->_PWM_Init
    _PWM_SetDutyCycle->___lldiv
    _PWM_Init->_calculate_timer_settings
    _calculate_timer_settings->___lldiv

Critical Paths under _main in BANK1

    None.

Critical Paths under _main in BANK2

    None.

Critical Paths under _main in BANK3

    None.

Critical Paths under _main in BANK4

    None.

Critical Paths under _main in BANK5

    None.

Critical Paths under _main in BANK6

    None.

Critical Paths under _main in BANK7

    None.

Critical Paths under _main in BANK8

    None.

Critical Paths under _main in BANK9

    None.

Critical Paths under _main in BANK10

    None.

Critical Paths under _main in BANK11

    None.

Critical Paths under _main in BANK12

    None.

Critical Paths under _main in BANK13

    None.

Critical Paths under _main in BANK14

    None.

Critical Paths under _main in BANK15

    None.

Critical Paths under _main in BANK16

    None.

Critical Paths under _main in BANK17

    None.

Critical Paths under _main in BANK18

    None.

Critical Paths under _main in BANK19

    None.

Critical Paths under _main in BANK20

    None.

Critical Paths under _main in BANK21

    None.

Critical Paths under _main in BANK22

    None.

Critical Paths under _main in BANK23

    None.

Critical Paths under _main in BANK24

    None.

Critical Paths under _main in BANK25

    None.

Call Graph Tables:

 ---------------------------------------------------------------------------------
 (Depth) Function   	        Calls       Base Space   Used Autos Params    Refs
 ---------------------------------------------------------------------------------
 (0) _main                                                 0     0      0    4462
                           _PWM_Init
                   _PWM_SetDutyCycle
                   _PWM_SetOutputPin
                          _PWM_Start
                        _internal_32
 ---------------------------------------------------------------------------------
 (1) _internal_32                                          0     0      0       0
 ---------------------------------------------------------------------------------
 (1) _PWM_Start                                            3     3      0      15
                                              0 COMMON     3     3      0
 ---------------------------------------------------------------------------------
 (1) _PWM_SetOutputPin                                     6     4      2     220
                                              0 COMMON     6     4      2
 ---------------------------------------------------------------------------------
 (1) _PWM_SetDutyCycle                                    13    12      1    1716
                                             13 COMMON     1     0      1
                                             13 BANK0     12    12      0
              _PWM_SetDutyCycle10bit
                            ___lldiv
                             ___lmul
 ---------------------------------------------------------------------------------
 (2) _PWM_SetDutyCycle10bit                                7     5      2     255
                                              0 COMMON     7     5      2
 ---------------------------------------------------------------------------------
 (1) _PWM_Init                                            10     5      5    2511
                                             33 BANK0     10     5      5
           _calculate_timer_settings
 ---------------------------------------------------------------------------------
 (2) _calculate_timer_settings                            20    14      6    1891
                                             13 BANK0     20    14      6
                            ___lldiv
                             ___lmul
 ---------------------------------------------------------------------------------
 (2) ___lmul                                              12     4      8     548
                                              0 COMMON    12     4      8
 ---------------------------------------------------------------------------------
 (2) ___lldiv                                             14     6      8     618
                                             12 COMMON     1     1      0
                                              0 BANK0     13     5      8
                             ___lmul (ARG)
 ---------------------------------------------------------------------------------
 Estimated maximum stack depth 2
 ---------------------------------------------------------------------------------

 Call Graph Graphs:

 _main (ROOT)
   _PWM_Init
     _calculate_timer_settings
       ___lldiv
         ___lmul (ARG)
       ___lmul
   _PWM_SetDutyCycle
     _PWM_SetDutyCycle10bit
     ___lldiv
     ___lmul
   _PWM_SetOutputPin
   _PWM_Start
   _internal_32

 Address spaces:
Name               Size   Autos  Total    Cost      Usage
BIGRAM             7F0      0       0       0        0.0%
NULL                 0      0       0       0        0.0%
CODE                 0      0       0       0        0.0%
BITCOMMON            E      0       0       1        0.0%
BITSFR0              0      0       0       1        0.0%
SFR0                 0      0       0       1        0.0%
COMMON               E      E       E       2      100.0%
BITSFR1              0      0       0       2        0.0%
SFR1                 0      0       0       2        0.0%
BITSFR2              0      0       0       3        0.0%
SFR2                 0      0       0       3        0.0%
STACK                0      0       0       3        0.0%
BITBANK0            50      0       0       4        0.0%
BITSFR3              0      0       0       4        0.0%
SFR3                 0      0       0       4        0.0%
BANK0               50     2B      2F       5       58.8%
BITSFR4              0      0       0       5        0.0%
SFR4                 0      0       0       5        0.0%
BITBANK1            50      0       0       6        0.0%
BITSFR5              0      0       0       6        0.0%
SFR5                 0      0       0       6        0.0%
BANK1               50      0       0       7        0.0%
BITSFR6              0      0       0       7        0.0%
SFR6                 0      0       0       7        0.0%
BITBANK2            50      0       0       8        0.0%
BITSFR7              0      0       0       8        0.0%
SFR7                 0      0       0       8        0.0%
BANK2               50      0       0       9        0.0%
BITSFR8              0      0       0       9        0.0%
SFR8                 0      0       0       9        0.0%
BITBANK3            50      0       0      10        0.0%
BITSFR9              0      0       0      10        0.0%
SFR9                 0      0       0      10        0.0%
BANK3               50      0       0      11        0.0%
BITSFR10             0      0       0      11        0.0%
SFR10                0      0       0      11        0.0%
BITBANK4            50      0       0      12        0.0%
BITSFR11             0      0       0      12        0.0%
SFR11                0      0       0      12        0.0%
BANK4               50      0       0      13        0.0%
BITSFR12             0      0       0      13        0.0%
SFR12                0      0       0      13        0.0%
BITSFR13             0      0       0      14        0.0%
SFR13                0      0       0      14        0.0%
ABS                  0      0      3D      14        0.0%
BITBANK5            50      0       0      15        0.0%
BITSFR14             0      0       0      15        0.0%
SFR14                0      0       0      15        0.0%
BANK5               50      0       0      16        0.0%
BITSFR15             0      0       0      16        0.0%
SFR15                0      0       0      16        0.0%
BITBANK6            50      0       0      17        0.0%
BITSFR16             0      0       0      17        0.0%
SFR16                0      0       0      17        0.0%
BANK6               50      0       0      18        0.0%
BITSFR17             0      0       0      18        0.0%
SFR17                0      0       0      18        0.0%
BITBANK7            50      0       0      19        0.0%
BITSFR18             0      0       0      19        0.0%
SFR18                0      0       0      19        0.0%
BANK7               50      0       0      20        0.0%
BITSFR19             0      0       0      20        0.0%
SFR19                0      0       0      20        0.0%
BITBANK8            50      0       0      21        0.0%
BITSFR20             0      0       0      21        0.0%
SFR20                0      0       0      21        0.0%
BANK8               50      0       0      22        0.0%
BITSFR21             0      0       0      22        0.0%
SFR21                0      0       0      22        0.0%
BITBANK9            50      0       0      23        0.0%
BITSFR22             0      0       0      23        0.0%
SFR22                0      0       0      23        0.0%
BANK9               50      0       0      24        0.0%
BITSFR23             0      0       0      24        0.0%
SFR23                0      0       0      24        0.0%
BITBANK10           50      0       0      25        0.0%
BITSFR24             0      0       0      25        0.0%
SFR24                0      0       0      25        0.0%
BANK10              50      0       0      26        0.0%
BITSFR25             0      0       0      26        0.0%
SFR25                0      0       0      26        0.0%
BITBANK11           50      0       0      27        0.0%
BITSFR26             0      0       0      27        0.0%
SFR26                0      0       0      27        0.0%
BITSFR27             0      0       0      28        0.0%
SFR27                0      0       0      28        0.0%
DATA                 0      0      3D      28        0.0%
BANK11              50      0       0      29        0.0%
BITSFR28             0      0       0      29        0.0%
SFR28                0      0       0      29        0.0%
BITBANK12           50      0       0      30        0.0%
BITSFR29             0      0       0      30        0.0%
SFR29                0      0       0      30        0.0%
BANK12              50      0       0      31        0.0%
BITSFR30             0      0       0      31        0.0%
SFR30                0      0       0      31        0.0%
BITBANK13           50      0       0      32        0.0%
BITSFR31             0      0       0      32        0.0%
SFR31                0      0       0      32        0.0%
BANK13              50      0       0      33        0.0%
BITBANK14           50      0       0      34        0.0%
BANK14              50      0       0      35        0.0%
BITBANK15           50      0       0      36        0.0%
BANK15              50      0       0      37        0.0%
BITBANK16           50      0       0      38        0.0%
BANK16              50      0       0      39        0.0%
BITBANK17           50      0       0      40        0.0%
BANK17              50      0       0      41        0.0%
BITBANK18           50      0       0      42        0.0%
BANK18              50      0       0      43        0.0%
BITBANK19           50      0       0      44        0.0%
BANK19              50      0       0      45        0.0%
BITBANK20           50      0       0      46        0.0%
BANK20              50      0       0      47        0.0%
BITBANK21           50      0       0      48        0.0%
BANK21              50      0       0      49        0.0%
BITBANK22           50      0       0      50        0.0%
BANK22              50      0       0      51        0.0%
BITBANK23           50      0       0      52        0.0%
BANK23              50      0       0      53        0.0%
BITBANK24           50      0       0      54        0.0%
BANK24              50      0       0      55        0.0%
BITBANK25           20      0       0      56        0.0%
BANK25              20      0       0      57        0.0%


Microchip Technology PIC Macro Assembler V2.46 build 20240104201356 
Symbol Table                                                                                   Thu Dec 25 21:43:59 2025

                                     l17 04DF                                       l58 05EB  
                                     l59 05EB                                       l97 06C7  
                                    l113 07EC                                      l142 05A0  
                                    l134 0758                                      l164 0528  
                                    l149 04FE                                      l271 055B  
                                    l293 0648                                      l923 04EE  
                                    l915 04E1                                      l917 04E2  
                                    l919 04E8                                      l797 04D7  
                                    u200 0553                                      u201 0552  
                                    u210 05FF                                      u211 05FE  
                                    u300 0566                                      u301 0565  
                                    u230 0611                                      u310 06D0  
                                    u231 0610                                      u311 06CF  
                                    u320 073E                                      u225 0603  
                                    u250 062A                                      u170 0535  
                                    u251 0629                                      u171 0534  
                                    u245 0612                                      u325 073A  
                                    u270 0640                                      _PR2 001B  
                                    u271 063F                                      u255 0626  
                                    u280 069E                                      _PR4 0416  
                                    u265 0634                                      u185 053E  
                                    u281 069D                                      u290 06BC  
                                    _PR6 041D                                      u195 0545  
                                    u291 06BB                                      u295 06B8  
                                    wreg 0009  calculate_timer_settings@prescale_values 0037  
         calculate_timer_settings@period 003B                                     l1201 0529  
                                   l1211 0553                                     l1203 0531  
                                   l1221 060D                                     l1205 0535  
                                   l1301 07A3                                     l1231 0633  
                                   l1223 0611                                     l1215 05EE  
                                   l1207 053D                                     l1303 07A7  
                                   l1233 063A                                     l1225 0618  
                                   l1217 05FF                                     l1209 0544  
                                   l1241 0652                                     l1305 07A9  
                                   l1321 07DB                                     l1313 07B7  
                                   l1401 05A4                                     l1227 062A  
                                   l1219 0602                                     l1235 0640  
                                   l1251 069E                                     l1315 07CB  
                                   l1307 07B1                                     l1411 05C7  
                                   l1403 05A6                                     l1229 0632  
                                   l1317 07D3                                     l1309 07B5  
                                   l1261 0566                                     l1421 05E7  
                                   l1413 05CF                                     l1405 05A7  
                                   l1255 06AA                                     l1247 0654  
                                   l1239 0649                                     l1271 0584  
                                   l1263 056A                                     l1351 0523  
                                   l1343 0507                                     l1335 0500  
                                   l1415 05D7                                     l1407 05A9  
                                   l1257 06BC                                     l1249 0692  
                                   l1273 0587                                     l1265 0574  
                                   l1361 06CA                                     l1353 0525  
                                   l1345 0517                                     l1337 0501  
                                   l1417 05DD                                     l1409 05B8  
                                   l1291 0781                                     l1283 075B  
                                   l1267 0578                                     l1259 055D  
                                   l1363 06D0                                     l1355 0527  
                                   l1347 051C                                     l1339 0504  
                                   l1419 05E3                                     l1293 0792  
                                   l1285 076B                                     l1269 057B  
                                   l1277 0590                                     l1373 06E1  
                                   l1365 06D3                                     l1349 051D  
                                   l1295 0797                                     l1287 0774  
                                   l1391 0750                                     l1383 06EE  
                                   l1367 06D7                                     l1297 0799  
                                   l1369 06DC                                     l1299 079B  
                                   l1651 0598                                     l1387 06FC  
                                   l1653 078A                                     l1389 070C  
                                   l1645 04F6                                     l1655 07C0  
                                   l1647 050F                                     l1399 05A1  
                                   l1657 07E4                                     l1649 0704  
                                   _SCS0 04C8                                     _SCS1 04C9  
                                   _main 05A1                                     fsr1h 0007  
                                   indf1 0001                                     fsr1l 0006  
                                   btemp 007E                                     start 0003  
        calculate_timer_settings@freq_hz 002D                                    ?_main 0070  
                        __end_of___lldiv 0649                                    _IRCF0 04CB  
                                  _IRCF1 04CC                                    _IRCF2 04CD  
                                  _IRCF3 04CE                      ___lmul@multiplicand 0074  
                       __end_of_PWM_Init 07ED                                    status 0003  
                                  wtemp0 007E                             ?_internal_32 0070  
                        __initialization 07ED                             __end_of_main 05EE  
                                 ??_main 007E               ??_calculate_timer_settings 0033  
       calculate_timer_settings@pr_value 0031                                   _CCPR1L 0291  
                                 _CCPR2L 0298                                   _ANSELB 018D  
                                 _RB0PPS 0E98                                   _RB1PPS 0E99  
               __end_of_PWM_SetDutyCycle 0759                  PWM_SetDutyCycle@channel 0037  
                                 _SPLLEN 04CF                 PWM_SetDutyCycle10bit@lsb 0076  
               PWM_SetDutyCycle10bit@msb 0075                                   ___lmul 0529  
                              ??___lldiv 007C             PWM_SetDutyCycle@duty_percent 007D  
                      __end_of_PWM_Start 04FF                 __end_of_PWM_SetOutputPin 0529  
                __end_of__initialization 07FD                           __pcstackCOMMON 0070  
                           __pidataBANK0 04D3                                ?_PWM_Init 0041  
                  _PWM_SetDutyCycle10bit 055C                               __pmaintext 05A1  
                                ?___lmul 0070                           ___lmul@product 0078  
                             ??_PWM_Init 0046         __end_of_calculate_timer_settings 06C8  
                      PWM_Init@prescaler 004A                                  _PPSLOCK 0E0F  
        PWM_SetDutyCycle10bit@duty_value 0070                 PWM_SetDutyCycle@pr_value 0038  
                                ___lldiv 05EE                                  __ptext1 04D7  
                                __ptext2 04E0                                  __ptext3 04FF  
                                __ptext4 06C8                                  __ptext5 055C  
                                __ptext6 0759                                  __ptext7 0649  
                                __ptext8 0529                                  __ptext9 05EE  
                              _T2CONbits 001C                                _T4CONbits 0417  
                              _T6CONbits 041E                     end_of_initialization 07FD  
                 ?_PWM_SetDutyCycle10bit 0070                        ?_PWM_SetDutyCycle 007D  
                     ??_PWM_SetDutyCycle 002D                            PWM_Init@timer 0041  
                        ___lldiv@divisor 0020                          ___lldiv@counter 002C  
              calculate_timer_settings@i 003F                                _TRISBbits 008D  
                      ?_PWM_SetOutputPin 0070                                _PWM_Start 04E0  
                       PWM_Start@channel 0072                       ??_PWM_SetOutputPin 0072  
                            _CCP1CONbits 0293                              _CCP2CONbits 029A  
              ?_calculate_timer_settings 002D                           __end_of___lmul 055C  
                    start_initialization 07ED                               ?_PWM_Start 0070  
                               ??___lmul 0078                              _CCPTMRSbits 029E  
                            __pdataBANK0 004B                                ___latbits 0003  
                          __pcstackBANK0 0020                            ??_internal_32 0070  
                               ?___lldiv 0020                         PWM_Init@pr_value 0049  
                ??_PWM_SetDutyCycle10bit 0072                              ??_PWM_Start 0070  
             PWM_SetDutyCycle@duty_10bit 0035                      __end_of_internal_32 04E0  
                               _PWM_Init 0759                        ___lmul@multiplier 0070  
                PWM_SetOutputPin@channel 0074                          PWM_Init@channel 0048  
                        PWM_Init@freq_hz 0042                PWM_SetOutputPin@pps_value 0075  
           PWM_SetOutputPin@pps_register 0070                              _internal_32 04D7  
               _calculate_timer_settings 0649        calculate_timer_settings@prescaler 0032  
                       ___lldiv@dividend 0024                              _PPSLOCKbits 0E0F  
           PWM_SetDutyCycle10bit@channel 0074                         _PWM_SetDutyCycle 06C8  
                       ___lldiv@quotient 0028            __end_of_PWM_SetDutyCycle10bit 05A1  
          calculate_timer_settings@F5325 004B                         _PWM_SetOutputPin 04FF  
