

Microchip MPLAB XC8 Assembler V2.46 build 20240104201356 
                                                                                               Sun Dec 15 00:33:34 2024

Microchip MPLAB XC8 C Compiler v2.46 (Free license) build 20240104201356 Og1 
     1                           	processor	16F1719
     2                           	pagewidth 120
     3                           	opt	flic
     4                           	psect	idataBANK1,global,class=CODE,delta=2,noexec
     5                           	psect	idataBANK2,global,class=CODE,delta=2,noexec
     6                           	psect	idataBANK3,global,class=CODE,delta=2,noexec
     7                           	psect	stringtext1,global,class=STRCODE,delta=2,noexec
     8                           	psect	stringtext2,global,class=STRCODE,delta=2,noexec
     9                           	psect	stringtext3,global,class=STRCODE,delta=2,noexec
    10                           	psect	stringtext4,global,class=STRCODE,delta=2,noexec
    11                           	psect	stringtext5,global,class=STRCODE,delta=2,noexec
    12                           	psect	stringtext6,global,class=STRCODE,delta=2,noexec
    13                           	psect	stringtext7,global,class=STRCODE,delta=2,noexec
    14                           	psect	stringtext8,global,class=STRCODE,delta=2,noexec
    15                           	psect	stringtext9,global,class=STRCODE,delta=2,noexec
    16                           	psect	stringtext10,global,class=STRCODE,delta=2,noexec
    17                           	psect	stringtext11,global,class=STRCODE,delta=2,noexec
    18                           	psect	stringtext12,global,class=STRCODE,delta=2,noexec
    19                           	psect	stringtext13,global,class=STRCODE,delta=2,noexec
    20                           	psect	stringtext14,global,class=STRCODE,delta=2,noexec
    21                           	psect	stringtext15,global,class=STRCODE,delta=2,noexec
    22                           	psect	stringtext16,global,class=STRCODE,delta=2,noexec
    23                           	psect	stringtext17,global,class=STRCODE,delta=2,noexec
    24                           	psect	cinit,global,class=CODE,merge=1,delta=2
    25                           	psect	bssBANK1,global,class=BANK1,space=1,delta=1,noexec
    26                           	psect	dataBANK1,global,class=BANK1,space=1,delta=1,noexec
    27                           	psect	dataBANK2,global,class=BANK2,space=1,delta=1,noexec
    28                           	psect	bssBANK3,global,class=BANK3,space=1,delta=1,noexec
    29                           	psect	dataBANK3,global,class=BANK3,space=1,delta=1,noexec
    30                           	psect	inittext,global,class=CODE,delta=2
    31                           	psect	clrtext,global,class=CODE,delta=2
    32                           	psect	cstackBANK1,global,class=BANK1,space=1,delta=1,noexec
    33                           	psect	cstackCOMMON,global,class=COMMON,space=1,delta=1,noexec
    34                           	psect	cstackBANK0,global,class=BANK0,space=1,delta=1,noexec
    35                           	psect	maintext,global,class=CODE,merge=1,split=1,delta=2
    36                           	psect	text1,local,class=CODE,merge=1,delta=2
    37                           	psect	text2,local,class=CODE,merge=1,delta=2
    38                           	psect	text3,local,class=CODE,merge=1,delta=2
    39                           	psect	text4,local,class=CODE,merge=1,delta=2
    40                           	psect	text5,local,class=CODE,merge=1,delta=2
    41                           	psect	text6,local,class=CODE,merge=1,delta=2
    42                           	psect	text7,local,class=CODE,merge=1,delta=2,group=1
    43                           	psect	text8,local,class=CODE,merge=1,delta=2,group=1
    44                           	psect	text9,local,class=CODE,merge=1,delta=2,group=1
    45                           	psect	text10,local,class=CODE,merge=1,delta=2
    46                           	psect	text11,local,class=CODE,merge=1,delta=2,group=1
    47                           	psect	text12,local,class=CODE,merge=1,delta=2,group=1
    48                           	psect	text13,local,class=CODE,merge=1,delta=2,group=1
    49                           	psect	text14,local,class=CODE,merge=1,delta=2,group=1
    50                           	psect	text15,local,class=CODE,merge=1,delta=2,group=1
    51                           	psect	text16,local,class=CODE,merge=1,delta=2,group=1
    52                           	psect	text17,local,class=CODE,merge=1,delta=2
    53                           	psect	text18,local,class=CODE,merge=1,delta=2
    54                           	psect	text19,local,class=CODE,merge=1,delta=2
    55                           	psect	text20,local,class=CODE,merge=1,delta=2,group=1
    56                           	psect	text21,local,class=CODE,merge=1,delta=2,group=1
    57                           	psect	text22,local,class=CODE,merge=1,delta=2
    58                           	psect	text23,local,class=CODE,merge=1,delta=2
    59                           	psect	text24,local,class=CODE,merge=1,delta=2
    60                           	psect	text25,local,class=CODE,merge=1,delta=2
    61                           	psect	text26,local,class=CODE,merge=1,delta=2
    62                           	psect	text27,local,class=CODE,merge=1,delta=2
    63                           	psect	text28,local,class=CODE,merge=1,delta=2
    64                           	psect	text29,local,class=CODE,merge=1,delta=2
    65                           	psect	intentry,global,class=CODE,delta=2
    66                           	psect	config,global,abs,ovrld,class=CONFIG,space=4,delta=2,noexec
    67                           	dabs	1,0x7E,2
    68     0000                     
    69                           ; Generated 07/09/2023 GMT
    70                           ; 
    71                           ; Copyright © 2023, Microchip Technology Inc. and its subsidiaries ("Microchip")
    72                           ; All rights reserved.
    73                           ; 
    74                           ; This software is developed by Microchip Technology Inc. and its subsidiaries ("Microch
      +                          ip").
    75                           ; 
    76                           ; Redistribution and use in source and binary forms, with or without modification, are
    77                           ; permitted provided that the following conditions are met:
    78                           ; 
    79                           ;     1. Redistributions of source code must retain the above copyright notice, this lis
      +                          t of
    80                           ;        conditions and the following disclaimer.
    81                           ; 
    82                           ;     2. Redistributions in binary form must reproduce the above copyright notice, this 
      +                          list
    83                           ;        of conditions and the following disclaimer in the documentation and/or other
    84                           ;        materials provided with the distribution. Publication is not required when
    85                           ;        this file is used in an embedded application.
    86                           ; 
    87                           ;     3. Microchip's name may not be used to endorse or promote products derived from th
      +                          is
    88                           ;        software without specific prior written permission.
    89                           ; 
    90                           ; THIS SOFTWARE IS PROVIDED BY MICROCHIP "AS IS" AND ANY EXPRESS OR IMPLIED WARRANTIES,
    91                           ; INCLUDING, BUT NOT LIMITED TO, THE IMPLIED WARRANTIES OF MERCHANTABILITY AND FITNESS F
      +                          OR
    92                           ; PURPOSE ARE DISCLAIMED.  IN NO EVENT SHALL MICROCHIP BE LIABLE FOR ANY DIRECT, INDIREC
      +                          T,
    93                           ; INCIDENTAL, SPECIAL, EXEMPLARY, OR CONSEQUENTIAL DAMAGES (INCLUDING BUT NOT LIMITED TO
    94                           ; PROCUREMENT OF SUBSTITUTE GOODS OR SERVICES; LOSS OF USE, DATA OR PROFITS; OR BUSINESS
    95                           ; INTERRUPTION) HOWSOEVER CAUSED AND ON ANY THEORY OF LIABILITY, WHETHER IN CONTRACT, ST
      +                          RICT
    96                           ; LIABILITY, OR TORT (INCLUDING NEGLIGENCE OR OTHERWISE) ARISING IN ANY WAY OUT OF THE U
      +                          SE OF
    97                           ; THIS SOFTWARE, EVEN IF ADVISED OF THE POSSIBILITY OF SUCH DAMAGE.
    98                           ; 
    99                           ; 
   100                           ; Code-generator required, PIC16F1719 Definitions
   101                           ; 
   102                           ; SFR Addresses
   103     0000                     	;# 
   104     0001                     	;# 
   105     0002                     	;# 
   106     0003                     	;# 
   107     0004                     	;# 
   108     0005                     	;# 
   109     0006                     	;# 
   110     0007                     	;# 
   111     0008                     	;# 
   112     0009                     	;# 
   113     000A                     	;# 
   114     000B                     	;# 
   115     000C                     	;# 
   116     000D                     	;# 
   117     000E                     	;# 
   118     000F                     	;# 
   119     0010                     	;# 
   120     0011                     	;# 
   121     0012                     	;# 
   122     0013                     	;# 
   123     0015                     	;# 
   124     0016                     	;# 
   125     0016                     	;# 
   126     0017                     	;# 
   127     0018                     	;# 
   128     0019                     	;# 
   129     001A                     	;# 
   130     001B                     	;# 
   131     001C                     	;# 
   132     008C                     	;# 
   133     008D                     	;# 
   134     008E                     	;# 
   135     008F                     	;# 
   136     0090                     	;# 
   137     0091                     	;# 
   138     0092                     	;# 
   139     0093                     	;# 
   140     0095                     	;# 
   141     0096                     	;# 
   142     0097                     	;# 
   143     0098                     	;# 
   144     0099                     	;# 
   145     009A                     	;# 
   146     009B                     	;# 
   147     009B                     	;# 
   148     009C                     	;# 
   149     009D                     	;# 
   150     009E                     	;# 
   151     009F                     	;# 
   152     010C                     	;# 
   153     010D                     	;# 
   154     010E                     	;# 
   155     010F                     	;# 
   156     0110                     	;# 
   157     0111                     	;# 
   158     0112                     	;# 
   159     0113                     	;# 
   160     0114                     	;# 
   161     0115                     	;# 
   162     0116                     	;# 
   163     0117                     	;# 
   164     0118                     	;# 
   165     0119                     	;# 
   166     011A                     	;# 
   167     011B                     	;# 
   168     011B                     	;# 
   169     011C                     	;# 
   170     018C                     	;# 
   171     018D                     	;# 
   172     018E                     	;# 
   173     018F                     	;# 
   174     0190                     	;# 
   175     0191                     	;# 
   176     0191                     	;# 
   177     0192                     	;# 
   178     0193                     	;# 
   179     0193                     	;# 
   180     0194                     	;# 
   181     0195                     	;# 
   182     0196                     	;# 
   183     0197                     	;# 
   184     0199                     	;# 
   185     0199                     	;# 
   186     0199                     	;# 
   187     019A                     	;# 
   188     019A                     	;# 
   189     019A                     	;# 
   190     019B                     	;# 
   191     019B                     	;# 
   192     019B                     	;# 
   193     019B                     	;# 
   194     019B                     	;# 
   195     019C                     	;# 
   196     019C                     	;# 
   197     019C                     	;# 
   198     019D                     	;# 
   199     019D                     	;# 
   200     019D                     	;# 
   201     019E                     	;# 
   202     019E                     	;# 
   203     019E                     	;# 
   204     019F                     	;# 
   205     019F                     	;# 
   206     019F                     	;# 
   207     019F                     	;# 
   208     019F                     	;# 
   209     020C                     	;# 
   210     020D                     	;# 
   211     020E                     	;# 
   212     020F                     	;# 
   213     0210                     	;# 
   214     0211                     	;# 
   215     0211                     	;# 
   216     0212                     	;# 
   217     0212                     	;# 
   218     0213                     	;# 
   219     0213                     	;# 
   220     0214                     	;# 
   221     0214                     	;# 
   222     0215                     	;# 
   223     0215                     	;# 
   224     0215                     	;# 
   225     0215                     	;# 
   226     0216                     	;# 
   227     0216                     	;# 
   228     0217                     	;# 
   229     0217                     	;# 
   230     028C                     	;# 
   231     028D                     	;# 
   232     028E                     	;# 
   233     028F                     	;# 
   234     0290                     	;# 
   235     0291                     	;# 
   236     0291                     	;# 
   237     0292                     	;# 
   238     0293                     	;# 
   239     0293                     	;# 
   240     0298                     	;# 
   241     0298                     	;# 
   242     0299                     	;# 
   243     029A                     	;# 
   244     029A                     	;# 
   245     029E                     	;# 
   246     030C                     	;# 
   247     030D                     	;# 
   248     030E                     	;# 
   249     030F                     	;# 
   250     0310                     	;# 
   251     038C                     	;# 
   252     038D                     	;# 
   253     038E                     	;# 
   254     038F                     	;# 
   255     0390                     	;# 
   256     0391                     	;# 
   257     0392                     	;# 
   258     0393                     	;# 
   259     0394                     	;# 
   260     0395                     	;# 
   261     0396                     	;# 
   262     0397                     	;# 
   263     0398                     	;# 
   264     0399                     	;# 
   265     039D                     	;# 
   266     039E                     	;# 
   267     039F                     	;# 
   268     0415                     	;# 
   269     0416                     	;# 
   270     0417                     	;# 
   271     041C                     	;# 
   272     041D                     	;# 
   273     041E                     	;# 
   274     0498                     	;# 
   275     0498                     	;# 
   276     0499                     	;# 
   277     049A                     	;# 
   278     049B                     	;# 
   279     049B                     	;# 
   280     049C                     	;# 
   281     049D                     	;# 
   282     049E                     	;# 
   283     049F                     	;# 
   284     0511                     	;# 
   285     0515                     	;# 
   286     0617                     	;# 
   287     0618                     	;# 
   288     0619                     	;# 
   289     0619                     	;# 
   290     061A                     	;# 
   291     061B                     	;# 
   292     061C                     	;# 
   293     061C                     	;# 
   294     0691                     	;# 
   295     0692                     	;# 
   296     0693                     	;# 
   297     0694                     	;# 
   298     0695                     	;# 
   299     0696                     	;# 
   300     0697                     	;# 
   301     0698                     	;# 
   302     0699                     	;# 
   303     069A                     	;# 
   304     069B                     	;# 
   305     069C                     	;# 
   306     069D                     	;# 
   307     069E                     	;# 
   308     069F                     	;# 
   309     0E0F                     	;# 
   310     0E10                     	;# 
   311     0E11                     	;# 
   312     0E12                     	;# 
   313     0E13                     	;# 
   314     0E14                     	;# 
   315     0E15                     	;# 
   316     0E17                     	;# 
   317     0E20                     	;# 
   318     0E21                     	;# 
   319     0E22                     	;# 
   320     0E24                     	;# 
   321     0E25                     	;# 
   322     0E28                     	;# 
   323     0E29                     	;# 
   324     0E2A                     	;# 
   325     0E2B                     	;# 
   326     0E90                     	;# 
   327     0E91                     	;# 
   328     0E92                     	;# 
   329     0E93                     	;# 
   330     0E94                     	;# 
   331     0E95                     	;# 
   332     0E96                     	;# 
   333     0E97                     	;# 
   334     0E98                     	;# 
   335     0E99                     	;# 
   336     0E9A                     	;# 
   337     0E9B                     	;# 
   338     0E9C                     	;# 
   339     0E9D                     	;# 
   340     0E9E                     	;# 
   341     0E9F                     	;# 
   342     0EA0                     	;# 
   343     0EA1                     	;# 
   344     0EA2                     	;# 
   345     0EA3                     	;# 
   346     0EA4                     	;# 
   347     0EA5                     	;# 
   348     0EA6                     	;# 
   349     0EA7                     	;# 
   350     0EA8                     	;# 
   351     0EA9                     	;# 
   352     0EAA                     	;# 
   353     0EAB                     	;# 
   354     0EAC                     	;# 
   355     0EAD                     	;# 
   356     0EAE                     	;# 
   357     0EAF                     	;# 
   358     0EB0                     	;# 
   359     0EB1                     	;# 
   360     0EB2                     	;# 
   361     0F0F                     	;# 
   362     0F10                     	;# 
   363     0F11                     	;# 
   364     0F12                     	;# 
   365     0F13                     	;# 
   366     0F14                     	;# 
   367     0F15                     	;# 
   368     0F16                     	;# 
   369     0F17                     	;# 
   370     0F18                     	;# 
   371     0F19                     	;# 
   372     0F1A                     	;# 
   373     0F1B                     	;# 
   374     0F1C                     	;# 
   375     0F1D                     	;# 
   376     0F1E                     	;# 
   377     0F1F                     	;# 
   378     0F20                     	;# 
   379     0F21                     	;# 
   380     0F22                     	;# 
   381     0F23                     	;# 
   382     0F24                     	;# 
   383     0F25                     	;# 
   384     0F26                     	;# 
   385     0F27                     	;# 
   386     0F28                     	;# 
   387     0F29                     	;# 
   388     0F2A                     	;# 
   389     0F2B                     	;# 
   390     0F2C                     	;# 
   391     0F2D                     	;# 
   392     0F2E                     	;# 
   393     0F2F                     	;# 
   394     0F30                     	;# 
   395     0F31                     	;# 
   396     0F32                     	;# 
   397     0F33                     	;# 
   398     0F34                     	;# 
   399     0F35                     	;# 
   400     0F36                     	;# 
   401     0F37                     	;# 
   402     0FE4                     	;# 
   403     0FE5                     	;# 
   404     0FE6                     	;# 
   405     0FE7                     	;# 
   406     0FE8                     	;# 
   407     0FE9                     	;# 
   408     0FEA                     	;# 
   409     0FEB                     	;# 
   410     0FED                     	;# 
   411     0FEE                     	;# 
   412     0FEF                     	;# 
   413     0000                     	;# 
   414     0001                     	;# 
   415     0002                     	;# 
   416     0003                     	;# 
   417     0004                     	;# 
   418     0005                     	;# 
   419     0006                     	;# 
   420     0007                     	;# 
   421     0008                     	;# 
   422     0009                     	;# 
   423     000A                     	;# 
   424     000B                     	;# 
   425     000C                     	;# 
   426     000D                     	;# 
   427     000E                     	;# 
   428     000F                     	;# 
   429     0010                     	;# 
   430     0011                     	;# 
   431     0012                     	;# 
   432     0013                     	;# 
   433     0015                     	;# 
   434     0016                     	;# 
   435     0016                     	;# 
   436     0017                     	;# 
   437     0018                     	;# 
   438     0019                     	;# 
   439     001A                     	;# 
   440     001B                     	;# 
   441     001C                     	;# 
   442     008C                     	;# 
   443     008D                     	;# 
   444     008E                     	;# 
   445     008F                     	;# 
   446     0090                     	;# 
   447     0091                     	;# 
   448     0092                     	;# 
   449     0093                     	;# 
   450     0095                     	;# 
   451     0096                     	;# 
   452     0097                     	;# 
   453     0098                     	;# 
   454     0099                     	;# 
   455     009A                     	;# 
   456     009B                     	;# 
   457     009B                     	;# 
   458     009C                     	;# 
   459     009D                     	;# 
   460     009E                     	;# 
   461     009F                     	;# 
   462     010C                     	;# 
   463     010D                     	;# 
   464     010E                     	;# 
   465     010F                     	;# 
   466     0110                     	;# 
   467     0111                     	;# 
   468     0112                     	;# 
   469     0113                     	;# 
   470     0114                     	;# 
   471     0115                     	;# 
   472     0116                     	;# 
   473     0117                     	;# 
   474     0118                     	;# 
   475     0119                     	;# 
   476     011A                     	;# 
   477     011B                     	;# 
   478     011B                     	;# 
   479     011C                     	;# 
   480     018C                     	;# 
   481     018D                     	;# 
   482     018E                     	;# 
   483     018F                     	;# 
   484     0190                     	;# 
   485     0191                     	;# 
   486     0191                     	;# 
   487     0192                     	;# 
   488     0193                     	;# 
   489     0193                     	;# 
   490     0194                     	;# 
   491     0195                     	;# 
   492     0196                     	;# 
   493     0197                     	;# 
   494     0199                     	;# 
   495     0199                     	;# 
   496     0199                     	;# 
   497     019A                     	;# 
   498     019A                     	;# 
   499     019A                     	;# 
   500     019B                     	;# 
   501     019B                     	;# 
   502     019B                     	;# 
   503     019B                     	;# 
   504     019B                     	;# 
   505     019C                     	;# 
   506     019C                     	;# 
   507     019C                     	;# 
   508     019D                     	;# 
   509     019D                     	;# 
   510     019D                     	;# 
   511     019E                     	;# 
   512     019E                     	;# 
   513     019E                     	;# 
   514     019F                     	;# 
   515     019F                     	;# 
   516     019F                     	;# 
   517     019F                     	;# 
   518     019F                     	;# 
   519     020C                     	;# 
   520     020D                     	;# 
   521     020E                     	;# 
   522     020F                     	;# 
   523     0210                     	;# 
   524     0211                     	;# 
   525     0211                     	;# 
   526     0212                     	;# 
   527     0212                     	;# 
   528     0213                     	;# 
   529     0213                     	;# 
   530     0214                     	;# 
   531     0214                     	;# 
   532     0215                     	;# 
   533     0215                     	;# 
   534     0215                     	;# 
   535     0215                     	;# 
   536     0216                     	;# 
   537     0216                     	;# 
   538     0217                     	;# 
   539     0217                     	;# 
   540     028C                     	;# 
   541     028D                     	;# 
   542     028E                     	;# 
   543     028F                     	;# 
   544     0290                     	;# 
   545     0291                     	;# 
   546     0291                     	;# 
   547     0292                     	;# 
   548     0293                     	;# 
   549     0293                     	;# 
   550     0298                     	;# 
   551     0298                     	;# 
   552     0299                     	;# 
   553     029A                     	;# 
   554     029A                     	;# 
   555     029E                     	;# 
   556     030C                     	;# 
   557     030D                     	;# 
   558     030E                     	;# 
   559     030F                     	;# 
   560     0310                     	;# 
   561     038C                     	;# 
   562     038D                     	;# 
   563     038E                     	;# 
   564     038F                     	;# 
   565     0390                     	;# 
   566     0391                     	;# 
   567     0392                     	;# 
   568     0393                     	;# 
   569     0394                     	;# 
   570     0395                     	;# 
   571     0396                     	;# 
   572     0397                     	;# 
   573     0398                     	;# 
   574     0399                     	;# 
   575     039D                     	;# 
   576     039E                     	;# 
   577     039F                     	;# 
   578     0415                     	;# 
   579     0416                     	;# 
   580     0417                     	;# 
   581     041C                     	;# 
   582     041D                     	;# 
   583     041E                     	;# 
   584     0498                     	;# 
   585     0498                     	;# 
   586     0499                     	;# 
   587     049A                     	;# 
   588     049B                     	;# 
   589     049B                     	;# 
   590     049C                     	;# 
   591     049D                     	;# 
   592     049E                     	;# 
   593     049F                     	;# 
   594     0511                     	;# 
   595     0515                     	;# 
   596     0617                     	;# 
   597     0618                     	;# 
   598     0619                     	;# 
   599     0619                     	;# 
   600     061A                     	;# 
   601     061B                     	;# 
   602     061C                     	;# 
   603     061C                     	;# 
   604     0691                     	;# 
   605     0692                     	;# 
   606     0693                     	;# 
   607     0694                     	;# 
   608     0695                     	;# 
   609     0696                     	;# 
   610     0697                     	;# 
   611     0698                     	;# 
   612     0699                     	;# 
   613     069A                     	;# 
   614     069B                     	;# 
   615     069C                     	;# 
   616     069D                     	;# 
   617     069E                     	;# 
   618     069F                     	;# 
   619     0E0F                     	;# 
   620     0E10                     	;# 
   621     0E11                     	;# 
   622     0E12                     	;# 
   623     0E13                     	;# 
   624     0E14                     	;# 
   625     0E15                     	;# 
   626     0E17                     	;# 
   627     0E20                     	;# 
   628     0E21                     	;# 
   629     0E22                     	;# 
   630     0E24                     	;# 
   631     0E25                     	;# 
   632     0E28                     	;# 
   633     0E29                     	;# 
   634     0E2A                     	;# 
   635     0E2B                     	;# 
   636     0E90                     	;# 
   637     0E91                     	;# 
   638     0E92                     	;# 
   639     0E93                     	;# 
   640     0E94                     	;# 
   641     0E95                     	;# 
   642     0E96                     	;# 
   643     0E97                     	;# 
   644     0E98                     	;# 
   645     0E99                     	;# 
   646     0E9A                     	;# 
   647     0E9B                     	;# 
   648     0E9C                     	;# 
   649     0E9D                     	;# 
   650     0E9E                     	;# 
   651     0E9F                     	;# 
   652     0EA0                     	;# 
   653     0EA1                     	;# 
   654     0EA2                     	;# 
   655     0EA3                     	;# 
   656     0EA4                     	;# 
   657     0EA5                     	;# 
   658     0EA6                     	;# 
   659     0EA7                     	;# 
   660     0EA8                     	;# 
   661     0EA9                     	;# 
   662     0EAA                     	;# 
   663     0EAB                     	;# 
   664     0EAC                     	;# 
   665     0EAD                     	;# 
   666     0EAE                     	;# 
   667     0EAF                     	;# 
   668     0EB0                     	;# 
   669     0EB1                     	;# 
   670     0EB2                     	;# 
   671     0F0F                     	;# 
   672     0F10                     	;# 
   673     0F11                     	;# 
   674     0F12                     	;# 
   675     0F13                     	;# 
   676     0F14                     	;# 
   677     0F15                     	;# 
   678     0F16                     	;# 
   679     0F17                     	;# 
   680     0F18                     	;# 
   681     0F19                     	;# 
   682     0F1A                     	;# 
   683     0F1B                     	;# 
   684     0F1C                     	;# 
   685     0F1D                     	;# 
   686     0F1E                     	;# 
   687     0F1F                     	;# 
   688     0F20                     	;# 
   689     0F21                     	;# 
   690     0F22                     	;# 
   691     0F23                     	;# 
   692     0F24                     	;# 
   693     0F25                     	;# 
   694     0F26                     	;# 
   695     0F27                     	;# 
   696     0F28                     	;# 
   697     0F29                     	;# 
   698     0F2A                     	;# 
   699     0F2B                     	;# 
   700     0F2C                     	;# 
   701     0F2D                     	;# 
   702     0F2E                     	;# 
   703     0F2F                     	;# 
   704     0F30                     	;# 
   705     0F31                     	;# 
   706     0F32                     	;# 
   707     0F33                     	;# 
   708     0F34                     	;# 
   709     0F35                     	;# 
   710     0F36                     	;# 
   711     0F37                     	;# 
   712     0FE4                     	;# 
   713     0FE5                     	;# 
   714     0FE6                     	;# 
   715     0FE7                     	;# 
   716     0FE8                     	;# 
   717     0FE9                     	;# 
   718     0FEA                     	;# 
   719     0FEB                     	;# 
   720     0FED                     	;# 
   721     0FEE                     	;# 
   722     0FEF                     	;# 
   723     0000                     	;# 
   724     0001                     	;# 
   725     0002                     	;# 
   726     0003                     	;# 
   727     0004                     	;# 
   728     0005                     	;# 
   729     0006                     	;# 
   730     0007                     	;# 
   731     0008                     	;# 
   732     0009                     	;# 
   733     000A                     	;# 
   734     000B                     	;# 
   735     000C                     	;# 
   736     000D                     	;# 
   737     000E                     	;# 
   738     000F                     	;# 
   739     0010                     	;# 
   740     0011                     	;# 
   741     0012                     	;# 
   742     0013                     	;# 
   743     0015                     	;# 
   744     0016                     	;# 
   745     0016                     	;# 
   746     0017                     	;# 
   747     0018                     	;# 
   748     0019                     	;# 
   749     001A                     	;# 
   750     001B                     	;# 
   751     001C                     	;# 
   752     008C                     	;# 
   753     008D                     	;# 
   754     008E                     	;# 
   755     008F                     	;# 
   756     0090                     	;# 
   757     0091                     	;# 
   758     0092                     	;# 
   759     0093                     	;# 
   760     0095                     	;# 
   761     0096                     	;# 
   762     0097                     	;# 
   763     0098                     	;# 
   764     0099                     	;# 
   765     009A                     	;# 
   766     009B                     	;# 
   767     009B                     	;# 
   768     009C                     	;# 
   769     009D                     	;# 
   770     009E                     	;# 
   771     009F                     	;# 
   772     010C                     	;# 
   773     010D                     	;# 
   774     010E                     	;# 
   775     010F                     	;# 
   776     0110                     	;# 
   777     0111                     	;# 
   778     0112                     	;# 
   779     0113                     	;# 
   780     0114                     	;# 
   781     0115                     	;# 
   782     0116                     	;# 
   783     0117                     	;# 
   784     0118                     	;# 
   785     0119                     	;# 
   786     011A                     	;# 
   787     011B                     	;# 
   788     011B                     	;# 
   789     011C                     	;# 
   790     018C                     	;# 
   791     018D                     	;# 
   792     018E                     	;# 
   793     018F                     	;# 
   794     0190                     	;# 
   795     0191                     	;# 
   796     0191                     	;# 
   797     0192                     	;# 
   798     0193                     	;# 
   799     0193                     	;# 
   800     0194                     	;# 
   801     0195                     	;# 
   802     0196                     	;# 
   803     0197                     	;# 
   804     0199                     	;# 
   805     0199                     	;# 
   806     0199                     	;# 
   807     019A                     	;# 
   808     019A                     	;# 
   809     019A                     	;# 
   810     019B                     	;# 
   811     019B                     	;# 
   812     019B                     	;# 
   813     019B                     	;# 
   814     019B                     	;# 
   815     019C                     	;# 
   816     019C                     	;# 
   817     019C                     	;# 
   818     019D                     	;# 
   819     019D                     	;# 
   820     019D                     	;# 
   821     019E                     	;# 
   822     019E                     	;# 
   823     019E                     	;# 
   824     019F                     	;# 
   825     019F                     	;# 
   826     019F                     	;# 
   827     019F                     	;# 
   828     019F                     	;# 
   829     020C                     	;# 
   830     020D                     	;# 
   831     020E                     	;# 
   832     020F                     	;# 
   833     0210                     	;# 
   834     0211                     	;# 
   835     0211                     	;# 
   836     0212                     	;# 
   837     0212                     	;# 
   838     0213                     	;# 
   839     0213                     	;# 
   840     0214                     	;# 
   841     0214                     	;# 
   842     0215                     	;# 
   843     0215                     	;# 
   844     0215                     	;# 
   845     0215                     	;# 
   846     0216                     	;# 
   847     0216                     	;# 
   848     0217                     	;# 
   849     0217                     	;# 
   850     028C                     	;# 
   851     028D                     	;# 
   852     028E                     	;# 
   853     028F                     	;# 
   854     0290                     	;# 
   855     0291                     	;# 
   856     0291                     	;# 
   857     0292                     	;# 
   858     0293                     	;# 
   859     0293                     	;# 
   860     0298                     	;# 
   861     0298                     	;# 
   862     0299                     	;# 
   863     029A                     	;# 
   864     029A                     	;# 
   865     029E                     	;# 
   866     030C                     	;# 
   867     030D                     	;# 
   868     030E                     	;# 
   869     030F                     	;# 
   870     0310                     	;# 
   871     038C                     	;# 
   872     038D                     	;# 
   873     038E                     	;# 
   874     038F                     	;# 
   875     0390                     	;# 
   876     0391                     	;# 
   877     0392                     	;# 
   878     0393                     	;# 
   879     0394                     	;# 
   880     0395                     	;# 
   881     0396                     	;# 
   882     0397                     	;# 
   883     0398                     	;# 
   884     0399                     	;# 
   885     039D                     	;# 
   886     039E                     	;# 
   887     039F                     	;# 
   888     0415                     	;# 
   889     0416                     	;# 
   890     0417                     	;# 
   891     041C                     	;# 
   892     041D                     	;# 
   893     041E                     	;# 
   894     0498                     	;# 
   895     0498                     	;# 
   896     0499                     	;# 
   897     049A                     	;# 
   898     049B                     	;# 
   899     049B                     	;# 
   900     049C                     	;# 
   901     049D                     	;# 
   902     049E                     	;# 
   903     049F                     	;# 
   904     0511                     	;# 
   905     0515                     	;# 
   906     0617                     	;# 
   907     0618                     	;# 
   908     0619                     	;# 
   909     0619                     	;# 
   910     061A                     	;# 
   911     061B                     	;# 
   912     061C                     	;# 
   913     061C                     	;# 
   914     0691                     	;# 
   915     0692                     	;# 
   916     0693                     	;# 
   917     0694                     	;# 
   918     0695                     	;# 
   919     0696                     	;# 
   920     0697                     	;# 
   921     0698                     	;# 
   922     0699                     	;# 
   923     069A                     	;# 
   924     069B                     	;# 
   925     069C                     	;# 
   926     069D                     	;# 
   927     069E                     	;# 
   928     069F                     	;# 
   929     0E0F                     	;# 
   930     0E10                     	;# 
   931     0E11                     	;# 
   932     0E12                     	;# 
   933     0E13                     	;# 
   934     0E14                     	;# 
   935     0E15                     	;# 
   936     0E17                     	;# 
   937     0E20                     	;# 
   938     0E21                     	;# 
   939     0E22                     	;# 
   940     0E24                     	;# 
   941     0E25                     	;# 
   942     0E28                     	;# 
   943     0E29                     	;# 
   944     0E2A                     	;# 
   945     0E2B                     	;# 
   946     0E90                     	;# 
   947     0E91                     	;# 
   948     0E92                     	;# 
   949     0E93                     	;# 
   950     0E94                     	;# 
   951     0E95                     	;# 
   952     0E96                     	;# 
   953     0E97                     	;# 
   954     0E98                     	;# 
   955     0E99                     	;# 
   956     0E9A                     	;# 
   957     0E9B                     	;# 
   958     0E9C                     	;# 
   959     0E9D                     	;# 
   960     0E9E                     	;# 
   961     0E9F                     	;# 
   962     0EA0                     	;# 
   963     0EA1                     	;# 
   964     0EA2                     	;# 
   965     0EA3                     	;# 
   966     0EA4                     	;# 
   967     0EA5                     	;# 
   968     0EA6                     	;# 
   969     0EA7                     	;# 
   970     0EA8                     	;# 
   971     0EA9                     	;# 
   972     0EAA                     	;# 
   973     0EAB                     	;# 
   974     0EAC                     	;# 
   975     0EAD                     	;# 
   976     0EAE                     	;# 
   977     0EAF                     	;# 
   978     0EB0                     	;# 
   979     0EB1                     	;# 
   980     0EB2                     	;# 
   981     0F0F                     	;# 
   982     0F10                     	;# 
   983     0F11                     	;# 
   984     0F12                     	;# 
   985     0F13                     	;# 
   986     0F14                     	;# 
   987     0F15                     	;# 
   988     0F16                     	;# 
   989     0F17                     	;# 
   990     0F18                     	;# 
   991     0F19                     	;# 
   992     0F1A                     	;# 
   993     0F1B                     	;# 
   994     0F1C                     	;# 
   995     0F1D                     	;# 
   996     0F1E                     	;# 
   997     0F1F                     	;# 
   998     0F20                     	;# 
   999     0F21                     	;# 
  1000     0F22                     	;# 
  1001     0F23                     	;# 
  1002     0F24                     	;# 
  1003     0F25                     	;# 
  1004     0F26                     	;# 
  1005     0F27                     	;# 
  1006     0F28                     	;# 
  1007     0F29                     	;# 
  1008     0F2A                     	;# 
  1009     0F2B                     	;# 
  1010     0F2C                     	;# 
  1011     0F2D                     	;# 
  1012     0F2E                     	;# 
  1013     0F2F                     	;# 
  1014     0F30                     	;# 
  1015     0F31                     	;# 
  1016     0F32                     	;# 
  1017     0F33                     	;# 
  1018     0F34                     	;# 
  1019     0F35                     	;# 
  1020     0F36                     	;# 
  1021     0F37                     	;# 
  1022     0FE4                     	;# 
  1023     0FE5                     	;# 
  1024     0FE6                     	;# 
  1025     0FE7                     	;# 
  1026     0FE8                     	;# 
  1027     0FE9                     	;# 
  1028     0FEA                     	;# 
  1029     0FEB                     	;# 
  1030     0FED                     	;# 
  1031     0FEE                     	;# 
  1032     0FEF                     	;# 
  1033                           
  1034                           	psect	idataBANK1
  1035     173E                     __pidataBANK1:
  1036                           
  1037                           ;initializer for Lcd_Progress_Bar_Init@F6644
  1038     173E  3400               	retlw	0
  1039     173F  3418               	retlw	24
  1040     1740  3418               	retlw	24
  1041     1741  341C               	retlw	28
  1042     1742  341E               	retlw	30
  1043     1743  341F               	retlw	31
  1044     1744  341F               	retlw	31
  1045     1745  341F               	retlw	31
  1046                           
  1047                           ;initializer for Lcd_Progress_Bar_Init@F6642
  1048     1746  3400               	retlw	0
  1049     1747  3410               	retlw	16
  1050     1748  3418               	retlw	24
  1051     1749  341C               	retlw	28
  1052     174A  341E               	retlw	30
  1053     174B  341F               	retlw	31
  1054     174C  341F               	retlw	31
  1055     174D  341F               	retlw	31
  1056                           
  1057                           ;initializer for _calibration_value
  1058     174E  3462               	retlw	98
  1059                           
  1060                           	psect	idataBANK2
  1061     08E1                     __pidataBANK2:
  1062                           
  1063                           ;initializer for Lcd_Signal_Init@F6678
  1064     08E1  3400               	retlw	0
  1065     08E2  3400               	retlw	0
  1066     08E3  3400               	retlw	0
  1067     08E4  3404               	retlw	4
  1068     08E5  340E               	retlw	14
  1069     08E6  341F               	retlw	31
  1070     08E7  3400               	retlw	0
  1071     08E8  3400               	retlw	0
  1072                           
  1073                           ;initializer for Lcd_Battery_Init@F6671
  1074     08E9  340E               	retlw	14
  1075     08EA  341F               	retlw	31
  1076     08EB  341F               	retlw	31
  1077     08EC  341F               	retlw	31
  1078     08ED  341F               	retlw	31
  1079     08EE  341F               	retlw	31
  1080     08EF  341F               	retlw	31
  1081     08F0  340E               	retlw	14
  1082                           
  1083                           ;initializer for Lcd_Battery_Init@F6669
  1084     08F1  340E               	retlw	14
  1085     08F2  3411               	retlw	17
  1086     08F3  341F               	retlw	31
  1087     08F4  341F               	retlw	31
  1088     08F5  341F               	retlw	31
  1089     08F6  341F               	retlw	31
  1090     08F7  341F               	retlw	31
  1091     08F8  340E               	retlw	14
  1092                           
  1093                           ;initializer for Lcd_Battery_Init@F6667
  1094     08F9  340E               	retlw	14
  1095     08FA  3411               	retlw	17
  1096     08FB  3411               	retlw	17
  1097     08FC  341F               	retlw	31
  1098     08FD  341F               	retlw	31
  1099     08FE  341F               	retlw	31
  1100     08FF  341F               	retlw	31
  1101     0900  340E               	retlw	14
  1102                           
  1103                           ;initializer for Lcd_Battery_Init@F6665
  1104     0901  340E               	retlw	14
  1105     0902  3411               	retlw	17
  1106     0903  3411               	retlw	17
  1107     0904  3411               	retlw	17
  1108     0905  341F               	retlw	31
  1109     0906  341F               	retlw	31
  1110     0907  341F               	retlw	31
  1111     0908  340E               	retlw	14
  1112                           
  1113                           ;initializer for Lcd_Battery_Init@F6663
  1114     0909  340E               	retlw	14
  1115     090A  3411               	retlw	17
  1116     090B  3411               	retlw	17
  1117     090C  3411               	retlw	17
  1118     090D  3411               	retlw	17
  1119     090E  341F               	retlw	31
  1120     090F  341F               	retlw	31
  1121     0910  340E               	retlw	14
  1122                           
  1123                           ;initializer for Lcd_Battery_Init@F6661
  1124     0911  340E               	retlw	14
  1125     0912  3411               	retlw	17
  1126     0913  3411               	retlw	17
  1127     0914  3411               	retlw	17
  1128     0915  3411               	retlw	17
  1129     0916  3411               	retlw	17
  1130     0917  341F               	retlw	31
  1131     0918  340E               	retlw	14
  1132                           
  1133                           ;initializer for Lcd_Battery_Init@F6659
  1134     0919  340E               	retlw	14
  1135     091A  3411               	retlw	17
  1136     091B  3411               	retlw	17
  1137     091C  3411               	retlw	17
  1138     091D  3411               	retlw	17
  1139     091E  3411               	retlw	17
  1140     091F  3411               	retlw	17
  1141     0920  340E               	retlw	14
  1142                           
  1143                           ;initializer for Lcd_Progress_Bar_Init@F6648
  1144     0921  341F               	retlw	31
  1145     0922  341F               	retlw	31
  1146     0923  341F               	retlw	31
  1147     0924  341F               	retlw	31
  1148     0925  341F               	retlw	31
  1149     0926  341F               	retlw	31
  1150     0927  341F               	retlw	31
  1151     0928  341F               	retlw	31
  1152                           
  1153                           ;initializer for Lcd_Progress_Bar_Init@F6646
  1154     0929  3400               	retlw	0
  1155     092A  341C               	retlw	28
  1156     092B  341C               	retlw	28
  1157     092C  341C               	retlw	28
  1158     092D  341E               	retlw	30
  1159     092E  341F               	retlw	31
  1160     092F  341F               	retlw	31
  1161     0930  341F               	retlw	31
  1162                           
  1163                           	psect	idataBANK3
  1164     171D                     __pidataBANK3:
  1165                           
  1166                           ;initializer for Lcd_Signal_Init@F6682
  1167     171D  3404               	retlw	4
  1168     171E  340E               	retlw	14
  1169     171F  341F               	retlw	31
  1170     1720  340E               	retlw	14
  1171     1721  340E               	retlw	14
  1172     1722  341F               	retlw	31
  1173     1723  3400               	retlw	0
  1174     1724  3400               	retlw	0
  1175                           
  1176                           ;initializer for Lcd_Signal_Init@F6680
  1177     1725  3400               	retlw	0
  1178     1726  3404               	retlw	4
  1179     1727  340E               	retlw	14
  1180     1728  3404               	retlw	4
  1181     1729  340E               	retlw	14
  1182     172A  341F               	retlw	31
  1183     172B  3400               	retlw	0
  1184     172C  3400               	retlw	0
  1185     000E                     _PORTCbits	set	14
  1186     000B                     _INTCONbits	set	11
  1187     0015                     _TMR0	set	21
  1188     007A                     _RD2	set	122
  1189     007B                     _RD3	set	123
  1190     007F                     _RD7	set	127
  1191     007E                     _RD6	set	126
  1192     007D                     _RD5	set	125
  1193     007C                     _RD4	set	124
  1194     0095                     _OPTION_REGbits	set	149
  1195     008D                     _TRISBbits	set	141
  1196     008E                     _TRISCbits	set	142
  1197     04CF                     _SPLLEN	set	1231
  1198     04CE                     _IRCF3	set	1230
  1199     04CD                     _IRCF2	set	1229
  1200     04CC                     _IRCF1	set	1228
  1201     04CB                     _IRCF0	set	1227
  1202     04C9                     _SCS1	set	1225
  1203     04C8                     _SCS0	set	1224
  1204     010F                     _LATDbits	set	271
  1205     010E                     _LATCbits	set	270
  1206     018D                     _ANSELBbits	set	397
  1207     018E                     _ANSELCbits	set	398
  1208                           
  1209                           	psect	stringtext1
  1210     1800                     __pstringtext1:
  1211     1800                     STR_14:
  1212     1800  3430               	retlw	48	;'0'
  1213     1801  3431               	retlw	49	;'1'
  1214     1802  3432               	retlw	50	;'2'
  1215     1803  3433               	retlw	51	;'3'
  1216     1804  3434               	retlw	52	;'4'
  1217     1805  3435               	retlw	53	;'5'
  1218     1806  3436               	retlw	54	;'6'
  1219     1807  3437               	retlw	55	;'7'
  1220     1808  3438               	retlw	56	;'8'
  1221     1809  3439               	retlw	57	;'9'
  1222     180A  3441               	retlw	65	;'A'
  1223     180B  3442               	retlw	66	;'B'
  1224     180C  3443               	retlw	67	;'C'
  1225     180D  3444               	retlw	68	;'D'
  1226     180E  3445               	retlw	69	;'E'
  1227     180F  3446               	retlw	70	;'F'
  1228     1810  3400               	retlw	0
  1229                           
  1230                           	psect	stringtext2
  1231     1811                     __pstringtext2:
  1232     1811                     STR_1:
  1233     1811  3449               	retlw	73	;'I'
  1234     1812  346E               	retlw	110	;'n'
  1235     1813  3464               	retlw	100	;'d'
  1236     1814  3475               	retlw	117	;'u'
  1237     1815  3463               	retlw	99	;'c'
  1238     1816  3474               	retlw	116	;'t'
  1239     1817  3461               	retlw	97	;'a'
  1240     1818  346E               	retlw	110	;'n'
  1241     1819  3463               	retlw	99	;'c'
  1242     181A  3465               	retlw	101	;'e'
  1243     181B  3420               	retlw	32	;' '
  1244     181C  344D               	retlw	77	;'M'
  1245     181D  3465               	retlw	101	;'e'
  1246     181E  3474               	retlw	116	;'t'
  1247     181F  3465               	retlw	101	;'e'
  1248     1820  3472               	retlw	114	;'r'
  1249     1821  3400               	retlw	0
  1250                           
  1251                           	psect	stringtext3
  1252     1822                     __pstringtext3:
  1253     1822                     STR_2:
  1254     1822  3443               	retlw	67	;'C'
  1255     1823  3461               	retlw	97	;'a'
  1256     1824  346C               	retlw	108	;'l'
  1257     1825  3469               	retlw	105	;'i'
  1258     1826  3462               	retlw	98	;'b'
  1259     1827  3472               	retlw	114	;'r'
  1260     1828  3461               	retlw	97	;'a'
  1261     1829  3474               	retlw	116	;'t'
  1262     182A  3469               	retlw	105	;'i'
  1263     182B  346E               	retlw	110	;'n'
  1264     182C  3467               	retlw	103	;'g'
  1265     182D  342E               	retlw	46	;'.'
  1266     182E  342E               	retlw	46	;'.'
  1267     182F  342E               	retlw	46	;'.'
  1268     1830  3400               	retlw	0
  1269                           
  1270                           	psect	stringtext4
  1271     1831                     __pstringtext4:
  1272     1831                     STR_13:
  1273     1831  344C               	retlw	76	;'L'
  1274     1832  346F               	retlw	111	;'o'
  1275     1833  3477               	retlw	119	;'w'
  1276     1834  3420               	retlw	32	;' '
  1277     1835  3446               	retlw	70	;'F'
  1278     1836  3472               	retlw	114	;'r'
  1279     1837  3465               	retlw	101	;'e'
  1280     1838  3471               	retlw	113	;'q'
  1281     1839  3475               	retlw	117	;'u'
  1282     183A  3465               	retlw	101	;'e'
  1283     183B  346E               	retlw	110	;'n'
  1284     183C  3463               	retlw	99	;'c'
  1285     183D  3479               	retlw	121	;'y'
  1286     183E  3400               	retlw	0
  1287                           
  1288                           	psect	stringtext5
  1289     183F                     __pstringtext5:
  1290     183F                     STR_6:
  1291     183F  3443               	retlw	67	;'C'
  1292     1840  3461               	retlw	97	;'a'
  1293     1841  346C               	retlw	108	;'l'
  1294     1842  3420               	retlw	32	;' '
  1295     1843  3445               	retlw	69	;'E'
  1296     1844  3472               	retlw	114	;'r'
  1297     1845  3472               	retlw	114	;'r'
  1298     1846  346F               	retlw	111	;'o'
  1299     1847  3472               	retlw	114	;'r'
  1300     1848  3400               	retlw	0
  1301                           
  1302                           	psect	stringtext6
  1303     1849                     __pstringtext6:
  1304     1849                     STR_16:
  1305     1849  3442               	retlw	66	;'B'
  1306     184A  3461               	retlw	97	;'a'
  1307     184B  3474               	retlw	116	;'t'
  1308     184C  3474               	retlw	116	;'t'
  1309     184D  3465               	retlw	101	;'e'
  1310     184E  3472               	retlw	114	;'r'
  1311     184F  3479               	retlw	121	;'y'
  1312     1850  343A               	retlw	58	;':'
  1313     1851  3400               	retlw	0
  1314                           
  1315                           	psect	stringtext7
  1316     1852                     __pstringtext7:
  1317     1852                     STR_3:
  1318     1852  3443               	retlw	67	;'C'
  1319     1853  3461               	retlw	97	;'a'
  1320     1854  346C               	retlw	108	;'l'
  1321     1855  3420               	retlw	32	;' '
  1322     1856  3444               	retlw	68	;'D'
  1323     1857  346F               	retlw	111	;'o'
  1324     1858  346E               	retlw	110	;'n'
  1325     1859  3465               	retlw	101	;'e'
  1326     185A  3400               	retlw	0
  1327                           
  1328                           	psect	stringtext8
  1329     185B                     __pstringtext8:
  1330     185B                     STR_18:
  1331     185B  3453               	retlw	83	;'S'
  1332     185C  3469               	retlw	105	;'i'
  1333     185D  3467               	retlw	103	;'g'
  1334     185E  346E               	retlw	110	;'n'
  1335     185F  3461               	retlw	97	;'a'
  1336     1860  346C               	retlw	108	;'l'
  1337     1861  343A               	retlw	58	;':'
  1338     1862  3400               	retlw	0
  1339                           
  1340                           	psect	stringtext9
  1341     1863                     __pstringtext9:
  1342     1863                     STR_4:
  1343     1863  344F               	retlw	79	;'O'
  1344     1864  3466               	retlw	102	;'f'
  1345     1865  3466               	retlw	102	;'f'
  1346     1866  3473               	retlw	115	;'s'
  1347     1867  3465               	retlw	101	;'e'
  1348     1868  3474               	retlw	116	;'t'
  1349     1869  343A               	retlw	58	;':'
  1350     186A  3400               	retlw	0
  1351                           
  1352                           	psect	stringtext10
  1353     186B                     __pstringtext10:
  1354     186B                     STR_7:
  1355     186B  3446               	retlw	70	;'F'
  1356     186C  3472               	retlw	114	;'r'
  1357     186D  3465               	retlw	101	;'e'
  1358     186E  3471               	retlw	113	;'q'
  1359     186F  343A               	retlw	58	;':'
  1360     1870  3420               	retlw	32	;' '
  1361     1871  3400               	retlw	0
  1362                           
  1363                           	psect	stringtext11
  1364     1872                     __pstringtext11:
  1365     1872                     STR_17:
  1366     1872  3425               	retlw	37	;'%'
  1367     1873  3464               	retlw	100	;'d'
  1368     1874  3425               	retlw	37	;'%'
  1369     1875  3425               	retlw	37	;'%'
  1370     1876  3400               	retlw	0
  1371                           
  1372                           	psect	stringtext12
  1373     1877                     __pstringtext12:
  1374     1877                     STR_15:
  1375     1877  3425               	retlw	37	;'%'
  1376     1878  3430               	retlw	48	;'0'
  1377     1879  342A               	retlw	42	;'*'
  1378     187A  3464               	retlw	100	;'d'
  1379     187B  3400               	retlw	0
  1380                           
  1381                           	psect	stringtext13
  1382     187C                     __pstringtext13:
  1383     187C                     STR_9:
  1384     187C  344C               	retlw	76	;'L'
  1385     187D  343A               	retlw	58	;':'
  1386     187E  3420               	retlw	32	;' '
  1387     187F  3400               	retlw	0
  1388                           
  1389                           	psect	stringtext14
  1390     1880                     __pstringtext14:
  1391     1880                     STR_8:
  1392     1880  3420               	retlw	32	;' '
  1393     1881  3448               	retlw	72	;'H'
  1394     1882  347A               	retlw	122	;'z'
  1395     1883  3400               	retlw	0
  1396                           
  1397                           	psect	stringtext15
  1398     1884                     __pstringtext15:
  1399     1884                     STR_10:
  1400     1884  346D               	retlw	109	;'m'
  1401     1885  3448               	retlw	72	;'H'
  1402     1886  3400               	retlw	0
  1403                           
  1404                           	psect	stringtext16
  1405     1887                     __pstringtext16:
  1406     1887                     STR_5:
  1407     1887  3475               	retlw	117	;'u'
  1408     1888  3448               	retlw	72	;'H'
  1409     1889  3400               	retlw	0
  1410                           
  1411                           	psect	stringtext17
  1412     0000                     __pstringtext17:
  1413     187C                     
  1414                           	psect	cinit
  1415     0014                     start_initialization:	
  1416                           ; #config settings
  1417                           
  1418     0014                     __initialization:
  1419                           
  1420                           ; Initialize objects allocated to BANK1
  1421     0014  303E               	movlw	low __pidataBANK1
  1422     0015  0084               	movwf	4
  1423     0016  3097               	movlw	(high __pidataBANK1)| (0+128)
  1424     0017  0085               	movwf	5
  1425     0018  30D8               	movlw	low __pdataBANK1
  1426     0019  0086               	movwf	6
  1427     001A  3000               	movlw	high __pdataBANK1
  1428     001B  0087               	movwf	7
  1429     001C  3011               	movlw	17
  1430     001D  3196  26FA  3180   	fcall	init_ram
  1431                           
  1432                           ; Initialize objects allocated to BANK2
  1433     0020  30E1               	movlw	low __pidataBANK2
  1434     0021  0084               	movwf	4
  1435     0022  3088               	movlw	(high __pidataBANK2)| (0+128)
  1436     0023  0085               	movwf	5
  1437     0024  3020               	movlw	low __pdataBANK2
  1438     0025  0086               	movwf	6
  1439     0026  3001               	movlw	high __pdataBANK2
  1440     0027  0087               	movwf	7
  1441     0028  3050               	movlw	80
  1442     0029  3196  26FA  3180   	fcall	init_ram
  1443                           
  1444                           ; Initialize objects allocated to BANK3
  1445     002C  301D               	movlw	low __pidataBANK3
  1446     002D  0084               	movwf	4
  1447     002E  3097               	movlw	(high __pidataBANK3)| (0+128)
  1448     002F  0085               	movwf	5
  1449     0030  30B0               	movlw	low __pdataBANK3
  1450     0031  0086               	movwf	6
  1451     0032  3001               	movlw	high __pdataBANK3
  1452     0033  0087               	movwf	7
  1453     0034  3010               	movlw	16
  1454     0035  3196  26FA  3180   	fcall	init_ram
  1455                           
  1456                           ; Clear objects allocated to BANK1
  1457     0038  0021               	movlb	1	; select bank1
  1458     0039  01E9               	clrf	__pbssBANK1& (0+127)
  1459     003A  01EA               	clrf	(__pbssBANK1+1)& (0+127)
  1460                           
  1461                           ; Clear objects allocated to BANK3
  1462     003B  30A0               	movlw	low __pbssBANK3
  1463     003C  0084               	movwf	4
  1464     003D  3001               	movlw	high __pbssBANK3
  1465     003E  0085               	movwf	5
  1466     003F  3010               	movlw	16
  1467     0040  3196  26F4  3180   	fcall	clear_ram0
  1468     0043                     end_of_initialization:	
  1469                           ;End of C runtime variable initialization code
  1470                           
  1471     0043                     __end_of__initialization:
  1472     0043  107E               	bcf	int$flags,0	;clear compiler interrupt flag (level 1)
  1473     0044  0020               	movlb	0
  1474     0045  3184  2C8E         	ljmp	_main	;jump to C main() function
  1475                           
  1476                           	psect	bssBANK1
  1477     00E9                     __pbssBANK1:
  1478     00E9                     _tmr0_overflows:
  1479     00E9                     	ds	2
  1480                           
  1481                           	psect	dataBANK1
  1482     00D8                     __pdataBANK1:
  1483     00D8                     Lcd_Progress_Bar_Init@F6644:
  1484     00D8                     	ds	8
  1485     00E0                     Lcd_Progress_Bar_Init@F6642:
  1486     00E0                     	ds	8
  1487     00E8                     _calibration_value:
  1488     00E8                     	ds	1
  1489                           
  1490                           	psect	dataBANK2
  1491     0120                     __pdataBANK2:
  1492     0120                     Lcd_Signal_Init@F6678:
  1493     0120                     	ds	8
  1494     0128                     Lcd_Battery_Init@F6671:
  1495     0128                     	ds	8
  1496     0130                     Lcd_Battery_Init@F6669:
  1497     0130                     	ds	8
  1498     0138                     Lcd_Battery_Init@F6667:
  1499     0138                     	ds	8
  1500     0140                     Lcd_Battery_Init@F6665:
  1501     0140                     	ds	8
  1502     0148                     Lcd_Battery_Init@F6663:
  1503     0148                     	ds	8
  1504     0150                     Lcd_Battery_Init@F6661:
  1505     0150                     	ds	8
  1506     0158                     Lcd_Battery_Init@F6659:
  1507     0158                     	ds	8
  1508     0160                     Lcd_Progress_Bar_Init@F6648:
  1509     0160                     	ds	8
  1510     0168                     Lcd_Progress_Bar_Init@F6646:
  1511     0168                     	ds	8
  1512                           
  1513                           	psect	bssBANK3
  1514     01A0                     __pbssBANK3:
  1515     01A0                     ftoa@buf:
  1516     01A0                     	ds	16
  1517                           
  1518                           	psect	dataBANK3
  1519     01B0                     __pdataBANK3:
  1520     01B0                     Lcd_Signal_Init@F6682:
  1521     01B0                     	ds	8
  1522     01B8                     Lcd_Signal_Init@F6680:
  1523     01B8                     	ds	8
  1524                           
  1525                           	psect	inittext
  1526     16FA                     init_ram:
  1527     16FA  00FE               	movwf	btemp
  1528     16FB                     initloop:
  1529     16FB  0012               	moviw fsr0++
  1530     16FC  001E               	movwi fsr1++
  1531     16FD  0BFE               	decfsz	btemp,f
  1532     16FE  2EFB               	goto	initloop
  1533     16FF  3400               	retlw	0
  1534                           
  1535                           	psect	clrtext
  1536     16F4                     clear_ram0:	
  1537                           ;	Called with FSR0 containing the base address, and
  1538                           ;	WREG with the size to clear
  1539                           
  1540     16F4  0064               	clrwdt	;clear the watchdog before getting into this loop
  1541     16F5                     clrloop0:
  1542     16F5  0180               	clrf	0	;clear RAM location pointed to by FSR
  1543     16F6  3101               	addfsr 0,1
  1544     16F7  0B89               	decfsz	9,f	;Have we reached the end of clearing yet?
  1545     16F8  2EF5               	goto	clrloop0	;have we reached the end yet?
  1546     16F9  3400               	retlw	0	;all done for this memory range, return
  1547                           
  1548                           	psect	cstackBANK1
  1549     00A0                     __pcstackBANK1:
  1550     00A0                     calibrate@capacitance:
  1551                           
  1552                           ; 4 bytes @ 0x0
  1553     00A0                     	ds	4
  1554     00A4                     calibrate@precomputed_constant:
  1555                           
  1556                           ; 4 bytes @ 0x4
  1557     00A4                     	ds	4
  1558     00A8                     calibrate@inductance_h:
  1559                           
  1560                           ; 4 bytes @ 0x8
  1561     00A8                     	ds	4
  1562     00AC                     _calibrate$1134:
  1563                           
  1564                           ; 4 bytes @ 0xC
  1565     00AC                     	ds	4
  1566     00B0                     calibrate@total_counts:
  1567                           
  1568                           ; 2 bytes @ 0x10
  1569     00B0                     	ds	2
  1570     00B2                     calibrate@frequency:
  1571                           
  1572                           ; 4 bytes @ 0x12
  1573     00B2                     	ds	4
  1574     00B6                     calibrate@count_start:
  1575                           
  1576                           ; 2 bytes @ 0x16
  1577     00B6                     	ds	2
  1578     00B8                     calibrate@count_end:
  1579                           
  1580                           ; 2 bytes @ 0x18
  1581     00B8                     	ds	2
  1582     00BA                     main@inductance_h:
  1583                           
  1584                           ; 4 bytes @ 0x1A
  1585     00BA                     	ds	4
  1586     00BE                     main@inductance_uh:
  1587                           
  1588                           ; 4 bytes @ 0x1E
  1589     00BE                     	ds	4
  1590     00C2                     main@capacitance:
  1591                           
  1592                           ; 4 bytes @ 0x22
  1593     00C2                     	ds	4
  1594     00C6                     main@precomputed_constant:
  1595                           
  1596                           ; 4 bytes @ 0x26
  1597     00C6                     	ds	4
  1598     00CA                     _main$1135:
  1599                           
  1600                           ; 4 bytes @ 0x2A
  1601     00CA                     	ds	4
  1602     00CE                     main@total_counts:
  1603                           
  1604                           ; 2 bytes @ 0x2E
  1605     00CE                     	ds	2
  1606     00D0                     main@count_start:
  1607                           
  1608                           ; 2 bytes @ 0x30
  1609     00D0                     	ds	2
  1610     00D2                     main@count_end:
  1611                           
  1612                           ; 2 bytes @ 0x32
  1613     00D2                     	ds	2
  1614     00D4                     main@frequency:
  1615                           
  1616                           ; 4 bytes @ 0x34
  1617     00D4                     	ds	4
  1618                           
  1619                           	psect	cstackCOMMON
  1620     0070                     __pcstackCOMMON:
  1621     0070                     ?___flge:
  1622     0070                     ?_internal_32:	
  1623                           ; 1 bit 
  1624                           
  1625     0070                     ??_internal_32:	
  1626                           ; 1 bytes @ 0x0
  1627                           
  1628     0070                     ?_Lcd_Init:	
  1629                           ; 1 bytes @ 0x0
  1630                           
  1631     0070                     ?_Lcd_Clear:	
  1632                           ; 1 bytes @ 0x0
  1633                           
  1634     0070                     ?_initMain:	
  1635                           ; 1 bytes @ 0x0
  1636                           
  1637     0070                     ?_isr:	
  1638                           ; 1 bytes @ 0x0
  1639                           
  1640     0070                     ??_isr:	
  1641                           ; 1 bytes @ 0x0
  1642                           
  1643     0070                     ?_calibrate:	
  1644                           ; 1 bytes @ 0x0
  1645                           
  1646     0070                     ?_main:	
  1647                           ; 1 bytes @ 0x0
  1648                           
  1649     0070                     ?_Lcd_Port:	
  1650                           ; 1 bytes @ 0x0
  1651                           
  1652     0070                     ??_Lcd_Port:	
  1653                           ; 1 bytes @ 0x0
  1654                           
  1655     0070                     ?_Lcd_Enable_Pulse:	
  1656                           ; 1 bytes @ 0x0
  1657                           
  1658     0070                     ??_Lcd_Enable_Pulse:	
  1659                           ; 1 bytes @ 0x0
  1660                           
  1661     0070                     ?_Lcd_Cmd:	
  1662                           ; 1 bytes @ 0x0
  1663                           
  1664     0070                     ?_Lcd_Send_Command:	
  1665                           ; 1 bytes @ 0x0
  1666                           
  1667     0070                     ?_Lcd_Write_Char:	
  1668                           ; 1 bytes @ 0x0
  1669                           
  1670     0070                     ?__Umul8_16:	
  1671                           ; 1 bytes @ 0x0
  1672                           
  1673     0070                     ?_ReadTimer0WithOverflows:	
  1674                           ; 2 bytes @ 0x0
  1675                           
  1676     0070                     ?___wmul:	
  1677                           ; 2 bytes @ 0x0
  1678                           
  1679     0070                     ?___awdiv:	
  1680                           ; 2 bytes @ 0x0
  1681                           
  1682     0070                     ?___flneg:	
  1683                           ; 2 bytes @ 0x0
  1684                           
  1685     0070                     ?___fladd:	
  1686                           ; 4 bytes @ 0x0
  1687                           
  1688     0070                     ?___xxtofl:	
  1689                           ; 4 bytes @ 0x0
  1690                           
  1691     0070                     __Umul8_16@multiplicand:	
  1692                           ; 4 bytes @ 0x0
  1693                           
  1694     0070                     ___wmul@multiplier:	
  1695                           ; 1 bytes @ 0x0
  1696                           
  1697     0070                     ___awdiv@divisor:	
  1698                           ; 2 bytes @ 0x0
  1699                           
  1700     0070                     ___flge@ff1:	
  1701                           ; 2 bytes @ 0x0
  1702                           
  1703     0070                     ___flneg@f1:	
  1704                           ; 4 bytes @ 0x0
  1705                           
  1706     0070                     ___fladd@b:	
  1707                           ; 4 bytes @ 0x0
  1708                           
  1709     0070                     ___xxtofl@val:	
  1710                           ; 4 bytes @ 0x0
  1711                           
  1712                           
  1713                           ; 4 bytes @ 0x0
  1714     0070                     	ds	1
  1715     0071                     Lcd_Port@a:
  1716                           
  1717                           ; 1 bytes @ 0x1
  1718     0071                     	ds	1
  1719     0072                     ??__Umul8_16:
  1720     0072                     ??_ReadTimer0WithOverflows:	
  1721                           ; 1 bytes @ 0x2
  1722                           
  1723     0072                     ??_Lcd_Cmd:	
  1724                           ; 1 bytes @ 0x2
  1725                           
  1726     0072                     ??_Lcd_Write_Char:	
  1727                           ; 1 bytes @ 0x2
  1728                           
  1729     0072                     Lcd_Cmd@a:	
  1730                           ; 1 bytes @ 0x2
  1731                           
  1732     0072                     ___wmul@multiplicand:	
  1733                           ; 1 bytes @ 0x2
  1734                           
  1735     0072                     ___awdiv@dividend:	
  1736                           ; 2 bytes @ 0x2
  1737                           
  1738                           
  1739                           ; 2 bytes @ 0x2
  1740     0072                     	ds	1
  1741     0073                     ??_Lcd_Send_Command:
  1742     0073                     Lcd_Write_Char@a:	
  1743                           ; 1 bytes @ 0x3
  1744                           
  1745                           
  1746                           ; 1 bytes @ 0x3
  1747     0073                     	ds	1
  1748     0074                     ??___wmul:
  1749     0074                     ??___awdiv:	
  1750                           ; 1 bytes @ 0x4
  1751                           
  1752     0074                     ??___flneg:	
  1753                           ; 1 bytes @ 0x4
  1754                           
  1755     0074                     ??___xxtofl:	
  1756                           ; 1 bytes @ 0x4
  1757                           
  1758     0074                     Lcd_Send_Command@cmd:	
  1759                           ; 1 bytes @ 0x4
  1760                           
  1761     0074                     ___wmul@product:	
  1762                           ; 1 bytes @ 0x4
  1763                           
  1764     0074                     __Umul8_16@product:	
  1765                           ; 2 bytes @ 0x4
  1766                           
  1767     0074                     ___flge@ff2:	
  1768                           ; 2 bytes @ 0x4
  1769                           
  1770     0074                     ___fladd@a:	
  1771                           ; 4 bytes @ 0x4
  1772                           
  1773                           
  1774                           ; 4 bytes @ 0x4
  1775     0074                     	ds	1
  1776     0075                     ??_Lcd_Init:
  1777     0075                     ??_Lcd_Clear:	
  1778                           ; 1 bytes @ 0x5
  1779                           
  1780     0075                     ?_Lcd_Set_Cursor:	
  1781                           ; 1 bytes @ 0x5
  1782                           
  1783     0075                     Lcd_Set_Cursor@col:	
  1784                           ; 1 bytes @ 0x5
  1785                           
  1786     0075                     ___awdiv@counter:	
  1787                           ; 1 bytes @ 0x5
  1788                           
  1789                           
  1790                           ; 1 bytes @ 0x5
  1791     0075                     	ds	1
  1792     0076                     ??_Lcd_Set_Cursor:
  1793     0076                     Lcd_Set_Cursor@row:	
  1794                           ; 1 bytes @ 0x6
  1795                           
  1796     0076                     ___awdiv@sign:	
  1797                           ; 1 bytes @ 0x6
  1798                           
  1799     0076                     __Umul8_16@word_mpld:	
  1800                           ; 1 bytes @ 0x6
  1801                           
  1802                           
  1803                           ; 2 bytes @ 0x6
  1804     0076                     	ds	1
  1805     0077                     _Lcd_Set_Cursor$419:
  1806     0077                     ___awdiv@quotient:	
  1807                           ; 2 bytes @ 0x7
  1808                           
  1809                           
  1810                           ; 2 bytes @ 0x7
  1811     0077                     	ds	1
  1812     0078                     ??___flge:
  1813     0078                     ___fladd@signs:	
  1814                           ; 1 bytes @ 0x8
  1815                           
  1816     0078                     __Umul8_16@multiplier:	
  1817                           ; 1 bytes @ 0x8
  1818                           
  1819     0078                     ___xxtofl@sign:	
  1820                           ; 1 bytes @ 0x8
  1821                           
  1822                           
  1823                           ; 1 bytes @ 0x8
  1824     0078                     	ds	1
  1825     0079                     ??_itoa:
  1826     0079                     Lcd_Set_Cursor@address:	
  1827                           ; 1 bytes @ 0x9
  1828                           
  1829     0079                     ___fladd@aexp:	
  1830                           ; 1 bytes @ 0x9
  1831                           
  1832     0079                     ___xxtofl@exp:	
  1833                           ; 1 bytes @ 0x9
  1834                           
  1835                           
  1836                           ; 1 bytes @ 0x9
  1837     0079                     	ds	1
  1838     007A                     ___fladd@bexp:
  1839     007A                     ___xxtofl@arg:	
  1840                           ; 1 bytes @ 0xA
  1841                           
  1842                           
  1843                           ; 4 bytes @ 0xA
  1844     007A                     	ds	1
  1845     007B                     ___fladd@grs:
  1846                           
  1847                           ; 1 bytes @ 0xB
  1848     007B                     	ds	3
  1849     007E                     ??_Lcd_Write_Integer:
  1850     007E                     ??_Lcd_Write_Float:	
  1851                           ; 1 bytes @ 0xE
  1852                           
  1853     007E                     ??_displayResults:	
  1854                           ; 1 bytes @ 0xE
  1855                           
  1856     007E                     ??___flsub:	
  1857                           ; 1 bytes @ 0xE
  1858                           
  1859                           
  1860                           	psect	cstackBANK0
  1861     0020                     __pcstackBANK0:	
  1862                           ; 1 bytes @ 0xE
  1863                           
  1864     0020                     ??___fladd:
  1865     0020                     ?_itoa:	
  1866                           ; 1 bytes @ 0x0
  1867                           
  1868     0020                     ?___flmul:	
  1869                           ; 2 bytes @ 0x0
  1870                           
  1871     0020                     itoa@buf:	
  1872                           ; 4 bytes @ 0x0
  1873                           
  1874     0020                     ___flmul@b:	
  1875                           ; 2 bytes @ 0x0
  1876                           
  1877                           
  1878                           ; 4 bytes @ 0x0
  1879     0020                     	ds	2
  1880     0022                     itoa@value:
  1881                           
  1882                           ; 2 bytes @ 0x2
  1883     0022                     	ds	2
  1884     0024                     itoa@base:
  1885     0024                     ___flmul@a:	
  1886                           ; 2 bytes @ 0x4
  1887                           
  1888                           
  1889                           ; 4 bytes @ 0x4
  1890     0024                     	ds	2
  1891     0026                     itoa@tmp_value:
  1892                           
  1893                           ; 2 bytes @ 0x6
  1894     0026                     	ds	2
  1895     0028                     ??___flmul:
  1896     0028                     itoa@tmp_char:	
  1897                           ; 1 bytes @ 0x8
  1898                           
  1899                           
  1900                           ; 1 bytes @ 0x8
  1901     0028                     	ds	1
  1902     0029                     itoa@ptr1:
  1903                           
  1904                           ; 2 bytes @ 0x9
  1905     0029                     	ds	2
  1906     002B                     itoa@ptr:
  1907                           
  1908                           ; 2 bytes @ 0xB
  1909     002B                     	ds	2
  1910     002D                     ?_Lcd_Write_String:
  1911     002D                     ___flmul@sign:	
  1912                           ; 1 bytes @ 0xD
  1913                           
  1914     002D                     Lcd_Write_String@str:	
  1915                           ; 1 bytes @ 0xD
  1916                           
  1917                           
  1918                           ; 2 bytes @ 0xD
  1919     002D                     	ds	1
  1920     002E                     ___flmul@grs:
  1921                           
  1922                           ; 4 bytes @ 0xE
  1923     002E                     	ds	1
  1924     002F                     ??_Lcd_Write_String:
  1925                           
  1926                           ; 1 bytes @ 0xF
  1927     002F                     	ds	1
  1928     0030                     ??_initMain:
  1929                           
  1930                           ; 1 bytes @ 0x10
  1931     0030                     	ds	2
  1932     0032                     ___flmul@aexp:
  1933                           
  1934                           ; 1 bytes @ 0x12
  1935     0032                     	ds	1
  1936     0033                     ___flmul@bexp:
  1937                           
  1938                           ; 1 bytes @ 0x13
  1939     0033                     	ds	1
  1940     0034                     ___flmul@prod:
  1941                           
  1942                           ; 4 bytes @ 0x14
  1943     0034                     	ds	4
  1944     0038                     ___flmul@temp:
  1945                           
  1946                           ; 2 bytes @ 0x18
  1947     0038                     	ds	2
  1948     003A                     ?___fltol:
  1949     003A                     ?___flsub:	
  1950                           ; 4 bytes @ 0x1A
  1951                           
  1952     003A                     ?___fldiv:	
  1953                           ; 4 bytes @ 0x1A
  1954                           
  1955     003A                     ___fltol@f1:	
  1956                           ; 4 bytes @ 0x1A
  1957                           
  1958     003A                     ___flsub@a:	
  1959                           ; 4 bytes @ 0x1A
  1960                           
  1961     003A                     ___fldiv@a:	
  1962                           ; 4 bytes @ 0x1A
  1963                           
  1964                           
  1965                           ; 4 bytes @ 0x1A
  1966     003A                     	ds	4
  1967     003E                     ??___fltol:
  1968     003E                     ___flsub@b:	
  1969                           ; 1 bytes @ 0x1E
  1970                           
  1971     003E                     ___fldiv@b:	
  1972                           ; 4 bytes @ 0x1E
  1973                           
  1974                           
  1975                           ; 4 bytes @ 0x1E
  1976     003E                     	ds	4
  1977     0042                     ??___fldiv:
  1978     0042                     ___fltol@sign1:	
  1979                           ; 1 bytes @ 0x22
  1980                           
  1981                           
  1982                           ; 1 bytes @ 0x22
  1983     0042                     	ds	1
  1984     0043                     ___fltol@exp1:
  1985                           
  1986                           ; 1 bytes @ 0x23
  1987     0043                     	ds	1
  1988     0044                     ?_Lcd_Write_Integer:
  1989     0044                     ?_ftoa:	
  1990                           ; 1 bytes @ 0x24
  1991                           
  1992     0044                     Lcd_Write_Integer@v:	
  1993                           ; 1 bytes @ 0x24
  1994                           
  1995     0044                     ftoa@f:	
  1996                           ; 2 bytes @ 0x24
  1997                           
  1998                           
  1999                           ; 4 bytes @ 0x24
  2000     0044                     	ds	2
  2001     0046                     Lcd_Write_Integer@buf:
  2002                           
  2003                           ; 8 bytes @ 0x26
  2004     0046                     	ds	1
  2005     0047                     ___fldiv@rem:
  2006                           
  2007                           ; 4 bytes @ 0x27
  2008     0047                     	ds	1
  2009     0048                     ftoa@status:
  2010                           
  2011                           ; 1 bytes @ 0x28
  2012     0048                     	ds	1
  2013     0049                     ??_ftoa:
  2014                           
  2015                           ; 1 bytes @ 0x29
  2016     0049                     	ds	1
  2017     004A                     _ftoa$1136:
  2018                           
  2019                           ; 4 bytes @ 0x2A
  2020     004A                     	ds	1
  2021     004B                     ___fldiv@sign:
  2022                           
  2023                           ; 1 bytes @ 0x2B
  2024     004B                     	ds	1
  2025     004C                     ___fldiv@new_exp:
  2026                           
  2027                           ; 2 bytes @ 0x2C
  2028     004C                     	ds	2
  2029     004E                     ftoa@frac_as_int:
  2030     004E                     ___fldiv@grs:	
  2031                           ; 2 bytes @ 0x2E
  2032                           
  2033                           
  2034                           ; 4 bytes @ 0x2E
  2035     004E                     	ds	2
  2036     0050                     ftoa@frac_digits:
  2037                           
  2038                           ; 2 bytes @ 0x30
  2039     0050                     	ds	2
  2040     0052                     ___fldiv@bexp:
  2041     0052                     ftoa@frac_part:	
  2042                           ; 1 bytes @ 0x32
  2043                           
  2044                           
  2045                           ; 4 bytes @ 0x32
  2046     0052                     	ds	1
  2047     0053                     ___fldiv@aexp:
  2048                           
  2049                           ; 1 bytes @ 0x33
  2050     0053                     	ds	1
  2051     0054                     ??_calibrate:
  2052                           
  2053                           ; 1 bytes @ 0x34
  2054     0054                     	ds	2
  2055     0056                     ftoa@int_part:
  2056                           
  2057                           ; 2 bytes @ 0x36
  2058     0056                     	ds	2
  2059     0058                     ftoa@ptr:
  2060                           
  2061                           ; 1 bytes @ 0x38
  2062     0058                     	ds	1
  2063     0059                     ?_Lcd_Write_Float:
  2064     0059                     Lcd_Write_Float@f:	
  2065                           ; 1 bytes @ 0x39
  2066                           
  2067                           
  2068                           ; 4 bytes @ 0x39
  2069     0059                     	ds	4
  2070     005D                     Lcd_Write_Float@buf:
  2071                           
  2072                           ; 1 bytes @ 0x3D
  2073     005D                     	ds	1
  2074     005E                     Lcd_Write_Float@status:
  2075                           
  2076                           ; 2 bytes @ 0x3E
  2077     005E                     	ds	2
  2078     0060                     ?_displayResults:
  2079     0060                     displayResults@frequency:	
  2080                           ; 1 bytes @ 0x40
  2081                           
  2082                           
  2083                           ; 4 bytes @ 0x40
  2084     0060                     	ds	4
  2085     0064                     displayResults@inductance_uh:
  2086                           
  2087                           ; 4 bytes @ 0x44
  2088     0064                     	ds	4
  2089     0068                     displayResults@inductance_mh:
  2090                           
  2091                           ; 4 bytes @ 0x48
  2092     0068                     	ds	4
  2093     006C                     ??_main:
  2094                           
  2095                           ; 1 bytes @ 0x4C
  2096     006C                     	ds	4
  2097                           
  2098                           	psect	maintext
  2099     048E                     __pmaintext:	
  2100 ;;
  2101 ;;Main: autosize = 0, tempsize = 4, incstack = 0, save=0
  2102 ;;
  2103 ;; *************** function _main *****************
  2104 ;; Defined at:
  2105 ;;		line 150 in file "main.c"
  2106 ;; Parameters:    Size  Location     Type
  2107 ;;		None
  2108 ;; Auto vars:     Size  Location     Type
  2109 ;;  frequency       4   52[BANK1 ] float 
  2110 ;;  precomputed_    4   38[BANK1 ] float 
  2111 ;;  capacitance     4   34[BANK1 ] float 
  2112 ;;  inductance_u    4   30[BANK1 ] float 
  2113 ;;  inductance_h    4   26[BANK1 ] float 
  2114 ;;  count_end       2   50[BANK1 ] unsigned short 
  2115 ;;  count_start     2   48[BANK1 ] unsigned short 
  2116 ;;  total_counts    2   46[BANK1 ] unsigned short 
  2117 ;; Return value:  Size  Location     Type
  2118 ;;                  1    wreg      void 
  2119 ;; Registers used:
  2120 ;;		wreg, fsr0l, fsr0h, fsr1l, fsr1h, status,2, status,0, pclath, cstack
  2121 ;; Tracked objects:
  2122 ;;		On entry : B1F/0
  2123 ;;		On exit  : 0/0
  2124 ;;		Unchanged: 0/0
  2125 ;; Data sizes:     COMMON   BANK0   BANK1   BANK2   BANK3   BANK4   BANK5   BANK6   BANK7   BANK8   BANK9  BANK10  BANK1
      +1  BANK12  BANK13  BANK14  BANK15  BANK16  BANK17  BANK18  BANK19  BANK20  BANK21  BANK22  BANK23  BANK24  BANK25
  2126 ;;      Params:         0       0       0       0       0       0       0       0       0       0       0       0       
      +0       0       0       0       0       0       0       0       0       0       0       0       0       0       0
  2127 ;;      Locals:         0       0      30       0       0       0       0       0       0       0       0       0       
      +0       0       0       0       0       0       0       0       0       0       0       0       0       0       0
  2128 ;;      Temps:          0       4       0       0       0       0       0       0       0       0       0       0       
      +0       0       0       0       0       0       0       0       0       0       0       0       0       0       0
  2129 ;;      Totals:         0       4      30       0       0       0       0       0       0       0       0       0       
      +0       0       0       0       0       0       0       0       0       0       0       0       0       0       0
  2130 ;;Total ram usage:       34 bytes
  2131 ;; Hardware stack levels required when called: 6
  2132 ;; This function calls:
  2133 ;;		_Lcd_Clear
  2134 ;;		_Lcd_Write_String
  2135 ;;		_ReadTimer0WithOverflows
  2136 ;;		___fldiv
  2137 ;;		___flge
  2138 ;;		___flmul
  2139 ;;		___flsub
  2140 ;;		___xxtofl
  2141 ;;		_calibrate
  2142 ;;		_displayResults
  2143 ;;		_initMain
  2144 ;; This function is called by:
  2145 ;;		Startup code after reset
  2146 ;; This function uses a non-reentrant model
  2147 ;;
  2148                           
  2149     048E                     _main:	
  2150                           ;psect for function _main
  2151                           
  2152     048E                     l3429:	
  2153                           ;incstack = 0
  2154                           ; Regs used in _main: [wreg-fsr1h+status,2+status,0+pclath+cstack]
  2155                           
  2156                           
  2157                           ;main.c: 151:     initMain();
  2158     048E  3188  209E  3184   	fcall	_initMain
  2159     0491                     l3431:
  2160                           
  2161                           ;main.c: 153:     uint16_t count_start, count_end, total_counts;;main.c: 154:     float 
      +                          frequency, inductance_h, inductance_uh;;main.c: 156:     float capacitance = 100e-9;
  2162     0491  3033               	movlw	51
  2163     0492  0021               	movlb	1	; select bank1
  2164     0493  00C5               	movwf	(main@capacitance+3)^(0+128)
  2165     0494  30D6               	movlw	214
  2166     0495  00C4               	movwf	(main@capacitance+2)^(0+128)
  2167     0496  30BF               	movlw	191
  2168     0497  00C3               	movwf	(main@capacitance+1)^(0+128)
  2169     0498  3095               	movlw	149
  2170     0499  00C2               	movwf	main@capacitance^(0+128)
  2171     049A                     l3433:
  2172                           
  2173                           ;main.c: 157:     float precomputed_constant = 4 * 3.14159 * 3.14159 * capacitance;
  2174     049A  3042               	movlw	66
  2175     049B  0020               	movlb	0	; select bank0
  2176     049C  00A3               	movwf	___flmul@b+3
  2177     049D  301D               	movlw	29
  2178     049E  00A2               	movwf	___flmul@b+2
  2179     049F  30E9               	movlw	233
  2180     04A0  00A1               	movwf	___flmul@b+1
  2181     04A1  30D5               	movlw	213
  2182     04A2  00A0               	movwf	___flmul@b
  2183     04A3  0021               	movlb	1	; select bank1
  2184     04A4  0845               	movf	(main@capacitance+3)^(0+128),w
  2185     04A5  0020               	movlb	0	; select bank0
  2186     04A6  00A7               	movwf	___flmul@a+3
  2187     04A7  0021               	movlb	1	; select bank1
  2188     04A8  0844               	movf	(main@capacitance+2)^(0+128),w
  2189     04A9  0020               	movlb	0	; select bank0
  2190     04AA  00A6               	movwf	___flmul@a+2
  2191     04AB  0021               	movlb	1	; select bank1
  2192     04AC  0843               	movf	(main@capacitance+1)^(0+128),w
  2193     04AD  0020               	movlb	0	; select bank0
  2194     04AE  00A5               	movwf	___flmul@a+1
  2195     04AF  0021               	movlb	1	; select bank1
  2196     04B0  0842               	movf	main@capacitance^(0+128),w
  2197     04B1  0020               	movlb	0	; select bank0
  2198     04B2  00A4               	movwf	___flmul@a
  2199     04B3  3180  2047  3184   	fcall	___flmul
  2200     04B6  0020               	movlb	0	; select bank0
  2201     04B7  0823               	movf	?___flmul+3,w
  2202     04B8  0021               	movlb	1	; select bank1
  2203     04B9  00C9               	movwf	(main@precomputed_constant+3)^(0+128)
  2204     04BA  0020               	movlb	0	; select bank0
  2205     04BB  0822               	movf	?___flmul+2,w
  2206     04BC  0021               	movlb	1	; select bank1
  2207     04BD  00C8               	movwf	(main@precomputed_constant+2)^(0+128)
  2208     04BE  0020               	movlb	0	; select bank0
  2209     04BF  0821               	movf	?___flmul+1,w
  2210     04C0  0021               	movlb	1	; select bank1
  2211     04C1  00C7               	movwf	(main@precomputed_constant+1)^(0+128)
  2212     04C2  0020               	movlb	0	; select bank0
  2213     04C3  0820               	movf	?___flmul,w
  2214     04C4  0021               	movlb	1	; select bank1
  2215     04C5  00C6               	movwf	main@precomputed_constant^(0+128)
  2216     04C6                     l3435:
  2217                           
  2218                           ;main.c: 160:         LATCbits.LATC4 = 1;
  2219     04C6  0022               	movlb	2	; select bank2
  2220     04C7  160E               	bsf	14,4	;volatile
  2221     04C8                     l3437:
  2222                           
  2223                           ;main.c: 163:         if (PORTCbits.RC6 == 0) {
  2224     04C8  0020               	movlb	0	; select bank0
  2225     04C9  1B0E               	btfsc	14,6	;volatile
  2226     04CA  2CCC               	goto	u4191
  2227     04CB  2CCD               	goto	u4190
  2228     04CC                     u4191:
  2229     04CC  2CE6               	goto	l3445
  2230     04CD                     u4190:
  2231     04CD                     l3439:
  2232                           
  2233                           ;main.c: 164:             _delay((unsigned long)((50)*(32000000/4000.0)));
  2234     04CD  3003               	movlw	3
  2235     04CE  0020               	movlb	0	; select bank0
  2236     04CF  00ED               	movwf	??_main+1
  2237     04D0  3008               	movlw	8
  2238     04D1  00EC               	movwf	??_main
  2239     04D2  3077               	movlw	119
  2240     04D3                     u4337:
  2241     04D3  0B89               	decfsz	9,f
  2242     04D4  2CD3               	goto	u4337
  2243     04D5  0BEC               	decfsz	??_main,f
  2244     04D6  2CD3               	goto	u4337
  2245     04D7  0BED               	decfsz	??_main+1,f
  2246     04D8  2CD3               	goto	u4337
  2247     04D9                     l3441:
  2248                           
  2249                           ;main.c: 165:             if (PORTCbits.RC6 == 0) {
  2250     04D9  0020               	movlb	0	; select bank0
  2251     04DA  1B0E               	btfsc	14,6	;volatile
  2252     04DB  2CDD               	goto	u4201
  2253     04DC  2CDE               	goto	u4200
  2254     04DD                     u4201:
  2255     04DD  2CE6               	goto	l3445
  2256     04DE                     u4200:
  2257     04DE                     l3443:
  2258                           
  2259                           ;main.c: 166:                 calibrate();
  2260     04DE  318E  261A  3184   	fcall	_calibrate
  2261     04E1                     l72:	
  2262                           ;main.c: 167:                 while (PORTCbits.RC6 == 0);
  2263                           
  2264     04E1  0020               	movlb	0	; select bank0
  2265     04E2  1F0E               	btfss	14,6	;volatile
  2266     04E3  2CE5               	goto	u4211
  2267     04E4  2CE6               	goto	u4210
  2268     04E5                     u4211:
  2269     04E5  2CE1               	goto	l72
  2270     04E6                     u4210:
  2271     04E6                     l3445:
  2272                           
  2273                           ;main.c: 172:         count_start = ReadTimer0WithOverflows();
  2274     04E6  3197  274F  3184   	fcall	_ReadTimer0WithOverflows
  2275     04E9  0871               	movf	?_ReadTimer0WithOverflows+1,w
  2276     04EA  0021               	movlb	1	; select bank1
  2277     04EB  00D1               	movwf	(main@count_start+1)^(0+128)
  2278     04EC  0870               	movf	?_ReadTimer0WithOverflows,w
  2279     04ED  00D0               	movwf	main@count_start^(0+128)
  2280     04EE                     l3447:
  2281                           
  2282                           ;main.c: 173:         _delay((unsigned long)((1000)*(32000000/4000.0)));
  2283     04EE  3029               	movlw	41
  2284     04EF  0020               	movlb	0	; select bank0
  2285     04F0  00ED               	movwf	??_main+1
  2286     04F1  3096               	movlw	150
  2287     04F2  00EC               	movwf	??_main
  2288     04F3  307F               	movlw	127
  2289     04F4                     u4347:
  2290     04F4  0B89               	decfsz	9,f
  2291     04F5  2CF4               	goto	u4347
  2292     04F6  0BEC               	decfsz	??_main,f
  2293     04F7  2CF4               	goto	u4347
  2294     04F8  0BED               	decfsz	??_main+1,f
  2295     04F9  2CF4               	goto	u4347
  2296     04FA                     l3449:
  2297                           
  2298                           ;main.c: 174:         count_end = ReadTimer0WithOverflows();
  2299     04FA  3197  274F  3184   	fcall	_ReadTimer0WithOverflows
  2300     04FD  0871               	movf	?_ReadTimer0WithOverflows+1,w
  2301     04FE  0021               	movlb	1	; select bank1
  2302     04FF  00D3               	movwf	(main@count_end+1)^(0+128)
  2303     0500  0870               	movf	?_ReadTimer0WithOverflows,w
  2304     0501  00D2               	movwf	main@count_end^(0+128)
  2305                           
  2306                           ;main.c: 176:         total_counts = (count_end >= count_start)
  2307     0502  0851               	movf	(main@count_start+1)^(0+128),w
  2308     0503  0253               	subwf	(main@count_end+1)^(0+128),w
  2309     0504  1D03               	skipz
  2310     0505  2D08               	goto	u4225
  2311     0506  0850               	movf	main@count_start^(0+128),w
  2312     0507  0252               	subwf	main@count_end^(0+128),w
  2313     0508                     u4225:
  2314     0508  1803               	skipnc
  2315     0509  2D0B               	goto	u4221
  2316     050A  2D0C               	goto	u4220
  2317     050B                     u4221:
  2318     050B  2D26               	goto	l3453
  2319     050C                     u4220:
  2320     050C                     l3451:
  2321     050C  0869               	movf	_tmr0_overflows^(0+128),w	;volatile
  2322     050D  0020               	movlb	0	; select bank0
  2323     050E  00ED               	movwf	??_main+1
  2324     050F  01EC               	clrf	??_main
  2325     0510  0021               	movlb	1	; select bank1
  2326     0511  0850               	movf	main@count_start^(0+128),w
  2327     0512  0020               	movlb	0	; select bank0
  2328     0513  026C               	subwf	??_main,w
  2329     0514  00EE               	movwf	??_main+2
  2330     0515  0021               	movlb	1	; select bank1
  2331     0516  0851               	movf	(main@count_start+1)^(0+128),w
  2332     0517  0020               	movlb	0	; select bank0
  2333     0518  3B6D               	subwfb	??_main+1,w
  2334     0519  00EF               	movwf	??_main+3
  2335     051A  0021               	movlb	1	; select bank1
  2336     051B  0852               	movf	main@count_end^(0+128),w
  2337     051C  0020               	movlb	0	; select bank0
  2338     051D  076E               	addwf	??_main+2,w
  2339     051E  0021               	movlb	1	; select bank1
  2340     051F  00CE               	movwf	main@total_counts^(0+128)
  2341     0520  0853               	movf	(main@count_end+1)^(0+128),w
  2342     0521  0020               	movlb	0	; select bank0
  2343     0522  3D6F               	addwfc	??_main+3,w
  2344     0523  0021               	movlb	1	; select bank1
  2345     0524  00CF               	movwf	(main@total_counts+1)^(0+128)
  2346     0525  2D2C               	goto	l3455
  2347     0526                     l3453:
  2348     0526  0850               	movf	main@count_start^(0+128),w
  2349     0527  0252               	subwf	main@count_end^(0+128),w
  2350     0528  00CE               	movwf	main@total_counts^(0+128)
  2351     0529  0851               	movf	(main@count_start+1)^(0+128),w
  2352     052A  3B53               	subwfb	(main@count_end+1)^(0+128),w
  2353     052B  00CF               	movwf	(main@total_counts+1)^(0+128)
  2354     052C                     l3455:
  2355                           
  2356                           ;main.c: 179:         tmr0_overflows = 0;
  2357     052C  01E9               	clrf	_tmr0_overflows^(0+128)	;volatile
  2358     052D  01EA               	clrf	(_tmr0_overflows+1)^(0+128)	;volatile
  2359     052E                     l3457:
  2360                           
  2361                           ;main.c: 181:         frequency = ((float)total_counts * 16) / 1.0;
  2362     052E  303F               	movlw	63
  2363     052F  0020               	movlb	0	; select bank0
  2364     0530  00BD               	movwf	___fldiv@a+3
  2365     0531  3080               	movlw	128
  2366     0532  00BC               	movwf	___fldiv@a+2
  2367     0533  3000               	movlw	0
  2368     0534  00BB               	movwf	___fldiv@a+1
  2369     0535  3000               	movlw	0
  2370     0536  00BA               	movwf	___fldiv@a
  2371     0537  3041               	movlw	65
  2372     0538  00A3               	movwf	___flmul@b+3
  2373     0539  3080               	movlw	128
  2374     053A  00A2               	movwf	___flmul@b+2
  2375     053B  3000               	movlw	0
  2376     053C  00A1               	movwf	___flmul@b+1
  2377     053D  3000               	movlw	0
  2378     053E  00A0               	movwf	___flmul@b
  2379     053F  0021               	movlb	1	; select bank1
  2380     0540  084E               	movf	main@total_counts^(0+128),w
  2381     0541  00F0               	movwf	___xxtofl@val
  2382     0542  084F               	movf	(main@total_counts+1)^(0+128),w
  2383     0543  00F1               	movwf	___xxtofl@val+1
  2384     0544  01F2               	clrf	___xxtofl@val+2
  2385     0545  01F3               	clrf	___xxtofl@val+3
  2386     0546  3000               	movlw	0
  2387     0547  318B  23C6  3184   	fcall	___xxtofl
  2388     054A  0873               	movf	?___xxtofl+3,w
  2389     054B  0020               	movlb	0	; select bank0
  2390     054C  00A7               	movwf	___flmul@a+3
  2391     054D  0872               	movf	?___xxtofl+2,w
  2392     054E  00A6               	movwf	___flmul@a+2
  2393     054F  0871               	movf	?___xxtofl+1,w
  2394     0550  00A5               	movwf	___flmul@a+1
  2395     0551  0870               	movf	?___xxtofl,w
  2396     0552  00A4               	movwf	___flmul@a
  2397     0553  3180  2047  3184   	fcall	___flmul
  2398     0556  0020               	movlb	0	; select bank0
  2399     0557  0823               	movf	?___flmul+3,w
  2400     0558  00C1               	movwf	___fldiv@b+3
  2401     0559  0822               	movf	?___flmul+2,w
  2402     055A  00C0               	movwf	___fldiv@b+2
  2403     055B  0821               	movf	?___flmul+1,w
  2404     055C  00BF               	movwf	___fldiv@b+1
  2405     055D  0820               	movf	?___flmul,w
  2406     055E  00BE               	movwf	___fldiv@b
  2407     055F  318C  2470  3184   	fcall	___fldiv
  2408     0562  0020               	movlb	0	; select bank0
  2409     0563  083D               	movf	?___fldiv+3,w
  2410     0564  0021               	movlb	1	; select bank1
  2411     0565  00D7               	movwf	(main@frequency+3)^(0+128)
  2412     0566  0020               	movlb	0	; select bank0
  2413     0567  083C               	movf	?___fldiv+2,w
  2414     0568  0021               	movlb	1	; select bank1
  2415     0569  00D6               	movwf	(main@frequency+2)^(0+128)
  2416     056A  0020               	movlb	0	; select bank0
  2417     056B  083B               	movf	?___fldiv+1,w
  2418     056C  0021               	movlb	1	; select bank1
  2419     056D  00D5               	movwf	(main@frequency+1)^(0+128)
  2420     056E  0020               	movlb	0	; select bank0
  2421     056F  083A               	movf	?___fldiv,w
  2422     0570  0021               	movlb	1	; select bank1
  2423     0571  00D4               	movwf	main@frequency^(0+128)
  2424     0572                     l3459:
  2425                           
  2426                           ;main.c: 183:         if (frequency > 0) {
  2427     0572  3000               	movlw	0
  2428     0573  00F3               	movwf	___flge@ff1+3
  2429     0574  3000               	movlw	0
  2430     0575  00F2               	movwf	___flge@ff1+2
  2431     0576  3000               	movlw	0
  2432     0577  00F1               	movwf	___flge@ff1+1
  2433     0578  3000               	movlw	0
  2434     0579  00F0               	movwf	___flge@ff1
  2435     057A  0857               	movf	(main@frequency+3)^(0+128),w
  2436     057B  00F7               	movwf	___flge@ff2+3
  2437     057C  0856               	movf	(main@frequency+2)^(0+128),w
  2438     057D  00F6               	movwf	___flge@ff2+2
  2439     057E  0855               	movf	(main@frequency+1)^(0+128),w
  2440     057F  00F5               	movwf	___flge@ff2+1
  2441     0580  0854               	movf	main@frequency^(0+128),w
  2442     0581  00F4               	movwf	___flge@ff2
  2443     0582  318A  2201  3184   	fcall	___flge
  2444     0585  1803               	btfsc	3,0
  2445     0586  2D88               	goto	u4231
  2446     0587  2D89               	goto	u4230
  2447     0588                     u4231:
  2448     0588  2E77               	goto	l3465
  2449     0589                     u4230:
  2450     0589                     l3461:
  2451                           
  2452                           ;main.c: 184:             inductance_h = 1.0 / (precomputed_constant * frequency * frequ
      +                          ency);
  2453     0589  0021               	movlb	1	; select bank1
  2454     058A  0857               	movf	(main@frequency+3)^(0+128),w
  2455     058B  0020               	movlb	0	; select bank0
  2456     058C  00A3               	movwf	___flmul@b+3
  2457     058D  0021               	movlb	1	; select bank1
  2458     058E  0856               	movf	(main@frequency+2)^(0+128),w
  2459     058F  0020               	movlb	0	; select bank0
  2460     0590  00A2               	movwf	___flmul@b+2
  2461     0591  0021               	movlb	1	; select bank1
  2462     0592  0855               	movf	(main@frequency+1)^(0+128),w
  2463     0593  0020               	movlb	0	; select bank0
  2464     0594  00A1               	movwf	___flmul@b+1
  2465     0595  0021               	movlb	1	; select bank1
  2466     0596  0854               	movf	main@frequency^(0+128),w
  2467     0597  0020               	movlb	0	; select bank0
  2468     0598  00A0               	movwf	___flmul@b
  2469     0599  0021               	movlb	1	; select bank1
  2470     059A  0849               	movf	(main@precomputed_constant+3)^(0+128),w
  2471     059B  0020               	movlb	0	; select bank0
  2472     059C  00A7               	movwf	___flmul@a+3
  2473     059D  0021               	movlb	1	; select bank1
  2474     059E  0848               	movf	(main@precomputed_constant+2)^(0+128),w
  2475     059F  0020               	movlb	0	; select bank0
  2476     05A0  00A6               	movwf	___flmul@a+2
  2477     05A1  0021               	movlb	1	; select bank1
  2478     05A2  0847               	movf	(main@precomputed_constant+1)^(0+128),w
  2479     05A3  0020               	movlb	0	; select bank0
  2480     05A4  00A5               	movwf	___flmul@a+1
  2481     05A5  0021               	movlb	1	; select bank1
  2482     05A6  0846               	movf	main@precomputed_constant^(0+128),w
  2483     05A7  0020               	movlb	0	; select bank0
  2484     05A8  00A4               	movwf	___flmul@a
  2485     05A9  3180  2047  3184   	fcall	___flmul
  2486     05AC  0020               	movlb	0	; select bank0
  2487     05AD  0823               	movf	?___flmul+3,w
  2488     05AE  0021               	movlb	1	; select bank1
  2489     05AF  00CD               	movwf	(_main$1135+3)^(0+128)
  2490     05B0  0020               	movlb	0	; select bank0
  2491     05B1  0822               	movf	?___flmul+2,w
  2492     05B2  0021               	movlb	1	; select bank1
  2493     05B3  00CC               	movwf	(_main$1135+2)^(0+128)
  2494     05B4  0020               	movlb	0	; select bank0
  2495     05B5  0821               	movf	?___flmul+1,w
  2496     05B6  0021               	movlb	1	; select bank1
  2497     05B7  00CB               	movwf	(_main$1135+1)^(0+128)
  2498     05B8  0020               	movlb	0	; select bank0
  2499     05B9  0820               	movf	?___flmul,w
  2500     05BA  0021               	movlb	1	; select bank1
  2501     05BB  00CA               	movwf	_main$1135^(0+128)
  2502                           
  2503                           ;main.c: 184:             inductance_h = 1.0 / (precomputed_constant * frequency * frequ
      +                          ency);
  2504     05BC  0857               	movf	(main@frequency+3)^(0+128),w
  2505     05BD  0020               	movlb	0	; select bank0
  2506     05BE  00A3               	movwf	___flmul@b+3
  2507     05BF  0021               	movlb	1	; select bank1
  2508     05C0  0856               	movf	(main@frequency+2)^(0+128),w
  2509     05C1  0020               	movlb	0	; select bank0
  2510     05C2  00A2               	movwf	___flmul@b+2
  2511     05C3  0021               	movlb	1	; select bank1
  2512     05C4  0855               	movf	(main@frequency+1)^(0+128),w
  2513     05C5  0020               	movlb	0	; select bank0
  2514     05C6  00A1               	movwf	___flmul@b+1
  2515     05C7  0021               	movlb	1	; select bank1
  2516     05C8  0854               	movf	main@frequency^(0+128),w
  2517     05C9  0020               	movlb	0	; select bank0
  2518     05CA  00A0               	movwf	___flmul@b
  2519     05CB  0021               	movlb	1	; select bank1
  2520     05CC  084D               	movf	(_main$1135+3)^(0+128),w
  2521     05CD  0020               	movlb	0	; select bank0
  2522     05CE  00A7               	movwf	___flmul@a+3
  2523     05CF  0021               	movlb	1	; select bank1
  2524     05D0  084C               	movf	(_main$1135+2)^(0+128),w
  2525     05D1  0020               	movlb	0	; select bank0
  2526     05D2  00A6               	movwf	___flmul@a+2
  2527     05D3  0021               	movlb	1	; select bank1
  2528     05D4  084B               	movf	(_main$1135+1)^(0+128),w
  2529     05D5  0020               	movlb	0	; select bank0
  2530     05D6  00A5               	movwf	___flmul@a+1
  2531     05D7  0021               	movlb	1	; select bank1
  2532     05D8  084A               	movf	_main$1135^(0+128),w
  2533     05D9  0020               	movlb	0	; select bank0
  2534     05DA  00A4               	movwf	___flmul@a
  2535     05DB  3180  2047  3184   	fcall	___flmul
  2536     05DE  0020               	movlb	0	; select bank0
  2537     05DF  0823               	movf	?___flmul+3,w
  2538     05E0  00BD               	movwf	___fldiv@a+3
  2539     05E1  0822               	movf	?___flmul+2,w
  2540     05E2  00BC               	movwf	___fldiv@a+2
  2541     05E3  0821               	movf	?___flmul+1,w
  2542     05E4  00BB               	movwf	___fldiv@a+1
  2543     05E5  0820               	movf	?___flmul,w
  2544     05E6  00BA               	movwf	___fldiv@a
  2545     05E7  303F               	movlw	63
  2546     05E8  00C1               	movwf	___fldiv@b+3
  2547     05E9  3080               	movlw	128
  2548     05EA  00C0               	movwf	___fldiv@b+2
  2549     05EB  3000               	movlw	0
  2550     05EC  00BF               	movwf	___fldiv@b+1
  2551     05ED  3000               	movlw	0
  2552     05EE  00BE               	movwf	___fldiv@b
  2553     05EF  318C  2470  3184   	fcall	___fldiv
  2554     05F2  0020               	movlb	0	; select bank0
  2555     05F3  083D               	movf	?___fldiv+3,w
  2556     05F4  0021               	movlb	1	; select bank1
  2557     05F5  00BD               	movwf	(main@inductance_h+3)^(0+128)
  2558     05F6  0020               	movlb	0	; select bank0
  2559     05F7  083C               	movf	?___fldiv+2,w
  2560     05F8  0021               	movlb	1	; select bank1
  2561     05F9  00BC               	movwf	(main@inductance_h+2)^(0+128)
  2562     05FA  0020               	movlb	0	; select bank0
  2563     05FB  083B               	movf	?___fldiv+1,w
  2564     05FC  0021               	movlb	1	; select bank1
  2565     05FD  00BB               	movwf	(main@inductance_h+1)^(0+128)
  2566     05FE  0020               	movlb	0	; select bank0
  2567     05FF  083A               	movf	?___fldiv,w
  2568     0600  0021               	movlb	1	; select bank1
  2569     0601  00BA               	movwf	main@inductance_h^(0+128)
  2570                           
  2571                           ;main.c: 185:             inductance_uh = (inductance_h * 1e6) - calibration_value;
  2572     0602  0868               	movf	_calibration_value^(0+128),w
  2573     0603  0020               	movlb	0	; select bank0
  2574     0604  00EC               	movwf	??_main
  2575     0605  01ED               	clrf	??_main+1
  2576     0606  01EE               	clrf	??_main+2
  2577     0607  01EF               	clrf	??_main+3
  2578     0608  086F               	movf	??_main+3,w
  2579     0609  00F3               	movwf	___xxtofl@val+3
  2580     060A  086E               	movf	??_main+2,w
  2581     060B  00F2               	movwf	___xxtofl@val+2
  2582     060C  086D               	movf	??_main+1,w
  2583     060D  00F1               	movwf	___xxtofl@val+1
  2584     060E  086C               	movf	??_main,w
  2585     060F  00F0               	movwf	___xxtofl@val
  2586     0610  3001               	movlw	1
  2587     0611  318B  23C6  3184   	fcall	___xxtofl
  2588     0614  0873               	movf	?___xxtofl+3,w
  2589     0615  0020               	movlb	0	; select bank0
  2590     0616  00BD               	movwf	___flsub@a+3
  2591     0617  0872               	movf	?___xxtofl+2,w
  2592     0618  00BC               	movwf	___flsub@a+2
  2593     0619  0871               	movf	?___xxtofl+1,w
  2594     061A  00BB               	movwf	___flsub@a+1
  2595     061B  0870               	movf	?___xxtofl,w
  2596     061C  00BA               	movwf	___flsub@a
  2597     061D  3049               	movlw	73
  2598     061E  00A3               	movwf	___flmul@b+3
  2599     061F  3074               	movlw	116
  2600     0620  00A2               	movwf	___flmul@b+2
  2601     0621  3024               	movlw	36
  2602     0622  00A1               	movwf	___flmul@b+1
  2603     0623  3000               	movlw	0
  2604     0624  00A0               	movwf	___flmul@b
  2605     0625  0021               	movlb	1	; select bank1
  2606     0626  083D               	movf	(main@inductance_h+3)^(0+128),w
  2607     0627  0020               	movlb	0	; select bank0
  2608     0628  00A7               	movwf	___flmul@a+3
  2609     0629  0021               	movlb	1	; select bank1
  2610     062A  083C               	movf	(main@inductance_h+2)^(0+128),w
  2611     062B  0020               	movlb	0	; select bank0
  2612     062C  00A6               	movwf	___flmul@a+2
  2613     062D  0021               	movlb	1	; select bank1
  2614     062E  083B               	movf	(main@inductance_h+1)^(0+128),w
  2615     062F  0020               	movlb	0	; select bank0
  2616     0630  00A5               	movwf	___flmul@a+1
  2617     0631  0021               	movlb	1	; select bank1
  2618     0632  083A               	movf	main@inductance_h^(0+128),w
  2619     0633  0020               	movlb	0	; select bank0
  2620     0634  00A4               	movwf	___flmul@a
  2621     0635  3180  2047  3184   	fcall	___flmul
  2622     0638  0020               	movlb	0	; select bank0
  2623     0639  0823               	movf	?___flmul+3,w
  2624     063A  00C1               	movwf	___flsub@b+3
  2625     063B  0822               	movf	?___flmul+2,w
  2626     063C  00C0               	movwf	___flsub@b+2
  2627     063D  0821               	movf	?___flmul+1,w
  2628     063E  00BF               	movwf	___flsub@b+1
  2629     063F  0820               	movf	?___flmul,w
  2630     0640  00BE               	movwf	___flsub@b
  2631     0641  3188  200F  3184   	fcall	___flsub
  2632     0644  0020               	movlb	0	; select bank0
  2633     0645  083D               	movf	?___flsub+3,w
  2634     0646  0021               	movlb	1	; select bank1
  2635     0647  00C1               	movwf	(main@inductance_uh+3)^(0+128)
  2636     0648  0020               	movlb	0	; select bank0
  2637     0649  083C               	movf	?___flsub+2,w
  2638     064A  0021               	movlb	1	; select bank1
  2639     064B  00C0               	movwf	(main@inductance_uh+2)^(0+128)
  2640     064C  0020               	movlb	0	; select bank0
  2641     064D  083B               	movf	?___flsub+1,w
  2642     064E  0021               	movlb	1	; select bank1
  2643     064F  00BF               	movwf	(main@inductance_uh+1)^(0+128)
  2644     0650  0020               	movlb	0	; select bank0
  2645     0651  083A               	movf	?___flsub,w
  2646     0652  0021               	movlb	1	; select bank1
  2647     0653  00BE               	movwf	main@inductance_uh^(0+128)
  2648     0654                     l3463:
  2649                           
  2650                           ;main.c: 187:             displayResults(frequency, inductance_uh);
  2651     0654  0857               	movf	(main@frequency+3)^(0+128),w
  2652     0655  0020               	movlb	0	; select bank0
  2653     0656  00E3               	movwf	displayResults@frequency+3
  2654     0657  0021               	movlb	1	; select bank1
  2655     0658  0856               	movf	(main@frequency+2)^(0+128),w
  2656     0659  0020               	movlb	0	; select bank0
  2657     065A  00E2               	movwf	displayResults@frequency+2
  2658     065B  0021               	movlb	1	; select bank1
  2659     065C  0855               	movf	(main@frequency+1)^(0+128),w
  2660     065D  0020               	movlb	0	; select bank0
  2661     065E  00E1               	movwf	displayResults@frequency+1
  2662     065F  0021               	movlb	1	; select bank1
  2663     0660  0854               	movf	main@frequency^(0+128),w
  2664     0661  0020               	movlb	0	; select bank0
  2665     0662  00E0               	movwf	displayResults@frequency
  2666     0663  0021               	movlb	1	; select bank1
  2667     0664  0841               	movf	(main@inductance_uh+3)^(0+128),w
  2668     0665  0020               	movlb	0	; select bank0
  2669     0666  00E7               	movwf	displayResults@inductance_uh+3
  2670     0667  0021               	movlb	1	; select bank1
  2671     0668  0840               	movf	(main@inductance_uh+2)^(0+128),w
  2672     0669  0020               	movlb	0	; select bank0
  2673     066A  00E6               	movwf	displayResults@inductance_uh+2
  2674     066B  0021               	movlb	1	; select bank1
  2675     066C  083F               	movf	(main@inductance_uh+1)^(0+128),w
  2676     066D  0020               	movlb	0	; select bank0
  2677     066E  00E5               	movwf	displayResults@inductance_uh+1
  2678     066F  0021               	movlb	1	; select bank1
  2679     0670  083E               	movf	main@inductance_uh^(0+128),w
  2680     0671  0020               	movlb	0	; select bank0
  2681     0672  00E4               	movwf	displayResults@inductance_uh
  2682     0673  318B  2325  3184   	fcall	_displayResults
  2683                           
  2684                           ;main.c: 188:         } else {
  2685     0676  2CC6               	goto	l3435
  2686     0677                     l3465:
  2687                           
  2688                           ;main.c: 189:             Lcd_Clear();
  2689     0677  3188  2002  3184   	fcall	_Lcd_Clear
  2690     067A                     l3467:
  2691                           
  2692                           ;main.c: 190:             Lcd_Write_String("Low Frequency");
  2693     067A  3031               	movlw	low (STR_13| (0+32768))
  2694     067B  0020               	movlb	0	; select bank0
  2695     067C  00AD               	movwf	Lcd_Write_String@str
  2696     067D  3098               	movlw	high (STR_13| (0+32768))
  2697     067E  00AE               	movwf	Lcd_Write_String@str+1
  2698     067F  3197  2793  3184   	fcall	_Lcd_Write_String
  2699     0682                     l3469:
  2700                           
  2701                           ;main.c: 191:             _delay((unsigned long)((2000)*(32000000/4000.0)));
  2702     0682  3052               	movlw	82
  2703     0683  0020               	movlb	0	; select bank0
  2704     0684  00ED               	movwf	??_main+1
  2705     0685  302B               	movlw	43
  2706     0686  00EC               	movwf	??_main
  2707     0687  3000               	movlw	0
  2708     0688                     u4357:
  2709     0688  0B89               	decfsz	9,f
  2710     0689  2E88               	goto	u4357
  2711     068A  0BEC               	decfsz	??_main,f
  2712     068B  2E88               	goto	u4357
  2713     068C  0BED               	decfsz	??_main+1,f
  2714     068D  2E88               	goto	u4357
  2715     068E  0000               	nop
  2716     068F  2CC6               	goto	l3435
  2717     0690  3180  2812         	ljmp	start
  2718     0692                     __end_of_main:
  2719                           
  2720                           	psect	text1
  2721     089E                     __ptext1:	
  2722 ;; *************** function _initMain *****************
  2723 ;; Defined at:
  2724 ;;		line 47 in file "main.c"
  2725 ;; Parameters:    Size  Location     Type
  2726 ;;		None
  2727 ;; Auto vars:     Size  Location     Type
  2728 ;;		None
  2729 ;; Return value:  Size  Location     Type
  2730 ;;                  1    wreg      void 
  2731 ;; Registers used:
  2732 ;;		wreg, fsr0l, fsr0h, status,2, status,0, pclath, cstack
  2733 ;; Tracked objects:
  2734 ;;		On entry : 0/0
  2735 ;;		On exit  : 0/0
  2736 ;;		Unchanged: 0/0
  2737 ;; Data sizes:     COMMON   BANK0   BANK1   BANK2   BANK3   BANK4   BANK5   BANK6   BANK7   BANK8   BANK9  BANK10  BANK1
      +1  BANK12  BANK13  BANK14  BANK15  BANK16  BANK17  BANK18  BANK19  BANK20  BANK21  BANK22  BANK23  BANK24  BANK25
  2738 ;;      Params:         0       0       0       0       0       0       0       0       0       0       0       0       
      +0       0       0       0       0       0       0       0       0       0       0       0       0       0       0
  2739 ;;      Locals:         0       0       0       0       0       0       0       0       0       0       0       0       
      +0       0       0       0       0       0       0       0       0       0       0       0       0       0       0
  2740 ;;      Temps:          0       2       0       0       0       0       0       0       0       0       0       0       
      +0       0       0       0       0       0       0       0       0       0       0       0       0       0       0
  2741 ;;      Totals:         0       2       0       0       0       0       0       0       0       0       0       0       
      +0       0       0       0       0       0       0       0       0       0       0       0       0       0       0
  2742 ;;Total ram usage:        2 bytes
  2743 ;; Hardware stack levels used: 1
  2744 ;; Hardware stack levels required when called: 5
  2745 ;; This function calls:
  2746 ;;		_Lcd_Clear
  2747 ;;		_Lcd_Init
  2748 ;;		_Lcd_Set_Cursor
  2749 ;;		_Lcd_Write_String
  2750 ;;		_internal_32
  2751 ;; This function is called by:
  2752 ;;		_main
  2753 ;; This function uses a non-reentrant model
  2754 ;;
  2755                           
  2756     089E                     _initMain:	
  2757                           ;psect for function _initMain
  2758                           
  2759     089E                     l3309:	
  2760                           ;incstack = 0
  2761                           ; Regs used in _initMain: [wreg-fsr0h+status,2+status,0+pclath+cstack]
  2762                           
  2763                           
  2764                           ;main.c: 49:     internal_32();
  2765     089E  3197  2709  3188   	fcall	_internal_32
  2766     08A1                     l3311:
  2767                           
  2768                           ;main.c: 50:     _delay((unsigned long)((10)*(32000000/4000.0)));
  2769     08A1  3068               	movlw	104
  2770     08A2  0020               	movlb	0	; select bank0
  2771     08A3  00B0               	movwf	??_initMain
  2772     08A4  30E4               	movlw	228
  2773     08A5                     u4367:
  2774     08A5  0B89               	decfsz	9,f
  2775     08A6  28A5               	goto	u4367
  2776     08A7  0BB0               	decfsz	??_initMain,f
  2777     08A8  28A5               	goto	u4367
  2778     08A9  0000               	nop
  2779     08AA                     l3313:
  2780                           
  2781                           ;main.c: 52:     TRISCbits.TRISC4 = 0;
  2782     08AA  0021               	movlb	1	; select bank1
  2783     08AB  120E               	bcf	14,4	;volatile
  2784     08AC                     l3315:
  2785                           
  2786                           ;main.c: 53:     TRISCbits.TRISC6 = 1;
  2787     08AC  170E               	bsf	14,6	;volatile
  2788     08AD                     l3317:
  2789                           
  2790                           ;main.c: 54:     ANSELCbits.ANSC6 = 0;
  2791     08AD  0023               	movlb	3	; select bank3
  2792     08AE  130E               	bcf	14,6	;volatile
  2793     08AF                     l3319:
  2794                           
  2795                           ;main.c: 56:     TRISBbits.TRISB0 = 1;
  2796     08AF  0021               	movlb	1	; select bank1
  2797     08B0  140D               	bsf	13,0	;volatile
  2798     08B1                     l3321:
  2799                           
  2800                           ;main.c: 57:     ANSELBbits.ANSB0 = 0;
  2801     08B1  0023               	movlb	3	; select bank3
  2802     08B2  100D               	bcf	13,0	;volatile
  2803     08B3                     l3323:
  2804                           
  2805                           ;main.c: 60:     OPTION_REGbits.TMR0CS = 1;
  2806     08B3  0021               	movlb	1	; select bank1
  2807     08B4  1695               	bsf	21,5	;volatile
  2808     08B5                     l3325:
  2809                           
  2810                           ;main.c: 61:     OPTION_REGbits.PSA = 0;
  2811     08B5  1195               	bcf	21,3	;volatile
  2812     08B6                     l3327:
  2813                           
  2814                           ;main.c: 62:     OPTION_REGbits.PS = 0b011;
  2815     08B6  0815               	movf	21,w	;volatile
  2816     08B7  39F8               	andlw	-8
  2817     08B8  3803               	iorlw	3
  2818     08B9  0095               	movwf	21	;volatile
  2819     08BA                     l3329:
  2820                           
  2821                           ;main.c: 63:     TMR0 = 0;
  2822     08BA  0020               	movlb	0	; select bank0
  2823     08BB  0195               	clrf	21	;volatile
  2824     08BC                     l3331:
  2825                           
  2826                           ;main.c: 66:     INTCONbits.TMR0IE = 1;
  2827     08BC  168B               	bsf	11,5	;volatile
  2828     08BD                     l3333:
  2829                           
  2830                           ;main.c: 67:     INTCONbits.PEIE = 1;
  2831     08BD  170B               	bsf	11,6	;volatile
  2832     08BE                     l3335:
  2833                           
  2834                           ;main.c: 68:     INTCONbits.GIE = 1;
  2835     08BE  178B               	bsf	11,7	;volatile
  2836     08BF                     l3337:
  2837                           
  2838                           ;main.c: 71:     Lcd_Init();
  2839     08BF  3188  2063  3188   	fcall	_Lcd_Init
  2840     08C2                     l3339:
  2841                           
  2842                           ;main.c: 72:     Lcd_Clear();
  2843     08C2  3188  2002  3188   	fcall	_Lcd_Clear
  2844     08C5                     l3341:
  2845                           
  2846                           ;main.c: 73:     Lcd_Set_Cursor(1, 1);
  2847     08C5  01F5               	clrf	Lcd_Set_Cursor@col
  2848     08C6  0AF5               	incf	Lcd_Set_Cursor@col,f
  2849     08C7  3001               	movlw	1
  2850     08C8  3197  27C5  3188   	fcall	_Lcd_Set_Cursor
  2851     08CB                     l3343:
  2852                           
  2853                           ;main.c: 74:     Lcd_Write_String("Inductance Meter");
  2854     08CB  3011               	movlw	low (STR_1| (0+32768))
  2855     08CC  0020               	movlb	0	; select bank0
  2856     08CD  00AD               	movwf	Lcd_Write_String@str
  2857     08CE  3098               	movlw	high (STR_1| (0+32768))
  2858     08CF  00AE               	movwf	Lcd_Write_String@str+1
  2859     08D0  3197  2793  3188   	fcall	_Lcd_Write_String
  2860     08D3                     l3345:
  2861                           
  2862                           ;main.c: 75:     _delay((unsigned long)((2000)*(32000000/4000.0)));
  2863     08D3  3052               	movlw	82
  2864     08D4  0020               	movlb	0	; select bank0
  2865     08D5  00B1               	movwf	??_initMain+1
  2866     08D6  302B               	movlw	43
  2867     08D7  00B0               	movwf	??_initMain
  2868     08D8  3000               	movlw	0
  2869     08D9                     u4377:
  2870     08D9  0B89               	decfsz	9,f
  2871     08DA  28D9               	goto	u4377
  2872     08DB  0BB0               	decfsz	??_initMain,f
  2873     08DC  28D9               	goto	u4377
  2874     08DD  0BB1               	decfsz	??_initMain+1,f
  2875     08DE  28D9               	goto	u4377
  2876     08DF  0000               	nop
  2877     08E0                     l41:
  2878     08E0  0008               	return
  2879     08E1                     __end_of_initMain:
  2880                           
  2881                           	psect	text2
  2882     1709                     __ptext2:	
  2883 ;; *************** function _internal_32 *****************
  2884 ;; Defined at:
  2885 ;;		line 32 in file "PIC16F1719_Internal.c"
  2886 ;; Parameters:    Size  Location     Type
  2887 ;;		None
  2888 ;; Auto vars:     Size  Location     Type
  2889 ;;		None
  2890 ;; Return value:  Size  Location     Type
  2891 ;;                  1    wreg      void 
  2892 ;; Registers used:
  2893 ;;		None
  2894 ;; Tracked objects:
  2895 ;;		On entry : 0/0
  2896 ;;		On exit  : 0/0
  2897 ;;		Unchanged: 0/0
  2898 ;; Data sizes:     COMMON   BANK0   BANK1   BANK2   BANK3   BANK4   BANK5   BANK6   BANK7   BANK8   BANK9  BANK10  BANK1
      +1  BANK12  BANK13  BANK14  BANK15  BANK16  BANK17  BANK18  BANK19  BANK20  BANK21  BANK22  BANK23  BANK24  BANK25
  2899 ;;      Params:         0       0       0       0       0       0       0       0       0       0       0       0       
      +0       0       0       0       0       0       0       0       0       0       0       0       0       0       0
  2900 ;;      Locals:         0       0       0       0       0       0       0       0       0       0       0       0       
      +0       0       0       0       0       0       0       0       0       0       0       0       0       0       0
  2901 ;;      Temps:          0       0       0       0       0       0       0       0       0       0       0       0       
      +0       0       0       0       0       0       0       0       0       0       0       0       0       0       0
  2902 ;;      Totals:         0       0       0       0       0       0       0       0       0       0       0       0       
      +0       0       0       0       0       0       0       0       0       0       0       0       0       0       0
  2903 ;;Total ram usage:        0 bytes
  2904 ;; Hardware stack levels used: 1
  2905 ;; Hardware stack levels required when called: 1
  2906 ;; This function calls:
  2907 ;;		Nothing
  2908 ;; This function is called by:
  2909 ;;		_initMain
  2910 ;; This function uses a non-reentrant model
  2911 ;;
  2912                           
  2913     1709                     _internal_32:	
  2914                           ;psect for function _internal_32
  2915                           
  2916     1709                     l2683:	
  2917                           ;incstack = 0
  2918                           ; Regs used in _internal_32: []
  2919                           
  2920                           
  2921                           ;PIC16F1719_Internal.c: 34:     SCS0 = 0;
  2922     1709  0021               	movlb	1	; select bank1
  2923     170A  1019               	bcf	25,0	;volatile
  2924                           
  2925                           ;PIC16F1719_Internal.c: 35:     SCS1 = 0;
  2926     170B  1099               	bcf	25,1	;volatile
  2927                           
  2928                           ;PIC16F1719_Internal.c: 38:     IRCF0 = 0;
  2929     170C  1199               	bcf	25,3	;volatile
  2930                           
  2931                           ;PIC16F1719_Internal.c: 39:     IRCF1 = 1;
  2932     170D  1619               	bsf	25,4	;volatile
  2933                           
  2934                           ;PIC16F1719_Internal.c: 40:     IRCF2 = 1;
  2935     170E  1699               	bsf	25,5	;volatile
  2936                           
  2937                           ;PIC16F1719_Internal.c: 41:     IRCF3 = 1;
  2938     170F  1719               	bsf	25,6	;volatile
  2939                           
  2940                           ;PIC16F1719_Internal.c: 44:     SPLLEN = 1;
  2941     1710  1799               	bsf	25,7	;volatile
  2942     1711                     l302:
  2943     1711  0008               	return
  2944     1712                     __end_of_internal_32:
  2945                           
  2946                           	psect	text3
  2947     0863                     __ptext3:	
  2948 ;; *************** function _Lcd_Init *****************
  2949 ;; Defined at:
  2950 ;;		line 122 in file "SC1601_LCD.c"
  2951 ;; Parameters:    Size  Location     Type
  2952 ;;		None
  2953 ;; Auto vars:     Size  Location     Type
  2954 ;;		None
  2955 ;; Return value:  Size  Location     Type
  2956 ;;                  1    wreg      void 
  2957 ;; Registers used:
  2958 ;;		wreg, status,2, status,0, pclath, cstack
  2959 ;; Tracked objects:
  2960 ;;		On entry : 0/0
  2961 ;;		On exit  : 0/0
  2962 ;;		Unchanged: 0/0
  2963 ;; Data sizes:     COMMON   BANK0   BANK1   BANK2   BANK3   BANK4   BANK5   BANK6   BANK7   BANK8   BANK9  BANK10  BANK1
      +1  BANK12  BANK13  BANK14  BANK15  BANK16  BANK17  BANK18  BANK19  BANK20  BANK21  BANK22  BANK23  BANK24  BANK25
  2964 ;;      Params:         0       0       0       0       0       0       0       0       0       0       0       0       
      +0       0       0       0       0       0       0       0       0       0       0       0       0       0       0
  2965 ;;      Locals:         0       0       0       0       0       0       0       0       0       0       0       0       
      +0       0       0       0       0       0       0       0       0       0       0       0       0       0       0
  2966 ;;      Temps:          1       0       0       0       0       0       0       0       0       0       0       0       
      +0       0       0       0       0       0       0       0       0       0       0       0       0       0       0
  2967 ;;      Totals:         1       0       0       0       0       0       0       0       0       0       0       0       
      +0       0       0       0       0       0       0       0       0       0       0       0       0       0       0
  2968 ;;Total ram usage:        1 bytes
  2969 ;; Hardware stack levels used: 1
  2970 ;; Hardware stack levels required when called: 4
  2971 ;; This function calls:
  2972 ;;		_Lcd_Cmd
  2973 ;;		_Lcd_Port
  2974 ;;		_Lcd_Send_Command
  2975 ;; This function is called by:
  2976 ;;		_initMain
  2977 ;;		_Lcd_Reset
  2978 ;; This function uses a non-reentrant model
  2979 ;;
  2980                           
  2981     0863                     _Lcd_Init:	
  2982                           ;psect for function _Lcd_Init
  2983                           
  2984     0863                     l2685:	
  2985                           ;incstack = 0
  2986                           ; Regs used in _Lcd_Init: [wreg+status,2+status,0+pclath+cstack]
  2987                           
  2988                           
  2989                           ;SC1601_LCD.c: 124:     Lcd_Port(0x00);
  2990     0863  3000               	movlw	0
  2991     0864  3188  202F  3188   	fcall	_Lcd_Port
  2992     0867                     l2687:
  2993                           
  2994                           ;SC1601_LCD.c: 125:     _delay((unsigned long)((20)*(32000000/4000.0)));
  2995     0867  30D0               	movlw	208
  2996     0868  00F5               	movwf	??_Lcd_Init
  2997     0869  30CA               	movlw	202
  2998     086A                     u4387:
  2999     086A  0B89               	decfsz	9,f
  3000     086B  286A               	goto	u4387
  3001     086C  0BF5               	decfsz	??_Lcd_Init,f
  3002     086D  286A               	goto	u4387
  3003     086E                     l2689:
  3004                           
  3005                           ;SC1601_LCD.c: 128:     Lcd_Cmd(0x03); _delay((unsigned long)((5)*(32000000/4000.0)));
  3006     086E  3003               	movlw	3
  3007     086F  3197  2712  3188   	fcall	_Lcd_Cmd
  3008     0872  3034               	movlw	52
  3009     0873  00F5               	movwf	??_Lcd_Init
  3010     0874  30F2               	movlw	242
  3011     0875                     u4397:
  3012     0875  0B89               	decfsz	9,f
  3013     0876  2875               	goto	u4397
  3014     0877  0BF5               	decfsz	??_Lcd_Init,f
  3015     0878  2875               	goto	u4397
  3016     0879                     l2691:
  3017                           
  3018                           ;SC1601_LCD.c: 129:     Lcd_Cmd(0x03); _delay((unsigned long)((100)*(32000000/4000000.0)
      +                          ));
  3019     0879  3003               	movlw	3
  3020     087A  3197  2712  3188   	fcall	_Lcd_Cmd
  3021     087D                     l2693:
  3022     087D  30A0               	movlw	160
  3023     087E                     u4407:
  3024     087E  3200               	nop2
  3025     087F  0B89               	decfsz	9,f
  3026     0880  287E               	goto	u4407
  3027                           
  3028                           ;SC1601_LCD.c: 130:     Lcd_Cmd(0x03);
  3029     0881  3003               	movlw	3
  3030     0882  3197  2712  3188   	fcall	_Lcd_Cmd
  3031                           
  3032                           ;SC1601_LCD.c: 131:     Lcd_Cmd(0x02);
  3033     0885  3002               	movlw	2
  3034     0886  3197  2712  3188   	fcall	_Lcd_Cmd
  3035                           
  3036                           ;SC1601_LCD.c: 134:     Lcd_Send_Command(0x28);
  3037     0889  3028               	movlw	40
  3038     088A  3197  272D  3188   	fcall	_Lcd_Send_Command
  3039                           
  3040                           ;SC1601_LCD.c: 135:     Lcd_Send_Command(0x0C);
  3041     088D  300C               	movlw	12
  3042     088E  3197  272D  3188   	fcall	_Lcd_Send_Command
  3043                           
  3044                           ;SC1601_LCD.c: 136:     Lcd_Send_Command(0x06);
  3045     0891  3006               	movlw	6
  3046     0892  3197  272D  3188   	fcall	_Lcd_Send_Command
  3047     0895                     l2695:
  3048                           
  3049                           ;SC1601_LCD.c: 137:     _delay((unsigned long)((2)*(32000000/4000.0)));
  3050     0895  3015               	movlw	21
  3051     0896  00F5               	movwf	??_Lcd_Init
  3052     0897  30C6               	movlw	198
  3053     0898                     u4417:
  3054     0898  0B89               	decfsz	9,f
  3055     0899  2898               	goto	u4417
  3056     089A  0BF5               	decfsz	??_Lcd_Init,f
  3057     089B  2898               	goto	u4417
  3058     089C  3200               	nop2
  3059     089D                     l130:
  3060     089D  0008               	return
  3061     089E                     __end_of_Lcd_Init:
  3062                           
  3063                           	psect	text4
  3064     0B25                     __ptext4:	
  3065 ;; *************** function _displayResults *****************
  3066 ;; Defined at:
  3067 ;;		line 127 in file "main.c"
  3068 ;; Parameters:    Size  Location     Type
  3069 ;;  frequency       4   64[BANK0 ] float 
  3070 ;;  inductance_u    4   68[BANK0 ] float 
  3071 ;; Auto vars:     Size  Location     Type
  3072 ;;  inductance_m    4   72[BANK0 ] float 
  3073 ;; Return value:  Size  Location     Type
  3074 ;;                  1    wreg      void 
  3075 ;; Registers used:
  3076 ;;		wreg, fsr0l, fsr0h, fsr1l, fsr1h, status,2, status,0, pclath, cstack
  3077 ;; Tracked objects:
  3078 ;;		On entry : 0/0
  3079 ;;		On exit  : 0/0
  3080 ;;		Unchanged: 0/0
  3081 ;; Data sizes:     COMMON   BANK0   BANK1   BANK2   BANK3   BANK4   BANK5   BANK6   BANK7   BANK8   BANK9  BANK10  BANK1
      +1  BANK12  BANK13  BANK14  BANK15  BANK16  BANK17  BANK18  BANK19  BANK20  BANK21  BANK22  BANK23  BANK24  BANK25
  3082 ;;      Params:         0       8       0       0       0       0       0       0       0       0       0       0       
      +0       0       0       0       0       0       0       0       0       0       0       0       0       0       0
  3083 ;;      Locals:         0       4       0       0       0       0       0       0       0       0       0       0       
      +0       0       0       0       0       0       0       0       0       0       0       0       0       0       0
  3084 ;;      Temps:          0       0       0       0       0       0       0       0       0       0       0       0       
      +0       0       0       0       0       0       0       0       0       0       0       0       0       0       0
  3085 ;;      Totals:         0      12       0       0       0       0       0       0       0       0       0       0       
      +0       0       0       0       0       0       0       0       0       0       0       0       0       0       0
  3086 ;;Total ram usage:       12 bytes
  3087 ;; Hardware stack levels used: 1
  3088 ;; Hardware stack levels required when called: 5
  3089 ;; This function calls:
  3090 ;;		_Lcd_Clear
  3091 ;;		_Lcd_Set_Cursor
  3092 ;;		_Lcd_Write_Float
  3093 ;;		_Lcd_Write_Integer
  3094 ;;		_Lcd_Write_String
  3095 ;;		___fldiv
  3096 ;;		___flge
  3097 ;;		___fltol
  3098 ;; This function is called by:
  3099 ;;		_main
  3100 ;; This function uses a non-reentrant model
  3101 ;;
  3102                           
  3103     0B25                     _displayResults:	
  3104                           ;psect for function _displayResults
  3105                           
  3106     0B25                     l3403:	
  3107                           ;incstack = 0
  3108                           ; Regs used in _displayResults: [wreg-fsr1h+status,2+status,0+pclath+cstack]
  3109                           
  3110                           
  3111                           ;main.c: 128:     Lcd_Clear();
  3112     0B25  3188  2002  318B   	fcall	_Lcd_Clear
  3113                           
  3114                           ;main.c: 129:     Lcd_Set_Cursor(1, 1);
  3115     0B28  01F5               	clrf	Lcd_Set_Cursor@col
  3116     0B29  0AF5               	incf	Lcd_Set_Cursor@col,f
  3117     0B2A  3001               	movlw	1
  3118     0B2B  3197  27C5  318B   	fcall	_Lcd_Set_Cursor
  3119     0B2E                     l3405:
  3120                           
  3121                           ;main.c: 132:     Lcd_Write_String("Freq: ");
  3122     0B2E  306B               	movlw	low (STR_7| (0+32768))
  3123     0B2F  0020               	movlb	0	; select bank0
  3124     0B30  00AD               	movwf	Lcd_Write_String@str
  3125     0B31  3098               	movlw	high (STR_7| (0+32768))
  3126     0B32  00AE               	movwf	Lcd_Write_String@str+1
  3127     0B33  3197  2793  318B   	fcall	_Lcd_Write_String
  3128     0B36                     l3407:
  3129                           
  3130                           ;main.c: 133:     Lcd_Write_Integer((uint32_t)frequency);
  3131     0B36  0020               	movlb	0	; select bank0
  3132     0B37  0863               	movf	displayResults@frequency+3,w
  3133     0B38  00BD               	movwf	___fltol@f1+3
  3134     0B39  0862               	movf	displayResults@frequency+2,w
  3135     0B3A  00BC               	movwf	___fltol@f1+2
  3136     0B3B  0861               	movf	displayResults@frequency+1,w
  3137     0B3C  00BB               	movwf	___fltol@f1+1
  3138     0B3D  0860               	movf	displayResults@frequency,w
  3139     0B3E  00BA               	movwf	___fltol@f1
  3140     0B3F  3189  2190  318B   	fcall	___fltol
  3141     0B42  0020               	movlb	0	; select bank0
  3142     0B43  083B               	movf	?___fltol+1,w
  3143     0B44  00C5               	movwf	Lcd_Write_Integer@v+1
  3144     0B45  083A               	movf	?___fltol,w
  3145     0B46  00C4               	movwf	Lcd_Write_Integer@v
  3146     0B47  3197  27AC  318B   	fcall	_Lcd_Write_Integer
  3147     0B4A                     l3409:
  3148                           
  3149                           ;main.c: 134:     Lcd_Write_String(" Hz");
  3150     0B4A  3080               	movlw	low (STR_8| (0+32768))
  3151     0B4B  0020               	movlb	0	; select bank0
  3152     0B4C  00AD               	movwf	Lcd_Write_String@str
  3153     0B4D  3098               	movlw	high (STR_8| (0+32768))
  3154     0B4E  00AE               	movwf	Lcd_Write_String@str+1
  3155     0B4F  3197  2793  318B   	fcall	_Lcd_Write_String
  3156     0B52                     l3411:
  3157                           
  3158                           ;main.c: 137:     Lcd_Set_Cursor(2, 1);
  3159     0B52  01F5               	clrf	Lcd_Set_Cursor@col
  3160     0B53  0AF5               	incf	Lcd_Set_Cursor@col,f
  3161     0B54  3002               	movlw	2
  3162     0B55  3197  27C5  318B   	fcall	_Lcd_Set_Cursor
  3163     0B58                     l3413:
  3164                           
  3165                           ;main.c: 138:     if (inductance_uh > 999.0) {
  3166     0B58  3044               	movlw	68
  3167     0B59  00F3               	movwf	___flge@ff1+3
  3168     0B5A  3079               	movlw	121
  3169     0B5B  00F2               	movwf	___flge@ff1+2
  3170     0B5C  30C0               	movlw	192
  3171     0B5D  00F1               	movwf	___flge@ff1+1
  3172     0B5E  3000               	movlw	0
  3173     0B5F  00F0               	movwf	___flge@ff1
  3174     0B60  0020               	movlb	0	; select bank0
  3175     0B61  0867               	movf	displayResults@inductance_uh+3,w
  3176     0B62  00F7               	movwf	___flge@ff2+3
  3177     0B63  0866               	movf	displayResults@inductance_uh+2,w
  3178     0B64  00F6               	movwf	___flge@ff2+2
  3179     0B65  0865               	movf	displayResults@inductance_uh+1,w
  3180     0B66  00F5               	movwf	___flge@ff2+1
  3181     0B67  0864               	movf	displayResults@inductance_uh,w
  3182     0B68  00F4               	movwf	___flge@ff2
  3183     0B69  318A  2201  318B   	fcall	___flge
  3184     0B6C  1803               	btfsc	3,0
  3185     0B6D  2B6F               	goto	u4181
  3186     0B6E  2B70               	goto	u4180
  3187     0B6F                     u4181:
  3188     0B6F  2BA9               	goto	l3423
  3189     0B70                     u4180:
  3190     0B70                     l3415:
  3191                           
  3192                           ;main.c: 139:         float inductance_mh = inductance_uh / 1000.0;
  3193     0B70  3044               	movlw	68
  3194     0B71  0020               	movlb	0	; select bank0
  3195     0B72  00BD               	movwf	___fldiv@a+3
  3196     0B73  307A               	movlw	122
  3197     0B74  00BC               	movwf	___fldiv@a+2
  3198     0B75  3000               	movlw	0
  3199     0B76  00BB               	movwf	___fldiv@a+1
  3200     0B77  3000               	movlw	0
  3201     0B78  00BA               	movwf	___fldiv@a
  3202     0B79  0867               	movf	displayResults@inductance_uh+3,w
  3203     0B7A  00C1               	movwf	___fldiv@b+3
  3204     0B7B  0866               	movf	displayResults@inductance_uh+2,w
  3205     0B7C  00C0               	movwf	___fldiv@b+2
  3206     0B7D  0865               	movf	displayResults@inductance_uh+1,w
  3207     0B7E  00BF               	movwf	___fldiv@b+1
  3208     0B7F  0864               	movf	displayResults@inductance_uh,w
  3209     0B80  00BE               	movwf	___fldiv@b
  3210     0B81  318C  2470  318B   	fcall	___fldiv
  3211     0B84  0020               	movlb	0	; select bank0
  3212     0B85  083D               	movf	?___fldiv+3,w
  3213     0B86  00EB               	movwf	displayResults@inductance_mh+3
  3214     0B87  083C               	movf	?___fldiv+2,w
  3215     0B88  00EA               	movwf	displayResults@inductance_mh+2
  3216     0B89  083B               	movf	?___fldiv+1,w
  3217     0B8A  00E9               	movwf	displayResults@inductance_mh+1
  3218     0B8B  083A               	movf	?___fldiv,w
  3219     0B8C  00E8               	movwf	displayResults@inductance_mh
  3220     0B8D                     l3417:
  3221                           
  3222                           ;main.c: 140:         Lcd_Write_String("L: ");
  3223     0B8D  307C               	movlw	low (STR_9| (0+32768))
  3224     0B8E  00AD               	movwf	Lcd_Write_String@str
  3225     0B8F  3098               	movlw	high (STR_9| (0+32768))
  3226     0B90  00AE               	movwf	Lcd_Write_String@str+1
  3227     0B91  3197  2793  318B   	fcall	_Lcd_Write_String
  3228     0B94                     l3419:
  3229                           
  3230                           ;main.c: 141:         Lcd_Write_Float(inductance_mh);
  3231     0B94  0020               	movlb	0	; select bank0
  3232     0B95  086B               	movf	displayResults@inductance_mh+3,w
  3233     0B96  00DC               	movwf	Lcd_Write_Float@f+3
  3234     0B97  086A               	movf	displayResults@inductance_mh+2,w
  3235     0B98  00DB               	movwf	Lcd_Write_Float@f+2
  3236     0B99  0869               	movf	displayResults@inductance_mh+1,w
  3237     0B9A  00DA               	movwf	Lcd_Write_Float@f+1
  3238     0B9B  0868               	movf	displayResults@inductance_mh,w
  3239     0B9C  00D9               	movwf	Lcd_Write_Float@f
  3240     0B9D  3197  2762  318B   	fcall	_Lcd_Write_Float
  3241     0BA0                     l3421:
  3242                           
  3243                           ;main.c: 142:         Lcd_Write_String("mH");
  3244     0BA0  3084               	movlw	low (STR_10| (0+32768))
  3245     0BA1  0020               	movlb	0	; select bank0
  3246     0BA2  00AD               	movwf	Lcd_Write_String@str
  3247     0BA3  3098               	movlw	high (STR_10| (0+32768))
  3248     0BA4  00AE               	movwf	Lcd_Write_String@str+1
  3249     0BA5  3197  2793  318B   	fcall	_Lcd_Write_String
  3250                           
  3251                           ;main.c: 143:     } else {
  3252     0BA8  2BC5               	goto	l64
  3253     0BA9                     l3423:
  3254                           
  3255                           ;main.c: 144:         Lcd_Write_String("L: ");
  3256     0BA9  307C               	movlw	low (STR_9| (0+32768))
  3257     0BAA  0020               	movlb	0	; select bank0
  3258     0BAB  00AD               	movwf	Lcd_Write_String@str
  3259     0BAC  3098               	movlw	high (STR_9| (0+32768))
  3260     0BAD  00AE               	movwf	Lcd_Write_String@str+1
  3261     0BAE  3197  2793  318B   	fcall	_Lcd_Write_String
  3262     0BB1                     l3425:
  3263                           
  3264                           ;main.c: 145:         Lcd_Write_Float(inductance_uh);
  3265     0BB1  0020               	movlb	0	; select bank0
  3266     0BB2  0867               	movf	displayResults@inductance_uh+3,w
  3267     0BB3  00DC               	movwf	Lcd_Write_Float@f+3
  3268     0BB4  0866               	movf	displayResults@inductance_uh+2,w
  3269     0BB5  00DB               	movwf	Lcd_Write_Float@f+2
  3270     0BB6  0865               	movf	displayResults@inductance_uh+1,w
  3271     0BB7  00DA               	movwf	Lcd_Write_Float@f+1
  3272     0BB8  0864               	movf	displayResults@inductance_uh,w
  3273     0BB9  00D9               	movwf	Lcd_Write_Float@f
  3274     0BBA  3197  2762  318B   	fcall	_Lcd_Write_Float
  3275     0BBD                     l3427:
  3276                           
  3277                           ;main.c: 146:         Lcd_Write_String("uH");
  3278     0BBD  3087               	movlw	low (STR_5| (0+32768))
  3279     0BBE  0020               	movlb	0	; select bank0
  3280     0BBF  00AD               	movwf	Lcd_Write_String@str
  3281     0BC0  3098               	movlw	high (STR_5| (0+32768))
  3282     0BC1  00AE               	movwf	Lcd_Write_String@str+1
  3283     0BC2  3197  2793  318B   	fcall	_Lcd_Write_String
  3284     0BC5                     l64:
  3285     0BC5  0008               	return
  3286     0BC6                     __end_of_displayResults:
  3287                           
  3288                           	psect	text5
  3289     1762                     __ptext5:	
  3290 ;; *************** function _Lcd_Write_Float *****************
  3291 ;; Defined at:
  3292 ;;		line 296 in file "SC1601_LCD.c"
  3293 ;; Parameters:    Size  Location     Type
  3294 ;;  f               4   57[BANK0 ] float 
  3295 ;; Auto vars:     Size  Location     Type
  3296 ;;  status          2   62[BANK0 ] int 
  3297 ;;  buf             1   61[BANK0 ] PTR unsigned char 
  3298 ;;		 -> ftoa@buf(16), 
  3299 ;; Return value:  Size  Location     Type
  3300 ;;                  1    wreg      void 
  3301 ;; Registers used:
  3302 ;;		wreg, fsr0l, fsr0h, fsr1l, fsr1h, status,2, status,0, pclath, cstack
  3303 ;; Tracked objects:
  3304 ;;		On entry : 0/0
  3305 ;;		On exit  : 0/0
  3306 ;;		Unchanged: 0/0
  3307 ;; Data sizes:     COMMON   BANK0   BANK1   BANK2   BANK3   BANK4   BANK5   BANK6   BANK7   BANK8   BANK9  BANK10  BANK1
      +1  BANK12  BANK13  BANK14  BANK15  BANK16  BANK17  BANK18  BANK19  BANK20  BANK21  BANK22  BANK23  BANK24  BANK25
  3308 ;;      Params:         0       4       0       0       0       0       0       0       0       0       0       0       
      +0       0       0       0       0       0       0       0       0       0       0       0       0       0       0
  3309 ;;      Locals:         0       3       0       0       0       0       0       0       0       0       0       0       
      +0       0       0       0       0       0       0       0       0       0       0       0       0       0       0
  3310 ;;      Temps:          0       0       0       0       0       0       0       0       0       0       0       0       
      +0       0       0       0       0       0       0       0       0       0       0       0       0       0       0
  3311 ;;      Totals:         0       7       0       0       0       0       0       0       0       0       0       0       
      +0       0       0       0       0       0       0       0       0       0       0       0       0       0       0
  3312 ;;Total ram usage:        7 bytes
  3313 ;; Hardware stack levels used: 1
  3314 ;; Hardware stack levels required when called: 4
  3315 ;; This function calls:
  3316 ;;		_Lcd_Write_String
  3317 ;;		_ftoa
  3318 ;; This function is called by:
  3319 ;;		_displayResults
  3320 ;; This function uses a non-reentrant model
  3321 ;;
  3322                           
  3323     1762                     _Lcd_Write_Float:	
  3324                           ;psect for function _Lcd_Write_Float
  3325                           
  3326     1762                     l3305:	
  3327                           ;incstack = 0
  3328                           ; Regs used in _Lcd_Write_Float: [wreg-fsr1h+status,2+status,0+pclath+cstack]
  3329                           
  3330                           
  3331                           ;SC1601_LCD.c: 296: void Lcd_Write_Float(float f);SC1601_LCD.c: 297: {;SC1601_LCD.c: 298
      +                          :     char* buf;;SC1601_LCD.c: 299:     int status;;SC1601_LCD.c: 300:     buf = ftoa(f,
      +                           &status);
  3332     1762  0020               	movlb	0	; select bank0
  3333     1763  085C               	movf	Lcd_Write_Float@f+3,w
  3334     1764  00C7               	movwf	ftoa@f+3
  3335     1765  085B               	movf	Lcd_Write_Float@f+2,w
  3336     1766  00C6               	movwf	ftoa@f+2
  3337     1767  085A               	movf	Lcd_Write_Float@f+1,w
  3338     1768  00C5               	movwf	ftoa@f+1
  3339     1769  0859               	movf	Lcd_Write_Float@f,w
  3340     176A  00C4               	movwf	ftoa@f
  3341     176B  305E               	movlw	(low (Lcd_Write_Float@status| 0))& (0+255)
  3342     176C  00C8               	movwf	ftoa@status
  3343     176D  3186  2692  3197   	fcall	_ftoa
  3344     1770  0020               	movlb	0	; select bank0
  3345     1771  00DD               	movwf	Lcd_Write_Float@buf
  3346     1772                     l3307:
  3347                           
  3348                           ;SC1601_LCD.c: 301:     Lcd_Write_String(buf);
  3349     1772  085D               	movf	Lcd_Write_Float@buf,w
  3350     1773  00AD               	movwf	Lcd_Write_String@str
  3351     1774  3001               	movlw	1
  3352     1775  00AE               	movwf	Lcd_Write_String@str+1
  3353     1776  3197  2793  3197   	fcall	_Lcd_Write_String
  3354     1779                     l169:
  3355     1779  0008               	return
  3356     177A                     __end_of_Lcd_Write_Float:
  3357                           
  3358                           	psect	text6
  3359     0692                     __ptext6:	
  3360 ;; *************** function _ftoa *****************
  3361 ;; Defined at:
  3362 ;;		line 241 in file "SC1601_LCD.c"
  3363 ;; Parameters:    Size  Location     Type
  3364 ;;  f               4   36[BANK0 ] float 
  3365 ;;  status          1   40[BANK0 ] PTR int 
  3366 ;;		 -> Lcd_Write_Float@status(2), 
  3367 ;; Auto vars:     Size  Location     Type
  3368 ;;  frac_part       4   50[BANK0 ] float 
  3369 ;;  int_part        2   54[BANK0 ] int 
  3370 ;;  frac_digits     2   48[BANK0 ] int 
  3371 ;;  frac_as_int     2   46[BANK0 ] int 
  3372 ;;  ptr             1   56[BANK0 ] PTR unsigned char 
  3373 ;;		 -> ftoa@buf(16), 
  3374 ;; Return value:  Size  Location     Type
  3375 ;;                  1    wreg      PTR unsigned char 
  3376 ;; Registers used:
  3377 ;;		wreg, fsr0l, fsr0h, fsr1l, fsr1h, status,2, status,0, pclath, cstack
  3378 ;; Tracked objects:
  3379 ;;		On entry : 0/0
  3380 ;;		On exit  : 0/0
  3381 ;;		Unchanged: 0/0
  3382 ;; Data sizes:     COMMON   BANK0   BANK1   BANK2   BANK3   BANK4   BANK5   BANK6   BANK7   BANK8   BANK9  BANK10  BANK1
      +1  BANK12  BANK13  BANK14  BANK15  BANK16  BANK17  BANK18  BANK19  BANK20  BANK21  BANK22  BANK23  BANK24  BANK25
  3383 ;;      Params:         0       5       0       0       0       0       0       0       0       0       0       0       
      +0       0       0       0       0       0       0       0       0       0       0       0       0       0       0
  3384 ;;      Locals:         0      15       0       0       0       0       0       0       0       0       0       0       
      +0       0       0       0       0       0       0       0       0       0       0       0       0       0       0
  3385 ;;      Temps:          0       1       0       0       0       0       0       0       0       0       0       0       
      +0       0       0       0       0       0       0       0       0       0       0       0       0       0       0
  3386 ;;      Totals:         0      21       0       0       0       0       0       0       0       0       0       0       
      +0       0       0       0       0       0       0       0       0       0       0       0       0       0       0
  3387 ;;Total ram usage:       21 bytes
  3388 ;; Hardware stack levels used: 1
  3389 ;; Hardware stack levels required when called: 3
  3390 ;; This function calls:
  3391 ;;		___flge
  3392 ;;		___flmul
  3393 ;;		___flneg
  3394 ;;		___flsub
  3395 ;;		___fltol
  3396 ;;		___xxtofl
  3397 ;;		_itoa
  3398 ;; This function is called by:
  3399 ;;		_Lcd_Write_Float
  3400 ;; This function uses a non-reentrant model
  3401 ;;
  3402                           
  3403     0692                     _ftoa:	
  3404                           ;psect for function _ftoa
  3405                           
  3406     0692                     l3263:	
  3407                           ;incstack = 0
  3408                           ; Regs used in _ftoa: [wreg-fsr1h+status,2+status,0+pclath+cstack]
  3409                           
  3410                           
  3411                           ;SC1601_LCD.c: 242:     static char buf[16];;SC1601_LCD.c: 243:     char* ptr = buf;
  3412     0692  30A0               	movlw	(low (ftoa@buf| (0+256)))& (0+255)
  3413     0693  0020               	movlb	0	; select bank0
  3414     0694  00D8               	movwf	ftoa@ptr
  3415     0695                     l3265:
  3416                           
  3417                           ;SC1601_LCD.c: 244:     int int_part = (int)f;
  3418     0695  0847               	movf	ftoa@f+3,w
  3419     0696  00BD               	movwf	___fltol@f1+3
  3420     0697  0846               	movf	ftoa@f+2,w
  3421     0698  00BC               	movwf	___fltol@f1+2
  3422     0699  0845               	movf	ftoa@f+1,w
  3423     069A  00BB               	movwf	___fltol@f1+1
  3424     069B  0844               	movf	ftoa@f,w
  3425     069C  00BA               	movwf	___fltol@f1
  3426     069D  3189  2190  3186   	fcall	___fltol
  3427     06A0  0020               	movlb	0	; select bank0
  3428     06A1  083B               	movf	?___fltol+1,w
  3429     06A2  00D7               	movwf	ftoa@int_part+1
  3430     06A3  083A               	movf	?___fltol,w
  3431     06A4  00D6               	movwf	ftoa@int_part
  3432     06A5                     l3267:
  3433                           
  3434                           ;SC1601_LCD.c: 245:     float frac_part = f - int_part;
  3435     06A5  0856               	movf	ftoa@int_part,w
  3436     06A6  00F0               	movwf	___xxtofl@val
  3437     06A7  0857               	movf	ftoa@int_part+1,w
  3438     06A8  00F1               	movwf	___xxtofl@val+1
  3439     06A9  0D89               	rlf	9,f
  3440     06AA  3B89               	subwfb	9,f
  3441     06AB  0989               	comf	9,f
  3442     06AC  00F2               	movwf	___xxtofl@val+2
  3443     06AD  00F3               	movwf	___xxtofl@val+3
  3444     06AE  3001               	movlw	1
  3445     06AF  318B  23C6  3186   	fcall	___xxtofl
  3446     06B2  0873               	movf	?___xxtofl+3,w
  3447     06B3  0020               	movlb	0	; select bank0
  3448     06B4  00BD               	movwf	___flsub@a+3
  3449     06B5  0872               	movf	?___xxtofl+2,w
  3450     06B6  00BC               	movwf	___flsub@a+2
  3451     06B7  0871               	movf	?___xxtofl+1,w
  3452     06B8  00BB               	movwf	___flsub@a+1
  3453     06B9  0870               	movf	?___xxtofl,w
  3454     06BA  00BA               	movwf	___flsub@a
  3455     06BB  0847               	movf	ftoa@f+3,w
  3456     06BC  00C1               	movwf	___flsub@b+3
  3457     06BD  0846               	movf	ftoa@f+2,w
  3458     06BE  00C0               	movwf	___flsub@b+2
  3459     06BF  0845               	movf	ftoa@f+1,w
  3460     06C0  00BF               	movwf	___flsub@b+1
  3461     06C1  0844               	movf	ftoa@f,w
  3462     06C2  00BE               	movwf	___flsub@b
  3463     06C3  3188  200F  3186   	fcall	___flsub
  3464     06C6  0020               	movlb	0	; select bank0
  3465     06C7  083D               	movf	?___flsub+3,w
  3466     06C8  00D5               	movwf	ftoa@frac_part+3
  3467     06C9  083C               	movf	?___flsub+2,w
  3468     06CA  00D4               	movwf	ftoa@frac_part+2
  3469     06CB  083B               	movf	?___flsub+1,w
  3470     06CC  00D3               	movwf	ftoa@frac_part+1
  3471     06CD  083A               	movf	?___flsub,w
  3472     06CE  00D2               	movwf	ftoa@frac_part
  3473                           
  3474                           ;SC1601_LCD.c: 246:     int frac_as_int;;SC1601_LCD.c: 247:     int frac_digits = 2;
  3475     06CF  3002               	movlw	2
  3476     06D0  00D0               	movwf	ftoa@frac_digits
  3477     06D1  3000               	movlw	0
  3478     06D2  00D1               	movwf	ftoa@frac_digits+1
  3479     06D3                     l3269:
  3480                           
  3481                           ;SC1601_LCD.c: 250:     if (f < 0.0) {
  3482     06D3  0847               	movf	ftoa@f+3,w
  3483     06D4  00F3               	movwf	___flge@ff1+3
  3484     06D5  0846               	movf	ftoa@f+2,w
  3485     06D6  00F2               	movwf	___flge@ff1+2
  3486     06D7  0845               	movf	ftoa@f+1,w
  3487     06D8  00F1               	movwf	___flge@ff1+1
  3488     06D9  0844               	movf	ftoa@f,w
  3489     06DA  00F0               	movwf	___flge@ff1
  3490     06DB  3000               	movlw	0
  3491     06DC  00F7               	movwf	___flge@ff2+3
  3492     06DD  3000               	movlw	0
  3493     06DE  00F6               	movwf	___flge@ff2+2
  3494     06DF  3000               	movlw	0
  3495     06E0  00F5               	movwf	___flge@ff2+1
  3496     06E1  3000               	movlw	0
  3497     06E2  00F4               	movwf	___flge@ff2
  3498     06E3  318A  2201  3186   	fcall	___flge
  3499     06E6  1803               	btfsc	3,0
  3500     06E7  2EE9               	goto	u4141
  3501     06E8  2EEA               	goto	u4140
  3502     06E9                     u4141:
  3503     06E9  2F43               	goto	l3281
  3504     06EA                     u4140:
  3505     06EA                     l3271:
  3506                           
  3507                           ;SC1601_LCD.c: 251:         *ptr++ = '-';
  3508     06EA  0020               	movlb	0	; select bank0
  3509     06EB  0858               	movf	ftoa@ptr,w
  3510     06EC  0086               	movwf	6
  3511     06ED  3001               	movlw	1	; select bank2/3
  3512     06EE  0087               	movwf	7
  3513     06EF  302D               	movlw	45
  3514     06F0  0081               	movwf	1
  3515     06F1                     l3273:
  3516     06F1  3001               	movlw	1
  3517     06F2  00C9               	movwf	??_ftoa
  3518     06F3  0849               	movf	??_ftoa,w
  3519     06F4  07D8               	addwf	ftoa@ptr,f
  3520     06F5                     l3275:
  3521                           
  3522                           ;SC1601_LCD.c: 252:         f = -f;
  3523     06F5  0847               	movf	ftoa@f+3,w
  3524     06F6  00F3               	movwf	___flneg@f1+3
  3525     06F7  0846               	movf	ftoa@f+2,w
  3526     06F8  00F2               	movwf	___flneg@f1+2
  3527     06F9  0845               	movf	ftoa@f+1,w
  3528     06FA  00F1               	movwf	___flneg@f1+1
  3529     06FB  0844               	movf	ftoa@f,w
  3530     06FC  00F0               	movwf	___flneg@f1
  3531     06FD  3187  27F5  3186   	fcall	___flneg
  3532     0700  0873               	movf	?___flneg+3,w
  3533     0701  0020               	movlb	0	; select bank0
  3534     0702  00C7               	movwf	ftoa@f+3
  3535     0703  0872               	movf	?___flneg+2,w
  3536     0704  00C6               	movwf	ftoa@f+2
  3537     0705  0871               	movf	?___flneg+1,w
  3538     0706  00C5               	movwf	ftoa@f+1
  3539     0707  0870               	movf	?___flneg,w
  3540     0708  00C4               	movwf	ftoa@f
  3541     0709                     l3277:
  3542                           
  3543                           ;SC1601_LCD.c: 253:         int_part = (int)f;
  3544     0709  0847               	movf	ftoa@f+3,w
  3545     070A  00BD               	movwf	___fltol@f1+3
  3546     070B  0846               	movf	ftoa@f+2,w
  3547     070C  00BC               	movwf	___fltol@f1+2
  3548     070D  0845               	movf	ftoa@f+1,w
  3549     070E  00BB               	movwf	___fltol@f1+1
  3550     070F  0844               	movf	ftoa@f,w
  3551     0710  00BA               	movwf	___fltol@f1
  3552     0711  3189  2190  3186   	fcall	___fltol
  3553     0714  0020               	movlb	0	; select bank0
  3554     0715  083B               	movf	?___fltol+1,w
  3555     0716  00D7               	movwf	ftoa@int_part+1
  3556     0717  083A               	movf	?___fltol,w
  3557     0718  00D6               	movwf	ftoa@int_part
  3558     0719                     l3279:
  3559                           
  3560                           ;SC1601_LCD.c: 254:         frac_part = f - int_part;
  3561     0719  0856               	movf	ftoa@int_part,w
  3562     071A  00F0               	movwf	___xxtofl@val
  3563     071B  0857               	movf	ftoa@int_part+1,w
  3564     071C  00F1               	movwf	___xxtofl@val+1
  3565     071D  0D89               	rlf	9,f
  3566     071E  3B89               	subwfb	9,f
  3567     071F  0989               	comf	9,f
  3568     0720  00F2               	movwf	___xxtofl@val+2
  3569     0721  00F3               	movwf	___xxtofl@val+3
  3570     0722  3001               	movlw	1
  3571     0723  318B  23C6  3186   	fcall	___xxtofl
  3572     0726  0873               	movf	?___xxtofl+3,w
  3573     0727  0020               	movlb	0	; select bank0
  3574     0728  00BD               	movwf	___flsub@a+3
  3575     0729  0872               	movf	?___xxtofl+2,w
  3576     072A  00BC               	movwf	___flsub@a+2
  3577     072B  0871               	movf	?___xxtofl+1,w
  3578     072C  00BB               	movwf	___flsub@a+1
  3579     072D  0870               	movf	?___xxtofl,w
  3580     072E  00BA               	movwf	___flsub@a
  3581     072F  0847               	movf	ftoa@f+3,w
  3582     0730  00C1               	movwf	___flsub@b+3
  3583     0731  0846               	movf	ftoa@f+2,w
  3584     0732  00C0               	movwf	___flsub@b+2
  3585     0733  0845               	movf	ftoa@f+1,w
  3586     0734  00BF               	movwf	___flsub@b+1
  3587     0735  0844               	movf	ftoa@f,w
  3588     0736  00BE               	movwf	___flsub@b
  3589     0737  3188  200F  3186   	fcall	___flsub
  3590     073A  0020               	movlb	0	; select bank0
  3591     073B  083D               	movf	?___flsub+3,w
  3592     073C  00D5               	movwf	ftoa@frac_part+3
  3593     073D  083C               	movf	?___flsub+2,w
  3594     073E  00D4               	movwf	ftoa@frac_part+2
  3595     073F  083B               	movf	?___flsub+1,w
  3596     0740  00D3               	movwf	ftoa@frac_part+1
  3597     0741  083A               	movf	?___flsub,w
  3598     0742  00D2               	movwf	ftoa@frac_part
  3599     0743                     l3281:
  3600                           
  3601                           ;SC1601_LCD.c: 258:     itoa(ptr, int_part, 10);
  3602     0743  0020               	movlb	0	; select bank0
  3603     0744  0858               	movf	ftoa@ptr,w
  3604     0745  00A0               	movwf	itoa@buf
  3605     0746  3001               	movlw	1
  3606     0747  00A1               	movwf	itoa@buf+1
  3607     0748  0857               	movf	ftoa@int_part+1,w
  3608     0749  00A3               	movwf	itoa@value+1
  3609     074A  0856               	movf	ftoa@int_part,w
  3610     074B  00A2               	movwf	itoa@value
  3611     074C  300A               	movlw	10
  3612     074D  00A4               	movwf	itoa@base
  3613     074E  3000               	movlw	0
  3614     074F  00A5               	movwf	itoa@base+1
  3615     0750  318A  228B  3186   	fcall	_itoa
  3616                           
  3617                           ;SC1601_LCD.c: 259:     while (*ptr != '\0') {
  3618     0753  2F58               	goto	l3285
  3619     0754                     l3283:
  3620                           
  3621                           ;SC1601_LCD.c: 260:         ptr++;
  3622     0754  3001               	movlw	1
  3623     0755  00C9               	movwf	??_ftoa
  3624     0756  0849               	movf	??_ftoa,w
  3625     0757  07D8               	addwf	ftoa@ptr,f
  3626     0758                     l3285:
  3627                           
  3628                           ;SC1601_LCD.c: 259:     while (*ptr != '\0') {
  3629     0758  0020               	movlb	0	; select bank0
  3630     0759  0858               	movf	ftoa@ptr,w
  3631     075A  0086               	movwf	6
  3632     075B  3001               	movlw	1	; select bank2/3
  3633     075C  0087               	movwf	7
  3634     075D  0801               	movf	1,w
  3635     075E  1D03               	btfss	3,2
  3636     075F  2F61               	goto	u4151
  3637     0760  2F62               	goto	u4150
  3638     0761                     u4151:
  3639     0761  2F54               	goto	l3283
  3640     0762                     u4150:
  3641     0762                     l3287:
  3642                           
  3643                           ;SC1601_LCD.c: 264:     *ptr++ = '.';
  3644     0762  0858               	movf	ftoa@ptr,w
  3645     0763  0086               	movwf	6
  3646     0764  3001               	movlw	1	; select bank2/3
  3647     0765  0087               	movwf	7
  3648     0766  302E               	movlw	46
  3649     0767  0081               	movwf	1
  3650     0768                     l3289:
  3651     0768  3001               	movlw	1
  3652     0769  00C9               	movwf	??_ftoa
  3653     076A  0849               	movf	??_ftoa,w
  3654     076B  07D8               	addwf	ftoa@ptr,f
  3655     076C                     l3291:
  3656                           
  3657                           ;SC1601_LCD.c: 267:     frac_as_int = (int)(frac_part * 10 * frac_digits);
  3658     076C  0855               	movf	ftoa@frac_part+3,w
  3659     076D  00A7               	movwf	___flmul@a+3
  3660     076E  0854               	movf	ftoa@frac_part+2,w
  3661     076F  00A6               	movwf	___flmul@a+2
  3662     0770  0853               	movf	ftoa@frac_part+1,w
  3663     0771  00A5               	movwf	___flmul@a+1
  3664     0772  0852               	movf	ftoa@frac_part,w
  3665     0773  00A4               	movwf	___flmul@a
  3666     0774  3041               	movlw	65
  3667     0775  00A3               	movwf	___flmul@b+3
  3668     0776  3020               	movlw	32
  3669     0777  00A2               	movwf	___flmul@b+2
  3670     0778  3000               	movlw	0
  3671     0779  00A1               	movwf	___flmul@b+1
  3672     077A  3000               	movlw	0
  3673     077B  00A0               	movwf	___flmul@b
  3674     077C  3180  2047  3186   	fcall	___flmul
  3675     077F  0020               	movlb	0	; select bank0
  3676     0780  0823               	movf	?___flmul+3,w
  3677     0781  00CD               	movwf	_ftoa$1136+3
  3678     0782  0822               	movf	?___flmul+2,w
  3679     0783  00CC               	movwf	_ftoa$1136+2
  3680     0784  0821               	movf	?___flmul+1,w
  3681     0785  00CB               	movwf	_ftoa$1136+1
  3682     0786  0820               	movf	?___flmul,w
  3683     0787  00CA               	movwf	_ftoa$1136
  3684     0788                     l3293:
  3685                           
  3686                           ;SC1601_LCD.c: 267:     frac_as_int = (int)(frac_part * 10 * frac_digits);
  3687     0788  084D               	movf	_ftoa$1136+3,w
  3688     0789  00A7               	movwf	___flmul@a+3
  3689     078A  084C               	movf	_ftoa$1136+2,w
  3690     078B  00A6               	movwf	___flmul@a+2
  3691     078C  084B               	movf	_ftoa$1136+1,w
  3692     078D  00A5               	movwf	___flmul@a+1
  3693     078E  084A               	movf	_ftoa$1136,w
  3694     078F  00A4               	movwf	___flmul@a
  3695     0790  0850               	movf	ftoa@frac_digits,w
  3696     0791  00F0               	movwf	___xxtofl@val
  3697     0792  0851               	movf	ftoa@frac_digits+1,w
  3698     0793  00F1               	movwf	___xxtofl@val+1
  3699     0794  0D89               	rlf	9,f
  3700     0795  3B89               	subwfb	9,f
  3701     0796  0989               	comf	9,f
  3702     0797  00F2               	movwf	___xxtofl@val+2
  3703     0798  00F3               	movwf	___xxtofl@val+3
  3704     0799  3001               	movlw	1
  3705     079A  318B  23C6  3186   	fcall	___xxtofl
  3706     079D  0873               	movf	?___xxtofl+3,w
  3707     079E  0020               	movlb	0	; select bank0
  3708     079F  00A3               	movwf	___flmul@b+3
  3709     07A0  0872               	movf	?___xxtofl+2,w
  3710     07A1  00A2               	movwf	___flmul@b+2
  3711     07A2  0871               	movf	?___xxtofl+1,w
  3712     07A3  00A1               	movwf	___flmul@b+1
  3713     07A4  0870               	movf	?___xxtofl,w
  3714     07A5  00A0               	movwf	___flmul@b
  3715     07A6  3180  2047  3186   	fcall	___flmul
  3716     07A9  0020               	movlb	0	; select bank0
  3717     07AA  0823               	movf	?___flmul+3,w
  3718     07AB  00BD               	movwf	___fltol@f1+3
  3719     07AC  0822               	movf	?___flmul+2,w
  3720     07AD  00BC               	movwf	___fltol@f1+2
  3721     07AE  0821               	movf	?___flmul+1,w
  3722     07AF  00BB               	movwf	___fltol@f1+1
  3723     07B0  0820               	movf	?___flmul,w
  3724     07B1  00BA               	movwf	___fltol@f1
  3725     07B2  3189  2190  3186   	fcall	___fltol
  3726     07B5  0020               	movlb	0	; select bank0
  3727     07B6  083B               	movf	?___fltol+1,w
  3728     07B7  00CF               	movwf	ftoa@frac_as_int+1
  3729     07B8  083A               	movf	?___fltol,w
  3730     07B9  00CE               	movwf	ftoa@frac_as_int
  3731     07BA                     l3295:
  3732                           
  3733                           ;SC1601_LCD.c: 268:     itoa(ptr, frac_as_int, 10);
  3734     07BA  0858               	movf	ftoa@ptr,w
  3735     07BB  00A0               	movwf	itoa@buf
  3736     07BC  3001               	movlw	1
  3737     07BD  00A1               	movwf	itoa@buf+1
  3738     07BE  084F               	movf	ftoa@frac_as_int+1,w
  3739     07BF  00A3               	movwf	itoa@value+1
  3740     07C0  084E               	movf	ftoa@frac_as_int,w
  3741     07C1  00A2               	movwf	itoa@value
  3742     07C2  300A               	movlw	10
  3743     07C3  00A4               	movwf	itoa@base
  3744     07C4  3000               	movlw	0
  3745     07C5  00A5               	movwf	itoa@base+1
  3746     07C6  318A  228B  3186   	fcall	_itoa
  3747     07C9                     l3297:
  3748                           
  3749                           ;SC1601_LCD.c: 271:     *status = 0;
  3750     07C9  0020               	movlb	0	; select bank0
  3751     07CA  0848               	movf	ftoa@status,w
  3752     07CB  0086               	movwf	6
  3753     07CC  0187               	clrf	7
  3754     07CD  3000               	movlw	0
  3755     07CE  3FC0               	movwi [0]fsr1
  3756     07CF  3FC1               	movwi [1]fsr1
  3757     07D0                     l3299:
  3758                           
  3759                           ;SC1601_LCD.c: 272:     return buf;
  3760     07D0  30A0               	movlw	(low (ftoa@buf| (0+256)))& (0+255)
  3761     07D1                     l163:
  3762     07D1  0008               	return
  3763     07D2                     __end_of_ftoa:
  3764                           
  3765                           	psect	text7
  3766     080F                     __ptext7:	
  3767 ;; *************** function ___flsub *****************
  3768 ;; Defined at:
  3769 ;;		line 242 in file "C:\Program Files\Microchip\xc8\v2.46\pic\sources\c99\common\sprcadd.c"
  3770 ;; Parameters:    Size  Location     Type
  3771 ;;  a               4   26[BANK0 ] PTR unsigned char 
  3772 ;;  b               4   30[BANK0 ] PTR unsigned char 
  3773 ;; Auto vars:     Size  Location     Type
  3774 ;;		None
  3775 ;; Return value:  Size  Location     Type
  3776 ;;                  4   26[BANK0 ] PTR unsigned char 
  3777 ;; Registers used:
  3778 ;;		wreg, status,2, status,0, pclath, cstack
  3779 ;; Tracked objects:
  3780 ;;		On entry : 0/0
  3781 ;;		On exit  : 0/0
  3782 ;;		Unchanged: 0/0
  3783 ;; Data sizes:     COMMON   BANK0   BANK1   BANK2   BANK3   BANK4   BANK5   BANK6   BANK7   BANK8   BANK9  BANK10  BANK1
      +1  BANK12  BANK13  BANK14  BANK15  BANK16  BANK17  BANK18  BANK19  BANK20  BANK21  BANK22  BANK23  BANK24  BANK25
  3784 ;;      Params:         0       8       0       0       0       0       0       0       0       0       0       0       
      +0       0       0       0       0       0       0       0       0       0       0       0       0       0       0
  3785 ;;      Locals:         0       0       0       0       0       0       0       0       0       0       0       0       
      +0       0       0       0       0       0       0       0       0       0       0       0       0       0       0
  3786 ;;      Temps:          0       0       0       0       0       0       0       0       0       0       0       0       
      +0       0       0       0       0       0       0       0       0       0       0       0       0       0       0
  3787 ;;      Totals:         0       8       0       0       0       0       0       0       0       0       0       0       
      +0       0       0       0       0       0       0       0       0       0       0       0       0       0       0
  3788 ;;Total ram usage:        8 bytes
  3789 ;; Hardware stack levels used: 1
  3790 ;; Hardware stack levels required when called: 2
  3791 ;; This function calls:
  3792 ;;		___fladd
  3793 ;; This function is called by:
  3794 ;;		_main
  3795 ;;		_ftoa
  3796 ;; This function uses a non-reentrant model
  3797 ;;
  3798                           
  3799     080F                     ___flsub:	
  3800                           ;psect for function ___flsub
  3801                           
  3802     080F                     l2443:	
  3803                           ;incstack = 0
  3804                           ; Regs used in ___flsub: [wreg+status,2+status,0+pclath+cstack]
  3805                           
  3806     080F  3080               	movlw	128
  3807     0810  0020               	movlb	0	; select bank0
  3808     0811  06BD               	xorwf	___flsub@a+3,f
  3809     0812                     l2445:
  3810     0812  0841               	movf	___flsub@b+3,w
  3811     0813  00F3               	movwf	___fladd@b+3
  3812     0814  0840               	movf	___flsub@b+2,w
  3813     0815  00F2               	movwf	___fladd@b+2
  3814     0816  083F               	movf	___flsub@b+1,w
  3815     0817  00F1               	movwf	___fladd@b+1
  3816     0818  083E               	movf	___flsub@b,w
  3817     0819  00F0               	movwf	___fladd@b
  3818     081A  083D               	movf	___flsub@a+3,w
  3819     081B  00F7               	movwf	___fladd@a+3
  3820     081C  083C               	movf	___flsub@a+2,w
  3821     081D  00F6               	movwf	___fladd@a+2
  3822     081E  083B               	movf	___flsub@a+1,w
  3823     081F  00F5               	movwf	___fladd@a+1
  3824     0820  083A               	movf	___flsub@a,w
  3825     0821  00F4               	movwf	___fladd@a
  3826     0822  3182  2282  3188   	fcall	___fladd
  3827     0825  0873               	movf	?___fladd+3,w
  3828     0826  0020               	movlb	0	; select bank0
  3829     0827  00BD               	movwf	?___flsub+3
  3830     0828  0872               	movf	?___fladd+2,w
  3831     0829  00BC               	movwf	?___flsub+2
  3832     082A  0871               	movf	?___fladd+1,w
  3833     082B  00BB               	movwf	?___flsub+1
  3834     082C  0870               	movf	?___fladd,w
  3835     082D  00BA               	movwf	?___flsub
  3836     082E                     l735:
  3837     082E  0008               	return
  3838     082F                     __end_of___flsub:
  3839                           
  3840                           	psect	text8
  3841     0282                     __ptext8:	
  3842 ;; *************** function ___fladd *****************
  3843 ;; Defined at:
  3844 ;;		line 10 in file "C:\Program Files\Microchip\xc8\v2.46\pic\sources\c99\common\sprcadd.c"
  3845 ;; Parameters:    Size  Location     Type
  3846 ;;  b               4    0[COMMON] PTR unsigned char 
  3847 ;;  a               4    4[COMMON] PTR unsigned char 
  3848 ;; Auto vars:     Size  Location     Type
  3849 ;;  grs             1   11[COMMON] unsigned char 
  3850 ;;  bexp            1   10[COMMON] unsigned char 
  3851 ;;  aexp            1    9[COMMON] unsigned char 
  3852 ;;  signs           1    8[COMMON] unsigned char 
  3853 ;; Return value:  Size  Location     Type
  3854 ;;                  4    0[COMMON] unsigned char 
  3855 ;; Registers used:
  3856 ;;		wreg, status,2, status,0
  3857 ;; Tracked objects:
  3858 ;;		On entry : 0/0
  3859 ;;		On exit  : 0/0
  3860 ;;		Unchanged: 0/0
  3861 ;; Data sizes:     COMMON   BANK0   BANK1   BANK2   BANK3   BANK4   BANK5   BANK6   BANK7   BANK8   BANK9  BANK10  BANK1
      +1  BANK12  BANK13  BANK14  BANK15  BANK16  BANK17  BANK18  BANK19  BANK20  BANK21  BANK22  BANK23  BANK24  BANK25
  3862 ;;      Params:         8       0       0       0       0       0       0       0       0       0       0       0       
      +0       0       0       0       0       0       0       0       0       0       0       0       0       0       0
  3863 ;;      Locals:         4       0       0       0       0       0       0       0       0       0       0       0       
      +0       0       0       0       0       0       0       0       0       0       0       0       0       0       0
  3864 ;;      Temps:          0       8       0       0       0       0       0       0       0       0       0       0       
      +0       0       0       0       0       0       0       0       0       0       0       0       0       0       0
  3865 ;;      Totals:        12       8       0       0       0       0       0       0       0       0       0       0       
      +0       0       0       0       0       0       0       0       0       0       0       0       0       0       0
  3866 ;;Total ram usage:       20 bytes
  3867 ;; Hardware stack levels used: 1
  3868 ;; Hardware stack levels required when called: 1
  3869 ;; This function calls:
  3870 ;;		Nothing
  3871 ;; This function is called by:
  3872 ;;		___flsub
  3873 ;; This function uses a non-reentrant model
  3874 ;;
  3875                           
  3876     0282                     ___fladd:	
  3877                           ;psect for function ___fladd
  3878                           
  3879     0282                     l2131:	
  3880                           ;incstack = 0
  3881                           ; Regs used in ___fladd: [wreg+status,2+status,0]
  3882                           
  3883     0282  0873               	movf	___fladd@b+3,w
  3884     0283  3980               	andlw	128
  3885     0284  00F8               	movwf	___fladd@signs
  3886     0285                     l2133:
  3887     0285  3573               	lslf	___fladd@b+3,w
  3888     0286  00FA               	movwf	___fladd@bexp
  3889     0287                     l2135:
  3890     0287  1FF2               	btfss	___fladd@b+2,7
  3891     0288  2A8A               	goto	u2301
  3892     0289  2A8B               	goto	u2300
  3893     028A                     u2301:
  3894     028A  2A8C               	goto	l2139
  3895     028B                     u2300:
  3896     028B                     l2137:
  3897     028B  147A               	bsf	___fladd@bexp,0
  3898     028C                     l2139:
  3899     028C  087A               	movf	___fladd@bexp,w
  3900     028D  1903               	btfsc	3,2
  3901     028E  2A90               	goto	u2311
  3902     028F  2A91               	goto	u2310
  3903     0290                     u2311:
  3904     0290  2AA1               	goto	l2149
  3905     0291                     u2310:
  3906     0291                     l2141:
  3907     0291  0A7A               	incf	___fladd@bexp,w
  3908     0292  1D03               	btfss	3,2
  3909     0293  2A95               	goto	u2321
  3910     0294  2A96               	goto	u2320
  3911     0295                     u2321:
  3912     0295  2A9E               	goto	l2145
  3913     0296                     u2320:
  3914     0296                     l2143:
  3915     0296  3000               	movlw	0
  3916     0297  00F3               	movwf	___fladd@b+3
  3917     0298  3000               	movlw	0
  3918     0299  00F2               	movwf	___fladd@b+2
  3919     029A  3000               	movlw	0
  3920     029B  00F1               	movwf	___fladd@b+1
  3921     029C  3000               	movlw	0
  3922     029D  00F0               	movwf	___fladd@b
  3923     029E                     l2145:
  3924     029E  17F2               	bsf	___fladd@b+2,7
  3925     029F                     l2147:
  3926     029F  01F3               	clrf	___fladd@b+3
  3927     02A0  2AA9               	goto	l2151
  3928     02A1                     l2149:
  3929     02A1  3000               	movlw	0
  3930     02A2  00F3               	movwf	___fladd@b+3
  3931     02A3  3000               	movlw	0
  3932     02A4  00F2               	movwf	___fladd@b+2
  3933     02A5  3000               	movlw	0
  3934     02A6  00F1               	movwf	___fladd@b+1
  3935     02A7  3000               	movlw	0
  3936     02A8  00F0               	movwf	___fladd@b
  3937     02A9                     l2151:
  3938     02A9  0877               	movf	___fladd@a+3,w
  3939     02AA  3980               	andlw	128
  3940     02AB  00F9               	movwf	___fladd@aexp
  3941     02AC                     l2153:
  3942     02AC  0879               	movf	___fladd@aexp,w
  3943     02AD  0678               	xorwf	___fladd@signs,w
  3944     02AE  1903               	skipnz
  3945     02AF  2AB1               	goto	u2331
  3946     02B0  2AB2               	goto	u2330
  3947     02B1                     u2331:
  3948     02B1  2AB3               	goto	l2157
  3949     02B2                     u2330:
  3950     02B2                     l2155:
  3951     02B2  1778               	bsf	___fladd@signs,6
  3952     02B3                     l2157:
  3953     02B3  3577               	lslf	___fladd@a+3,w
  3954     02B4  00F9               	movwf	___fladd@aexp
  3955     02B5                     l2159:
  3956     02B5  1FF6               	btfss	___fladd@a+2,7
  3957     02B6  2AB8               	goto	u2341
  3958     02B7  2AB9               	goto	u2340
  3959     02B8                     u2341:
  3960     02B8  2ABA               	goto	l2163
  3961     02B9                     u2340:
  3962     02B9                     l2161:
  3963     02B9  1479               	bsf	___fladd@aexp,0
  3964     02BA                     l2163:
  3965     02BA  0879               	movf	___fladd@aexp,w
  3966     02BB  1903               	btfsc	3,2
  3967     02BC  2ABE               	goto	u2351
  3968     02BD  2ABF               	goto	u2350
  3969     02BE                     u2351:
  3970     02BE  2ACF               	goto	l2173
  3971     02BF                     u2350:
  3972     02BF                     l2165:
  3973     02BF  0A79               	incf	___fladd@aexp,w
  3974     02C0  1D03               	btfss	3,2
  3975     02C1  2AC3               	goto	u2361
  3976     02C2  2AC4               	goto	u2360
  3977     02C3                     u2361:
  3978     02C3  2ACC               	goto	l2169
  3979     02C4                     u2360:
  3980     02C4                     l2167:
  3981     02C4  3000               	movlw	0
  3982     02C5  00F7               	movwf	___fladd@a+3
  3983     02C6  3000               	movlw	0
  3984     02C7  00F6               	movwf	___fladd@a+2
  3985     02C8  3000               	movlw	0
  3986     02C9  00F5               	movwf	___fladd@a+1
  3987     02CA  3000               	movlw	0
  3988     02CB  00F4               	movwf	___fladd@a
  3989     02CC                     l2169:
  3990     02CC  17F6               	bsf	___fladd@a+2,7
  3991     02CD                     l2171:
  3992     02CD  01F7               	clrf	___fladd@a+3
  3993     02CE  2AD7               	goto	l689
  3994     02CF                     l2173:
  3995     02CF  3000               	movlw	0
  3996     02D0  00F7               	movwf	___fladd@a+3
  3997     02D1  3000               	movlw	0
  3998     02D2  00F6               	movwf	___fladd@a+2
  3999     02D3  3000               	movlw	0
  4000     02D4  00F5               	movwf	___fladd@a+1
  4001     02D5  3000               	movlw	0
  4002     02D6  00F4               	movwf	___fladd@a
  4003     02D7                     l689:
  4004     02D7  087A               	movf	___fladd@bexp,w
  4005     02D8  0279               	subwf	___fladd@aexp,w
  4006     02D9  1803               	skipnc
  4007     02DA  2ADC               	goto	u2371
  4008     02DB  2ADD               	goto	u2370
  4009     02DC                     u2371:
  4010     02DC  2B04               	goto	l2209
  4011     02DD                     u2370:
  4012     02DD                     l2175:
  4013     02DD  1F78               	btfss	___fladd@signs,6
  4014     02DE  2AE0               	goto	u2381
  4015     02DF  2AE1               	goto	u2380
  4016     02E0                     u2381:
  4017     02E0  2AE6               	goto	l2179
  4018     02E1                     u2380:
  4019     02E1                     l2177:
  4020     02E1  3080               	movlw	128
  4021     02E2  0020               	movlb	0	; select bank0
  4022     02E3  00A0               	movwf	??___fladd
  4023     02E4  0820               	movf	??___fladd,w
  4024     02E5  06F8               	xorwf	___fladd@signs,f
  4025     02E6                     l2179:
  4026     02E6  087A               	movf	___fladd@bexp,w
  4027     02E7  00FB               	movwf	___fladd@grs
  4028     02E8                     l2181:
  4029     02E8  0879               	movf	___fladd@aexp,w
  4030     02E9  00FA               	movwf	___fladd@bexp
  4031     02EA                     l2183:
  4032     02EA  087B               	movf	___fladd@grs,w
  4033     02EB  00F9               	movwf	___fladd@aexp
  4034     02EC                     l2185:
  4035     02EC  0870               	movf	___fladd@b,w
  4036     02ED  00FB               	movwf	___fladd@grs
  4037     02EE                     l2187:
  4038     02EE  0874               	movf	___fladd@a,w
  4039     02EF  00F0               	movwf	___fladd@b
  4040     02F0                     l2189:
  4041     02F0  087B               	movf	___fladd@grs,w
  4042     02F1  00F4               	movwf	___fladd@a
  4043     02F2                     l2191:
  4044     02F2  0871               	movf	___fladd@b+1,w
  4045     02F3  00FB               	movwf	___fladd@grs
  4046     02F4                     l2193:
  4047     02F4  0875               	movf	___fladd@a+1,w
  4048     02F5  00F1               	movwf	___fladd@b+1
  4049     02F6                     l2195:
  4050     02F6  087B               	movf	___fladd@grs,w
  4051     02F7  00F5               	movwf	___fladd@a+1
  4052     02F8                     l2197:
  4053     02F8  0872               	movf	___fladd@b+2,w
  4054     02F9  00FB               	movwf	___fladd@grs
  4055     02FA                     l2199:
  4056     02FA  0876               	movf	___fladd@a+2,w
  4057     02FB  00F2               	movwf	___fladd@b+2
  4058     02FC                     l2201:
  4059     02FC  087B               	movf	___fladd@grs,w
  4060     02FD  00F6               	movwf	___fladd@a+2
  4061     02FE                     l2203:
  4062     02FE  0873               	movf	___fladd@b+3,w
  4063     02FF  00FB               	movwf	___fladd@grs
  4064     0300                     l2205:
  4065     0300  0877               	movf	___fladd@a+3,w
  4066     0301  00F3               	movwf	___fladd@b+3
  4067     0302                     l2207:
  4068     0302  087B               	movf	___fladd@grs,w
  4069     0303  00F7               	movwf	___fladd@a+3
  4070     0304                     l2209:
  4071     0304  01FB               	clrf	___fladd@grs
  4072     0305                     l2211:
  4073     0305  0879               	movf	___fladd@aexp,w
  4074     0306  0020               	movlb	0	; select bank0
  4075     0307  00A0               	movwf	??___fladd
  4076     0308  01A1               	clrf	??___fladd+1
  4077     0309  0821               	movf	??___fladd+1,w
  4078     030A  00A3               	movwf	??___fladd+3
  4079     030B  087A               	movf	___fladd@bexp,w
  4080     030C  0220               	subwf	??___fladd,w
  4081     030D  00A2               	movwf	??___fladd+2
  4082     030E  1C03               	skipc
  4083     030F  03A3               	decf	??___fladd+3,f
  4084     0310  0823               	movf	??___fladd+3,w
  4085     0311  3A80               	xorlw	128
  4086     0312  00A4               	movwf	??___fladd+4
  4087     0313  3080               	movlw	128
  4088     0314  0224               	subwf	??___fladd+4,w
  4089     0315  1D03               	skipz
  4090     0316  2B19               	goto	u2395
  4091     0317  301A               	movlw	26
  4092     0318  0222               	subwf	??___fladd+2,w
  4093     0319                     u2395:
  4094     0319  1C03               	skipc
  4095     031A  2B1C               	goto	u2391
  4096     031B  2B1D               	goto	u2390
  4097     031C                     u2391:
  4098     031C  2B4F               	goto	l2227
  4099     031D                     u2390:
  4100     031D                     l2213:
  4101     031D  0873               	movf	___fladd@b+3,w
  4102     031E  0472               	iorwf	___fladd@b+2,w
  4103     031F  0471               	iorwf	___fladd@b+1,w
  4104     0320  0470               	iorwf	___fladd@b,w
  4105     0321  1D03               	skipz
  4106     0322  2B24               	goto	u2401
  4107     0323  2B26               	goto	u2400
  4108     0324                     u2401:
  4109     0324  3001               	movlw	1
  4110     0325  2B27               	goto	u2410
  4111     0326                     u2400:
  4112     0326  3000               	movlw	0
  4113     0327                     u2410:
  4114     0327  00FB               	movwf	___fladd@grs
  4115     0328  3000               	movlw	0
  4116     0329  00F3               	movwf	___fladd@b+3
  4117     032A  3000               	movlw	0
  4118     032B  00F2               	movwf	___fladd@b+2
  4119     032C  3000               	movlw	0
  4120     032D  00F1               	movwf	___fladd@b+1
  4121     032E  3000               	movlw	0
  4122     032F  00F0               	movwf	___fladd@b
  4123     0330  0879               	movf	___fladd@aexp,w
  4124     0331  00FA               	movwf	___fladd@bexp
  4125     0332  2B55               	goto	l693
  4126     0333                     l695:
  4127     0333  1C7B               	btfss	___fladd@grs,0
  4128     0334  2B36               	goto	u2421
  4129     0335  2B37               	goto	u2420
  4130     0336                     u2421:
  4131     0336  2B3B               	goto	l2217
  4132     0337                     u2420:
  4133     0337                     l2215:
  4134     0337  367B               	lsrf	___fladd@grs,w
  4135     0338  3801               	iorlw	1
  4136     0339  00FB               	movwf	___fladd@grs
  4137     033A  2B3D               	goto	l2219
  4138     033B                     l2217:
  4139     033B  1003               	clrc
  4140     033C  0CFB               	rrf	___fladd@grs,f
  4141     033D                     l2219:
  4142     033D  1C70               	btfss	___fladd@b,0
  4143     033E  2B40               	goto	u2431
  4144     033F  2B41               	goto	u2430
  4145     0340                     u2431:
  4146     0340  2B42               	goto	l2223
  4147     0341                     u2430:
  4148     0341                     l2221:
  4149     0341  17FB               	bsf	___fladd@grs,7
  4150     0342                     l2223:
  4151     0342  3001               	movlw	1
  4152     0343  0020               	movlb	0	; select bank0
  4153     0344  00A0               	movwf	??___fladd
  4154     0345                     u2445:
  4155     0345  37F3               	asrf	___fladd@b+3,f
  4156     0346  0CF2               	rrf	___fladd@b+2,f
  4157     0347  0CF1               	rrf	___fladd@b+1,f
  4158     0348  0CF0               	rrf	___fladd@b,f
  4159     0349  0BA0               	decfsz	??___fladd& (0+127),f
  4160     034A  2B45               	goto	u2445
  4161     034B                     l2225:
  4162     034B  3001               	movlw	1
  4163     034C  00A0               	movwf	??___fladd
  4164     034D  0820               	movf	??___fladd,w
  4165     034E  07FA               	addwf	___fladd@bexp,f
  4166     034F                     l2227:
  4167     034F  0879               	movf	___fladd@aexp,w
  4168     0350  027A               	subwf	___fladd@bexp,w
  4169     0351  1C03               	skipc
  4170     0352  2B54               	goto	u2451
  4171     0353  2B55               	goto	u2450
  4172     0354                     u2451:
  4173     0354  2B33               	goto	l695
  4174     0355                     u2450:
  4175     0355                     l693:
  4176     0355  1B78               	btfsc	___fladd@signs,6
  4177     0356  2B58               	goto	u2461
  4178     0357  2B59               	goto	u2460
  4179     0358                     u2461:
  4180     0358  2B90               	goto	l2253
  4181     0359                     u2460:
  4182     0359                     l2229:
  4183     0359  087A               	movf	___fladd@bexp,w
  4184     035A  1D03               	btfss	3,2
  4185     035B  2B5D               	goto	u2471
  4186     035C  2B5E               	goto	u2470
  4187     035D                     u2471:
  4188     035D  2B67               	goto	l2235
  4189     035E                     u2470:
  4190     035E                     l2231:
  4191     035E  3000               	movlw	0
  4192     035F  00F3               	movwf	?___fladd+3
  4193     0360  3000               	movlw	0
  4194     0361  00F2               	movwf	?___fladd+2
  4195     0362  3000               	movlw	0
  4196     0363  00F1               	movwf	?___fladd+1
  4197     0364  3000               	movlw	0
  4198     0365  00F0               	movwf	?___fladd
  4199     0366  2C8D               	goto	l702
  4200     0367                     l2235:
  4201     0367  0874               	movf	___fladd@a,w
  4202     0368  07F0               	addwf	___fladd@b,f
  4203     0369  0875               	movf	___fladd@a+1,w
  4204     036A  3DF1               	addwfc	___fladd@b+1,f
  4205     036B  0876               	movf	___fladd@a+2,w
  4206     036C  3DF2               	addwfc	___fladd@b+2,f
  4207     036D  0877               	movf	___fladd@a+3,w
  4208     036E  3DF3               	addwfc	___fladd@b+3,f
  4209     036F                     l2237:
  4210     036F  1C73               	btfss	___fladd@b+3,0
  4211     0370  2B72               	goto	u2481
  4212     0371  2B73               	goto	u2480
  4213     0372                     u2481:
  4214     0372  2C1D               	goto	l2287
  4215     0373                     u2480:
  4216     0373                     l2239:
  4217     0373  1C7B               	btfss	___fladd@grs,0
  4218     0374  2B76               	goto	u2491
  4219     0375  2B77               	goto	u2490
  4220     0376                     u2491:
  4221     0376  2B7B               	goto	l2243
  4222     0377                     u2490:
  4223     0377                     l2241:
  4224     0377  367B               	lsrf	___fladd@grs,w
  4225     0378  3801               	iorlw	1
  4226     0379  00FB               	movwf	___fladd@grs
  4227     037A  2B7D               	goto	l2245
  4228     037B                     l2243:
  4229     037B  1003               	clrc
  4230     037C  0CFB               	rrf	___fladd@grs,f
  4231     037D                     l2245:
  4232     037D  1C70               	btfss	___fladd@b,0
  4233     037E  2B80               	goto	u2501
  4234     037F  2B81               	goto	u2500
  4235     0380                     u2501:
  4236     0380  2B82               	goto	l2249
  4237     0381                     u2500:
  4238     0381                     l2247:
  4239     0381  17FB               	bsf	___fladd@grs,7
  4240     0382                     l2249:
  4241     0382  3001               	movlw	1
  4242     0383  0020               	movlb	0	; select bank0
  4243     0384  00A0               	movwf	??___fladd
  4244     0385                     u2515:
  4245     0385  37F3               	asrf	___fladd@b+3,f
  4246     0386  0CF2               	rrf	___fladd@b+2,f
  4247     0387  0CF1               	rrf	___fladd@b+1,f
  4248     0388  0CF0               	rrf	___fladd@b,f
  4249     0389  0BA0               	decfsz	??___fladd& (0+127),f
  4250     038A  2B85               	goto	u2515
  4251     038B                     l2251:
  4252     038B  3001               	movlw	1
  4253     038C  00A0               	movwf	??___fladd
  4254     038D  0820               	movf	??___fladd,w
  4255     038E  07FA               	addwf	___fladd@bexp,f
  4256     038F  2C1D               	goto	l2287
  4257     0390                     l2253:
  4258     0390  0873               	movf	___fladd@b+3,w
  4259     0391  3A80               	xorlw	128
  4260     0392  0020               	movlb	0	; select bank0
  4261     0393  00A0               	movwf	??___fladd
  4262     0394  0877               	movf	___fladd@a+3,w
  4263     0395  3A80               	xorlw	128
  4264     0396  0220               	subwf	??___fladd,w
  4265     0397  1D03               	skipz
  4266     0398  2BA3               	goto	u2523
  4267     0399  0876               	movf	___fladd@a+2,w
  4268     039A  0272               	subwf	___fladd@b+2,w
  4269     039B  1D03               	skipz
  4270     039C  2BA3               	goto	u2523
  4271     039D  0875               	movf	___fladd@a+1,w
  4272     039E  0271               	subwf	___fladd@b+1,w
  4273     039F  1D03               	skipz
  4274     03A0  2BA3               	goto	u2523
  4275     03A1  0874               	movf	___fladd@a,w
  4276     03A2  0270               	subwf	___fladd@b,w
  4277     03A3                     u2523:
  4278     03A3  1803               	skipnc
  4279     03A4  2BA6               	goto	u2521
  4280     03A5  2BA7               	goto	u2520
  4281     03A6                     u2521:
  4282     03A6  2BDF               	goto	l2263
  4283     03A7                     u2520:
  4284     03A7                     l2255:
  4285     03A7  30FF               	movlw	255
  4286     03A8  00A0               	movwf	??___fladd
  4287     03A9  30FF               	movlw	255
  4288     03AA  00A1               	movwf	??___fladd+1
  4289     03AB  30FF               	movlw	255
  4290     03AC  00A2               	movwf	??___fladd+2
  4291     03AD  30FF               	movlw	255
  4292     03AE  00A3               	movwf	??___fladd+3
  4293     03AF  0870               	movf	___fladd@b,w
  4294     03B0  0274               	subwf	___fladd@a,w
  4295     03B1  00A4               	movwf	??___fladd+4
  4296     03B2  0871               	movf	___fladd@b+1,w
  4297     03B3  3B75               	subwfb	___fladd@a+1,w
  4298     03B4  00A5               	movwf	??___fladd+5
  4299     03B5  0872               	movf	___fladd@b+2,w
  4300     03B6  3B76               	subwfb	___fladd@a+2,w
  4301     03B7  00A6               	movwf	??___fladd+6
  4302     03B8  0873               	movf	___fladd@b+3,w
  4303     03B9  3B77               	subwfb	___fladd@a+3,w
  4304     03BA  00A7               	movwf	??___fladd+7
  4305     03BB  0824               	movf	??___fladd+4,w
  4306     03BC  07A0               	addwf	??___fladd,f
  4307     03BD  0825               	movf	??___fladd+5,w
  4308     03BE  3DA1               	addwfc	??___fladd+1,f
  4309     03BF  0826               	movf	??___fladd+6,w
  4310     03C0  3DA2               	addwfc	??___fladd+2,f
  4311     03C1  0827               	movf	??___fladd+7,w
  4312     03C2  3DA3               	addwfc	??___fladd+3,f
  4313     03C3  0823               	movf	??___fladd+3,w
  4314     03C4  00F3               	movwf	___fladd@b+3
  4315     03C5  0822               	movf	??___fladd+2,w
  4316     03C6  00F2               	movwf	___fladd@b+2
  4317     03C7  0821               	movf	??___fladd+1,w
  4318     03C8  00F1               	movwf	___fladd@b+1
  4319     03C9  0820               	movf	??___fladd,w
  4320     03CA  00F0               	movwf	___fladd@b
  4321     03CB                     l2257:
  4322     03CB  3080               	movlw	128
  4323     03CC  00A0               	movwf	??___fladd
  4324     03CD  0820               	movf	??___fladd,w
  4325     03CE  06F8               	xorwf	___fladd@signs,f
  4326     03CF  09FB               	comf	___fladd@grs,f
  4327     03D0  0AFB               	incf	___fladd@grs,f
  4328     03D1                     l2259:
  4329     03D1  087B               	movf	___fladd@grs,w
  4330     03D2  1D03               	btfss	3,2
  4331     03D3  2BD5               	goto	u2531
  4332     03D4  2BD6               	goto	u2530
  4333     03D5                     u2531:
  4334     03D5  2BE7               	goto	l710
  4335     03D6                     u2530:
  4336     03D6                     l2261:
  4337     03D6  3001               	movlw	1
  4338     03D7  07F0               	addwf	___fladd@b,f
  4339     03D8  3000               	movlw	0
  4340     03D9  3DF1               	addwfc	___fladd@b+1,f
  4341     03DA  3000               	movlw	0
  4342     03DB  3DF2               	addwfc	___fladd@b+2,f
  4343     03DC  3000               	movlw	0
  4344     03DD  3DF3               	addwfc	___fladd@b+3,f
  4345     03DE  2BE7               	goto	l710
  4346     03DF                     l2263:
  4347     03DF  0874               	movf	___fladd@a,w
  4348     03E0  02F0               	subwf	___fladd@b,f
  4349     03E1  0875               	movf	___fladd@a+1,w
  4350     03E2  3BF1               	subwfb	___fladd@b+1,f
  4351     03E3  0876               	movf	___fladd@a+2,w
  4352     03E4  3BF2               	subwfb	___fladd@b+2,f
  4353     03E5  0877               	movf	___fladd@a+3,w
  4354     03E6  3BF3               	subwfb	___fladd@b+3,f
  4355     03E7                     l710:
  4356     03E7  0873               	movf	___fladd@b+3,w
  4357     03E8  0472               	iorwf	___fladd@b+2,w
  4358     03E9  0471               	iorwf	___fladd@b+1,w
  4359     03EA  0470               	iorwf	___fladd@b,w
  4360     03EB  1D03               	skipz
  4361     03EC  2BEE               	goto	u2541
  4362     03ED  2BEF               	goto	u2540
  4363     03EE                     u2541:
  4364     03EE  2C19               	goto	l2285
  4365     03EF                     u2540:
  4366     03EF                     l2265:
  4367     03EF  087B               	movf	___fladd@grs,w
  4368     03F0  1D03               	btfss	3,2
  4369     03F1  2BF3               	goto	u2551
  4370     03F2  2BF4               	goto	u2550
  4371     03F3                     u2551:
  4372     03F3  2C19               	goto	l2285
  4373     03F4                     u2550:
  4374     03F4                     l2267:
  4375     03F4  3000               	movlw	0
  4376     03F5  00F3               	movwf	?___fladd+3
  4377     03F6  3000               	movlw	0
  4378     03F7  00F2               	movwf	?___fladd+2
  4379     03F8  3000               	movlw	0
  4380     03F9  00F1               	movwf	?___fladd+1
  4381     03FA  3000               	movlw	0
  4382     03FB  00F0               	movwf	?___fladd
  4383     03FC  2C8D               	goto	l702
  4384     03FD                     l2271:
  4385     03FD  3001               	movlw	1
  4386     03FE                     u2565:
  4387     03FE  35F0               	lslf	___fladd@b,f
  4388     03FF  0DF1               	rlf	___fladd@b+1,f
  4389     0400  0DF2               	rlf	___fladd@b+2,f
  4390     0401  0DF3               	rlf	___fladd@b+3,f
  4391     0402  0B89               	decfsz	9,f
  4392     0403  2BFE               	goto	u2565
  4393     0404                     l2273:
  4394     0404  1FFB               	btfss	___fladd@grs,7
  4395     0405  2C07               	goto	u2571
  4396     0406  2C08               	goto	u2570
  4397     0407                     u2571:
  4398     0407  2C09               	goto	l714
  4399     0408                     u2570:
  4400     0408                     l2275:
  4401     0408  1470               	bsf	___fladd@b,0
  4402     0409                     l714:
  4403     0409  1C7B               	btfss	___fladd@grs,0
  4404     040A  2C0C               	goto	u2581
  4405     040B  2C0D               	goto	u2580
  4406     040C                     u2581:
  4407     040C  2C10               	goto	l2279
  4408     040D                     u2580:
  4409     040D                     l2277:
  4410     040D  1403               	setc
  4411     040E  0DFB               	rlf	___fladd@grs,f
  4412     040F  2C12               	goto	l2281
  4413     0410                     l2279:
  4414     0410  1003               	clrc
  4415     0411  0DFB               	rlf	___fladd@grs,f
  4416     0412                     l2281:
  4417     0412  087A               	movf	___fladd@bexp,w
  4418     0413  1903               	btfsc	3,2
  4419     0414  2C16               	goto	u2591
  4420     0415  2C17               	goto	u2590
  4421     0416                     u2591:
  4422     0416  2C19               	goto	l2285
  4423     0417                     u2590:
  4424     0417                     l2283:
  4425     0417  3001               	movlw	1
  4426     0418  02FA               	subwf	___fladd@bexp,f
  4427     0419                     l2285:
  4428     0419  1FF2               	btfss	___fladd@b+2,7
  4429     041A  2C1C               	goto	u2601
  4430     041B  2C1D               	goto	u2600
  4431     041C                     u2601:
  4432     041C  2BFD               	goto	l2271
  4433     041D                     u2600:
  4434     041D                     l2287:
  4435     041D  01F9               	clrf	___fladd@aexp
  4436     041E                     l2289:
  4437     041E  1FFB               	btfss	___fladd@grs,7
  4438     041F  2C21               	goto	u2611
  4439     0420  2C22               	goto	u2610
  4440     0421                     u2611:
  4441     0421  2C30               	goto	l2297
  4442     0422                     u2610:
  4443     0422                     l2291:
  4444     0422  087B               	movf	___fladd@grs,w
  4445     0423  397F               	andlw	127
  4446     0424  1903               	btfsc	3,2
  4447     0425  2C27               	goto	u2621
  4448     0426  2C28               	goto	u2620
  4449     0427                     u2621:
  4450     0427  2C2B               	goto	l720
  4451     0428                     u2620:
  4452     0428                     l2293:
  4453     0428  01F9               	clrf	___fladd@aexp
  4454     0429  0AF9               	incf	___fladd@aexp,f
  4455     042A  2C30               	goto	l2297
  4456     042B                     l720:
  4457     042B  1C70               	btfss	___fladd@b,0
  4458     042C  2C2E               	goto	u2631
  4459     042D  2C2F               	goto	u2630
  4460     042E                     u2631:
  4461     042E  2C30               	goto	l2297
  4462     042F                     u2630:
  4463     042F  2C28               	goto	l2293
  4464     0430                     l2297:
  4465     0430  0879               	movf	___fladd@aexp,w
  4466     0431  1903               	btfsc	3,2
  4467     0432  2C34               	goto	u2641
  4468     0433  2C35               	goto	u2640
  4469     0434                     u2641:
  4470     0434  2C63               	goto	l723
  4471     0435                     u2640:
  4472     0435                     l2299:
  4473     0435  3001               	movlw	1
  4474     0436  07F0               	addwf	___fladd@b,f
  4475     0437  3000               	movlw	0
  4476     0438  3DF1               	addwfc	___fladd@b+1,f
  4477     0439  3000               	movlw	0
  4478     043A  3DF2               	addwfc	___fladd@b+2,f
  4479     043B  3000               	movlw	0
  4480     043C  3DF3               	addwfc	___fladd@b+3,f
  4481     043D                     l2301:
  4482     043D  1C73               	btfss	___fladd@b+3,0
  4483     043E  2C40               	goto	u2651
  4484     043F  2C41               	goto	u2650
  4485     0440                     u2651:
  4486     0440  2C63               	goto	l723
  4487     0441                     u2650:
  4488     0441                     l2303:
  4489     0441  0870               	movf	___fladd@b,w
  4490     0442  0020               	movlb	0	; select bank0
  4491     0443  00A0               	movwf	??___fladd
  4492     0444  0871               	movf	___fladd@b+1,w
  4493     0445  00A1               	movwf	??___fladd+1
  4494     0446  0872               	movf	___fladd@b+2,w
  4495     0447  00A2               	movwf	??___fladd+2
  4496     0448  0873               	movf	___fladd@b+3,w
  4497     0449  00A3               	movwf	??___fladd+3
  4498     044A  3001               	movlw	1
  4499     044B  00A4               	movwf	??___fladd+4
  4500     044C                     u2665:
  4501     044C  37A3               	asrf	??___fladd+3,f
  4502     044D  0CA2               	rrf	??___fladd+2,f
  4503     044E  0CA1               	rrf	??___fladd+1,f
  4504     044F  0CA0               	rrf	??___fladd,f
  4505     0450                     u2660:
  4506     0450  0BA4               	decfsz	??___fladd+4,f
  4507     0451  2C4C               	goto	u2665
  4508     0452  0823               	movf	??___fladd+3,w
  4509     0453  00F3               	movwf	___fladd@b+3
  4510     0454  0822               	movf	??___fladd+2,w
  4511     0455  00F2               	movwf	___fladd@b+2
  4512     0456  0821               	movf	??___fladd+1,w
  4513     0457  00F1               	movwf	___fladd@b+1
  4514     0458  0820               	movf	??___fladd,w
  4515     0459  00F0               	movwf	___fladd@b
  4516     045A  0A7A               	incf	___fladd@bexp,w
  4517     045B  1903               	btfsc	3,2
  4518     045C  2C5E               	goto	u2671
  4519     045D  2C5F               	goto	u2670
  4520     045E                     u2671:
  4521     045E  2C63               	goto	l723
  4522     045F                     u2670:
  4523     045F                     l2305:
  4524     045F  3001               	movlw	1
  4525     0460  00A0               	movwf	??___fladd
  4526     0461  0820               	movf	??___fladd,w
  4527     0462  07FA               	addwf	___fladd@bexp,f
  4528     0463                     l723:
  4529     0463  0A7A               	incf	___fladd@bexp,w
  4530     0464  1903               	btfsc	3,2
  4531     0465  2C67               	goto	u2681
  4532     0466  2C68               	goto	u2680
  4533     0467                     u2681:
  4534     0467  2C6D               	goto	l2309
  4535     0468                     u2680:
  4536     0468                     l2307:
  4537     0468  087A               	movf	___fladd@bexp,w
  4538     0469  1D03               	btfss	3,2
  4539     046A  2C6C               	goto	u2691
  4540     046B  2C6D               	goto	u2690
  4541     046C                     u2691:
  4542     046C  2C7B               	goto	l2315
  4543     046D                     u2690:
  4544     046D                     l2309:
  4545     046D  3000               	movlw	0
  4546     046E  00F3               	movwf	___fladd@b+3
  4547     046F  3000               	movlw	0
  4548     0470  00F2               	movwf	___fladd@b+2
  4549     0471  3000               	movlw	0
  4550     0472  00F1               	movwf	___fladd@b+1
  4551     0473  3000               	movlw	0
  4552     0474  00F0               	movwf	___fladd@b
  4553     0475                     l2311:
  4554     0475  087A               	movf	___fladd@bexp,w
  4555     0476  1D03               	btfss	3,2
  4556     0477  2C79               	goto	u2701
  4557     0478  2C7A               	goto	u2700
  4558     0479                     u2701:
  4559     0479  2C7B               	goto	l2315
  4560     047A                     u2700:
  4561     047A                     l2313:
  4562     047A  01F8               	clrf	___fladd@signs
  4563     047B                     l2315:
  4564     047B  1C7A               	btfss	___fladd@bexp,0
  4565     047C  2C7E               	goto	u2711
  4566     047D  2C7F               	goto	u2710
  4567     047E                     u2711:
  4568     047E  2C81               	goto	l2319
  4569     047F                     u2710:
  4570     047F                     l2317:
  4571     047F  17F2               	bsf	___fladd@b+2,7
  4572     0480  2C86               	goto	l731
  4573     0481                     l2319:
  4574     0481  307F               	movlw	127
  4575     0482  0020               	movlb	0	; select bank0
  4576     0483  00A0               	movwf	??___fladd
  4577     0484  0820               	movf	??___fladd,w
  4578     0485  05F2               	andwf	___fladd@b+2,f
  4579     0486                     l731:
  4580     0486  367A               	lsrf	___fladd@bexp,w
  4581     0487  00F3               	movwf	___fladd@b+3
  4582     0488                     l2321:
  4583     0488  1FF8               	btfss	___fladd@signs,7
  4584     0489  2C8B               	goto	u2721
  4585     048A  2C8C               	goto	u2720
  4586     048B                     u2721:
  4587     048B  2C8D               	goto	l732
  4588     048C                     u2720:
  4589     048C                     l2323:
  4590     048C  17F3               	bsf	___fladd@b+3,7
  4591     048D                     l732:
  4592     048D                     l702:
  4593     048D  0008               	return
  4594     048E                     __end_of___fladd:
  4595                           
  4596                           	psect	text9
  4597     07F5                     __ptext9:	
  4598 ;; *************** function ___flneg *****************
  4599 ;; Defined at:
  4600 ;;		line 15 in file "C:\Program Files\Microchip\xc8\v2.46\pic\sources\c99\common\flneg.c"
  4601 ;; Parameters:    Size  Location     Type
  4602 ;;  f1              4    0[COMMON] unsigned char 
  4603 ;; Auto vars:     Size  Location     Type
  4604 ;;		None
  4605 ;; Return value:  Size  Location     Type
  4606 ;;                  4    0[COMMON] unsigned char 
  4607 ;; Registers used:
  4608 ;;		wreg
  4609 ;; Tracked objects:
  4610 ;;		On entry : 0/0
  4611 ;;		On exit  : 0/0
  4612 ;;		Unchanged: 0/0
  4613 ;; Data sizes:     COMMON   BANK0   BANK1   BANK2   BANK3   BANK4   BANK5   BANK6   BANK7   BANK8   BANK9  BANK10  BANK1
      +1  BANK12  BANK13  BANK14  BANK15  BANK16  BANK17  BANK18  BANK19  BANK20  BANK21  BANK22  BANK23  BANK24  BANK25
  4614 ;;      Params:         4       0       0       0       0       0       0       0       0       0       0       0       
      +0       0       0       0       0       0       0       0       0       0       0       0       0       0       0
  4615 ;;      Locals:         0       0       0       0       0       0       0       0       0       0       0       0       
      +0       0       0       0       0       0       0       0       0       0       0       0       0       0       0
  4616 ;;      Temps:          0       0       0       0       0       0       0       0       0       0       0       0       
      +0       0       0       0       0       0       0       0       0       0       0       0       0       0       0
  4617 ;;      Totals:         4       0       0       0       0       0       0       0       0       0       0       0       
      +0       0       0       0       0       0       0       0       0       0       0       0       0       0       0
  4618 ;;Total ram usage:        4 bytes
  4619 ;; Hardware stack levels used: 1
  4620 ;; Hardware stack levels required when called: 1
  4621 ;; This function calls:
  4622 ;;		Nothing
  4623 ;; This function is called by:
  4624 ;;		_ftoa
  4625 ;; This function uses a non-reentrant model
  4626 ;;
  4627                           
  4628     07F5                     ___flneg:	
  4629                           ;psect for function ___flneg
  4630                           
  4631     07F5                     l2399:	
  4632                           ;incstack = 0
  4633                           ; Regs used in ___flneg: [wreg]
  4634                           
  4635     07F5  0873               	movf	___flneg@f1+3,w
  4636     07F6  0472               	iorwf	___flneg@f1+2,w
  4637     07F7  0471               	iorwf	___flneg@f1+1,w
  4638     07F8  0470               	iorwf	___flneg@f1,w
  4639     07F9  1903               	skipnz
  4640     07FA  2FFC               	goto	u2861
  4641     07FB  2FFD               	goto	u2860
  4642     07FC                     u2861:
  4643     07FC  2FFF               	goto	l2403
  4644     07FD                     u2860:
  4645     07FD                     l2401:
  4646     07FD  3080               	movlw	128
  4647     07FE  06F3               	xorwf	___flneg@f1+3,f
  4648     07FF                     l2403:
  4649     07FF                     l578:
  4650     07FF  0008               	return
  4651     0800                     __end_of___flneg:
  4652                           
  4653                           	psect	text10
  4654     0E1A                     __ptext10:	
  4655 ;; *************** function _calibrate *****************
  4656 ;; Defined at:
  4657 ;;		line 89 in file "main.c"
  4658 ;; Parameters:    Size  Location     Type
  4659 ;;		None
  4660 ;; Auto vars:     Size  Location     Type
  4661 ;;  inductance_h    4    8[BANK1 ] float 
  4662 ;;  precomputed_    4    4[BANK1 ] float 
  4663 ;;  capacitance     4    0[BANK1 ] float 
  4664 ;;  frequency       4   18[BANK1 ] float 
  4665 ;;  count_end       2   24[BANK1 ] unsigned short 
  4666 ;;  count_start     2   22[BANK1 ] unsigned short 
  4667 ;;  total_counts    2   16[BANK1 ] unsigned short 
  4668 ;; Return value:  Size  Location     Type
  4669 ;;                  1    wreg      void 
  4670 ;; Registers used:
  4671 ;;		wreg, fsr0l, fsr0h, fsr1l, fsr1h, status,2, status,0, pclath, cstack
  4672 ;; Tracked objects:
  4673 ;;		On entry : 0/0
  4674 ;;		On exit  : 0/0
  4675 ;;		Unchanged: 0/0
  4676 ;; Data sizes:     COMMON   BANK0   BANK1   BANK2   BANK3   BANK4   BANK5   BANK6   BANK7   BANK8   BANK9  BANK10  BANK1
      +1  BANK12  BANK13  BANK14  BANK15  BANK16  BANK17  BANK18  BANK19  BANK20  BANK21  BANK22  BANK23  BANK24  BANK25
  4677 ;;      Params:         0       0       0       0       0       0       0       0       0       0       0       0       
      +0       0       0       0       0       0       0       0       0       0       0       0       0       0       0
  4678 ;;      Locals:         0       0      26       0       0       0       0       0       0       0       0       0       
      +0       0       0       0       0       0       0       0       0       0       0       0       0       0       0
  4679 ;;      Temps:          0       4       0       0       0       0       0       0       0       0       0       0       
      +0       0       0       0       0       0       0       0       0       0       0       0       0       0       0
  4680 ;;      Totals:         0       4      26       0       0       0       0       0       0       0       0       0       
      +0       0       0       0       0       0       0       0       0       0       0       0       0       0       0
  4681 ;;Total ram usage:       30 bytes
  4682 ;; Hardware stack levels used: 1
  4683 ;; Hardware stack levels required when called: 5
  4684 ;; This function calls:
  4685 ;;		_Lcd_Clear
  4686 ;;		_Lcd_Set_Cursor
  4687 ;;		_Lcd_Write_Integer
  4688 ;;		_Lcd_Write_String
  4689 ;;		_ReadTimer0WithOverflows
  4690 ;;		___fldiv
  4691 ;;		___flge
  4692 ;;		___flmul
  4693 ;;		___fltol
  4694 ;;		___xxtofl
  4695 ;; This function is called by:
  4696 ;;		_main
  4697 ;; This function uses a non-reentrant model
  4698 ;;
  4699                           
  4700     0E1A                     _calibrate:	
  4701                           ;psect for function _calibrate
  4702                           
  4703     0E1A                     l3347:	
  4704                           ;incstack = 0
  4705                           ; Regs used in _calibrate: [wreg-fsr1h+status,2+status,0+pclath+cstack]
  4706                           
  4707                           
  4708                           ;main.c: 90:     Lcd_Clear();
  4709     0E1A  3188  2002  318E   	fcall	_Lcd_Clear
  4710                           
  4711                           ;main.c: 91:     Lcd_Set_Cursor(1, 1);
  4712     0E1D  01F5               	clrf	Lcd_Set_Cursor@col
  4713     0E1E  0AF5               	incf	Lcd_Set_Cursor@col,f
  4714     0E1F  3001               	movlw	1
  4715     0E20  3197  27C5  318E   	fcall	_Lcd_Set_Cursor
  4716     0E23                     l3349:
  4717                           
  4718                           ;main.c: 92:     Lcd_Write_String("Calibrating...");
  4719     0E23  3022               	movlw	low (STR_2| (0+32768))
  4720     0E24  0020               	movlb	0	; select bank0
  4721     0E25  00AD               	movwf	Lcd_Write_String@str
  4722     0E26  3098               	movlw	high (STR_2| (0+32768))
  4723     0E27  00AE               	movwf	Lcd_Write_String@str+1
  4724     0E28  3197  2793  318E   	fcall	_Lcd_Write_String
  4725     0E2B                     l3351:
  4726                           
  4727                           ;main.c: 93:     _delay((unsigned long)((1500)*(32000000/4000.0)));
  4728     0E2B  303D               	movlw	61
  4729     0E2C  0020               	movlb	0	; select bank0
  4730     0E2D  00D5               	movwf	??_calibrate+1
  4731     0E2E  30E1               	movlw	225
  4732     0E2F  00D4               	movwf	??_calibrate
  4733     0E30  303F               	movlw	63
  4734     0E31                     u4427:
  4735     0E31  0B89               	decfsz	9,f
  4736     0E32  2E31               	goto	u4427
  4737     0E33  0BD4               	decfsz	??_calibrate,f
  4738     0E34  2E31               	goto	u4427
  4739     0E35  0BD5               	decfsz	??_calibrate+1,f
  4740     0E36  2E31               	goto	u4427
  4741     0E37  3200               	nop2
  4742     0E38                     l3353:
  4743                           
  4744                           ;main.c: 95:     uint16_t count_start = ReadTimer0WithOverflows();
  4745     0E38  3197  274F  318E   	fcall	_ReadTimer0WithOverflows
  4746     0E3B  0871               	movf	?_ReadTimer0WithOverflows+1,w
  4747     0E3C  0021               	movlb	1	; select bank1
  4748     0E3D  00B7               	movwf	(calibrate@count_start+1)^(0+128)
  4749     0E3E  0870               	movf	?_ReadTimer0WithOverflows,w
  4750     0E3F  00B6               	movwf	calibrate@count_start^(0+128)
  4751     0E40                     l3355:
  4752                           
  4753                           ;main.c: 96:     _delay((unsigned long)((1000)*(32000000/4000.0)));
  4754     0E40  3029               	movlw	41
  4755     0E41  0020               	movlb	0	; select bank0
  4756     0E42  00D5               	movwf	??_calibrate+1
  4757     0E43  3096               	movlw	150
  4758     0E44  00D4               	movwf	??_calibrate
  4759     0E45  307F               	movlw	127
  4760     0E46                     u4437:
  4761     0E46  0B89               	decfsz	9,f
  4762     0E47  2E46               	goto	u4437
  4763     0E48  0BD4               	decfsz	??_calibrate,f
  4764     0E49  2E46               	goto	u4437
  4765     0E4A  0BD5               	decfsz	??_calibrate+1,f
  4766     0E4B  2E46               	goto	u4437
  4767     0E4C                     l3357:
  4768                           
  4769                           ;main.c: 97:     uint16_t count_end = ReadTimer0WithOverflows();
  4770     0E4C  3197  274F  318E   	fcall	_ReadTimer0WithOverflows
  4771     0E4F  0871               	movf	?_ReadTimer0WithOverflows+1,w
  4772     0E50  0021               	movlb	1	; select bank1
  4773     0E51  00B9               	movwf	(calibrate@count_end+1)^(0+128)
  4774     0E52  0870               	movf	?_ReadTimer0WithOverflows,w
  4775     0E53  00B8               	movwf	calibrate@count_end^(0+128)
  4776     0E54                     l3359:
  4777                           
  4778                           ;main.c: 99:     uint16_t total_counts = (count_end >= count_start)
  4779     0E54  0837               	movf	(calibrate@count_start+1)^(0+128),w
  4780     0E55  0239               	subwf	(calibrate@count_end+1)^(0+128),w
  4781     0E56  1D03               	skipz
  4782     0E57  2E5A               	goto	u4165
  4783     0E58  0836               	movf	calibrate@count_start^(0+128),w
  4784     0E59  0238               	subwf	calibrate@count_end^(0+128),w
  4785     0E5A                     u4165:
  4786     0E5A  1803               	skipnc
  4787     0E5B  2E5D               	goto	u4161
  4788     0E5C  2E5E               	goto	u4160
  4789     0E5D                     u4161:
  4790     0E5D  2E78               	goto	l3363
  4791     0E5E                     u4160:
  4792     0E5E                     l3361:
  4793     0E5E  0869               	movf	_tmr0_overflows^(0+128),w	;volatile
  4794     0E5F  0020               	movlb	0	; select bank0
  4795     0E60  00D5               	movwf	??_calibrate+1
  4796     0E61  01D4               	clrf	??_calibrate
  4797     0E62  0021               	movlb	1	; select bank1
  4798     0E63  0836               	movf	calibrate@count_start^(0+128),w
  4799     0E64  0020               	movlb	0	; select bank0
  4800     0E65  0254               	subwf	??_calibrate,w
  4801     0E66  00D6               	movwf	??_calibrate+2
  4802     0E67  0021               	movlb	1	; select bank1
  4803     0E68  0837               	movf	(calibrate@count_start+1)^(0+128),w
  4804     0E69  0020               	movlb	0	; select bank0
  4805     0E6A  3B55               	subwfb	??_calibrate+1,w
  4806     0E6B  00D7               	movwf	??_calibrate+3
  4807     0E6C  0021               	movlb	1	; select bank1
  4808     0E6D  0838               	movf	calibrate@count_end^(0+128),w
  4809     0E6E  0020               	movlb	0	; select bank0
  4810     0E6F  0756               	addwf	??_calibrate+2,w
  4811     0E70  0021               	movlb	1	; select bank1
  4812     0E71  00B0               	movwf	calibrate@total_counts^(0+128)
  4813     0E72  0839               	movf	(calibrate@count_end+1)^(0+128),w
  4814     0E73  0020               	movlb	0	; select bank0
  4815     0E74  3D57               	addwfc	??_calibrate+3,w
  4816     0E75  0021               	movlb	1	; select bank1
  4817     0E76  00B1               	movwf	(calibrate@total_counts+1)^(0+128)
  4818     0E77  2E7E               	goto	l3365
  4819     0E78                     l3363:
  4820     0E78  0836               	movf	calibrate@count_start^(0+128),w
  4821     0E79  0238               	subwf	calibrate@count_end^(0+128),w
  4822     0E7A  00B0               	movwf	calibrate@total_counts^(0+128)
  4823     0E7B  0837               	movf	(calibrate@count_start+1)^(0+128),w
  4824     0E7C  3B39               	subwfb	(calibrate@count_end+1)^(0+128),w
  4825     0E7D  00B1               	movwf	(calibrate@total_counts+1)^(0+128)
  4826     0E7E                     l3365:
  4827                           
  4828                           ;main.c: 102:     tmr0_overflows = 0;
  4829     0E7E  01E9               	clrf	_tmr0_overflows^(0+128)	;volatile
  4830     0E7F  01EA               	clrf	(_tmr0_overflows+1)^(0+128)	;volatile
  4831     0E80                     l3367:
  4832                           
  4833                           ;main.c: 104:     float frequency = ((float)total_counts * 16) / 1.0;
  4834     0E80  303F               	movlw	63
  4835     0E81  0020               	movlb	0	; select bank0
  4836     0E82  00BD               	movwf	___fldiv@a+3
  4837     0E83  3080               	movlw	128
  4838     0E84  00BC               	movwf	___fldiv@a+2
  4839     0E85  3000               	movlw	0
  4840     0E86  00BB               	movwf	___fldiv@a+1
  4841     0E87  3000               	movlw	0
  4842     0E88  00BA               	movwf	___fldiv@a
  4843     0E89  3041               	movlw	65
  4844     0E8A  00A3               	movwf	___flmul@b+3
  4845     0E8B  3080               	movlw	128
  4846     0E8C  00A2               	movwf	___flmul@b+2
  4847     0E8D  3000               	movlw	0
  4848     0E8E  00A1               	movwf	___flmul@b+1
  4849     0E8F  3000               	movlw	0
  4850     0E90  00A0               	movwf	___flmul@b
  4851     0E91  0021               	movlb	1	; select bank1
  4852     0E92  0830               	movf	calibrate@total_counts^(0+128),w
  4853     0E93  00F0               	movwf	___xxtofl@val
  4854     0E94  0831               	movf	(calibrate@total_counts+1)^(0+128),w
  4855     0E95  00F1               	movwf	___xxtofl@val+1
  4856     0E96  01F2               	clrf	___xxtofl@val+2
  4857     0E97  01F3               	clrf	___xxtofl@val+3
  4858     0E98  3000               	movlw	0
  4859     0E99  318B  23C6  318E   	fcall	___xxtofl
  4860     0E9C  0873               	movf	?___xxtofl+3,w
  4861     0E9D  0020               	movlb	0	; select bank0
  4862     0E9E  00A7               	movwf	___flmul@a+3
  4863     0E9F  0872               	movf	?___xxtofl+2,w
  4864     0EA0  00A6               	movwf	___flmul@a+2
  4865     0EA1  0871               	movf	?___xxtofl+1,w
  4866     0EA2  00A5               	movwf	___flmul@a+1
  4867     0EA3  0870               	movf	?___xxtofl,w
  4868     0EA4  00A4               	movwf	___flmul@a
  4869     0EA5  3180  2047  318E   	fcall	___flmul
  4870     0EA8  0020               	movlb	0	; select bank0
  4871     0EA9  0823               	movf	?___flmul+3,w
  4872     0EAA  00C1               	movwf	___fldiv@b+3
  4873     0EAB  0822               	movf	?___flmul+2,w
  4874     0EAC  00C0               	movwf	___fldiv@b+2
  4875     0EAD  0821               	movf	?___flmul+1,w
  4876     0EAE  00BF               	movwf	___fldiv@b+1
  4877     0EAF  0820               	movf	?___flmul,w
  4878     0EB0  00BE               	movwf	___fldiv@b
  4879     0EB1  318C  2470  318E   	fcall	___fldiv
  4880     0EB4  0020               	movlb	0	; select bank0
  4881     0EB5  083D               	movf	?___fldiv+3,w
  4882     0EB6  0021               	movlb	1	; select bank1
  4883     0EB7  00B5               	movwf	(calibrate@frequency+3)^(0+128)
  4884     0EB8  0020               	movlb	0	; select bank0
  4885     0EB9  083C               	movf	?___fldiv+2,w
  4886     0EBA  0021               	movlb	1	; select bank1
  4887     0EBB  00B4               	movwf	(calibrate@frequency+2)^(0+128)
  4888     0EBC  0020               	movlb	0	; select bank0
  4889     0EBD  083B               	movf	?___fldiv+1,w
  4890     0EBE  0021               	movlb	1	; select bank1
  4891     0EBF  00B3               	movwf	(calibrate@frequency+1)^(0+128)
  4892     0EC0  0020               	movlb	0	; select bank0
  4893     0EC1  083A               	movf	?___fldiv,w
  4894     0EC2  0021               	movlb	1	; select bank1
  4895     0EC3  00B2               	movwf	calibrate@frequency^(0+128)
  4896     0EC4                     l3369:
  4897                           
  4898                           ;main.c: 106:     if (frequency > 0) {
  4899     0EC4  3000               	movlw	0
  4900     0EC5  00F3               	movwf	___flge@ff1+3
  4901     0EC6  3000               	movlw	0
  4902     0EC7  00F2               	movwf	___flge@ff1+2
  4903     0EC8  3000               	movlw	0
  4904     0EC9  00F1               	movwf	___flge@ff1+1
  4905     0ECA  3000               	movlw	0
  4906     0ECB  00F0               	movwf	___flge@ff1
  4907     0ECC  0835               	movf	(calibrate@frequency+3)^(0+128),w
  4908     0ECD  00F7               	movwf	___flge@ff2+3
  4909     0ECE  0834               	movf	(calibrate@frequency+2)^(0+128),w
  4910     0ECF  00F6               	movwf	___flge@ff2+2
  4911     0ED0  0833               	movf	(calibrate@frequency+1)^(0+128),w
  4912     0ED1  00F5               	movwf	___flge@ff2+1
  4913     0ED2  0832               	movf	calibrate@frequency^(0+128),w
  4914     0ED3  00F4               	movwf	___flge@ff2
  4915     0ED4  318A  2201  318E   	fcall	___flge
  4916     0ED7  1803               	btfsc	3,0
  4917     0ED8  2EDA               	goto	u4171
  4918     0ED9  2EDB               	goto	u4170
  4919     0EDA                     u4171:
  4920     0EDA  2FF3               	goto	l3397
  4921     0EDB                     u4170:
  4922     0EDB                     l3371:
  4923                           
  4924                           ;main.c: 107:         float capacitance = 100e-9;
  4925     0EDB  3033               	movlw	51
  4926     0EDC  0021               	movlb	1	; select bank1
  4927     0EDD  00A3               	movwf	(calibrate@capacitance+3)^(0+128)
  4928     0EDE  30D6               	movlw	214
  4929     0EDF  00A2               	movwf	(calibrate@capacitance+2)^(0+128)
  4930     0EE0  30BF               	movlw	191
  4931     0EE1  00A1               	movwf	(calibrate@capacitance+1)^(0+128)
  4932     0EE2  3095               	movlw	149
  4933     0EE3  00A0               	movwf	calibrate@capacitance^(0+128)
  4934     0EE4                     l3373:
  4935                           
  4936                           ;main.c: 108:         float precomputed_constant = 4 * 3.14159 * 3.14159 * capacitance;
  4937     0EE4  3042               	movlw	66
  4938     0EE5  0020               	movlb	0	; select bank0
  4939     0EE6  00A3               	movwf	___flmul@b+3
  4940     0EE7  301D               	movlw	29
  4941     0EE8  00A2               	movwf	___flmul@b+2
  4942     0EE9  30E9               	movlw	233
  4943     0EEA  00A1               	movwf	___flmul@b+1
  4944     0EEB  30D5               	movlw	213
  4945     0EEC  00A0               	movwf	___flmul@b
  4946     0EED  0021               	movlb	1	; select bank1
  4947     0EEE  0823               	movf	(calibrate@capacitance+3)^(0+128),w
  4948     0EEF  0020               	movlb	0	; select bank0
  4949     0EF0  00A7               	movwf	___flmul@a+3
  4950     0EF1  0021               	movlb	1	; select bank1
  4951     0EF2  0822               	movf	(calibrate@capacitance+2)^(0+128),w
  4952     0EF3  0020               	movlb	0	; select bank0
  4953     0EF4  00A6               	movwf	___flmul@a+2
  4954     0EF5  0021               	movlb	1	; select bank1
  4955     0EF6  0821               	movf	(calibrate@capacitance+1)^(0+128),w
  4956     0EF7  0020               	movlb	0	; select bank0
  4957     0EF8  00A5               	movwf	___flmul@a+1
  4958     0EF9  0021               	movlb	1	; select bank1
  4959     0EFA  0820               	movf	calibrate@capacitance^(0+128),w
  4960     0EFB  0020               	movlb	0	; select bank0
  4961     0EFC  00A4               	movwf	___flmul@a
  4962     0EFD  3180  2047  318E   	fcall	___flmul
  4963     0F00  0020               	movlb	0	; select bank0
  4964     0F01  0823               	movf	?___flmul+3,w
  4965     0F02  0021               	movlb	1	; select bank1
  4966     0F03  00A7               	movwf	(calibrate@precomputed_constant+3)^(0+128)
  4967     0F04  0020               	movlb	0	; select bank0
  4968     0F05  0822               	movf	?___flmul+2,w
  4969     0F06  0021               	movlb	1	; select bank1
  4970     0F07  00A6               	movwf	(calibrate@precomputed_constant+2)^(0+128)
  4971     0F08  0020               	movlb	0	; select bank0
  4972     0F09  0821               	movf	?___flmul+1,w
  4973     0F0A  0021               	movlb	1	; select bank1
  4974     0F0B  00A5               	movwf	(calibrate@precomputed_constant+1)^(0+128)
  4975     0F0C  0020               	movlb	0	; select bank0
  4976     0F0D  0820               	movf	?___flmul,w
  4977     0F0E  0021               	movlb	1	; select bank1
  4978     0F0F  00A4               	movwf	calibrate@precomputed_constant^(0+128)
  4979     0F10                     l3375:
  4980                           
  4981                           ;main.c: 109:         float inductance_h = 1.0 / (precomputed_constant * frequency * fre
      +                          quency);
  4982     0F10  0835               	movf	(calibrate@frequency+3)^(0+128),w
  4983     0F11  0020               	movlb	0	; select bank0
  4984     0F12  00A3               	movwf	___flmul@b+3
  4985     0F13  0021               	movlb	1	; select bank1
  4986     0F14  0834               	movf	(calibrate@frequency+2)^(0+128),w
  4987     0F15  0020               	movlb	0	; select bank0
  4988     0F16  00A2               	movwf	___flmul@b+2
  4989     0F17  0021               	movlb	1	; select bank1
  4990     0F18  0833               	movf	(calibrate@frequency+1)^(0+128),w
  4991     0F19  0020               	movlb	0	; select bank0
  4992     0F1A  00A1               	movwf	___flmul@b+1
  4993     0F1B  0021               	movlb	1	; select bank1
  4994     0F1C  0832               	movf	calibrate@frequency^(0+128),w
  4995     0F1D  0020               	movlb	0	; select bank0
  4996     0F1E  00A0               	movwf	___flmul@b
  4997     0F1F  0021               	movlb	1	; select bank1
  4998     0F20  0827               	movf	(calibrate@precomputed_constant+3)^(0+128),w
  4999     0F21  0020               	movlb	0	; select bank0
  5000     0F22  00A7               	movwf	___flmul@a+3
  5001     0F23  0021               	movlb	1	; select bank1
  5002     0F24  0826               	movf	(calibrate@precomputed_constant+2)^(0+128),w
  5003     0F25  0020               	movlb	0	; select bank0
  5004     0F26  00A6               	movwf	___flmul@a+2
  5005     0F27  0021               	movlb	1	; select bank1
  5006     0F28  0825               	movf	(calibrate@precomputed_constant+1)^(0+128),w
  5007     0F29  0020               	movlb	0	; select bank0
  5008     0F2A  00A5               	movwf	___flmul@a+1
  5009     0F2B  0021               	movlb	1	; select bank1
  5010     0F2C  0824               	movf	calibrate@precomputed_constant^(0+128),w
  5011     0F2D  0020               	movlb	0	; select bank0
  5012     0F2E  00A4               	movwf	___flmul@a
  5013     0F2F  3180  2047  318E   	fcall	___flmul
  5014     0F32  0020               	movlb	0	; select bank0
  5015     0F33  0823               	movf	?___flmul+3,w
  5016     0F34  0021               	movlb	1	; select bank1
  5017     0F35  00AF               	movwf	(_calibrate$1134+3)^(0+128)
  5018     0F36  0020               	movlb	0	; select bank0
  5019     0F37  0822               	movf	?___flmul+2,w
  5020     0F38  0021               	movlb	1	; select bank1
  5021     0F39  00AE               	movwf	(_calibrate$1134+2)^(0+128)
  5022     0F3A  0020               	movlb	0	; select bank0
  5023     0F3B  0821               	movf	?___flmul+1,w
  5024     0F3C  0021               	movlb	1	; select bank1
  5025     0F3D  00AD               	movwf	(_calibrate$1134+1)^(0+128)
  5026     0F3E  0020               	movlb	0	; select bank0
  5027     0F3F  0820               	movf	?___flmul,w
  5028     0F40  0021               	movlb	1	; select bank1
  5029     0F41  00AC               	movwf	_calibrate$1134^(0+128)
  5030     0F42                     l3377:
  5031                           
  5032                           ;main.c: 109:         float inductance_h = 1.0 / (precomputed_constant * frequency * fre
      +                          quency);
  5033     0F42  0835               	movf	(calibrate@frequency+3)^(0+128),w
  5034     0F43  0020               	movlb	0	; select bank0
  5035     0F44  00A3               	movwf	___flmul@b+3
  5036     0F45  0021               	movlb	1	; select bank1
  5037     0F46  0834               	movf	(calibrate@frequency+2)^(0+128),w
  5038     0F47  0020               	movlb	0	; select bank0
  5039     0F48  00A2               	movwf	___flmul@b+2
  5040     0F49  0021               	movlb	1	; select bank1
  5041     0F4A  0833               	movf	(calibrate@frequency+1)^(0+128),w
  5042     0F4B  0020               	movlb	0	; select bank0
  5043     0F4C  00A1               	movwf	___flmul@b+1
  5044     0F4D  0021               	movlb	1	; select bank1
  5045     0F4E  0832               	movf	calibrate@frequency^(0+128),w
  5046     0F4F  0020               	movlb	0	; select bank0
  5047     0F50  00A0               	movwf	___flmul@b
  5048     0F51  0021               	movlb	1	; select bank1
  5049     0F52  082F               	movf	(_calibrate$1134+3)^(0+128),w
  5050     0F53  0020               	movlb	0	; select bank0
  5051     0F54  00A7               	movwf	___flmul@a+3
  5052     0F55  0021               	movlb	1	; select bank1
  5053     0F56  082E               	movf	(_calibrate$1134+2)^(0+128),w
  5054     0F57  0020               	movlb	0	; select bank0
  5055     0F58  00A6               	movwf	___flmul@a+2
  5056     0F59  0021               	movlb	1	; select bank1
  5057     0F5A  082D               	movf	(_calibrate$1134+1)^(0+128),w
  5058     0F5B  0020               	movlb	0	; select bank0
  5059     0F5C  00A5               	movwf	___flmul@a+1
  5060     0F5D  0021               	movlb	1	; select bank1
  5061     0F5E  082C               	movf	_calibrate$1134^(0+128),w
  5062     0F5F  0020               	movlb	0	; select bank0
  5063     0F60  00A4               	movwf	___flmul@a
  5064     0F61  3180  2047  318E   	fcall	___flmul
  5065     0F64  0020               	movlb	0	; select bank0
  5066     0F65  0823               	movf	?___flmul+3,w
  5067     0F66  00BD               	movwf	___fldiv@a+3
  5068     0F67  0822               	movf	?___flmul+2,w
  5069     0F68  00BC               	movwf	___fldiv@a+2
  5070     0F69  0821               	movf	?___flmul+1,w
  5071     0F6A  00BB               	movwf	___fldiv@a+1
  5072     0F6B  0820               	movf	?___flmul,w
  5073     0F6C  00BA               	movwf	___fldiv@a
  5074     0F6D  303F               	movlw	63
  5075     0F6E  00C1               	movwf	___fldiv@b+3
  5076     0F6F  3080               	movlw	128
  5077     0F70  00C0               	movwf	___fldiv@b+2
  5078     0F71  3000               	movlw	0
  5079     0F72  00BF               	movwf	___fldiv@b+1
  5080     0F73  3000               	movlw	0
  5081     0F74  00BE               	movwf	___fldiv@b
  5082     0F75  318C  2470  318E   	fcall	___fldiv
  5083     0F78  0020               	movlb	0	; select bank0
  5084     0F79  083D               	movf	?___fldiv+3,w
  5085     0F7A  0021               	movlb	1	; select bank1
  5086     0F7B  00AB               	movwf	(calibrate@inductance_h+3)^(0+128)
  5087     0F7C  0020               	movlb	0	; select bank0
  5088     0F7D  083C               	movf	?___fldiv+2,w
  5089     0F7E  0021               	movlb	1	; select bank1
  5090     0F7F  00AA               	movwf	(calibrate@inductance_h+2)^(0+128)
  5091     0F80  0020               	movlb	0	; select bank0
  5092     0F81  083B               	movf	?___fldiv+1,w
  5093     0F82  0021               	movlb	1	; select bank1
  5094     0F83  00A9               	movwf	(calibrate@inductance_h+1)^(0+128)
  5095     0F84  0020               	movlb	0	; select bank0
  5096     0F85  083A               	movf	?___fldiv,w
  5097     0F86  0021               	movlb	1	; select bank1
  5098     0F87  00A8               	movwf	calibrate@inductance_h^(0+128)
  5099     0F88                     l3379:
  5100                           
  5101                           ;main.c: 110:         calibration_value = (uint8_t)(inductance_h * 1e6);
  5102     0F88  082B               	movf	(calibrate@inductance_h+3)^(0+128),w
  5103     0F89  0020               	movlb	0	; select bank0
  5104     0F8A  00A7               	movwf	___flmul@a+3
  5105     0F8B  0021               	movlb	1	; select bank1
  5106     0F8C  082A               	movf	(calibrate@inductance_h+2)^(0+128),w
  5107     0F8D  0020               	movlb	0	; select bank0
  5108     0F8E  00A6               	movwf	___flmul@a+2
  5109     0F8F  0021               	movlb	1	; select bank1
  5110     0F90  0829               	movf	(calibrate@inductance_h+1)^(0+128),w
  5111     0F91  0020               	movlb	0	; select bank0
  5112     0F92  00A5               	movwf	___flmul@a+1
  5113     0F93  0021               	movlb	1	; select bank1
  5114     0F94  0828               	movf	calibrate@inductance_h^(0+128),w
  5115     0F95  0020               	movlb	0	; select bank0
  5116     0F96  00A4               	movwf	___flmul@a
  5117     0F97  3049               	movlw	73
  5118     0F98  00A3               	movwf	___flmul@b+3
  5119     0F99  3074               	movlw	116
  5120     0F9A  00A2               	movwf	___flmul@b+2
  5121     0F9B  3024               	movlw	36
  5122     0F9C  00A1               	movwf	___flmul@b+1
  5123     0F9D  3000               	movlw	0
  5124     0F9E  00A0               	movwf	___flmul@b
  5125     0F9F  3180  2047  318E   	fcall	___flmul
  5126     0FA2  0020               	movlb	0	; select bank0
  5127     0FA3  0823               	movf	?___flmul+3,w
  5128     0FA4  00BD               	movwf	___fltol@f1+3
  5129     0FA5  0822               	movf	?___flmul+2,w
  5130     0FA6  00BC               	movwf	___fltol@f1+2
  5131     0FA7  0821               	movf	?___flmul+1,w
  5132     0FA8  00BB               	movwf	___fltol@f1+1
  5133     0FA9  0820               	movf	?___flmul,w
  5134     0FAA  00BA               	movwf	___fltol@f1
  5135     0FAB  3189  2190  318E   	fcall	___fltol
  5136     0FAE  0020               	movlb	0	; select bank0
  5137     0FAF  083A               	movf	?___fltol,w
  5138     0FB0  0021               	movlb	1	; select bank1
  5139     0FB1  00E8               	movwf	_calibration_value^(0+128)
  5140     0FB2                     l3381:
  5141                           
  5142                           ;main.c: 112:         Lcd_Clear();
  5143     0FB2  3188  2002  318E   	fcall	_Lcd_Clear
  5144     0FB5                     l3383:
  5145                           
  5146                           ;main.c: 113:         Lcd_Set_Cursor(1, 1);
  5147     0FB5  01F5               	clrf	Lcd_Set_Cursor@col
  5148     0FB6  0AF5               	incf	Lcd_Set_Cursor@col,f
  5149     0FB7  3001               	movlw	1
  5150     0FB8  3197  27C5  318E   	fcall	_Lcd_Set_Cursor
  5151     0FBB                     l3385:
  5152                           
  5153                           ;main.c: 114:         Lcd_Write_String("Cal Done");
  5154     0FBB  3052               	movlw	low (STR_3| (0+32768))
  5155     0FBC  0020               	movlb	0	; select bank0
  5156     0FBD  00AD               	movwf	Lcd_Write_String@str
  5157     0FBE  3098               	movlw	high (STR_3| (0+32768))
  5158     0FBF  00AE               	movwf	Lcd_Write_String@str+1
  5159     0FC0  3197  2793  318E   	fcall	_Lcd_Write_String
  5160     0FC3                     l3387:
  5161                           
  5162                           ;main.c: 115:         Lcd_Set_Cursor(2, 1);
  5163     0FC3  01F5               	clrf	Lcd_Set_Cursor@col
  5164     0FC4  0AF5               	incf	Lcd_Set_Cursor@col,f
  5165     0FC5  3002               	movlw	2
  5166     0FC6  3197  27C5  318E   	fcall	_Lcd_Set_Cursor
  5167     0FC9                     l3389:
  5168                           
  5169                           ;main.c: 116:         Lcd_Write_String("Offset:");
  5170     0FC9  3063               	movlw	low (STR_4| (0+32768))
  5171     0FCA  0020               	movlb	0	; select bank0
  5172     0FCB  00AD               	movwf	Lcd_Write_String@str
  5173     0FCC  3098               	movlw	high (STR_4| (0+32768))
  5174     0FCD  00AE               	movwf	Lcd_Write_String@str+1
  5175     0FCE  3197  2793  318E   	fcall	_Lcd_Write_String
  5176     0FD1                     l3391:
  5177                           
  5178                           ;main.c: 117:         Lcd_Write_Integer(calibration_value);
  5179     0FD1  0021               	movlb	1	; select bank1
  5180     0FD2  0868               	movf	_calibration_value^(0+128),w
  5181     0FD3  0020               	movlb	0	; select bank0
  5182     0FD4  00D4               	movwf	??_calibrate
  5183     0FD5  01D5               	clrf	??_calibrate+1
  5184     0FD6  0854               	movf	??_calibrate,w
  5185     0FD7  00C4               	movwf	Lcd_Write_Integer@v
  5186     0FD8  0855               	movf	??_calibrate+1,w
  5187     0FD9  00C5               	movwf	Lcd_Write_Integer@v+1
  5188     0FDA  3197  27AC  318E   	fcall	_Lcd_Write_Integer
  5189     0FDD                     l3393:
  5190                           
  5191                           ;main.c: 118:         Lcd_Write_String("uH");
  5192     0FDD  3087               	movlw	low (STR_5| (0+32768))
  5193     0FDE  0020               	movlb	0	; select bank0
  5194     0FDF  00AD               	movwf	Lcd_Write_String@str
  5195     0FE0  3098               	movlw	high (STR_5| (0+32768))
  5196     0FE1  00AE               	movwf	Lcd_Write_String@str+1
  5197     0FE2  3197  2793  318E   	fcall	_Lcd_Write_String
  5198     0FE5                     l3395:
  5199                           
  5200                           ;main.c: 119:         _delay((unsigned long)((2000)*(32000000/4000.0)));
  5201     0FE5  3052               	movlw	82
  5202     0FE6  0020               	movlb	0	; select bank0
  5203     0FE7  00D5               	movwf	??_calibrate+1
  5204     0FE8  302B               	movlw	43
  5205     0FE9  00D4               	movwf	??_calibrate
  5206     0FEA  3000               	movlw	0
  5207     0FEB                     u4447:
  5208     0FEB  0B89               	decfsz	9,f
  5209     0FEC  2FEB               	goto	u4447
  5210     0FED  0BD4               	decfsz	??_calibrate,f
  5211     0FEE  2FEB               	goto	u4447
  5212     0FEF  0BD5               	decfsz	??_calibrate+1,f
  5213     0FF0  2FEB               	goto	u4447
  5214     0FF1  0000               	nop
  5215                           
  5216                           ;main.c: 120:     } else {
  5217     0FF2  2FFF               	goto	l59
  5218     0FF3                     l3397:
  5219                           
  5220                           ;main.c: 121:         Lcd_Clear();
  5221     0FF3  3188  2002  318E   	fcall	_Lcd_Clear
  5222     0FF6                     l3399:
  5223                           
  5224                           ;main.c: 122:         Lcd_Write_String("Cal Error");
  5225     0FF6  303F               	movlw	low (STR_6| (0+32768))
  5226     0FF7  0020               	movlb	0	; select bank0
  5227     0FF8  00AD               	movwf	Lcd_Write_String@str
  5228     0FF9  3098               	movlw	high (STR_6| (0+32768))
  5229     0FFA  00AE               	movwf	Lcd_Write_String@str+1
  5230     0FFB  3197  2793  318E   	fcall	_Lcd_Write_String
  5231     0FFE  2FE5               	goto	l3395
  5232     0FFF                     l59:
  5233     0FFF  0008               	return
  5234     1000                     __end_of_calibrate:
  5235                           
  5236                           	psect	text11
  5237     0BC6                     __ptext11:	
  5238 ;; *************** function ___xxtofl *****************
  5239 ;; Defined at:
  5240 ;;		line 10 in file "C:\Program Files\Microchip\xc8\v2.46\pic\sources\c99\common\xxtofl.c"
  5241 ;; Parameters:    Size  Location     Type
  5242 ;;  sign            1    wreg     unsigned char 
  5243 ;;  val             4    0[COMMON] long 
  5244 ;; Auto vars:     Size  Location     Type
  5245 ;;  sign            1    8[COMMON] unsigned char 
  5246 ;;  arg             4   10[COMMON] unsigned long 
  5247 ;;  exp             1    9[COMMON] unsigned char 
  5248 ;; Return value:  Size  Location     Type
  5249 ;;                  4    0[COMMON] unsigned char 
  5250 ;; Registers used:
  5251 ;;		wreg, status,2, status,0
  5252 ;; Tracked objects:
  5253 ;;		On entry : 0/0
  5254 ;;		On exit  : 0/0
  5255 ;;		Unchanged: 0/0
  5256 ;; Data sizes:     COMMON   BANK0   BANK1   BANK2   BANK3   BANK4   BANK5   BANK6   BANK7   BANK8   BANK9  BANK10  BANK1
      +1  BANK12  BANK13  BANK14  BANK15  BANK16  BANK17  BANK18  BANK19  BANK20  BANK21  BANK22  BANK23  BANK24  BANK25
  5257 ;;      Params:         4       0       0       0       0       0       0       0       0       0       0       0       
      +0       0       0       0       0       0       0       0       0       0       0       0       0       0       0
  5258 ;;      Locals:         6       0       0       0       0       0       0       0       0       0       0       0       
      +0       0       0       0       0       0       0       0       0       0       0       0       0       0       0
  5259 ;;      Temps:          4       0       0       0       0       0       0       0       0       0       0       0       
      +0       0       0       0       0       0       0       0       0       0       0       0       0       0       0
  5260 ;;      Totals:        14       0       0       0       0       0       0       0       0       0       0       0       
      +0       0       0       0       0       0       0       0       0       0       0       0       0       0       0
  5261 ;;Total ram usage:       14 bytes
  5262 ;; Hardware stack levels used: 1
  5263 ;; Hardware stack levels required when called: 1
  5264 ;; This function calls:
  5265 ;;		Nothing
  5266 ;; This function is called by:
  5267 ;;		_calibrate
  5268 ;;		_main
  5269 ;;		_ftoa
  5270 ;; This function uses a non-reentrant model
  5271 ;;
  5272                           
  5273     0BC6                     ___xxtofl:	
  5274                           ;psect for function ___xxtofl
  5275                           
  5276                           
  5277                           ;incstack = 0
  5278                           ; Regs used in ___xxtofl: [wreg+status,2+status,0]
  5279                           ;___xxtofl@sign stored from wreg
  5280     0BC6  00F8               	movwf	___xxtofl@sign
  5281     0BC7                     l2589:
  5282     0BC7  0878               	movf	___xxtofl@sign,w
  5283     0BC8  1903               	btfsc	3,2
  5284     0BC9  2BCB               	goto	u3231
  5285     0BCA  2BCC               	goto	u3230
  5286     0BCB                     u3231:
  5287     0BCB  2BE0               	goto	l2595
  5288     0BCC                     u3230:
  5289     0BCC                     l2591:
  5290     0BCC  1FF3               	btfss	___xxtofl@val+3,7
  5291     0BCD  2BCF               	goto	u3241
  5292     0BCE  2BD0               	goto	u3240
  5293     0BCF                     u3241:
  5294     0BCF  2BE0               	goto	l2595
  5295     0BD0                     u3240:
  5296     0BD0                     l2593:
  5297     0BD0  0970               	comf	___xxtofl@val,w
  5298     0BD1  00FA               	movwf	___xxtofl@arg
  5299     0BD2  0971               	comf	___xxtofl@val+1,w
  5300     0BD3  00FB               	movwf	___xxtofl@arg+1
  5301     0BD4  0972               	comf	___xxtofl@val+2,w
  5302     0BD5  00FC               	movwf	___xxtofl@arg+2
  5303     0BD6  0973               	comf	___xxtofl@val+3,w
  5304     0BD7  00FD               	movwf	___xxtofl@arg+3
  5305     0BD8  0AFA               	incf	___xxtofl@arg,f
  5306     0BD9  1903               	skipnz
  5307     0BDA  0AFB               	incf	___xxtofl@arg+1,f
  5308     0BDB  1903               	skipnz
  5309     0BDC  0AFC               	incf	___xxtofl@arg+2,f
  5310     0BDD  1903               	skipnz
  5311     0BDE  0AFD               	incf	___xxtofl@arg+3,f
  5312     0BDF  2BE8               	goto	l829
  5313     0BE0                     l2595:
  5314     0BE0  0873               	movf	___xxtofl@val+3,w
  5315     0BE1  00FD               	movwf	___xxtofl@arg+3
  5316     0BE2  0872               	movf	___xxtofl@val+2,w
  5317     0BE3  00FC               	movwf	___xxtofl@arg+2
  5318     0BE4  0871               	movf	___xxtofl@val+1,w
  5319     0BE5  00FB               	movwf	___xxtofl@arg+1
  5320     0BE6  0870               	movf	___xxtofl@val,w
  5321     0BE7  00FA               	movwf	___xxtofl@arg
  5322     0BE8                     l829:
  5323     0BE8  0873               	movf	___xxtofl@val+3,w
  5324     0BE9  0472               	iorwf	___xxtofl@val+2,w
  5325     0BEA  0471               	iorwf	___xxtofl@val+1,w
  5326     0BEB  0470               	iorwf	___xxtofl@val,w
  5327     0BEC  1D03               	skipz
  5328     0BED  2BEF               	goto	u3251
  5329     0BEE  2BF0               	goto	u3250
  5330     0BEF                     u3251:
  5331     0BEF  2BF9               	goto	l2601
  5332     0BF0                     u3250:
  5333     0BF0                     l2597:
  5334     0BF0  3000               	movlw	0
  5335     0BF1  00F3               	movwf	?___xxtofl+3
  5336     0BF2  3000               	movlw	0
  5337     0BF3  00F2               	movwf	?___xxtofl+2
  5338     0BF4  3000               	movlw	0
  5339     0BF5  00F1               	movwf	?___xxtofl+1
  5340     0BF6  3000               	movlw	0
  5341     0BF7  00F0               	movwf	?___xxtofl
  5342     0BF8  2C6F               	goto	l831
  5343     0BF9                     l2601:
  5344     0BF9  3096               	movlw	150
  5345     0BFA  00F9               	movwf	___xxtofl@exp
  5346     0BFB  2C07               	goto	l2605
  5347     0BFC                     l2603:
  5348     0BFC  3001               	movlw	1
  5349     0BFD  00F4               	movwf	??___xxtofl
  5350     0BFE  0874               	movf	??___xxtofl,w
  5351     0BFF  07F9               	addwf	___xxtofl@exp,f
  5352     0C00  3001               	movlw	1
  5353     0C01                     u3265:
  5354     0C01  36FD               	lsrf	___xxtofl@arg+3,f
  5355     0C02  0CFC               	rrf	___xxtofl@arg+2,f
  5356     0C03  0CFB               	rrf	___xxtofl@arg+1,f
  5357     0C04  0CFA               	rrf	___xxtofl@arg,f
  5358     0C05  0B89               	decfsz	9,f
  5359     0C06  2C01               	goto	u3265
  5360     0C07                     l2605:
  5361     0C07  30FE               	movlw	254
  5362     0C08  057D               	andwf	___xxtofl@arg+3,w
  5363     0C09  1D03               	btfss	3,2
  5364     0C0A  2C0C               	goto	u3271
  5365     0C0B  2C0D               	goto	u3270
  5366     0C0C                     u3271:
  5367     0C0C  2BFC               	goto	l2603
  5368     0C0D                     u3270:
  5369     0C0D  2C21               	goto	l835
  5370     0C0E                     l2607:
  5371     0C0E  3001               	movlw	1
  5372     0C0F  00F4               	movwf	??___xxtofl
  5373     0C10  0874               	movf	??___xxtofl,w
  5374     0C11  07F9               	addwf	___xxtofl@exp,f
  5375     0C12                     l2609:
  5376     0C12  3001               	movlw	1
  5377     0C13  07FA               	addwf	___xxtofl@arg,f
  5378     0C14  3000               	movlw	0
  5379     0C15  3DFB               	addwfc	___xxtofl@arg+1,f
  5380     0C16  3000               	movlw	0
  5381     0C17  3DFC               	addwfc	___xxtofl@arg+2,f
  5382     0C18  3000               	movlw	0
  5383     0C19  3DFD               	addwfc	___xxtofl@arg+3,f
  5384     0C1A                     l2611:
  5385     0C1A  3001               	movlw	1
  5386     0C1B                     u3285:
  5387     0C1B  36FD               	lsrf	___xxtofl@arg+3,f
  5388     0C1C  0CFC               	rrf	___xxtofl@arg+2,f
  5389     0C1D  0CFB               	rrf	___xxtofl@arg+1,f
  5390     0C1E  0CFA               	rrf	___xxtofl@arg,f
  5391     0C1F  0B89               	decfsz	9,f
  5392     0C20  2C1B               	goto	u3285
  5393     0C21                     l835:
  5394     0C21  30FF               	movlw	255
  5395     0C22  057D               	andwf	___xxtofl@arg+3,w
  5396     0C23  1D03               	btfss	3,2
  5397     0C24  2C26               	goto	u3291
  5398     0C25  2C27               	goto	u3290
  5399     0C26                     u3291:
  5400     0C26  2C0E               	goto	l2607
  5401     0C27                     u3290:
  5402     0C27  2C31               	goto	l2615
  5403     0C28                     l2613:
  5404     0C28  3001               	movlw	1
  5405     0C29  02F9               	subwf	___xxtofl@exp,f
  5406     0C2A  3001               	movlw	1
  5407     0C2B                     u3305:
  5408     0C2B  35FA               	lslf	___xxtofl@arg,f
  5409     0C2C  0DFB               	rlf	___xxtofl@arg+1,f
  5410     0C2D  0DFC               	rlf	___xxtofl@arg+2,f
  5411     0C2E  0DFD               	rlf	___xxtofl@arg+3,f
  5412     0C2F  0B89               	decfsz	9,f
  5413     0C30  2C2B               	goto	u3305
  5414     0C31                     l2615:
  5415     0C31  1BFC               	btfsc	___xxtofl@arg+2,7
  5416     0C32  2C34               	goto	u3311
  5417     0C33  2C35               	goto	u3310
  5418     0C34                     u3311:
  5419     0C34  2C3B               	goto	l842
  5420     0C35                     u3310:
  5421     0C35                     l2617:
  5422     0C35  3002               	movlw	2
  5423     0C36  0279               	subwf	___xxtofl@exp,w
  5424     0C37  1803               	skipnc
  5425     0C38  2C3A               	goto	u3321
  5426     0C39  2C3B               	goto	u3320
  5427     0C3A                     u3321:
  5428     0C3A  2C28               	goto	l2613
  5429     0C3B                     u3320:
  5430     0C3B                     l842:
  5431     0C3B  1879               	btfsc	___xxtofl@exp,0
  5432     0C3C  2C3E               	goto	u3331
  5433     0C3D  2C3F               	goto	u3330
  5434     0C3E                     u3331:
  5435     0C3E  2C47               	goto	l843
  5436     0C3F                     u3330:
  5437     0C3F                     l2619:
  5438     0C3F  30FF               	movlw	255
  5439     0C40  05FA               	andwf	___xxtofl@arg,f
  5440     0C41  30FF               	movlw	255
  5441     0C42  05FB               	andwf	___xxtofl@arg+1,f
  5442     0C43  307F               	movlw	127
  5443     0C44  05FC               	andwf	___xxtofl@arg+2,f
  5444     0C45  30FF               	movlw	255
  5445     0C46  05FD               	andwf	___xxtofl@arg+3,f
  5446     0C47                     l843:
  5447     0C47  1003               	clrc
  5448     0C48  0CF9               	rrf	___xxtofl@exp,f
  5449     0C49                     l2621:
  5450     0C49  0879               	movf	___xxtofl@exp,w
  5451     0C4A  00F4               	movwf	??___xxtofl
  5452     0C4B  01F5               	clrf	??___xxtofl+1
  5453     0C4C  01F6               	clrf	??___xxtofl+2
  5454     0C4D  01F7               	clrf	??___xxtofl+3
  5455     0C4E  3018               	movlw	24
  5456     0C4F                     u3345:
  5457     0C4F  35F4               	lslf	??___xxtofl,f
  5458     0C50  0DF5               	rlf	??___xxtofl+1,f
  5459     0C51  0DF6               	rlf	??___xxtofl+2,f
  5460     0C52  0DF7               	rlf	??___xxtofl+3,f
  5461     0C53                     u3340:
  5462     0C53  0B89               	decfsz	9,f
  5463     0C54  2C4F               	goto	u3345
  5464     0C55  0874               	movf	??___xxtofl,w
  5465     0C56  04FA               	iorwf	___xxtofl@arg,f
  5466     0C57  0875               	movf	??___xxtofl+1,w
  5467     0C58  04FB               	iorwf	___xxtofl@arg+1,f
  5468     0C59  0876               	movf	??___xxtofl+2,w
  5469     0C5A  04FC               	iorwf	___xxtofl@arg+2,f
  5470     0C5B  0877               	movf	??___xxtofl+3,w
  5471     0C5C  04FD               	iorwf	___xxtofl@arg+3,f
  5472     0C5D                     l2623:
  5473     0C5D  0878               	movf	___xxtofl@sign,w
  5474     0C5E  1903               	btfsc	3,2
  5475     0C5F  2C61               	goto	u3351
  5476     0C60  2C62               	goto	u3350
  5477     0C61                     u3351:
  5478     0C61  2C67               	goto	l2629
  5479     0C62                     u3350:
  5480     0C62                     l2625:
  5481     0C62  1FF3               	btfss	___xxtofl@val+3,7
  5482     0C63  2C65               	goto	u3361
  5483     0C64  2C66               	goto	u3360
  5484     0C65                     u3361:
  5485     0C65  2C67               	goto	l2629
  5486     0C66                     u3360:
  5487     0C66                     l2627:
  5488     0C66  17FD               	bsf	___xxtofl@arg+3,7
  5489     0C67                     l2629:
  5490     0C67  087D               	movf	___xxtofl@arg+3,w
  5491     0C68  00F3               	movwf	?___xxtofl+3
  5492     0C69  087C               	movf	___xxtofl@arg+2,w
  5493     0C6A  00F2               	movwf	?___xxtofl+2
  5494     0C6B  087B               	movf	___xxtofl@arg+1,w
  5495     0C6C  00F1               	movwf	?___xxtofl+1
  5496     0C6D  087A               	movf	___xxtofl@arg,w
  5497     0C6E  00F0               	movwf	?___xxtofl
  5498     0C6F                     l831:
  5499     0C6F  0008               	return
  5500     0C70                     __end_of___xxtofl:
  5501                           
  5502                           	psect	text12
  5503     0990                     __ptext12:	
  5504 ;; *************** function ___fltol *****************
  5505 ;; Defined at:
  5506 ;;		line 43 in file "C:\Program Files\Microchip\xc8\v2.46\pic\sources\c99\common\fltol.c"
  5507 ;; Parameters:    Size  Location     Type
  5508 ;;  f1              4   26[BANK0 ] unsigned char 
  5509 ;; Auto vars:     Size  Location     Type
  5510 ;;  exp1            1   35[BANK0 ] unsigned char 
  5511 ;;  sign1           1   34[BANK0 ] unsigned char 
  5512 ;; Return value:  Size  Location     Type
  5513 ;;                  4   26[BANK0 ] long 
  5514 ;; Registers used:
  5515 ;;		wreg, status,2, status,0
  5516 ;; Tracked objects:
  5517 ;;		On entry : 0/0
  5518 ;;		On exit  : 0/0
  5519 ;;		Unchanged: 0/0
  5520 ;; Data sizes:     COMMON   BANK0   BANK1   BANK2   BANK3   BANK4   BANK5   BANK6   BANK7   BANK8   BANK9  BANK10  BANK1
      +1  BANK12  BANK13  BANK14  BANK15  BANK16  BANK17  BANK18  BANK19  BANK20  BANK21  BANK22  BANK23  BANK24  BANK25
  5521 ;;      Params:         0       4       0       0       0       0       0       0       0       0       0       0       
      +0       0       0       0       0       0       0       0       0       0       0       0       0       0       0
  5522 ;;      Locals:         0       2       0       0       0       0       0       0       0       0       0       0       
      +0       0       0       0       0       0       0       0       0       0       0       0       0       0       0
  5523 ;;      Temps:          0       4       0       0       0       0       0       0       0       0       0       0       
      +0       0       0       0       0       0       0       0       0       0       0       0       0       0       0
  5524 ;;      Totals:         0      10       0       0       0       0       0       0       0       0       0       0       
      +0       0       0       0       0       0       0       0       0       0       0       0       0       0       0
  5525 ;;Total ram usage:       10 bytes
  5526 ;; Hardware stack levels used: 1
  5527 ;; Hardware stack levels required when called: 1
  5528 ;; This function calls:
  5529 ;;		Nothing
  5530 ;; This function is called by:
  5531 ;;		_calibrate
  5532 ;;		_displayResults
  5533 ;;		_ftoa
  5534 ;; This function uses a non-reentrant model
  5535 ;;
  5536                           
  5537     0990                     ___fltol:	
  5538                           ;psect for function ___fltol
  5539                           
  5540     0990                     l2407:	
  5541                           ;incstack = 0
  5542                           ; Regs used in ___fltol: [wreg+status,2+status,0]
  5543                           
  5544     0990  1003               	clrc
  5545     0991  0020               	movlb	0	; select bank0
  5546     0992  0D3C               	rlf	___fltol@f1+2,w
  5547     0993  0D3D               	rlf	___fltol@f1+3,w
  5548     0994  00C3               	movwf	___fltol@exp1
  5549     0995  0843               	movf	___fltol@exp1,w
  5550     0996  1D03               	btfss	3,2
  5551     0997  2999               	goto	u2871
  5552     0998  299A               	goto	u2870
  5553     0999                     u2871:
  5554     0999  29A3               	goto	l2413
  5555     099A                     u2870:
  5556     099A                     l2409:
  5557     099A  3000               	movlw	0
  5558     099B  00BD               	movwf	?___fltol+3
  5559     099C  3000               	movlw	0
  5560     099D  00BC               	movwf	?___fltol+2
  5561     099E  3000               	movlw	0
  5562     099F  00BB               	movwf	?___fltol+1
  5563     09A0  3000               	movlw	0
  5564     09A1  00BA               	movwf	?___fltol
  5565     09A2  2A00               	goto	l582
  5566     09A3                     l2413:
  5567     09A3  083A               	movf	___fltol@f1,w
  5568     09A4  00BE               	movwf	??___fltol
  5569     09A5  083B               	movf	___fltol@f1+1,w
  5570     09A6  00BF               	movwf	??___fltol+1
  5571     09A7  083C               	movf	___fltol@f1+2,w
  5572     09A8  00C0               	movwf	??___fltol+2
  5573     09A9  083D               	movf	___fltol@f1+3,w
  5574     09AA  00C1               	movwf	??___fltol+3
  5575     09AB  301F               	movlw	31
  5576     09AC                     u2885:
  5577     09AC  36C1               	lsrf	??___fltol+3,f
  5578     09AD  0CC0               	rrf	??___fltol+2,f
  5579     09AE  0CBF               	rrf	??___fltol+1,f
  5580     09AF  0CBE               	rrf	??___fltol,f
  5581     09B0                     u2880:
  5582     09B0  0B89               	decfsz	9,f
  5583     09B1  29AC               	goto	u2885
  5584     09B2  083E               	movf	??___fltol,w
  5585     09B3  00C2               	movwf	___fltol@sign1
  5586     09B4                     l2415:
  5587     09B4  17BC               	bsf	___fltol@f1+2,7
  5588     09B5                     l2417:
  5589     09B5  30FF               	movlw	255
  5590     09B6  05BA               	andwf	___fltol@f1,f
  5591     09B7  30FF               	movlw	255
  5592     09B8  05BB               	andwf	___fltol@f1+1,f
  5593     09B9  30FF               	movlw	255
  5594     09BA  05BC               	andwf	___fltol@f1+2,f
  5595     09BB  3000               	movlw	0
  5596     09BC  05BD               	andwf	___fltol@f1+3,f
  5597     09BD                     l2419:
  5598     09BD  3096               	movlw	150
  5599     09BE  02C3               	subwf	___fltol@exp1,f
  5600     09BF                     l2421:
  5601     09BF  1FC3               	btfss	___fltol@exp1,7
  5602     09C0  29C2               	goto	u2891
  5603     09C1  29C3               	goto	u2890
  5604     09C2                     u2891:
  5605     09C2  29DB               	goto	l2431
  5606     09C3                     u2890:
  5607     09C3                     l2423:
  5608     09C3  0843               	movf	___fltol@exp1,w
  5609     09C4  3A80               	xorlw	128
  5610     09C5  3E97               	addlw	151
  5611     09C6  1803               	skipnc
  5612     09C7  29C9               	goto	u2901
  5613     09C8  29CA               	goto	u2900
  5614     09C9                     u2901:
  5615     09C9  29CB               	goto	l2429
  5616     09CA                     u2900:
  5617     09CA  299A               	goto	l2409
  5618     09CB                     l2429:
  5619     09CB  3001               	movlw	1
  5620     09CC                     u2915:
  5621     09CC  36BD               	lsrf	___fltol@f1+3,f
  5622     09CD  0CBC               	rrf	___fltol@f1+2,f
  5623     09CE  0CBB               	rrf	___fltol@f1+1,f
  5624     09CF  0CBA               	rrf	___fltol@f1,f
  5625     09D0  0B89               	decfsz	9,f
  5626     09D1  29CC               	goto	u2915
  5627     09D2  3001               	movlw	1
  5628     09D3  00BE               	movwf	??___fltol
  5629     09D4  083E               	movf	??___fltol,w
  5630     09D5  07C3               	addwf	___fltol@exp1,f
  5631     09D6  1D03               	btfss	3,2
  5632     09D7  29D9               	goto	u2921
  5633     09D8  29DA               	goto	u2920
  5634     09D9                     u2921:
  5635     09D9  29CB               	goto	l2429
  5636     09DA                     u2920:
  5637     09DA  29F0               	goto	l2439
  5638     09DB                     l2431:
  5639     09DB  3020               	movlw	32
  5640     09DC  0243               	subwf	___fltol@exp1,w
  5641     09DD  1C03               	skipc
  5642     09DE  29E0               	goto	u2931
  5643     09DF  29E1               	goto	u2930
  5644     09E0                     u2931:
  5645     09E0  29EB               	goto	l589
  5646     09E1                     u2930:
  5647     09E1  299A               	goto	l2409
  5648     09E2                     l2437:
  5649     09E2  3001               	movlw	1
  5650     09E3                     u2945:
  5651     09E3  35BA               	lslf	___fltol@f1,f
  5652     09E4  0DBB               	rlf	___fltol@f1+1,f
  5653     09E5  0DBC               	rlf	___fltol@f1+2,f
  5654     09E6  0DBD               	rlf	___fltol@f1+3,f
  5655     09E7  0B89               	decfsz	9,f
  5656     09E8  29E3               	goto	u2945
  5657     09E9  3001               	movlw	1
  5658     09EA  02C3               	subwf	___fltol@exp1,f
  5659     09EB                     l589:
  5660     09EB  0843               	movf	___fltol@exp1,w
  5661     09EC  1D03               	btfss	3,2
  5662     09ED  29EF               	goto	u2951
  5663     09EE  29F0               	goto	u2950
  5664     09EF                     u2951:
  5665     09EF  29E2               	goto	l2437
  5666     09F0                     u2950:
  5667     09F0                     l2439:
  5668     09F0  0842               	movf	___fltol@sign1,w
  5669     09F1  1903               	btfsc	3,2
  5670     09F2  29F4               	goto	u2961
  5671     09F3  29F5               	goto	u2960
  5672     09F4                     u2961:
  5673     09F4  2A00               	goto	l592
  5674     09F5                     u2960:
  5675     09F5                     l2441:
  5676     09F5  09BA               	comf	___fltol@f1,f
  5677     09F6  09BB               	comf	___fltol@f1+1,f
  5678     09F7  09BC               	comf	___fltol@f1+2,f
  5679     09F8  09BD               	comf	___fltol@f1+3,f
  5680     09F9  0ABA               	incf	___fltol@f1,f
  5681     09FA  1903               	skipnz
  5682     09FB  0ABB               	incf	___fltol@f1+1,f
  5683     09FC  1903               	skipnz
  5684     09FD  0ABC               	incf	___fltol@f1+2,f
  5685     09FE  1903               	skipnz
  5686     09FF  0ABD               	incf	___fltol@f1+3,f
  5687     0A00                     l592:
  5688     0A00                     l582:
  5689     0A00  0008               	return
  5690     0A01                     __end_of___fltol:
  5691                           
  5692                           	psect	text13
  5693     0047                     __ptext13:	
  5694 ;; *************** function ___flmul *****************
  5695 ;; Defined at:
  5696 ;;		line 8 in file "C:\Program Files\Microchip\xc8\v2.46\pic\sources\c99\common\sprcmul.c"
  5697 ;; Parameters:    Size  Location     Type
  5698 ;;  b               4    0[BANK0 ] long 
  5699 ;;  a               4    4[BANK0 ] long 
  5700 ;; Auto vars:     Size  Location     Type
  5701 ;;  prod            4   20[BANK0 ] struct .
  5702 ;;  grs             4   14[BANK0 ] unsigned long 
  5703 ;;  temp            2   24[BANK0 ] struct .
  5704 ;;  bexp            1   19[BANK0 ] unsigned char 
  5705 ;;  aexp            1   18[BANK0 ] unsigned char 
  5706 ;;  sign            1   13[BANK0 ] unsigned char 
  5707 ;; Return value:  Size  Location     Type
  5708 ;;                  4    0[BANK0 ] unsigned char 
  5709 ;; Registers used:
  5710 ;;		wreg, status,2, status,0, pclath, cstack
  5711 ;; Tracked objects:
  5712 ;;		On entry : 0/0
  5713 ;;		On exit  : 0/0
  5714 ;;		Unchanged: 0/0
  5715 ;; Data sizes:     COMMON   BANK0   BANK1   BANK2   BANK3   BANK4   BANK5   BANK6   BANK7   BANK8   BANK9  BANK10  BANK1
      +1  BANK12  BANK13  BANK14  BANK15  BANK16  BANK17  BANK18  BANK19  BANK20  BANK21  BANK22  BANK23  BANK24  BANK25
  5716 ;;      Params:         0       8       0       0       0       0       0       0       0       0       0       0       
      +0       0       0       0       0       0       0       0       0       0       0       0       0       0       0
  5717 ;;      Locals:         0      13       0       0       0       0       0       0       0       0       0       0       
      +0       0       0       0       0       0       0       0       0       0       0       0       0       0       0
  5718 ;;      Temps:          0       5       0       0       0       0       0       0       0       0       0       0       
      +0       0       0       0       0       0       0       0       0       0       0       0       0       0       0
  5719 ;;      Totals:         0      26       0       0       0       0       0       0       0       0       0       0       
      +0       0       0       0       0       0       0       0       0       0       0       0       0       0       0
  5720 ;;Total ram usage:       26 bytes
  5721 ;; Hardware stack levels used: 1
  5722 ;; Hardware stack levels required when called: 2
  5723 ;; This function calls:
  5724 ;;		__Umul8_16
  5725 ;; This function is called by:
  5726 ;;		_calibrate
  5727 ;;		_main
  5728 ;;		_ftoa
  5729 ;; This function uses a non-reentrant model
  5730 ;;
  5731                           
  5732     0047                     ___flmul:	
  5733                           ;psect for function ___flmul
  5734                           
  5735     0047                     l2449:	
  5736                           ;incstack = 0
  5737                           ; Regs used in ___flmul: [wreg+status,2+status,0+pclath+cstack]
  5738                           
  5739     0047  0020               	movlb	0	; select bank0
  5740     0048  0823               	movf	___flmul@b+3,w
  5741     0049  3980               	andlw	128
  5742     004A  00AD               	movwf	___flmul@sign
  5743     004B                     l2451:
  5744     004B  3523               	lslf	___flmul@b+3,w
  5745     004C  00B3               	movwf	___flmul@bexp
  5746     004D                     l2453:
  5747     004D  1FA2               	btfss	___flmul@b+2,7
  5748     004E  2850               	goto	u2971
  5749     004F  2851               	goto	u2970
  5750     0050                     u2971:
  5751     0050  2852               	goto	l2457
  5752     0051                     u2970:
  5753     0051                     l2455:
  5754     0051  1433               	bsf	___flmul@bexp,0
  5755     0052                     l2457:
  5756     0052  0833               	movf	___flmul@bexp,w
  5757     0053  1903               	btfsc	3,2
  5758     0054  2856               	goto	u2981
  5759     0055  2857               	goto	u2980
  5760     0056                     u2981:
  5761     0056  2866               	goto	l2465
  5762     0057                     u2980:
  5763     0057                     l2459:
  5764     0057  0A33               	incf	___flmul@bexp,w
  5765     0058  1D03               	btfss	3,2
  5766     0059  285B               	goto	u2991
  5767     005A  285C               	goto	u2990
  5768     005B                     u2991:
  5769     005B  2864               	goto	l2463
  5770     005C                     u2990:
  5771     005C                     l2461:
  5772     005C  3000               	movlw	0
  5773     005D  00A3               	movwf	___flmul@b+3
  5774     005E  3000               	movlw	0
  5775     005F  00A2               	movwf	___flmul@b+2
  5776     0060  3000               	movlw	0
  5777     0061  00A1               	movwf	___flmul@b+1
  5778     0062  3000               	movlw	0
  5779     0063  00A0               	movwf	___flmul@b
  5780     0064                     l2463:
  5781     0064  17A2               	bsf	___flmul@b+2,7
  5782     0065  286E               	goto	l2467
  5783     0066                     l2465:
  5784     0066  3000               	movlw	0
  5785     0067  00A3               	movwf	___flmul@b+3
  5786     0068  3000               	movlw	0
  5787     0069  00A2               	movwf	___flmul@b+2
  5788     006A  3000               	movlw	0
  5789     006B  00A1               	movwf	___flmul@b+1
  5790     006C  3000               	movlw	0
  5791     006D  00A0               	movwf	___flmul@b
  5792     006E                     l2467:
  5793     006E  0827               	movf	___flmul@a+3,w
  5794     006F  3980               	andlw	128
  5795     0070  00A8               	movwf	??___flmul
  5796     0071  0828               	movf	??___flmul,w
  5797     0072  06AD               	xorwf	___flmul@sign,f
  5798     0073                     l2469:
  5799     0073  3527               	lslf	___flmul@a+3,w
  5800     0074  00B2               	movwf	___flmul@aexp
  5801     0075                     l2471:
  5802     0075  1FA6               	btfss	___flmul@a+2,7
  5803     0076  2878               	goto	u3001
  5804     0077  2879               	goto	u3000
  5805     0078                     u3001:
  5806     0078  287A               	goto	l2475
  5807     0079                     u3000:
  5808     0079                     l2473:
  5809     0079  1432               	bsf	___flmul@aexp,0
  5810     007A                     l2475:
  5811     007A  0832               	movf	___flmul@aexp,w
  5812     007B  1903               	btfsc	3,2
  5813     007C  287E               	goto	u3011
  5814     007D  287F               	goto	u3010
  5815     007E                     u3011:
  5816     007E  288E               	goto	l2483
  5817     007F                     u3010:
  5818     007F                     l2477:
  5819     007F  0A32               	incf	___flmul@aexp,w
  5820     0080  1D03               	btfss	3,2
  5821     0081  2883               	goto	u3021
  5822     0082  2884               	goto	u3020
  5823     0083                     u3021:
  5824     0083  288C               	goto	l2481
  5825     0084                     u3020:
  5826     0084                     l2479:
  5827     0084  3000               	movlw	0
  5828     0085  00A7               	movwf	___flmul@a+3
  5829     0086  3000               	movlw	0
  5830     0087  00A6               	movwf	___flmul@a+2
  5831     0088  3000               	movlw	0
  5832     0089  00A5               	movwf	___flmul@a+1
  5833     008A  3000               	movlw	0
  5834     008B  00A4               	movwf	___flmul@a
  5835     008C                     l2481:
  5836     008C  17A6               	bsf	___flmul@a+2,7
  5837     008D  2896               	goto	l2485
  5838     008E                     l2483:
  5839     008E  3000               	movlw	0
  5840     008F  00A7               	movwf	___flmul@a+3
  5841     0090  3000               	movlw	0
  5842     0091  00A6               	movwf	___flmul@a+2
  5843     0092  3000               	movlw	0
  5844     0093  00A5               	movwf	___flmul@a+1
  5845     0094  3000               	movlw	0
  5846     0095  00A4               	movwf	___flmul@a
  5847     0096                     l2485:
  5848     0096  0832               	movf	___flmul@aexp,w
  5849     0097  1903               	btfsc	3,2
  5850     0098  289A               	goto	u3031
  5851     0099  289B               	goto	u3030
  5852     009A                     u3031:
  5853     009A  28A0               	goto	l2489
  5854     009B                     u3030:
  5855     009B                     l2487:
  5856     009B  0833               	movf	___flmul@bexp,w
  5857     009C  1D03               	btfss	3,2
  5858     009D  289F               	goto	u3041
  5859     009E  28A0               	goto	u3040
  5860     009F                     u3041:
  5861     009F  28A9               	goto	l2493
  5862     00A0                     u3040:
  5863     00A0                     l2489:
  5864     00A0  3000               	movlw	0
  5865     00A1  00A3               	movwf	?___flmul+3
  5866     00A2  3000               	movlw	0
  5867     00A3  00A2               	movwf	?___flmul+2
  5868     00A4  3000               	movlw	0
  5869     00A5  00A1               	movwf	?___flmul+1
  5870     00A6  3000               	movlw	0
  5871     00A7  00A0               	movwf	?___flmul
  5872     00A8  2A81               	goto	l785
  5873     00A9                     l2493:
  5874     00A9  0820               	movf	___flmul@b,w
  5875     00AA  00F0               	movwf	__Umul8_16@multiplicand
  5876     00AB  0826               	movf	___flmul@a+2,w
  5877     00AC  3187  27D2  3180   	fcall	__Umul8_16
  5878     00AF  0871               	movf	?__Umul8_16+1,w
  5879     00B0  0020               	movlb	0	; select bank0
  5880     00B1  00B9               	movwf	___flmul@temp+1
  5881     00B2  0870               	movf	?__Umul8_16,w
  5882     00B3  00B8               	movwf	___flmul@temp
  5883     00B4                     l2495:
  5884     00B4  0838               	movf	___flmul@temp,w
  5885     00B5  00A8               	movwf	??___flmul
  5886     00B6  01A9               	clrf	??___flmul+1
  5887     00B7  01AA               	clrf	??___flmul+2
  5888     00B8  01AB               	clrf	??___flmul+3
  5889     00B9  082B               	movf	??___flmul+3,w
  5890     00BA  00B1               	movwf	___flmul@grs+3
  5891     00BB  082A               	movf	??___flmul+2,w
  5892     00BC  00B0               	movwf	___flmul@grs+2
  5893     00BD  0829               	movf	??___flmul+1,w
  5894     00BE  00AF               	movwf	___flmul@grs+1
  5895     00BF  0828               	movf	??___flmul,w
  5896     00C0  00AE               	movwf	___flmul@grs
  5897     00C1                     l2497:
  5898     00C1  0839               	movf	___flmul@temp+1,w
  5899     00C2  00A8               	movwf	??___flmul
  5900     00C3  01A9               	clrf	??___flmul+1
  5901     00C4  01AA               	clrf	??___flmul+2
  5902     00C5  01AB               	clrf	??___flmul+3
  5903     00C6  082B               	movf	??___flmul+3,w
  5904     00C7  00B7               	movwf	___flmul@prod+3
  5905     00C8  082A               	movf	??___flmul+2,w
  5906     00C9  00B6               	movwf	___flmul@prod+2
  5907     00CA  0829               	movf	??___flmul+1,w
  5908     00CB  00B5               	movwf	___flmul@prod+1
  5909     00CC  0828               	movf	??___flmul,w
  5910     00CD  00B4               	movwf	___flmul@prod
  5911     00CE  0821               	movf	___flmul@b+1,w
  5912     00CF  00F0               	movwf	__Umul8_16@multiplicand
  5913     00D0  0825               	movf	___flmul@a+1,w
  5914     00D1  3187  27D2  3180   	fcall	__Umul8_16
  5915     00D4  0871               	movf	?__Umul8_16+1,w
  5916     00D5  0020               	movlb	0	; select bank0
  5917     00D6  00B9               	movwf	___flmul@temp+1
  5918     00D7  0870               	movf	?__Umul8_16,w
  5919     00D8  00B8               	movwf	___flmul@temp
  5920     00D9                     l2499:
  5921     00D9  0838               	movf	___flmul@temp,w
  5922     00DA  00A8               	movwf	??___flmul
  5923     00DB  01A9               	clrf	??___flmul+1
  5924     00DC  01AA               	clrf	??___flmul+2
  5925     00DD  01AB               	clrf	??___flmul+3
  5926     00DE  0828               	movf	??___flmul,w
  5927     00DF  07AE               	addwf	___flmul@grs,f
  5928     00E0  0829               	movf	??___flmul+1,w
  5929     00E1  3DAF               	addwfc	___flmul@grs+1,f
  5930     00E2  082A               	movf	??___flmul+2,w
  5931     00E3  3DB0               	addwfc	___flmul@grs+2,f
  5932     00E4  082B               	movf	??___flmul+3,w
  5933     00E5  3DB1               	addwfc	___flmul@grs+3,f
  5934     00E6                     l2501:
  5935     00E6  0839               	movf	___flmul@temp+1,w
  5936     00E7  00A8               	movwf	??___flmul
  5937     00E8  01A9               	clrf	??___flmul+1
  5938     00E9  01AA               	clrf	??___flmul+2
  5939     00EA  01AB               	clrf	??___flmul+3
  5940     00EB  0828               	movf	??___flmul,w
  5941     00EC  07B4               	addwf	___flmul@prod,f
  5942     00ED  0829               	movf	??___flmul+1,w
  5943     00EE  3DB5               	addwfc	___flmul@prod+1,f
  5944     00EF  082A               	movf	??___flmul+2,w
  5945     00F0  3DB6               	addwfc	___flmul@prod+2,f
  5946     00F1  082B               	movf	??___flmul+3,w
  5947     00F2  3DB7               	addwfc	___flmul@prod+3,f
  5948     00F3  0822               	movf	___flmul@b+2,w
  5949     00F4  00F0               	movwf	__Umul8_16@multiplicand
  5950     00F5  0824               	movf	___flmul@a,w
  5951     00F6  3187  27D2  3180   	fcall	__Umul8_16
  5952     00F9  0871               	movf	?__Umul8_16+1,w
  5953     00FA  0020               	movlb	0	; select bank0
  5954     00FB  00B9               	movwf	___flmul@temp+1
  5955     00FC  0870               	movf	?__Umul8_16,w
  5956     00FD  00B8               	movwf	___flmul@temp
  5957     00FE                     l2503:
  5958     00FE  0838               	movf	___flmul@temp,w
  5959     00FF  00A8               	movwf	??___flmul
  5960     0100  01A9               	clrf	??___flmul+1
  5961     0101  01AA               	clrf	??___flmul+2
  5962     0102  01AB               	clrf	??___flmul+3
  5963     0103  0828               	movf	??___flmul,w
  5964     0104  07AE               	addwf	___flmul@grs,f
  5965     0105  0829               	movf	??___flmul+1,w
  5966     0106  3DAF               	addwfc	___flmul@grs+1,f
  5967     0107  082A               	movf	??___flmul+2,w
  5968     0108  3DB0               	addwfc	___flmul@grs+2,f
  5969     0109  082B               	movf	??___flmul+3,w
  5970     010A  3DB1               	addwfc	___flmul@grs+3,f
  5971     010B                     l2505:
  5972     010B  0839               	movf	___flmul@temp+1,w
  5973     010C  00A8               	movwf	??___flmul
  5974     010D  01A9               	clrf	??___flmul+1
  5975     010E  01AA               	clrf	??___flmul+2
  5976     010F  01AB               	clrf	??___flmul+3
  5977     0110  0828               	movf	??___flmul,w
  5978     0111  07B4               	addwf	___flmul@prod,f
  5979     0112  0829               	movf	??___flmul+1,w
  5980     0113  3DB5               	addwfc	___flmul@prod+1,f
  5981     0114  082A               	movf	??___flmul+2,w
  5982     0115  3DB6               	addwfc	___flmul@prod+2,f
  5983     0116  082B               	movf	??___flmul+3,w
  5984     0117  3DB7               	addwfc	___flmul@prod+3,f
  5985     0118                     l2507:
  5986     0118  3008               	movlw	8
  5987     0119                     u3055:
  5988     0119  35AE               	lslf	___flmul@grs,f
  5989     011A  0DAF               	rlf	___flmul@grs+1,f
  5990     011B  0DB0               	rlf	___flmul@grs+2,f
  5991     011C  0DB1               	rlf	___flmul@grs+3,f
  5992     011D  0B89               	decfsz	9,f
  5993     011E  2919               	goto	u3055
  5994     011F                     l2509:
  5995     011F  0821               	movf	___flmul@b+1,w
  5996     0120  00F0               	movwf	__Umul8_16@multiplicand
  5997     0121  0824               	movf	___flmul@a,w
  5998     0122  3187  27D2  3180   	fcall	__Umul8_16
  5999     0125  0871               	movf	?__Umul8_16+1,w
  6000     0126  0020               	movlb	0	; select bank0
  6001     0127  00B9               	movwf	___flmul@temp+1
  6002     0128  0870               	movf	?__Umul8_16,w
  6003     0129  00B8               	movwf	___flmul@temp
  6004     012A                     l2511:
  6005     012A  0838               	movf	___flmul@temp,w
  6006     012B  07AE               	addwf	___flmul@grs,f
  6007     012C  0839               	movf	___flmul@temp+1,w
  6008     012D  3DAF               	addwfc	___flmul@grs+1,f
  6009     012E  3000               	movlw	0
  6010     012F  3DB0               	addwfc	___flmul@grs+2,f
  6011     0130  3DB1               	addwfc	___flmul@grs+3,f
  6012     0131                     l2513:
  6013     0131  0820               	movf	___flmul@b,w
  6014     0132  00F0               	movwf	__Umul8_16@multiplicand
  6015     0133  0825               	movf	___flmul@a+1,w
  6016     0134  3187  27D2  3180   	fcall	__Umul8_16
  6017     0137  0871               	movf	?__Umul8_16+1,w
  6018     0138  0020               	movlb	0	; select bank0
  6019     0139  00B9               	movwf	___flmul@temp+1
  6020     013A  0870               	movf	?__Umul8_16,w
  6021     013B  00B8               	movwf	___flmul@temp
  6022     013C                     l2515:
  6023     013C  0838               	movf	___flmul@temp,w
  6024     013D  07AE               	addwf	___flmul@grs,f
  6025     013E  0839               	movf	___flmul@temp+1,w
  6026     013F  3DAF               	addwfc	___flmul@grs+1,f
  6027     0140  3000               	movlw	0
  6028     0141  3DB0               	addwfc	___flmul@grs+2,f
  6029     0142  3DB1               	addwfc	___flmul@grs+3,f
  6030     0143                     l2517:
  6031     0143  3008               	movlw	8
  6032     0144                     u3065:
  6033     0144  35AE               	lslf	___flmul@grs,f
  6034     0145  0DAF               	rlf	___flmul@grs+1,f
  6035     0146  0DB0               	rlf	___flmul@grs+2,f
  6036     0147  0DB1               	rlf	___flmul@grs+3,f
  6037     0148  0B89               	decfsz	9,f
  6038     0149  2944               	goto	u3065
  6039     014A  0820               	movf	___flmul@b,w
  6040     014B  00F0               	movwf	__Umul8_16@multiplicand
  6041     014C  0824               	movf	___flmul@a,w
  6042     014D  3187  27D2  3180   	fcall	__Umul8_16
  6043     0150  0871               	movf	?__Umul8_16+1,w
  6044     0151  0020               	movlb	0	; select bank0
  6045     0152  00B9               	movwf	___flmul@temp+1
  6046     0153  0870               	movf	?__Umul8_16,w
  6047     0154  00B8               	movwf	___flmul@temp
  6048     0155                     l2519:
  6049     0155  0838               	movf	___flmul@temp,w
  6050     0156  07AE               	addwf	___flmul@grs,f
  6051     0157  0839               	movf	___flmul@temp+1,w
  6052     0158  3DAF               	addwfc	___flmul@grs+1,f
  6053     0159  3000               	movlw	0
  6054     015A  3DB0               	addwfc	___flmul@grs+2,f
  6055     015B  3DB1               	addwfc	___flmul@grs+3,f
  6056     015C                     l2521:
  6057     015C  0821               	movf	___flmul@b+1,w
  6058     015D  00F0               	movwf	__Umul8_16@multiplicand
  6059     015E  0826               	movf	___flmul@a+2,w
  6060     015F  3187  27D2  3180   	fcall	__Umul8_16
  6061     0162  0871               	movf	?__Umul8_16+1,w
  6062     0163  0020               	movlb	0	; select bank0
  6063     0164  00B9               	movwf	___flmul@temp+1
  6064     0165  0870               	movf	?__Umul8_16,w
  6065     0166  00B8               	movwf	___flmul@temp
  6066     0167  0838               	movf	___flmul@temp,w
  6067     0168  07B4               	addwf	___flmul@prod,f
  6068     0169  0839               	movf	___flmul@temp+1,w
  6069     016A  3DB5               	addwfc	___flmul@prod+1,f
  6070     016B  3000               	movlw	0
  6071     016C  3DB6               	addwfc	___flmul@prod+2,f
  6072     016D  3DB7               	addwfc	___flmul@prod+3,f
  6073     016E                     l2523:
  6074     016E  0822               	movf	___flmul@b+2,w
  6075     016F  00F0               	movwf	__Umul8_16@multiplicand
  6076     0170  0825               	movf	___flmul@a+1,w
  6077     0171  3187  27D2  3180   	fcall	__Umul8_16
  6078     0174  0871               	movf	?__Umul8_16+1,w
  6079     0175  0020               	movlb	0	; select bank0
  6080     0176  00B9               	movwf	___flmul@temp+1
  6081     0177  0870               	movf	?__Umul8_16,w
  6082     0178  00B8               	movwf	___flmul@temp
  6083     0179                     l2525:
  6084     0179  0838               	movf	___flmul@temp,w
  6085     017A  07B4               	addwf	___flmul@prod,f
  6086     017B  0839               	movf	___flmul@temp+1,w
  6087     017C  3DB5               	addwfc	___flmul@prod+1,f
  6088     017D  3000               	movlw	0
  6089     017E  3DB6               	addwfc	___flmul@prod+2,f
  6090     017F  3DB7               	addwfc	___flmul@prod+3,f
  6091     0180  0822               	movf	___flmul@b+2,w
  6092     0181  00F0               	movwf	__Umul8_16@multiplicand
  6093     0182  0826               	movf	___flmul@a+2,w
  6094     0183  3187  27D2  3180   	fcall	__Umul8_16
  6095     0186  0871               	movf	?__Umul8_16+1,w
  6096     0187  0020               	movlb	0	; select bank0
  6097     0188  00B9               	movwf	___flmul@temp+1
  6098     0189  0870               	movf	?__Umul8_16,w
  6099     018A  00B8               	movwf	___flmul@temp
  6100     018B                     l2527:
  6101     018B  0838               	movf	___flmul@temp,w
  6102     018C  00A8               	movwf	??___flmul
  6103     018D  0839               	movf	___flmul@temp+1,w
  6104     018E  00A9               	movwf	??___flmul+1
  6105     018F  01AA               	clrf	??___flmul+2
  6106     0190  01AB               	clrf	??___flmul+3
  6107     0191  3008               	movlw	8
  6108     0192                     u3075:
  6109     0192  35A8               	lslf	??___flmul,f
  6110     0193  0DA9               	rlf	??___flmul+1,f
  6111     0194  0DAA               	rlf	??___flmul+2,f
  6112     0195  0DAB               	rlf	??___flmul+3,f
  6113     0196                     u3070:
  6114     0196  0B89               	decfsz	9,f
  6115     0197  2992               	goto	u3075
  6116     0198  0828               	movf	??___flmul,w
  6117     0199  07B4               	addwf	___flmul@prod,f
  6118     019A  0829               	movf	??___flmul+1,w
  6119     019B  3DB5               	addwfc	___flmul@prod+1,f
  6120     019C  082A               	movf	??___flmul+2,w
  6121     019D  3DB6               	addwfc	___flmul@prod+2,f
  6122     019E  082B               	movf	??___flmul+3,w
  6123     019F  3DB7               	addwfc	___flmul@prod+3,f
  6124     01A0                     l2529:
  6125     01A0  082E               	movf	___flmul@grs,w
  6126     01A1  00A8               	movwf	??___flmul
  6127     01A2  082F               	movf	___flmul@grs+1,w
  6128     01A3  00A9               	movwf	??___flmul+1
  6129     01A4  0830               	movf	___flmul@grs+2,w
  6130     01A5  00AA               	movwf	??___flmul+2
  6131     01A6  0831               	movf	___flmul@grs+3,w
  6132     01A7  00AB               	movwf	??___flmul+3
  6133     01A8  3018               	movlw	24
  6134     01A9                     u3085:
  6135     01A9  36AB               	lsrf	??___flmul+3,f
  6136     01AA  0CAA               	rrf	??___flmul+2,f
  6137     01AB  0CA9               	rrf	??___flmul+1,f
  6138     01AC  0CA8               	rrf	??___flmul,f
  6139     01AD                     u3080:
  6140     01AD  0B89               	decfsz	9,f
  6141     01AE  29A9               	goto	u3085
  6142     01AF  0828               	movf	??___flmul,w
  6143     01B0  07B4               	addwf	___flmul@prod,f
  6144     01B1  0829               	movf	??___flmul+1,w
  6145     01B2  3DB5               	addwfc	___flmul@prod+1,f
  6146     01B3  082A               	movf	??___flmul+2,w
  6147     01B4  3DB6               	addwfc	___flmul@prod+2,f
  6148     01B5  082B               	movf	??___flmul+3,w
  6149     01B6  3DB7               	addwfc	___flmul@prod+3,f
  6150     01B7                     l2531:
  6151     01B7  3008               	movlw	8
  6152     01B8                     u3095:
  6153     01B8  35AE               	lslf	___flmul@grs,f
  6154     01B9  0DAF               	rlf	___flmul@grs+1,f
  6155     01BA  0DB0               	rlf	___flmul@grs+2,f
  6156     01BB  0DB1               	rlf	___flmul@grs+3,f
  6157     01BC  0B89               	decfsz	9,f
  6158     01BD  29B8               	goto	u3095
  6159     01BE                     l2533:
  6160     01BE  0833               	movf	___flmul@bexp,w
  6161     01BF  0732               	addwf	___flmul@aexp,w
  6162     01C0  00A8               	movwf	??___flmul
  6163     01C1  01A9               	clrf	??___flmul+1
  6164     01C2  0DA9               	rlf	??___flmul+1,f
  6165     01C3  0828               	movf	??___flmul,w
  6166     01C4  3E82               	addlw	130
  6167     01C5  00B8               	movwf	___flmul@temp
  6168     01C6  30FF               	movlw	255
  6169     01C7  3D29               	addwfc	??___flmul+1,w
  6170     01C8  00B9               	movwf	___flmul@temp+1
  6171     01C9  29E1               	goto	l2545
  6172     01CA                     l2535:
  6173     01CA  3001               	movlw	1
  6174     01CB                     u3105:
  6175     01CB  35B4               	lslf	___flmul@prod,f
  6176     01CC  0DB5               	rlf	___flmul@prod+1,f
  6177     01CD  0DB6               	rlf	___flmul@prod+2,f
  6178     01CE  0DB7               	rlf	___flmul@prod+3,f
  6179     01CF  0B89               	decfsz	9,f
  6180     01D0  29CB               	goto	u3105
  6181     01D1                     l2537:
  6182     01D1  1FB1               	btfss	___flmul@grs+3,7
  6183     01D2  29D4               	goto	u3111
  6184     01D3  29D5               	goto	u3110
  6185     01D4                     u3111:
  6186     01D4  29D6               	goto	l2541
  6187     01D5                     u3110:
  6188     01D5                     l2539:
  6189     01D5  1434               	bsf	___flmul@prod,0
  6190     01D6                     l2541:
  6191     01D6  3001               	movlw	1
  6192     01D7                     u3125:
  6193     01D7  35AE               	lslf	___flmul@grs,f
  6194     01D8  0DAF               	rlf	___flmul@grs+1,f
  6195     01D9  0DB0               	rlf	___flmul@grs+2,f
  6196     01DA  0DB1               	rlf	___flmul@grs+3,f
  6197     01DB  0B89               	decfsz	9,f
  6198     01DC  29D7               	goto	u3125
  6199     01DD                     l2543:
  6200     01DD  30FF               	movlw	255
  6201     01DE  07B8               	addwf	___flmul@temp,f
  6202     01DF  30FF               	movlw	255
  6203     01E0  3DB9               	addwfc	___flmul@temp+1,f
  6204     01E1                     l2545:
  6205     01E1  1FB6               	btfss	___flmul@prod+2,7
  6206     01E2  29E4               	goto	u3131
  6207     01E3  29E5               	goto	u3130
  6208     01E4                     u3131:
  6209     01E4  29CA               	goto	l2535
  6210     01E5                     u3130:
  6211     01E5                     l2547:
  6212     01E5  01B2               	clrf	___flmul@aexp
  6213     01E6                     l2549:
  6214     01E6  1FB1               	btfss	___flmul@grs+3,7
  6215     01E7  29E9               	goto	u3141
  6216     01E8  29EA               	goto	u3140
  6217     01E9                     u3141:
  6218     01E9  2A06               	goto	l2557
  6219     01EA                     u3140:
  6220     01EA                     l2551:
  6221     01EA  30FF               	movlw	255
  6222     01EB  052E               	andwf	___flmul@grs,w
  6223     01EC  00A8               	movwf	??___flmul
  6224     01ED  30FF               	movlw	255
  6225     01EE  052F               	andwf	___flmul@grs+1,w
  6226     01EF  00A9               	movwf	??___flmul+1
  6227     01F0  30FF               	movlw	255
  6228     01F1  0530               	andwf	___flmul@grs+2,w
  6229     01F2  00AA               	movwf	??___flmul+2
  6230     01F3  307F               	movlw	127
  6231     01F4  0531               	andwf	___flmul@grs+3,w
  6232     01F5  00AB               	movwf	??___flmul+3
  6233     01F6  082B               	movf	??___flmul+3,w
  6234     01F7  042A               	iorwf	??___flmul+2,w
  6235     01F8  0429               	iorwf	??___flmul+1,w
  6236     01F9  0428               	iorwf	??___flmul,w
  6237     01FA  1903               	skipnz
  6238     01FB  29FD               	goto	u3151
  6239     01FC  29FE               	goto	u3150
  6240     01FD                     u3151:
  6241     01FD  2A01               	goto	l791
  6242     01FE                     u3150:
  6243     01FE                     l2553:
  6244     01FE  01B2               	clrf	___flmul@aexp
  6245     01FF  0AB2               	incf	___flmul@aexp,f
  6246     0200  2A06               	goto	l2557
  6247     0201                     l791:
  6248     0201  1C34               	btfss	___flmul@prod,0
  6249     0202  2A04               	goto	u3161
  6250     0203  2A05               	goto	u3160
  6251     0204                     u3161:
  6252     0204  2A06               	goto	l2557
  6253     0205                     u3160:
  6254     0205  29FE               	goto	l2553
  6255     0206                     l2557:
  6256     0206  0832               	movf	___flmul@aexp,w
  6257     0207  1903               	btfsc	3,2
  6258     0208  2A0A               	goto	u3171
  6259     0209  2A0B               	goto	u3170
  6260     020A                     u3171:
  6261     020A  2A33               	goto	l2567
  6262     020B                     u3170:
  6263     020B                     l2559:
  6264     020B  3001               	movlw	1
  6265     020C  07B4               	addwf	___flmul@prod,f
  6266     020D  3000               	movlw	0
  6267     020E  3DB5               	addwfc	___flmul@prod+1,f
  6268     020F  3000               	movlw	0
  6269     0210  3DB6               	addwfc	___flmul@prod+2,f
  6270     0211  3000               	movlw	0
  6271     0212  3DB7               	addwfc	___flmul@prod+3,f
  6272     0213                     l2561:
  6273     0213  1C37               	btfss	___flmul@prod+3,0
  6274     0214  2A16               	goto	u3181
  6275     0215  2A17               	goto	u3180
  6276     0216                     u3181:
  6277     0216  2A33               	goto	l2567
  6278     0217                     u3180:
  6279     0217                     l2563:
  6280     0217  0834               	movf	___flmul@prod,w
  6281     0218  00A8               	movwf	??___flmul
  6282     0219  0835               	movf	___flmul@prod+1,w
  6283     021A  00A9               	movwf	??___flmul+1
  6284     021B  0836               	movf	___flmul@prod+2,w
  6285     021C  00AA               	movwf	??___flmul+2
  6286     021D  0837               	movf	___flmul@prod+3,w
  6287     021E  00AB               	movwf	??___flmul+3
  6288     021F  3001               	movlw	1
  6289     0220  00AC               	movwf	??___flmul+4
  6290     0221                     u3195:
  6291     0221  37AB               	asrf	??___flmul+3,f
  6292     0222  0CAA               	rrf	??___flmul+2,f
  6293     0223  0CA9               	rrf	??___flmul+1,f
  6294     0224  0CA8               	rrf	??___flmul,f
  6295     0225                     u3190:
  6296     0225  0BAC               	decfsz	??___flmul+4,f
  6297     0226  2A21               	goto	u3195
  6298     0227  082B               	movf	??___flmul+3,w
  6299     0228  00B7               	movwf	___flmul@prod+3
  6300     0229  082A               	movf	??___flmul+2,w
  6301     022A  00B6               	movwf	___flmul@prod+2
  6302     022B  0829               	movf	??___flmul+1,w
  6303     022C  00B5               	movwf	___flmul@prod+1
  6304     022D  0828               	movf	??___flmul,w
  6305     022E  00B4               	movwf	___flmul@prod
  6306     022F                     l2565:
  6307     022F  3001               	movlw	1
  6308     0230  07B8               	addwf	___flmul@temp,f
  6309     0231  3000               	movlw	0
  6310     0232  3DB9               	addwfc	___flmul@temp+1,f
  6311     0233                     l2567:
  6312     0233  0839               	movf	___flmul@temp+1,w
  6313     0234  3A80               	xorlw	128
  6314     0235  00A8               	movwf	??___flmul
  6315     0236  3080               	movlw	128
  6316     0237  0228               	subwf	??___flmul,w
  6317     0238  1D03               	skipz
  6318     0239  2A3C               	goto	u3205
  6319     023A  30FF               	movlw	255
  6320     023B  0238               	subwf	___flmul@temp,w
  6321     023C                     u3205:
  6322     023C  1C03               	skipc
  6323     023D  2A3F               	goto	u3201
  6324     023E  2A40               	goto	u3200
  6325     023F                     u3201:
  6326     023F  2A4A               	goto	l2571
  6327     0240                     u3200:
  6328     0240                     l2569:
  6329     0240  307F               	movlw	127
  6330     0241  0020               	movlb	0	; select bank0
  6331     0242  00B7               	movwf	___flmul@prod+3
  6332     0243  3080               	movlw	128
  6333     0244  00B6               	movwf	___flmul@prod+2
  6334     0245  3000               	movlw	0
  6335     0246  00B5               	movwf	___flmul@prod+1
  6336     0247  3000               	movlw	0
  6337     0248  00B4               	movwf	___flmul@prod
  6338     0249  2A75               	goto	l797
  6339     024A                     l2571:
  6340     024A  0020               	movlb	0	; select bank0
  6341     024B  0839               	movf	___flmul@temp+1,w
  6342     024C  3A80               	xorlw	128
  6343     024D  00A8               	movwf	??___flmul
  6344     024E  3080               	movlw	128
  6345     024F  0228               	subwf	??___flmul,w
  6346     0250  1D03               	skipz
  6347     0251  2A54               	goto	u3215
  6348     0252  3001               	movlw	1
  6349     0253  0238               	subwf	___flmul@temp,w
  6350     0254                     u3215:
  6351     0254  1803               	skipnc
  6352     0255  2A57               	goto	u3211
  6353     0256  2A58               	goto	u3210
  6354     0257                     u3211:
  6355     0257  2A63               	goto	l2577
  6356     0258                     u3210:
  6357     0258                     l2573:
  6358     0258  3000               	movlw	0
  6359     0259  0020               	movlb	0	; select bank0
  6360     025A  00B7               	movwf	___flmul@prod+3
  6361     025B  3000               	movlw	0
  6362     025C  00B6               	movwf	___flmul@prod+2
  6363     025D  3000               	movlw	0
  6364     025E  00B5               	movwf	___flmul@prod+1
  6365     025F  3000               	movlw	0
  6366     0260  00B4               	movwf	___flmul@prod
  6367     0261                     l2575:
  6368     0261  01AD               	clrf	___flmul@sign
  6369     0262  2A75               	goto	l797
  6370     0263                     l2577:
  6371     0263  0020               	movlb	0	; select bank0
  6372     0264  0838               	movf	___flmul@temp,w
  6373     0265  00B3               	movwf	___flmul@bexp
  6374     0266  30FF               	movlw	255
  6375     0267  05B4               	andwf	___flmul@prod,f
  6376     0268  30FF               	movlw	255
  6377     0269  05B5               	andwf	___flmul@prod+1,f
  6378     026A  307F               	movlw	127
  6379     026B  05B6               	andwf	___flmul@prod+2,f
  6380     026C  3000               	movlw	0
  6381     026D  05B7               	andwf	___flmul@prod+3,f
  6382     026E                     l2579:
  6383     026E  1C33               	btfss	___flmul@bexp,0
  6384     026F  2A71               	goto	u3221
  6385     0270  2A72               	goto	u3220
  6386     0271                     u3221:
  6387     0271  2A73               	goto	l2583
  6388     0272                     u3220:
  6389     0272                     l2581:
  6390     0272  17B6               	bsf	___flmul@prod+2,7
  6391     0273                     l2583:
  6392     0273  3633               	lsrf	___flmul@bexp,w
  6393     0274  00B7               	movwf	___flmul@prod+3
  6394     0275                     l797:
  6395     0275  082D               	movf	___flmul@sign,w
  6396     0276  00A8               	movwf	??___flmul
  6397     0277  0828               	movf	??___flmul,w
  6398     0278  04B7               	iorwf	___flmul@prod+3,f
  6399     0279                     l2585:
  6400     0279  0837               	movf	___flmul@prod+3,w
  6401     027A  00A3               	movwf	?___flmul+3
  6402     027B  0836               	movf	___flmul@prod+2,w
  6403     027C  00A2               	movwf	?___flmul+2
  6404     027D  0835               	movf	___flmul@prod+1,w
  6405     027E  00A1               	movwf	?___flmul+1
  6406     027F  0834               	movf	___flmul@prod,w
  6407     0280  00A0               	movwf	?___flmul
  6408     0281                     l785:
  6409     0281  0008               	return
  6410     0282                     __end_of___flmul:
  6411                           
  6412                           	psect	text14
  6413     07D2                     __ptext14:	
  6414 ;; *************** function __Umul8_16 *****************
  6415 ;; Defined at:
  6416 ;;		line 4 in file "C:\Program Files\Microchip\xc8\v2.46\pic\sources\c99\common\Umul8_16.c"
  6417 ;; Parameters:    Size  Location     Type
  6418 ;;  multiplier      1    wreg     unsigned char 
  6419 ;;  multiplicand    1    0[COMMON] unsigned char 
  6420 ;; Auto vars:     Size  Location     Type
  6421 ;;  multiplier      1    8[COMMON] unsigned char 
  6422 ;;  word_mpld       2    6[COMMON] unsigned short 
  6423 ;;  product         2    4[COMMON] unsigned short 
  6424 ;; Return value:  Size  Location     Type
  6425 ;;                  2    0[COMMON] unsigned int 
  6426 ;; Registers used:
  6427 ;;		wreg, status,2, status,0
  6428 ;; Tracked objects:
  6429 ;;		On entry : 0/0
  6430 ;;		On exit  : 0/0
  6431 ;;		Unchanged: 0/0
  6432 ;; Data sizes:     COMMON   BANK0   BANK1   BANK2   BANK3   BANK4   BANK5   BANK6   BANK7   BANK8   BANK9  BANK10  BANK1
      +1  BANK12  BANK13  BANK14  BANK15  BANK16  BANK17  BANK18  BANK19  BANK20  BANK21  BANK22  BANK23  BANK24  BANK25
  6433 ;;      Params:         2       0       0       0       0       0       0       0       0       0       0       0       
      +0       0       0       0       0       0       0       0       0       0       0       0       0       0       0
  6434 ;;      Locals:         5       0       0       0       0       0       0       0       0       0       0       0       
      +0       0       0       0       0       0       0       0       0       0       0       0       0       0       0
  6435 ;;      Temps:          2       0       0       0       0       0       0       0       0       0       0       0       
      +0       0       0       0       0       0       0       0       0       0       0       0       0       0       0
  6436 ;;      Totals:         9       0       0       0       0       0       0       0       0       0       0       0       
      +0       0       0       0       0       0       0       0       0       0       0       0       0       0       0
  6437 ;;Total ram usage:        9 bytes
  6438 ;; Hardware stack levels used: 1
  6439 ;; Hardware stack levels required when called: 1
  6440 ;; This function calls:
  6441 ;;		Nothing
  6442 ;; This function is called by:
  6443 ;;		___flmul
  6444 ;; This function uses a non-reentrant model
  6445 ;;
  6446                           
  6447     07D2                     __Umul8_16:	
  6448                           ;psect for function __Umul8_16
  6449                           
  6450                           
  6451                           ;incstack = 0
  6452                           ; Regs used in __Umul8_16: [wreg+status,2+status,0]
  6453                           ;__Umul8_16@multiplier stored from wreg
  6454     07D2  00F8               	movwf	__Umul8_16@multiplier
  6455     07D3                     l2325:
  6456     07D3  01F4               	clrf	__Umul8_16@product
  6457     07D4  01F5               	clrf	__Umul8_16@product+1
  6458     07D5                     l2327:
  6459     07D5  0870               	movf	__Umul8_16@multiplicand,w
  6460     07D6  00F2               	movwf	??__Umul8_16
  6461     07D7  01F3               	clrf	??__Umul8_16+1
  6462     07D8  0872               	movf	??__Umul8_16,w
  6463     07D9  00F6               	movwf	__Umul8_16@word_mpld
  6464     07DA  0873               	movf	??__Umul8_16+1,w
  6465     07DB  00F7               	movwf	__Umul8_16@word_mpld+1
  6466     07DC                     l2329:
  6467     07DC  1C78               	btfss	__Umul8_16@multiplier,0
  6468     07DD  2FDF               	goto	u2731
  6469     07DE  2FE0               	goto	u2730
  6470     07DF                     u2731:
  6471     07DF  2FE4               	goto	l804
  6472     07E0                     u2730:
  6473     07E0                     l2331:
  6474     07E0  0876               	movf	__Umul8_16@word_mpld,w
  6475     07E1  07F4               	addwf	__Umul8_16@product,f
  6476     07E2  0877               	movf	__Umul8_16@word_mpld+1,w
  6477     07E3  3DF5               	addwfc	__Umul8_16@product+1,f
  6478     07E4                     l804:
  6479     07E4  3001               	movlw	1
  6480     07E5                     u2745:
  6481     07E5  35F6               	lslf	__Umul8_16@word_mpld,f
  6482     07E6  0DF7               	rlf	__Umul8_16@word_mpld+1,f
  6483     07E7  0B89               	decfsz	9,f
  6484     07E8  2FE5               	goto	u2745
  6485     07E9  1003               	clrc
  6486     07EA  0CF8               	rrf	__Umul8_16@multiplier,f
  6487     07EB                     l2333:
  6488     07EB  0878               	movf	__Umul8_16@multiplier,w
  6489     07EC  1D03               	btfss	3,2
  6490     07ED  2FEF               	goto	u2751
  6491     07EE  2FF0               	goto	u2750
  6492     07EF                     u2751:
  6493     07EF  2FDC               	goto	l2329
  6494     07F0                     u2750:
  6495     07F0                     l2335:
  6496     07F0  0875               	movf	__Umul8_16@product+1,w
  6497     07F1  00F1               	movwf	?__Umul8_16+1
  6498     07F2  0874               	movf	__Umul8_16@product,w
  6499     07F3  00F0               	movwf	?__Umul8_16
  6500     07F4                     l806:
  6501     07F4  0008               	return
  6502     07F5                     __end_of__Umul8_16:
  6503                           
  6504                           	psect	text15
  6505     0A01                     __ptext15:	
  6506 ;; *************** function ___flge *****************
  6507 ;; Defined at:
  6508 ;;		line 4 in file "C:\Program Files\Microchip\xc8\v2.46\pic\sources\c99\common\flge.c"
  6509 ;; Parameters:    Size  Location     Type
  6510 ;;  ff1             4    0[COMMON] unsigned int 
  6511 ;;  ff2             4    4[COMMON] unsigned int 
  6512 ;; Auto vars:     Size  Location     Type
  6513 ;;		None
  6514 ;; Return value:  Size  Location     Type
  6515 ;;		None               void
  6516 ;; Registers used:
  6517 ;;		wreg, status,2, status,0
  6518 ;; Tracked objects:
  6519 ;;		On entry : 0/0
  6520 ;;		On exit  : 0/0
  6521 ;;		Unchanged: 0/0
  6522 ;; Data sizes:     COMMON   BANK0   BANK1   BANK2   BANK3   BANK4   BANK5   BANK6   BANK7   BANK8   BANK9  BANK10  BANK1
      +1  BANK12  BANK13  BANK14  BANK15  BANK16  BANK17  BANK18  BANK19  BANK20  BANK21  BANK22  BANK23  BANK24  BANK25
  6523 ;;      Params:         8       0       0       0       0       0       0       0       0       0       0       0       
      +0       0       0       0       0       0       0       0       0       0       0       0       0       0       0
  6524 ;;      Locals:         0       0       0       0       0       0       0       0       0       0       0       0       
      +0       0       0       0       0       0       0       0       0       0       0       0       0       0       0
  6525 ;;      Temps:          4       0       0       0       0       0       0       0       0       0       0       0       
      +0       0       0       0       0       0       0       0       0       0       0       0       0       0       0
  6526 ;;      Totals:        12       0       0       0       0       0       0       0       0       0       0       0       
      +0       0       0       0       0       0       0       0       0       0       0       0       0       0       0
  6527 ;;Total ram usage:       12 bytes
  6528 ;; Hardware stack levels used: 1
  6529 ;; Hardware stack levels required when called: 1
  6530 ;; This function calls:
  6531 ;;		Nothing
  6532 ;; This function is called by:
  6533 ;;		_calibrate
  6534 ;;		_displayResults
  6535 ;;		_main
  6536 ;;		_ftoa
  6537 ;; This function uses a non-reentrant model
  6538 ;;
  6539                           
  6540     0A01                     ___flge:	
  6541                           ;psect for function ___flge
  6542                           
  6543     0A01                     l2379:	
  6544                           ;incstack = 0
  6545                           ; Regs used in ___flge: [wreg+status,2+status,0]
  6546                           
  6547     0A01  3000               	movlw	0
  6548     0A02  0570               	andwf	___flge@ff1,w
  6549     0A03  00F8               	movwf	??___flge
  6550     0A04  3000               	movlw	0
  6551     0A05  0571               	andwf	___flge@ff1+1,w
  6552     0A06  00F9               	movwf	??___flge+1
  6553     0A07  3080               	movlw	128
  6554     0A08  0572               	andwf	___flge@ff1+2,w
  6555     0A09  00FA               	movwf	??___flge+2
  6556     0A0A  307F               	movlw	127
  6557     0A0B  0573               	andwf	___flge@ff1+3,w
  6558     0A0C  00FB               	movwf	??___flge+3
  6559     0A0D  087B               	movf	??___flge+3,w
  6560     0A0E  047A               	iorwf	??___flge+2,w
  6561     0A0F  0479               	iorwf	??___flge+1,w
  6562     0A10  0478               	iorwf	??___flge,w
  6563     0A11  1D03               	skipz
  6564     0A12  2A14               	goto	u2811
  6565     0A13  2A15               	goto	u2810
  6566     0A14                     u2811:
  6567     0A14  2A1D               	goto	l566
  6568     0A15                     u2810:
  6569     0A15                     l2381:
  6570     0A15  3000               	movlw	0
  6571     0A16  00F3               	movwf	___flge@ff1+3
  6572     0A17  3000               	movlw	0
  6573     0A18  00F2               	movwf	___flge@ff1+2
  6574     0A19  3000               	movlw	0
  6575     0A1A  00F1               	movwf	___flge@ff1+1
  6576     0A1B  3000               	movlw	0
  6577     0A1C  00F0               	movwf	___flge@ff1
  6578     0A1D                     l566:
  6579     0A1D  3000               	movlw	0
  6580     0A1E  0574               	andwf	___flge@ff2,w
  6581     0A1F  00F8               	movwf	??___flge
  6582     0A20  3000               	movlw	0
  6583     0A21  0575               	andwf	___flge@ff2+1,w
  6584     0A22  00F9               	movwf	??___flge+1
  6585     0A23  3080               	movlw	128
  6586     0A24  0576               	andwf	___flge@ff2+2,w
  6587     0A25  00FA               	movwf	??___flge+2
  6588     0A26  307F               	movlw	127
  6589     0A27  0577               	andwf	___flge@ff2+3,w
  6590     0A28  00FB               	movwf	??___flge+3
  6591     0A29  087B               	movf	??___flge+3,w
  6592     0A2A  047A               	iorwf	??___flge+2,w
  6593     0A2B  0479               	iorwf	??___flge+1,w
  6594     0A2C  0478               	iorwf	??___flge,w
  6595     0A2D  1D03               	skipz
  6596     0A2E  2A30               	goto	u2821
  6597     0A2F  2A31               	goto	u2820
  6598     0A30                     u2821:
  6599     0A30  2A39               	goto	l2385
  6600     0A31                     u2820:
  6601     0A31                     l2383:
  6602     0A31  3000               	movlw	0
  6603     0A32  00F7               	movwf	___flge@ff2+3
  6604     0A33  3000               	movlw	0
  6605     0A34  00F6               	movwf	___flge@ff2+2
  6606     0A35  3000               	movlw	0
  6607     0A36  00F5               	movwf	___flge@ff2+1
  6608     0A37  3000               	movlw	0
  6609     0A38  00F4               	movwf	___flge@ff2
  6610     0A39                     l2385:
  6611     0A39  1FF3               	btfss	___flge@ff1+3,7
  6612     0A3A  2A3C               	goto	u2831
  6613     0A3B  2A3D               	goto	u2830
  6614     0A3C                     u2831:
  6615     0A3C  2A55               	goto	l2389
  6616     0A3D                     u2830:
  6617     0A3D                     l2387:
  6618     0A3D  3000               	movlw	0
  6619     0A3E  00F8               	movwf	??___flge
  6620     0A3F  3000               	movlw	0
  6621     0A40  00F9               	movwf	??___flge+1
  6622     0A41  3000               	movlw	0
  6623     0A42  00FA               	movwf	??___flge+2
  6624     0A43  3080               	movlw	128
  6625     0A44  00FB               	movwf	??___flge+3
  6626     0A45  0870               	movf	___flge@ff1,w
  6627     0A46  02F8               	subwf	??___flge,f
  6628     0A47  0871               	movf	___flge@ff1+1,w
  6629     0A48  3BF9               	subwfb	??___flge+1,f
  6630     0A49  0872               	movf	___flge@ff1+2,w
  6631     0A4A  3BFA               	subwfb	??___flge+2,f
  6632     0A4B  0873               	movf	___flge@ff1+3,w
  6633     0A4C  3BFB               	subwfb	??___flge+3,f
  6634     0A4D  087B               	movf	??___flge+3,w
  6635     0A4E  00F3               	movwf	___flge@ff1+3
  6636     0A4F  087A               	movf	??___flge+2,w
  6637     0A50  00F2               	movwf	___flge@ff1+2
  6638     0A51  0879               	movf	??___flge+1,w
  6639     0A52  00F1               	movwf	___flge@ff1+1
  6640     0A53  0878               	movf	??___flge,w
  6641     0A54  00F0               	movwf	___flge@ff1
  6642     0A55                     l2389:
  6643     0A55  1FF7               	btfss	___flge@ff2+3,7
  6644     0A56  2A58               	goto	u2841
  6645     0A57  2A59               	goto	u2840
  6646     0A58                     u2841:
  6647     0A58  2A71               	goto	l569
  6648     0A59                     u2840:
  6649     0A59                     l2391:
  6650     0A59  3000               	movlw	0
  6651     0A5A  00F8               	movwf	??___flge
  6652     0A5B  3000               	movlw	0
  6653     0A5C  00F9               	movwf	??___flge+1
  6654     0A5D  3000               	movlw	0
  6655     0A5E  00FA               	movwf	??___flge+2
  6656     0A5F  3080               	movlw	128
  6657     0A60  00FB               	movwf	??___flge+3
  6658     0A61  0874               	movf	___flge@ff2,w
  6659     0A62  02F8               	subwf	??___flge,f
  6660     0A63  0875               	movf	___flge@ff2+1,w
  6661     0A64  3BF9               	subwfb	??___flge+1,f
  6662     0A65  0876               	movf	___flge@ff2+2,w
  6663     0A66  3BFA               	subwfb	??___flge+2,f
  6664     0A67  0877               	movf	___flge@ff2+3,w
  6665     0A68  3BFB               	subwfb	??___flge+3,f
  6666     0A69  087B               	movf	??___flge+3,w
  6667     0A6A  00F7               	movwf	___flge@ff2+3
  6668     0A6B  087A               	movf	??___flge+2,w
  6669     0A6C  00F6               	movwf	___flge@ff2+2
  6670     0A6D  0879               	movf	??___flge+1,w
  6671     0A6E  00F5               	movwf	___flge@ff2+1
  6672     0A6F  0878               	movf	??___flge,w
  6673     0A70  00F4               	movwf	___flge@ff2
  6674     0A71                     l569:
  6675     0A71  3080               	movlw	128
  6676     0A72  06F3               	xorwf	___flge@ff1+3,f
  6677     0A73  3080               	movlw	128
  6678     0A74  06F7               	xorwf	___flge@ff2+3,f
  6679     0A75  0877               	movf	___flge@ff2+3,w
  6680     0A76  0273               	subwf	___flge@ff1+3,w
  6681     0A77  1D03               	skipz
  6682     0A78  2A83               	goto	u2855
  6683     0A79  0876               	movf	___flge@ff2+2,w
  6684     0A7A  0272               	subwf	___flge@ff1+2,w
  6685     0A7B  1D03               	skipz
  6686     0A7C  2A83               	goto	u2855
  6687     0A7D  0875               	movf	___flge@ff2+1,w
  6688     0A7E  0271               	subwf	___flge@ff1+1,w
  6689     0A7F  1D03               	skipz
  6690     0A80  2A83               	goto	u2855
  6691     0A81  0874               	movf	___flge@ff2,w
  6692     0A82  0270               	subwf	___flge@ff1,w
  6693     0A83                     u2855:
  6694     0A83  1803               	skipnc
  6695     0A84  2A86               	goto	u2851
  6696     0A85  2A87               	goto	u2850
  6697     0A86                     u2851:
  6698     0A86  2A89               	goto	l2395
  6699     0A87                     u2850:
  6700     0A87                     l2393:
  6701     0A87  1003               	clrc
  6702     0A88  2A8A               	goto	l574
  6703     0A89                     l2395:
  6704     0A89  1403               	setc
  6705     0A8A                     l574:
  6706     0A8A  0008               	return
  6707     0A8B                     __end_of___flge:
  6708                           
  6709                           	psect	text16
  6710     0C70                     __ptext16:	
  6711 ;; *************** function ___fldiv *****************
  6712 ;; Defined at:
  6713 ;;		line 8 in file "C:\Program Files\Microchip\xc8\v2.46\pic\sources\c99\common\sprcdiv.c"
  6714 ;; Parameters:    Size  Location     Type
  6715 ;;  a               4   26[BANK0 ] unsigned int 
  6716 ;;  b               4   30[BANK0 ] unsigned int 
  6717 ;; Auto vars:     Size  Location     Type
  6718 ;;  grs             4   46[BANK0 ] unsigned long 
  6719 ;;  rem             4   39[BANK0 ] unsigned long 
  6720 ;;  new_exp         2   44[BANK0 ] short 
  6721 ;;  aexp            1   51[BANK0 ] unsigned char 
  6722 ;;  bexp            1   50[BANK0 ] unsigned char 
  6723 ;;  sign            1   43[BANK0 ] unsigned char 
  6724 ;; Return value:  Size  Location     Type
  6725 ;;                  4   26[BANK0 ] unsigned char 
  6726 ;; Registers used:
  6727 ;;		wreg, status,2, status,0
  6728 ;; Tracked objects:
  6729 ;;		On entry : 0/0
  6730 ;;		On exit  : 0/0
  6731 ;;		Unchanged: 0/0
  6732 ;; Data sizes:     COMMON   BANK0   BANK1   BANK2   BANK3   BANK4   BANK5   BANK6   BANK7   BANK8   BANK9  BANK10  BANK1
      +1  BANK12  BANK13  BANK14  BANK15  BANK16  BANK17  BANK18  BANK19  BANK20  BANK21  BANK22  BANK23  BANK24  BANK25
  6733 ;;      Params:         0       8       0       0       0       0       0       0       0       0       0       0       
      +0       0       0       0       0       0       0       0       0       0       0       0       0       0       0
  6734 ;;      Locals:         0      13       0       0       0       0       0       0       0       0       0       0       
      +0       0       0       0       0       0       0       0       0       0       0       0       0       0       0
  6735 ;;      Temps:          0       5       0       0       0       0       0       0       0       0       0       0       
      +0       0       0       0       0       0       0       0       0       0       0       0       0       0       0
  6736 ;;      Totals:         0      26       0       0       0       0       0       0       0       0       0       0       
      +0       0       0       0       0       0       0       0       0       0       0       0       0       0       0
  6737 ;;Total ram usage:       26 bytes
  6738 ;; Hardware stack levels used: 1
  6739 ;; Hardware stack levels required when called: 1
  6740 ;; This function calls:
  6741 ;;		Nothing
  6742 ;; This function is called by:
  6743 ;;		_calibrate
  6744 ;;		_displayResults
  6745 ;;		_main
  6746 ;; This function uses a non-reentrant model
  6747 ;;
  6748                           
  6749     0C70                     ___fldiv:	
  6750                           ;psect for function ___fldiv
  6751                           
  6752     0C70                     l2719:	
  6753                           ;incstack = 0
  6754                           ; Regs used in ___fldiv: [wreg+status,2+status,0]
  6755                           
  6756     0C70  0020               	movlb	0	; select bank0
  6757     0C71  0841               	movf	___fldiv@b+3,w
  6758     0C72  3980               	andlw	128
  6759     0C73  00CB               	movwf	___fldiv@sign
  6760     0C74                     l2721:
  6761     0C74  3541               	lslf	___fldiv@b+3,w
  6762     0C75  00D2               	movwf	___fldiv@bexp
  6763     0C76                     l2723:
  6764     0C76  1FC0               	btfss	___fldiv@b+2,7
  6765     0C77  2C79               	goto	u3421
  6766     0C78  2C7A               	goto	u3420
  6767     0C79                     u3421:
  6768     0C79  2C7B               	goto	l2727
  6769     0C7A                     u3420:
  6770     0C7A                     l2725:
  6771     0C7A  1452               	bsf	___fldiv@bexp,0
  6772     0C7B                     l2727:
  6773     0C7B  0852               	movf	___fldiv@bexp,w
  6774     0C7C  1903               	btfsc	3,2
  6775     0C7D  2C7F               	goto	u3431
  6776     0C7E  2C80               	goto	u3430
  6777     0C7F                     u3431:
  6778     0C7F  2C90               	goto	l2737
  6779     0C80                     u3430:
  6780     0C80                     l2729:
  6781     0C80  0A52               	incf	___fldiv@bexp,w
  6782     0C81  1D03               	btfss	3,2
  6783     0C82  2C84               	goto	u3441
  6784     0C83  2C85               	goto	u3440
  6785     0C84                     u3441:
  6786     0C84  2C8D               	goto	l2733
  6787     0C85                     u3440:
  6788     0C85                     l2731:
  6789     0C85  3000               	movlw	0
  6790     0C86  00C1               	movwf	___fldiv@b+3
  6791     0C87  3000               	movlw	0
  6792     0C88  00C0               	movwf	___fldiv@b+2
  6793     0C89  3000               	movlw	0
  6794     0C8A  00BF               	movwf	___fldiv@b+1
  6795     0C8B  3000               	movlw	0
  6796     0C8C  00BE               	movwf	___fldiv@b
  6797     0C8D                     l2733:
  6798     0C8D  17C0               	bsf	___fldiv@b+2,7
  6799     0C8E                     l2735:
  6800     0C8E  01C1               	clrf	___fldiv@b+3
  6801     0C8F  2C98               	goto	l2739
  6802     0C90                     l2737:
  6803     0C90  3000               	movlw	0
  6804     0C91  00C1               	movwf	___fldiv@b+3
  6805     0C92  3000               	movlw	0
  6806     0C93  00C0               	movwf	___fldiv@b+2
  6807     0C94  3000               	movlw	0
  6808     0C95  00BF               	movwf	___fldiv@b+1
  6809     0C96  3000               	movlw	0
  6810     0C97  00BE               	movwf	___fldiv@b
  6811     0C98                     l2739:
  6812     0C98  083D               	movf	___fldiv@a+3,w
  6813     0C99  3980               	andlw	128
  6814     0C9A  00C2               	movwf	??___fldiv
  6815     0C9B  0842               	movf	??___fldiv,w
  6816     0C9C  06CB               	xorwf	___fldiv@sign,f
  6817     0C9D                     l2741:
  6818     0C9D  353D               	lslf	___fldiv@a+3,w
  6819     0C9E  00D3               	movwf	___fldiv@aexp
  6820     0C9F                     l2743:
  6821     0C9F  1FBC               	btfss	___fldiv@a+2,7
  6822     0CA0  2CA2               	goto	u3451
  6823     0CA1  2CA3               	goto	u3450
  6824     0CA2                     u3451:
  6825     0CA2  2CA4               	goto	l2747
  6826     0CA3                     u3450:
  6827     0CA3                     l2745:
  6828     0CA3  1453               	bsf	___fldiv@aexp,0
  6829     0CA4                     l2747:
  6830     0CA4  0853               	movf	___fldiv@aexp,w
  6831     0CA5  1903               	btfsc	3,2
  6832     0CA6  2CA8               	goto	u3461
  6833     0CA7  2CA9               	goto	u3460
  6834     0CA8                     u3461:
  6835     0CA8  2CB9               	goto	l2757
  6836     0CA9                     u3460:
  6837     0CA9                     l2749:
  6838     0CA9  0A53               	incf	___fldiv@aexp,w
  6839     0CAA  1D03               	btfss	3,2
  6840     0CAB  2CAD               	goto	u3471
  6841     0CAC  2CAE               	goto	u3470
  6842     0CAD                     u3471:
  6843     0CAD  2CB6               	goto	l2753
  6844     0CAE                     u3470:
  6845     0CAE                     l2751:
  6846     0CAE  3000               	movlw	0
  6847     0CAF  00BD               	movwf	___fldiv@a+3
  6848     0CB0  3000               	movlw	0
  6849     0CB1  00BC               	movwf	___fldiv@a+2
  6850     0CB2  3000               	movlw	0
  6851     0CB3  00BB               	movwf	___fldiv@a+1
  6852     0CB4  3000               	movlw	0
  6853     0CB5  00BA               	movwf	___fldiv@a
  6854     0CB6                     l2753:
  6855     0CB6  17BC               	bsf	___fldiv@a+2,7
  6856     0CB7                     l2755:
  6857     0CB7  01BD               	clrf	___fldiv@a+3
  6858     0CB8  2CC1               	goto	l745
  6859     0CB9                     l2757:
  6860     0CB9  3000               	movlw	0
  6861     0CBA  00BD               	movwf	___fldiv@a+3
  6862     0CBB  3000               	movlw	0
  6863     0CBC  00BC               	movwf	___fldiv@a+2
  6864     0CBD  3000               	movlw	0
  6865     0CBE  00BB               	movwf	___fldiv@a+1
  6866     0CBF  3000               	movlw	0
  6867     0CC0  00BA               	movwf	___fldiv@a
  6868     0CC1                     l745:
  6869     0CC1  083D               	movf	___fldiv@a+3,w
  6870     0CC2  043C               	iorwf	___fldiv@a+2,w
  6871     0CC3  043B               	iorwf	___fldiv@a+1,w
  6872     0CC4  043A               	iorwf	___fldiv@a,w
  6873     0CC5  1D03               	skipz
  6874     0CC6  2CC8               	goto	u3481
  6875     0CC7  2CC9               	goto	u3480
  6876     0CC8                     u3481:
  6877     0CC8  2CE2               	goto	l2767
  6878     0CC9                     u3480:
  6879     0CC9                     l2759:
  6880     0CC9  3000               	movlw	0
  6881     0CCA  00C1               	movwf	___fldiv@b+3
  6882     0CCB  3000               	movlw	0
  6883     0CCC  00C0               	movwf	___fldiv@b+2
  6884     0CCD  3000               	movlw	0
  6885     0CCE  00BF               	movwf	___fldiv@b+1
  6886     0CCF  3000               	movlw	0
  6887     0CD0  00BE               	movwf	___fldiv@b
  6888     0CD1  3080               	movlw	128
  6889     0CD2  04C0               	iorwf	___fldiv@b+2,f
  6890     0CD3  307F               	movlw	127
  6891     0CD4  04C1               	iorwf	___fldiv@b+3,f
  6892     0CD5                     l2761:
  6893     0CD5  084B               	movf	___fldiv@sign,w
  6894     0CD6  00C2               	movwf	??___fldiv
  6895     0CD7  0842               	movf	??___fldiv,w
  6896     0CD8  04C1               	iorwf	___fldiv@b+3,f
  6897     0CD9                     l2763:
  6898     0CD9  0841               	movf	___fldiv@b+3,w
  6899     0CDA  00BD               	movwf	?___fldiv+3
  6900     0CDB  0840               	movf	___fldiv@b+2,w
  6901     0CDC  00BC               	movwf	?___fldiv+2
  6902     0CDD  083F               	movf	___fldiv@b+1,w
  6903     0CDE  00BB               	movwf	?___fldiv+1
  6904     0CDF  083E               	movf	___fldiv@b,w
  6905     0CE0  00BA               	movwf	?___fldiv
  6906     0CE1  2E19               	goto	l747
  6907     0CE2                     l2767:
  6908     0CE2  0852               	movf	___fldiv@bexp,w
  6909     0CE3  1D03               	btfss	3,2
  6910     0CE4  2CE6               	goto	u3491
  6911     0CE5  2CE7               	goto	u3490
  6912     0CE6                     u3491:
  6913     0CE6  2CF0               	goto	l2773
  6914     0CE7                     u3490:
  6915     0CE7                     l2769:
  6916     0CE7  3000               	movlw	0
  6917     0CE8  00BD               	movwf	?___fldiv+3
  6918     0CE9  3000               	movlw	0
  6919     0CEA  00BC               	movwf	?___fldiv+2
  6920     0CEB  3000               	movlw	0
  6921     0CEC  00BB               	movwf	?___fldiv+1
  6922     0CED  3000               	movlw	0
  6923     0CEE  00BA               	movwf	?___fldiv
  6924     0CEF  2E19               	goto	l747
  6925     0CF0                     l2773:
  6926     0CF0  0852               	movf	___fldiv@bexp,w
  6927     0CF1  00C2               	movwf	??___fldiv
  6928     0CF2  01C3               	clrf	??___fldiv+1
  6929     0CF3  0843               	movf	??___fldiv+1,w
  6930     0CF4  00C5               	movwf	??___fldiv+3
  6931     0CF5  0853               	movf	___fldiv@aexp,w
  6932     0CF6  0242               	subwf	??___fldiv,w
  6933     0CF7  00C4               	movwf	??___fldiv+2
  6934     0CF8  1C03               	skipc
  6935     0CF9  03C5               	decf	??___fldiv+3,f
  6936     0CFA  0844               	movf	??___fldiv+2,w
  6937     0CFB  3E7F               	addlw	127
  6938     0CFC  00CC               	movwf	___fldiv@new_exp
  6939     0CFD  3000               	movlw	0
  6940     0CFE  3D45               	addwfc	??___fldiv+3,w
  6941     0CFF  00CD               	movwf	___fldiv@new_exp+1
  6942     0D00                     l2775:
  6943     0D00  0841               	movf	___fldiv@b+3,w
  6944     0D01  00CA               	movwf	___fldiv@rem+3
  6945     0D02  0840               	movf	___fldiv@b+2,w
  6946     0D03  00C9               	movwf	___fldiv@rem+2
  6947     0D04  083F               	movf	___fldiv@b+1,w
  6948     0D05  00C8               	movwf	___fldiv@rem+1
  6949     0D06  083E               	movf	___fldiv@b,w
  6950     0D07  00C7               	movwf	___fldiv@rem
  6951     0D08                     l2777:
  6952     0D08  3000               	movlw	0
  6953     0D09  00C1               	movwf	___fldiv@b+3
  6954     0D0A  3000               	movlw	0
  6955     0D0B  00C0               	movwf	___fldiv@b+2
  6956     0D0C  3000               	movlw	0
  6957     0D0D  00BF               	movwf	___fldiv@b+1
  6958     0D0E  3000               	movlw	0
  6959     0D0F  00BE               	movwf	___fldiv@b
  6960     0D10                     l2779:
  6961     0D10  3000               	movlw	0
  6962     0D11  00D1               	movwf	___fldiv@grs+3
  6963     0D12  3000               	movlw	0
  6964     0D13  00D0               	movwf	___fldiv@grs+2
  6965     0D14  3000               	movlw	0
  6966     0D15  00CF               	movwf	___fldiv@grs+1
  6967     0D16  3000               	movlw	0
  6968     0D17  00CE               	movwf	___fldiv@grs
  6969     0D18                     l2781:
  6970     0D18  01D3               	clrf	___fldiv@aexp
  6971     0D19  2D58               	goto	l2801
  6972     0D1A                     l2783:
  6973     0D1A  0853               	movf	___fldiv@aexp,w
  6974     0D1B  1903               	btfsc	3,2
  6975     0D1C  2D1E               	goto	u3501
  6976     0D1D  2D1F               	goto	u3500
  6977     0D1E                     u3501:
  6978     0D1E  2D39               	goto	l2793
  6979     0D1F                     u3500:
  6980     0D1F                     l2785:
  6981     0D1F  3001               	movlw	1
  6982     0D20                     u3515:
  6983     0D20  35C7               	lslf	___fldiv@rem,f
  6984     0D21  0DC8               	rlf	___fldiv@rem+1,f
  6985     0D22  0DC9               	rlf	___fldiv@rem+2,f
  6986     0D23  0DCA               	rlf	___fldiv@rem+3,f
  6987     0D24  0B89               	decfsz	9,f
  6988     0D25  2D20               	goto	u3515
  6989     0D26  3001               	movlw	1
  6990     0D27                     u3525:
  6991     0D27  35BE               	lslf	___fldiv@b,f
  6992     0D28  0DBF               	rlf	___fldiv@b+1,f
  6993     0D29  0DC0               	rlf	___fldiv@b+2,f
  6994     0D2A  0DC1               	rlf	___fldiv@b+3,f
  6995     0D2B  0B89               	decfsz	9,f
  6996     0D2C  2D27               	goto	u3525
  6997     0D2D                     l2787:
  6998     0D2D  1FD1               	btfss	___fldiv@grs+3,7
  6999     0D2E  2D30               	goto	u3531
  7000     0D2F  2D31               	goto	u3530
  7001     0D30                     u3531:
  7002     0D30  2D32               	goto	l2791
  7003     0D31                     u3530:
  7004     0D31                     l2789:
  7005     0D31  143E               	bsf	___fldiv@b,0
  7006     0D32                     l2791:
  7007     0D32  3001               	movlw	1
  7008     0D33                     u3545:
  7009     0D33  35CE               	lslf	___fldiv@grs,f
  7010     0D34  0DCF               	rlf	___fldiv@grs+1,f
  7011     0D35  0DD0               	rlf	___fldiv@grs+2,f
  7012     0D36  0DD1               	rlf	___fldiv@grs+3,f
  7013     0D37  0B89               	decfsz	9,f
  7014     0D38  2D33               	goto	u3545
  7015     0D39                     l2793:
  7016     0D39  083D               	movf	___fldiv@a+3,w
  7017     0D3A  024A               	subwf	___fldiv@rem+3,w
  7018     0D3B  1D03               	skipz
  7019     0D3C  2D47               	goto	u3555
  7020     0D3D  083C               	movf	___fldiv@a+2,w
  7021     0D3E  0249               	subwf	___fldiv@rem+2,w
  7022     0D3F  1D03               	skipz
  7023     0D40  2D47               	goto	u3555
  7024     0D41  083B               	movf	___fldiv@a+1,w
  7025     0D42  0248               	subwf	___fldiv@rem+1,w
  7026     0D43  1D03               	skipz
  7027     0D44  2D47               	goto	u3555
  7028     0D45  083A               	movf	___fldiv@a,w
  7029     0D46  0247               	subwf	___fldiv@rem,w
  7030     0D47                     u3555:
  7031     0D47  1C03               	skipc
  7032     0D48  2D4A               	goto	u3551
  7033     0D49  2D4B               	goto	u3550
  7034     0D4A                     u3551:
  7035     0D4A  2D54               	goto	l2799
  7036     0D4B                     u3550:
  7037     0D4B                     l2795:
  7038     0D4B  1751               	bsf	___fldiv@grs+3,6
  7039     0D4C                     l2797:
  7040     0D4C  083A               	movf	___fldiv@a,w
  7041     0D4D  02C7               	subwf	___fldiv@rem,f
  7042     0D4E  083B               	movf	___fldiv@a+1,w
  7043     0D4F  3BC8               	subwfb	___fldiv@rem+1,f
  7044     0D50  083C               	movf	___fldiv@a+2,w
  7045     0D51  3BC9               	subwfb	___fldiv@rem+2,f
  7046     0D52  083D               	movf	___fldiv@a+3,w
  7047     0D53  3BCA               	subwfb	___fldiv@rem+3,f
  7048     0D54                     l2799:
  7049     0D54  3001               	movlw	1
  7050     0D55  00C2               	movwf	??___fldiv
  7051     0D56  0842               	movf	??___fldiv,w
  7052     0D57  07D3               	addwf	___fldiv@aexp,f
  7053     0D58                     l2801:
  7054     0D58  301A               	movlw	26
  7055     0D59  0253               	subwf	___fldiv@aexp,w
  7056     0D5A  1C03               	skipc
  7057     0D5B  2D5D               	goto	u3561
  7058     0D5C  2D5E               	goto	u3560
  7059     0D5D                     u3561:
  7060     0D5D  2D1A               	goto	l2783
  7061     0D5E                     u3560:
  7062     0D5E                     l2803:
  7063     0D5E  084A               	movf	___fldiv@rem+3,w
  7064     0D5F  0449               	iorwf	___fldiv@rem+2,w
  7065     0D60  0448               	iorwf	___fldiv@rem+1,w
  7066     0D61  0447               	iorwf	___fldiv@rem,w
  7067     0D62  1903               	skipnz
  7068     0D63  2D65               	goto	u3571
  7069     0D64  2D66               	goto	u3570
  7070     0D65                     u3571:
  7071     0D65  2D7F               	goto	l2817
  7072     0D66                     u3570:
  7073     0D66                     l2805:
  7074     0D66  144E               	bsf	___fldiv@grs,0
  7075     0D67  2D7F               	goto	l2817
  7076     0D68                     l2807:
  7077     0D68  3001               	movlw	1
  7078     0D69                     u3585:
  7079     0D69  35BE               	lslf	___fldiv@b,f
  7080     0D6A  0DBF               	rlf	___fldiv@b+1,f
  7081     0D6B  0DC0               	rlf	___fldiv@b+2,f
  7082     0D6C  0DC1               	rlf	___fldiv@b+3,f
  7083     0D6D  0B89               	decfsz	9,f
  7084     0D6E  2D69               	goto	u3585
  7085     0D6F                     l2809:
  7086     0D6F  1FD1               	btfss	___fldiv@grs+3,7
  7087     0D70  2D72               	goto	u3591
  7088     0D71  2D73               	goto	u3590
  7089     0D72                     u3591:
  7090     0D72  2D74               	goto	l2813
  7091     0D73                     u3590:
  7092     0D73                     l2811:
  7093     0D73  143E               	bsf	___fldiv@b,0
  7094     0D74                     l2813:
  7095     0D74  3001               	movlw	1
  7096     0D75                     u3605:
  7097     0D75  35CE               	lslf	___fldiv@grs,f
  7098     0D76  0DCF               	rlf	___fldiv@grs+1,f
  7099     0D77  0DD0               	rlf	___fldiv@grs+2,f
  7100     0D78  0DD1               	rlf	___fldiv@grs+3,f
  7101     0D79  0B89               	decfsz	9,f
  7102     0D7A  2D75               	goto	u3605
  7103     0D7B                     l2815:
  7104     0D7B  30FF               	movlw	255
  7105     0D7C  07CC               	addwf	___fldiv@new_exp,f
  7106     0D7D  30FF               	movlw	255
  7107     0D7E  3DCD               	addwfc	___fldiv@new_exp+1,f
  7108     0D7F                     l2817:
  7109     0D7F  1FC0               	btfss	___fldiv@b+2,7
  7110     0D80  2D82               	goto	u3611
  7111     0D81  2D83               	goto	u3610
  7112     0D82                     u3611:
  7113     0D82  2D68               	goto	l2807
  7114     0D83                     u3610:
  7115     0D83                     l2819:
  7116     0D83  01D3               	clrf	___fldiv@aexp
  7117     0D84                     l2821:
  7118     0D84  1FD1               	btfss	___fldiv@grs+3,7
  7119     0D85  2D87               	goto	u3621
  7120     0D86  2D88               	goto	u3620
  7121     0D87                     u3621:
  7122     0D87  2DA4               	goto	l2829
  7123     0D88                     u3620:
  7124     0D88                     l2823:
  7125     0D88  30FF               	movlw	255
  7126     0D89  054E               	andwf	___fldiv@grs,w
  7127     0D8A  00C2               	movwf	??___fldiv
  7128     0D8B  30FF               	movlw	255
  7129     0D8C  054F               	andwf	___fldiv@grs+1,w
  7130     0D8D  00C3               	movwf	??___fldiv+1
  7131     0D8E  30FF               	movlw	255
  7132     0D8F  0550               	andwf	___fldiv@grs+2,w
  7133     0D90  00C4               	movwf	??___fldiv+2
  7134     0D91  307F               	movlw	127
  7135     0D92  0551               	andwf	___fldiv@grs+3,w
  7136     0D93  00C5               	movwf	??___fldiv+3
  7137     0D94  0845               	movf	??___fldiv+3,w
  7138     0D95  0444               	iorwf	??___fldiv+2,w
  7139     0D96  0443               	iorwf	??___fldiv+1,w
  7140     0D97  0442               	iorwf	??___fldiv,w
  7141     0D98  1903               	skipnz
  7142     0D99  2D9B               	goto	u3631
  7143     0D9A  2D9C               	goto	u3630
  7144     0D9B                     u3631:
  7145     0D9B  2D9F               	goto	l761
  7146     0D9C                     u3630:
  7147     0D9C                     l2825:
  7148     0D9C  01D3               	clrf	___fldiv@aexp
  7149     0D9D  0AD3               	incf	___fldiv@aexp,f
  7150     0D9E  2DA4               	goto	l2829
  7151     0D9F                     l761:
  7152     0D9F  1C3E               	btfss	___fldiv@b,0
  7153     0DA0  2DA2               	goto	u3641
  7154     0DA1  2DA3               	goto	u3640
  7155     0DA2                     u3641:
  7156     0DA2  2DA4               	goto	l2829
  7157     0DA3                     u3640:
  7158     0DA3  2D9C               	goto	l2825
  7159     0DA4                     l2829:
  7160     0DA4  0853               	movf	___fldiv@aexp,w
  7161     0DA5  1903               	btfsc	3,2
  7162     0DA6  2DA8               	goto	u3651
  7163     0DA7  2DA9               	goto	u3650
  7164     0DA8                     u3651:
  7165     0DA8  2DD1               	goto	l2839
  7166     0DA9                     u3650:
  7167     0DA9                     l2831:
  7168     0DA9  3001               	movlw	1
  7169     0DAA  07BE               	addwf	___fldiv@b,f
  7170     0DAB  3000               	movlw	0
  7171     0DAC  3DBF               	addwfc	___fldiv@b+1,f
  7172     0DAD  3000               	movlw	0
  7173     0DAE  3DC0               	addwfc	___fldiv@b+2,f
  7174     0DAF  3000               	movlw	0
  7175     0DB0  3DC1               	addwfc	___fldiv@b+3,f
  7176     0DB1                     l2833:
  7177     0DB1  1C41               	btfss	___fldiv@b+3,0
  7178     0DB2  2DB4               	goto	u3661
  7179     0DB3  2DB5               	goto	u3660
  7180     0DB4                     u3661:
  7181     0DB4  2DD1               	goto	l2839
  7182     0DB5                     u3660:
  7183     0DB5                     l2835:
  7184     0DB5  083E               	movf	___fldiv@b,w
  7185     0DB6  00C2               	movwf	??___fldiv
  7186     0DB7  083F               	movf	___fldiv@b+1,w
  7187     0DB8  00C3               	movwf	??___fldiv+1
  7188     0DB9  0840               	movf	___fldiv@b+2,w
  7189     0DBA  00C4               	movwf	??___fldiv+2
  7190     0DBB  0841               	movf	___fldiv@b+3,w
  7191     0DBC  00C5               	movwf	??___fldiv+3
  7192     0DBD  3001               	movlw	1
  7193     0DBE  00C6               	movwf	??___fldiv+4
  7194     0DBF                     u3675:
  7195     0DBF  37C5               	asrf	??___fldiv+3,f
  7196     0DC0  0CC4               	rrf	??___fldiv+2,f
  7197     0DC1  0CC3               	rrf	??___fldiv+1,f
  7198     0DC2  0CC2               	rrf	??___fldiv,f
  7199     0DC3                     u3670:
  7200     0DC3  0BC6               	decfsz	??___fldiv+4,f
  7201     0DC4  2DBF               	goto	u3675
  7202     0DC5  0845               	movf	??___fldiv+3,w
  7203     0DC6  00C1               	movwf	___fldiv@b+3
  7204     0DC7  0844               	movf	??___fldiv+2,w
  7205     0DC8  00C0               	movwf	___fldiv@b+2
  7206     0DC9  0843               	movf	??___fldiv+1,w
  7207     0DCA  00BF               	movwf	___fldiv@b+1
  7208     0DCB  0842               	movf	??___fldiv,w
  7209     0DCC  00BE               	movwf	___fldiv@b
  7210     0DCD                     l2837:
  7211     0DCD  3001               	movlw	1
  7212     0DCE  07CC               	addwf	___fldiv@new_exp,f
  7213     0DCF  3000               	movlw	0
  7214     0DD0  3DCD               	addwfc	___fldiv@new_exp+1,f
  7215     0DD1                     l2839:
  7216     0DD1  084D               	movf	___fldiv@new_exp+1,w
  7217     0DD2  3A80               	xorlw	128
  7218     0DD3  00C2               	movwf	??___fldiv
  7219     0DD4  3080               	movlw	128
  7220     0DD5  0242               	subwf	??___fldiv,w
  7221     0DD6  1D03               	skipz
  7222     0DD7  2DDA               	goto	u3685
  7223     0DD8  30FF               	movlw	255
  7224     0DD9  024C               	subwf	___fldiv@new_exp,w
  7225     0DDA                     u3685:
  7226     0DDA  1C03               	skipc
  7227     0DDB  2DDD               	goto	u3681
  7228     0DDC  2DDE               	goto	u3680
  7229     0DDD                     u3681:
  7230     0DDD  2DEB               	goto	l766
  7231     0DDE                     u3680:
  7232     0DDE                     l2841:
  7233     0DDE  30FF               	movlw	255
  7234     0DDF  0020               	movlb	0	; select bank0
  7235     0DE0  00CC               	movwf	___fldiv@new_exp
  7236     0DE1  3000               	movlw	0
  7237     0DE2  00CD               	movwf	___fldiv@new_exp+1
  7238     0DE3  3000               	movlw	0
  7239     0DE4  00C1               	movwf	___fldiv@b+3
  7240     0DE5  3000               	movlw	0
  7241     0DE6  00C0               	movwf	___fldiv@b+2
  7242     0DE7  3000               	movlw	0
  7243     0DE8  00BF               	movwf	___fldiv@b+1
  7244     0DE9  3000               	movlw	0
  7245     0DEA  00BE               	movwf	___fldiv@b
  7246     0DEB                     l766:
  7247     0DEB  0020               	movlb	0	; select bank0
  7248     0DEC  084D               	movf	___fldiv@new_exp+1,w
  7249     0DED  3A80               	xorlw	128
  7250     0DEE  00C2               	movwf	??___fldiv
  7251     0DEF  3080               	movlw	128
  7252     0DF0  0242               	subwf	??___fldiv,w
  7253     0DF1  1D03               	skipz
  7254     0DF2  2DF5               	goto	u3695
  7255     0DF3  3001               	movlw	1
  7256     0DF4  024C               	subwf	___fldiv@new_exp,w
  7257     0DF5                     u3695:
  7258     0DF5  1803               	skipnc
  7259     0DF6  2DF8               	goto	u3691
  7260     0DF7  2DF9               	goto	u3690
  7261     0DF8                     u3691:
  7262     0DF8  2E05               	goto	l767
  7263     0DF9                     u3690:
  7264     0DF9                     l2843:
  7265     0DF9  0020               	movlb	0	; select bank0
  7266     0DFA  01CC               	clrf	___fldiv@new_exp
  7267     0DFB  01CD               	clrf	___fldiv@new_exp+1
  7268     0DFC                     l2845:
  7269     0DFC  3000               	movlw	0
  7270     0DFD  00C1               	movwf	___fldiv@b+3
  7271     0DFE  3000               	movlw	0
  7272     0DFF  00C0               	movwf	___fldiv@b+2
  7273     0E00  3000               	movlw	0
  7274     0E01  00BF               	movwf	___fldiv@b+1
  7275     0E02  3000               	movlw	0
  7276     0E03  00BE               	movwf	___fldiv@b
  7277     0E04                     l2847:
  7278     0E04  01CB               	clrf	___fldiv@sign
  7279     0E05                     l767:
  7280     0E05  0020               	movlb	0	; select bank0
  7281     0E06  084C               	movf	___fldiv@new_exp,w
  7282     0E07  00D2               	movwf	___fldiv@bexp
  7283     0E08                     l2849:
  7284     0E08  1C52               	btfss	___fldiv@bexp,0
  7285     0E09  2E0B               	goto	u3701
  7286     0E0A  2E0C               	goto	u3700
  7287     0E0B                     u3701:
  7288     0E0B  2E0E               	goto	l2853
  7289     0E0C                     u3700:
  7290     0E0C                     l2851:
  7291     0E0C  17C0               	bsf	___fldiv@b+2,7
  7292     0E0D  2E12               	goto	l769
  7293     0E0E                     l2853:
  7294     0E0E  307F               	movlw	127
  7295     0E0F  00C2               	movwf	??___fldiv
  7296     0E10  0842               	movf	??___fldiv,w
  7297     0E11  05C0               	andwf	___fldiv@b+2,f
  7298     0E12                     l769:
  7299     0E12  3652               	lsrf	___fldiv@bexp,w
  7300     0E13  00C1               	movwf	___fldiv@b+3
  7301     0E14  084B               	movf	___fldiv@sign,w
  7302     0E15  00C2               	movwf	??___fldiv
  7303     0E16  0842               	movf	??___fldiv,w
  7304     0E17  04C1               	iorwf	___fldiv@b+3,f
  7305     0E18  2CD9               	goto	l2763
  7306     0E19                     l747:
  7307     0E19  0008               	return
  7308     0E1A                     __end_of___fldiv:
  7309                           
  7310                           	psect	text17
  7311     174F                     __ptext17:	
  7312 ;; *************** function _ReadTimer0WithOverflows *****************
  7313 ;; Defined at:
  7314 ;;		line 85 in file "main.c"
  7315 ;; Parameters:    Size  Location     Type
  7316 ;;		None
  7317 ;; Auto vars:     Size  Location     Type
  7318 ;;		None
  7319 ;; Return value:  Size  Location     Type
  7320 ;;                  2    0[COMMON] unsigned short 
  7321 ;; Registers used:
  7322 ;;		wreg, status,2, status,0
  7323 ;; Tracked objects:
  7324 ;;		On entry : 0/0
  7325 ;;		On exit  : 0/0
  7326 ;;		Unchanged: 0/0
  7327 ;; Data sizes:     COMMON   BANK0   BANK1   BANK2   BANK3   BANK4   BANK5   BANK6   BANK7   BANK8   BANK9  BANK10  BANK1
      +1  BANK12  BANK13  BANK14  BANK15  BANK16  BANK17  BANK18  BANK19  BANK20  BANK21  BANK22  BANK23  BANK24  BANK25
  7328 ;;      Params:         2       0       0       0       0       0       0       0       0       0       0       0       
      +0       0       0       0       0       0       0       0       0       0       0       0       0       0       0
  7329 ;;      Locals:         0       0       0       0       0       0       0       0       0       0       0       0       
      +0       0       0       0       0       0       0       0       0       0       0       0       0       0       0
  7330 ;;      Temps:          6       0       0       0       0       0       0       0       0       0       0       0       
      +0       0       0       0       0       0       0       0       0       0       0       0       0       0       0
  7331 ;;      Totals:         8       0       0       0       0       0       0       0       0       0       0       0       
      +0       0       0       0       0       0       0       0       0       0       0       0       0       0       0
  7332 ;;Total ram usage:        8 bytes
  7333 ;; Hardware stack levels used: 1
  7334 ;; Hardware stack levels required when called: 1
  7335 ;; This function calls:
  7336 ;;		Nothing
  7337 ;; This function is called by:
  7338 ;;		_calibrate
  7339 ;;		_main
  7340 ;; This function uses a non-reentrant model
  7341 ;;
  7342                           
  7343     174F                     _ReadTimer0WithOverflows:	
  7344                           ;psect for function _ReadTimer0WithOverflows
  7345                           
  7346     174F                     l2709:	
  7347                           ;incstack = 0
  7348                           ; Regs used in _ReadTimer0WithOverflows: [wreg+status,2+status,0]
  7349                           
  7350                           
  7351                           ;main.c: 86:     return (tmr0_overflows * 256) + TMR0;
  7352     174F  0020               	movlb	0	; select bank0
  7353     1750  0815               	movf	21,w	;volatile
  7354     1751  00F2               	movwf	??_ReadTimer0WithOverflows
  7355     1752  01F3               	clrf	??_ReadTimer0WithOverflows+1
  7356     1753  0021               	movlb	1	; select bank1
  7357     1754  0869               	movf	_tmr0_overflows^(0+128),w	;volatile
  7358     1755  00F5               	movwf	??_ReadTimer0WithOverflows+3
  7359     1756  01F4               	clrf	??_ReadTimer0WithOverflows+2
  7360     1757  0872               	movf	??_ReadTimer0WithOverflows,w
  7361     1758  0774               	addwf	??_ReadTimer0WithOverflows+2,w
  7362     1759  00F6               	movwf	??_ReadTimer0WithOverflows+4
  7363     175A  0873               	movf	??_ReadTimer0WithOverflows+1,w
  7364     175B  3D75               	addwfc	??_ReadTimer0WithOverflows+3,w
  7365     175C  00F7               	movwf	??_ReadTimer0WithOverflows+5
  7366     175D  0876               	movf	??_ReadTimer0WithOverflows+4,w
  7367     175E  00F0               	movwf	?_ReadTimer0WithOverflows
  7368     175F  0877               	movf	??_ReadTimer0WithOverflows+5,w
  7369     1760  00F1               	movwf	?_ReadTimer0WithOverflows+1
  7370     1761                     l50:
  7371     1761  0008               	return
  7372     1762                     __end_of_ReadTimer0WithOverflows:
  7373                           
  7374                           	psect	text18
  7375     17AC                     __ptext18:	
  7376 ;; *************** function _Lcd_Write_Integer *****************
  7377 ;; Defined at:
  7378 ;;		line 283 in file "SC1601_LCD.c"
  7379 ;; Parameters:    Size  Location     Type
  7380 ;;  v               2   36[BANK0 ] int 
  7381 ;; Auto vars:     Size  Location     Type
  7382 ;;  buf             8   38[BANK0 ] unsigned char [8]
  7383 ;; Return value:  Size  Location     Type
  7384 ;;                  1    wreg      void 
  7385 ;; Registers used:
  7386 ;;		wreg, fsr0l, fsr0h, fsr1l, fsr1h, status,2, status,0, pclath, cstack
  7387 ;; Tracked objects:
  7388 ;;		On entry : 0/0
  7389 ;;		On exit  : 0/0
  7390 ;;		Unchanged: 0/0
  7391 ;; Data sizes:     COMMON   BANK0   BANK1   BANK2   BANK3   BANK4   BANK5   BANK6   BANK7   BANK8   BANK9  BANK10  BANK1
      +1  BANK12  BANK13  BANK14  BANK15  BANK16  BANK17  BANK18  BANK19  BANK20  BANK21  BANK22  BANK23  BANK24  BANK25
  7392 ;;      Params:         0       2       0       0       0       0       0       0       0       0       0       0       
      +0       0       0       0       0       0       0       0       0       0       0       0       0       0       0
  7393 ;;      Locals:         0       8       0       0       0       0       0       0       0       0       0       0       
      +0       0       0       0       0       0       0       0       0       0       0       0       0       0       0
  7394 ;;      Temps:          0       0       0       0       0       0       0       0       0       0       0       0       
      +0       0       0       0       0       0       0       0       0       0       0       0       0       0       0
  7395 ;;      Totals:         0      10       0       0       0       0       0       0       0       0       0       0       
      +0       0       0       0       0       0       0       0       0       0       0       0       0       0       0
  7396 ;;Total ram usage:       10 bytes
  7397 ;; Hardware stack levels used: 1
  7398 ;; Hardware stack levels required when called: 4
  7399 ;; This function calls:
  7400 ;;		_Lcd_Write_String
  7401 ;;		_itoa
  7402 ;; This function is called by:
  7403 ;;		_calibrate
  7404 ;;		_displayResults
  7405 ;; This function uses a non-reentrant model
  7406 ;;
  7407                           
  7408     17AC                     _Lcd_Write_Integer:	
  7409                           ;psect for function _Lcd_Write_Integer
  7410                           
  7411     17AC                     l3303:	
  7412                           ;incstack = 0
  7413                           ; Regs used in _Lcd_Write_Integer: [wreg-fsr1h+status,2+status,0+pclath+cstack]
  7414                           
  7415                           
  7416                           ;SC1601_LCD.c: 283: void Lcd_Write_Integer(int v);SC1601_LCD.c: 284: {;SC1601_LCD.c: 285
      +                          :     char buf[8];;SC1601_LCD.c: 286:     Lcd_Write_String(itoa(buf, v, 10));
  7417     17AC  3046               	movlw	low Lcd_Write_Integer@buf
  7418     17AD  0020               	movlb	0	; select bank0
  7419     17AE  00A0               	movwf	itoa@buf
  7420     17AF  3000               	movlw	high Lcd_Write_Integer@buf
  7421     17B0  00A1               	movwf	itoa@buf+1
  7422     17B1  0845               	movf	Lcd_Write_Integer@v+1,w
  7423     17B2  00A3               	movwf	itoa@value+1
  7424     17B3  0844               	movf	Lcd_Write_Integer@v,w
  7425     17B4  00A2               	movwf	itoa@value
  7426     17B5  300A               	movlw	10
  7427     17B6  00A4               	movwf	itoa@base
  7428     17B7  3000               	movlw	0
  7429     17B8  00A5               	movwf	itoa@base+1
  7430     17B9  318A  228B  3197   	fcall	_itoa
  7431     17BC  0020               	movlb	0	; select bank0
  7432     17BD  0821               	movf	?_itoa+1,w
  7433     17BE  00AE               	movwf	Lcd_Write_String@str+1
  7434     17BF  0820               	movf	?_itoa,w
  7435     17C0  00AD               	movwf	Lcd_Write_String@str
  7436     17C1  3197  2793  3197   	fcall	_Lcd_Write_String
  7437     17C4                     l166:
  7438     17C4  0008               	return
  7439     17C5                     __end_of_Lcd_Write_Integer:
  7440                           
  7441                           	psect	text19
  7442     0A8B                     __ptext19:	
  7443 ;; *************** function _itoa *****************
  7444 ;; Defined at:
  7445 ;;		line 201 in file "SC1601_LCD.c"
  7446 ;; Parameters:    Size  Location     Type
  7447 ;;  buf             2    0[BANK0 ] PTR unsigned char 
  7448 ;;		 -> Lcd_Write_Integer@buf(8), ftoa@buf(16), 
  7449 ;;  value           2    2[BANK0 ] int 
  7450 ;;  base            2    4[BANK0 ] int 
  7451 ;; Auto vars:     Size  Location     Type
  7452 ;;  ptr             2   11[BANK0 ] PTR unsigned char 
  7453 ;;		 -> Lcd_Write_Integer@buf(8), ftoa@buf(16), 
  7454 ;;  ptr1            2    9[BANK0 ] PTR unsigned char 
  7455 ;;		 -> Lcd_Write_Integer@buf(8), ftoa@buf(16), 
  7456 ;;  tmp_value       2    6[BANK0 ] int 
  7457 ;;  tmp_char        1    8[BANK0 ] unsigned char 
  7458 ;; Return value:  Size  Location     Type
  7459 ;;                  2    0[BANK0 ] PTR unsigned char 
  7460 ;; Registers used:
  7461 ;;		wreg, fsr0l, fsr0h, fsr1l, fsr1h, status,2, status,0, pclath, cstack
  7462 ;; Tracked objects:
  7463 ;;		On entry : 0/0
  7464 ;;		On exit  : 0/0
  7465 ;;		Unchanged: 0/0
  7466 ;; Data sizes:     COMMON   BANK0   BANK1   BANK2   BANK3   BANK4   BANK5   BANK6   BANK7   BANK8   BANK9  BANK10  BANK1
      +1  BANK12  BANK13  BANK14  BANK15  BANK16  BANK17  BANK18  BANK19  BANK20  BANK21  BANK22  BANK23  BANK24  BANK25
  7467 ;;      Params:         0       6       0       0       0       0       0       0       0       0       0       0       
      +0       0       0       0       0       0       0       0       0       0       0       0       0       0       0
  7468 ;;      Locals:         0       7       0       0       0       0       0       0       0       0       0       0       
      +0       0       0       0       0       0       0       0       0       0       0       0       0       0       0
  7469 ;;      Temps:          5       0       0       0       0       0       0       0       0       0       0       0       
      +0       0       0       0       0       0       0       0       0       0       0       0       0       0       0
  7470 ;;      Totals:         5      13       0       0       0       0       0       0       0       0       0       0       
      +0       0       0       0       0       0       0       0       0       0       0       0       0       0       0
  7471 ;;Total ram usage:       18 bytes
  7472 ;; Hardware stack levels used: 1
  7473 ;; Hardware stack levels required when called: 2
  7474 ;; This function calls:
  7475 ;;		___awdiv
  7476 ;;		___wmul
  7477 ;; This function is called by:
  7478 ;;		_ftoa
  7479 ;;		_Lcd_Write_Integer
  7480 ;; This function uses a non-reentrant model
  7481 ;;
  7482                           
  7483     0A8B                     _itoa:	
  7484                           ;psect for function _itoa
  7485                           
  7486     0A8B                     l3223:	
  7487                           ;incstack = 0
  7488                           ; Regs used in _itoa: [wreg-fsr1h+status,2+status,0+pclath+cstack]
  7489                           
  7490                           
  7491                           ;SC1601_LCD.c: 202:     char* ptr = buf;
  7492     0A8B  0020               	movlb	0	; select bank0
  7493     0A8C  0821               	movf	itoa@buf+1,w
  7494     0A8D  00AC               	movwf	itoa@ptr+1
  7495     0A8E  0820               	movf	itoa@buf,w
  7496     0A8F  00AB               	movwf	itoa@ptr
  7497                           
  7498                           ;SC1601_LCD.c: 203:     char* ptr1 = buf;
  7499     0A90  0821               	movf	itoa@buf+1,w
  7500     0A91  00AA               	movwf	itoa@ptr1+1
  7501     0A92  0820               	movf	itoa@buf,w
  7502     0A93  00A9               	movwf	itoa@ptr1
  7503     0A94                     l3225:
  7504                           
  7505                           ;SC1601_LCD.c: 204:     char tmp_char;;SC1601_LCD.c: 205:     int tmp_value;;SC1601_LCD.
      +                          c: 208:     if (value < 0 && base == 10) {
  7506     0A94  1FA3               	btfss	itoa@value+1,7
  7507     0A95  2A97               	goto	u4091
  7508     0A96  2A98               	goto	u4090
  7509     0A97                     u4091:
  7510     0A97  2AAE               	goto	l3235
  7511     0A98                     u4090:
  7512     0A98                     l3227:
  7513     0A98  300A               	movlw	10
  7514     0A99  0624               	xorwf	itoa@base,w
  7515     0A9A  0425               	iorwf	itoa@base+1,w
  7516     0A9B  1D03               	btfss	3,2
  7517     0A9C  2A9E               	goto	u4101
  7518     0A9D  2A9F               	goto	u4100
  7519     0A9E                     u4101:
  7520     0A9E  2AAE               	goto	l3235
  7521     0A9F                     u4100:
  7522     0A9F                     l3229:
  7523                           
  7524                           ;SC1601_LCD.c: 209:         *ptr++ = '-';
  7525     0A9F  082B               	movf	itoa@ptr,w
  7526     0AA0  0086               	movwf	6
  7527     0AA1  082C               	movf	itoa@ptr+1,w
  7528     0AA2  0087               	movwf	7
  7529     0AA3  302D               	movlw	45
  7530     0AA4  0081               	movwf	1
  7531     0AA5                     l3231:
  7532     0AA5  3001               	movlw	1
  7533     0AA6  07AB               	addwf	itoa@ptr,f
  7534     0AA7  3000               	movlw	0
  7535     0AA8  3DAC               	addwfc	itoa@ptr+1,f
  7536     0AA9                     l3233:
  7537                           
  7538                           ;SC1601_LCD.c: 210:         value = -value;
  7539     0AA9  09A2               	comf	itoa@value,f
  7540     0AAA  09A3               	comf	itoa@value+1,f
  7541     0AAB  0AA2               	incf	itoa@value,f
  7542     0AAC  1903               	skipnz
  7543     0AAD  0AA3               	incf	itoa@value+1,f
  7544     0AAE                     l3235:
  7545                           
  7546                           ;SC1601_LCD.c: 215:         tmp_value = value;
  7547     0AAE  0823               	movf	itoa@value+1,w
  7548     0AAF  00A7               	movwf	itoa@tmp_value+1
  7549     0AB0  0822               	movf	itoa@value,w
  7550     0AB1  00A6               	movwf	itoa@tmp_value
  7551     0AB2                     l3237:
  7552                           
  7553                           ;SC1601_LCD.c: 216:         value /= base;
  7554     0AB2  0825               	movf	itoa@base+1,w
  7555     0AB3  00F1               	movwf	___awdiv@divisor+1
  7556     0AB4  0824               	movf	itoa@base,w
  7557     0AB5  00F0               	movwf	___awdiv@divisor
  7558     0AB6  0823               	movf	itoa@value+1,w
  7559     0AB7  00F3               	movwf	___awdiv@dividend+1
  7560     0AB8  0822               	movf	itoa@value,w
  7561     0AB9  00F2               	movwf	___awdiv@dividend
  7562     0ABA  3189  2131  318A   	fcall	___awdiv
  7563     0ABD  0871               	movf	?___awdiv+1,w
  7564     0ABE  0020               	movlb	0	; select bank0
  7565     0ABF  00A3               	movwf	itoa@value+1
  7566     0AC0  0870               	movf	?___awdiv,w
  7567     0AC1  00A2               	movwf	itoa@value
  7568     0AC2                     l3239:
  7569                           
  7570                           ;SC1601_LCD.c: 217:         *ptr++ = "0123456789ABCDEF"[tmp_value - (value * base)];
  7571     0AC2  0823               	movf	itoa@value+1,w
  7572     0AC3  00F1               	movwf	___wmul@multiplier+1
  7573     0AC4  0822               	movf	itoa@value,w
  7574     0AC5  00F0               	movwf	___wmul@multiplier
  7575     0AC6  0825               	movf	itoa@base+1,w
  7576     0AC7  00F3               	movwf	___wmul@multiplicand+1
  7577     0AC8  0824               	movf	itoa@base,w
  7578     0AC9  00F2               	movwf	___wmul@multiplicand
  7579     0ACA  3197  27E1  318A   	fcall	___wmul
  7580     0ACD  3000               	movlw	low (STR_14| (0+32768))
  7581     0ACE  00F9               	movwf	??_itoa
  7582     0ACF  3098               	movlw	high (STR_14| (0+32768))
  7583     0AD0  00FA               	movwf	??_itoa+1
  7584     0AD1  0870               	movf	?___wmul,w
  7585     0AD2  0279               	subwf	??_itoa,w
  7586     0AD3  00FB               	movwf	??_itoa+2
  7587     0AD4  0871               	movf	?___wmul+1,w
  7588     0AD5  3B7A               	subwfb	??_itoa+1,w
  7589     0AD6  00FC               	movwf	??_itoa+3
  7590     0AD7  087B               	movf	??_itoa+2,w
  7591     0AD8  0020               	movlb	0	; select bank0
  7592     0AD9  0726               	addwf	itoa@tmp_value,w
  7593     0ADA  0084               	movwf	4
  7594     0ADB  087C               	movf	??_itoa+3,w
  7595     0ADC  3D27               	addwfc	itoa@tmp_value+1,w
  7596     0ADD  0085               	movwf	5
  7597     0ADE  0800               	movf	0,w	;code access
  7598     0ADF  00FD               	movwf	??_itoa+4
  7599     0AE0  082B               	movf	itoa@ptr,w
  7600     0AE1  0086               	movwf	6
  7601     0AE2  082C               	movf	itoa@ptr+1,w
  7602     0AE3  0087               	movwf	7
  7603     0AE4  087D               	movf	??_itoa+4,w
  7604     0AE5  0081               	movwf	1
  7605     0AE6                     l3241:
  7606     0AE6  3001               	movlw	1
  7607     0AE7  07AB               	addwf	itoa@ptr,f
  7608     0AE8  3000               	movlw	0
  7609     0AE9  3DAC               	addwfc	itoa@ptr+1,f
  7610     0AEA                     l3243:
  7611                           
  7612                           ;SC1601_LCD.c: 218:     } while (value);
  7613     0AEA  0822               	movf	itoa@value,w
  7614     0AEB  0423               	iorwf	itoa@value+1,w
  7615     0AEC  1D03               	btfss	3,2
  7616     0AED  2AEF               	goto	u4111
  7617     0AEE  2AF0               	goto	u4110
  7618     0AEF                     u4111:
  7619     0AEF  2AAE               	goto	l3235
  7620     0AF0                     u4110:
  7621     0AF0                     l3245:
  7622                           
  7623                           ;SC1601_LCD.c: 221:     *ptr = '\0';
  7624     0AF0  082B               	movf	itoa@ptr,w
  7625     0AF1  0086               	movwf	6
  7626     0AF2  082C               	movf	itoa@ptr+1,w
  7627     0AF3  0087               	movwf	7
  7628     0AF4  0181               	clrf	1
  7629     0AF5                     l3247:
  7630                           
  7631                           ;SC1601_LCD.c: 224:     ptr--;
  7632     0AF5  3001               	movlw	1
  7633     0AF6  02AB               	subwf	itoa@ptr,f
  7634     0AF7  3000               	movlw	0
  7635     0AF8  3BAC               	subwfb	itoa@ptr+1,f
  7636                           
  7637                           ;SC1601_LCD.c: 225:     while (ptr1 < ptr) {
  7638     0AF9  2B1A               	goto	l151
  7639     0AFA                     l3249:
  7640                           
  7641                           ;SC1601_LCD.c: 226:         tmp_char = *ptr;
  7642     0AFA  082B               	movf	itoa@ptr,w
  7643     0AFB  0086               	movwf	6
  7644     0AFC  082C               	movf	itoa@ptr+1,w
  7645     0AFD  0087               	movwf	7
  7646     0AFE  0801               	movf	1,w
  7647     0AFF  00A8               	movwf	itoa@tmp_char
  7648                           
  7649                           ;SC1601_LCD.c: 227:         *ptr-- = *ptr1;
  7650     0B00  0829               	movf	itoa@ptr1,w
  7651     0B01  0086               	movwf	6
  7652     0B02  082A               	movf	itoa@ptr1+1,w
  7653     0B03  0087               	movwf	7
  7654     0B04  0801               	movf	1,w
  7655     0B05  00F9               	movwf	??_itoa
  7656     0B06  082B               	movf	itoa@ptr,w
  7657     0B07  0086               	movwf	6
  7658     0B08  082C               	movf	itoa@ptr+1,w
  7659     0B09  0087               	movwf	7
  7660     0B0A  0879               	movf	??_itoa,w
  7661     0B0B  0081               	movwf	1
  7662     0B0C                     l3251:
  7663     0B0C  3001               	movlw	1
  7664     0B0D  02AB               	subwf	itoa@ptr,f
  7665     0B0E  3000               	movlw	0
  7666     0B0F  3BAC               	subwfb	itoa@ptr+1,f
  7667     0B10                     l3253:
  7668                           
  7669                           ;SC1601_LCD.c: 228:         *ptr1++ = tmp_char;
  7670     0B10  0829               	movf	itoa@ptr1,w
  7671     0B11  0086               	movwf	6
  7672     0B12  082A               	movf	itoa@ptr1+1,w
  7673     0B13  0087               	movwf	7
  7674     0B14  0828               	movf	itoa@tmp_char,w
  7675     0B15  0081               	movwf	1
  7676     0B16  3001               	movlw	1
  7677     0B17  07A9               	addwf	itoa@ptr1,f
  7678     0B18  3000               	movlw	0
  7679     0B19  3DAA               	addwfc	itoa@ptr1+1,f
  7680     0B1A                     l151:	
  7681                           ;SC1601_LCD.c: 229:     }
  7682                           
  7683                           
  7684                           ;SC1601_LCD.c: 225:     while (ptr1 < ptr) {
  7685     0B1A  082C               	movf	itoa@ptr+1,w
  7686     0B1B  022A               	subwf	itoa@ptr1+1,w
  7687     0B1C  1D03               	skipz
  7688     0B1D  2B20               	goto	u4125
  7689     0B1E  082B               	movf	itoa@ptr,w
  7690     0B1F  0229               	subwf	itoa@ptr1,w
  7691     0B20                     u4125:
  7692     0B20  1C03               	skipc
  7693     0B21  2B23               	goto	u4121
  7694     0B22  2B24               	goto	u4120
  7695     0B23                     u4121:
  7696     0B23  2AFA               	goto	l3249
  7697     0B24                     u4120:
  7698     0B24                     l153:
  7699     0B24                     l154:	
  7700                           ;SC1601_LCD.c: 231:     return buf;
  7701                           
  7702     0B24  0008               	return
  7703     0B25                     __end_of_itoa:
  7704                           
  7705                           	psect	text20
  7706     17E1                     __ptext20:	
  7707 ;; *************** function ___wmul *****************
  7708 ;; Defined at:
  7709 ;;		line 15 in file "C:\Program Files\Microchip\xc8\v2.46\pic\sources\c99\common\Umul16.c"
  7710 ;; Parameters:    Size  Location     Type
  7711 ;;  multiplier      2    0[COMMON] unsigned int 
  7712 ;;  multiplicand    2    2[COMMON] unsigned int 
  7713 ;; Auto vars:     Size  Location     Type
  7714 ;;  product         2    4[COMMON] unsigned int 
  7715 ;; Return value:  Size  Location     Type
  7716 ;;                  2    0[COMMON] unsigned int 
  7717 ;; Registers used:
  7718 ;;		wreg, status,2, status,0
  7719 ;; Tracked objects:
  7720 ;;		On entry : 0/0
  7721 ;;		On exit  : 0/0
  7722 ;;		Unchanged: 0/0
  7723 ;; Data sizes:     COMMON   BANK0   BANK1   BANK2   BANK3   BANK4   BANK5   BANK6   BANK7   BANK8   BANK9  BANK10  BANK1
      +1  BANK12  BANK13  BANK14  BANK15  BANK16  BANK17  BANK18  BANK19  BANK20  BANK21  BANK22  BANK23  BANK24  BANK25
  7724 ;;      Params:         4       0       0       0       0       0       0       0       0       0       0       0       
      +0       0       0       0       0       0       0       0       0       0       0       0       0       0       0
  7725 ;;      Locals:         2       0       0       0       0       0       0       0       0       0       0       0       
      +0       0       0       0       0       0       0       0       0       0       0       0       0       0       0
  7726 ;;      Temps:          0       0       0       0       0       0       0       0       0       0       0       0       
      +0       0       0       0       0       0       0       0       0       0       0       0       0       0       0
  7727 ;;      Totals:         6       0       0       0       0       0       0       0       0       0       0       0       
      +0       0       0       0       0       0       0       0       0       0       0       0       0       0       0
  7728 ;;Total ram usage:        6 bytes
  7729 ;; Hardware stack levels used: 1
  7730 ;; Hardware stack levels required when called: 1
  7731 ;; This function calls:
  7732 ;;		Nothing
  7733 ;; This function is called by:
  7734 ;;		_itoa
  7735 ;;		_Lcd_Progress_Bar
  7736 ;; This function uses a non-reentrant model
  7737 ;;
  7738                           
  7739     17E1                     ___wmul:	
  7740                           ;psect for function ___wmul
  7741                           
  7742     17E1                     l2073:	
  7743                           ;incstack = 0
  7744                           ; Regs used in ___wmul: [wreg+status,2+status,0]
  7745                           
  7746     17E1  01F4               	clrf	___wmul@product
  7747     17E2  01F5               	clrf	___wmul@product+1
  7748     17E3                     l2075:
  7749     17E3  1C70               	btfss	___wmul@multiplier,0
  7750     17E4  2FE6               	goto	u2161
  7751     17E5  2FE7               	goto	u2160
  7752     17E6                     u2161:
  7753     17E6  2FEB               	goto	l388
  7754     17E7                     u2160:
  7755     17E7                     l2077:
  7756     17E7  0872               	movf	___wmul@multiplicand,w
  7757     17E8  07F4               	addwf	___wmul@product,f
  7758     17E9  0873               	movf	___wmul@multiplicand+1,w
  7759     17EA  3DF5               	addwfc	___wmul@product+1,f
  7760     17EB                     l388:
  7761     17EB  3001               	movlw	1
  7762     17EC                     u2175:
  7763     17EC  35F2               	lslf	___wmul@multiplicand,f
  7764     17ED  0DF3               	rlf	___wmul@multiplicand+1,f
  7765     17EE  0B89               	decfsz	9,f
  7766     17EF  2FEC               	goto	u2175
  7767     17F0                     l2079:
  7768     17F0  3001               	movlw	1
  7769     17F1                     u2185:
  7770     17F1  36F1               	lsrf	___wmul@multiplier+1,f
  7771     17F2  0CF0               	rrf	___wmul@multiplier,f
  7772     17F3  0B89               	decfsz	9,f
  7773     17F4  2FF1               	goto	u2185
  7774     17F5                     l2081:
  7775     17F5  0870               	movf	___wmul@multiplier,w
  7776     17F6  0471               	iorwf	___wmul@multiplier+1,w
  7777     17F7  1D03               	btfss	3,2
  7778     17F8  2FFA               	goto	u2191
  7779     17F9  2FFB               	goto	u2190
  7780     17FA                     u2191:
  7781     17FA  2FE3               	goto	l2075
  7782     17FB                     u2190:
  7783     17FB                     l2083:
  7784     17FB  0875               	movf	___wmul@product+1,w
  7785     17FC  00F1               	movwf	?___wmul+1
  7786     17FD  0874               	movf	___wmul@product,w
  7787     17FE  00F0               	movwf	?___wmul
  7788     17FF                     l390:
  7789     17FF  0008               	return
  7790     1800                     __end_of___wmul:
  7791                           
  7792                           	psect	text21
  7793     0931                     __ptext21:	
  7794 ;; *************** function ___awdiv *****************
  7795 ;; Defined at:
  7796 ;;		line 5 in file "C:\Program Files\Microchip\xc8\v2.46\pic\sources\c99\common\awdiv.c"
  7797 ;; Parameters:    Size  Location     Type
  7798 ;;  divisor         2    0[COMMON] int 
  7799 ;;  dividend        2    2[COMMON] int 
  7800 ;; Auto vars:     Size  Location     Type
  7801 ;;  quotient        2    7[COMMON] int 
  7802 ;;  sign            1    6[COMMON] unsigned char 
  7803 ;;  counter         1    5[COMMON] unsigned char 
  7804 ;; Return value:  Size  Location     Type
  7805 ;;                  2    0[COMMON] int 
  7806 ;; Registers used:
  7807 ;;		wreg, status,2, status,0
  7808 ;; Tracked objects:
  7809 ;;		On entry : 0/0
  7810 ;;		On exit  : 0/0
  7811 ;;		Unchanged: 0/0
  7812 ;; Data sizes:     COMMON   BANK0   BANK1   BANK2   BANK3   BANK4   BANK5   BANK6   BANK7   BANK8   BANK9  BANK10  BANK1
      +1  BANK12  BANK13  BANK14  BANK15  BANK16  BANK17  BANK18  BANK19  BANK20  BANK21  BANK22  BANK23  BANK24  BANK25
  7813 ;;      Params:         4       0       0       0       0       0       0       0       0       0       0       0       
      +0       0       0       0       0       0       0       0       0       0       0       0       0       0       0
  7814 ;;      Locals:         4       0       0       0       0       0       0       0       0       0       0       0       
      +0       0       0       0       0       0       0       0       0       0       0       0       0       0       0
  7815 ;;      Temps:          1       0       0       0       0       0       0       0       0       0       0       0       
      +0       0       0       0       0       0       0       0       0       0       0       0       0       0       0
  7816 ;;      Totals:         9       0       0       0       0       0       0       0       0       0       0       0       
      +0       0       0       0       0       0       0       0       0       0       0       0       0       0       0
  7817 ;;Total ram usage:        9 bytes
  7818 ;; Hardware stack levels used: 1
  7819 ;; Hardware stack levels required when called: 1
  7820 ;; This function calls:
  7821 ;;		Nothing
  7822 ;; This function is called by:
  7823 ;;		_itoa
  7824 ;;		_Lcd_Center_Text
  7825 ;;		_Lcd_Progress_Bar
  7826 ;; This function uses a non-reentrant model
  7827 ;;
  7828                           
  7829     0931                     ___awdiv:	
  7830                           ;psect for function ___awdiv
  7831                           
  7832     0931                     l2087:	
  7833                           ;incstack = 0
  7834                           ; Regs used in ___awdiv: [wreg+status,2+status,0]
  7835                           
  7836     0931  01F6               	clrf	___awdiv@sign
  7837     0932                     l2089:
  7838     0932  1FF1               	btfss	___awdiv@divisor+1,7
  7839     0933  2935               	goto	u2201
  7840     0934  2936               	goto	u2200
  7841     0935                     u2201:
  7842     0935  293D               	goto	l2095
  7843     0936                     u2200:
  7844     0936                     l2091:
  7845     0936  09F0               	comf	___awdiv@divisor,f
  7846     0937  09F1               	comf	___awdiv@divisor+1,f
  7847     0938  0AF0               	incf	___awdiv@divisor,f
  7848     0939  1903               	skipnz
  7849     093A  0AF1               	incf	___awdiv@divisor+1,f
  7850     093B                     l2093:
  7851     093B  01F6               	clrf	___awdiv@sign
  7852     093C  0AF6               	incf	___awdiv@sign,f
  7853     093D                     l2095:
  7854     093D  1FF3               	btfss	___awdiv@dividend+1,7
  7855     093E  2940               	goto	u2211
  7856     093F  2941               	goto	u2210
  7857     0940                     u2211:
  7858     0940  294A               	goto	l2101
  7859     0941                     u2210:
  7860     0941                     l2097:
  7861     0941  09F2               	comf	___awdiv@dividend,f
  7862     0942  09F3               	comf	___awdiv@dividend+1,f
  7863     0943  0AF2               	incf	___awdiv@dividend,f
  7864     0944  1903               	skipnz
  7865     0945  0AF3               	incf	___awdiv@dividend+1,f
  7866     0946                     l2099:
  7867     0946  3001               	movlw	1
  7868     0947  00F4               	movwf	??___awdiv
  7869     0948  0874               	movf	??___awdiv,w
  7870     0949  06F6               	xorwf	___awdiv@sign,f
  7871     094A                     l2101:
  7872     094A  01F7               	clrf	___awdiv@quotient
  7873     094B  01F8               	clrf	___awdiv@quotient+1
  7874     094C                     l2103:
  7875     094C  0870               	movf	___awdiv@divisor,w
  7876     094D  0471               	iorwf	___awdiv@divisor+1,w
  7877     094E  1903               	btfsc	3,2
  7878     094F  2951               	goto	u2221
  7879     0950  2952               	goto	u2220
  7880     0951                     u2221:
  7881     0951  2981               	goto	l2123
  7882     0952                     u2220:
  7883     0952                     l2105:
  7884     0952  01F5               	clrf	___awdiv@counter
  7885     0953  0AF5               	incf	___awdiv@counter,f
  7886     0954  295E               	goto	l2111
  7887     0955                     l2107:
  7888     0955  3001               	movlw	1
  7889     0956                     u2235:
  7890     0956  35F0               	lslf	___awdiv@divisor,f
  7891     0957  0DF1               	rlf	___awdiv@divisor+1,f
  7892     0958  0B89               	decfsz	9,f
  7893     0959  2956               	goto	u2235
  7894     095A                     l2109:
  7895     095A  3001               	movlw	1
  7896     095B  00F4               	movwf	??___awdiv
  7897     095C  0874               	movf	??___awdiv,w
  7898     095D  07F5               	addwf	___awdiv@counter,f
  7899     095E                     l2111:
  7900     095E  1FF1               	btfss	___awdiv@divisor+1,7
  7901     095F  2961               	goto	u2241
  7902     0960  2962               	goto	u2240
  7903     0961                     u2241:
  7904     0961  2955               	goto	l2107
  7905     0962                     u2240:
  7906     0962                     l2113:
  7907     0962  3001               	movlw	1
  7908     0963                     u2255:
  7909     0963  35F7               	lslf	___awdiv@quotient,f
  7910     0964  0DF8               	rlf	___awdiv@quotient+1,f
  7911     0965  0B89               	decfsz	9,f
  7912     0966  2963               	goto	u2255
  7913     0967  0871               	movf	___awdiv@divisor+1,w
  7914     0968  0273               	subwf	___awdiv@dividend+1,w
  7915     0969  1D03               	skipz
  7916     096A  296D               	goto	u2265
  7917     096B  0870               	movf	___awdiv@divisor,w
  7918     096C  0272               	subwf	___awdiv@dividend,w
  7919     096D                     u2265:
  7920     096D  1C03               	skipc
  7921     096E  2970               	goto	u2261
  7922     096F  2971               	goto	u2260
  7923     0970                     u2261:
  7924     0970  2976               	goto	l2119
  7925     0971                     u2260:
  7926     0971                     l2115:
  7927     0971  0870               	movf	___awdiv@divisor,w
  7928     0972  02F2               	subwf	___awdiv@dividend,f
  7929     0973  0871               	movf	___awdiv@divisor+1,w
  7930     0974  3BF3               	subwfb	___awdiv@dividend+1,f
  7931     0975                     l2117:
  7932     0975  1477               	bsf	___awdiv@quotient,0
  7933     0976                     l2119:
  7934     0976  3001               	movlw	1
  7935     0977                     u2275:
  7936     0977  36F1               	lsrf	___awdiv@divisor+1,f
  7937     0978  0CF0               	rrf	___awdiv@divisor,f
  7938     0979  0B89               	decfsz	9,f
  7939     097A  2977               	goto	u2275
  7940     097B                     l2121:
  7941     097B  3001               	movlw	1
  7942     097C  02F5               	subwf	___awdiv@counter,f
  7943     097D  1D03               	btfss	3,2
  7944     097E  2980               	goto	u2281
  7945     097F  2981               	goto	u2280
  7946     0980                     u2281:
  7947     0980  2962               	goto	l2113
  7948     0981                     u2280:
  7949     0981                     l2123:
  7950     0981  0876               	movf	___awdiv@sign,w
  7951     0982  1903               	btfsc	3,2
  7952     0983  2985               	goto	u2291
  7953     0984  2986               	goto	u2290
  7954     0985                     u2291:
  7955     0985  298B               	goto	l2127
  7956     0986                     u2290:
  7957     0986                     l2125:
  7958     0986  09F7               	comf	___awdiv@quotient,f
  7959     0987  09F8               	comf	___awdiv@quotient+1,f
  7960     0988  0AF7               	incf	___awdiv@quotient,f
  7961     0989  1903               	skipnz
  7962     098A  0AF8               	incf	___awdiv@quotient+1,f
  7963     098B                     l2127:
  7964     098B  0878               	movf	___awdiv@quotient+1,w
  7965     098C  00F1               	movwf	?___awdiv+1
  7966     098D  0877               	movf	___awdiv@quotient,w
  7967     098E  00F0               	movwf	?___awdiv
  7968     098F                     l541:
  7969     098F  0008               	return
  7970     0990                     __end_of___awdiv:
  7971                           
  7972                           	psect	text22
  7973     1793                     __ptext22:	
  7974 ;; *************** function _Lcd_Write_String *****************
  7975 ;; Defined at:
  7976 ;;		line 163 in file "SC1601_LCD.c"
  7977 ;; Parameters:    Size  Location     Type
  7978 ;;  str             2   13[BANK0 ] PTR const unsigned char 
  7979 ;;		 -> STR_18(8), Lcd_Display_Battery@buf(5), STR_16(9), Lcd_Scroll_Text@buffer(17), 
  7980 ;;		 -> Lcd_Write_Padded_Integer@buf(16), Lcd_Write_Integer@buf(8), ftoa@buf(16), STR_13(14), 
  7981 ;;		 -> STR_12(3), STR_11(4), STR_10(3), STR_9(4), 
  7982 ;;		 -> STR_8(4), STR_7(7), STR_6(10), STR_5(3), 
  7983 ;;		 -> STR_4(8), STR_3(9), STR_2(15), STR_1(17), 
  7984 ;; Auto vars:     Size  Location     Type
  7985 ;;		None
  7986 ;; Return value:  Size  Location     Type
  7987 ;;                  1    wreg      void 
  7988 ;; Registers used:
  7989 ;;		wreg, fsr0l, fsr0h, status,2, status,0, pclath, cstack
  7990 ;; Tracked objects:
  7991 ;;		On entry : 0/0
  7992 ;;		On exit  : 0/0
  7993 ;;		Unchanged: 0/0
  7994 ;; Data sizes:     COMMON   BANK0   BANK1   BANK2   BANK3   BANK4   BANK5   BANK6   BANK7   BANK8   BANK9  BANK10  BANK1
      +1  BANK12  BANK13  BANK14  BANK15  BANK16  BANK17  BANK18  BANK19  BANK20  BANK21  BANK22  BANK23  BANK24  BANK25
  7995 ;;      Params:         0       2       0       0       0       0       0       0       0       0       0       0       
      +0       0       0       0       0       0       0       0       0       0       0       0       0       0       0
  7996 ;;      Locals:         0       0       0       0       0       0       0       0       0       0       0       0       
      +0       0       0       0       0       0       0       0       0       0       0       0       0       0       0
  7997 ;;      Temps:          0       1       0       0       0       0       0       0       0       0       0       0       
      +0       0       0       0       0       0       0       0       0       0       0       0       0       0       0
  7998 ;;      Totals:         0       3       0       0       0       0       0       0       0       0       0       0       
      +0       0       0       0       0       0       0       0       0       0       0       0       0       0       0
  7999 ;;Total ram usage:        3 bytes
  8000 ;; Hardware stack levels used: 1
  8001 ;; Hardware stack levels required when called: 3
  8002 ;; This function calls:
  8003 ;;		_Lcd_Write_Char
  8004 ;; This function is called by:
  8005 ;;		_initMain
  8006 ;;		_calibrate
  8007 ;;		_displayResults
  8008 ;;		_main
  8009 ;;		_Lcd_Write_Integer
  8010 ;;		_Lcd_Write_Float
  8011 ;;		_Lcd_Write_Padded_Integer
  8012 ;;		_Lcd_Center_Text
  8013 ;;		_Lcd_Scroll_Text
  8014 ;;		_Lcd_Display_Battery
  8015 ;;		_Lcd_Display_Signal
  8016 ;; This function uses a non-reentrant model
  8017 ;;
  8018                           
  8019     1793                     _Lcd_Write_String:	
  8020                           ;psect for function _Lcd_Write_String
  8021                           
  8022     1793                     l3255:	
  8023                           ;incstack = 0
  8024                           ; Regs used in _Lcd_Write_String: [wreg-fsr0h+status,2+status,0+pclath+cstack]
  8025                           
  8026                           
  8027                           ;SC1601_LCD.c: 163: void Lcd_Write_String(const char *str);SC1601_LCD.c: 164: {;SC1601_L
      +                          CD.c: 165:     while (*str) {
  8028     1793  2FA1               	goto	l3261
  8029     1794                     l3257:
  8030                           
  8031                           ;SC1601_LCD.c: 166:         Lcd_Write_Char(*str++);
  8032     1794  082D               	movf	Lcd_Write_String@str,w
  8033     1795  0084               	movwf	4
  8034     1796  082E               	movf	Lcd_Write_String@str+1,w
  8035     1797  0085               	movwf	5
  8036     1798  0800               	movf	0,w	;code access
  8037     1799  3197  277A  3197   	fcall	_Lcd_Write_Char
  8038     179C                     l3259:
  8039     179C  3001               	movlw	1
  8040     179D  0020               	movlb	0	; select bank0
  8041     179E  07AD               	addwf	Lcd_Write_String@str,f
  8042     179F  3000               	movlw	0
  8043     17A0  3DAE               	addwfc	Lcd_Write_String@str+1,f
  8044     17A1                     l3261:
  8045                           
  8046                           ;SC1601_LCD.c: 165:     while (*str) {
  8047     17A1  0020               	movlb	0	; select bank0
  8048     17A2  082D               	movf	Lcd_Write_String@str,w
  8049     17A3  0084               	movwf	4
  8050     17A4  082E               	movf	Lcd_Write_String@str+1,w
  8051     17A5  0085               	movwf	5
  8052     17A6  0012               	moviw fsr0++
  8053     17A7  1D03               	btfss	3,2
  8054     17A8  2FAA               	goto	u4131
  8055     17A9  2FAB               	goto	u4130
  8056     17AA                     u4131:
  8057     17AA  2F94               	goto	l3257
  8058     17AB                     u4130:
  8059     17AB                     l139:
  8060     17AB  0008               	return
  8061     17AC                     __end_of_Lcd_Write_String:
  8062                           
  8063                           	psect	text23
  8064     177A                     __ptext23:	
  8065 ;; *************** function _Lcd_Write_Char *****************
  8066 ;; Defined at:
  8067 ;;		line 147 in file "SC1601_LCD.c"
  8068 ;; Parameters:    Size  Location     Type
  8069 ;;  a               1    wreg     unsigned char 
  8070 ;; Auto vars:     Size  Location     Type
  8071 ;;  a               1    3[COMMON] unsigned char 
  8072 ;; Return value:  Size  Location     Type
  8073 ;;                  1    wreg      void 
  8074 ;; Registers used:
  8075 ;;		wreg, status,2, status,0, pclath, cstack
  8076 ;; Tracked objects:
  8077 ;;		On entry : 0/0
  8078 ;;		On exit  : 0/0
  8079 ;;		Unchanged: 0/0
  8080 ;; Data sizes:     COMMON   BANK0   BANK1   BANK2   BANK3   BANK4   BANK5   BANK6   BANK7   BANK8   BANK9  BANK10  BANK1
      +1  BANK12  BANK13  BANK14  BANK15  BANK16  BANK17  BANK18  BANK19  BANK20  BANK21  BANK22  BANK23  BANK24  BANK25
  8081 ;;      Params:         0       0       0       0       0       0       0       0       0       0       0       0       
      +0       0       0       0       0       0       0       0       0       0       0       0       0       0       0
  8082 ;;      Locals:         1       0       0       0       0       0       0       0       0       0       0       0       
      +0       0       0       0       0       0       0       0       0       0       0       0       0       0       0
  8083 ;;      Temps:          1       0       0       0       0       0       0       0       0       0       0       0       
      +0       0       0       0       0       0       0       0       0       0       0       0       0       0       0
  8084 ;;      Totals:         2       0       0       0       0       0       0       0       0       0       0       0       
      +0       0       0       0       0       0       0       0       0       0       0       0       0       0       0
  8085 ;;Total ram usage:        2 bytes
  8086 ;; Hardware stack levels used: 1
  8087 ;; Hardware stack levels required when called: 2
  8088 ;; This function calls:
  8089 ;;		_Lcd_Enable_Pulse
  8090 ;;		_Lcd_Port
  8091 ;; This function is called by:
  8092 ;;		_Lcd_Write_String
  8093 ;;		_Lcd_Create_Char
  8094 ;;		_Lcd_Display_Custom_Char
  8095 ;;		_Lcd_Progress_Bar
  8096 ;; This function uses a non-reentrant model
  8097 ;;
  8098                           
  8099     177A                     _Lcd_Write_Char:	
  8100                           ;psect for function _Lcd_Write_Char
  8101                           
  8102                           
  8103                           ;incstack = 0
  8104                           ; Regs used in _Lcd_Write_Char: [wreg+status,2+status,0+pclath+cstack]
  8105                           ;Lcd_Write_Char@a stored from wreg
  8106     177A  00F3               	movwf	Lcd_Write_Char@a
  8107     177B                     l2343:
  8108                           
  8109                           ;SC1601_LCD.c: 147: void Lcd_Write_Char(char a);SC1601_LCD.c: 148: {;SC1601_LCD.c: 149: 
      +                              RD2 = 1;
  8110     177B  0020               	movlb	0	; select bank0
  8111     177C  150F               	bsf	15,2	;volatile
  8112     177D                     l2345:
  8113                           
  8114                           ;SC1601_LCD.c: 150:     Lcd_Port(a >> 4);
  8115     177D  0873               	movf	Lcd_Write_Char@a,w
  8116     177E  00F2               	movwf	??_Lcd_Write_Char
  8117     177F  3004               	movlw	4
  8118     1780                     u2765:
  8119     1780  36F2               	lsrf	??_Lcd_Write_Char,f
  8120     1781  0B89               	decfsz	9,f
  8121     1782  2F80               	goto	u2765
  8122     1783  0872               	movf	??_Lcd_Write_Char,w
  8123     1784  3188  202F  3197   	fcall	_Lcd_Port
  8124                           
  8125                           ;SC1601_LCD.c: 151:     Lcd_Enable_Pulse();
  8126     1787  3197  2700  3197   	fcall	_Lcd_Enable_Pulse
  8127                           
  8128                           ;SC1601_LCD.c: 152:     Lcd_Port(a & 0x0F);
  8129     178A  0873               	movf	Lcd_Write_Char@a,w
  8130     178B  390F               	andlw	15
  8131     178C  3188  202F  3197   	fcall	_Lcd_Port
  8132                           
  8133                           ;SC1601_LCD.c: 153:     Lcd_Enable_Pulse();
  8134     178F  3197  2700  3197   	fcall	_Lcd_Enable_Pulse
  8135     1792                     l133:
  8136     1792  0008               	return
  8137     1793                     __end_of_Lcd_Write_Char:
  8138                           
  8139                           	psect	text24
  8140     17C5                     __ptext24:	
  8141 ;; *************** function _Lcd_Set_Cursor *****************
  8142 ;; Defined at:
  8143 ;;		line 109 in file "SC1601_LCD.c"
  8144 ;; Parameters:    Size  Location     Type
  8145 ;;  row             1    wreg     unsigned char 
  8146 ;;  col             1    5[COMMON] unsigned char 
  8147 ;; Auto vars:     Size  Location     Type
  8148 ;;  row             1    6[COMMON] unsigned char 
  8149 ;;  address         1    9[COMMON] unsigned char 
  8150 ;; Return value:  Size  Location     Type
  8151 ;;                  1    wreg      void 
  8152 ;; Registers used:
  8153 ;;		wreg, status,2, status,0, pclath, cstack
  8154 ;; Tracked objects:
  8155 ;;		On entry : 0/0
  8156 ;;		On exit  : 0/0
  8157 ;;		Unchanged: 0/0
  8158 ;; Data sizes:     COMMON   BANK0   BANK1   BANK2   BANK3   BANK4   BANK5   BANK6   BANK7   BANK8   BANK9  BANK10  BANK1
      +1  BANK12  BANK13  BANK14  BANK15  BANK16  BANK17  BANK18  BANK19  BANK20  BANK21  BANK22  BANK23  BANK24  BANK25
  8159 ;;      Params:         1       0       0       0       0       0       0       0       0       0       0       0       
      +0       0       0       0       0       0       0       0       0       0       0       0       0       0       0
  8160 ;;      Locals:         4       0       0       0       0       0       0       0       0       0       0       0       
      +0       0       0       0       0       0       0       0       0       0       0       0       0       0       0
  8161 ;;      Temps:          0       0       0       0       0       0       0       0       0       0       0       0       
      +0       0       0       0       0       0       0       0       0       0       0       0       0       0       0
  8162 ;;      Totals:         5       0       0       0       0       0       0       0       0       0       0       0       
      +0       0       0       0       0       0       0       0       0       0       0       0       0       0       0
  8163 ;;Total ram usage:        5 bytes
  8164 ;; Hardware stack levels used: 1
  8165 ;; Hardware stack levels required when called: 4
  8166 ;; This function calls:
  8167 ;;		_Lcd_Send_Command
  8168 ;; This function is called by:
  8169 ;;		_initMain
  8170 ;;		_calibrate
  8171 ;;		_displayResults
  8172 ;;		_Lcd_Center_Text
  8173 ;;		_Lcd_Scroll_Text
  8174 ;;		_Lcd_Display_Battery
  8175 ;;		_Lcd_Display_Signal
  8176 ;; This function uses a non-reentrant model
  8177 ;;
  8178                           
  8179     17C5                     _Lcd_Set_Cursor:	
  8180                           ;psect for function _Lcd_Set_Cursor
  8181                           
  8182                           
  8183                           ;incstack = 0
  8184                           ; Regs used in _Lcd_Set_Cursor: [wreg+status,2+status,0+pclath+cstack]
  8185                           ;Lcd_Set_Cursor@row stored from wreg
  8186     17C5  00F6               	movwf	Lcd_Set_Cursor@row
  8187     17C6                     l2701:
  8188                           
  8189                           ;SC1601_LCD.c: 109: void Lcd_Set_Cursor(char row, char col);SC1601_LCD.c: 110: {;SC1601_
      +                          LCD.c: 111:     char address = (row == 1) ? (0x80 + col - 1) : (0xC0 + col - 1);
  8190     17C6  0376               	decf	Lcd_Set_Cursor@row,w
  8191     17C7  1903               	btfsc	3,2
  8192     17C8  2FCA               	goto	u3411
  8193     17C9  2FCB               	goto	u3410
  8194     17CA                     u3411:
  8195     17CA  2FD3               	goto	l2705
  8196     17CB                     u3410:
  8197     17CB                     l2703:
  8198     17CB  0875               	movf	Lcd_Set_Cursor@col,w
  8199     17CC  3EBF               	addlw	191
  8200     17CD  00F7               	movwf	_Lcd_Set_Cursor$419
  8201     17CE  3000               	movlw	0
  8202     17CF  1803               	skipnc
  8203     17D0  3001               	movlw	1
  8204     17D1  00F8               	movwf	_Lcd_Set_Cursor$419+1
  8205     17D2  2FDA               	goto	l126
  8206     17D3                     l2705:
  8207     17D3  0875               	movf	Lcd_Set_Cursor@col,w
  8208     17D4  3E7F               	addlw	127
  8209     17D5  00F7               	movwf	_Lcd_Set_Cursor$419
  8210     17D6  3000               	movlw	0
  8211     17D7  1803               	skipnc
  8212     17D8  3001               	movlw	1
  8213     17D9  00F8               	movwf	_Lcd_Set_Cursor$419+1
  8214     17DA                     l126:
  8215     17DA  0877               	movf	_Lcd_Set_Cursor$419,w
  8216     17DB  00F9               	movwf	Lcd_Set_Cursor@address
  8217     17DC                     l2707:
  8218                           
  8219                           ;SC1601_LCD.c: 112:     Lcd_Send_Command(address);
  8220     17DC  0879               	movf	Lcd_Set_Cursor@address,w
  8221     17DD  3197  272D  3197   	fcall	_Lcd_Send_Command
  8222     17E0                     l127:
  8223     17E0  0008               	return
  8224     17E1                     __end_of_Lcd_Set_Cursor:
  8225                           
  8226                           	psect	text25
  8227     0802                     __ptext25:	
  8228 ;; *************** function _Lcd_Clear *****************
  8229 ;; Defined at:
  8230 ;;		line 96 in file "SC1601_LCD.c"
  8231 ;; Parameters:    Size  Location     Type
  8232 ;;		None
  8233 ;; Auto vars:     Size  Location     Type
  8234 ;;		None
  8235 ;; Return value:  Size  Location     Type
  8236 ;;                  1    wreg      void 
  8237 ;; Registers used:
  8238 ;;		wreg, status,2, status,0, pclath, cstack
  8239 ;; Tracked objects:
  8240 ;;		On entry : 0/0
  8241 ;;		On exit  : 0/0
  8242 ;;		Unchanged: 0/0
  8243 ;; Data sizes:     COMMON   BANK0   BANK1   BANK2   BANK3   BANK4   BANK5   BANK6   BANK7   BANK8   BANK9  BANK10  BANK1
      +1  BANK12  BANK13  BANK14  BANK15  BANK16  BANK17  BANK18  BANK19  BANK20  BANK21  BANK22  BANK23  BANK24  BANK25
  8244 ;;      Params:         0       0       0       0       0       0       0       0       0       0       0       0       
      +0       0       0       0       0       0       0       0       0       0       0       0       0       0       0
  8245 ;;      Locals:         0       0       0       0       0       0       0       0       0       0       0       0       
      +0       0       0       0       0       0       0       0       0       0       0       0       0       0       0
  8246 ;;      Temps:          1       0       0       0       0       0       0       0       0       0       0       0       
      +0       0       0       0       0       0       0       0       0       0       0       0       0       0       0
  8247 ;;      Totals:         1       0       0       0       0       0       0       0       0       0       0       0       
      +0       0       0       0       0       0       0       0       0       0       0       0       0       0       0
  8248 ;;Total ram usage:        1 bytes
  8249 ;; Hardware stack levels used: 1
  8250 ;; Hardware stack levels required when called: 4
  8251 ;; This function calls:
  8252 ;;		_Lcd_Send_Command
  8253 ;; This function is called by:
  8254 ;;		_initMain
  8255 ;;		_calibrate
  8256 ;;		_displayResults
  8257 ;;		_main
  8258 ;;		_Lcd_Display_Battery
  8259 ;;		_Lcd_Display_Signal
  8260 ;; This function uses a non-reentrant model
  8261 ;;
  8262                           
  8263     0802                     _Lcd_Clear:	
  8264                           ;psect for function _Lcd_Clear
  8265                           
  8266     0802                     l2697:	
  8267                           ;incstack = 0
  8268                           ; Regs used in _Lcd_Clear: [wreg+status,2+status,0+pclath+cstack]
  8269                           
  8270                           
  8271                           ;SC1601_LCD.c: 98:     Lcd_Send_Command(0x01);
  8272     0802  3001               	movlw	1
  8273     0803  3197  272D  3188   	fcall	_Lcd_Send_Command
  8274     0806                     l2699:
  8275                           
  8276                           ;SC1601_LCD.c: 99:     _delay((unsigned long)((2)*(32000000/4000.0)));
  8277     0806  3015               	movlw	21
  8278     0807  00F5               	movwf	??_Lcd_Clear
  8279     0808  30C6               	movlw	198
  8280     0809                     u4457:
  8281     0809  0B89               	decfsz	9,f
  8282     080A  2809               	goto	u4457
  8283     080B  0BF5               	decfsz	??_Lcd_Clear,f
  8284     080C  2809               	goto	u4457
  8285     080D  3200               	nop2
  8286     080E                     l120:
  8287     080E  0008               	return
  8288     080F                     __end_of_Lcd_Clear:
  8289                           
  8290                           	psect	text26
  8291     172D                     __ptext26:	
  8292 ;; *************** function _Lcd_Send_Command *****************
  8293 ;; Defined at:
  8294 ;;		line 83 in file "SC1601_LCD.c"
  8295 ;; Parameters:    Size  Location     Type
  8296 ;;  cmd             1    wreg     unsigned char 
  8297 ;; Auto vars:     Size  Location     Type
  8298 ;;  cmd             1    4[COMMON] unsigned char 
  8299 ;; Return value:  Size  Location     Type
  8300 ;;                  1    wreg      void 
  8301 ;; Registers used:
  8302 ;;		wreg, status,2, status,0, pclath, cstack
  8303 ;; Tracked objects:
  8304 ;;		On entry : 0/0
  8305 ;;		On exit  : 0/0
  8306 ;;		Unchanged: 0/0
  8307 ;; Data sizes:     COMMON   BANK0   BANK1   BANK2   BANK3   BANK4   BANK5   BANK6   BANK7   BANK8   BANK9  BANK10  BANK1
      +1  BANK12  BANK13  BANK14  BANK15  BANK16  BANK17  BANK18  BANK19  BANK20  BANK21  BANK22  BANK23  BANK24  BANK25
  8308 ;;      Params:         0       0       0       0       0       0       0       0       0       0       0       0       
      +0       0       0       0       0       0       0       0       0       0       0       0       0       0       0
  8309 ;;      Locals:         1       0       0       0       0       0       0       0       0       0       0       0       
      +0       0       0       0       0       0       0       0       0       0       0       0       0       0       0
  8310 ;;      Temps:          1       0       0       0       0       0       0       0       0       0       0       0       
      +0       0       0       0       0       0       0       0       0       0       0       0       0       0       0
  8311 ;;      Totals:         2       0       0       0       0       0       0       0       0       0       0       0       
      +0       0       0       0       0       0       0       0       0       0       0       0       0       0       0
  8312 ;;Total ram usage:        2 bytes
  8313 ;; Hardware stack levels used: 1
  8314 ;; Hardware stack levels required when called: 3
  8315 ;; This function calls:
  8316 ;;		_Lcd_Cmd
  8317 ;; This function is called by:
  8318 ;;		_Lcd_Clear
  8319 ;;		_Lcd_Set_Cursor
  8320 ;;		_Lcd_Init
  8321 ;;		_Lcd_Shift_Right
  8322 ;;		_Lcd_Shift_Left
  8323 ;;		_Lcd_Reset
  8324 ;;		_Lcd_Create_Char
  8325 ;;		_Lcd_Blink_On
  8326 ;;		_Lcd_Blink_Off
  8327 ;;		_Lcd_Display_On
  8328 ;;		_Lcd_Display_Off
  8329 ;;		_Lcd_Move_Cursor_Left
  8330 ;;		_Lcd_Move_Cursor_Right
  8331 ;; This function uses a non-reentrant model
  8332 ;;
  8333                           
  8334     172D                     _Lcd_Send_Command:	
  8335                           ;psect for function _Lcd_Send_Command
  8336                           
  8337                           
  8338                           ;incstack = 0
  8339                           ; Regs used in _Lcd_Send_Command: [wreg+status,2+status,0+pclath+cstack]
  8340                           ;Lcd_Send_Command@cmd stored from wreg
  8341     172D  00F4               	movwf	Lcd_Send_Command@cmd
  8342     172E                     l2641:
  8343                           
  8344                           ;SC1601_LCD.c: 83: void Lcd_Send_Command(char cmd);SC1601_LCD.c: 84: {;SC1601_LCD.c: 85:
      +                               Lcd_Cmd(cmd >> 4);
  8345     172E  0874               	movf	Lcd_Send_Command@cmd,w
  8346     172F  00F3               	movwf	??_Lcd_Send_Command
  8347     1730  3004               	movlw	4
  8348     1731                     u3385:
  8349     1731  36F3               	lsrf	??_Lcd_Send_Command,f
  8350     1732  0B89               	decfsz	9,f
  8351     1733  2F31               	goto	u3385
  8352     1734  0873               	movf	??_Lcd_Send_Command,w
  8353     1735  3197  2712  3197   	fcall	_Lcd_Cmd
  8354                           
  8355                           ;SC1601_LCD.c: 86:     Lcd_Cmd(cmd & 0x0F);
  8356     1738  0874               	movf	Lcd_Send_Command@cmd,w
  8357     1739  390F               	andlw	15
  8358     173A  3197  2712  3197   	fcall	_Lcd_Cmd
  8359     173D                     l117:
  8360     173D  0008               	return
  8361     173E                     __end_of_Lcd_Send_Command:
  8362                           
  8363                           	psect	text27
  8364     1712                     __ptext27:	
  8365 ;; *************** function _Lcd_Cmd *****************
  8366 ;; Defined at:
  8367 ;;		line 69 in file "SC1601_LCD.c"
  8368 ;; Parameters:    Size  Location     Type
  8369 ;;  a               1    wreg     unsigned char 
  8370 ;; Auto vars:     Size  Location     Type
  8371 ;;  a               1    2[COMMON] unsigned char 
  8372 ;; Return value:  Size  Location     Type
  8373 ;;                  1    wreg      void 
  8374 ;; Registers used:
  8375 ;;		wreg, status,2, status,0, pclath, cstack
  8376 ;; Tracked objects:
  8377 ;;		On entry : 0/0
  8378 ;;		On exit  : 0/0
  8379 ;;		Unchanged: 0/0
  8380 ;; Data sizes:     COMMON   BANK0   BANK1   BANK2   BANK3   BANK4   BANK5   BANK6   BANK7   BANK8   BANK9  BANK10  BANK1
      +1  BANK12  BANK13  BANK14  BANK15  BANK16  BANK17  BANK18  BANK19  BANK20  BANK21  BANK22  BANK23  BANK24  BANK25
  8381 ;;      Params:         0       0       0       0       0       0       0       0       0       0       0       0       
      +0       0       0       0       0       0       0       0       0       0       0       0       0       0       0
  8382 ;;      Locals:         1       0       0       0       0       0       0       0       0       0       0       0       
      +0       0       0       0       0       0       0       0       0       0       0       0       0       0       0
  8383 ;;      Temps:          0       0       0       0       0       0       0       0       0       0       0       0       
      +0       0       0       0       0       0       0       0       0       0       0       0       0       0       0
  8384 ;;      Totals:         1       0       0       0       0       0       0       0       0       0       0       0       
      +0       0       0       0       0       0       0       0       0       0       0       0       0       0       0
  8385 ;;Total ram usage:        1 bytes
  8386 ;; Hardware stack levels used: 1
  8387 ;; Hardware stack levels required when called: 2
  8388 ;; This function calls:
  8389 ;;		_Lcd_Enable_Pulse
  8390 ;;		_Lcd_Port
  8391 ;; This function is called by:
  8392 ;;		_Lcd_Send_Command
  8393 ;;		_Lcd_Init
  8394 ;; This function uses a non-reentrant model
  8395 ;;
  8396                           
  8397     1712                     _Lcd_Cmd:	
  8398                           ;psect for function _Lcd_Cmd
  8399                           
  8400                           
  8401                           ;incstack = 0
  8402                           ; Regs used in _Lcd_Cmd: [wreg+status,2+status,0+pclath+cstack]
  8403                           ;Lcd_Cmd@a stored from wreg
  8404     1712  00F2               	movwf	Lcd_Cmd@a
  8405     1713                     l2339:
  8406                           
  8407                           ;SC1601_LCD.c: 69: void Lcd_Cmd(char a);SC1601_LCD.c: 70: {;SC1601_LCD.c: 71:     RD2 = 
      +                          0;
  8408     1713  0020               	movlb	0	; select bank0
  8409     1714  110F               	bcf	15,2	;volatile
  8410     1715                     l2341:
  8411                           
  8412                           ;SC1601_LCD.c: 72:     Lcd_Port(a);
  8413     1715  0872               	movf	Lcd_Cmd@a,w
  8414     1716  3188  202F  3197   	fcall	_Lcd_Port
  8415                           
  8416                           ;SC1601_LCD.c: 73:     Lcd_Enable_Pulse();
  8417     1719  3197  2700  3197   	fcall	_Lcd_Enable_Pulse
  8418     171C                     l114:
  8419     171C  0008               	return
  8420     171D                     __end_of_Lcd_Cmd:
  8421                           
  8422                           	psect	text28
  8423     082F                     __ptext28:	
  8424 ;; *************** function _Lcd_Port *****************
  8425 ;; Defined at:
  8426 ;;		line 40 in file "SC1601_LCD.c"
  8427 ;; Parameters:    Size  Location     Type
  8428 ;;  a               1    wreg     unsigned char 
  8429 ;; Auto vars:     Size  Location     Type
  8430 ;;  a               1    1[COMMON] unsigned char 
  8431 ;; Return value:  Size  Location     Type
  8432 ;;                  1    wreg      void 
  8433 ;; Registers used:
  8434 ;;		wreg, status,2, status,0
  8435 ;; Tracked objects:
  8436 ;;		On entry : 0/0
  8437 ;;		On exit  : 0/0
  8438 ;;		Unchanged: 0/0
  8439 ;; Data sizes:     COMMON   BANK0   BANK1   BANK2   BANK3   BANK4   BANK5   BANK6   BANK7   BANK8   BANK9  BANK10  BANK1
      +1  BANK12  BANK13  BANK14  BANK15  BANK16  BANK17  BANK18  BANK19  BANK20  BANK21  BANK22  BANK23  BANK24  BANK25
  8440 ;;      Params:         0       0       0       0       0       0       0       0       0       0       0       0       
      +0       0       0       0       0       0       0       0       0       0       0       0       0       0       0
  8441 ;;      Locals:         1       0       0       0       0       0       0       0       0       0       0       0       
      +0       0       0       0       0       0       0       0       0       0       0       0       0       0       0
  8442 ;;      Temps:          1       0       0       0       0       0       0       0       0       0       0       0       
      +0       0       0       0       0       0       0       0       0       0       0       0       0       0       0
  8443 ;;      Totals:         2       0       0       0       0       0       0       0       0       0       0       0       
      +0       0       0       0       0       0       0       0       0       0       0       0       0       0       0
  8444 ;;Total ram usage:        2 bytes
  8445 ;; Hardware stack levels used: 1
  8446 ;; Hardware stack levels required when called: 1
  8447 ;; This function calls:
  8448 ;;		Nothing
  8449 ;; This function is called by:
  8450 ;;		_Lcd_Cmd
  8451 ;;		_Lcd_Init
  8452 ;;		_Lcd_Write_Char
  8453 ;; This function uses a non-reentrant model
  8454 ;;
  8455                           
  8456     082F                     _Lcd_Port:	
  8457                           ;psect for function _Lcd_Port
  8458                           
  8459                           
  8460                           ;incstack = 0
  8461                           ; Regs used in _Lcd_Port: [wreg+status,2+status,0]
  8462                           ;Lcd_Port@a stored from wreg
  8463     082F  00F1               	movwf	Lcd_Port@a
  8464     0830                     l2059:
  8465                           
  8466                           ;SC1601_LCD.c: 40: void Lcd_Port(char a);SC1601_LCD.c: 41: {;SC1601_LCD.c: 42:     RD4 =
      +                           (a & 0x01);
  8467     0830  1871               	btfsc	Lcd_Port@a,0
  8468     0831  2833               	goto	u2051
  8469     0832  2836               	goto	u2050
  8470     0833                     u2051:
  8471     0833  0020               	movlb	0	; select bank0
  8472     0834  160F               	bsf	15,4	;volatile
  8473     0835  2838               	goto	u2064
  8474     0836                     u2050:
  8475     0836  0020               	movlb	0	; select bank0
  8476     0837  120F               	bcf	15,4	;volatile
  8477     0838                     u2064:
  8478     0838                     l2061:
  8479                           
  8480                           ;SC1601_LCD.c: 43:     RD5 = (a & 0x02) >> 1;
  8481     0838  0871               	movf	Lcd_Port@a,w
  8482     0839  00F0               	movwf	??_Lcd_Port
  8483     083A  3001               	movlw	1
  8484     083B                     u2075:
  8485     083B  36F0               	lsrf	??_Lcd_Port,f
  8486     083C  0B89               	decfsz	9,f
  8487     083D  283B               	goto	u2075
  8488     083E  1870               	btfsc	??_Lcd_Port,0
  8489     083F  2841               	goto	u2081
  8490     0840  2844               	goto	u2080
  8491     0841                     u2081:
  8492     0841  0020               	movlb	0	; select bank0
  8493     0842  168F               	bsf	15,5	;volatile
  8494     0843  2846               	goto	u2094
  8495     0844                     u2080:
  8496     0844  0020               	movlb	0	; select bank0
  8497     0845  128F               	bcf	15,5	;volatile
  8498     0846                     u2094:
  8499     0846                     l2063:
  8500                           
  8501                           ;SC1601_LCD.c: 44:     RD6 = (a & 0x04) >> 2;
  8502     0846  0871               	movf	Lcd_Port@a,w
  8503     0847  00F0               	movwf	??_Lcd_Port
  8504     0848  3002               	movlw	2
  8505     0849                     u2105:
  8506     0849  36F0               	lsrf	??_Lcd_Port,f
  8507     084A  0B89               	decfsz	9,f
  8508     084B  2849               	goto	u2105
  8509     084C  1870               	btfsc	??_Lcd_Port,0
  8510     084D  284F               	goto	u2111
  8511     084E  2852               	goto	u2110
  8512     084F                     u2111:
  8513     084F  0020               	movlb	0	; select bank0
  8514     0850  170F               	bsf	15,6	;volatile
  8515     0851  2854               	goto	u2124
  8516     0852                     u2110:
  8517     0852  0020               	movlb	0	; select bank0
  8518     0853  130F               	bcf	15,6	;volatile
  8519     0854                     u2124:
  8520     0854                     l2065:
  8521                           
  8522                           ;SC1601_LCD.c: 45:     RD7 = (a & 0x08) >> 3;
  8523     0854  0871               	movf	Lcd_Port@a,w
  8524     0855  00F0               	movwf	??_Lcd_Port
  8525     0856  3003               	movlw	3
  8526     0857                     u2135:
  8527     0857  36F0               	lsrf	??_Lcd_Port,f
  8528     0858  0B89               	decfsz	9,f
  8529     0859  2857               	goto	u2135
  8530     085A  1870               	btfsc	??_Lcd_Port,0
  8531     085B  285D               	goto	u2141
  8532     085C  2860               	goto	u2140
  8533     085D                     u2141:
  8534     085D  0020               	movlb	0	; select bank0
  8535     085E  178F               	bsf	15,7	;volatile
  8536     085F  2862               	goto	u2154
  8537     0860                     u2140:
  8538     0860  0020               	movlb	0	; select bank0
  8539     0861  138F               	bcf	15,7	;volatile
  8540     0862                     u2154:
  8541     0862                     l108:
  8542     0862  0008               	return
  8543     0863                     __end_of_Lcd_Port:
  8544                           
  8545                           	psect	text29
  8546     1700                     __ptext29:	
  8547 ;; *************** function _Lcd_Enable_Pulse *****************
  8548 ;; Defined at:
  8549 ;;		line 55 in file "SC1601_LCD.c"
  8550 ;; Parameters:    Size  Location     Type
  8551 ;;		None
  8552 ;; Auto vars:     Size  Location     Type
  8553 ;;		None
  8554 ;; Return value:  Size  Location     Type
  8555 ;;                  1    wreg      void 
  8556 ;; Registers used:
  8557 ;;		wreg
  8558 ;; Tracked objects:
  8559 ;;		On entry : 0/0
  8560 ;;		On exit  : 0/0
  8561 ;;		Unchanged: 0/0
  8562 ;; Data sizes:     COMMON   BANK0   BANK1   BANK2   BANK3   BANK4   BANK5   BANK6   BANK7   BANK8   BANK9  BANK10  BANK1
      +1  BANK12  BANK13  BANK14  BANK15  BANK16  BANK17  BANK18  BANK19  BANK20  BANK21  BANK22  BANK23  BANK24  BANK25
  8563 ;;      Params:         0       0       0       0       0       0       0       0       0       0       0       0       
      +0       0       0       0       0       0       0       0       0       0       0       0       0       0       0
  8564 ;;      Locals:         0       0       0       0       0       0       0       0       0       0       0       0       
      +0       0       0       0       0       0       0       0       0       0       0       0       0       0       0
  8565 ;;      Temps:          0       0       0       0       0       0       0       0       0       0       0       0       
      +0       0       0       0       0       0       0       0       0       0       0       0       0       0       0
  8566 ;;      Totals:         0       0       0       0       0       0       0       0       0       0       0       0       
      +0       0       0       0       0       0       0       0       0       0       0       0       0       0       0
  8567 ;;Total ram usage:        0 bytes
  8568 ;; Hardware stack levels used: 1
  8569 ;; Hardware stack levels required when called: 1
  8570 ;; This function calls:
  8571 ;;		Nothing
  8572 ;; This function is called by:
  8573 ;;		_Lcd_Cmd
  8574 ;;		_Lcd_Write_Char
  8575 ;; This function uses a non-reentrant model
  8576 ;;
  8577                           
  8578     1700                     _Lcd_Enable_Pulse:	
  8579                           ;psect for function _Lcd_Enable_Pulse
  8580                           
  8581     1700                     l2067:	
  8582                           ;incstack = 0
  8583                           ; Regs used in _Lcd_Enable_Pulse: [wreg]
  8584                           
  8585                           
  8586                           ;SC1601_LCD.c: 57:     RD3 = 1;
  8587     1700  0020               	movlb	0	; select bank0
  8588     1701  158F               	bsf	15,3	;volatile
  8589     1702                     l2069:
  8590                           
  8591                           ;SC1601_LCD.c: 58:     _delay((unsigned long)((50)*(32000000/4000000.0)));
  8592     1702  3085               	movlw	133
  8593     1703                     u4467:
  8594     1703  0B89               	decfsz	9,f
  8595     1704  2F03               	goto	u4467
  8596     1705  0000               	nop
  8597     1706                     l2071:
  8598                           
  8599                           ;SC1601_LCD.c: 59:     RD3 = 0;
  8600     1706  0020               	movlb	0	; select bank0
  8601     1707  118F               	bcf	15,3	;volatile
  8602     1708                     l111:
  8603     1708  0008               	return
  8604     1709                     __end_of_Lcd_Enable_Pulse:
  8605                           
  8606                           	psect	intentry
  8607     0004                     __pintentry:	
  8608 ;; *************** function _isr *****************
  8609 ;; Defined at:
  8610 ;;		line 78 in file "main.c"
  8611 ;; Parameters:    Size  Location     Type
  8612 ;;		None
  8613 ;; Auto vars:     Size  Location     Type
  8614 ;;		None
  8615 ;; Return value:  Size  Location     Type
  8616 ;;                  1    wreg      void 
  8617 ;; Registers used:
  8618 ;;		wreg
  8619 ;; Tracked objects:
  8620 ;;		On entry : 0/0
  8621 ;;		On exit  : 0/0
  8622 ;;		Unchanged: 0/0
  8623 ;; Data sizes:     COMMON   BANK0   BANK1   BANK2   BANK3   BANK4   BANK5   BANK6   BANK7   BANK8   BANK9  BANK10  BANK1
      +1  BANK12  BANK13  BANK14  BANK15  BANK16  BANK17  BANK18  BANK19  BANK20  BANK21  BANK22  BANK23  BANK24  BANK25
  8624 ;;      Params:         0       0       0       0       0       0       0       0       0       0       0       0       
      +0       0       0       0       0       0       0       0       0       0       0       0       0       0       0
  8625 ;;      Locals:         0       0       0       0       0       0       0       0       0       0       0       0       
      +0       0       0       0       0       0       0       0       0       0       0       0       0       0       0
  8626 ;;      Temps:          0       0       0       0       0       0       0       0       0       0       0       0       
      +0       0       0       0       0       0       0       0       0       0       0       0       0       0       0
  8627 ;;      Totals:         0       0       0       0       0       0       0       0       0       0       0       0       
      +0       0       0       0       0       0       0       0       0       0       0       0       0       0       0
  8628 ;;Total ram usage:        0 bytes
  8629 ;; Hardware stack levels used: 1
  8630 ;; This function calls:
  8631 ;;		Nothing
  8632 ;; This function is called by:
  8633 ;;		Interrupt level 1
  8634 ;; This function uses a non-reentrant model
  8635 ;;
  8636                           
  8637     0004                     _isr:
  8638                           
  8639                           ;incstack = 0
  8640     0004  147E               	bsf	int$flags,0	;set compiler interrupt flag (level 1)
  8641                           
  8642                           ; Regs used in _isr: [wreg]
  8643     0005  3180               	pagesel	$
  8644     0006                     i1l2997:
  8645                           
  8646                           ;main.c: 79:     if (INTCONbits.TMR0IF) {
  8647     0006  1D0B               	btfss	11,2	;volatile
  8648     0007  2809               	goto	u376_21
  8649     0008  280A               	goto	u376_20
  8650     0009                     u376_21:
  8651     0009  2810               	goto	i1l47
  8652     000A                     u376_20:
  8653     000A                     i1l2999:
  8654                           
  8655                           ;main.c: 80:         tmr0_overflows++;
  8656     000A  3001               	movlw	1
  8657     000B  0021               	movlb	1	; select bank1
  8658     000C  07E9               	addwf	_tmr0_overflows^(0+128),f	;volatile
  8659     000D  3000               	movlw	0
  8660     000E  3DEA               	addwfc	(_tmr0_overflows+1)^(0+128),f	;volatile
  8661     000F                     i1l3001:
  8662                           
  8663                           ;main.c: 81:         INTCONbits.TMR0IF = 0;
  8664     000F  110B               	bcf	11,2	;volatile
  8665     0010                     i1l47:
  8666     0010  107E               	bcf	int$flags,0	;clear compiler interrupt flag (level 1)
  8667     0011  0009               	retfie
  8668     0012                     __end_of_isr:
  8669     007E                     btemp	set	126	;btemp
  8670     007E                     int$flags	set	126
  8671     007E                     wtemp0	set	126
  8672                           
  8673                           	psect	config
  8674                           
  8675                           ;Config register CONFIG1 @ 0x8007
  8676                           ;	Oscillator Selection Bits
  8677                           ;	FOSC = INTOSC, INTOSC oscillator: I/O function on CLKIN pin
  8678                           ;	Watchdog Timer Enable
  8679                           ;	WDTE = OFF, WDT disabled
  8680                           ;	Power-up Timer Enable
  8681                           ;	PWRTE = OFF, PWRT disabled
  8682                           ;	MCLR Pin Function Select
  8683                           ;	MCLRE = OFF, MCLR/VPP pin function is digital input if LVP bit is also 0.
  8684                           ;	Flash Program Memory Code Protection
  8685                           ;	CP = OFF, Program memory code protection is disabled
  8686                           ;	Brown-out Reset Enable
  8687                           ;	BOREN = OFF, Brown-out Reset disabled
  8688                           ;	Clock Out Enable
  8689                           ;	CLKOUTEN = OFF, CLKOUT function is disabled. I/O or oscillator function on the CLKOUT 
      +                          pin
  8690                           ;	Internal/External Switchover Mode
  8691                           ;	IESO = ON, Internal/External Switchover Mode is enabled
  8692                           ;	Fail-Safe Clock Monitor Enable
  8693                           ;	FCMEN = OFF, Fail-Safe Clock Monitor is disabled
  8694     8007                     	org	32775
  8695     8007  19A4               	dw	6564
  8696                           
  8697                           ;Config register CONFIG2 @ 0x8008
  8698                           ;	Flash Memory Self-Write Protection
  8699                           ;	WRT = OFF, Write protection off
  8700                           ;	Peripheral Pin Select one-way control
  8701                           ;	PPS1WAY = ON, The PPSLOCK bit cannot be cleared once it is set by software
  8702                           ;	Zero-cross detect disable
  8703                           ;	ZCDDIS = ON, ZCD disabled. ZCD can be enabled by setting the ZCDSEN bit of ZCDCON
  8704                           ;	Phase Lock Loop enable
  8705                           ;	PLLEN = OFF, 4x PLL is disabled
  8706                           ;	Stack Overflow/Underflow Reset Enable
  8707                           ;	STVREN = ON, Stack Overflow or Underflow will cause a Reset
  8708                           ;	Brown-out Reset Voltage Selection
  8709                           ;	BORV = LO, Brown-out Reset Voltage (Vbor), low trip point selected.
  8710                           ;	Low-Power Brown Out Reset
  8711                           ;	LPBOR = OFF, Low-Power BOR is disabled
  8712                           ;	In-Circuit Debugger Mode
  8713                           ;	DEBUG = 0x1, unprogrammed default
  8714                           ;	Low-Voltage Programming Enable
  8715                           ;	LVP = OFF, High-voltage on MCLR/VPP must be used for programming
  8716     8008                     	org	32776
  8717     8008  1EFF               	dw	7935

Data Sizes:
    Strings     138
    Constant    0
    Data        113
    BSS         18
    Persistent  32
    Stack       0

Auto Spaces:
    Space          Size  Autos    Used
    COMMON           14     14      14
    BANK0            80     80      80
    BANK1            80     56      75
    BANK2            80      0      80
    BANK3            80      0      32
    BANK4            80      0       0
    BANK5            80      0       0
    BANK6            80      0       0
    BANK7            80      0       0
    BANK8            80      0       0
    BANK9            80      0       0
    BANK10           80      0       0
    BANK11           80      0       0
    BANK12           80      0       0
    BANK13           80      0       0
    BANK14           80      0       0
    BANK15           80      0       0
    BANK16           80      0       0
    BANK17           80      0       0
    BANK18           80      0       0
    BANK19           80      0       0
    BANK20           80      0       0
    BANK21           80      0       0
    BANK22           80      0       0
    BANK23           80      0       0
    BANK24           80      0       0
    BANK25           32      0       0

Pointer List with Targets:

    f$.$buffer	PTR unsigned char  size(2) Largest target is 0

    f$.$source	PTR const unsigned char  size(2) Largest target is 0

    ftoa@ptr	PTR unsigned char  size(1) Largest target is 16
		 -> ftoa@buf(BANK3[16]), 

    ftoa@status	PTR int  size(1) Largest target is 2
		 -> Lcd_Write_Float@status(BANK0[2]), 

    itoa@buf	PTR unsigned char  size(2) Largest target is 16
		 -> ftoa@buf(BANK3[16]), Lcd_Write_Integer@buf(BANK0[8]), 

    itoa@ptr	PTR unsigned char  size(2) Largest target is 16
		 -> ftoa@buf(BANK3[16]), Lcd_Write_Integer@buf(BANK0[8]), 

    itoa@ptr1	PTR unsigned char  size(2) Largest target is 16
		 -> ftoa@buf(BANK3[16]), Lcd_Write_Integer@buf(BANK0[8]), 

    Lcd_Write_Float@buf	PTR unsigned char  size(1) Largest target is 16
		 -> ftoa@buf(BANK3[16]), 

    Lcd_Write_String@str	PTR const unsigned char  size(2) Largest target is 17
		 -> ftoa@buf(BANK3[16]), Lcd_Display_Battery@buf(COMMON[5]), Lcd_Scroll_Text@buffer(BANK0[17]), Lcd_Write_Integer@buf(BANK0[8]), 
		 -> Lcd_Write_Padded_Integer@buf(BANK0[16]), STR_1(CODE[17]), STR_10(CODE[3]), STR_11(CODE[4]), 
		 -> STR_12(CODE[3]), STR_13(CODE[14]), STR_16(CODE[9]), STR_18(CODE[8]), 
		 -> STR_2(CODE[15]), STR_3(CODE[9]), STR_4(CODE[8]), STR_5(CODE[3]), 
		 -> STR_6(CODE[10]), STR_7(CODE[7]), STR_8(CODE[4]), STR_9(CODE[4]), 

    S873$buffer	PTR unsigned char  size(2) Largest target is 0

    S873$source	PTR const unsigned char  size(2) Largest target is 0

    sp__ftoa	PTR unsigned char  size(1) Largest target is 16
		 -> ftoa@buf(BANK3[16]), 

    sp__itoa	PTR unsigned char  size(2) Largest target is 16
		 -> ftoa@buf(BANK3[16]), Lcd_Write_Integer@buf(BANK0[8]), 

    sp__strncpy	PTR unsigned char  size(1) Largest target is 17
		 -> Lcd_Scroll_Text@buffer(BANK0[17]), 

    vfprintf$0	PTR struct _IO_FILE size(1) Largest target is 11
		 -> sprintf@f(COMMON[11]), 

    vfprintf$1	PTR const unsigned char  size(2) Largest target is 5
		 -> STR_15(CODE[5]), STR_17(CODE[5]), 

    vfprintf$2	PTR PTR void  size(1) Largest target is 1
		 -> sprintf@ap(COMMON[1]), 


Critical Paths under _main in COMMON

    _main->___xxtofl
    _Lcd_Init->_Lcd_Send_Command
    _ftoa->___xxtofl
    _ftoa->_itoa
    ___flsub->___xxtofl
    _calibrate->___xxtofl
    ___fltol->___xxtofl
    ___flmul->___xxtofl
    ___fldiv->___xxtofl
    _Lcd_Write_Integer->_itoa
    _itoa->___awdiv
    _Lcd_Write_String->_itoa
    _Lcd_Write_Char->_Lcd_Port
    _Lcd_Set_Cursor->_Lcd_Send_Command
    _Lcd_Clear->_Lcd_Send_Command
    _Lcd_Send_Command->_Lcd_Cmd
    _Lcd_Cmd->_Lcd_Port

Critical Paths under _isr in COMMON

    None.

Critical Paths under _main in BANK0

    _main->_displayResults
    _initMain->_Lcd_Write_String
    _displayResults->_Lcd_Write_Float
    _Lcd_Write_Float->_ftoa
    _ftoa->___fltol
    ___flsub->___flmul
    _calibrate->___fldiv
    ___fltol->___flmul
    ___fldiv->___flmul
    _Lcd_Write_Integer->___fltol
    _Lcd_Write_String->_itoa

Critical Paths under _isr in BANK0

    None.

Critical Paths under _main in BANK1

    _main->_calibrate

Critical Paths under _isr in BANK1

    None.

Critical Paths under _main in BANK2

    None.

Critical Paths under _isr in BANK2

    None.

Critical Paths under _main in BANK3

    None.

Critical Paths under _isr in BANK3

    None.

Critical Paths under _main in BANK4

    None.

Critical Paths under _isr in BANK4

    None.

Critical Paths under _main in BANK5

    None.

Critical Paths under _isr in BANK5

    None.

Critical Paths under _main in BANK6

    None.

Critical Paths under _isr in BANK6

    None.

Critical Paths under _main in BANK7

    None.

Critical Paths under _isr in BANK7

    None.

Critical Paths under _main in BANK8

    None.

Critical Paths under _isr in BANK8

    None.

Critical Paths under _main in BANK9

    None.

Critical Paths under _isr in BANK9

    None.

Critical Paths under _main in BANK10

    None.

Critical Paths under _isr in BANK10

    None.

Critical Paths under _main in BANK11

    None.

Critical Paths under _isr in BANK11

    None.

Critical Paths under _main in BANK12

    None.

Critical Paths under _isr in BANK12

    None.

Critical Paths under _main in BANK13

    None.

Critical Paths under _isr in BANK13

    None.

Critical Paths under _main in BANK14

    None.

Critical Paths under _isr in BANK14

    None.

Critical Paths under _main in BANK15

    None.

Critical Paths under _isr in BANK15

    None.

Critical Paths under _main in BANK16

    None.

Critical Paths under _isr in BANK16

    None.

Critical Paths under _main in BANK17

    None.

Critical Paths under _isr in BANK17

    None.

Critical Paths under _main in BANK18

    None.

Critical Paths under _isr in BANK18

    None.

Critical Paths under _main in BANK19

    None.

Critical Paths under _isr in BANK19

    None.

Critical Paths under _main in BANK20

    None.

Critical Paths under _isr in BANK20

    None.

Critical Paths under _main in BANK21

    None.

Critical Paths under _isr in BANK21

    None.

Critical Paths under _main in BANK22

    None.

Critical Paths under _isr in BANK22

    None.

Critical Paths under _main in BANK23

    None.

Critical Paths under _isr in BANK23

    None.

Critical Paths under _main in BANK24

    None.

Critical Paths under _isr in BANK24

    None.

Critical Paths under _main in BANK25

    None.

Critical Paths under _isr in BANK25

    None.

Call Graph Tables:

 ---------------------------------------------------------------------------------
 (Depth) Function   	        Calls       Base Space   Used Autos Params    Refs
 ---------------------------------------------------------------------------------
 (0) _main                                                34    34      0   61990
                                             76 BANK0      4     4      0
                                             26 BANK1     30    30      0
                          _Lcd_Clear
                   _Lcd_Write_String
            _ReadTimer0WithOverflows
                            ___fldiv
                             ___flge
                            ___flmul
                            ___flsub
                           ___xxtofl
                          _calibrate
                     _displayResults
                           _initMain
 ---------------------------------------------------------------------------------
 (1) _initMain                                             2     2      0    4000
                                             16 BANK0      2     2      0
                          _Lcd_Clear
                           _Lcd_Init
                     _Lcd_Set_Cursor
                   _Lcd_Write_String
                        _internal_32
 ---------------------------------------------------------------------------------
 (2) _internal_32                                          0     0      0       0
 ---------------------------------------------------------------------------------
 (2) _Lcd_Init                                             1     1      0     352
                                              5 COMMON     1     1      0
                            _Lcd_Cmd
                           _Lcd_Port
                   _Lcd_Send_Command
 ---------------------------------------------------------------------------------
 (1) _displayResults                                      12     4      8   27559
                                             64 BANK0     12     4      8
                          _Lcd_Clear
                     _Lcd_Set_Cursor
                    _Lcd_Write_Float
                  _Lcd_Write_Integer
                   _Lcd_Write_String
                            ___fldiv
                             ___flge
                            ___fltol
 ---------------------------------------------------------------------------------
 (2) _Lcd_Write_Float                                      7     3      4   15060
                                             57 BANK0      7     3      4
                   _Lcd_Write_String
                               _ftoa
 ---------------------------------------------------------------------------------
 (3) _ftoa                                                21    16      5   12691
                                             36 BANK0     21    16      5
                             ___flge
                            ___flmul
                            ___flneg
                            ___flsub
                            ___fltol
                           ___xxtofl
                               _itoa
 ---------------------------------------------------------------------------------
 (4) ___flsub                                              8     0      8    2637
                                             26 BANK0      8     0      8
                            ___fladd
                            ___flmul (ARG)
                           ___xxtofl (ARG)
 ---------------------------------------------------------------------------------
 (5) ___fladd                                             20    12      8    2136
                                              0 COMMON    12     4      8
                                              0 BANK0      8     8      0
 ---------------------------------------------------------------------------------
 (4) ___flneg                                              4     0      4     121
                                              0 COMMON     4     0      4
 ---------------------------------------------------------------------------------
 (1) _calibrate                                           30    30      0   17489
                                             52 BANK0      4     4      0
                                              0 BANK1     26    26      0
                          _Lcd_Clear
                     _Lcd_Set_Cursor
                  _Lcd_Write_Integer
                   _Lcd_Write_String
            _ReadTimer0WithOverflows
                            ___fldiv
                             ___flge
                            ___flmul
                            ___fltol
                           ___xxtofl
 ---------------------------------------------------------------------------------
 (4) ___xxtofl                                            14    10      4     778
                                              0 COMMON    14    10      4
 ---------------------------------------------------------------------------------
 (2) ___fltol                                             10     6      4     609
                                             26 BANK0     10     6      4
                            ___flmul (ARG)
                           ___xxtofl (ARG)
 ---------------------------------------------------------------------------------
 (4) ___flmul                                             26    18      8    4089
                                              0 BANK0     26    18      8
                          __Umul8_16
                           ___xxtofl (ARG)
 ---------------------------------------------------------------------------------
 (5) __Umul8_16                                            9     7      2     799
                                              0 COMMON     9     7      2
 ---------------------------------------------------------------------------------
 (2) ___flge                                              12     4      8     790
                                              0 COMMON    12     4      8
 ---------------------------------------------------------------------------------
 (2) ___fldiv                                             26    18      8    1881
                                             26 BANK0     26    18      8
                            ___flmul (ARG)
                           ___xxtofl (ARG)
 ---------------------------------------------------------------------------------
 (2) _ReadTimer0WithOverflows                              8     6      2       0
                                              0 COMMON     8     6      2
 ---------------------------------------------------------------------------------
 (2) _Lcd_Write_Integer                                   10     8      2    5233
                                             36 BANK0     10     8      2
                   _Lcd_Write_String
                            ___fltol (ARG)
                               _itoa
 ---------------------------------------------------------------------------------
 (3) _itoa                                                18    12      6    2862
                                              9 COMMON     5     5      0
                                              0 BANK0     13     7      6
                            ___awdiv
                             ___wmul
 ---------------------------------------------------------------------------------
 (4) ___wmul                                               6     2      4     548
                                              0 COMMON     6     2      4
 ---------------------------------------------------------------------------------
 (4) ___awdiv                                              9     5      4     908
                                              0 COMMON     9     5      4
 ---------------------------------------------------------------------------------
 (2) _Lcd_Write_String                                     3     1      2    2087
                                             13 BANK0      3     1      2
                     _Lcd_Write_Char
                               _itoa (ARG)
 ---------------------------------------------------------------------------------
 (3) _Lcd_Write_Char                                       2     2      0     132
                                              2 COMMON     2     2      0
                   _Lcd_Enable_Pulse
                           _Lcd_Port
 ---------------------------------------------------------------------------------
 (2) _Lcd_Set_Cursor                                       5     4      1    1407
                                              5 COMMON     5     4      1
                   _Lcd_Send_Command
 ---------------------------------------------------------------------------------
 (2) _Lcd_Clear                                            1     1      0     154
                                              5 COMMON     1     1      0
                   _Lcd_Send_Command
 ---------------------------------------------------------------------------------
 (3) _Lcd_Send_Command                                     2     2      0     154
                                              3 COMMON     2     2      0
                            _Lcd_Cmd
 ---------------------------------------------------------------------------------
 (4) _Lcd_Cmd                                              1     1      0     110
                                              2 COMMON     1     1      0
                   _Lcd_Enable_Pulse
                           _Lcd_Port
 ---------------------------------------------------------------------------------
 (4) _Lcd_Port                                             2     2      0      88
                                              0 COMMON     2     2      0
 ---------------------------------------------------------------------------------
 (4) _Lcd_Enable_Pulse                                     0     0      0       0
 ---------------------------------------------------------------------------------
 Estimated maximum stack depth 5
 ---------------------------------------------------------------------------------
 (Depth) Function   	        Calls       Base Space   Used Autos Params    Refs
 ---------------------------------------------------------------------------------
 (6) _isr                                                  0     0      0       0
 ---------------------------------------------------------------------------------
 Estimated maximum stack depth 6
 ---------------------------------------------------------------------------------

 Call Graph Graphs:

 _main (ROOT)
   _Lcd_Clear
     _Lcd_Send_Command
       _Lcd_Cmd
         _Lcd_Enable_Pulse
         _Lcd_Port
   _Lcd_Write_String
     _Lcd_Write_Char
       _Lcd_Enable_Pulse
       _Lcd_Port
     _itoa (ARG)
       ___awdiv
       ___wmul
   _ReadTimer0WithOverflows
   ___fldiv
     ___flmul (ARG)
       __Umul8_16
       ___xxtofl (ARG)
     ___xxtofl (ARG)
   ___flge
   ___flmul
   ___flsub
     ___fladd
     ___flmul (ARG)
     ___xxtofl (ARG)
   ___xxtofl
   _calibrate
     _Lcd_Clear
     _Lcd_Set_Cursor
       _Lcd_Send_Command
     _Lcd_Write_Integer
       _Lcd_Write_String
       ___fltol (ARG)
         ___flmul (ARG)
         ___xxtofl (ARG)
       _itoa (ARG)
     _Lcd_Write_String
     _ReadTimer0WithOverflows
     ___fldiv
     ___flge
     ___flmul
     ___fltol
     ___xxtofl
   _displayResults
     _Lcd_Clear
     _Lcd_Set_Cursor
     _Lcd_Write_Float
       _Lcd_Write_String
       _ftoa
         ___flge
         ___flmul
         ___flneg
         ___flsub
         ___fltol
         ___xxtofl
         _itoa
     _Lcd_Write_Integer
     _Lcd_Write_String
     ___fldiv
     ___flge
     ___fltol
   _initMain
     _Lcd_Clear
     _Lcd_Init
       _Lcd_Cmd
       _Lcd_Port
       _Lcd_Send_Command
     _Lcd_Set_Cursor
     _Lcd_Write_String
     _internal_32

 _isr (ROOT)

 Address spaces:
Name               Size   Autos  Total    Cost      Usage
BIGRAM             7F0      0       0       0        0.0%
NULL                 0      0       0       0        0.0%
CODE                 0      0       0       0        0.0%
BITCOMMON            E      0       0       1        0.0%
BITSFR0              0      0       0       1        0.0%
SFR0                 0      0       0       1        0.0%
COMMON               E      E       E       2      100.0%
BITSFR1              0      0       0       2        0.0%
SFR1                 0      0       0       2        0.0%
BITSFR2              0      0       0       3        0.0%
SFR2                 0      0       0       3        0.0%
STACK                0      0       0       3        0.0%
BITBANK0            50      0       0       4        0.0%
BITSFR3              0      0       0       4        0.0%
SFR3                 0      0       0       4        0.0%
BANK0               50     50      50       5      100.0%
BITSFR4              0      0       0       5        0.0%
SFR4                 0      0       0       5        0.0%
BITBANK1            50      0       0       6        0.0%
BITSFR5              0      0       0       6        0.0%
SFR5                 0      0       0       6        0.0%
BANK1               50     38      4B       7       93.8%
BITSFR6              0      0       0       7        0.0%
SFR6                 0      0       0       7        0.0%
BITBANK2            50      0       0       8        0.0%
BITSFR7              0      0       0       8        0.0%
SFR7                 0      0       0       8        0.0%
BANK2               50      0      50       9      100.0%
BITSFR8              0      0       0       9        0.0%
SFR8                 0      0       0       9        0.0%
BITBANK3            50      0       0      10        0.0%
BITSFR9              0      0       0      10        0.0%
SFR9                 0      0       0      10        0.0%
BANK3               50      0      20      11       40.0%
BITSFR10             0      0       0      11        0.0%
SFR10                0      0       0      11        0.0%
BITBANK4            50      0       0      12        0.0%
BITSFR11             0      0       0      12        0.0%
SFR11                0      0       0      12        0.0%
BANK4               50      0       0      13        0.0%
BITSFR12             0      0       0      13        0.0%
SFR12                0      0       0      13        0.0%
BITSFR13             0      0       0      14        0.0%
SFR13                0      0       0      14        0.0%
ABS                  0      0     119      14        0.0%
BITBANK5            50      0       0      15        0.0%
BITSFR14             0      0       0      15        0.0%
SFR14                0      0       0      15        0.0%
BANK5               50      0       0      16        0.0%
BITSFR15             0      0       0      16        0.0%
SFR15                0      0       0      16        0.0%
BITBANK6            50      0       0      17        0.0%
BITSFR16             0      0       0      17        0.0%
SFR16                0      0       0      17        0.0%
BANK6               50      0       0      18        0.0%
BITSFR17             0      0       0      18        0.0%
SFR17                0      0       0      18        0.0%
BITBANK7            50      0       0      19        0.0%
BITSFR18             0      0       0      19        0.0%
SFR18                0      0       0      19        0.0%
BANK7               50      0       0      20        0.0%
BITSFR19             0      0       0      20        0.0%
SFR19                0      0       0      20        0.0%
BITBANK8            50      0       0      21        0.0%
BITSFR20             0      0       0      21        0.0%
SFR20                0      0       0      21        0.0%
BANK8               50      0       0      22        0.0%
BITSFR21             0      0       0      22        0.0%
SFR21                0      0       0      22        0.0%
BITBANK9            50      0       0      23        0.0%
BITSFR22             0      0       0      23        0.0%
SFR22                0      0       0      23        0.0%
BANK9               50      0       0      24        0.0%
BITSFR23             0      0       0      24        0.0%
SFR23                0      0       0      24        0.0%
BITBANK10           50      0       0      25        0.0%
BITSFR24             0      0       0      25        0.0%
SFR24                0      0       0      25        0.0%
BANK10              50      0       0      26        0.0%
BITSFR25             0      0       0      26        0.0%
SFR25                0      0       0      26        0.0%
BITBANK11           50      0       0      27        0.0%
BITSFR26             0      0       0      27        0.0%
SFR26                0      0       0      27        0.0%
BITSFR27             0      0       0      28        0.0%
SFR27                0      0       0      28        0.0%
DATA                 0      0     119      28        0.0%
BANK11              50      0       0      29        0.0%
BITSFR28             0      0       0      29        0.0%
SFR28                0      0       0      29        0.0%
BITBANK12           50      0       0      30        0.0%
BITSFR29             0      0       0      30        0.0%
SFR29                0      0       0      30        0.0%
BANK12              50      0       0      31        0.0%
BITSFR30             0      0       0      31        0.0%
SFR30                0      0       0      31        0.0%
BITBANK13           50      0       0      32        0.0%
BITSFR31             0      0       0      32        0.0%
SFR31                0      0       0      32        0.0%
BANK13              50      0       0      33        0.0%
BITBANK14           50      0       0      34        0.0%
BANK14              50      0       0      35        0.0%
BITBANK15           50      0       0      36        0.0%
BANK15              50      0       0      37        0.0%
BITBANK16           50      0       0      38        0.0%
BANK16              50      0       0      39        0.0%
BITBANK17           50      0       0      40        0.0%
BANK17              50      0       0      41        0.0%
BITBANK18           50      0       0      42        0.0%
BANK18              50      0       0      43        0.0%
BITBANK19           50      0       0      44        0.0%
BANK19              50      0       0      45        0.0%
BITBANK20           50      0       0      46        0.0%
BANK20              50      0       0      47        0.0%
BITBANK21           50      0       0      48        0.0%
BANK21              50      0       0      49        0.0%
BITBANK22           50      0       0      50        0.0%
BANK22              50      0       0      51        0.0%
BITBANK23           50      0       0      52        0.0%
BANK23              50      0       0      53        0.0%
BITBANK24           50      0       0      54        0.0%
BANK24              50      0       0      55        0.0%
BITBANK25           20      0       0      56        0.0%
BANK25              20      0       0      57        0.0%


Microchip Technology PIC Macro Assembler V2.46 build 20240104201356 
Symbol Table                                                                                   Sun Dec 15 00:33:34 2024

                   ___fldiv@aexp 0053                     ___fldiv@bexp 0052                     ___fldiv@sign 004B  
         __end_of_displayResults 0BC6                               l41 08E0                               l50 1761  
                             l64 0BC5                               l72 04E1                               l59 0FFF  
                   ___awdiv@sign 0076              ___wmul@multiplicand 0072              __Umul8_16@word_mpld 0076  
               ?_Lcd_Write_Float 0059                              l111 1708                              l120 080E  
                            l114 171C                              l130 089D                              l108 0862  
                            l117 173D                              l133 1792                              l126 17DA  
                            l302 1711                              l127 17E0                              l151 0B1A  
                            l153 0B24                              l154 0B24                              l139 17AB  
                            l163 07D1                              l166 17C4                              l169 1779  
                            l541 098F                              l390 17FF                              l710 03E7  
                            l702 048D                              l720 042B                              l714 0409  
                            l731 0486                              l723 0463                              l388 17EB  
                            l804 07E4                              l732 048D                              l574 0A8A  
                            l566 0A1D                              l806 07F4                              l582 0A00  
                            l831 0C6F                              l735 082E                              l592 0A00  
                            l761 0D9F                              l745 0CC1                              l569 0A71  
                            l842 0C3B                              l578 07FF                              l747 0E19  
                            l843 0C47                              l835 0C21                              l589 09EB  
                            l829 0BE8                              l693 0355                              l766 0DEB  
                            l767 0E05                              l791 0201                              l695 0333  
                            l769 0E12                              l785 0281                              l689 02D7  
                            l797 0275                              _RD2 007A                              _RD3 007B  
                            _RD4 007C                              _RD5 007D                              _RD6 007E  
                            _RD7 007F         ?_ReadTimer0WithOverflows 0070                              _isr 0004  
                            wreg 0009                     ___flmul@aexp 0032                     ___flmul@bexp 0033  
                   ___flmul@sign 002D                     ___flmul@temp 0038                     ___flmul@prod 0034  
                   ___fltol@exp1 0043                             l2101 094A                             l2111 095E  
                           l2103 094C                             l2121 097B                             l2113 0962  
                           l2105 0952                             l2201 02FC                             l2115 0971  
                           l2107 0955                             l2123 0981                             l2211 0305  
                           l2203 02FE                             l2131 0282                             l2061 0838  
                           l2125 0986                             l2117 0975                             l2109 095A  
                           l2301 043D                             l2221 0341                             l2213 031D  
                           l2205 0300                             l2141 0291                             l2133 0285  
                           l2071 1706                             l2063 0846                             l2127 098B  
                           l2119 0976                             l2311 0475                             l2303 0441  
                           l2231 035E                             l2223 0342                             l2215 0337  
                           l2207 0302                             l2151 02A9                             l2143 0296  
                           l2135 0287                             l2065 0854                             l2081 17F5  
                           l2073 17E1                             l2401 07FD                             l2321 0488  
                           l2313 047A                             l2305 045F                             l2241 0377  
                           l2225 034B                             l2217 033B                             l2209 0304  
                           l2161 02B9                             l2153 02AC                             l2145 029E  
                           l2137 028B                             l2067 1700                             l2059 0830  
                           l2091 0936                             l2083 17FB                             l2075 17E3  
                           l2331 07E0                             l2403 07FF                             l2323 048C  
                           l2315 047B                             l2307 0468                             l2251 038B  
                           l2243 037B                             l2235 0367                             l2219 033D  
                           l2227 034F                             l2171 02CD                             l2163 02BA  
                           l2155 02B2                             l2147 029F                             l2139 028C  
                           l2069 1702                             l2341 1715                             l2093 093B  
                           l2077 17E7                             l2333 07EB                             l2325 07D3  
                           l2501 00E6                             l2421 09BF                             l2413 09A3  
                           l2317 047F                             l2309 046D                             l2261 03D6  
                           l2245 037D                             l2237 036F                             l2229 0359  
                           l2253 0390                             l2181 02E8                             l2165 02BF  
                           l2173 02CF                             l2157 02B3                             l2149 02A1  
                           l2343 177B                             l2095 093D                             l2087 0931  
                           l2079 17F0                             l3231 0AA5                             l3223 0A8B  
                           l3303 17AC                             l2335 07F0                             l2327 07D5  
                           l2511 012A                             l2503 00FE                             l2423 09C3  
                           l2431 09DB                             l2415 09B4                             l2407 0990  
                           l2319 0481                             l2271 03FD                             l2255 03A7  
                           l2263 03DF                             l2247 0381                             l2239 0373  
                           l2191 02F2                             l2183 02EA                             l2175 02DD  
                           l2167 02C4                             l2159 02B5                             l3311 08A1  
                           l2345 177D                             l2097 0941                             l2089 0932  
                           l3241 0AE6                             l3233 0AA9                             l3225 0A94  
                           l2329 07DC                             l2521 015C                             l2513 0131  
                           l2505 010B                             l2441 09F5                             l2417 09B5  
                           l2409 099A                             l2601 0BF9                             l2281 0412  
                           l2273 0404                             l2265 03EF                             l2257 03CB  
                           l2249 0382                             l2193 02F4                             l2185 02EC  
                           l2177 02E1                             l2169 02CC                             l3305 1762  
                           l3321 08B1                             l3313 08AA                             l2339 1713  
                           l2099 0946                             l3251 0B0C                             l3243 0AEA  
                           l3227 0A98                             l3235 0AAE                             l2531 01B7  
                           l2523 016E                             l2515 013C                             l2507 0118  
                           l2451 004B                             l2419 09BD                             l2611 0C1A  
                           l2603 0BFC                             l2291 0422                             l2283 0417  
                           l2275 0408                             l2267 03F4                             l2259 03D1  
                           l2195 02F6                             l2187 02EE                             l2179 02E6  
                           l2443 080F                             l3307 1772                             l3411 0B52  
                           l3403 0B25                             l3331 08BC                             l3323 08B3  
                           l3315 08AC                             l2701 17C6                             l3261 17A1  
                           l3253 0B10                             l3245 0AF0                             l3237 0AB2  
                           l3229 0A9F                             l2381 0A15                             l2541 01D6  
                           l2533 01BE                             l2525 0179                             l2517 0143  
                           l2509 011F                             l2461 005C                             l2453 004D  
                           l2437 09E2                             l2429 09CB                             l2621 0C49  
                           l2613 0C28                             l2605 0C07                             l2293 0428  
                           l2277 040D                             l2285 0419                             l2197 02F8  
                           l2189 02F0                             l2445 0812                             l3421 0BA0  
                           l3413 0B58                             l3405 0B2E                             l3341 08C5  
                           l3333 08BD                             l3325 08B5                             l3317 08AD  
                           l3309 089E                             l2703 17CB                             l3255 1793  
                           l3247 0AF5                             l3239 0AC2                             l2391 0A59  
                           l2383 0A31                             l2551 01EA                             l2543 01DD  
                           l2535 01CA                             l2527 018B                             l2519 0155  
                           l2471 0075                             l2463 0064                             l2455 0051  
                           l2439 09F0                             l2623 0C5D                             l2615 0C31  
                           l2607 0C0E                             l3351 0E2B                             l2279 0410  
                           l2287 041D                             l2199 02FA                             l3271 06EA  
                           l3263 0692                             l3415 0B70                             l3423 0BA9  
                           l3407 0B36                             l3343 08CB                             l3335 08BE  
                           l3327 08B6                             l3319 08AF                             l3431 0491  
                           l2641 172E                             l2705 17D3                             l3257 1794  
                           l3249 0AFA                             l2801 0D58                             l2721 0C74  
                           l2393 0A87                             l2385 0A39                             l2561 0213  
                           l2553 01FE                             l2537 01D1                             l2545 01E1  
                           l2529 01A0                             l2481 008C                             l2473 0079  
                           l2465 0066                             l2457 0052                             l2449 0047  
                           l2625 0C62                             l2617 0C35                             l2609 0C12  
                           l3361 0E5E                             l3353 0E38                             l2297 0430  
                           l2289 041E                             l3273 06F1                             l3281 0743  
                           l3265 0695                             l3425 0BB1                             l3417 0B8D  
                           l3409 0B4A                             l3345 08D3                             l3337 08BF  
                           l3329 08BA                             l3441 04D9                             l3433 049A  
                           l2707 17DC                             l3259 179C                             l2811 0D73  
                           l2803 0D5E                             l2731 0C85                             l2723 0C76  
                           l2395 0A89                             l2387 0A3D                             l2379 0A01  
                           l2571 024A                             l2563 0217                             l2547 01E5  
                           l2539 01D5                             l2483 008E                             l2475 007A  
                           l2467 006E                             l2459 0057                             l2627 0C66  
                           l2619 0C3F                             l3371 0EDB                             l3363 0E78  
                           l3355 0E40                             l3347 0E1A                             l2299 0435  
                           l3291 076C                             l3283 0754                             l3275 06F5  
                           l3267 06A5                             l3427 0BBD                             l3419 0B94  
                           l3339 08C2                             l3451 050C                             l3443 04DE  
                           l3435 04C6                             l2709 174F                             l2821 0D84  
                           l2813 0D74                             l2805 0D66                             l2741 0C9D  
                           l2733 0C8D                             l2725 0C7A                             l2389 0A55  
                           l2581 0272                             l2573 0258                             l2565 022F  
                           l2557 0206                             l2549 01E6                             l2493 00A9  
                           l2485 0096                             l2477 007F                             l2469 0073  
                           l2629 0C67                             l3381 0FB2                             l3373 0EE4  
                           l3365 0E7E                             l3357 0E4C                             l3349 0E23  
                           l3293 0788                             l3285 0758                             l3277 0709  
                           l3269 06D3                             l3461 0589                             l3453 0526  
                           l3445 04E6                             l3437 04C8                             l3429 048E  
                           l2831 0DA9                             l2823 0D88                             l2815 0D7B  
                           l2807 0D68                             l2751 0CAE                             l2743 0C9F  
                           l2735 0C8E                             l2727 0C7B                             l2719 0C70  
                           l2583 0273                             l2575 0261                             l2559 020B  
                           l2567 0233                             l2495 00B4                             l2487 009B  
                           l2479 0084                             l2591 0BCC                             l3391 0FD1  
                           l3383 0FB5                             l3375 0F10                             l3367 0E80  
                           l3359 0E54                             l2399 07F5                             l3295 07BA  
                           l3287 0762                             l3279 0719                             l3463 0654  
                           l3455 052C                             l3447 04EE                             l3439 04CD  
                           l2841 0DDE                             l2833 0DB1                             l2825 0D9C  
                           l2809 0D6F                             l2817 0D7F                             l2761 0CD5  
                           l2753 0CB6                             l2745 0CA3                             l2729 0C80  
                           l2737 0C90                             l2585 0279                             l2577 0263  
                           l2569 0240                             l2497 00C1                             l2489 00A0  
                           l2593 0BD0                             l3393 0FDD                             l3385 0FBB  
                           l3377 0F42                             l3369 0EC4                             l3297 07C9  
                           l3289 0768                             l3465 0677                             l3457 052E  
                           l3449 04FA                             l2851 0E0C                             l2843 0DF9  
                           l2835 0DB5                             l2819 0D83                             l2763 0CD9  
                           l2755 0CB7                             l2747 0CA4                             l2739 0C98  
                           l2579 026E                             l2499 00D9                             l2595 0BE0  
                           l3395 0FE5                             l3387 0FC3                             l3379 0F88  
                           l3299 07D0                             l2691 0879                             l2683 1709  
                           l3467 067A                             l3459 0572                             l2853 0E0E  
                           l2845 0DFC                             l2837 0DCD                             l2829 0DA4  
                           l2781 0D18                             l2773 0CF0                             l2749 0CA9  
                           l2757 0CB9                             l2597 0BF0                             l2589 0BC7  
                           l3389 0FC9                             l3397 0FF3                             l2693 087D  
                           l2685 0863                             l3469 0682                             l2847 0E04  
                           l2839 0DD1                             l2791 0D32                             l2783 0D1A  
                           l2775 0D00                             l2759 0CC9                             l2767 0CE2  
                           l3399 0FF6                             l2695 0895                             l2687 0867  
                           l2697 0802                             l2849 0E08                             l2785 0D1F  
                           l2793 0D39                             l2777 0D08                             l2769 0CE7  
                           l2689 086E                             l2699 0806                             l2795 0D4B  
                           l2787 0D2D                             l2779 0D10                             l2797 0D4C  
                           l2789 0D31                             l2799 0D54                             ?_isr 0070  
                           STR_1 1811                             STR_2 1822                             STR_3 1852  
                           STR_4 1863                             STR_5 1887                             STR_6 183F  
                           STR_7 186B                             STR_8 1880                             STR_9 187C  
                           u2110 0852                             u2111 084F                             u2200 0936  
                           u3000 0079                             u2105 0849                             u2201 0935  
                           u3001 0078                             u2050 0836                             u2210 0941  
                           u3010 007F                             u2051 0833                             u2211 0940  
                           u3011 007E                             u2140 0860                             u2124 0854  
                           u2220 0952                             u3020 0084                             u2300 028B  
                           u2141 085D                             u2221 0951                             u3021 0083  
                           u2301 028A                             u3110 01D5                             u3030 009B  
                           u2310 0291                             u2135 0857                             u3111 01D4  
                           u3031 009A                             u2311 0290                             u2080 0844  
                           u2064 0838                             u2240 0962                             u2160 17E7  
                           u3200 0240                             u3040 00A0                             u2400 0326  
                           u2320 0296                             u2081 0841                             u2241 0961  
                           u2161 17E6                             u3201 023F                             u3105 01CB  
                           u3041 009F                             u2401 0324                             u2321 0295  
                           u2154 0862                             u3210 0258                             u3130 01E5  
                           u2410 0327                             u2330 02B2                             u2075 083B  
                           u2235 0956                             u3211 0257                             u3131 01E4  
                           u2331 02B1                             u2260 0971                             u4100 0A9F  
                           u3220 0272                             u3140 01EA                             u2500 0381  
                           u2420 0337                             u2340 02B9                             u2261 0970  
                           u4101 0A9E                             u3221 0271                             u3205 023C  
                           u3141 01E9                             u3125 01D7                             u2501 0380  
                           u2421 0336                             u2341 02B8                             u2094 0846  
                           u2190 17FB                             u4110 0AF0                             u3150 01FE  
                           u3070 0196                             u3310 0C35                             u3230 0BCC  
                           u2430 0341                             u2350 02BF                             u2255 0963  
                           u2191 17FA                             u2175 17EC                             u4111 0AEF  
                           u3215 0254                             u3151 01FD                             u3055 0119  
                           u3311 0C34                             u3231 0BCB                             u2431 0340  
                           u2351 02BE                             u2280 0981                             u4120 0B24  
                           u3160 0205                             u3080 01AD                             u3320 0C3B  
                           u3240 0BD0                             u2600 041D                             u2520 03A7  
                           u2360 02C4                             u4200 04DE                             u2281 0980  
                           u2265 096D                             u2185 17F1                             u4121 0B23  
                           u3161 0204                             u3065 0144                             u3321 0C3A  
                           u3305 0C2B                             u3241 0BCF                             u2601 041C  
                           u2521 03A6                             u2361 02C3                             u4201 04DD  
                           u3410 17CB                             u4130 17AB                             u2290 0986  
                           u3170 020B                             u3330 0C3F                             u3250 0BF0  
                           u2610 0422                             u2530 03D6                             u2450 0355  
                           u2370 02DD                             u4210 04E6                             u3411 17CA  
                           u4131 17AA                             u2291 0985                             u2275 0977  
                           u3171 020A                             u3075 0192                             u3331 0C3E  
                           u3251 0BEF                             u2611 0421                             u2531 03D5  
                           u2523 03A3                             u2515 0385                             u2451 0354  
                           u2371 02DC                             u4211 04E5                             u3500 0D1F  
                           u3420 0C7A                             u3180 0217                             u3340 0C53  
                           u2700 047A                             u2620 0428                             u2540 03EF  
                           u2460 0359                             u2380 02E1                             u4140 06EA  
                           u4220 050C                             u4125 0B20                             u3501 0D1E  
                           u3421 0C79                             u3181 0216                             u3085 01A9  
                           u2701 0479                             u2621 0427                             u2541 03EE  
                           u2461 0358                             u2445 0345                             u2381 02E0  
                           u4141 06E9                             u4221 050B                             u3430 0C80  
                           u3190 0225                             u3350 0C62                             u3270 0C0D  
                           u2710 047F                             u2630 042F                             u2550 03F4  
                           u2470 035E                             u2390 031D                             u4150 0762  
                           u4230 0589                             u3431 0C7F                             u3095 01B8  
                           u3351 0C61                             u3271 0C0C                             u2711 047E  
                           u2631 042E                             u2551 03F3                             u2471 035D  
                           u2391 031C                             u4151 0761                             u4231 0588  
                           u3440 0C85                             u3360 0C66                             u4160 0E5E  
                           u2720 048C                             u2640 0435                             u2480 0373  
                           u3441 0C84                             u3361 0C65                             u3345 0C4F  
                           u3265 0C01                             u4161 0E5D                             u2721 048B  
                           u2641 0434                             u2481 0372                             u4225 0508  
                           u4090 0A98                             u3610 0D83                             u3530 0D31  
                           u3450 0CA3                             u2810 0A15                             u2730 07E0  
                           u3290 0C27                             u4170 0EDB                             u2650 0441  
                           u2570 0408                             u2490 0377                             u4091 0A97  
                           u3611 0D82                             u3531 0D30                             u3515 0D20  
                           u3451 0CA2                             u2811 0A14                             u2731 07DF  
                           u3195 0221                             u3291 0C26                             u4171 0EDA  
                           u2651 0440                             u2571 0407                             u2491 0376  
                           u2395 0319                             u3700 0E0C                             u3620 0D88  
                           u3460 0CA9                             u2820 0A31                             u2900 09CA  
                           u2660 0450                             u2580 040D                             u4180 0B70  
                           u3701 0E0B                             u3621 0D87                             u3605 0D75  
                           u3525 0D27                             u3461 0CA8                             u2821 0A30  
                           u2901 09C9                             u3285 0C1B                             u4165 0E5A  
                           u2581 040C                             u2565 03FE                             u4181 0B6F  
                           u3630 0D9C                             u3550 0D4B                             u3470 0CAE  
                           u2830 0A3D                             u2750 07F0                             u2670 045F  
                           u2590 0417                             u4190 04CD                             u3631 0D9B  
                           u3551 0D4A                             u3471 0CAD                             u2831 0A3C  
                           u2751 07EF                             u2671 045E                             u2591 0416  
                           u4407 087E                             u4191 04CC                             u3640 0DA3  
                           u3560 0D5E                             u3480 0CC9                             u2840 0A59  
                           u2920 09DA                             u2680 0468                             u3385 1731  
                           u3641 0DA2                             u3561 0D5D                             u3545 0D33  
                           u3481 0CC8                             u2841 0A58                             u2745 07E5  
                           u2921 09D9                             u2681 0467                             u2665 044C  
                           u4417 0898                             u4337 04D3                             u3650 0DA9  
                           u3570 0D66                             u3490 0CE7                             u2850 0A87  
                           u2930 09E1                             u2690 046D                             u3651 0DA8  
                           u3571 0D65                             u3555 0D47                             u3491 0CE6  
                           u2851 0A86                             u2931 09E0                             u2915 09CC  
                           u4427 0E31                             u2691 046C                             u4347 04F4  
                           u3660 0DB5                             u2860 07FD                             u2765 1780  
                           u3661 0DB4                             u4437 0E46                             u2861 07FC  
                           u4357 0688                             u3670 0DC3                             u3590 0D73  
                           u2950 09F0                             u2870 099A                             u3591 0D72  
                           u2855 0A83                             u2951 09EF                             u2871 0999  
                           u4447 0FEB                             u4367 08A5                             u3680 0DDE  
                           u2960 09F5                             u2880 09B0                             u4457 0809  
                           u3681 0DDD                             u3585 0D69                             u2961 09F4  
                           u2945 09E3                             u4377 08D9                             u3690 0DF9  
                           u2970 0051                             u2890 09C3                             u4467 1703  
                           u3691 0DF8                             u3675 0DBF                             u2971 0050  
                           u2891 09C2                             u4387 086A                             u2980 0057  
                           u3685 0DDA                             u2981 0056                             u2885 09AC  
                           u4397 0875                             u2990 005C                             i1l47 0010  
                           u3695 0DF5                             u2991 005B                             _SCS0 04C8  
                           _SCS1 04C9                             _TMR0 0015              Lcd_Write_String@str 002D  
              ?_Lcd_Write_String 002D                             _main 048E                             _ftoa 0692  
                           _itoa 0A8B                             fsr0h 0005                             fsr1h 0007  
                           indf0 0000                             fsr0l 0004                             indf1 0001  
                           fsr1l 0006                             btemp 007E                             start 0012  
             ??_Lcd_Write_String 002F                  ___fldiv@new_exp 004C                  __end_of_Lcd_Cmd 171D  
     Lcd_Progress_Bar_Init@F6642 00E0       Lcd_Progress_Bar_Init@F6644 00D8       Lcd_Progress_Bar_Init@F6646 0168  
     Lcd_Progress_Bar_Init@F6648 0160                            ??_isr 0070                  ?_displayResults 0060  
              _Lcd_Write_Integer 17AC                    ___fltol@sign1 0042                  __end_of___fladd 048E  
                          ?_main 0070                            ?_ftoa 0044                  __end_of___fldiv 0E1A  
                          ?_itoa 0020                  __end_of___awdiv 0990                  __end_of___flneg 0800  
                          STR_10 1884                            STR_11 187C                            STR_12 1887  
                          STR_13 1831                            STR_14 1800                            STR_15 1877  
                          STR_16 1849                            STR_17 1872                            STR_18 185B  
                __end_of___flmul 0282                  __end_of___flsub 082F                  __end_of___fltol 0A01  
                ___awdiv@divisor 0070                            _IRCF0 04CB                            _IRCF1 04CC  
                          _IRCF2 04CD                            _IRCF3 04CE               ?_Lcd_Write_Integer 0044  
                ___awdiv@counter 0075            Lcd_Battery_Init@F6661 0150            Lcd_Battery_Init@F6663 0148  
          Lcd_Battery_Init@F6671 0128            Lcd_Battery_Init@F6665 0140            Lcd_Battery_Init@F6659 0158  
          Lcd_Battery_Init@F6667 0138            Lcd_Battery_Init@F6669 0130              ??_Lcd_Write_Integer 007E  
                          ftoa@f 0044                            status 0003                            wtemp0 007E  
                   ?_internal_32 0070                _calibration_value 00E8                 __end_of_Lcd_Init 089E  
               __end_of_Lcd_Port 0863                  __initialization 0014                 _Lcd_Send_Command 172D  
                   __end_of_main 0692                     __end_of_ftoa 07D2                     __end_of_itoa 0B25  
      __end_of_Lcd_Write_Integer 17C5  __end_of_ReadTimer0WithOverflows 1762                           ??_main 006C  
                         ??_ftoa 0049                           ??_itoa 0079          displayResults@frequency 0060  
       main@precomputed_constant 00C6                 ___awdiv@dividend 0072                           i1l3001 000F  
                  main@count_end 00D2                           i1l2997 0006                           i1l2999 000A  
                         u376_20 000A                           u376_21 0009                        ??_Lcd_Cmd 0072  
                  main@frequency 00D4                           _SPLLEN 04CF                 __end_of___xxtofl 0C70  
                         ___flge 0A01                        ??___fladd 0020                           ___wmul 17E1  
                      ??___fldiv 0042                        ??___awdiv 0074                        ??___flneg 0074  
                      ??___flmul 0028                        ??___flsub 007E                        ??___fltol 003E  
               __end_of_initMain 08E1                 ___awdiv@quotient 0077                 Lcd_Write_Float@f 0059  
                 _tmr0_overflows 00E9                       ___flge@ff1 0070                       ___flge@ff2 0074  
                   ___xxtofl@arg 007A                     ___xxtofl@exp 0079                     ___xxtofl@val 0070  
              ?_Lcd_Enable_Pulse 0070          __end_of__initialization 0043                       ___flneg@f1 0070  
              __end_of_Lcd_Clear 080F               ??_Lcd_Enable_Pulse 0070                     ftoa@int_part 0056  
                     ___fltol@f1 003A                   __pcstackCOMMON 0070    calibrate@precomputed_constant 00A4  
    displayResults@inductance_mh 0068      displayResults@inductance_uh 0064                     __pidataBANK1 173E  
                   __pidataBANK2 08E1                     __pidataBANK3 171D                   _Lcd_Set_Cursor 17C5  
                 _OPTION_REGbits 0095                        ?_Lcd_Init 0070                        ?_Lcd_Port 0070  
                     __pbssBANK1 00E9                       __pbssBANK3 01A0                 ??_displayResults 007E  
              __end_of__Umul8_16 07F5                       __pmaintext 048E                          ?___flge 0070  
                        ?___wmul 0070                       __pintentry 0004           __end_of_Lcd_Set_Cursor 17E1  
                      ?___xxtofl 0070                       ??_Lcd_Init 0075                       ??_Lcd_Port 0070  
       __end_of_Lcd_Send_Command 173E                __end_of_calibrate 1000                        ?_initMain 0070  
                 _Lcd_Write_Char 177A                          _Lcd_Cmd 1712                          ___fladd 0282  
                        ___fldiv 0C70                          ___awdiv 0931                          ___flneg 07F5  
                        ___flmul 0047                          ___flsub 080F                          ___fltol 0990  
                ?_Lcd_Set_Cursor 0075                          __ptext1 089E                          __ptext2 1709  
                        __ptext3 0863                          __ptext4 0B25                          __ptext5 1762  
                        __ptext6 0692                          __ptext7 080F                          __ptext8 0282  
                        __ptext9 07F5                       ??___xxtofl 0074                          clrloop0 16F5  
         __end_of_Lcd_Write_Char 1793             end_of_initialization 0043                          ftoa@buf 01A0  
                        ftoa@ptr 0058                       ??_initMain 0030                          itoa@buf 0020  
                        init_ram 16FA                          itoa@ptr 002B                          initloop 16FB  
            Lcd_Send_Command@cmd 0074                        Lcd_Port@a 0071                     itoa@tmp_char 0028  
                      _PORTCbits 000E                    ftoa@frac_part 0052                      ___fladd@grs 007B  
               main@inductance_h 00BA                    ___xxtofl@sign 0078                        _TRISBbits 008D  
                      _TRISCbits 008E             Lcd_Signal_Init@F6680 01B8             Lcd_Signal_Init@F6682 01B0  
           Lcd_Signal_Init@F6678 0120                      ___fldiv@grs 004E                      ___fldiv@rem 0047  
                ?_Lcd_Write_Char 0070          _ReadTimer0WithOverflows 174F                      ___flmul@grs 002E  
              ??_Lcd_Write_Float 007E            calibrate@inductance_h 00A8                        _Lcd_Clear 0802  
                main@capacitance 00C2                   __end_of___flge 0A8B                   __end_of___wmul 1800  
               _Lcd_Write_String 1793            Lcd_Set_Cursor@address 0079            Lcd_Write_Float@status 005E  
            start_initialization 0014             calibrate@capacitance 00A0                      __end_of_isr 0012  
                     ftoa@status 0048                       ?_Lcd_Clear 0070                         ??___flge 0078  
                       ??___wmul 0074                        __Umul8_16 07D2                      __pdataBANK1 00D8  
                    __pdataBANK2 0120                      __pdataBANK3 01B0                  Lcd_Write_Char@a 0073  
                      ___fladd@a 0074                        ___fladd@b 0070                        ___fldiv@a 003A  
                      ___fldiv@b 003E                        ___flmul@a 0024                        ___flmul@b 0020  
                      ___flsub@a 003A                        ___flsub@b 003E                        ___latbits 0003  
                  __pcstackBANK0 0020                    __pcstackBANK1 00A0        ??_ReadTimer0WithOverflows 0072  
              ?_Lcd_Send_Command 0070               _Lcd_Set_Cursor$419 0077               ??_Lcd_Send_Command 0073  
                       ?_Lcd_Cmd 0070                        _calibrate 0E1A                    ??_internal_32 0070  
                      _main$1135 00CA                 ??_Lcd_Set_Cursor 0076                         ?___fladd 0070  
                       ?___fldiv 003A                        _ftoa$1136 004A                         ?___awdiv 0070  
                       ?___flneg 0070                         ?___flmul 0020                         ?___flsub 003A  
                       ?___fltol 003A                       ?__Umul8_16 0070               calibrate@count_end 00B8  
             calibrate@frequency 00B2                       ?_calibrate 0070                   ___wmul@product 0074  
                       _LATCbits 010E                         _LATDbits 010F                        clear_ram0 16F4  
                main@count_start 00D0                         Lcd_Cmd@a 0072                      ??_Lcd_Clear 0075  
            __end_of_internal_32 1712             calibrate@count_start 00B6                 _Lcd_Enable_Pulse 1700  
              ___wmul@multiplier 0070                 ??_Lcd_Write_Char 0072                  _Lcd_Write_Float 1762  
                       _Lcd_Init 0863                         _Lcd_Port 082F         __end_of_Lcd_Write_String 17AC  
                    ??__Umul8_16 0072                        itoa@value 0022                       _ANSELBbits 018D  
                     _ANSELCbits 018E                         ___xxtofl 0BC6                         __ptext10 0E1A  
                       __ptext11 0BC6                         __ptext20 17E1                         __ptext12 0990  
                       __ptext21 0931                         __ptext13 0047                         __ptext22 1793  
                       __ptext14 07D2                         __ptext23 177A                         __ptext15 0A01  
                       __ptext24 17C5                         __ptext16 0C70                         __ptext25 0802  
                       __ptext17 174F                         __ptext26 172D                         __ptext18 17AC  
                       __ptext27 1712                         __ptext19 0A8B                         __ptext28 082F  
                       __ptext29 1700                         _initMain 089E                      ??_calibrate 0054  
                 _calibrate$1134 00AC                      _internal_32 1709                         int$flags 007E  
           Lcd_Write_Integer@buf 0046          __end_of_Lcd_Write_Float 177A                       _INTCONbits 000B  
                       itoa@base 0024                   __pstringtext10 186B                   __pstringtext11 1872  
                 __pstringtext12 1877                   __pstringtext13 187C                   __pstringtext14 1880  
                 __pstringtext15 1884                   __pstringtext16 1887                   __pstringtext17 0000  
                       itoa@ptr1 0029                         intlevel1 0000                 main@total_counts 00CE  
             Lcd_Write_Float@buf 005D                    __pstringtext1 1800                    __pstringtext2 1811  
                  __pstringtext3 1822                    __pstringtext4 1831                    __pstringtext5 183F  
                  __pstringtext6 1849                    __pstringtext7 1852                    __pstringtext8 185B  
                  __pstringtext9 1863                   _displayResults 0B25           __Umul8_16@multiplicand 0070  
                ftoa@frac_as_int 004E                  ftoa@frac_digits 0050                    itoa@tmp_value 0026  
             Lcd_Write_Integer@v 0044                Lcd_Set_Cursor@col 0075                Lcd_Set_Cursor@row 0076  
                  ___fladd@signs 0078            calibrate@total_counts 00B0         __end_of_Lcd_Enable_Pulse 1709  
                   ___fladd@aexp 0079                     ___fladd@bexp 007A             __Umul8_16@multiplier 0078  
              main@inductance_uh 00BE                __Umul8_16@product 0074  
