

Microchip MPLAB XC8 Assembler V2.45 build 20230818022343 
                                                                                               Tue Mar 26 14:53:19 2024

Microchip MPLAB XC8 C Compiler v2.45 (Free license) build 20230818022343 Og1 
     1                           	processor	16F1719
     2                           	pagewidth 120
     3                           	opt	flic
     4                           	psect	idataBANK1,global,class=CODE,delta=2,noexec
     5                           	psect	stringtext1,global,class=STRCODE,delta=2,noexec
     6                           	psect	stringtext2,global,class=STRCODE,delta=2,noexec
     7                           	psect	stringtext3,global,class=STRCODE,delta=2,noexec
     8                           	psect	stringtext4,global,class=STRCODE,delta=2,noexec
     9                           	psect	stringtext5,global,class=STRCODE,delta=2,noexec
    10                           	psect	stringtext6,global,class=STRCODE,delta=2,noexec
    11                           	psect	stringtext7,global,class=STRCODE,delta=2,noexec
    12                           	psect	stringtext8,global,class=STRCODE,delta=2,noexec
    13                           	psect	stringtext9,global,class=STRCODE,delta=2,noexec
    14                           	psect	stringtext10,global,class=STRCODE,delta=2,noexec
    15                           	psect	stringtext11,global,class=STRCODE,delta=2,noexec
    16                           	psect	stringtext12,global,class=STRCODE,delta=2,noexec
    17                           	psect	stringtext13,global,class=STRCODE,delta=2,noexec
    18                           	psect	stringtext14,global,class=STRCODE,delta=2,noexec
    19                           	psect	stringtext15,global,class=STRCODE,delta=2,noexec
    20                           	psect	stringtext16,global,class=STRCODE,delta=2,noexec
    21                           	psect	stringtext17,global,class=STRCODE,delta=2,noexec
    22                           	psect	stringtext18,global,class=STRCODE,delta=2,noexec
    23                           	psect	stringtext19,global,class=STRCODE,delta=2,noexec
    24                           	psect	stringtext20,global,class=STRCODE,delta=2,noexec
    25                           	psect	stringtext21,global,class=STRCODE,delta=2,noexec
    26                           	psect	stringtext22,global,class=STRCODE,delta=2,noexec
    27                           	psect	stringtext23,global,class=STRCODE,delta=2,noexec
    28                           	psect	stringtext24,global,class=STRCODE,delta=2,noexec
    29                           	psect	stringtext25,global,class=STRCODE,delta=2,noexec
    30                           	psect	stringtext26,global,class=STRCODE,delta=2,noexec
    31                           	psect	stringtext27,global,class=STRCODE,delta=2,noexec
    32                           	psect	stringtext28,global,class=STRCODE,delta=2,noexec
    33                           	psect	stringtext29,global,class=STRCODE,delta=2,noexec
    34                           	psect	stringtext30,global,class=STRCODE,delta=2,noexec
    35                           	psect	cinit,global,class=CODE,merge=1,delta=2
    36                           	psect	bssBANK0,global,class=BANK0,space=1,delta=1,noexec
    37                           	psect	dataBANK1,global,class=BANK1,space=1,delta=1,noexec
    38                           	psect	inittext,global,class=CODE,delta=2
    39                           	psect	clrtext,global,class=CODE,delta=2
    40                           	psect	cstackCOMMON,global,class=COMMON,space=1,delta=1,noexec
    41                           	psect	cstackBANK0,global,class=BANK0,space=1,delta=1,noexec
    42                           	psect	maintext,global,class=CODE,merge=1,split=1,delta=2
    43                           	psect	text1,local,class=CODE,merge=1,delta=2
    44                           	psect	text2,local,class=CODE,merge=1,delta=2
    45                           	psect	text3,local,class=CODE,merge=1,delta=2
    46                           	psect	text4,local,class=CODE,merge=1,delta=2
    47                           	psect	text5,local,class=CODE,merge=1,delta=2
    48                           	psect	text6,local,class=CODE,merge=1,delta=2
    49                           	psect	text7,local,class=CODE,merge=1,delta=2
    50                           	psect	text8,local,class=CODE,merge=1,delta=2
    51                           	psect	text9,local,class=CODE,merge=1,delta=2,group=2
    52                           	psect	text10,local,class=CODE,merge=1,delta=2
    53                           	psect	text11,local,class=CODE,merge=1,delta=2
    54                           	psect	text12,local,class=CODE,merge=1,delta=2
    55                           	psect	text13,local,class=CODE,merge=1,delta=2
    56                           	psect	config,global,abs,ovrld,class=CONFIG,space=4,delta=2,noexec
    57                           	dabs	1,0x7E,2
    58     0000                     
    59                           ; Generated 06/07/2023 GMT
    60                           ; 
    61                           ; Copyright © 2023, Microchip Technology Inc. and its subsidiaries ("Microchip")
    62                           ; All rights reserved.
    63                           ; 
    64                           ; This software is developed by Microchip Technology Inc. and its subsidiaries ("Microch
      +                          ip").
    65                           ; 
    66                           ; Redistribution and use in source and binary forms, with or without modification, are
    67                           ; permitted provided that the following conditions are met:
    68                           ; 
    69                           ;     1. Redistributions of source code must retain the above copyright notice, this lis
      +                          t of
    70                           ;        conditions and the following disclaimer.
    71                           ; 
    72                           ;     2. Redistributions in binary form must reproduce the above copyright notice, this 
      +                          list
    73                           ;        of conditions and the following disclaimer in the documentation and/or other
    74                           ;        materials provided with the distribution. Publication is not required when
    75                           ;        this file is used in an embedded application.
    76                           ; 
    77                           ;     3. Microchip's name may not be used to endorse or promote products derived from th
      +                          is
    78                           ;        software without specific prior written permission.
    79                           ; 
    80                           ; THIS SOFTWARE IS PROVIDED BY MICROCHIP "AS IS" AND ANY EXPRESS OR IMPLIED WARRANTIES,
    81                           ; INCLUDING, BUT NOT LIMITED TO, THE IMPLIED WARRANTIES OF MERCHANTABILITY AND FITNESS F
      +                          OR
    82                           ; PURPOSE ARE DISCLAIMED.  IN NO EVENT SHALL MICROCHIP BE LIABLE FOR ANY DIRECT, INDIREC
      +                          T,
    83                           ; INCIDENTAL, SPECIAL, EXEMPLARY, OR CONSEQUENTIAL DAMAGES (INCLUDING BUT NOT LIMITED TO
    84                           ; PROCUREMENT OF SUBSTITUTE GOODS OR SERVICES; LOSS OF USE, DATA OR PROFITS; OR BUSINESS
    85                           ; INTERRUPTION) HOWSOEVER CAUSED AND ON ANY THEORY OF LIABILITY, WHETHER IN CONTRACT, ST
      +                          RICT
    86                           ; LIABILITY, OR TORT (INCLUDING NEGLIGENCE OR OTHERWISE) ARISING IN ANY WAY OUT OF THE U
      +                          SE OF
    87                           ; THIS SOFTWARE, EVEN IF ADVISED OF THE POSSIBILITY OF SUCH DAMAGE.
    88                           ; 
    89                           ; 
    90                           ; Code-generator required, PIC16F1719 Definitions
    91                           ; 
    92                           ; SFR Addresses
    93     0000                     	;# 
    94     0001                     	;# 
    95     0002                     	;# 
    96     0003                     	;# 
    97     0004                     	;# 
    98     0005                     	;# 
    99     0006                     	;# 
   100     0007                     	;# 
   101     0008                     	;# 
   102     0009                     	;# 
   103     000A                     	;# 
   104     000B                     	;# 
   105     000C                     	;# 
   106     000D                     	;# 
   107     000E                     	;# 
   108     000F                     	;# 
   109     0010                     	;# 
   110     0011                     	;# 
   111     0012                     	;# 
   112     0013                     	;# 
   113     0015                     	;# 
   114     0016                     	;# 
   115     0016                     	;# 
   116     0017                     	;# 
   117     0018                     	;# 
   118     0019                     	;# 
   119     001A                     	;# 
   120     001B                     	;# 
   121     001C                     	;# 
   122     008C                     	;# 
   123     008D                     	;# 
   124     008E                     	;# 
   125     008F                     	;# 
   126     0090                     	;# 
   127     0091                     	;# 
   128     0092                     	;# 
   129     0093                     	;# 
   130     0095                     	;# 
   131     0096                     	;# 
   132     0097                     	;# 
   133     0098                     	;# 
   134     0099                     	;# 
   135     009A                     	;# 
   136     009B                     	;# 
   137     009B                     	;# 
   138     009C                     	;# 
   139     009D                     	;# 
   140     009E                     	;# 
   141     009F                     	;# 
   142     010C                     	;# 
   143     010D                     	;# 
   144     010E                     	;# 
   145     010F                     	;# 
   146     0110                     	;# 
   147     0111                     	;# 
   148     0112                     	;# 
   149     0113                     	;# 
   150     0114                     	;# 
   151     0115                     	;# 
   152     0116                     	;# 
   153     0117                     	;# 
   154     0118                     	;# 
   155     0119                     	;# 
   156     011A                     	;# 
   157     011B                     	;# 
   158     011B                     	;# 
   159     011C                     	;# 
   160     018C                     	;# 
   161     018D                     	;# 
   162     018E                     	;# 
   163     018F                     	;# 
   164     0190                     	;# 
   165     0191                     	;# 
   166     0191                     	;# 
   167     0192                     	;# 
   168     0193                     	;# 
   169     0193                     	;# 
   170     0194                     	;# 
   171     0195                     	;# 
   172     0196                     	;# 
   173     0197                     	;# 
   174     0199                     	;# 
   175     0199                     	;# 
   176     0199                     	;# 
   177     019A                     	;# 
   178     019A                     	;# 
   179     019A                     	;# 
   180     019B                     	;# 
   181     019B                     	;# 
   182     019B                     	;# 
   183     019B                     	;# 
   184     019B                     	;# 
   185     019C                     	;# 
   186     019C                     	;# 
   187     019C                     	;# 
   188     019D                     	;# 
   189     019D                     	;# 
   190     019D                     	;# 
   191     019E                     	;# 
   192     019E                     	;# 
   193     019E                     	;# 
   194     019F                     	;# 
   195     019F                     	;# 
   196     019F                     	;# 
   197     019F                     	;# 
   198     019F                     	;# 
   199     020C                     	;# 
   200     020D                     	;# 
   201     020E                     	;# 
   202     020F                     	;# 
   203     0210                     	;# 
   204     0211                     	;# 
   205     0211                     	;# 
   206     0212                     	;# 
   207     0212                     	;# 
   208     0213                     	;# 
   209     0213                     	;# 
   210     0214                     	;# 
   211     0214                     	;# 
   212     0215                     	;# 
   213     0215                     	;# 
   214     0215                     	;# 
   215     0215                     	;# 
   216     0216                     	;# 
   217     0216                     	;# 
   218     0217                     	;# 
   219     0217                     	;# 
   220     028C                     	;# 
   221     028D                     	;# 
   222     028E                     	;# 
   223     028F                     	;# 
   224     0290                     	;# 
   225     0291                     	;# 
   226     0291                     	;# 
   227     0292                     	;# 
   228     0293                     	;# 
   229     0293                     	;# 
   230     0298                     	;# 
   231     0298                     	;# 
   232     0299                     	;# 
   233     029A                     	;# 
   234     029A                     	;# 
   235     029E                     	;# 
   236     030C                     	;# 
   237     030D                     	;# 
   238     030E                     	;# 
   239     030F                     	;# 
   240     0310                     	;# 
   241     038C                     	;# 
   242     038D                     	;# 
   243     038E                     	;# 
   244     038F                     	;# 
   245     0390                     	;# 
   246     0391                     	;# 
   247     0392                     	;# 
   248     0393                     	;# 
   249     0394                     	;# 
   250     0395                     	;# 
   251     0396                     	;# 
   252     0397                     	;# 
   253     0398                     	;# 
   254     0399                     	;# 
   255     039D                     	;# 
   256     039E                     	;# 
   257     039F                     	;# 
   258     0415                     	;# 
   259     0416                     	;# 
   260     0417                     	;# 
   261     041C                     	;# 
   262     041D                     	;# 
   263     041E                     	;# 
   264     0498                     	;# 
   265     0498                     	;# 
   266     0499                     	;# 
   267     049A                     	;# 
   268     049B                     	;# 
   269     049B                     	;# 
   270     049C                     	;# 
   271     049D                     	;# 
   272     049E                     	;# 
   273     049F                     	;# 
   274     0511                     	;# 
   275     0515                     	;# 
   276     0617                     	;# 
   277     0618                     	;# 
   278     0619                     	;# 
   279     0619                     	;# 
   280     061A                     	;# 
   281     061B                     	;# 
   282     061C                     	;# 
   283     061C                     	;# 
   284     0691                     	;# 
   285     0692                     	;# 
   286     0693                     	;# 
   287     0694                     	;# 
   288     0695                     	;# 
   289     0696                     	;# 
   290     0697                     	;# 
   291     0698                     	;# 
   292     0699                     	;# 
   293     069A                     	;# 
   294     069B                     	;# 
   295     069C                     	;# 
   296     069D                     	;# 
   297     069E                     	;# 
   298     069F                     	;# 
   299     0E0F                     	;# 
   300     0E10                     	;# 
   301     0E11                     	;# 
   302     0E12                     	;# 
   303     0E13                     	;# 
   304     0E14                     	;# 
   305     0E15                     	;# 
   306     0E17                     	;# 
   307     0E20                     	;# 
   308     0E21                     	;# 
   309     0E22                     	;# 
   310     0E24                     	;# 
   311     0E25                     	;# 
   312     0E28                     	;# 
   313     0E29                     	;# 
   314     0E2A                     	;# 
   315     0E2B                     	;# 
   316     0E90                     	;# 
   317     0E91                     	;# 
   318     0E92                     	;# 
   319     0E93                     	;# 
   320     0E94                     	;# 
   321     0E95                     	;# 
   322     0E96                     	;# 
   323     0E97                     	;# 
   324     0E98                     	;# 
   325     0E99                     	;# 
   326     0E9A                     	;# 
   327     0E9B                     	;# 
   328     0E9C                     	;# 
   329     0E9D                     	;# 
   330     0E9E                     	;# 
   331     0E9F                     	;# 
   332     0EA0                     	;# 
   333     0EA1                     	;# 
   334     0EA2                     	;# 
   335     0EA3                     	;# 
   336     0EA4                     	;# 
   337     0EA5                     	;# 
   338     0EA6                     	;# 
   339     0EA7                     	;# 
   340     0EA8                     	;# 
   341     0EA9                     	;# 
   342     0EAA                     	;# 
   343     0EAB                     	;# 
   344     0EAC                     	;# 
   345     0EAD                     	;# 
   346     0EAE                     	;# 
   347     0EAF                     	;# 
   348     0EB0                     	;# 
   349     0EB1                     	;# 
   350     0EB2                     	;# 
   351     0F0F                     	;# 
   352     0F10                     	;# 
   353     0F11                     	;# 
   354     0F12                     	;# 
   355     0F13                     	;# 
   356     0F14                     	;# 
   357     0F15                     	;# 
   358     0F16                     	;# 
   359     0F17                     	;# 
   360     0F18                     	;# 
   361     0F19                     	;# 
   362     0F1A                     	;# 
   363     0F1B                     	;# 
   364     0F1C                     	;# 
   365     0F1D                     	;# 
   366     0F1E                     	;# 
   367     0F1F                     	;# 
   368     0F20                     	;# 
   369     0F21                     	;# 
   370     0F22                     	;# 
   371     0F23                     	;# 
   372     0F24                     	;# 
   373     0F25                     	;# 
   374     0F26                     	;# 
   375     0F27                     	;# 
   376     0F28                     	;# 
   377     0F29                     	;# 
   378     0F2A                     	;# 
   379     0F2B                     	;# 
   380     0F2C                     	;# 
   381     0F2D                     	;# 
   382     0F2E                     	;# 
   383     0F2F                     	;# 
   384     0F30                     	;# 
   385     0F31                     	;# 
   386     0F32                     	;# 
   387     0F33                     	;# 
   388     0F34                     	;# 
   389     0F35                     	;# 
   390     0F36                     	;# 
   391     0F37                     	;# 
   392     0FE4                     	;# 
   393     0FE5                     	;# 
   394     0FE6                     	;# 
   395     0FE7                     	;# 
   396     0FE8                     	;# 
   397     0FE9                     	;# 
   398     0FEA                     	;# 
   399     0FEB                     	;# 
   400     0FED                     	;# 
   401     0FEE                     	;# 
   402     0FEF                     	;# 
   403     0000                     	;# 
   404     0001                     	;# 
   405     0002                     	;# 
   406     0003                     	;# 
   407     0004                     	;# 
   408     0005                     	;# 
   409     0006                     	;# 
   410     0007                     	;# 
   411     0008                     	;# 
   412     0009                     	;# 
   413     000A                     	;# 
   414     000B                     	;# 
   415     000C                     	;# 
   416     000D                     	;# 
   417     000E                     	;# 
   418     000F                     	;# 
   419     0010                     	;# 
   420     0011                     	;# 
   421     0012                     	;# 
   422     0013                     	;# 
   423     0015                     	;# 
   424     0016                     	;# 
   425     0016                     	;# 
   426     0017                     	;# 
   427     0018                     	;# 
   428     0019                     	;# 
   429     001A                     	;# 
   430     001B                     	;# 
   431     001C                     	;# 
   432     008C                     	;# 
   433     008D                     	;# 
   434     008E                     	;# 
   435     008F                     	;# 
   436     0090                     	;# 
   437     0091                     	;# 
   438     0092                     	;# 
   439     0093                     	;# 
   440     0095                     	;# 
   441     0096                     	;# 
   442     0097                     	;# 
   443     0098                     	;# 
   444     0099                     	;# 
   445     009A                     	;# 
   446     009B                     	;# 
   447     009B                     	;# 
   448     009C                     	;# 
   449     009D                     	;# 
   450     009E                     	;# 
   451     009F                     	;# 
   452     010C                     	;# 
   453     010D                     	;# 
   454     010E                     	;# 
   455     010F                     	;# 
   456     0110                     	;# 
   457     0111                     	;# 
   458     0112                     	;# 
   459     0113                     	;# 
   460     0114                     	;# 
   461     0115                     	;# 
   462     0116                     	;# 
   463     0117                     	;# 
   464     0118                     	;# 
   465     0119                     	;# 
   466     011A                     	;# 
   467     011B                     	;# 
   468     011B                     	;# 
   469     011C                     	;# 
   470     018C                     	;# 
   471     018D                     	;# 
   472     018E                     	;# 
   473     018F                     	;# 
   474     0190                     	;# 
   475     0191                     	;# 
   476     0191                     	;# 
   477     0192                     	;# 
   478     0193                     	;# 
   479     0193                     	;# 
   480     0194                     	;# 
   481     0195                     	;# 
   482     0196                     	;# 
   483     0197                     	;# 
   484     0199                     	;# 
   485     0199                     	;# 
   486     0199                     	;# 
   487     019A                     	;# 
   488     019A                     	;# 
   489     019A                     	;# 
   490     019B                     	;# 
   491     019B                     	;# 
   492     019B                     	;# 
   493     019B                     	;# 
   494     019B                     	;# 
   495     019C                     	;# 
   496     019C                     	;# 
   497     019C                     	;# 
   498     019D                     	;# 
   499     019D                     	;# 
   500     019D                     	;# 
   501     019E                     	;# 
   502     019E                     	;# 
   503     019E                     	;# 
   504     019F                     	;# 
   505     019F                     	;# 
   506     019F                     	;# 
   507     019F                     	;# 
   508     019F                     	;# 
   509     020C                     	;# 
   510     020D                     	;# 
   511     020E                     	;# 
   512     020F                     	;# 
   513     0210                     	;# 
   514     0211                     	;# 
   515     0211                     	;# 
   516     0212                     	;# 
   517     0212                     	;# 
   518     0213                     	;# 
   519     0213                     	;# 
   520     0214                     	;# 
   521     0214                     	;# 
   522     0215                     	;# 
   523     0215                     	;# 
   524     0215                     	;# 
   525     0215                     	;# 
   526     0216                     	;# 
   527     0216                     	;# 
   528     0217                     	;# 
   529     0217                     	;# 
   530     028C                     	;# 
   531     028D                     	;# 
   532     028E                     	;# 
   533     028F                     	;# 
   534     0290                     	;# 
   535     0291                     	;# 
   536     0291                     	;# 
   537     0292                     	;# 
   538     0293                     	;# 
   539     0293                     	;# 
   540     0298                     	;# 
   541     0298                     	;# 
   542     0299                     	;# 
   543     029A                     	;# 
   544     029A                     	;# 
   545     029E                     	;# 
   546     030C                     	;# 
   547     030D                     	;# 
   548     030E                     	;# 
   549     030F                     	;# 
   550     0310                     	;# 
   551     038C                     	;# 
   552     038D                     	;# 
   553     038E                     	;# 
   554     038F                     	;# 
   555     0390                     	;# 
   556     0391                     	;# 
   557     0392                     	;# 
   558     0393                     	;# 
   559     0394                     	;# 
   560     0395                     	;# 
   561     0396                     	;# 
   562     0397                     	;# 
   563     0398                     	;# 
   564     0399                     	;# 
   565     039D                     	;# 
   566     039E                     	;# 
   567     039F                     	;# 
   568     0415                     	;# 
   569     0416                     	;# 
   570     0417                     	;# 
   571     041C                     	;# 
   572     041D                     	;# 
   573     041E                     	;# 
   574     0498                     	;# 
   575     0498                     	;# 
   576     0499                     	;# 
   577     049A                     	;# 
   578     049B                     	;# 
   579     049B                     	;# 
   580     049C                     	;# 
   581     049D                     	;# 
   582     049E                     	;# 
   583     049F                     	;# 
   584     0511                     	;# 
   585     0515                     	;# 
   586     0617                     	;# 
   587     0618                     	;# 
   588     0619                     	;# 
   589     0619                     	;# 
   590     061A                     	;# 
   591     061B                     	;# 
   592     061C                     	;# 
   593     061C                     	;# 
   594     0691                     	;# 
   595     0692                     	;# 
   596     0693                     	;# 
   597     0694                     	;# 
   598     0695                     	;# 
   599     0696                     	;# 
   600     0697                     	;# 
   601     0698                     	;# 
   602     0699                     	;# 
   603     069A                     	;# 
   604     069B                     	;# 
   605     069C                     	;# 
   606     069D                     	;# 
   607     069E                     	;# 
   608     069F                     	;# 
   609     0E0F                     	;# 
   610     0E10                     	;# 
   611     0E11                     	;# 
   612     0E12                     	;# 
   613     0E13                     	;# 
   614     0E14                     	;# 
   615     0E15                     	;# 
   616     0E17                     	;# 
   617     0E20                     	;# 
   618     0E21                     	;# 
   619     0E22                     	;# 
   620     0E24                     	;# 
   621     0E25                     	;# 
   622     0E28                     	;# 
   623     0E29                     	;# 
   624     0E2A                     	;# 
   625     0E2B                     	;# 
   626     0E90                     	;# 
   627     0E91                     	;# 
   628     0E92                     	;# 
   629     0E93                     	;# 
   630     0E94                     	;# 
   631     0E95                     	;# 
   632     0E96                     	;# 
   633     0E97                     	;# 
   634     0E98                     	;# 
   635     0E99                     	;# 
   636     0E9A                     	;# 
   637     0E9B                     	;# 
   638     0E9C                     	;# 
   639     0E9D                     	;# 
   640     0E9E                     	;# 
   641     0E9F                     	;# 
   642     0EA0                     	;# 
   643     0EA1                     	;# 
   644     0EA2                     	;# 
   645     0EA3                     	;# 
   646     0EA4                     	;# 
   647     0EA5                     	;# 
   648     0EA6                     	;# 
   649     0EA7                     	;# 
   650     0EA8                     	;# 
   651     0EA9                     	;# 
   652     0EAA                     	;# 
   653     0EAB                     	;# 
   654     0EAC                     	;# 
   655     0EAD                     	;# 
   656     0EAE                     	;# 
   657     0EAF                     	;# 
   658     0EB0                     	;# 
   659     0EB1                     	;# 
   660     0EB2                     	;# 
   661     0F0F                     	;# 
   662     0F10                     	;# 
   663     0F11                     	;# 
   664     0F12                     	;# 
   665     0F13                     	;# 
   666     0F14                     	;# 
   667     0F15                     	;# 
   668     0F16                     	;# 
   669     0F17                     	;# 
   670     0F18                     	;# 
   671     0F19                     	;# 
   672     0F1A                     	;# 
   673     0F1B                     	;# 
   674     0F1C                     	;# 
   675     0F1D                     	;# 
   676     0F1E                     	;# 
   677     0F1F                     	;# 
   678     0F20                     	;# 
   679     0F21                     	;# 
   680     0F22                     	;# 
   681     0F23                     	;# 
   682     0F24                     	;# 
   683     0F25                     	;# 
   684     0F26                     	;# 
   685     0F27                     	;# 
   686     0F28                     	;# 
   687     0F29                     	;# 
   688     0F2A                     	;# 
   689     0F2B                     	;# 
   690     0F2C                     	;# 
   691     0F2D                     	;# 
   692     0F2E                     	;# 
   693     0F2F                     	;# 
   694     0F30                     	;# 
   695     0F31                     	;# 
   696     0F32                     	;# 
   697     0F33                     	;# 
   698     0F34                     	;# 
   699     0F35                     	;# 
   700     0F36                     	;# 
   701     0F37                     	;# 
   702     0FE4                     	;# 
   703     0FE5                     	;# 
   704     0FE6                     	;# 
   705     0FE7                     	;# 
   706     0FE8                     	;# 
   707     0FE9                     	;# 
   708     0FEA                     	;# 
   709     0FEB                     	;# 
   710     0FED                     	;# 
   711     0FEE                     	;# 
   712     0FEF                     	;# 
   713     0000                     	;# 
   714     0001                     	;# 
   715     0002                     	;# 
   716     0003                     	;# 
   717     0004                     	;# 
   718     0005                     	;# 
   719     0006                     	;# 
   720     0007                     	;# 
   721     0008                     	;# 
   722     0009                     	;# 
   723     000A                     	;# 
   724     000B                     	;# 
   725     000C                     	;# 
   726     000D                     	;# 
   727     000E                     	;# 
   728     000F                     	;# 
   729     0010                     	;# 
   730     0011                     	;# 
   731     0012                     	;# 
   732     0013                     	;# 
   733     0015                     	;# 
   734     0016                     	;# 
   735     0016                     	;# 
   736     0017                     	;# 
   737     0018                     	;# 
   738     0019                     	;# 
   739     001A                     	;# 
   740     001B                     	;# 
   741     001C                     	;# 
   742     008C                     	;# 
   743     008D                     	;# 
   744     008E                     	;# 
   745     008F                     	;# 
   746     0090                     	;# 
   747     0091                     	;# 
   748     0092                     	;# 
   749     0093                     	;# 
   750     0095                     	;# 
   751     0096                     	;# 
   752     0097                     	;# 
   753     0098                     	;# 
   754     0099                     	;# 
   755     009A                     	;# 
   756     009B                     	;# 
   757     009B                     	;# 
   758     009C                     	;# 
   759     009D                     	;# 
   760     009E                     	;# 
   761     009F                     	;# 
   762     010C                     	;# 
   763     010D                     	;# 
   764     010E                     	;# 
   765     010F                     	;# 
   766     0110                     	;# 
   767     0111                     	;# 
   768     0112                     	;# 
   769     0113                     	;# 
   770     0114                     	;# 
   771     0115                     	;# 
   772     0116                     	;# 
   773     0117                     	;# 
   774     0118                     	;# 
   775     0119                     	;# 
   776     011A                     	;# 
   777     011B                     	;# 
   778     011B                     	;# 
   779     011C                     	;# 
   780     018C                     	;# 
   781     018D                     	;# 
   782     018E                     	;# 
   783     018F                     	;# 
   784     0190                     	;# 
   785     0191                     	;# 
   786     0191                     	;# 
   787     0192                     	;# 
   788     0193                     	;# 
   789     0193                     	;# 
   790     0194                     	;# 
   791     0195                     	;# 
   792     0196                     	;# 
   793     0197                     	;# 
   794     0199                     	;# 
   795     0199                     	;# 
   796     0199                     	;# 
   797     019A                     	;# 
   798     019A                     	;# 
   799     019A                     	;# 
   800     019B                     	;# 
   801     019B                     	;# 
   802     019B                     	;# 
   803     019B                     	;# 
   804     019B                     	;# 
   805     019C                     	;# 
   806     019C                     	;# 
   807     019C                     	;# 
   808     019D                     	;# 
   809     019D                     	;# 
   810     019D                     	;# 
   811     019E                     	;# 
   812     019E                     	;# 
   813     019E                     	;# 
   814     019F                     	;# 
   815     019F                     	;# 
   816     019F                     	;# 
   817     019F                     	;# 
   818     019F                     	;# 
   819     020C                     	;# 
   820     020D                     	;# 
   821     020E                     	;# 
   822     020F                     	;# 
   823     0210                     	;# 
   824     0211                     	;# 
   825     0211                     	;# 
   826     0212                     	;# 
   827     0212                     	;# 
   828     0213                     	;# 
   829     0213                     	;# 
   830     0214                     	;# 
   831     0214                     	;# 
   832     0215                     	;# 
   833     0215                     	;# 
   834     0215                     	;# 
   835     0215                     	;# 
   836     0216                     	;# 
   837     0216                     	;# 
   838     0217                     	;# 
   839     0217                     	;# 
   840     028C                     	;# 
   841     028D                     	;# 
   842     028E                     	;# 
   843     028F                     	;# 
   844     0290                     	;# 
   845     0291                     	;# 
   846     0291                     	;# 
   847     0292                     	;# 
   848     0293                     	;# 
   849     0293                     	;# 
   850     0298                     	;# 
   851     0298                     	;# 
   852     0299                     	;# 
   853     029A                     	;# 
   854     029A                     	;# 
   855     029E                     	;# 
   856     030C                     	;# 
   857     030D                     	;# 
   858     030E                     	;# 
   859     030F                     	;# 
   860     0310                     	;# 
   861     038C                     	;# 
   862     038D                     	;# 
   863     038E                     	;# 
   864     038F                     	;# 
   865     0390                     	;# 
   866     0391                     	;# 
   867     0392                     	;# 
   868     0393                     	;# 
   869     0394                     	;# 
   870     0395                     	;# 
   871     0396                     	;# 
   872     0397                     	;# 
   873     0398                     	;# 
   874     0399                     	;# 
   875     039D                     	;# 
   876     039E                     	;# 
   877     039F                     	;# 
   878     0415                     	;# 
   879     0416                     	;# 
   880     0417                     	;# 
   881     041C                     	;# 
   882     041D                     	;# 
   883     041E                     	;# 
   884     0498                     	;# 
   885     0498                     	;# 
   886     0499                     	;# 
   887     049A                     	;# 
   888     049B                     	;# 
   889     049B                     	;# 
   890     049C                     	;# 
   891     049D                     	;# 
   892     049E                     	;# 
   893     049F                     	;# 
   894     0511                     	;# 
   895     0515                     	;# 
   896     0617                     	;# 
   897     0618                     	;# 
   898     0619                     	;# 
   899     0619                     	;# 
   900     061A                     	;# 
   901     061B                     	;# 
   902     061C                     	;# 
   903     061C                     	;# 
   904     0691                     	;# 
   905     0692                     	;# 
   906     0693                     	;# 
   907     0694                     	;# 
   908     0695                     	;# 
   909     0696                     	;# 
   910     0697                     	;# 
   911     0698                     	;# 
   912     0699                     	;# 
   913     069A                     	;# 
   914     069B                     	;# 
   915     069C                     	;# 
   916     069D                     	;# 
   917     069E                     	;# 
   918     069F                     	;# 
   919     0E0F                     	;# 
   920     0E10                     	;# 
   921     0E11                     	;# 
   922     0E12                     	;# 
   923     0E13                     	;# 
   924     0E14                     	;# 
   925     0E15                     	;# 
   926     0E17                     	;# 
   927     0E20                     	;# 
   928     0E21                     	;# 
   929     0E22                     	;# 
   930     0E24                     	;# 
   931     0E25                     	;# 
   932     0E28                     	;# 
   933     0E29                     	;# 
   934     0E2A                     	;# 
   935     0E2B                     	;# 
   936     0E90                     	;# 
   937     0E91                     	;# 
   938     0E92                     	;# 
   939     0E93                     	;# 
   940     0E94                     	;# 
   941     0E95                     	;# 
   942     0E96                     	;# 
   943     0E97                     	;# 
   944     0E98                     	;# 
   945     0E99                     	;# 
   946     0E9A                     	;# 
   947     0E9B                     	;# 
   948     0E9C                     	;# 
   949     0E9D                     	;# 
   950     0E9E                     	;# 
   951     0E9F                     	;# 
   952     0EA0                     	;# 
   953     0EA1                     	;# 
   954     0EA2                     	;# 
   955     0EA3                     	;# 
   956     0EA4                     	;# 
   957     0EA5                     	;# 
   958     0EA6                     	;# 
   959     0EA7                     	;# 
   960     0EA8                     	;# 
   961     0EA9                     	;# 
   962     0EAA                     	;# 
   963     0EAB                     	;# 
   964     0EAC                     	;# 
   965     0EAD                     	;# 
   966     0EAE                     	;# 
   967     0EAF                     	;# 
   968     0EB0                     	;# 
   969     0EB1                     	;# 
   970     0EB2                     	;# 
   971     0F0F                     	;# 
   972     0F10                     	;# 
   973     0F11                     	;# 
   974     0F12                     	;# 
   975     0F13                     	;# 
   976     0F14                     	;# 
   977     0F15                     	;# 
   978     0F16                     	;# 
   979     0F17                     	;# 
   980     0F18                     	;# 
   981     0F19                     	;# 
   982     0F1A                     	;# 
   983     0F1B                     	;# 
   984     0F1C                     	;# 
   985     0F1D                     	;# 
   986     0F1E                     	;# 
   987     0F1F                     	;# 
   988     0F20                     	;# 
   989     0F21                     	;# 
   990     0F22                     	;# 
   991     0F23                     	;# 
   992     0F24                     	;# 
   993     0F25                     	;# 
   994     0F26                     	;# 
   995     0F27                     	;# 
   996     0F28                     	;# 
   997     0F29                     	;# 
   998     0F2A                     	;# 
   999     0F2B                     	;# 
  1000     0F2C                     	;# 
  1001     0F2D                     	;# 
  1002     0F2E                     	;# 
  1003     0F2F                     	;# 
  1004     0F30                     	;# 
  1005     0F31                     	;# 
  1006     0F32                     	;# 
  1007     0F33                     	;# 
  1008     0F34                     	;# 
  1009     0F35                     	;# 
  1010     0F36                     	;# 
  1011     0F37                     	;# 
  1012     0FE4                     	;# 
  1013     0FE5                     	;# 
  1014     0FE6                     	;# 
  1015     0FE7                     	;# 
  1016     0FE8                     	;# 
  1017     0FE9                     	;# 
  1018     0FEA                     	;# 
  1019     0FEB                     	;# 
  1020     0FED                     	;# 
  1021     0FEE                     	;# 
  1022     0FEF                     	;# 
  1023     0000                     	;# 
  1024     0001                     	;# 
  1025     0002                     	;# 
  1026     0003                     	;# 
  1027     0004                     	;# 
  1028     0005                     	;# 
  1029     0006                     	;# 
  1030     0007                     	;# 
  1031     0008                     	;# 
  1032     0009                     	;# 
  1033     000A                     	;# 
  1034     000B                     	;# 
  1035     000C                     	;# 
  1036     000D                     	;# 
  1037     000E                     	;# 
  1038     000F                     	;# 
  1039     0010                     	;# 
  1040     0011                     	;# 
  1041     0012                     	;# 
  1042     0013                     	;# 
  1043     0015                     	;# 
  1044     0016                     	;# 
  1045     0016                     	;# 
  1046     0017                     	;# 
  1047     0018                     	;# 
  1048     0019                     	;# 
  1049     001A                     	;# 
  1050     001B                     	;# 
  1051     001C                     	;# 
  1052     008C                     	;# 
  1053     008D                     	;# 
  1054     008E                     	;# 
  1055     008F                     	;# 
  1056     0090                     	;# 
  1057     0091                     	;# 
  1058     0092                     	;# 
  1059     0093                     	;# 
  1060     0095                     	;# 
  1061     0096                     	;# 
  1062     0097                     	;# 
  1063     0098                     	;# 
  1064     0099                     	;# 
  1065     009A                     	;# 
  1066     009B                     	;# 
  1067     009B                     	;# 
  1068     009C                     	;# 
  1069     009D                     	;# 
  1070     009E                     	;# 
  1071     009F                     	;# 
  1072     010C                     	;# 
  1073     010D                     	;# 
  1074     010E                     	;# 
  1075     010F                     	;# 
  1076     0110                     	;# 
  1077     0111                     	;# 
  1078     0112                     	;# 
  1079     0113                     	;# 
  1080     0114                     	;# 
  1081     0115                     	;# 
  1082     0116                     	;# 
  1083     0117                     	;# 
  1084     0118                     	;# 
  1085     0119                     	;# 
  1086     011A                     	;# 
  1087     011B                     	;# 
  1088     011B                     	;# 
  1089     011C                     	;# 
  1090     018C                     	;# 
  1091     018D                     	;# 
  1092     018E                     	;# 
  1093     018F                     	;# 
  1094     0190                     	;# 
  1095     0191                     	;# 
  1096     0191                     	;# 
  1097     0192                     	;# 
  1098     0193                     	;# 
  1099     0193                     	;# 
  1100     0194                     	;# 
  1101     0195                     	;# 
  1102     0196                     	;# 
  1103     0197                     	;# 
  1104     0199                     	;# 
  1105     0199                     	;# 
  1106     0199                     	;# 
  1107     019A                     	;# 
  1108     019A                     	;# 
  1109     019A                     	;# 
  1110     019B                     	;# 
  1111     019B                     	;# 
  1112     019B                     	;# 
  1113     019B                     	;# 
  1114     019B                     	;# 
  1115     019C                     	;# 
  1116     019C                     	;# 
  1117     019C                     	;# 
  1118     019D                     	;# 
  1119     019D                     	;# 
  1120     019D                     	;# 
  1121     019E                     	;# 
  1122     019E                     	;# 
  1123     019E                     	;# 
  1124     019F                     	;# 
  1125     019F                     	;# 
  1126     019F                     	;# 
  1127     019F                     	;# 
  1128     019F                     	;# 
  1129     020C                     	;# 
  1130     020D                     	;# 
  1131     020E                     	;# 
  1132     020F                     	;# 
  1133     0210                     	;# 
  1134     0211                     	;# 
  1135     0211                     	;# 
  1136     0212                     	;# 
  1137     0212                     	;# 
  1138     0213                     	;# 
  1139     0213                     	;# 
  1140     0214                     	;# 
  1141     0214                     	;# 
  1142     0215                     	;# 
  1143     0215                     	;# 
  1144     0215                     	;# 
  1145     0215                     	;# 
  1146     0216                     	;# 
  1147     0216                     	;# 
  1148     0217                     	;# 
  1149     0217                     	;# 
  1150     028C                     	;# 
  1151     028D                     	;# 
  1152     028E                     	;# 
  1153     028F                     	;# 
  1154     0290                     	;# 
  1155     0291                     	;# 
  1156     0291                     	;# 
  1157     0292                     	;# 
  1158     0293                     	;# 
  1159     0293                     	;# 
  1160     0298                     	;# 
  1161     0298                     	;# 
  1162     0299                     	;# 
  1163     029A                     	;# 
  1164     029A                     	;# 
  1165     029E                     	;# 
  1166     030C                     	;# 
  1167     030D                     	;# 
  1168     030E                     	;# 
  1169     030F                     	;# 
  1170     0310                     	;# 
  1171     038C                     	;# 
  1172     038D                     	;# 
  1173     038E                     	;# 
  1174     038F                     	;# 
  1175     0390                     	;# 
  1176     0391                     	;# 
  1177     0392                     	;# 
  1178     0393                     	;# 
  1179     0394                     	;# 
  1180     0395                     	;# 
  1181     0396                     	;# 
  1182     0397                     	;# 
  1183     0398                     	;# 
  1184     0399                     	;# 
  1185     039D                     	;# 
  1186     039E                     	;# 
  1187     039F                     	;# 
  1188     0415                     	;# 
  1189     0416                     	;# 
  1190     0417                     	;# 
  1191     041C                     	;# 
  1192     041D                     	;# 
  1193     041E                     	;# 
  1194     0498                     	;# 
  1195     0498                     	;# 
  1196     0499                     	;# 
  1197     049A                     	;# 
  1198     049B                     	;# 
  1199     049B                     	;# 
  1200     049C                     	;# 
  1201     049D                     	;# 
  1202     049E                     	;# 
  1203     049F                     	;# 
  1204     0511                     	;# 
  1205     0515                     	;# 
  1206     0617                     	;# 
  1207     0618                     	;# 
  1208     0619                     	;# 
  1209     0619                     	;# 
  1210     061A                     	;# 
  1211     061B                     	;# 
  1212     061C                     	;# 
  1213     061C                     	;# 
  1214     0691                     	;# 
  1215     0692                     	;# 
  1216     0693                     	;# 
  1217     0694                     	;# 
  1218     0695                     	;# 
  1219     0696                     	;# 
  1220     0697                     	;# 
  1221     0698                     	;# 
  1222     0699                     	;# 
  1223     069A                     	;# 
  1224     069B                     	;# 
  1225     069C                     	;# 
  1226     069D                     	;# 
  1227     069E                     	;# 
  1228     069F                     	;# 
  1229     0E0F                     	;# 
  1230     0E10                     	;# 
  1231     0E11                     	;# 
  1232     0E12                     	;# 
  1233     0E13                     	;# 
  1234     0E14                     	;# 
  1235     0E15                     	;# 
  1236     0E17                     	;# 
  1237     0E20                     	;# 
  1238     0E21                     	;# 
  1239     0E22                     	;# 
  1240     0E24                     	;# 
  1241     0E25                     	;# 
  1242     0E28                     	;# 
  1243     0E29                     	;# 
  1244     0E2A                     	;# 
  1245     0E2B                     	;# 
  1246     0E90                     	;# 
  1247     0E91                     	;# 
  1248     0E92                     	;# 
  1249     0E93                     	;# 
  1250     0E94                     	;# 
  1251     0E95                     	;# 
  1252     0E96                     	;# 
  1253     0E97                     	;# 
  1254     0E98                     	;# 
  1255     0E99                     	;# 
  1256     0E9A                     	;# 
  1257     0E9B                     	;# 
  1258     0E9C                     	;# 
  1259     0E9D                     	;# 
  1260     0E9E                     	;# 
  1261     0E9F                     	;# 
  1262     0EA0                     	;# 
  1263     0EA1                     	;# 
  1264     0EA2                     	;# 
  1265     0EA3                     	;# 
  1266     0EA4                     	;# 
  1267     0EA5                     	;# 
  1268     0EA6                     	;# 
  1269     0EA7                     	;# 
  1270     0EA8                     	;# 
  1271     0EA9                     	;# 
  1272     0EAA                     	;# 
  1273     0EAB                     	;# 
  1274     0EAC                     	;# 
  1275     0EAD                     	;# 
  1276     0EAE                     	;# 
  1277     0EAF                     	;# 
  1278     0EB0                     	;# 
  1279     0EB1                     	;# 
  1280     0EB2                     	;# 
  1281     0F0F                     	;# 
  1282     0F10                     	;# 
  1283     0F11                     	;# 
  1284     0F12                     	;# 
  1285     0F13                     	;# 
  1286     0F14                     	;# 
  1287     0F15                     	;# 
  1288     0F16                     	;# 
  1289     0F17                     	;# 
  1290     0F18                     	;# 
  1291     0F19                     	;# 
  1292     0F1A                     	;# 
  1293     0F1B                     	;# 
  1294     0F1C                     	;# 
  1295     0F1D                     	;# 
  1296     0F1E                     	;# 
  1297     0F1F                     	;# 
  1298     0F20                     	;# 
  1299     0F21                     	;# 
  1300     0F22                     	;# 
  1301     0F23                     	;# 
  1302     0F24                     	;# 
  1303     0F25                     	;# 
  1304     0F26                     	;# 
  1305     0F27                     	;# 
  1306     0F28                     	;# 
  1307     0F29                     	;# 
  1308     0F2A                     	;# 
  1309     0F2B                     	;# 
  1310     0F2C                     	;# 
  1311     0F2D                     	;# 
  1312     0F2E                     	;# 
  1313     0F2F                     	;# 
  1314     0F30                     	;# 
  1315     0F31                     	;# 
  1316     0F32                     	;# 
  1317     0F33                     	;# 
  1318     0F34                     	;# 
  1319     0F35                     	;# 
  1320     0F36                     	;# 
  1321     0F37                     	;# 
  1322     0FE4                     	;# 
  1323     0FE5                     	;# 
  1324     0FE6                     	;# 
  1325     0FE7                     	;# 
  1326     0FE8                     	;# 
  1327     0FE9                     	;# 
  1328     0FEA                     	;# 
  1329     0FEB                     	;# 
  1330     0FED                     	;# 
  1331     0FEE                     	;# 
  1332     0FEF                     	;# 
  1333                           
  1334                           	psect	idataBANK1
  1335     0595                     __pidataBANK1:
  1336                           
  1337                           ;initializer for itoa@num
  1338     0595  3430               	retlw	48
  1339     0596  3431               	retlw	49
  1340     0597  3432               	retlw	50
  1341     0598  3433               	retlw	51
  1342     0599  3434               	retlw	52
  1343     059A  3435               	retlw	53
  1344     059B  3436               	retlw	54
  1345     059C  3437               	retlw	55
  1346     059D  3438               	retlw	56
  1347     059E  3439               	retlw	57
  1348     059F  3461               	retlw	97
  1349     05A0  3462               	retlw	98
  1350     05A1  3463               	retlw	99
  1351     05A2  3464               	retlw	100
  1352     05A3  3465               	retlw	101
  1353     05A4  3466               	retlw	102
  1354     05A5  3467               	retlw	103
  1355     05A6  3468               	retlw	104
  1356     05A7  3469               	retlw	105
  1357     05A8  346A               	retlw	106
  1358     05A9  346B               	retlw	107
  1359     05AA  346C               	retlw	108
  1360     05AB  346D               	retlw	109
  1361     05AC  346E               	retlw	110
  1362     05AD  346F               	retlw	111
  1363     05AE  3470               	retlw	112
  1364     05AF  3471               	retlw	113
  1365     05B0  3472               	retlw	114
  1366     05B1  3473               	retlw	115
  1367     05B2  3474               	retlw	116
  1368     05B3  3475               	retlw	117
  1369     05B4  3476               	retlw	118
  1370     05B5  3477               	retlw	119
  1371     05B6  3478               	retlw	120
  1372     05B7  3479               	retlw	121
  1373     05B8  347A               	retlw	122
  1374     05B9  3400               	retlw	0
  1375                           
  1376                           	psect	stringtext1
  1377     0B28                     __pstringtext1:
  1378     0B28                     _dp_l:
  1379     0B28  3400               	retlw	0
  1380     0B29  3400               	retlw	0
  1381     0B2A  3400               	retlw	0
  1382     0B2B  3400               	retlw	0
  1383     0B2C  34DC               	retlw	220
  1384     0B2D  34CF               	retlw	207
  1385     0B2E  34D1               	retlw	209
  1386     0B2F  3435               	retlw	53
  1387     0B30                     __end_of_dp_l:
  1388                           
  1389                           	psect	stringtext2
  1390     0B30                     __pstringtext2:
  1391     0B30                     _dp_h:
  1392     0B30  3400               	retlw	0
  1393     0B31  3400               	retlw	0
  1394     0B32  3400               	retlw	0
  1395     0B33  3400               	retlw	0
  1396     0B34  3400               	retlw	0
  1397     0B35  34C0               	retlw	192
  1398     0B36  3415               	retlw	21
  1399     0B37  343F               	retlw	63
  1400     0B38                     __end_of_dp_h:
  1401                           
  1402                           	psect	stringtext3
  1403     0B38                     __pstringtext3:
  1404     0B38                     _bp:
  1405     0B38  3400               	retlw	0
  1406     0B39  3400               	retlw	0
  1407     0B3A  3480               	retlw	128
  1408     0B3B  343F               	retlw	63
  1409     0B3C  3400               	retlw	0
  1410     0B3D  3400               	retlw	0
  1411     0B3E  34C0               	retlw	192
  1412     0B3F  343F               	retlw	63
  1413     0B40                     __end_of_bp:
  1414                           
  1415                           	psect	stringtext4
  1416     0B48                     __pstringtext4:
  1417     0B48                     _ivln2_l:
  1418     0B48  3470               	retlw	112
  1419     0B49  34A5               	retlw	165
  1420     0B4A  34EC               	retlw	236
  1421     0B4B  3436               	retlw	54
  1422     0B4C                     __end_of_ivln2_l:
  1423                           
  1424                           	psect	stringtext5
  1425     0B4C                     __pstringtext5:
  1426     0B4C                     _ivln2:
  1427     0B4C  343B               	retlw	59
  1428     0B4D  34AA               	retlw	170
  1429     0B4E  34B8               	retlw	184
  1430     0B4F  343F               	retlw	63
  1431     0B50                     __end_of_ivln2:
  1432                           
  1433                           	psect	stringtext6
  1434     0B50                     __pstringtext6:
  1435     0B50                     _cp:
  1436     0B50  344F               	retlw	79
  1437     0B51  3438               	retlw	56
  1438     0B52  3476               	retlw	118
  1439     0B53  343F               	retlw	63
  1440     0B54                     __end_of_cp:
  1441                           
  1442                           	psect	stringtext7
  1443     0B54                     __pstringtext7:
  1444     0B54                     _ovt:
  1445     0B54  343C               	retlw	60
  1446     0B55  34AA               	retlw	170
  1447     0B56  3438               	retlw	56
  1448     0B57  3433               	retlw	51
  1449     0B58                     __end_of_ovt:
  1450                           
  1451                           	psect	stringtext8
  1452     0B58                     __pstringtext8:
  1453     0B58                     _lg2_l:
  1454     0B58  348C               	retlw	140
  1455     0B59  34BE               	retlw	190
  1456     0B5A  34BF               	retlw	191
  1457     0B5B  3435               	retlw	53
  1458     0B5C                     __end_of_lg2_l:
  1459                           
  1460                           	psect	stringtext9
  1461     0B5C                     __pstringtext9:
  1462     0B5C                     _lg2_h:
  1463     0B5C  3400               	retlw	0
  1464     0B5D  3472               	retlw	114
  1465     0B5E  3431               	retlw	49
  1466     0B5F  343F               	retlw	63
  1467     0B60                     __end_of_lg2_h:
  1468                           
  1469                           	psect	stringtext10
  1470     0B60                     __pstringtext10:
  1471     0B60                     _lg2:
  1472     0B60  3418               	retlw	24
  1473     0B61  3472               	retlw	114
  1474     0B62  3431               	retlw	49
  1475     0B63  343F               	retlw	63
  1476     0B64                     __end_of_lg2:
  1477                           
  1478                           	psect	stringtext11
  1479     0B64                     __pstringtext11:
  1480     0B64                     _P5:
  1481     0B64  344C               	retlw	76
  1482     0B65  34BB               	retlw	187
  1483     0B66  3431               	retlw	49
  1484     0B67  3433               	retlw	51
  1485     0B68                     __end_of_P5:
  1486                           
  1487                           	psect	stringtext12
  1488     0B68                     __pstringtext12:
  1489     0B68                     _P4:
  1490     0B68  340E               	retlw	14
  1491     0B69  34EA               	retlw	234
  1492     0B6A  34DD               	retlw	221
  1493     0B6B  34B5               	retlw	181
  1494     0B6C                     __end_of_P4:
  1495                           
  1496                           	psect	stringtext13
  1497     0B6C                     __pstringtext13:
  1498     0B6C                     _P3:
  1499     0B6C  3455               	retlw	85
  1500     0B6D  34B3               	retlw	179
  1501     0B6E  348A               	retlw	138
  1502     0B6F  3438               	retlw	56
  1503     0B70                     __end_of_P3:
  1504                           
  1505                           	psect	stringtext14
  1506     0B70                     __pstringtext14:
  1507     0B70                     _P2:
  1508     0B70  3461               	retlw	97
  1509     0B71  340B               	retlw	11
  1510     0B72  3436               	retlw	54
  1511     0B73  34BB               	retlw	187
  1512     0B74                     __end_of_P2:
  1513                           
  1514                           	psect	stringtext15
  1515     0B74                     __pstringtext15:
  1516     0B74                     _P1:
  1517     0B74  34AB               	retlw	171
  1518     0B75  34AA               	retlw	170
  1519     0B76  342A               	retlw	42
  1520     0B77  343E               	retlw	62
  1521     0B78                     __end_of_P1:
  1522                           
  1523                           	psect	stringtext16
  1524     0B78                     __pstringtext16:
  1525     0B78                     _L6:
  1526     0B78  3442               	retlw	66
  1527     0B79  34F1               	retlw	241
  1528     0B7A  3453               	retlw	83
  1529     0B7B  343E               	retlw	62
  1530     0B7C                     __end_of_L6:
  1531                           
  1532                           	psect	stringtext17
  1533     0B7C                     __pstringtext17:
  1534     0B7C                     _L5:
  1535     0B7C  3455               	retlw	85
  1536     0B7D  3432               	retlw	50
  1537     0B7E  346C               	retlw	108
  1538     0B7F  343E               	retlw	62
  1539     0B80                     __end_of_L5:
  1540                           
  1541                           	psect	stringtext18
  1542     0B80                     __pstringtext18:
  1543     0B80                     _L4:
  1544     0B80  3405               	retlw	5
  1545     0B81  34A3               	retlw	163
  1546     0B82  348B               	retlw	139
  1547     0B83  343E               	retlw	62
  1548     0B84                     __end_of_L4:
  1549                           
  1550                           	psect	stringtext19
  1551     0B84                     __pstringtext19:
  1552     0B84                     _L3:
  1553     0B84  34AB               	retlw	171
  1554     0B85  34AA               	retlw	170
  1555     0B86  34AA               	retlw	170
  1556     0B87  343E               	retlw	62
  1557     0B88                     __end_of_L3:
  1558                           
  1559                           	psect	stringtext20
  1560     0B88                     __pstringtext20:
  1561     0B88                     _L2:
  1562     0B88  34B7               	retlw	183
  1563     0B89  346D               	retlw	109
  1564     0B8A  34DB               	retlw	219
  1565     0B8B  343E               	retlw	62
  1566     0B8C                     __end_of_L2:
  1567                           
  1568                           	psect	stringtext21
  1569     0B8C                     __pstringtext21:
  1570     0B8C                     _L1:
  1571     0B8C  349A               	retlw	154
  1572     0B8D  3499               	retlw	153
  1573     0B8E  3419               	retlw	25
  1574     0B8F  343F               	retlw	63
  1575     0B90                     __end_of_L1:
  1576                           
  1577                           	psect	stringtext22
  1578     0B90                     __pstringtext22:
  1579     0B90                     _two24:
  1580     0B90  3400               	retlw	0
  1581     0B91  3400               	retlw	0
  1582     0B92  3480               	retlw	128
  1583     0B93  344B               	retlw	75
  1584     0B94                     __end_of_two24:
  1585                           
  1586                           	psect	stringtext23
  1587     0800                     __pstringtext23:
  1588     0800                     _OledFont:
  1589     0800  3400               	retlw	0
  1590     0801  3400               	retlw	0
  1591     0802  3400               	retlw	0
  1592     0803  3400               	retlw	0
  1593     0804  3400               	retlw	0
  1594     0805  3400               	retlw	0
  1595     0806  3400               	retlw	0
  1596     0807  3400               	retlw	0
  1597     0808  3400               	retlw	0
  1598     0809  3400               	retlw	0
  1599     080A  345F               	retlw	95
  1600     080B  3400               	retlw	0
  1601     080C  3400               	retlw	0
  1602     080D  3400               	retlw	0
  1603     080E  3400               	retlw	0
  1604     080F  3400               	retlw	0
  1605     0810  3400               	retlw	0
  1606     0811  3400               	retlw	0
  1607     0812  3407               	retlw	7
  1608     0813  3400               	retlw	0
  1609     0814  3407               	retlw	7
  1610     0815  3400               	retlw	0
  1611     0816  3400               	retlw	0
  1612     0817  3400               	retlw	0
  1613     0818  3400               	retlw	0
  1614     0819  3414               	retlw	20
  1615     081A  347F               	retlw	127
  1616     081B  3414               	retlw	20
  1617     081C  347F               	retlw	127
  1618     081D  3414               	retlw	20
  1619     081E  3400               	retlw	0
  1620     081F  3400               	retlw	0
  1621     0820  3400               	retlw	0
  1622     0821  3424               	retlw	36
  1623     0822  342A               	retlw	42
  1624     0823  347F               	retlw	127
  1625     0824  342A               	retlw	42
  1626     0825  3412               	retlw	18
  1627     0826  3400               	retlw	0
  1628     0827  3400               	retlw	0
  1629     0828  3400               	retlw	0
  1630     0829  3423               	retlw	35
  1631     082A  3413               	retlw	19
  1632     082B  3408               	retlw	8
  1633     082C  3464               	retlw	100
  1634     082D  3462               	retlw	98
  1635     082E  3400               	retlw	0
  1636     082F  3400               	retlw	0
  1637     0830  3400               	retlw	0
  1638     0831  3436               	retlw	54
  1639     0832  3449               	retlw	73
  1640     0833  3455               	retlw	85
  1641     0834  3422               	retlw	34
  1642     0835  3450               	retlw	80
  1643     0836  3400               	retlw	0
  1644     0837  3400               	retlw	0
  1645     0838  3400               	retlw	0
  1646     0839  3400               	retlw	0
  1647     083A  3405               	retlw	5
  1648     083B  3403               	retlw	3
  1649     083C  3400               	retlw	0
  1650     083D  3400               	retlw	0
  1651     083E  3400               	retlw	0
  1652     083F  3400               	retlw	0
  1653     0840  3400               	retlw	0
  1654     0841  341C               	retlw	28
  1655     0842  3422               	retlw	34
  1656     0843  3441               	retlw	65
  1657     0844  3400               	retlw	0
  1658     0845  3400               	retlw	0
  1659     0846  3400               	retlw	0
  1660     0847  3400               	retlw	0
  1661     0848  3400               	retlw	0
  1662     0849  3441               	retlw	65
  1663     084A  3422               	retlw	34
  1664     084B  341C               	retlw	28
  1665     084C  3400               	retlw	0
  1666     084D  3400               	retlw	0
  1667     084E  3400               	retlw	0
  1668     084F  3400               	retlw	0
  1669     0850  3400               	retlw	0
  1670     0851  3408               	retlw	8
  1671     0852  342A               	retlw	42
  1672     0853  341C               	retlw	28
  1673     0854  342A               	retlw	42
  1674     0855  3408               	retlw	8
  1675     0856  3400               	retlw	0
  1676     0857  3400               	retlw	0
  1677     0858  3400               	retlw	0
  1678     0859  3408               	retlw	8
  1679     085A  3408               	retlw	8
  1680     085B  343E               	retlw	62
  1681     085C  3408               	retlw	8
  1682     085D  3408               	retlw	8
  1683     085E  3400               	retlw	0
  1684     085F  3400               	retlw	0
  1685     0860  3400               	retlw	0
  1686     0861  34A0               	retlw	160
  1687     0862  3460               	retlw	96
  1688     0863  3400               	retlw	0
  1689     0864  3400               	retlw	0
  1690     0865  3400               	retlw	0
  1691     0866  3400               	retlw	0
  1692     0867  3400               	retlw	0
  1693     0868  3400               	retlw	0
  1694     0869  3408               	retlw	8
  1695     086A  3408               	retlw	8
  1696     086B  3408               	retlw	8
  1697     086C  3408               	retlw	8
  1698     086D  3408               	retlw	8
  1699     086E  3400               	retlw	0
  1700     086F  3400               	retlw	0
  1701     0870  3400               	retlw	0
  1702     0871  3460               	retlw	96
  1703     0872  3460               	retlw	96
  1704     0873  3400               	retlw	0
  1705     0874  3400               	retlw	0
  1706     0875  3400               	retlw	0
  1707     0876  3400               	retlw	0
  1708     0877  3400               	retlw	0
  1709     0878  3400               	retlw	0
  1710     0879  3420               	retlw	32
  1711     087A  3410               	retlw	16
  1712     087B  3408               	retlw	8
  1713     087C  3404               	retlw	4
  1714     087D  3402               	retlw	2
  1715     087E  3400               	retlw	0
  1716     087F  3400               	retlw	0
  1717     0880  3400               	retlw	0
  1718     0881  343E               	retlw	62
  1719     0882  3451               	retlw	81
  1720     0883  3449               	retlw	73
  1721     0884  3445               	retlw	69
  1722     0885  343E               	retlw	62
  1723     0886  3400               	retlw	0
  1724     0887  3400               	retlw	0
  1725     0888  3400               	retlw	0
  1726     0889  3400               	retlw	0
  1727     088A  3442               	retlw	66
  1728     088B  347F               	retlw	127
  1729     088C  3440               	retlw	64
  1730     088D  3400               	retlw	0
  1731     088E  3400               	retlw	0
  1732     088F  3400               	retlw	0
  1733     0890  3400               	retlw	0
  1734     0891  3462               	retlw	98
  1735     0892  3451               	retlw	81
  1736     0893  3449               	retlw	73
  1737     0894  3449               	retlw	73
  1738     0895  3446               	retlw	70
  1739     0896  3400               	retlw	0
  1740     0897  3400               	retlw	0
  1741     0898  3400               	retlw	0
  1742     0899  3422               	retlw	34
  1743     089A  3441               	retlw	65
  1744     089B  3449               	retlw	73
  1745     089C  3449               	retlw	73
  1746     089D  3436               	retlw	54
  1747     089E  3400               	retlw	0
  1748     089F  3400               	retlw	0
  1749     08A0  3400               	retlw	0
  1750     08A1  3418               	retlw	24
  1751     08A2  3414               	retlw	20
  1752     08A3  3412               	retlw	18
  1753     08A4  347F               	retlw	127
  1754     08A5  3410               	retlw	16
  1755     08A6  3400               	retlw	0
  1756     08A7  3400               	retlw	0
  1757     08A8  3400               	retlw	0
  1758     08A9  3427               	retlw	39
  1759     08AA  3445               	retlw	69
  1760     08AB  3445               	retlw	69
  1761     08AC  3445               	retlw	69
  1762     08AD  3439               	retlw	57
  1763     08AE  3400               	retlw	0
  1764     08AF  3400               	retlw	0
  1765     08B0  3400               	retlw	0
  1766     08B1  343C               	retlw	60
  1767     08B2  344A               	retlw	74
  1768     08B3  3449               	retlw	73
  1769     08B4  3449               	retlw	73
  1770     08B5  3430               	retlw	48
  1771     08B6  3400               	retlw	0
  1772     08B7  3400               	retlw	0
  1773     08B8  3400               	retlw	0
  1774     08B9  3401               	retlw	1
  1775     08BA  3471               	retlw	113
  1776     08BB  3409               	retlw	9
  1777     08BC  3405               	retlw	5
  1778     08BD  3403               	retlw	3
  1779     08BE  3400               	retlw	0
  1780     08BF  3400               	retlw	0
  1781     08C0  3400               	retlw	0
  1782     08C1  3436               	retlw	54
  1783     08C2  3449               	retlw	73
  1784     08C3  3449               	retlw	73
  1785     08C4  3449               	retlw	73
  1786     08C5  3436               	retlw	54
  1787     08C6  3400               	retlw	0
  1788     08C7  3400               	retlw	0
  1789     08C8  3400               	retlw	0
  1790     08C9  3406               	retlw	6
  1791     08CA  3449               	retlw	73
  1792     08CB  3449               	retlw	73
  1793     08CC  3429               	retlw	41
  1794     08CD  341E               	retlw	30
  1795     08CE  3400               	retlw	0
  1796     08CF  3400               	retlw	0
  1797     08D0  3400               	retlw	0
  1798     08D1  3400               	retlw	0
  1799     08D2  3436               	retlw	54
  1800     08D3  3436               	retlw	54
  1801     08D4  3400               	retlw	0
  1802     08D5  3400               	retlw	0
  1803     08D6  3400               	retlw	0
  1804     08D7  3400               	retlw	0
  1805     08D8  3400               	retlw	0
  1806     08D9  3400               	retlw	0
  1807     08DA  34AC               	retlw	172
  1808     08DB  346C               	retlw	108
  1809     08DC  3400               	retlw	0
  1810     08DD  3400               	retlw	0
  1811     08DE  3400               	retlw	0
  1812     08DF  3400               	retlw	0
  1813     08E0  3400               	retlw	0
  1814     08E1  3408               	retlw	8
  1815     08E2  3414               	retlw	20
  1816     08E3  3422               	retlw	34
  1817     08E4  3441               	retlw	65
  1818     08E5  3400               	retlw	0
  1819     08E6  3400               	retlw	0
  1820     08E7  3400               	retlw	0
  1821     08E8  3400               	retlw	0
  1822     08E9  3414               	retlw	20
  1823     08EA  3414               	retlw	20
  1824     08EB  3414               	retlw	20
  1825     08EC  3414               	retlw	20
  1826     08ED  3414               	retlw	20
  1827     08EE  3400               	retlw	0
  1828     08EF  3400               	retlw	0
  1829     08F0  3400               	retlw	0
  1830     08F1  3441               	retlw	65
  1831     08F2  3422               	retlw	34
  1832     08F3  3414               	retlw	20
  1833     08F4  3408               	retlw	8
  1834     08F5  3400               	retlw	0
  1835     08F6  3400               	retlw	0
  1836     08F7  3400               	retlw	0
  1837     08F8  3400               	retlw	0
  1838     08F9  3402               	retlw	2
  1839     08FA  3401               	retlw	1
  1840     08FB  3451               	retlw	81
  1841     08FC  3409               	retlw	9
  1842     08FD  3406               	retlw	6
  1843     08FE  3400               	retlw	0
  1844     08FF  3400               	retlw	0
  1845     0900  3400               	retlw	0
  1846     0901  3432               	retlw	50
  1847     0902  3449               	retlw	73
  1848     0903  3479               	retlw	121
  1849     0904  3441               	retlw	65
  1850     0905  343E               	retlw	62
  1851     0906  3400               	retlw	0
  1852     0907  3400               	retlw	0
  1853     0908  3400               	retlw	0
  1854     0909  347E               	retlw	126
  1855     090A  3409               	retlw	9
  1856     090B  3409               	retlw	9
  1857     090C  3409               	retlw	9
  1858     090D  347E               	retlw	126
  1859     090E  3400               	retlw	0
  1860     090F  3400               	retlw	0
  1861     0910  3400               	retlw	0
  1862     0911  347F               	retlw	127
  1863     0912  3449               	retlw	73
  1864     0913  3449               	retlw	73
  1865     0914  3449               	retlw	73
  1866     0915  3436               	retlw	54
  1867     0916  3400               	retlw	0
  1868     0917  3400               	retlw	0
  1869     0918  3400               	retlw	0
  1870     0919  343E               	retlw	62
  1871     091A  3441               	retlw	65
  1872     091B  3441               	retlw	65
  1873     091C  3441               	retlw	65
  1874     091D  3422               	retlw	34
  1875     091E  3400               	retlw	0
  1876     091F  3400               	retlw	0
  1877     0920  3400               	retlw	0
  1878     0921  347F               	retlw	127
  1879     0922  3441               	retlw	65
  1880     0923  3441               	retlw	65
  1881     0924  3422               	retlw	34
  1882     0925  341C               	retlw	28
  1883     0926  3400               	retlw	0
  1884     0927  3400               	retlw	0
  1885     0928  3400               	retlw	0
  1886     0929  347F               	retlw	127
  1887     092A  3449               	retlw	73
  1888     092B  3449               	retlw	73
  1889     092C  3449               	retlw	73
  1890     092D  3441               	retlw	65
  1891     092E  3400               	retlw	0
  1892     092F  3400               	retlw	0
  1893     0930  3400               	retlw	0
  1894     0931  347F               	retlw	127
  1895     0932  3409               	retlw	9
  1896     0933  3409               	retlw	9
  1897     0934  3409               	retlw	9
  1898     0935  3401               	retlw	1
  1899     0936  3400               	retlw	0
  1900     0937  3400               	retlw	0
  1901     0938  3400               	retlw	0
  1902     0939  343E               	retlw	62
  1903     093A  3441               	retlw	65
  1904     093B  3441               	retlw	65
  1905     093C  3451               	retlw	81
  1906     093D  3472               	retlw	114
  1907     093E  3400               	retlw	0
  1908     093F  3400               	retlw	0
  1909     0940  3400               	retlw	0
  1910     0941  347F               	retlw	127
  1911     0942  3408               	retlw	8
  1912     0943  3408               	retlw	8
  1913     0944  3408               	retlw	8
  1914     0945  347F               	retlw	127
  1915     0946  3400               	retlw	0
  1916     0947  3400               	retlw	0
  1917     0948  3400               	retlw	0
  1918     0949  3441               	retlw	65
  1919     094A  347F               	retlw	127
  1920     094B  3441               	retlw	65
  1921     094C  3400               	retlw	0
  1922     094D  3400               	retlw	0
  1923     094E  3400               	retlw	0
  1924     094F  3400               	retlw	0
  1925     0950  3400               	retlw	0
  1926     0951  3420               	retlw	32
  1927     0952  3440               	retlw	64
  1928     0953  3441               	retlw	65
  1929     0954  343F               	retlw	63
  1930     0955  3401               	retlw	1
  1931     0956  3400               	retlw	0
  1932     0957  3400               	retlw	0
  1933     0958  3400               	retlw	0
  1934     0959  347F               	retlw	127
  1935     095A  3408               	retlw	8
  1936     095B  3414               	retlw	20
  1937     095C  3422               	retlw	34
  1938     095D  3441               	retlw	65
  1939     095E  3400               	retlw	0
  1940     095F  3400               	retlw	0
  1941     0960  3400               	retlw	0
  1942     0961  347F               	retlw	127
  1943     0962  3440               	retlw	64
  1944     0963  3440               	retlw	64
  1945     0964  3440               	retlw	64
  1946     0965  3440               	retlw	64
  1947     0966  3400               	retlw	0
  1948     0967  3400               	retlw	0
  1949     0968  3400               	retlw	0
  1950     0969  347F               	retlw	127
  1951     096A  3402               	retlw	2
  1952     096B  340C               	retlw	12
  1953     096C  3402               	retlw	2
  1954     096D  347F               	retlw	127
  1955     096E  3400               	retlw	0
  1956     096F  3400               	retlw	0
  1957     0970  3400               	retlw	0
  1958     0971  347F               	retlw	127
  1959     0972  3404               	retlw	4
  1960     0973  3408               	retlw	8
  1961     0974  3410               	retlw	16
  1962     0975  347F               	retlw	127
  1963     0976  3400               	retlw	0
  1964     0977  3400               	retlw	0
  1965     0978  3400               	retlw	0
  1966     0979  343E               	retlw	62
  1967     097A  3441               	retlw	65
  1968     097B  3441               	retlw	65
  1969     097C  3441               	retlw	65
  1970     097D  343E               	retlw	62
  1971     097E  3400               	retlw	0
  1972     097F  3400               	retlw	0
  1973     0980  3400               	retlw	0
  1974     0981  347F               	retlw	127
  1975     0982  3409               	retlw	9
  1976     0983  3409               	retlw	9
  1977     0984  3409               	retlw	9
  1978     0985  3406               	retlw	6
  1979     0986  3400               	retlw	0
  1980     0987  3400               	retlw	0
  1981     0988  3400               	retlw	0
  1982     0989  343E               	retlw	62
  1983     098A  3441               	retlw	65
  1984     098B  3451               	retlw	81
  1985     098C  3421               	retlw	33
  1986     098D  345E               	retlw	94
  1987     098E  3400               	retlw	0
  1988     098F  3400               	retlw	0
  1989     0990  3400               	retlw	0
  1990     0991  347F               	retlw	127
  1991     0992  3409               	retlw	9
  1992     0993  3419               	retlw	25
  1993     0994  3429               	retlw	41
  1994     0995  3446               	retlw	70
  1995     0996  3400               	retlw	0
  1996     0997  3400               	retlw	0
  1997     0998  3400               	retlw	0
  1998     0999  3426               	retlw	38
  1999     099A  3449               	retlw	73
  2000     099B  3449               	retlw	73
  2001     099C  3449               	retlw	73
  2002     099D  3432               	retlw	50
  2003     099E  3400               	retlw	0
  2004     099F  3400               	retlw	0
  2005     09A0  3400               	retlw	0
  2006     09A1  3401               	retlw	1
  2007     09A2  3401               	retlw	1
  2008     09A3  347F               	retlw	127
  2009     09A4  3401               	retlw	1
  2010     09A5  3401               	retlw	1
  2011     09A6  3400               	retlw	0
  2012     09A7  3400               	retlw	0
  2013     09A8  3400               	retlw	0
  2014     09A9  343F               	retlw	63
  2015     09AA  3440               	retlw	64
  2016     09AB  3440               	retlw	64
  2017     09AC  3440               	retlw	64
  2018     09AD  343F               	retlw	63
  2019     09AE  3400               	retlw	0
  2020     09AF  3400               	retlw	0
  2021     09B0  3400               	retlw	0
  2022     09B1  341F               	retlw	31
  2023     09B2  3420               	retlw	32
  2024     09B3  3440               	retlw	64
  2025     09B4  3420               	retlw	32
  2026     09B5  341F               	retlw	31
  2027     09B6  3400               	retlw	0
  2028     09B7  3400               	retlw	0
  2029     09B8  3400               	retlw	0
  2030     09B9  343F               	retlw	63
  2031     09BA  3440               	retlw	64
  2032     09BB  3438               	retlw	56
  2033     09BC  3440               	retlw	64
  2034     09BD  343F               	retlw	63
  2035     09BE  3400               	retlw	0
  2036     09BF  3400               	retlw	0
  2037     09C0  3400               	retlw	0
  2038     09C1  3463               	retlw	99
  2039     09C2  3414               	retlw	20
  2040     09C3  3408               	retlw	8
  2041     09C4  3414               	retlw	20
  2042     09C5  3463               	retlw	99
  2043     09C6  3400               	retlw	0
  2044     09C7  3400               	retlw	0
  2045     09C8  3400               	retlw	0
  2046     09C9  3403               	retlw	3
  2047     09CA  3404               	retlw	4
  2048     09CB  3478               	retlw	120
  2049     09CC  3404               	retlw	4
  2050     09CD  3403               	retlw	3
  2051     09CE  3400               	retlw	0
  2052     09CF  3400               	retlw	0
  2053     09D0  3400               	retlw	0
  2054     09D1  3461               	retlw	97
  2055     09D2  3451               	retlw	81
  2056     09D3  3449               	retlw	73
  2057     09D4  3445               	retlw	69
  2058     09D5  3443               	retlw	67
  2059     09D6  3400               	retlw	0
  2060     09D7  3400               	retlw	0
  2061     09D8  3400               	retlw	0
  2062     09D9  347F               	retlw	127
  2063     09DA  3441               	retlw	65
  2064     09DB  3441               	retlw	65
  2065     09DC  3400               	retlw	0
  2066     09DD  3400               	retlw	0
  2067     09DE  3400               	retlw	0
  2068     09DF  3400               	retlw	0
  2069     09E0  3400               	retlw	0
  2070     09E1  3402               	retlw	2
  2071     09E2  3404               	retlw	4
  2072     09E3  3408               	retlw	8
  2073     09E4  3410               	retlw	16
  2074     09E5  3420               	retlw	32
  2075     09E6  3400               	retlw	0
  2076     09E7  3400               	retlw	0
  2077     09E8  3400               	retlw	0
  2078     09E9  3441               	retlw	65
  2079     09EA  3441               	retlw	65
  2080     09EB  347F               	retlw	127
  2081     09EC  3400               	retlw	0
  2082     09ED  3400               	retlw	0
  2083     09EE  3400               	retlw	0
  2084     09EF  3400               	retlw	0
  2085     09F0  3400               	retlw	0
  2086     09F1  3404               	retlw	4
  2087     09F2  3402               	retlw	2
  2088     09F3  3401               	retlw	1
  2089     09F4  3402               	retlw	2
  2090     09F5  3404               	retlw	4
  2091     09F6  3400               	retlw	0
  2092     09F7  3400               	retlw	0
  2093     09F8  3400               	retlw	0
  2094     09F9  3480               	retlw	128
  2095     09FA  3480               	retlw	128
  2096     09FB  3480               	retlw	128
  2097     09FC  3480               	retlw	128
  2098     09FD  3480               	retlw	128
  2099     09FE  3400               	retlw	0
  2100     09FF  3400               	retlw	0
  2101     0A00  3400               	retlw	0
  2102     0A01  3401               	retlw	1
  2103     0A02  3402               	retlw	2
  2104     0A03  3404               	retlw	4
  2105     0A04  3400               	retlw	0
  2106     0A05  3400               	retlw	0
  2107     0A06  3400               	retlw	0
  2108     0A07  3400               	retlw	0
  2109     0A08  3400               	retlw	0
  2110     0A09  3420               	retlw	32
  2111     0A0A  3454               	retlw	84
  2112     0A0B  3454               	retlw	84
  2113     0A0C  3454               	retlw	84
  2114     0A0D  3478               	retlw	120
  2115     0A0E  3400               	retlw	0
  2116     0A0F  3400               	retlw	0
  2117     0A10  3400               	retlw	0
  2118     0A11  347F               	retlw	127
  2119     0A12  3448               	retlw	72
  2120     0A13  3444               	retlw	68
  2121     0A14  3444               	retlw	68
  2122     0A15  3438               	retlw	56
  2123     0A16  3400               	retlw	0
  2124     0A17  3400               	retlw	0
  2125     0A18  3400               	retlw	0
  2126     0A19  3438               	retlw	56
  2127     0A1A  3444               	retlw	68
  2128     0A1B  3444               	retlw	68
  2129     0A1C  3428               	retlw	40
  2130     0A1D  3400               	retlw	0
  2131     0A1E  3400               	retlw	0
  2132     0A1F  3400               	retlw	0
  2133     0A20  3400               	retlw	0
  2134     0A21  3438               	retlw	56
  2135     0A22  3444               	retlw	68
  2136     0A23  3444               	retlw	68
  2137     0A24  3448               	retlw	72
  2138     0A25  347F               	retlw	127
  2139     0A26  3400               	retlw	0
  2140     0A27  3400               	retlw	0
  2141     0A28  3400               	retlw	0
  2142     0A29  3438               	retlw	56
  2143     0A2A  3454               	retlw	84
  2144     0A2B  3454               	retlw	84
  2145     0A2C  3454               	retlw	84
  2146     0A2D  3418               	retlw	24
  2147     0A2E  3400               	retlw	0
  2148     0A2F  3400               	retlw	0
  2149     0A30  3400               	retlw	0
  2150     0A31  3408               	retlw	8
  2151     0A32  347E               	retlw	126
  2152     0A33  3409               	retlw	9
  2153     0A34  3402               	retlw	2
  2154     0A35  3400               	retlw	0
  2155     0A36  3400               	retlw	0
  2156     0A37  3400               	retlw	0
  2157     0A38  3400               	retlw	0
  2158     0A39  3418               	retlw	24
  2159     0A3A  34A4               	retlw	164
  2160     0A3B  34A4               	retlw	164
  2161     0A3C  34A4               	retlw	164
  2162     0A3D  347C               	retlw	124
  2163     0A3E  3400               	retlw	0
  2164     0A3F  3400               	retlw	0
  2165     0A40  3400               	retlw	0
  2166     0A41  347F               	retlw	127
  2167     0A42  3408               	retlw	8
  2168     0A43  3404               	retlw	4
  2169     0A44  3404               	retlw	4
  2170     0A45  3478               	retlw	120
  2171     0A46  3400               	retlw	0
  2172     0A47  3400               	retlw	0
  2173     0A48  3400               	retlw	0
  2174     0A49  3400               	retlw	0
  2175     0A4A  347D               	retlw	125
  2176     0A4B  3400               	retlw	0
  2177     0A4C  3400               	retlw	0
  2178     0A4D  3400               	retlw	0
  2179     0A4E  3400               	retlw	0
  2180     0A4F  3400               	retlw	0
  2181     0A50  3400               	retlw	0
  2182     0A51  3480               	retlw	128
  2183     0A52  3484               	retlw	132
  2184     0A53  347D               	retlw	125
  2185     0A54  3400               	retlw	0
  2186     0A55  3400               	retlw	0
  2187     0A56  3400               	retlw	0
  2188     0A57  3400               	retlw	0
  2189     0A58  3400               	retlw	0
  2190     0A59  347F               	retlw	127
  2191     0A5A  3410               	retlw	16
  2192     0A5B  3428               	retlw	40
  2193     0A5C  3444               	retlw	68
  2194     0A5D  3400               	retlw	0
  2195     0A5E  3400               	retlw	0
  2196     0A5F  3400               	retlw	0
  2197     0A60  3400               	retlw	0
  2198     0A61  3441               	retlw	65
  2199     0A62  347F               	retlw	127
  2200     0A63  3440               	retlw	64
  2201     0A64  3400               	retlw	0
  2202     0A65  3400               	retlw	0
  2203     0A66  3400               	retlw	0
  2204     0A67  3400               	retlw	0
  2205     0A68  3400               	retlw	0
  2206     0A69  347C               	retlw	124
  2207     0A6A  3404               	retlw	4
  2208     0A6B  3418               	retlw	24
  2209     0A6C  3404               	retlw	4
  2210     0A6D  3478               	retlw	120
  2211     0A6E  3400               	retlw	0
  2212     0A6F  3400               	retlw	0
  2213     0A70  3400               	retlw	0
  2214     0A71  347C               	retlw	124
  2215     0A72  3408               	retlw	8
  2216     0A73  3404               	retlw	4
  2217     0A74  347C               	retlw	124
  2218     0A75  3400               	retlw	0
  2219     0A76  3400               	retlw	0
  2220     0A77  3400               	retlw	0
  2221     0A78  3400               	retlw	0
  2222     0A79  3438               	retlw	56
  2223     0A7A  3444               	retlw	68
  2224     0A7B  3444               	retlw	68
  2225     0A7C  3438               	retlw	56
  2226     0A7D  3400               	retlw	0
  2227     0A7E  3400               	retlw	0
  2228     0A7F  3400               	retlw	0
  2229     0A80  3400               	retlw	0
  2230     0A81  34FC               	retlw	252
  2231     0A82  3424               	retlw	36
  2232     0A83  3424               	retlw	36
  2233     0A84  3418               	retlw	24
  2234     0A85  3400               	retlw	0
  2235     0A86  3400               	retlw	0
  2236     0A87  3400               	retlw	0
  2237     0A88  3400               	retlw	0
  2238     0A89  3418               	retlw	24
  2239     0A8A  3424               	retlw	36
  2240     0A8B  3424               	retlw	36
  2241     0A8C  34FC               	retlw	252
  2242     0A8D  3400               	retlw	0
  2243     0A8E  3400               	retlw	0
  2244     0A8F  3400               	retlw	0
  2245     0A90  3400               	retlw	0
  2246     0A91  3400               	retlw	0
  2247     0A92  347C               	retlw	124
  2248     0A93  3408               	retlw	8
  2249     0A94  3404               	retlw	4
  2250     0A95  3400               	retlw	0
  2251     0A96  3400               	retlw	0
  2252     0A97  3400               	retlw	0
  2253     0A98  3400               	retlw	0
  2254     0A99  3448               	retlw	72
  2255     0A9A  3454               	retlw	84
  2256     0A9B  3454               	retlw	84
  2257     0A9C  3424               	retlw	36
  2258     0A9D  3400               	retlw	0
  2259     0A9E  3400               	retlw	0
  2260     0A9F  3400               	retlw	0
  2261     0AA0  3400               	retlw	0
  2262     0AA1  3404               	retlw	4
  2263     0AA2  347F               	retlw	127
  2264     0AA3  3444               	retlw	68
  2265     0AA4  3400               	retlw	0
  2266     0AA5  3400               	retlw	0
  2267     0AA6  3400               	retlw	0
  2268     0AA7  3400               	retlw	0
  2269     0AA8  3400               	retlw	0
  2270     0AA9  343C               	retlw	60
  2271     0AAA  3440               	retlw	64
  2272     0AAB  3440               	retlw	64
  2273     0AAC  347C               	retlw	124
  2274     0AAD  3400               	retlw	0
  2275     0AAE  3400               	retlw	0
  2276     0AAF  3400               	retlw	0
  2277     0AB0  3400               	retlw	0
  2278     0AB1  341C               	retlw	28
  2279     0AB2  3420               	retlw	32
  2280     0AB3  3440               	retlw	64
  2281     0AB4  3420               	retlw	32
  2282     0AB5  341C               	retlw	28
  2283     0AB6  3400               	retlw	0
  2284     0AB7  3400               	retlw	0
  2285     0AB8  3400               	retlw	0
  2286     0AB9  343C               	retlw	60
  2287     0ABA  3440               	retlw	64
  2288     0ABB  3430               	retlw	48
  2289     0ABC  3440               	retlw	64
  2290     0ABD  343C               	retlw	60
  2291     0ABE  3400               	retlw	0
  2292     0ABF  3400               	retlw	0
  2293     0AC0  3400               	retlw	0
  2294     0AC1  3444               	retlw	68
  2295     0AC2  3428               	retlw	40
  2296     0AC3  3410               	retlw	16
  2297     0AC4  3428               	retlw	40
  2298     0AC5  3444               	retlw	68
  2299     0AC6  3400               	retlw	0
  2300     0AC7  3400               	retlw	0
  2301     0AC8  3400               	retlw	0
  2302     0AC9  341C               	retlw	28
  2303     0ACA  34A0               	retlw	160
  2304     0ACB  34A0               	retlw	160
  2305     0ACC  347C               	retlw	124
  2306     0ACD  3400               	retlw	0
  2307     0ACE  3400               	retlw	0
  2308     0ACF  3400               	retlw	0
  2309     0AD0  3400               	retlw	0
  2310     0AD1  3444               	retlw	68
  2311     0AD2  3464               	retlw	100
  2312     0AD3  3454               	retlw	84
  2313     0AD4  344C               	retlw	76
  2314     0AD5  3444               	retlw	68
  2315     0AD6  3400               	retlw	0
  2316     0AD7  3400               	retlw	0
  2317     0AD8  3400               	retlw	0
  2318     0AD9  3408               	retlw	8
  2319     0ADA  3436               	retlw	54
  2320     0ADB  3441               	retlw	65
  2321     0ADC  3400               	retlw	0
  2322     0ADD  3400               	retlw	0
  2323     0ADE  3400               	retlw	0
  2324     0ADF  3400               	retlw	0
  2325     0AE0  3400               	retlw	0
  2326     0AE1  3400               	retlw	0
  2327     0AE2  347F               	retlw	127
  2328     0AE3  3400               	retlw	0
  2329     0AE4  3400               	retlw	0
  2330     0AE5  3400               	retlw	0
  2331     0AE6  3400               	retlw	0
  2332     0AE7  3400               	retlw	0
  2333     0AE8  3400               	retlw	0
  2334     0AE9  3441               	retlw	65
  2335     0AEA  3436               	retlw	54
  2336     0AEB  3408               	retlw	8
  2337     0AEC  3400               	retlw	0
  2338     0AED  3400               	retlw	0
  2339     0AEE  3400               	retlw	0
  2340     0AEF  3400               	retlw	0
  2341     0AF0  3400               	retlw	0
  2342     0AF1  3402               	retlw	2
  2343     0AF2  3401               	retlw	1
  2344     0AF3  3401               	retlw	1
  2345     0AF4  3402               	retlw	2
  2346     0AF5  3401               	retlw	1
  2347     0AF6  3400               	retlw	0
  2348     0AF7  3400               	retlw	0
  2349     0AF8  3400               	retlw	0
  2350     0AF9  3402               	retlw	2
  2351     0AFA  3405               	retlw	5
  2352     0AFB  3405               	retlw	5
  2353     0AFC  3402               	retlw	2
  2354     0AFD  3400               	retlw	0
  2355     0AFE  3400               	retlw	0
  2356     0AFF  3400               	retlw	0
  2357     0B00                     __end_of_OledFont:
  2358                           
  2359                           	psect	stringtext24
  2360     0B94                     __pstringtext24:
  2361     0B94                     _ivln2_h:
  2362     0B94  3400               	retlw	0
  2363     0B95  34AA               	retlw	170
  2364     0B96  34B8               	retlw	184
  2365     0B97  343F               	retlw	63
  2366     0B98                     __end_of_ivln2_h:
  2367                           
  2368                           	psect	stringtext25
  2369     0B98                     __pstringtext25:
  2370     0B98                     _cp_l:
  2371     0B98  34C6               	retlw	198
  2372     0B99  3423               	retlw	35
  2373     0B9A  34F6               	retlw	246
  2374     0B9B  34B8               	retlw	184
  2375     0B9C                     __end_of_cp_l:
  2376                           
  2377                           	psect	stringtext26
  2378     0B00                     __pstringtext26:
  2379     0B00                     _cp_h:
  2380     0B00  3400               	retlw	0
  2381     0B01  3440               	retlw	64
  2382     0B02  3476               	retlw	118
  2383     0B03  343F               	retlw	63
  2384     0B04                     __end_of_cp_h:
  2385     0011                     _PIR1bits	set	17
  2386     008E                     _TRISCbits	set	142
  2387     04CF                     _SPLLEN	set	1231
  2388     04CE                     _IRCF3	set	1230
  2389     04CD                     _IRCF2	set	1229
  2390     04CC                     _IRCF1	set	1228
  2391     04CB                     _IRCF0	set	1227
  2392     04C9                     _SCS1	set	1225
  2393     04C8                     _SCS0	set	1224
  2394     018E                     _ANSELCbits	set	398
  2395     0216                     _SSPCON2bits	set	534
  2396     0211                     _SSPBUF	set	529
  2397     0212                     _SSPADD	set	530
  2398     0215                     _SSPCONbits	set	533
  2399     0E20                     _SSPCLKPPSbits	set	3616
  2400     0E21                     _SSPDATPPSbits	set	3617
  2401     0E0F                     _PPSLOCKbits	set	3599
  2402     0E0F                     _PPSLOCK	set	3599
  2403     0EA5                     _RC5PPSbits	set	3749
  2404     0EA4                     _RC4PPSbits	set	3748
  2405     0B04                     STR_1:
  2406     0B04  344F               	retlw	79	;'O'
  2407     0B05  344C               	retlw	76	;'L'
  2408     0B06  3445               	retlw	69	;'E'
  2409     0B07  3444               	retlw	68	;'D'
  2410     0B08  3420               	retlw	32	;' '
  2411     0B09  3453               	retlw	83	;'S'
  2412     0B0A  3453               	retlw	83	;'S'
  2413     0B0B  3444               	retlw	68	;'D'
  2414     0B0C  3431               	retlw	49	;'1'
  2415     0B0D  3433               	retlw	51	;'3'
  2416     0B0E  3430               	retlw	48	;'0'
  2417     0B0F  3436               	retlw	54	;'6'
  2418     0B10  3400               	retlw	0
  2419                           
  2420                           	psect	stringtext27
  2421     0B11                     __pstringtext27:
  2422     0B11                     STR_4:
  2423     0B11  3462               	retlw	98	;'b'
  2424     0B12  3479               	retlw	121	;'y'
  2425     0B13  3420               	retlw	32	;' '
  2426     0B14  3441               	retlw	65	;'A'
  2427     0B15  3472               	retlw	114	;'r'
  2428     0B16  346D               	retlw	109	;'m'
  2429     0B17  3473               	retlw	115	;'s'
  2430     0B18  3474               	retlw	116	;'t'
  2431     0B19  3472               	retlw	114	;'r'
  2432     0B1A  346F               	retlw	111	;'o'
  2433     0B1B  346E               	retlw	110	;'n'
  2434     0B1C  3467               	retlw	103	;'g'
  2435     0B1D  3400               	retlw	0
  2436                           
  2437                           	psect	stringtext28
  2438     0B1E                     __pstringtext28:
  2439     0B1E                     STR_2:
  2440     0B1E  344E               	retlw	78	;'N'
  2441     0B1F  346F               	retlw	111	;'o'
  2442     0B20  3420               	retlw	32	;' '
  2443     0B21  3442               	retlw	66	;'B'
  2444     0B22  3475               	retlw	117	;'u'
  2445     0B23  3466               	retlw	102	;'f'
  2446     0B24  3466               	retlw	102	;'f'
  2447     0B25  3465               	retlw	101	;'e'
  2448     0B26  3472               	retlw	114	;'r'
  2449     0B27  3400               	retlw	0
  2450                           
  2451                           	psect	stringtext29
  2452     0B40                     __pstringtext29:
  2453     0B40                     STR_3:
  2454     0B40  3446               	retlw	70	;'F'
  2455     0B41  346F               	retlw	111	;'o'
  2456     0B42  3472               	retlw	114	;'r'
  2457     0B43  3420               	retlw	32	;' '
  2458     0B44  3458               	retlw	88	;'X'
  2459     0B45  3443               	retlw	67	;'C'
  2460     0B46  3438               	retlw	56	;'8'
  2461     0B47  3400               	retlw	0
  2462                           
  2463                           	psect	stringtext30
  2464     0000                     __pstringtext30:
  2465                           
  2466                           	psect	cinit
  2467     07E9                     start_initialization:	
  2468                           ; #config settings
  2469                           
  2470     07E9                     __initialization:
  2471                           
  2472                           ; Initialize objects allocated to BANK1
  2473     07E9  3095               	movlw	low __pidataBANK1
  2474     07EA  0084               	movwf	4
  2475     07EB  3085               	movlw	(high __pidataBANK1)| (0+128)
  2476     07EC  0085               	movwf	5
  2477     07ED  30A0               	movlw	low __pdataBANK1
  2478     07EE  0086               	movwf	6
  2479     07EF  3000               	movlw	high __pdataBANK1
  2480     07F0  0087               	movwf	7
  2481     07F1  3025               	movlw	37
  2482     07F2  3185  2521  3187   	fcall	init_ram
  2483                           
  2484                           ; Clear objects allocated to BANK0
  2485     07F5  3038               	movlw	low __pbssBANK0
  2486     07F6  0084               	movwf	4
  2487     07F7  3000               	movlw	high __pbssBANK0
  2488     07F8  0085               	movwf	5
  2489     07F9  3016               	movlw	22
  2490     07FA  3185  251B  3187   	fcall	clear_ram0
  2491     07FD                     end_of_initialization:	
  2492                           ;End of C runtime variable initialization code
  2493                           
  2494     07FD                     __end_of__initialization:
  2495     07FD  0020               	movlb	0
  2496     07FE  3187  2F73         	ljmp	_main	;jump to C main() function
  2497                           
  2498                           	psect	bssBANK0
  2499     0038                     __pbssBANK0:
  2500     0038                     _errno:
  2501     0038                     	ds	2
  2502     003A                     ftoa@buf:
  2503     003A                     	ds	20
  2504                           
  2505                           	psect	dataBANK1
  2506     00A0                     __pdataBANK1:
  2507     00A0                     itoa@num:
  2508     00A0                     	ds	37
  2509                           
  2510                           	psect	inittext
  2511     0521                     init_ram:
  2512     0521  00FE               	movwf	btemp
  2513     0522                     initloop:
  2514     0522  0012               	moviw fsr0++
  2515     0523  001E               	movwi fsr1++
  2516     0524  0BFE               	decfsz	btemp,f
  2517     0525  2D22               	goto	initloop
  2518     0526  3400               	retlw	0
  2519                           
  2520                           	psect	clrtext
  2521     051B                     clear_ram0:	
  2522                           ;	Called with FSR0 containing the base address, and
  2523                           ;	WREG with the size to clear
  2524                           
  2525     051B  0064               	clrwdt	;clear the watchdog before getting into this loop
  2526     051C                     clrloop0:
  2527     051C  0180               	clrf	0	;clear RAM location pointed to by FSR
  2528     051D  3101               	addfsr 0,1
  2529     051E  0B89               	decfsz	9,f	;Have we reached the end of clearing yet?
  2530     051F  2D1C               	goto	clrloop0	;have we reached the end yet?
  2531     0520  3400               	retlw	0	;all done for this memory range, return
  2532                           
  2533                           	psect	cstackCOMMON
  2534     0070                     __pcstackCOMMON:
  2535     0070                     ?_OLED_Init:
  2536     0070                     ?_OLED_Clear:	
  2537                           ; 1 bytes @ 0x0
  2538                           
  2539     0070                     ?_memmove:	
  2540                           ; 1 bytes @ 0x0
  2541                           
  2542     0070                     ?_I2C_Init:	
  2543                           ; 1 bytes @ 0x0
  2544                           
  2545     0070                     ??_I2C_Init:	
  2546                           ; 1 bytes @ 0x0
  2547                           
  2548     0070                     ?_Send_I2C_Data:	
  2549                           ; 1 bytes @ 0x0
  2550                           
  2551     0070                     ?_Send_I2C_StartBit:	
  2552                           ; 1 bytes @ 0x0
  2553                           
  2554     0070                     ??_Send_I2C_StartBit:	
  2555                           ; 1 bytes @ 0x0
  2556                           
  2557     0070                     ?_Send_I2C_StopBit:	
  2558                           ; 1 bytes @ 0x0
  2559                           
  2560     0070                     ??_Send_I2C_StopBit:	
  2561                           ; 1 bytes @ 0x0
  2562                           
  2563     0070                     ?_internal_16:	
  2564                           ; 1 bytes @ 0x0
  2565                           
  2566     0070                     ??_internal_16:	
  2567                           ; 1 bytes @ 0x0
  2568                           
  2569     0070                     ?_initMain:	
  2570                           ; 1 bytes @ 0x0
  2571                           
  2572     0070                     ??_initMain:	
  2573                           ; 1 bytes @ 0x0
  2574                           
  2575     0070                     ?_main:	
  2576                           ; 1 bytes @ 0x0
  2577                           
  2578     0070                     ?_OLED_Command:	
  2579                           ; 1 bytes @ 0x0
  2580                           
  2581     0070                     ?_OLED_PutChar:	
  2582                           ; 1 bytes @ 0x0
  2583                           
  2584     0070                     Send_I2C_Data@databyte:	
  2585                           ; 1 bytes @ 0x0
  2586                           
  2587     0070                     memmove@s1:	
  2588                           ; 2 bytes @ 0x0
  2589                           
  2590                           
  2591                           ; 2 bytes @ 0x0
  2592     0070                     	ds	2
  2593     0072                     ??_Send_I2C_Data:
  2594     0072                     ??_OLED_Command:	
  2595                           ; 1 bytes @ 0x2
  2596                           
  2597     0072                     memmove@n:	
  2598                           ; 1 bytes @ 0x2
  2599                           
  2600                           
  2601                           ; 2 bytes @ 0x2
  2602     0072                     	ds	2
  2603     0074                     ??_memmove:
  2604     0074                     OLED_Command@temp:	
  2605                           ; 1 bytes @ 0x4
  2606                           
  2607                           
  2608                           ; 1 bytes @ 0x4
  2609     0074                     	ds	1
  2610     0075                     ??_OLED_Init:
  2611     0075                     ?_OLED_YX:	
  2612                           ; 1 bytes @ 0x5
  2613                           
  2614     0075                     OLED_YX@Column:	
  2615                           ; 1 bytes @ 0x5
  2616                           
  2617                           
  2618                           ; 1 bytes @ 0x5
  2619     0075                     	ds	1
  2620     0076                     ??_OLED_YX:
  2621     0076                     memmove@d1:	
  2622                           ; 1 bytes @ 0x6
  2623                           
  2624                           
  2625                           ; 1 bytes @ 0x6
  2626     0076                     	ds	1
  2627     0077                     memmove@c:
  2628                           
  2629                           ; 1 bytes @ 0x7
  2630     0077                     	ds	1
  2631     0078                     memmove@s:
  2632                           
  2633                           ; 2 bytes @ 0x8
  2634     0078                     	ds	1
  2635     0079                     OLED_YX@Row:
  2636                           
  2637                           ; 1 bytes @ 0x9
  2638     0079                     	ds	1
  2639     007A                     memmove@d:
  2640                           
  2641                           ; 2 bytes @ 0xA
  2642     007A                     	ds	2
  2643     007C                     ??_OLED_Clear:
  2644     007C                     ?_OLED_Write_String:	
  2645                           ; 1 bytes @ 0xC
  2646                           
  2647     007C                     OLED_Write_String@s:	
  2648                           ; 1 bytes @ 0xC
  2649                           
  2650                           
  2651                           ; 2 bytes @ 0xC
  2652     007C                     	ds	2
  2653                           
  2654                           	psect	cstackBANK0
  2655     0020                     __pcstackBANK0:
  2656     0020                     ??_OLED_PutChar:
  2657                           
  2658                           ; 1 bytes @ 0x0
  2659     0020                     	ds	4
  2660     0024                     OLED_PutChar@bytes:
  2661                           
  2662                           ; 9 bytes @ 0x4
  2663     0024                     	ds	9
  2664     002D                     OLED_PutChar@base:
  2665                           
  2666                           ; 2 bytes @ 0xD
  2667     002D                     	ds	2
  2668     002F                     OLED_PutChar@i:
  2669                           
  2670                           ; 2 bytes @ 0xF
  2671     002F                     	ds	2
  2672     0031                     OLED_PutChar@ch:
  2673                           
  2674                           ; 1 bytes @ 0x11
  2675     0031                     	ds	1
  2676     0032                     ??_OLED_Write_String:
  2677     0032                     OLED_Clear@row:	
  2678                           ; 1 bytes @ 0x12
  2679                           
  2680                           
  2681                           ; 2 bytes @ 0x12
  2682     0032                     	ds	2
  2683     0034                     OLED_Clear@col:
  2684                           
  2685                           ; 2 bytes @ 0x14
  2686     0034                     	ds	2
  2687     0036                     ??_main:
  2688                           
  2689                           ; 1 bytes @ 0x16
  2690     0036                     	ds	2
  2691                           
  2692                           	psect	maintext
  2693     0773                     __pmaintext:	
  2694 ;;
  2695 ;;Main: autosize = 0, tempsize = 2, incstack = 0, save=0
  2696 ;;
  2697 ;; *************** function _main *****************
  2698 ;; Defined at:
  2699 ;;		line 88 in file "main.c"
  2700 ;; Parameters:    Size  Location     Type
  2701 ;;		None
  2702 ;; Auto vars:     Size  Location     Type
  2703 ;;  dec             4    0        float 
  2704 ;;  count           2    0        int 
  2705 ;; Return value:  Size  Location     Type
  2706 ;;                  1    wreg      void 
  2707 ;; Registers used:
  2708 ;;		wreg, fsr0l, fsr0h, fsr1l, fsr1h, status,2, status,0, pclath, cstack
  2709 ;; Tracked objects:
  2710 ;;		On entry : B1F/0
  2711 ;;		On exit  : 0/0
  2712 ;;		Unchanged: 0/0
  2713 ;; Data sizes:     COMMON   BANK0   BANK1   BANK2   BANK3   BANK4   BANK5   BANK6   BANK7   BANK8   BANK9  BANK10  BANK1
      +1  BANK12  BANK13  BANK14  BANK15  BANK16  BANK17  BANK18  BANK19  BANK20  BANK21  BANK22  BANK23  BANK24  BANK25
  2714 ;;      Params:         0       0       0       0       0       0       0       0       0       0       0       0       
      +0       0       0       0       0       0       0       0       0       0       0       0       0       0       0
  2715 ;;      Locals:         0       0       0       0       0       0       0       0       0       0       0       0       
      +0       0       0       0       0       0       0       0       0       0       0       0       0       0       0
  2716 ;;      Temps:          0       2       0       0       0       0       0       0       0       0       0       0       
      +0       0       0       0       0       0       0       0       0       0       0       0       0       0       0
  2717 ;;      Totals:         0       2       0       0       0       0       0       0       0       0       0       0       
      +0       0       0       0       0       0       0       0       0       0       0       0       0       0       0
  2718 ;;Total ram usage:        2 bytes
  2719 ;; Hardware stack levels required when called: 4
  2720 ;; This function calls:
  2721 ;;		_I2C_Init
  2722 ;;		_OLED_Clear
  2723 ;;		_OLED_Init
  2724 ;;		_OLED_Write_String
  2725 ;;		_OLED_YX
  2726 ;;		_initMain
  2727 ;; This function is called by:
  2728 ;;		Startup code after reset
  2729 ;; This function uses a non-reentrant model
  2730 ;;
  2731                           
  2732     0773                     _main:	
  2733                           ;psect for function _main
  2734                           
  2735     0773                     l1395:	
  2736                           ;incstack = 0
  2737                           ; Regs used in _main: [wreg-fsr1h+status,2+status,0+pclath+cstack]
  2738                           
  2739                           
  2740                           ;main.c: 89:     initMain();
  2741     0773  3185  25E3  3187   	fcall	_initMain
  2742                           
  2743                           ;main.c: 92:     I2C_Init();
  2744     0776  3185  254F  3187   	fcall	_I2C_Init
  2745     0779                     l1397:
  2746                           
  2747                           ;main.c: 94:     _delay((unsigned long)((100)*(16000000/4000.0)));
  2748     0779  3003               	movlw	3
  2749     077A  0020               	movlb	0	; select bank0
  2750     077B  00B7               	movwf	??_main+1
  2751     077C  3008               	movlw	8
  2752     077D  00B6               	movwf	??_main
  2753     077E  3077               	movlw	119
  2754     077F                     u727:
  2755     077F  0B89               	decfsz	9,f
  2756     0780  2F7F               	goto	u727
  2757     0781  0BB6               	decfsz	??_main,f
  2758     0782  2F7F               	goto	u727
  2759     0783  0BB7               	decfsz	??_main+1,f
  2760     0784  2F7F               	goto	u727
  2761     0785                     l1399:
  2762                           
  2763                           ;main.c: 97:     OLED_Init();
  2764     0785  3186  2637  3187   	fcall	_OLED_Init
  2765     0788                     l1401:
  2766                           
  2767                           ;main.c: 100:     OLED_Clear();
  2768     0788  3186  260C  3187   	fcall	_OLED_Clear
  2769     078B                     l1403:
  2770     078B                     l1405:
  2771     078B                     l1407:
  2772                           
  2773                           ;main.c: 112:              OLED_YX( 0, 0 );
  2774     078B  01F5               	clrf	OLED_YX@Column
  2775     078C  3000               	movlw	0
  2776     078D  3185  25BA  3187   	fcall	_OLED_YX
  2777     0790                     l1409:
  2778                           
  2779                           ;main.c: 113:              OLED_Write_String( "OLED SSD1306" );
  2780     0790  3004               	movlw	low (STR_1| (0+32768))
  2781     0791  00FC               	movwf	OLED_Write_String@s
  2782     0792  308B               	movlw	high (STR_1| (0+32768))
  2783     0793  00FD               	movwf	OLED_Write_String@s+1
  2784     0794  3185  255F  3187   	fcall	_OLED_Write_String
  2785     0797                     l1411:
  2786                           
  2787                           ;main.c: 115:              OLED_YX(1, 0);
  2788     0797  01F5               	clrf	OLED_YX@Column
  2789     0798  3001               	movlw	1
  2790     0799  3185  25BA  3187   	fcall	_OLED_YX
  2791     079C                     l1413:
  2792                           
  2793                           ;main.c: 116:              OLED_Write_String ("No Buffer");
  2794     079C  301E               	movlw	low (STR_2| (0+32768))
  2795     079D  00FC               	movwf	OLED_Write_String@s
  2796     079E  308B               	movlw	high (STR_2| (0+32768))
  2797     079F  00FD               	movwf	OLED_Write_String@s+1
  2798     07A0  3185  255F  3187   	fcall	_OLED_Write_String
  2799     07A3                     l1415:
  2800                           
  2801                           ;main.c: 118:              OLED_YX(2, 0);
  2802     07A3  01F5               	clrf	OLED_YX@Column
  2803     07A4  3002               	movlw	2
  2804     07A5  3185  25BA  3187   	fcall	_OLED_YX
  2805     07A8                     l1417:
  2806                           
  2807                           ;main.c: 119:              OLED_Write_String("For XC8");
  2808     07A8  3040               	movlw	low (STR_3| (0+32768))
  2809     07A9  00FC               	movwf	OLED_Write_String@s
  2810     07AA  308B               	movlw	high (STR_3| (0+32768))
  2811     07AB  00FD               	movwf	OLED_Write_String@s+1
  2812     07AC  3185  255F  3187   	fcall	_OLED_Write_String
  2813     07AF                     l1419:
  2814                           
  2815                           ;main.c: 121:              OLED_YX(3,0);
  2816     07AF  01F5               	clrf	OLED_YX@Column
  2817     07B0  3003               	movlw	3
  2818     07B1  3185  25BA  3187   	fcall	_OLED_YX
  2819     07B4                     l1421:
  2820                           
  2821                           ;main.c: 122:              OLED_Write_String("by Armstrong");
  2822     07B4  3011               	movlw	low (STR_4| (0+32768))
  2823     07B5  00FC               	movwf	OLED_Write_String@s
  2824     07B6  308B               	movlw	high (STR_4| (0+32768))
  2825     07B7  00FD               	movwf	OLED_Write_String@s+1
  2826     07B8  3185  255F  3187   	fcall	_OLED_Write_String
  2827     07BB                     l1423:
  2828                           
  2829                           ;main.c: 124:              _delay((unsigned long)((1000)*(16000000/4000.0)));
  2830     07BB  3015               	movlw	21
  2831     07BC  0020               	movlb	0	; select bank0
  2832     07BD  00B7               	movwf	??_main+1
  2833     07BE  304B               	movlw	75
  2834     07BF  00B6               	movwf	??_main
  2835     07C0  30BE               	movlw	190
  2836     07C1                     u737:
  2837     07C1  0B89               	decfsz	9,f
  2838     07C2  2FC1               	goto	u737
  2839     07C3  0BB6               	decfsz	??_main,f
  2840     07C4  2FC1               	goto	u737
  2841     07C5  0BB7               	decfsz	??_main+1,f
  2842     07C6  2FC1               	goto	u737
  2843     07C7  0000               	nop
  2844     07C8                     l1425:
  2845                           
  2846                           ;main.c: 125:              OLED_Clear();
  2847     07C8  3186  260C  3187   	fcall	_OLED_Clear
  2848     07CB                     l1427:
  2849                           
  2850                           ;main.c: 126:             _delay((unsigned long)((100)*(16000000/4000.0)));
  2851     07CB  3003               	movlw	3
  2852     07CC  0020               	movlb	0	; select bank0
  2853     07CD  00B7               	movwf	??_main+1
  2854     07CE  3008               	movlw	8
  2855     07CF  00B6               	movwf	??_main
  2856     07D0  3077               	movlw	119
  2857     07D1                     u747:
  2858     07D1  0B89               	decfsz	9,f
  2859     07D2  2FD1               	goto	u747
  2860     07D3  0BB6               	decfsz	??_main,f
  2861     07D4  2FD1               	goto	u747
  2862     07D5  0BB7               	decfsz	??_main+1,f
  2863     07D6  2FD1               	goto	u747
  2864     07D7                     l1429:
  2865                           
  2866                           ;main.c: 159:             _delay((unsigned long)((100)*(16000000/4000.0)));
  2867     07D7  3003               	movlw	3
  2868     07D8  0020               	movlb	0	; select bank0
  2869     07D9  00B7               	movwf	??_main+1
  2870     07DA  3008               	movlw	8
  2871     07DB  00B6               	movwf	??_main
  2872     07DC  3077               	movlw	119
  2873     07DD                     u757:
  2874     07DD  0B89               	decfsz	9,f
  2875     07DE  2FDD               	goto	u757
  2876     07DF  0BB6               	decfsz	??_main,f
  2877     07E0  2FDD               	goto	u757
  2878     07E1  0BB7               	decfsz	??_main+1,f
  2879     07E2  2FDD               	goto	u757
  2880     07E3                     l1431:
  2881                           
  2882                           ;main.c: 160:             OLED_Clear();
  2883     07E3  3186  260C  3187   	fcall	_OLED_Clear
  2884     07E6  2F8B               	goto	l1407
  2885     07E7  3180  2802         	ljmp	start
  2886     07E9                     __end_of_main:
  2887                           
  2888                           	psect	text1
  2889     05E3                     __ptext1:	
  2890 ;; *************** function _initMain *****************
  2891 ;; Defined at:
  2892 ;;		line 47 in file "main.c"
  2893 ;; Parameters:    Size  Location     Type
  2894 ;;		None
  2895 ;; Auto vars:     Size  Location     Type
  2896 ;;		None
  2897 ;; Return value:  Size  Location     Type
  2898 ;;                  1    wreg      void 
  2899 ;; Registers used:
  2900 ;;		wreg, status,2, status,0, pclath, cstack
  2901 ;; Tracked objects:
  2902 ;;		On entry : 0/0
  2903 ;;		On exit  : 0/0
  2904 ;;		Unchanged: 0/0
  2905 ;; Data sizes:     COMMON   BANK0   BANK1   BANK2   BANK3   BANK4   BANK5   BANK6   BANK7   BANK8   BANK9  BANK10  BANK1
      +1  BANK12  BANK13  BANK14  BANK15  BANK16  BANK17  BANK18  BANK19  BANK20  BANK21  BANK22  BANK23  BANK24  BANK25
  2906 ;;      Params:         0       0       0       0       0       0       0       0       0       0       0       0       
      +0       0       0       0       0       0       0       0       0       0       0       0       0       0       0
  2907 ;;      Locals:         0       0       0       0       0       0       0       0       0       0       0       0       
      +0       0       0       0       0       0       0       0       0       0       0       0       0       0       0
  2908 ;;      Temps:          0       0       0       0       0       0       0       0       0       0       0       0       
      +0       0       0       0       0       0       0       0       0       0       0       0       0       0       0
  2909 ;;      Totals:         0       0       0       0       0       0       0       0       0       0       0       0       
      +0       0       0       0       0       0       0       0       0       0       0       0       0       0       0
  2910 ;;Total ram usage:        0 bytes
  2911 ;; Hardware stack levels used: 1
  2912 ;; Hardware stack levels required when called: 1
  2913 ;; This function calls:
  2914 ;;		_internal_16
  2915 ;; This function is called by:
  2916 ;;		_main
  2917 ;; This function uses a non-reentrant model
  2918 ;;
  2919                           
  2920     05E3                     _initMain:	
  2921                           ;psect for function _initMain
  2922                           
  2923     05E3                     l995:	
  2924                           ;incstack = 0
  2925                           ; Regs used in _initMain: [wreg+status,2+status,0+pclath+cstack]
  2926                           
  2927                           
  2928                           ;main.c: 50:     internal_16();
  2929     05E3  3185  2527  3185   	fcall	_internal_16
  2930     05E6                     l997:
  2931                           
  2932                           ;main.c: 58:      ANSELCbits.ANSC4 = 0;
  2933     05E6  0023               	movlb	3	; select bank3
  2934     05E7  120E               	bcf	14,4	;volatile
  2935     05E8                     l999:
  2936                           
  2937                           ;main.c: 59:      ANSELCbits.ANSC5 = 0;
  2938     05E8  128E               	bcf	14,5	;volatile
  2939     05E9                     l1001:
  2940                           
  2941                           ;main.c: 61:      TRISCbits.TRISC4 = 1;
  2942     05E9  0021               	movlb	1	; select bank1
  2943     05EA  160E               	bsf	14,4	;volatile
  2944     05EB                     l1003:
  2945                           
  2946                           ;main.c: 62:      TRISCbits.TRISC5 = 1;
  2947     05EB  168E               	bsf	14,5	;volatile
  2948     05EC                     l1005:
  2949                           
  2950                           ;main.c: 64:      PPSLOCK = 0x55;
  2951     05EC  3055               	movlw	85
  2952     05ED  003C               	movlb	28	; select bank28
  2953     05EE  008F               	movwf	15	;volsfr
  2954     05EF                     l1007:
  2955                           
  2956                           ;main.c: 65:      PPSLOCK = 0xAA;
  2957     05EF  30AA               	movlw	170
  2958     05F0  008F               	movwf	15	;volsfr
  2959     05F1                     l1009:
  2960                           
  2961                           ;main.c: 66:      PPSLOCKbits.PPSLOCKED = 0x00;
  2962     05F1  100F               	bcf	15,0	;volsfr
  2963     05F2                     l1011:
  2964                           
  2965                           ;main.c: 68:      RC4PPSbits.RC4PPS = 0x0011;
  2966     05F2  003D               	movlb	29	; select bank29
  2967     05F3  0824               	movf	36,w	;volatile
  2968     05F4  39E0               	andlw	-32
  2969     05F5  3811               	iorlw	17
  2970     05F6  00A4               	movwf	36	;volatile
  2971     05F7                     l1013:
  2972                           
  2973                           ;main.c: 69:      SSPDATPPSbits.SSPDATPPS = 0x0014;
  2974     05F7  003C               	movlb	28	; select bank28
  2975     05F8  0821               	movf	33,w	;volatile
  2976     05F9  39E0               	andlw	-32
  2977     05FA  3814               	iorlw	20
  2978     05FB  00A1               	movwf	33	;volatile
  2979     05FC                     l1015:
  2980                           
  2981                           ;main.c: 70:      SSPCLKPPSbits.SSPCLKPPS = 0x0015;
  2982     05FC  0820               	movf	32,w	;volatile
  2983     05FD  39E0               	andlw	-32
  2984     05FE  3815               	iorlw	21
  2985     05FF  00A0               	movwf	32	;volatile
  2986     0600                     l1017:
  2987                           
  2988                           ;main.c: 71:      RC5PPSbits.RC5PPS = 0x0010;
  2989     0600  003D               	movlb	29	; select bank29
  2990     0601  0825               	movf	37,w	;volatile
  2991     0602  39E0               	andlw	-32
  2992     0603  3810               	iorlw	16
  2993     0604  00A5               	movwf	37	;volatile
  2994     0605                     l1019:
  2995                           
  2996                           ;main.c: 73:      PPSLOCK = 0x55;
  2997     0605  3055               	movlw	85
  2998     0606  003C               	movlb	28	; select bank28
  2999     0607  008F               	movwf	15	;volsfr
  3000     0608                     l1021:
  3001                           
  3002                           ;main.c: 74:      PPSLOCK = 0xAA;
  3003     0608  30AA               	movlw	170
  3004     0609  008F               	movwf	15	;volsfr
  3005     060A                     l1023:
  3006                           
  3007                           ;main.c: 75:      PPSLOCKbits.PPSLOCKED = 0x01;
  3008     060A  140F               	bsf	15,0	;volsfr
  3009     060B                     l125:
  3010     060B  0008               	return
  3011     060C                     __end_of_initMain:
  3012                           
  3013                           	psect	text2
  3014     0527                     __ptext2:	
  3015 ;; *************** function _internal_16 *****************
  3016 ;; Defined at:
  3017 ;;		line 57 in file "PIC16F1719_Internal.c"
  3018 ;; Parameters:    Size  Location     Type
  3019 ;;		None
  3020 ;; Auto vars:     Size  Location     Type
  3021 ;;		None
  3022 ;; Return value:  Size  Location     Type
  3023 ;;                  1    wreg      void 
  3024 ;; Registers used:
  3025 ;;		None
  3026 ;; Tracked objects:
  3027 ;;		On entry : 0/0
  3028 ;;		On exit  : 0/0
  3029 ;;		Unchanged: 0/0
  3030 ;; Data sizes:     COMMON   BANK0   BANK1   BANK2   BANK3   BANK4   BANK5   BANK6   BANK7   BANK8   BANK9  BANK10  BANK1
      +1  BANK12  BANK13  BANK14  BANK15  BANK16  BANK17  BANK18  BANK19  BANK20  BANK21  BANK22  BANK23  BANK24  BANK25
  3031 ;;      Params:         0       0       0       0       0       0       0       0       0       0       0       0       
      +0       0       0       0       0       0       0       0       0       0       0       0       0       0       0
  3032 ;;      Locals:         0       0       0       0       0       0       0       0       0       0       0       0       
      +0       0       0       0       0       0       0       0       0       0       0       0       0       0       0
  3033 ;;      Temps:          0       0       0       0       0       0       0       0       0       0       0       0       
      +0       0       0       0       0       0       0       0       0       0       0       0       0       0       0
  3034 ;;      Totals:         0       0       0       0       0       0       0       0       0       0       0       0       
      +0       0       0       0       0       0       0       0       0       0       0       0       0       0       0
  3035 ;;Total ram usage:        0 bytes
  3036 ;; Hardware stack levels used: 1
  3037 ;; This function calls:
  3038 ;;		Nothing
  3039 ;; This function is called by:
  3040 ;;		_initMain
  3041 ;; This function uses a non-reentrant model
  3042 ;;
  3043                           
  3044     0527                     _internal_16:	
  3045                           ;psect for function _internal_16
  3046                           
  3047     0527                     l951:	
  3048                           ;incstack = 0
  3049                           ; Regs used in _internal_16: []
  3050                           
  3051                           
  3052                           ;PIC16F1719_Internal.c: 59:     SCS0 = 0;
  3053     0527  0021               	movlb	1	; select bank1
  3054     0528  1019               	bcf	25,0	;volatile
  3055                           
  3056                           ;PIC16F1719_Internal.c: 60:     SCS1 = 0;
  3057     0529  1099               	bcf	25,1	;volatile
  3058                           
  3059                           ;PIC16F1719_Internal.c: 63:     IRCF0 = 1;
  3060     052A  1599               	bsf	25,3	;volatile
  3061                           
  3062                           ;PIC16F1719_Internal.c: 64:     IRCF1 = 1;
  3063     052B  1619               	bsf	25,4	;volatile
  3064                           
  3065                           ;PIC16F1719_Internal.c: 65:     IRCF2 = 1;
  3066     052C  1699               	bsf	25,5	;volatile
  3067                           
  3068                           ;PIC16F1719_Internal.c: 66:     IRCF3 = 1;
  3069     052D  1719               	bsf	25,6	;volatile
  3070                           
  3071                           ;PIC16F1719_Internal.c: 69:     SPLLEN = 0;
  3072     052E  1399               	bcf	25,7	;volatile
  3073     052F                     l77:
  3074     052F  0008               	return
  3075     0530                     __end_of_internal_16:
  3076                           
  3077                           	psect	text3
  3078     055F                     __ptext3:	
  3079 ;; *************** function _OLED_Write_String *****************
  3080 ;; Defined at:
  3081 ;;		line 284 in file "oled.c"
  3082 ;; Parameters:    Size  Location     Type
  3083 ;;  s               2   12[COMMON] PTR unsigned char 
  3084 ;;		 -> STR_4(13), STR_3(8), STR_2(10), STR_1(13), 
  3085 ;; Auto vars:     Size  Location     Type
  3086 ;;		None
  3087 ;; Return value:  Size  Location     Type
  3088 ;;                  1    wreg      void 
  3089 ;; Registers used:
  3090 ;;		wreg, fsr0l, fsr0h, fsr1l, fsr1h, status,2, status,0, pclath, cstack
  3091 ;; Tracked objects:
  3092 ;;		On entry : 0/0
  3093 ;;		On exit  : 0/0
  3094 ;;		Unchanged: 0/0
  3095 ;; Data sizes:     COMMON   BANK0   BANK1   BANK2   BANK3   BANK4   BANK5   BANK6   BANK7   BANK8   BANK9  BANK10  BANK1
      +1  BANK12  BANK13  BANK14  BANK15  BANK16  BANK17  BANK18  BANK19  BANK20  BANK21  BANK22  BANK23  BANK24  BANK25
  3096 ;;      Params:         2       0       0       0       0       0       0       0       0       0       0       0       
      +0       0       0       0       0       0       0       0       0       0       0       0       0       0       0
  3097 ;;      Locals:         0       0       0       0       0       0       0       0       0       0       0       0       
      +0       0       0       0       0       0       0       0       0       0       0       0       0       0       0
  3098 ;;      Temps:          0       1       0       0       0       0       0       0       0       0       0       0       
      +0       0       0       0       0       0       0       0       0       0       0       0       0       0       0
  3099 ;;      Totals:         2       1       0       0       0       0       0       0       0       0       0       0       
      +0       0       0       0       0       0       0       0       0       0       0       0       0       0       0
  3100 ;;Total ram usage:        3 bytes
  3101 ;; Hardware stack levels used: 1
  3102 ;; Hardware stack levels required when called: 2
  3103 ;; This function calls:
  3104 ;;		_OLED_PutChar
  3105 ;; This function is called by:
  3106 ;;		_main
  3107 ;; This function uses a non-reentrant model
  3108 ;;
  3109                           
  3110     055F                     _OLED_Write_String:	
  3111                           ;psect for function _OLED_Write_String
  3112                           
  3113     055F                     l1333:	
  3114                           ;incstack = 0
  3115                           ; Regs used in _OLED_Write_String: [wreg-fsr1h+status,2+status,0+pclath+cstack]
  3116                           
  3117                           
  3118                           ;oled.c: 284: void OLED_Write_String( char *s );oled.c: 285: {;oled.c: 286:     while (*
      +                          s) OLED_PutChar( *s++);
  3119     055F  2D6C               	goto	l1339
  3120     0560                     l1335:
  3121     0560  087C               	movf	OLED_Write_String@s,w
  3122     0561  0084               	movwf	4
  3123     0562  087D               	movf	OLED_Write_String@s+1,w
  3124     0563  0085               	movwf	5
  3125     0564  0800               	movf	0,w	;code access
  3126     0565  3187  2707  3185   	fcall	_OLED_PutChar
  3127     0568                     l1337:
  3128     0568  3001               	movlw	1
  3129     0569  07FC               	addwf	OLED_Write_String@s,f
  3130     056A  3000               	movlw	0
  3131     056B  3DFD               	addwfc	OLED_Write_String@s+1,f
  3132     056C                     l1339:
  3133     056C  087C               	movf	OLED_Write_String@s,w
  3134     056D  0084               	movwf	4
  3135     056E  087D               	movf	OLED_Write_String@s+1,w
  3136     056F  0085               	movwf	5
  3137     0570  0012               	moviw fsr0++
  3138     0571  1D03               	btfss	3,2
  3139     0572  2D74               	goto	u441
  3140     0573  2D75               	goto	u440
  3141     0574                     u441:
  3142     0574  2D60               	goto	l1335
  3143     0575                     u440:
  3144     0575                     l178:
  3145     0575  0008               	return
  3146     0576                     __end_of_OLED_Write_String:
  3147                           
  3148                           	psect	text4
  3149     0637                     __ptext4:	
  3150 ;; *************** function _OLED_Init *****************
  3151 ;; Defined at:
  3152 ;;		line 174 in file "oled.c"
  3153 ;; Parameters:    Size  Location     Type
  3154 ;;		None
  3155 ;; Auto vars:     Size  Location     Type
  3156 ;;		None
  3157 ;; Return value:  Size  Location     Type
  3158 ;;                  1    wreg      void 
  3159 ;; Registers used:
  3160 ;;		wreg, status,2, status,0, pclath, cstack
  3161 ;; Tracked objects:
  3162 ;;		On entry : 0/0
  3163 ;;		On exit  : 0/0
  3164 ;;		Unchanged: 0/0
  3165 ;; Data sizes:     COMMON   BANK0   BANK1   BANK2   BANK3   BANK4   BANK5   BANK6   BANK7   BANK8   BANK9  BANK10  BANK1
      +1  BANK12  BANK13  BANK14  BANK15  BANK16  BANK17  BANK18  BANK19  BANK20  BANK21  BANK22  BANK23  BANK24  BANK25
  3166 ;;      Params:         0       0       0       0       0       0       0       0       0       0       0       0       
      +0       0       0       0       0       0       0       0       0       0       0       0       0       0       0
  3167 ;;      Locals:         0       0       0       0       0       0       0       0       0       0       0       0       
      +0       0       0       0       0       0       0       0       0       0       0       0       0       0       0
  3168 ;;      Temps:          0       0       0       0       0       0       0       0       0       0       0       0       
      +0       0       0       0       0       0       0       0       0       0       0       0       0       0       0
  3169 ;;      Totals:         0       0       0       0       0       0       0       0       0       0       0       0       
      +0       0       0       0       0       0       0       0       0       0       0       0       0       0       0
  3170 ;;Total ram usage:        0 bytes
  3171 ;; Hardware stack levels used: 1
  3172 ;; Hardware stack levels required when called: 2
  3173 ;; This function calls:
  3174 ;;		_OLED_Command
  3175 ;; This function is called by:
  3176 ;;		_main
  3177 ;; This function uses a non-reentrant model
  3178 ;;
  3179                           
  3180     0637                     _OLED_Init:	
  3181                           ;psect for function _OLED_Init
  3182                           
  3183     0637                     l1309:	
  3184                           ;incstack = 0
  3185                           ; Regs used in _OLED_Init: [wreg+status,2+status,0+pclath+cstack]
  3186                           
  3187                           
  3188                           ;oled.c: 176:     OLED_Command(0xAE);
  3189     0637  30AE               	movlw	174
  3190     0638  3185  2576  3186   	fcall	_OLED_Command
  3191                           
  3192                           ;oled.c: 177:     OLED_Command(0xD5);
  3193     063B  30D5               	movlw	213
  3194     063C  3185  2576  3186   	fcall	_OLED_Command
  3195                           
  3196                           ;oled.c: 178:     OLED_Command(0x80);
  3197     063F  3080               	movlw	128
  3198     0640  3185  2576  3186   	fcall	_OLED_Command
  3199                           
  3200                           ;oled.c: 179:     OLED_Command(0xA8);
  3201     0643  30A8               	movlw	168
  3202     0644  3185  2576  3186   	fcall	_OLED_Command
  3203                           
  3204                           ;oled.c: 180:     OLED_Command(0x1F);
  3205     0647  301F               	movlw	31
  3206     0648  3185  2576  3186   	fcall	_OLED_Command
  3207                           
  3208                           ;oled.c: 181:     OLED_Command(0xD3);
  3209     064B  30D3               	movlw	211
  3210     064C  3185  2576  3186   	fcall	_OLED_Command
  3211                           
  3212                           ;oled.c: 182:     OLED_Command(0x0);
  3213     064F  3000               	movlw	0
  3214     0650  3185  2576  3186   	fcall	_OLED_Command
  3215                           
  3216                           ;oled.c: 183:     OLED_Command(0x40 | 0x0);
  3217     0653  3040               	movlw	64
  3218     0654  3185  2576  3186   	fcall	_OLED_Command
  3219                           
  3220                           ;oled.c: 184:     OLED_Command(0x8D);
  3221     0657  308D               	movlw	141
  3222     0658  3185  2576  3186   	fcall	_OLED_Command
  3223                           
  3224                           ;oled.c: 185:     OLED_Command(0xAF);
  3225     065B  30AF               	movlw	175
  3226     065C  3185  2576  3186   	fcall	_OLED_Command
  3227                           
  3228                           ;oled.c: 186:     OLED_Command(0x20);
  3229     065F  3020               	movlw	32
  3230     0660  3185  2576  3186   	fcall	_OLED_Command
  3231                           
  3232                           ;oled.c: 187:     OLED_Command(0x00);
  3233     0663  3000               	movlw	0
  3234     0664  3185  2576  3186   	fcall	_OLED_Command
  3235                           
  3236                           ;oled.c: 188:     OLED_Command(0xA0 | 0x1);
  3237     0667  30A1               	movlw	161
  3238     0668  3185  2576  3186   	fcall	_OLED_Command
  3239                           
  3240                           ;oled.c: 189:     OLED_Command(0xC8);
  3241     066B  30C8               	movlw	200
  3242     066C  3185  2576  3186   	fcall	_OLED_Command
  3243                           
  3244                           ;oled.c: 190:     OLED_Command(0xDA);
  3245     066F  30DA               	movlw	218
  3246     0670  3185  2576  3186   	fcall	_OLED_Command
  3247                           
  3248                           ;oled.c: 191:     OLED_Command(0x02);
  3249     0673  3002               	movlw	2
  3250     0674  3185  2576  3186   	fcall	_OLED_Command
  3251                           
  3252                           ;oled.c: 192:     OLED_Command(0x81);
  3253     0677  3081               	movlw	129
  3254     0678  3185  2576  3186   	fcall	_OLED_Command
  3255                           
  3256                           ;oled.c: 193:     OLED_Command(0x8F);
  3257     067B  308F               	movlw	143
  3258     067C  3185  2576  3186   	fcall	_OLED_Command
  3259                           
  3260                           ;oled.c: 194:     OLED_Command(0xD9);
  3261     067F  30D9               	movlw	217
  3262     0680  3185  2576  3186   	fcall	_OLED_Command
  3263                           
  3264                           ;oled.c: 195:     OLED_Command(0xF1);
  3265     0683  30F1               	movlw	241
  3266     0684  3185  2576  3186   	fcall	_OLED_Command
  3267                           
  3268                           ;oled.c: 196:     OLED_Command(0xDB);
  3269     0687  30DB               	movlw	219
  3270     0688  3185  2576  3186   	fcall	_OLED_Command
  3271                           
  3272                           ;oled.c: 197:     OLED_Command(0x40);
  3273     068B  3040               	movlw	64
  3274     068C  3185  2576  3186   	fcall	_OLED_Command
  3275                           
  3276                           ;oled.c: 198:     OLED_Command(0xA4);
  3277     068F  30A4               	movlw	164
  3278     0690  3185  2576  3186   	fcall	_OLED_Command
  3279                           
  3280                           ;oled.c: 199:     OLED_Command(0xA6);
  3281     0693  30A6               	movlw	166
  3282     0694  3185  2576  3186   	fcall	_OLED_Command
  3283                           
  3284                           ;oled.c: 200:     OLED_Command(0xAF);
  3285     0697  30AF               	movlw	175
  3286     0698  3185  2576  3186   	fcall	_OLED_Command
  3287     069B                     l154:
  3288     069B  0008               	return
  3289     069C                     __end_of_OLED_Init:
  3290                           
  3291                           	psect	text5
  3292     060C                     __ptext5:	
  3293 ;; *************** function _OLED_Clear *****************
  3294 ;; Defined at:
  3295 ;;		line 264 in file "oled.c"
  3296 ;; Parameters:    Size  Location     Type
  3297 ;;		None
  3298 ;; Auto vars:     Size  Location     Type
  3299 ;;  col             2   20[BANK0 ] unsigned short 
  3300 ;;  row             2   18[BANK0 ] unsigned short 
  3301 ;; Return value:  Size  Location     Type
  3302 ;;                  1    wreg      void 
  3303 ;; Registers used:
  3304 ;;		wreg, fsr0l, fsr0h, fsr1l, fsr1h, status,2, status,0, pclath, cstack
  3305 ;; Tracked objects:
  3306 ;;		On entry : 0/0
  3307 ;;		On exit  : 0/0
  3308 ;;		Unchanged: 0/0
  3309 ;; Data sizes:     COMMON   BANK0   BANK1   BANK2   BANK3   BANK4   BANK5   BANK6   BANK7   BANK8   BANK9  BANK10  BANK1
      +1  BANK12  BANK13  BANK14  BANK15  BANK16  BANK17  BANK18  BANK19  BANK20  BANK21  BANK22  BANK23  BANK24  BANK25
  3310 ;;      Params:         0       0       0       0       0       0       0       0       0       0       0       0       
      +0       0       0       0       0       0       0       0       0       0       0       0       0       0       0
  3311 ;;      Locals:         0       4       0       0       0       0       0       0       0       0       0       0       
      +0       0       0       0       0       0       0       0       0       0       0       0       0       0       0
  3312 ;;      Temps:          0       0       0       0       0       0       0       0       0       0       0       0       
      +0       0       0       0       0       0       0       0       0       0       0       0       0       0       0
  3313 ;;      Totals:         0       4       0       0       0       0       0       0       0       0       0       0       
      +0       0       0       0       0       0       0       0       0       0       0       0       0       0       0
  3314 ;;Total ram usage:        4 bytes
  3315 ;; Hardware stack levels used: 1
  3316 ;; Hardware stack levels required when called: 3
  3317 ;; This function calls:
  3318 ;;		_OLED_PutChar
  3319 ;;		_OLED_YX
  3320 ;; This function is called by:
  3321 ;;		_main
  3322 ;; This function uses a non-reentrant model
  3323 ;;
  3324                           
  3325     060C                     _OLED_Clear:	
  3326                           ;psect for function _OLED_Clear
  3327                           
  3328     060C                     l1311:	
  3329                           ;incstack = 0
  3330                           ; Regs used in _OLED_Clear: [wreg-fsr1h+status,2+status,0+pclath+cstack]
  3331                           
  3332                           
  3333                           ;oled.c: 266:     for ( uint16_t row = 0; row < 8; row++ ) {
  3334     060C  0020               	movlb	0	; select bank0
  3335     060D  01B2               	clrf	OLED_Clear@row
  3336     060E  01B3               	clrf	OLED_Clear@row+1
  3337     060F                     l1317:
  3338                           
  3339                           ;oled.c: 267:         for ( uint16_t col = 0; col < 16; col++ ) {
  3340     060F  01B4               	clrf	OLED_Clear@col
  3341     0610  01B5               	clrf	OLED_Clear@col+1
  3342     0611                     l1323:
  3343                           
  3344                           ;oled.c: 268:             OLED_YX( row, col );
  3345     0611  0834               	movf	OLED_Clear@col,w
  3346     0612  00F5               	movwf	OLED_YX@Column
  3347     0613  0832               	movf	OLED_Clear@row,w
  3348     0614  3185  25BA  3186   	fcall	_OLED_YX
  3349     0617                     l1325:
  3350                           
  3351                           ;oled.c: 269:             OLED_PutChar(' ');
  3352     0617  3020               	movlw	32
  3353     0618  3187  2707  3186   	fcall	_OLED_PutChar
  3354     061B                     l1327:
  3355                           
  3356                           ;oled.c: 270:         }
  3357     061B  3001               	movlw	1
  3358     061C  0020               	movlb	0	; select bank0
  3359     061D  07B4               	addwf	OLED_Clear@col,f
  3360     061E  3000               	movlw	0
  3361     061F  3DB5               	addwfc	OLED_Clear@col+1,f
  3362     0620                     l1329:
  3363     0620  3000               	movlw	0
  3364     0621  0235               	subwf	OLED_Clear@col+1,w
  3365     0622  3010               	movlw	16
  3366     0623  1903               	skipnz
  3367     0624  0234               	subwf	OLED_Clear@col,w
  3368     0625  1C03               	skipc
  3369     0626  2E28               	goto	u421
  3370     0627  2E29               	goto	u420
  3371     0628                     u421:
  3372     0628  2E11               	goto	l1323
  3373     0629                     u420:
  3374     0629                     l1331:
  3375                           
  3376                           ;oled.c: 271:     }
  3377     0629  3001               	movlw	1
  3378     062A  07B2               	addwf	OLED_Clear@row,f
  3379     062B  3000               	movlw	0
  3380     062C  3DB3               	addwfc	OLED_Clear@row+1,f
  3381     062D  3000               	movlw	0
  3382     062E  0233               	subwf	OLED_Clear@row+1,w
  3383     062F  3008               	movlw	8
  3384     0630  1903               	skipnz
  3385     0631  0232               	subwf	OLED_Clear@row,w
  3386     0632  1C03               	skipc
  3387     0633  2E35               	goto	u431
  3388     0634  2E36               	goto	u430
  3389     0635                     u431:
  3390     0635  2E0F               	goto	l1317
  3391     0636                     u430:
  3392     0636                     l172:
  3393     0636  0008               	return
  3394     0637                     __end_of_OLED_Clear:
  3395                           
  3396                           	psect	text6
  3397     05BA                     __ptext6:	
  3398 ;; *************** function _OLED_YX *****************
  3399 ;; Defined at:
  3400 ;;		line 213 in file "oled.c"
  3401 ;; Parameters:    Size  Location     Type
  3402 ;;  Row             1    wreg     unsigned char 
  3403 ;;  Column          1    5[COMMON] unsigned char 
  3404 ;; Auto vars:     Size  Location     Type
  3405 ;;  Row             1    9[COMMON] unsigned char 
  3406 ;; Return value:  Size  Location     Type
  3407 ;;                  1    wreg      void 
  3408 ;; Registers used:
  3409 ;;		wreg, status,2, status,0, pclath, cstack
  3410 ;; Tracked objects:
  3411 ;;		On entry : 0/0
  3412 ;;		On exit  : 0/0
  3413 ;;		Unchanged: 0/0
  3414 ;; Data sizes:     COMMON   BANK0   BANK1   BANK2   BANK3   BANK4   BANK5   BANK6   BANK7   BANK8   BANK9  BANK10  BANK1
      +1  BANK12  BANK13  BANK14  BANK15  BANK16  BANK17  BANK18  BANK19  BANK20  BANK21  BANK22  BANK23  BANK24  BANK25
  3415 ;;      Params:         1       0       0       0       0       0       0       0       0       0       0       0       
      +0       0       0       0       0       0       0       0       0       0       0       0       0       0       0
  3416 ;;      Locals:         1       0       0       0       0       0       0       0       0       0       0       0       
      +0       0       0       0       0       0       0       0       0       0       0       0       0       0       0
  3417 ;;      Temps:          3       0       0       0       0       0       0       0       0       0       0       0       
      +0       0       0       0       0       0       0       0       0       0       0       0       0       0       0
  3418 ;;      Totals:         5       0       0       0       0       0       0       0       0       0       0       0       
      +0       0       0       0       0       0       0       0       0       0       0       0       0       0       0
  3419 ;;Total ram usage:        5 bytes
  3420 ;; Hardware stack levels used: 1
  3421 ;; Hardware stack levels required when called: 2
  3422 ;; This function calls:
  3423 ;;		_OLED_Command
  3424 ;; This function is called by:
  3425 ;;		_main
  3426 ;;		_OLED_Clear
  3427 ;; This function uses a non-reentrant model
  3428 ;;
  3429                           
  3430     05BA                     _OLED_YX:	
  3431                           ;psect for function _OLED_YX
  3432                           
  3433                           
  3434                           ;incstack = 0
  3435                           ; Regs used in _OLED_YX: [wreg+status,2+status,0+pclath+cstack]
  3436                           ;OLED_YX@Row stored from wreg
  3437     05BA  00F9               	movwf	OLED_YX@Row
  3438     05BB                     l1275:
  3439                           
  3440                           ;oled.c: 213: void OLED_YX(unsigned char Row, unsigned char Column);oled.c: 214: {;oled.
      +                          c: 215:     OLED_Command( 0xB0 + Row);
  3441     05BB  0879               	movf	OLED_YX@Row,w
  3442     05BC  3EB0               	addlw	176
  3443     05BD  3185  2576  3185   	fcall	_OLED_Command
  3444                           
  3445                           ;oled.c: 216:     OLED_Command( 0x00 + (8*Column & 0x0F) );
  3446     05C0  0875               	movf	OLED_YX@Column,w
  3447     05C1  00F6               	movwf	??_OLED_YX
  3448     05C2  3002               	movlw	2
  3449     05C3                     u375:
  3450     05C3  35F6               	lslf	??_OLED_YX,f
  3451     05C4  3EFF               	addlw	-1
  3452     05C5  1D03               	skipz
  3453     05C6  2DC3               	goto	u375
  3454     05C7  3576               	lslf	??_OLED_YX,w
  3455     05C8  390F               	andlw	15
  3456     05C9  3185  2576  3185   	fcall	_OLED_Command
  3457                           
  3458                           ;oled.c: 217:     OLED_Command( 0x10 + ((8*Column>>4)&0x0F) );
  3459     05CC  0875               	movf	OLED_YX@Column,w
  3460     05CD  00F6               	movwf	??_OLED_YX
  3461     05CE  01F7               	clrf	??_OLED_YX+1
  3462     05CF  35F6               	lslf	??_OLED_YX,f
  3463     05D0  0DF7               	rlf	??_OLED_YX+1,f
  3464     05D1  35F6               	lslf	??_OLED_YX,f
  3465     05D2  0DF7               	rlf	??_OLED_YX+1,f
  3466     05D3  35F6               	lslf	??_OLED_YX,f
  3467     05D4  0DF7               	rlf	??_OLED_YX+1,f
  3468     05D5  3004               	movlw	4
  3469     05D6  00F8               	movwf	??_OLED_YX+2
  3470     05D7                     u385:
  3471     05D7  0D77               	rlf	??_OLED_YX+1,w
  3472     05D8  0CF7               	rrf	??_OLED_YX+1,f
  3473     05D9  0CF6               	rrf	??_OLED_YX,f
  3474     05DA  0BF8               	decfsz	??_OLED_YX+2,f
  3475     05DB  2DD7               	goto	u385
  3476     05DC  0876               	movf	??_OLED_YX,w
  3477     05DD  390F               	andlw	15
  3478     05DE  3E10               	addlw	16
  3479     05DF  3185  2576  3185   	fcall	_OLED_Command
  3480     05E2                     l157:
  3481     05E2  0008               	return
  3482     05E3                     __end_of_OLED_YX:
  3483                           
  3484                           	psect	text7
  3485     0576                     __ptext7:	
  3486 ;; *************** function _OLED_Command *****************
  3487 ;; Defined at:
  3488 ;;		line 138 in file "oled.c"
  3489 ;; Parameters:    Size  Location     Type
  3490 ;;  temp            1    wreg     unsigned char 
  3491 ;; Auto vars:     Size  Location     Type
  3492 ;;  temp            1    4[COMMON] unsigned char 
  3493 ;; Return value:  Size  Location     Type
  3494 ;;                  1    wreg      void 
  3495 ;; Registers used:
  3496 ;;		wreg, status,2, status,0, pclath, cstack
  3497 ;; Tracked objects:
  3498 ;;		On entry : 0/0
  3499 ;;		On exit  : 0/0
  3500 ;;		Unchanged: 0/0
  3501 ;; Data sizes:     COMMON   BANK0   BANK1   BANK2   BANK3   BANK4   BANK5   BANK6   BANK7   BANK8   BANK9  BANK10  BANK1
      +1  BANK12  BANK13  BANK14  BANK15  BANK16  BANK17  BANK18  BANK19  BANK20  BANK21  BANK22  BANK23  BANK24  BANK25
  3502 ;;      Params:         0       0       0       0       0       0       0       0       0       0       0       0       
      +0       0       0       0       0       0       0       0       0       0       0       0       0       0       0
  3503 ;;      Locals:         1       0       0       0       0       0       0       0       0       0       0       0       
      +0       0       0       0       0       0       0       0       0       0       0       0       0       0       0
  3504 ;;      Temps:          2       0       0       0       0       0       0       0       0       0       0       0       
      +0       0       0       0       0       0       0       0       0       0       0       0       0       0       0
  3505 ;;      Totals:         3       0       0       0       0       0       0       0       0       0       0       0       
      +0       0       0       0       0       0       0       0       0       0       0       0       0       0       0
  3506 ;;Total ram usage:        3 bytes
  3507 ;; Hardware stack levels used: 1
  3508 ;; Hardware stack levels required when called: 1
  3509 ;; This function calls:
  3510 ;;		_Send_I2C_Data
  3511 ;;		_Send_I2C_StartBit
  3512 ;;		_Send_I2C_StopBit
  3513 ;; This function is called by:
  3514 ;;		_OLED_Init
  3515 ;;		_OLED_YX
  3516 ;; This function uses a non-reentrant model
  3517 ;;
  3518                           
  3519     0576                     _OLED_Command:	
  3520                           ;psect for function _OLED_Command
  3521                           
  3522                           
  3523                           ;incstack = 0
  3524                           ; Regs used in _OLED_Command: [wreg+status,2+status,0+pclath+cstack]
  3525                           ;OLED_Command@temp stored from wreg
  3526     0576  00F4               	movwf	OLED_Command@temp
  3527     0577                     l1231:
  3528                           
  3529                           ;oled.c: 140:     Send_I2C_StartBit();
  3530     0577  3185  2530  3185   	fcall	_Send_I2C_StartBit
  3531     057A                     l1233:
  3532                           
  3533                           ;oled.c: 141:     Send_I2C_Data(0x3C << 1);
  3534     057A  3078               	movlw	120
  3535     057B  00F0               	movwf	Send_I2C_Data@databyte
  3536     057C  3000               	movlw	0
  3537     057D  00F1               	movwf	Send_I2C_Data@databyte+1
  3538     057E  3185  2544  3185   	fcall	_Send_I2C_Data
  3539     0581                     l1235:
  3540                           
  3541                           ;oled.c: 142:     Send_I2C_Data(0x00);
  3542     0581  3000               	movlw	0
  3543     0582  00F0               	movwf	Send_I2C_Data@databyte
  3544     0583  00F1               	movwf	Send_I2C_Data@databyte+1
  3545     0584  3185  2544  3185   	fcall	_Send_I2C_Data
  3546     0587                     l1237:
  3547                           
  3548                           ;oled.c: 143:     Send_I2C_Data(temp);
  3549     0587  0874               	movf	OLED_Command@temp,w
  3550     0588  00F2               	movwf	??_OLED_Command
  3551     0589  01F3               	clrf	??_OLED_Command+1
  3552     058A  0872               	movf	??_OLED_Command,w
  3553     058B  00F0               	movwf	Send_I2C_Data@databyte
  3554     058C  0873               	movf	??_OLED_Command+1,w
  3555     058D  00F1               	movwf	Send_I2C_Data@databyte+1
  3556     058E  3185  2544  3185   	fcall	_Send_I2C_Data
  3557     0591                     l1239:
  3558                           
  3559                           ;oled.c: 144:     Send_I2C_StopBit();
  3560     0591  3185  253A  3185   	fcall	_Send_I2C_StopBit
  3561     0594                     l148:
  3562     0594  0008               	return
  3563     0595                     __end_of_OLED_Command:
  3564                           
  3565                           	psect	text8
  3566     0707                     __ptext8:	
  3567 ;; *************** function _OLED_PutChar *****************
  3568 ;; Defined at:
  3569 ;;		line 229 in file "oled.c"
  3570 ;; Parameters:    Size  Location     Type
  3571 ;;  ch              1    wreg     unsigned char 
  3572 ;; Auto vars:     Size  Location     Type
  3573 ;;  ch              1   17[BANK0 ] unsigned char 
  3574 ;;  bytes           9    4[BANK0 ] unsigned char [9]
  3575 ;;  i               2   15[BANK0 ] int 
  3576 ;;  base            2   13[BANK0 ] PTR const unsigned char 
  3577 ;;		 -> OledFont(768), 
  3578 ;; Return value:  Size  Location     Type
  3579 ;;                  1    wreg      void 
  3580 ;; Registers used:
  3581 ;;		wreg, fsr0l, fsr0h, fsr1l, fsr1h, status,2, status,0, pclath, cstack
  3582 ;; Tracked objects:
  3583 ;;		On entry : 0/0
  3584 ;;		On exit  : 0/0
  3585 ;;		Unchanged: 0/0
  3586 ;; Data sizes:     COMMON   BANK0   BANK1   BANK2   BANK3   BANK4   BANK5   BANK6   BANK7   BANK8   BANK9  BANK10  BANK1
      +1  BANK12  BANK13  BANK14  BANK15  BANK16  BANK17  BANK18  BANK19  BANK20  BANK21  BANK22  BANK23  BANK24  BANK25
  3587 ;;      Params:         0       0       0       0       0       0       0       0       0       0       0       0       
      +0       0       0       0       0       0       0       0       0       0       0       0       0       0       0
  3588 ;;      Locals:         0      14       0       0       0       0       0       0       0       0       0       0       
      +0       0       0       0       0       0       0       0       0       0       0       0       0       0       0
  3589 ;;      Temps:          0       4       0       0       0       0       0       0       0       0       0       0       
      +0       0       0       0       0       0       0       0       0       0       0       0       0       0       0
  3590 ;;      Totals:         0      18       0       0       0       0       0       0       0       0       0       0       
      +0       0       0       0       0       0       0       0       0       0       0       0       0       0       0
  3591 ;;Total ram usage:       18 bytes
  3592 ;; Hardware stack levels used: 1
  3593 ;; Hardware stack levels required when called: 1
  3594 ;; This function calls:
  3595 ;;		_Send_I2C_Data
  3596 ;;		_Send_I2C_StartBit
  3597 ;;		_Send_I2C_StopBit
  3598 ;;		_memmove
  3599 ;; This function is called by:
  3600 ;;		_OLED_Clear
  3601 ;;		_OLED_Write_String
  3602 ;; This function uses a non-reentrant model
  3603 ;;
  3604                           
  3605     0707                     _OLED_PutChar:	
  3606                           ;psect for function _OLED_PutChar
  3607                           
  3608                           
  3609                           ;incstack = 0
  3610                           ; Regs used in _OLED_PutChar: [wreg-fsr1h+status,2+status,0+pclath+cstack]
  3611                           ;OLED_PutChar@ch stored from wreg
  3612     0707  0020               	movlb	0	; select bank0
  3613     0708  00B1               	movwf	OLED_PutChar@ch
  3614     0709                     l1277:
  3615                           
  3616                           ;oled.c: 229: void OLED_PutChar( char ch );oled.c: 230: {;oled.c: 231:     if ( ( ch < 3
      +                          2 ) || ( ch > 127 ) ){
  3617     0709  3020               	movlw	32
  3618     070A  0231               	subwf	OLED_PutChar@ch,w
  3619     070B  1C03               	skipc
  3620     070C  2F0E               	goto	u391
  3621     070D  2F0F               	goto	u390
  3622     070E                     u391:
  3623     070E  2F15               	goto	l1281
  3624     070F                     u390:
  3625     070F                     l1279:
  3626     070F  3080               	movlw	128
  3627     0710  0231               	subwf	OLED_PutChar@ch,w
  3628     0711  1C03               	skipc
  3629     0712  2F14               	goto	u401
  3630     0713  2F15               	goto	u400
  3631     0714                     u401:
  3632     0714  2F17               	goto	l1283
  3633     0715                     u400:
  3634     0715                     l1281:
  3635                           
  3636                           ;oled.c: 232:         ch = ' ';
  3637     0715  3020               	movlw	32
  3638     0716  00B1               	movwf	OLED_PutChar@ch
  3639     0717                     l1283:
  3640                           
  3641                           ;oled.c: 235:     const uint8_t *base = &OledFont[ch - 32][0];
  3642     0717  0831               	movf	OLED_PutChar@ch,w
  3643     0718  00A0               	movwf	??_OLED_PutChar
  3644     0719  01A1               	clrf	??_OLED_PutChar+1
  3645     071A  35A0               	lslf	??_OLED_PutChar,f
  3646     071B  0DA1               	rlf	??_OLED_PutChar+1,f
  3647     071C  35A0               	lslf	??_OLED_PutChar,f
  3648     071D  0DA1               	rlf	??_OLED_PutChar+1,f
  3649     071E  35A0               	lslf	??_OLED_PutChar,f
  3650     071F  0DA1               	rlf	??_OLED_PutChar+1,f
  3651     0720  3000               	movlw	low ((_OledFont| (0+32768)+65280))
  3652     0721  00A2               	movwf	??_OLED_PutChar+2
  3653     0722  3087               	movlw	high ((_OledFont| (0+32768)+65280))
  3654     0723  00A3               	movwf	??_OLED_PutChar+3
  3655     0724  0820               	movf	??_OLED_PutChar,w
  3656     0725  0722               	addwf	??_OLED_PutChar+2,w
  3657     0726  00AD               	movwf	OLED_PutChar@base
  3658     0727  0821               	movf	??_OLED_PutChar+1,w
  3659     0728  3D23               	addwfc	??_OLED_PutChar+3,w
  3660     0729  00AE               	movwf	OLED_PutChar@base+1
  3661     072A                     l1285:
  3662                           
  3663                           ;oled.c: 237:     uint8_t bytes[9];;oled.c: 238:     bytes[0] = 0x40;
  3664     072A  3040               	movlw	64
  3665     072B  00A4               	movwf	OLED_PutChar@bytes
  3666     072C                     l1287:
  3667                           
  3668                           ;oled.c: 239:     memmove( bytes + 1, base, 8 );
  3669     072C  082E               	movf	OLED_PutChar@base+1,w
  3670     072D  00F1               	movwf	memmove@s1+1
  3671     072E  082D               	movf	OLED_PutChar@base,w
  3672     072F  00F0               	movwf	memmove@s1
  3673     0730  3008               	movlw	8
  3674     0731  00F2               	movwf	memmove@n
  3675     0732  3000               	movlw	0
  3676     0733  00F3               	movwf	memmove@n+1
  3677     0734  3025               	movlw	(low ((OLED_PutChar@bytes| 0+1)))& (0+255)
  3678     0735  3186  269C  3187   	fcall	_memmove
  3679     0738                     l1289:
  3680                           
  3681                           ;oled.c: 241:     Send_I2C_StartBit();
  3682     0738  3185  2530  3187   	fcall	_Send_I2C_StartBit
  3683     073B                     l1291:
  3684                           
  3685                           ;oled.c: 242:     Send_I2C_Data(0x3C << 1);
  3686     073B  3078               	movlw	120
  3687     073C  00F0               	movwf	Send_I2C_Data@databyte
  3688     073D  3000               	movlw	0
  3689     073E  00F1               	movwf	Send_I2C_Data@databyte+1
  3690     073F  3185  2544  3187   	fcall	_Send_I2C_Data
  3691     0742                     l1293:
  3692                           
  3693                           ;oled.c: 243:     Send_I2C_Data(0x40);
  3694     0742  3040               	movlw	64
  3695     0743  00F0               	movwf	Send_I2C_Data@databyte
  3696     0744  3000               	movlw	0
  3697     0745  00F1               	movwf	Send_I2C_Data@databyte+1
  3698     0746  3185  2544  3187   	fcall	_Send_I2C_Data
  3699     0749                     l1295:
  3700                           
  3701                           ;oled.c: 245:     int i;;oled.c: 247:     for (i = 1; i <= 8; i++){
  3702     0749  3001               	movlw	1
  3703     074A  0020               	movlb	0	; select bank0
  3704     074B  00AF               	movwf	OLED_PutChar@i
  3705     074C  3000               	movlw	0
  3706     074D  00B0               	movwf	OLED_PutChar@i+1
  3707     074E                     l1301:
  3708                           
  3709                           ;oled.c: 248:          Send_I2C_Data(bytes[i]);
  3710     074E  0020               	movlb	0	; select bank0
  3711     074F  082F               	movf	OLED_PutChar@i,w
  3712     0750  3E24               	addlw	(low (OLED_PutChar@bytes| 0))& (0+255)
  3713     0751  0086               	movwf	6
  3714     0752  0187               	clrf	7
  3715     0753  0801               	movf	1,w
  3716     0754  00A0               	movwf	??_OLED_PutChar
  3717     0755  01A1               	clrf	??_OLED_PutChar+1
  3718     0756  0820               	movf	??_OLED_PutChar,w
  3719     0757  00F0               	movwf	Send_I2C_Data@databyte
  3720     0758  0821               	movf	??_OLED_PutChar+1,w
  3721     0759  00F1               	movwf	Send_I2C_Data@databyte+1
  3722     075A  3185  2544  3187   	fcall	_Send_I2C_Data
  3723     075D                     l1303:
  3724                           
  3725                           ;oled.c: 249:     }
  3726     075D  3001               	movlw	1
  3727     075E  0020               	movlb	0	; select bank0
  3728     075F  07AF               	addwf	OLED_PutChar@i,f
  3729     0760  3000               	movlw	0
  3730     0761  3DB0               	addwfc	OLED_PutChar@i+1,f
  3731     0762                     l1305:
  3732     0762  0830               	movf	OLED_PutChar@i+1,w
  3733     0763  3A80               	xorlw	128
  3734     0764  00A0               	movwf	??_OLED_PutChar
  3735     0765  3080               	movlw	128
  3736     0766  0220               	subwf	??_OLED_PutChar,w
  3737     0767  1D03               	skipz
  3738     0768  2F6B               	goto	u415
  3739     0769  3009               	movlw	9
  3740     076A  022F               	subwf	OLED_PutChar@i,w
  3741     076B                     u415:
  3742     076B  1C03               	skipc
  3743     076C  2F6E               	goto	u411
  3744     076D  2F6F               	goto	u410
  3745     076E                     u411:
  3746     076E  2F4E               	goto	l1301
  3747     076F                     u410:
  3748     076F                     l1307:
  3749                           
  3750                           ;oled.c: 251:     Send_I2C_StopBit();
  3751     076F  3185  253A  3187   	fcall	_Send_I2C_StopBit
  3752     0772                     l165:
  3753     0772  0008               	return
  3754     0773                     __end_of_OLED_PutChar:
  3755                           
  3756                           	psect	text9
  3757     069C                     __ptext9:	
  3758 ;; *************** function _memmove *****************
  3759 ;; Defined at:
  3760 ;;		line 5 in file "C:\Program Files\Microchip\xc8\v2.45\pic\sources\c99\common\memmove.c"
  3761 ;; Parameters:    Size  Location     Type
  3762 ;;  d1              1    wreg     PTR void 
  3763 ;;		 -> OLED_PutChar@bytes(9), 
  3764 ;;  s1              2    0[COMMON] PTR const void 
  3765 ;;		 -> OledFont(768), 
  3766 ;;  n               2    2[COMMON] unsigned int 
  3767 ;; Auto vars:     Size  Location     Type
  3768 ;;  d1              1    6[COMMON] PTR void 
  3769 ;;		 -> OLED_PutChar@bytes(9), 
  3770 ;;  d               2   10[COMMON] struct .
  3771 ;;  s               2    8[COMMON] struct .
  3772 ;;  c               1    7[COMMON] unsigned char 
  3773 ;; Return value:  Size  Location     Type
  3774 ;;                  1    wreg      PTR void 
  3775 ;; Registers used:
  3776 ;;		wreg, fsr0l, fsr0h, fsr1l, fsr1h, status,2, status,0, pclath
  3777 ;; Tracked objects:
  3778 ;;		On entry : 0/0
  3779 ;;		On exit  : 0/0
  3780 ;;		Unchanged: 0/0
  3781 ;; Data sizes:     COMMON   BANK0   BANK1   BANK2   BANK3   BANK4   BANK5   BANK6   BANK7   BANK8   BANK9  BANK10  BANK1
      +1  BANK12  BANK13  BANK14  BANK15  BANK16  BANK17  BANK18  BANK19  BANK20  BANK21  BANK22  BANK23  BANK24  BANK25
  3782 ;;      Params:         4       0       0       0       0       0       0       0       0       0       0       0       
      +0       0       0       0       0       0       0       0       0       0       0       0       0       0       0
  3783 ;;      Locals:         6       0       0       0       0       0       0       0       0       0       0       0       
      +0       0       0       0       0       0       0       0       0       0       0       0       0       0       0
  3784 ;;      Temps:          2       0       0       0       0       0       0       0       0       0       0       0       
      +0       0       0       0       0       0       0       0       0       0       0       0       0       0       0
  3785 ;;      Totals:        12       0       0       0       0       0       0       0       0       0       0       0       
      +0       0       0       0       0       0       0       0       0       0       0       0       0       0       0
  3786 ;;Total ram usage:       12 bytes
  3787 ;; Hardware stack levels used: 1
  3788 ;; This function calls:
  3789 ;;		Nothing
  3790 ;; This function is called by:
  3791 ;;		_OLED_PutChar
  3792 ;; This function uses a non-reentrant model
  3793 ;;
  3794                           
  3795     069C                     _memmove:	
  3796                           ;psect for function _memmove
  3797                           
  3798                           
  3799                           ;incstack = 0
  3800                           ; Regs used in _memmove: [wreg-fsr1h+status,2+status,0+pclath]
  3801                           ;memmove@d1 stored from wreg
  3802     069C  00F6               	movwf	memmove@d1
  3803     069D                     l1241:
  3804     069D  01FA               	clrf	memmove@d
  3805     069E  01FB               	clrf	memmove@d+1
  3806     069F                     l1243:
  3807     069F  0871               	movf	memmove@s1+1,w
  3808     06A0  00F9               	movwf	memmove@s+1
  3809     06A1  0870               	movf	memmove@s1,w
  3810     06A2  00F8               	movwf	memmove@s
  3811     06A3                     l1245:
  3812     06A3  0876               	movf	memmove@d1,w
  3813     06A4  00FA               	movwf	memmove@d
  3814     06A5                     l1247:
  3815     06A5  087B               	movf	memmove@d+1,w
  3816     06A6  0279               	subwf	memmove@s+1,w
  3817     06A7  1D03               	skipz
  3818     06A8  2EAB               	goto	u325
  3819     06A9  087A               	movf	memmove@d,w
  3820     06AA  0278               	subwf	memmove@s,w
  3821     06AB                     u325:
  3822     06AB  1803               	skipnc
  3823     06AC  2EAE               	goto	u321
  3824     06AD  2EAF               	goto	u320
  3825     06AE                     u321:
  3826     06AE  2EE3               	goto	l1263
  3827     06AF                     u320:
  3828     06AF                     l1249:
  3829     06AF  0872               	movf	memmove@n,w
  3830     06B0  0778               	addwf	memmove@s,w
  3831     06B1  00F4               	movwf	??_memmove
  3832     06B2  0873               	movf	memmove@n+1,w
  3833     06B3  3D79               	addwfc	memmove@s+1,w
  3834     06B4  00F5               	movwf	??_memmove+1
  3835     06B5  0875               	movf	??_memmove+1,w
  3836     06B6  027B               	subwf	memmove@d+1,w
  3837     06B7  1D03               	skipz
  3838     06B8  2EBB               	goto	u335
  3839     06B9  0874               	movf	??_memmove,w
  3840     06BA  027A               	subwf	memmove@d,w
  3841     06BB                     u335:
  3842     06BB  1803               	skipnc
  3843     06BC  2EBE               	goto	u331
  3844     06BD  2EBF               	goto	u330
  3845     06BE                     u331:
  3846     06BE  2EE3               	goto	l1263
  3847     06BF                     u330:
  3848     06BF                     l1251:
  3849     06BF  0872               	movf	memmove@n,w
  3850     06C0  07F8               	addwf	memmove@s,f
  3851     06C1  0873               	movf	memmove@n+1,w
  3852     06C2  3DF9               	addwfc	memmove@s+1,f
  3853     06C3                     l1253:
  3854     06C3  0872               	movf	memmove@n,w
  3855     06C4  00F4               	movwf	??_memmove
  3856     06C5  0874               	movf	??_memmove,w
  3857     06C6  07FA               	addwf	memmove@d,f
  3858     06C7                     l1255:
  3859     06C7  3001               	movlw	1
  3860     06C8  02F8               	subwf	memmove@s,f
  3861     06C9  3000               	movlw	0
  3862     06CA  3BF9               	subwfb	memmove@s+1,f
  3863     06CB  0878               	movf	memmove@s,w
  3864     06CC  0084               	movwf	4
  3865     06CD  0879               	movf	memmove@s+1,w
  3866     06CE  0085               	movwf	5
  3867     06CF  0800               	movf	0,w	;code access
  3868     06D0  00F7               	movwf	memmove@c
  3869     06D1                     l1257:
  3870     06D1  3001               	movlw	1
  3871     06D2  02FA               	subwf	memmove@d,f
  3872     06D3                     l1259:
  3873     06D3  087A               	movf	memmove@d,w
  3874     06D4  0086               	movwf	6
  3875     06D5  0187               	clrf	7
  3876     06D6  0877               	movf	memmove@c,w
  3877     06D7  0081               	movwf	1
  3878     06D8                     l1261:
  3879     06D8  3001               	movlw	1
  3880     06D9  02F2               	subwf	memmove@n,f
  3881     06DA  3000               	movlw	0
  3882     06DB  3BF3               	subwfb	memmove@n+1,f
  3883     06DC  0872               	movf	memmove@n,w
  3884     06DD  0473               	iorwf	memmove@n+1,w
  3885     06DE  1D03               	btfss	3,2
  3886     06DF  2EE1               	goto	u341
  3887     06E0  2EE2               	goto	u340
  3888     06E1                     u341:
  3889     06E1  2EC7               	goto	l1255
  3890     06E2                     u340:
  3891     06E2  2F06               	goto	l735
  3892     06E3                     l1263:
  3893     06E3  0872               	movf	memmove@n,w
  3894     06E4  0473               	iorwf	memmove@n+1,w
  3895     06E5  1903               	btfsc	3,2
  3896     06E6  2EE8               	goto	u351
  3897     06E7  2EE9               	goto	u350
  3898     06E8                     u351:
  3899     06E8  2F06               	goto	l735
  3900     06E9                     u350:
  3901     06E9                     l1265:
  3902     06E9  0878               	movf	memmove@s,w
  3903     06EA  0084               	movwf	4
  3904     06EB  0879               	movf	memmove@s+1,w
  3905     06EC  0085               	movwf	5
  3906     06ED  0800               	movf	0,w	;code access
  3907     06EE  00F7               	movwf	memmove@c
  3908     06EF                     l1267:
  3909     06EF  3001               	movlw	1
  3910     06F0  07F8               	addwf	memmove@s,f
  3911     06F1  3000               	movlw	0
  3912     06F2  3DF9               	addwfc	memmove@s+1,f
  3913     06F3                     l1269:
  3914     06F3  087A               	movf	memmove@d,w
  3915     06F4  0086               	movwf	6
  3916     06F5  0187               	clrf	7
  3917     06F6  0877               	movf	memmove@c,w
  3918     06F7  0081               	movwf	1
  3919     06F8                     l1271:
  3920     06F8  3001               	movlw	1
  3921     06F9  00F4               	movwf	??_memmove
  3922     06FA  0874               	movf	??_memmove,w
  3923     06FB  07FA               	addwf	memmove@d,f
  3924     06FC                     l1273:
  3925     06FC  3001               	movlw	1
  3926     06FD  02F2               	subwf	memmove@n,f
  3927     06FE  3000               	movlw	0
  3928     06FF  3BF3               	subwfb	memmove@n+1,f
  3929     0700  0872               	movf	memmove@n,w
  3930     0701  0473               	iorwf	memmove@n+1,w
  3931     0702  1D03               	btfss	3,2
  3932     0703  2F05               	goto	u361
  3933     0704  2F06               	goto	u360
  3934     0705                     u361:
  3935     0705  2EE9               	goto	l1265
  3936     0706                     u360:
  3937     0706                     l735:
  3938     0706  0008               	return
  3939     0707                     __end_of_memmove:
  3940                           
  3941                           	psect	text10
  3942     053A                     __ptext10:	
  3943 ;; *************** function _Send_I2C_StopBit *****************
  3944 ;; Defined at:
  3945 ;;		line 106 in file "I2C.c"
  3946 ;; Parameters:    Size  Location     Type
  3947 ;;		None
  3948 ;; Auto vars:     Size  Location     Type
  3949 ;;		None
  3950 ;; Return value:  Size  Location     Type
  3951 ;;                  1    wreg      void 
  3952 ;; Registers used:
  3953 ;;		None
  3954 ;; Tracked objects:
  3955 ;;		On entry : 0/0
  3956 ;;		On exit  : 0/0
  3957 ;;		Unchanged: 0/0
  3958 ;; Data sizes:     COMMON   BANK0   BANK1   BANK2   BANK3   BANK4   BANK5   BANK6   BANK7   BANK8   BANK9  BANK10  BANK1
      +1  BANK12  BANK13  BANK14  BANK15  BANK16  BANK17  BANK18  BANK19  BANK20  BANK21  BANK22  BANK23  BANK24  BANK25
  3959 ;;      Params:         0       0       0       0       0       0       0       0       0       0       0       0       
      +0       0       0       0       0       0       0       0       0       0       0       0       0       0       0
  3960 ;;      Locals:         0       0       0       0       0       0       0       0       0       0       0       0       
      +0       0       0       0       0       0       0       0       0       0       0       0       0       0       0
  3961 ;;      Temps:          0       0       0       0       0       0       0       0       0       0       0       0       
      +0       0       0       0       0       0       0       0       0       0       0       0       0       0       0
  3962 ;;      Totals:         0       0       0       0       0       0       0       0       0       0       0       0       
      +0       0       0       0       0       0       0       0       0       0       0       0       0       0       0
  3963 ;;Total ram usage:        0 bytes
  3964 ;; Hardware stack levels used: 1
  3965 ;; This function calls:
  3966 ;;		Nothing
  3967 ;; This function is called by:
  3968 ;;		_OLED_Command
  3969 ;;		_OLED_PutChar
  3970 ;;		_OLED_Data
  3971 ;; This function uses a non-reentrant model
  3972 ;;
  3973                           
  3974     053A                     _Send_I2C_StopBit:	
  3975                           ;psect for function _Send_I2C_StopBit
  3976                           
  3977     053A                     l1229:	
  3978                           ;incstack = 0
  3979                           ; Regs used in _Send_I2C_StopBit: []
  3980                           
  3981                           
  3982                           ;I2C.c: 108:     PIR1bits.SSP1IF=0;
  3983     053A  0020               	movlb	0	; select bank0
  3984     053B  1191               	bcf	17,3	;volatile
  3985                           
  3986                           ;I2C.c: 109:     SSPCON2bits.PEN=1;
  3987     053C  0024               	movlb	4	; select bank4
  3988     053D  1516               	bsf	22,2	;volatile
  3989     053E                     l42:	
  3990                           ;I2C.c: 110:     while(!PIR1bits.SSP1IF);
  3991                           
  3992     053E  0020               	movlb	0	; select bank0
  3993     053F  1D91               	btfss	17,3	;volatile
  3994     0540  2D42               	goto	u311
  3995     0541  2D43               	goto	u310
  3996     0542                     u311:
  3997     0542  2D3E               	goto	l42
  3998     0543                     u310:
  3999     0543                     l45:
  4000     0543  0008               	return
  4001     0544                     __end_of_Send_I2C_StopBit:
  4002                           
  4003                           	psect	text11
  4004     0530                     __ptext11:	
  4005 ;; *************** function _Send_I2C_StartBit *****************
  4006 ;; Defined at:
  4007 ;;		line 96 in file "I2C.c"
  4008 ;; Parameters:    Size  Location     Type
  4009 ;;		None
  4010 ;; Auto vars:     Size  Location     Type
  4011 ;;		None
  4012 ;; Return value:  Size  Location     Type
  4013 ;;                  1    wreg      void 
  4014 ;; Registers used:
  4015 ;;		None
  4016 ;; Tracked objects:
  4017 ;;		On entry : 0/0
  4018 ;;		On exit  : 0/0
  4019 ;;		Unchanged: 0/0
  4020 ;; Data sizes:     COMMON   BANK0   BANK1   BANK2   BANK3   BANK4   BANK5   BANK6   BANK7   BANK8   BANK9  BANK10  BANK1
      +1  BANK12  BANK13  BANK14  BANK15  BANK16  BANK17  BANK18  BANK19  BANK20  BANK21  BANK22  BANK23  BANK24  BANK25
  4021 ;;      Params:         0       0       0       0       0       0       0       0       0       0       0       0       
      +0       0       0       0       0       0       0       0       0       0       0       0       0       0       0
  4022 ;;      Locals:         0       0       0       0       0       0       0       0       0       0       0       0       
      +0       0       0       0       0       0       0       0       0       0       0       0       0       0       0
  4023 ;;      Temps:          0       0       0       0       0       0       0       0       0       0       0       0       
      +0       0       0       0       0       0       0       0       0       0       0       0       0       0       0
  4024 ;;      Totals:         0       0       0       0       0       0       0       0       0       0       0       0       
      +0       0       0       0       0       0       0       0       0       0       0       0       0       0       0
  4025 ;;Total ram usage:        0 bytes
  4026 ;; Hardware stack levels used: 1
  4027 ;; This function calls:
  4028 ;;		Nothing
  4029 ;; This function is called by:
  4030 ;;		_OLED_Command
  4031 ;;		_OLED_PutChar
  4032 ;;		_OLED_Data
  4033 ;; This function uses a non-reentrant model
  4034 ;;
  4035                           
  4036     0530                     _Send_I2C_StartBit:	
  4037                           ;psect for function _Send_I2C_StartBit
  4038                           
  4039     0530                     l1227:	
  4040                           ;incstack = 0
  4041                           ; Regs used in _Send_I2C_StartBit: []
  4042                           
  4043                           
  4044                           ;I2C.c: 98:     PIR1bits.SSP1IF=0;
  4045     0530  0020               	movlb	0	; select bank0
  4046     0531  1191               	bcf	17,3	;volatile
  4047                           
  4048                           ;I2C.c: 99:     SSPCON2bits.SEN=1;
  4049     0532  0024               	movlb	4	; select bank4
  4050     0533  1416               	bsf	22,0	;volatile
  4051     0534                     l36:	
  4052                           ;I2C.c: 100:     while(!PIR1bits.SSP1IF);
  4053                           
  4054     0534  0020               	movlb	0	; select bank0
  4055     0535  1D91               	btfss	17,3	;volatile
  4056     0536  2D38               	goto	u301
  4057     0537  2D39               	goto	u300
  4058     0538                     u301:
  4059     0538  2D34               	goto	l36
  4060     0539                     u300:
  4061     0539                     l39:
  4062     0539  0008               	return
  4063     053A                     __end_of_Send_I2C_StartBit:
  4064                           
  4065                           	psect	text12
  4066     0544                     __ptext12:	
  4067 ;; *************** function _Send_I2C_Data *****************
  4068 ;; Defined at:
  4069 ;;		line 48 in file "I2C.c"
  4070 ;; Parameters:    Size  Location     Type
  4071 ;;  databyte        2    0[COMMON] unsigned int 
  4072 ;; Auto vars:     Size  Location     Type
  4073 ;;		None
  4074 ;; Return value:  Size  Location     Type
  4075 ;;                  1    wreg      void 
  4076 ;; Registers used:
  4077 ;;		wreg
  4078 ;; Tracked objects:
  4079 ;;		On entry : 0/0
  4080 ;;		On exit  : 0/0
  4081 ;;		Unchanged: 0/0
  4082 ;; Data sizes:     COMMON   BANK0   BANK1   BANK2   BANK3   BANK4   BANK5   BANK6   BANK7   BANK8   BANK9  BANK10  BANK1
      +1  BANK12  BANK13  BANK14  BANK15  BANK16  BANK17  BANK18  BANK19  BANK20  BANK21  BANK22  BANK23  BANK24  BANK25
  4083 ;;      Params:         2       0       0       0       0       0       0       0       0       0       0       0       
      +0       0       0       0       0       0       0       0       0       0       0       0       0       0       0
  4084 ;;      Locals:         0       0       0       0       0       0       0       0       0       0       0       0       
      +0       0       0       0       0       0       0       0       0       0       0       0       0       0       0
  4085 ;;      Temps:          0       0       0       0       0       0       0       0       0       0       0       0       
      +0       0       0       0       0       0       0       0       0       0       0       0       0       0       0
  4086 ;;      Totals:         2       0       0       0       0       0       0       0       0       0       0       0       
      +0       0       0       0       0       0       0       0       0       0       0       0       0       0       0
  4087 ;;Total ram usage:        2 bytes
  4088 ;; Hardware stack levels used: 1
  4089 ;; This function calls:
  4090 ;;		Nothing
  4091 ;; This function is called by:
  4092 ;;		_OLED_Command
  4093 ;;		_OLED_PutChar
  4094 ;;		_OLED_Data
  4095 ;; This function uses a non-reentrant model
  4096 ;;
  4097                           
  4098     0544                     _Send_I2C_Data:	
  4099                           ;psect for function _Send_I2C_Data
  4100                           
  4101     0544                     l1223:	
  4102                           ;incstack = 0
  4103                           ; Regs used in _Send_I2C_Data: [wreg]
  4104                           
  4105                           
  4106                           ;I2C.c: 48: void Send_I2C_Data(unsigned int databyte);I2C.c: 49: {;I2C.c: 50:     PIR1bi
      +                          ts.SSP1IF=0;
  4107     0544  0020               	movlb	0	; select bank0
  4108     0545  1191               	bcf	17,3	;volatile
  4109     0546                     l1225:
  4110                           
  4111                           ;I2C.c: 51:     SSPBUF = databyte;
  4112     0546  0870               	movf	Send_I2C_Data@databyte,w
  4113     0547  0024               	movlb	4	; select bank4
  4114     0548  0091               	movwf	17	;volatile
  4115     0549                     l18:	
  4116                           ;I2C.c: 52:     while(!PIR1bits.SSP1IF);
  4117                           
  4118     0549  0020               	movlb	0	; select bank0
  4119     054A  1D91               	btfss	17,3	;volatile
  4120     054B  2D4D               	goto	u291
  4121     054C  2D4E               	goto	u290
  4122     054D                     u291:
  4123     054D  2D49               	goto	l18
  4124     054E                     u290:
  4125     054E                     l21:
  4126     054E  0008               	return
  4127     054F                     __end_of_Send_I2C_Data:
  4128                           
  4129                           	psect	text13
  4130     054F                     __ptext13:	
  4131 ;; *************** function _I2C_Init *****************
  4132 ;; Defined at:
  4133 ;;		line 19 in file "I2C.c"
  4134 ;; Parameters:    Size  Location     Type
  4135 ;;		None
  4136 ;; Auto vars:     Size  Location     Type
  4137 ;;		None
  4138 ;; Return value:  Size  Location     Type
  4139 ;;                  1    wreg      void 
  4140 ;; Registers used:
  4141 ;;		wreg, status,2, status,0
  4142 ;; Tracked objects:
  4143 ;;		On entry : 0/0
  4144 ;;		On exit  : 0/0
  4145 ;;		Unchanged: 0/0
  4146 ;; Data sizes:     COMMON   BANK0   BANK1   BANK2   BANK3   BANK4   BANK5   BANK6   BANK7   BANK8   BANK9  BANK10  BANK1
      +1  BANK12  BANK13  BANK14  BANK15  BANK16  BANK17  BANK18  BANK19  BANK20  BANK21  BANK22  BANK23  BANK24  BANK25
  4147 ;;      Params:         0       0       0       0       0       0       0       0       0       0       0       0       
      +0       0       0       0       0       0       0       0       0       0       0       0       0       0       0
  4148 ;;      Locals:         0       0       0       0       0       0       0       0       0       0       0       0       
      +0       0       0       0       0       0       0       0       0       0       0       0       0       0       0
  4149 ;;      Temps:          1       0       0       0       0       0       0       0       0       0       0       0       
      +0       0       0       0       0       0       0       0       0       0       0       0       0       0       0
  4150 ;;      Totals:         1       0       0       0       0       0       0       0       0       0       0       0       
      +0       0       0       0       0       0       0       0       0       0       0       0       0       0       0
  4151 ;;Total ram usage:        1 bytes
  4152 ;; Hardware stack levels used: 1
  4153 ;; This function calls:
  4154 ;;		Nothing
  4155 ;; This function is called by:
  4156 ;;		_main
  4157 ;; This function uses a non-reentrant model
  4158 ;;
  4159                           
  4160     054F                     _I2C_Init:	
  4161                           ;psect for function _I2C_Init
  4162                           
  4163     054F                     l987:	
  4164                           ;incstack = 0
  4165                           ; Regs used in _I2C_Init: [wreg+status,2+status,0]
  4166                           
  4167                           
  4168                           ;I2C.c: 25:     SSPCONbits.SSPM=0x08;
  4169     054F  0024               	movlb	4	; select bank4
  4170     0550  0815               	movf	21,w	;volatile
  4171     0551  39F0               	andlw	-16
  4172     0552  3808               	iorlw	8
  4173     0553  0095               	movwf	21	;volatile
  4174     0554                     l989:
  4175                           
  4176                           ;I2C.c: 26:     SSPCONbits.SSPEN=1;
  4177     0554  1695               	bsf	21,5	;volatile
  4178     0555                     l991:
  4179                           
  4180                           ;I2C.c: 38:     SSPADD = 39;
  4181     0555  3027               	movlw	39
  4182     0556  0092               	movwf	18	;volatile
  4183     0557                     l993:
  4184                           
  4185                           ;I2C.c: 42:     _delay((unsigned long)((10)*(16000000/4000.0)));
  4186     0557  3034               	movlw	52
  4187     0558  00F0               	movwf	??_I2C_Init
  4188     0559  30F2               	movlw	242
  4189     055A                     u767:
  4190     055A  0B89               	decfsz	9,f
  4191     055B  2D5A               	goto	u767
  4192     055C  0BF0               	decfsz	??_I2C_Init,f
  4193     055D  2D5A               	goto	u767
  4194     055E                     l15:
  4195     055E  0008               	return
  4196     055F                     __end_of_I2C_Init:
  4197     007E                     btemp	set	126	;btemp
  4198     007E                     wtemp0	set	126
  4199                           
  4200                           	psect	config
  4201                           
  4202                           ;Config register CONFIG1 @ 0x8007
  4203                           ;	Oscillator Selection Bits
  4204                           ;	FOSC = INTOSC, INTOSC oscillator: I/O function on CLKIN pin
  4205                           ;	Watchdog Timer Enable
  4206                           ;	WDTE = OFF, WDT disabled
  4207                           ;	Power-up Timer Enable
  4208                           ;	PWRTE = OFF, PWRT disabled
  4209                           ;	MCLR Pin Function Select
  4210                           ;	MCLRE = OFF, MCLR/VPP pin function is digital input if LVP bit is also 0.
  4211                           ;	Flash Program Memory Code Protection
  4212                           ;	CP = OFF, Program memory code protection is disabled
  4213                           ;	Brown-out Reset Enable
  4214                           ;	BOREN = OFF, Brown-out Reset disabled
  4215                           ;	Clock Out Enable
  4216                           ;	CLKOUTEN = OFF, CLKOUT function is disabled. I/O or oscillator function on the CLKOUT 
      +                          pin
  4217                           ;	Internal/External Switchover Mode
  4218                           ;	IESO = ON, Internal/External Switchover Mode is enabled
  4219                           ;	Fail-Safe Clock Monitor Enable
  4220                           ;	FCMEN = OFF, Fail-Safe Clock Monitor is disabled
  4221     8007                     	org	32775
  4222     8007  19A4               	dw	6564
  4223                           
  4224                           ;Config register CONFIG2 @ 0x8008
  4225                           ;	Flash Memory Self-Write Protection
  4226                           ;	WRT = OFF, Write protection off
  4227                           ;	Peripheral Pin Select one-way control
  4228                           ;	PPS1WAY = ON, The PPSLOCK bit cannot be cleared once it is set by software
  4229                           ;	Zero-cross detect disable
  4230                           ;	ZCDDIS = ON, ZCD disabled. ZCD can be enabled by setting the ZCDSEN bit of ZCDCON
  4231                           ;	Phase Lock Loop enable
  4232                           ;	PLLEN = OFF, 4x PLL is disabled
  4233                           ;	Stack Overflow/Underflow Reset Enable
  4234                           ;	STVREN = ON, Stack Overflow or Underflow will cause a Reset
  4235                           ;	Brown-out Reset Voltage Selection
  4236                           ;	BORV = LO, Brown-out Reset Voltage (Vbor), low trip point selected.
  4237                           ;	Low-Power Brown Out Reset
  4238                           ;	LPBOR = OFF, Low-Power BOR is disabled
  4239                           ;	In-Circuit Debugger Mode
  4240                           ;	DEBUG = 0x1, unprogrammed default
  4241                           ;	Low-Voltage Programming Enable
  4242                           ;	LVP = OFF, High-voltage on MCLR/VPP must be used for programming
  4243     8008                     	org	32776
  4244     8008  1EFF               	dw	7935

Data Sizes:
    Strings     44
    Constant    880
    Data        37
    BSS         22
    Persistent  32
    Stack       0

Auto Spaces:
    Space          Size  Autos    Used
    COMMON           14     14      14
    BANK0            80     24      46
    BANK1            80      0      37
    BANK2            80      0       0
    BANK3            80      0       0
    BANK4            80      0       0
    BANK5            80      0       0
    BANK6            80      0       0
    BANK7            80      0       0
    BANK8            80      0       0
    BANK9            80      0       0
    BANK10           80      0       0
    BANK11           80      0       0
    BANK12           80      0       0
    BANK13           80      0       0
    BANK14           80      0       0
    BANK15           80      0       0
    BANK16           80      0       0
    BANK17           80      0       0
    BANK18           80      0       0
    BANK19           80      0       0
    BANK20           80      0       0
    BANK21           80      0       0
    BANK22           80      0       0
    BANK23           80      0       0
    BANK24           80      0       0
    BANK25           32      0       0

Pointer List with Targets:

    d$cp	PTR const unsigned char  size(2) Largest target is 0

    d$p	PTR unsigned char  size(2) Largest target is 0

    memmove@d1	PTR void  size(1) Largest target is 9
		 -> OLED_PutChar@bytes(BANK0[9]), 

    memmove@s1	PTR const void  size(2) Largest target is 768
		 -> OledFont(CODE[768]), 

    OLED_PutChar@base	PTR const unsigned char  size(2) Largest target is 768
		 -> OledFont(CODE[768]), 

    OLED_Write_String@s	PTR unsigned char  size(2) Largest target is 13
		 -> STR_1(CODE[13]), STR_2(CODE[10]), STR_3(CODE[8]), STR_4(CODE[13]), 

    s$cp	PTR const unsigned char  size(2) Largest target is 0

    s$p	PTR unsigned char  size(2) Largest target is 0

    S655$cp	PTR const unsigned char  size(2) Largest target is 0

    S655$p	PTR unsigned char  size(2) Largest target is 0

    sp__ftoa	PTR unsigned char  size(1) Largest target is 20
		 -> ftoa@buf(BANK0[20]), 

    sp__memmove	PTR void  size(1) Largest target is 9
		 -> OLED_PutChar@bytes(BANK0[9]), 


Critical Paths under _main in COMMON

    _main->_OLED_Write_String
    _OLED_Init->_OLED_Command
    _OLED_YX->_OLED_Command
    _OLED_Command->_Send_I2C_Data
    _OLED_PutChar->_memmove

Critical Paths under _main in BANK0

    _main->_OLED_Clear
    _OLED_Write_String->_OLED_PutChar
    _OLED_Clear->_OLED_PutChar

Critical Paths under _main in BANK1

    None.

Critical Paths under _main in BANK2

    None.

Critical Paths under _main in BANK3

    None.

Critical Paths under _main in BANK4

    None.

Critical Paths under _main in BANK5

    None.

Critical Paths under _main in BANK6

    None.

Critical Paths under _main in BANK7

    None.

Critical Paths under _main in BANK8

    None.

Critical Paths under _main in BANK9

    None.

Critical Paths under _main in BANK10

    None.

Critical Paths under _main in BANK11

    None.

Critical Paths under _main in BANK12

    None.

Critical Paths under _main in BANK13

    None.

Critical Paths under _main in BANK14

    None.

Critical Paths under _main in BANK15

    None.

Critical Paths under _main in BANK16

    None.

Critical Paths under _main in BANK17

    None.

Critical Paths under _main in BANK18

    None.

Critical Paths under _main in BANK19

    None.

Critical Paths under _main in BANK20

    None.

Critical Paths under _main in BANK21

    None.

Critical Paths under _main in BANK22

    None.

Critical Paths under _main in BANK23

    None.

Critical Paths under _main in BANK24

    None.

Critical Paths under _main in BANK25

    None.

Call Graph Tables:

 ---------------------------------------------------------------------------------
 (Depth) Function   	        Calls       Base Space   Used Autos Params    Refs
 ---------------------------------------------------------------------------------
 (0) _main                                                 8     8      0    6587
                                             22 BANK0      2     2      0
                           _I2C_Init
                         _OLED_Clear
                          _OLED_Init
                  _OLED_Write_String
                            _OLED_YX
                           _initMain
 ---------------------------------------------------------------------------------
 (1) _initMain                                             0     0      0       0
                        _internal_16
 ---------------------------------------------------------------------------------
 (2) _internal_16                                          0     0      0       0
 ---------------------------------------------------------------------------------
 (1) _OLED_Write_String                                    3     1      2    1861
                                             12 COMMON     2     0      2
                                             18 BANK0      1     1      0
                       _OLED_PutChar
 ---------------------------------------------------------------------------------
 (1) _OLED_Init                                            0     0      0     728
                       _OLED_Command
 ---------------------------------------------------------------------------------
 (1) _OLED_Clear                                           4     4      0    2822
                                             18 BANK0      4     4      0
                       _OLED_PutChar
                            _OLED_YX
 ---------------------------------------------------------------------------------
 (1) _OLED_YX                                              5     4      1    1174
                                              5 COMMON     5     4      1
                       _OLED_Command
 ---------------------------------------------------------------------------------
 (2) _OLED_Command                                         3     3      0     728
                                              2 COMMON     3     3      0
                      _Send_I2C_Data
                  _Send_I2C_StartBit
                   _Send_I2C_StopBit
 ---------------------------------------------------------------------------------
 (2) _OLED_PutChar                                        18    18      0    1512
                                              0 BANK0     18    18      0
                      _Send_I2C_Data
                  _Send_I2C_StartBit
                   _Send_I2C_StopBit
                            _memmove
 ---------------------------------------------------------------------------------
 (3) _memmove                                             12     8      4     598
                                              0 COMMON    12     8      4
 ---------------------------------------------------------------------------------
 (3) _Send_I2C_StopBit                                     0     0      0       0
 ---------------------------------------------------------------------------------
 (3) _Send_I2C_StartBit                                    0     0      0       0
 ---------------------------------------------------------------------------------
 (3) _Send_I2C_Data                                        2     0      2     706
                                              0 COMMON     2     0      2
 ---------------------------------------------------------------------------------
 (1) _I2C_Init                                             1     1      0       0
                                              0 COMMON     1     1      0
 ---------------------------------------------------------------------------------
 Estimated maximum stack depth 3
 ---------------------------------------------------------------------------------

 Call Graph Graphs:

 _main (ROOT)
   _I2C_Init
   _OLED_Clear
     _OLED_PutChar
       _Send_I2C_Data
       _Send_I2C_StartBit
       _Send_I2C_StopBit
       _memmove
     _OLED_YX
       _OLED_Command
         _Send_I2C_Data
         _Send_I2C_StartBit
         _Send_I2C_StopBit
   _OLED_Init
     _OLED_Command
   _OLED_Write_String
     _OLED_PutChar
   _OLED_YX
   _initMain
     _internal_16

 Address spaces:
Name               Size   Autos  Total    Cost      Usage
BIGRAM             7F0      0       0       0        0.0%
NULL                 0      0       0       0        0.0%
CODE                 0      0       0       0        0.0%
BITCOMMON            E      0       0       1        0.0%
BITSFR0              0      0       0       1        0.0%
SFR0                 0      0       0       1        0.0%
COMMON               E      E       E       2      100.0%
BITSFR1              0      0       0       2        0.0%
SFR1                 0      0       0       2        0.0%
BITSFR2              0      0       0       3        0.0%
SFR2                 0      0       0       3        0.0%
STACK                0      0       0       3        0.0%
BITBANK0            50      0       0       4        0.0%
BITSFR3              0      0       0       4        0.0%
SFR3                 0      0       0       4        0.0%
BANK0               50     18      2E       5       57.5%
BITSFR4              0      0       0       5        0.0%
SFR4                 0      0       0       5        0.0%
BITBANK1            50      0       0       6        0.0%
BITSFR5              0      0       0       6        0.0%
SFR5                 0      0       0       6        0.0%
BANK1               50      0      25       7       46.2%
BITSFR6              0      0       0       7        0.0%
SFR6                 0      0       0       7        0.0%
BITBANK2            50      0       0       8        0.0%
BITSFR7              0      0       0       8        0.0%
SFR7                 0      0       0       8        0.0%
BANK2               50      0       0       9        0.0%
BITSFR8              0      0       0       9        0.0%
SFR8                 0      0       0       9        0.0%
BITBANK3            50      0       0      10        0.0%
BITSFR9              0      0       0      10        0.0%
SFR9                 0      0       0      10        0.0%
BANK3               50      0       0      11        0.0%
BITSFR10             0      0       0      11        0.0%
SFR10                0      0       0      11        0.0%
BITBANK4            50      0       0      12        0.0%
BITSFR11             0      0       0      12        0.0%
SFR11                0      0       0      12        0.0%
BANK4               50      0       0      13        0.0%
BITSFR12             0      0       0      13        0.0%
SFR12                0      0       0      13        0.0%
BITSFR13             0      0       0      14        0.0%
SFR13                0      0       0      14        0.0%
ABS                  0      0      61      14        0.0%
BITBANK5            50      0       0      15        0.0%
BITSFR14             0      0       0      15        0.0%
SFR14                0      0       0      15        0.0%
BANK5               50      0       0      16        0.0%
BITSFR15             0      0       0      16        0.0%
SFR15                0      0       0      16        0.0%
BITBANK6            50      0       0      17        0.0%
BITSFR16             0      0       0      17        0.0%
SFR16                0      0       0      17        0.0%
BANK6               50      0       0      18        0.0%
BITSFR17             0      0       0      18        0.0%
SFR17                0      0       0      18        0.0%
BITBANK7            50      0       0      19        0.0%
BITSFR18             0      0       0      19        0.0%
SFR18                0      0       0      19        0.0%
BANK7               50      0       0      20        0.0%
BITSFR19             0      0       0      20        0.0%
SFR19                0      0       0      20        0.0%
BITBANK8            50      0       0      21        0.0%
BITSFR20             0      0       0      21        0.0%
SFR20                0      0       0      21        0.0%
BANK8               50      0       0      22        0.0%
BITSFR21             0      0       0      22        0.0%
SFR21                0      0       0      22        0.0%
BITBANK9            50      0       0      23        0.0%
BITSFR22             0      0       0      23        0.0%
SFR22                0      0       0      23        0.0%
BANK9               50      0       0      24        0.0%
BITSFR23             0      0       0      24        0.0%
SFR23                0      0       0      24        0.0%
BITBANK10           50      0       0      25        0.0%
BITSFR24             0      0       0      25        0.0%
SFR24                0      0       0      25        0.0%
BANK10              50      0       0      26        0.0%
BITSFR25             0      0       0      26        0.0%
SFR25                0      0       0      26        0.0%
BITBANK11           50      0       0      27        0.0%
BITSFR26             0      0       0      27        0.0%
SFR26                0      0       0      27        0.0%
BITSFR27             0      0       0      28        0.0%
SFR27                0      0       0      28        0.0%
DATA                 0      0      61      28        0.0%
BANK11              50      0       0      29        0.0%
BITSFR28             0      0       0      29        0.0%
SFR28                0      0       0      29        0.0%
BITBANK12           50      0       0      30        0.0%
BITSFR29             0      0       0      30        0.0%
SFR29                0      0       0      30        0.0%
BANK12              50      0       0      31        0.0%
BITSFR30             0      0       0      31        0.0%
SFR30                0      0       0      31        0.0%
BITBANK13           50      0       0      32        0.0%
BITSFR31             0      0       0      32        0.0%
SFR31                0      0       0      32        0.0%
BANK13              50      0       0      33        0.0%
BITBANK14           50      0       0      34        0.0%
BANK14              50      0       0      35        0.0%
BITBANK15           50      0       0      36        0.0%
BANK15              50      0       0      37        0.0%
BITBANK16           50      0       0      38        0.0%
BANK16              50      0       0      39        0.0%
BITBANK17           50      0       0      40        0.0%
BANK17              50      0       0      41        0.0%
BITBANK18           50      0       0      42        0.0%
BANK18              50      0       0      43        0.0%
BITBANK19           50      0       0      44        0.0%
BANK19              50      0       0      45        0.0%
BITBANK20           50      0       0      46        0.0%
BANK20              50      0       0      47        0.0%
BITBANK21           50      0       0      48        0.0%
BANK21              50      0       0      49        0.0%
BITBANK22           50      0       0      50        0.0%
BANK22              50      0       0      51        0.0%
BITBANK23           50      0       0      52        0.0%
BANK23              50      0       0      53        0.0%
BITBANK24           50      0       0      54        0.0%
BANK24              50      0       0      55        0.0%
BITBANK25           20      0       0      56        0.0%
BANK25              20      0       0      57        0.0%


Microchip Technology PIC Macro Assembler V2.45 build 20230818022343 
Symbol Table                                                                                   Tue Mar 26 14:53:19 2024

                       l21 054E                         _L1 0B8C                         _L2 0B88  
                       l15 055E                         _L3 0B84                         _L4 0B80  
                       _L5 0B7C                         l18 0549                         l42 053E  
                       _L6 0B78                         l36 0534                         l45 0543  
                       _P1 0B74                         _P2 0B70                         l39 0539  
                       _P3 0B6C                         _P4 0B68                         _P5 0B64  
                       l77 052F                         _bp 0B38                         _cp 0B50  
       OLED_Write_String@s 007C                        l125 060B                        l154 069B  
                      l148 0594                        l172 0636                        l165 0772  
                      l157 05E2                        l178 0575                        l735 0706  
                      l951 0527                        l991 0555                        l993 0557  
                      l987 054F                        l995 05E3                        l989 0554  
                      l997 05E6                        l999 05E8                        u300 0539  
                      u301 0538                        u310 0543                        u311 0542  
                      u320 06AF                        u400 0715                        u321 06AE  
                      u401 0714                        u330 06BF                        u410 076F  
                      u331 06BE                        u411 076E                        u340 06E2  
                      u420 0629                        u341 06E1                        u325 06AB  
                      u421 0628                        u350 06E9                        u430 0636  
                      u351 06E8                        u335 06BB                        u415 076B  
                      u431 0635                        u360 0706                        u440 0575  
                      u361 0705                        u441 0574                        u290 054E  
                      u291 054D                        u390 070F                        u391 070E  
                      u375 05C3                        u385 05D7                        u727 077F  
                      u737 07C1                        u747 07D1                        u757 07DD  
                      u767 055A                        _lg2 0B60                        _ovt 0B54  
                      wreg 0009           OLED_Command@temp 0074                       l1001 05E9  
                     l1011 05F2                       l1003 05EB                       l1021 0608  
                     l1013 05F7                       l1005 05EC                       l1023 060A  
                     l1015 05FC                       l1007 05EF                       l1017 0600  
                     l1009 05F1                       l1019 0605                       l1301 074E  
                     l1223 0544                       l1303 075D                       l1231 0577  
                     l1311 060C                       l1225 0546                       l1241 069D  
                     l1305 0762                       l1233 057A                       l1401 0788  
                     l1227 0530                       l1251 06BF                       l1243 069F  
                     l1307 076F                       l1235 0581                       l1331 0629  
                     l1323 0611                       l1411 0797                       l1403 078B  
                     l1229 053A                       l1261 06D8                       l1253 06C3  
                     l1245 06A3                       l1237 0587                       l1325 0617  
                     l1317 060F                       l1309 0637                       l1333 055F  
                     l1421 07B4                       l1413 079C                       l1405 078B  
                     l1271 06F8                       l1255 06C7                       l1263 06E3  
                     l1247 06A5                       l1239 0591                       l1327 061B  
                     l1335 0560                       l1431 07E3                       l1423 07BB  
                     l1415 07A3                       l1407 078B                       l1273 06FC  
                     l1265 06E9                       l1257 06D1                       l1249 06AF  
                     l1281 0715                       l1329 0620                       l1337 0568  
                     l1425 07C8                       l1417 07A8                       l1409 0790  
                     l1267 06EF                       l1259 06D3                       l1291 073B  
                     l1283 0717                       l1275 05BB                       l1339 056C  
                     l1427 07CB                       l1419 07AF                       l1269 06F3  
                     l1293 0742                       l1285 072A                       l1277 0709  
                     l1429 07D7                       l1295 0749                       l1287 072C  
                     l1279 070F                       l1289 0738                       l1395 0773  
                     l1397 0779                       l1399 0785                       STR_1 0B04  
                     STR_2 0B1E                       STR_3 0B40                       STR_4 0B11  
          __end_of_OLED_YX 05E3                ?_OLED_Clear 0070                       _SCS0 04C8  
                     _SCS1 04C9                       _cp_h 0B00                       _cp_l 0B98  
                     _dp_h 0B30                       _dp_l 0B28                       _main 0773  
         __end_of_I2C_Init 055F                       fsr0h 0005                       fsr1h 0007  
                     indf0 0000                       fsr0l 0004                       indf1 0001  
                     fsr1l 0006                       btemp 007E                       start 0002  
                    ?_main 0070                      _IRCF0 04CB                      _IRCF1 04CC  
                    _IRCF2 04CD                      _IRCF3 04CE                      _lg2_h 0B5C  
                    _lg2_l 0B58                      _errno 0038                      _ivln2 0B4C  
          __end_of_ivln2_h 0B98            __end_of_ivln2_l 0B4C            __end_of_memmove 0707  
                    _two24 0B90                      status 0003                      wtemp0 007E  
             ?_internal_16 0070            __initialization 07E9               __end_of_cp_h 0B04  
             __end_of_cp_l 0B9C               __end_of_dp_h 0B38               __end_of_dp_l 0B30  
             __end_of_main 07E9           __end_of_OledFont 0B00                     ??_main 0036  
                ??_OLED_YX 0076          __end_of_OLED_Init 069C              ?_OLED_Command 0070  
                   _SPLLEN 04CF                     _SSPADD 0212                     _SSPBUF 0211  
            ?_OLED_PutChar 0070           __end_of_initMain 060C                  ?_I2C_Init 0070  
                ??_memmove 0074      Send_I2C_Data@databyte 0070             ??_OLED_Command 0072  
  __end_of__initialization 07FD             ??_OLED_PutChar 0020             __pcstackCOMMON 0070  
             __pidataBANK1 0595              __end_of_lg2_h 0B60              __end_of_lg2_l 0B5C  
            __end_of_ivln2 0B50              __end_of_two24 0B94                 __end_of_L1 0B90  
               __end_of_L2 0B8C                 __end_of_L3 0B88                 __end_of_L4 0B84  
               __end_of_L5 0B80                 __end_of_L6 0B7C                 __end_of_P1 0B78  
               __end_of_P2 0B74                 __end_of_P3 0B70                 __end_of_P4 0B6C  
               __end_of_P5 0B68                 __end_of_bp 0B40                 __end_of_cp 0B54  
               ??_I2C_Init 0070              _Send_I2C_Data 0544               ??_OLED_Clear 007C  
               __pbssBANK0 0038                 __pmaintext 0773         __end_of_OLED_Clear 0637  
                  _OLED_YX 05BA             ?_Send_I2C_Data 0070                    _PPSLOCK 0E0F  
                ?_initMain 0070       __end_of_OLED_Command 0595                    __ptext1 05E3  
                  __ptext2 0527                    __ptext3 055F                    __ptext4 0637  
                  __ptext5 060C                    __ptext6 05BA                    __ptext7 0576  
                  __ptext8 0707                    __ptext9 069C                    _ivln2_h 0B94  
                  _ivln2_l 0B48                    _memmove 069C       __end_of_OLED_PutChar 0773  
                  clrloop0 051C       end_of_initialization 07FD                    ftoa@buf 003A  
               ??_initMain 0070                    init_ram 0521                    itoa@num 00A0  
                  initloop 0522                  _OLED_Init 0637           OLED_PutChar@base 002D  
         _Send_I2C_StopBit 053A            ??_Send_I2C_Data 0072                  _TRISCbits 008E  
               ?_OLED_Init 0070        start_initialization 07E9                __end_of_lg2 0B64  
              __end_of_ovt 0B58          _OLED_Write_String 055F         ?_OLED_Write_String 007C  
               OLED_YX@Row 0079                __pdataBANK1 00A0        ??_OLED_Write_String 0032  
                ___latbits 0003                   ?_OLED_YX 0075              __pcstackBANK0 0020  
             _OLED_Command 0576  __end_of_OLED_Write_String 0576              ??_internal_16 0070  
              ??_OLED_Init 0075               _OLED_PutChar 0707                   _I2C_Init 054F  
                 ?_memmove 0070   __end_of_Send_I2C_StopBit 0544                  clear_ram0 051B  
                 _PIR1bits 0011        __end_of_internal_16 0530                   _OledFont 0800  
                memmove@d1 0076                  memmove@s1 0070                 _ANSELCbits 018E  
    __end_of_Send_I2C_Data 054F                   __ptext10 053A                   __ptext11 0530  
                 __ptext12 0544                   __ptext13 054F                   _initMain 05E3  
            _SSPDATPPSbits 0E21              OLED_Clear@col 0034                _internal_16 0527  
            OLED_Clear@row 0032              OLED_YX@Column 0075             OLED_PutChar@ch 0031  
               _RC4PPSbits 0EA4              _SSPCLKPPSbits 0E20                 _RC5PPSbits 0EA5  
           __pstringtext10 0B60             __pstringtext11 0B64             __pstringtext20 0B88  
           __pstringtext12 0B68             __pstringtext21 0B8C             __pstringtext13 0B6C  
           __pstringtext30 0000             __pstringtext22 0B90             __pstringtext14 0B70  
           __pstringtext23 0800             __pstringtext15 0B74             __pstringtext24 0B94  
           __pstringtext16 0B78             __pstringtext25 0B98             __pstringtext17 0B7C  
           __pstringtext26 0B00             __pstringtext18 0B80             __pstringtext27 0B11  
           __pstringtext19 0B84             __pstringtext28 0B1E             __pstringtext29 0B40  
                 memmove@c 0077                   memmove@d 007A                   memmove@n 0072  
                 memmove@s 0078                 _OLED_Clear 060C                _PPSLOCKbits 0E0F  
        _Send_I2C_StartBit 0530          OLED_PutChar@bytes 0024              OLED_PutChar@i 002F  
       ?_Send_I2C_StartBit 0070              __pstringtext1 0B28              __pstringtext2 0B30  
            __pstringtext3 0B38              __pstringtext4 0B48              __pstringtext5 0B4C  
            __pstringtext6 0B50              __pstringtext7 0B54              __pstringtext8 0B58  
            __pstringtext9 0B5C        ??_Send_I2C_StartBit 0070                _SSPCON2bits 0216  
        ?_Send_I2C_StopBit 0070         ??_Send_I2C_StopBit 0070  __end_of_Send_I2C_StartBit 053A  
               _SSPCONbits 0215  
