

Microchip MPLAB XC8 Assembler V2.46 build 20240104201356 
                                                                                               Thu Jan 29 19:34:58 2026

Microchip MPLAB XC8 C Compiler v2.46 (Free license) build 20240104201356 Og1 
     1                           	processor	16F1718
     2                           	pagewidth 120
     3                           	opt	flic
     4                           	psect	stringtext1,global,class=STRCODE,delta=2,noexec
     5                           	psect	stringtext2,global,class=STRCODE,delta=2,noexec
     6                           	psect	stringtext3,global,class=STRCODE,delta=2,noexec
     7                           	psect	stringtext4,global,class=STRCODE,delta=2,noexec
     8                           	psect	stringtext5,global,class=STRCODE,delta=2,noexec
     9                           	psect	stringtext6,global,class=STRCODE,delta=2,noexec
    10                           	psect	cinit,global,class=CODE,merge=1,delta=2
    11                           	psect	clrtext,global,class=CODE,delta=2
    12                           	psect	cstackCOMMON,global,class=COMMON,space=1,delta=1,noexec
    13                           	psect	cstackBANK0,global,class=BANK0,space=1,delta=1,noexec
    14                           	psect	maintext,global,class=CODE,merge=1,split=1,delta=2
    15                           	psect	text1,local,class=CODE,merge=1,delta=2
    16                           	psect	text2,local,class=CODE,merge=1,delta=2
    17                           	psect	text3,local,class=CODE,merge=1,delta=2
    18                           	psect	text4,local,class=CODE,merge=1,inline,delta=2
    19                           	psect	text5,local,class=CODE,merge=1,inline,delta=2
    20                           	psect	text6,local,class=CODE,merge=1,delta=2
    21                           	psect	text7,local,class=CODE,merge=1,delta=2
    22                           	psect	text8,local,class=CODE,merge=1,delta=2
    23                           	psect	text9,local,class=CODE,merge=1,delta=2
    24                           	psect	text10,local,class=CODE,merge=1,delta=2
    25                           	psect	text11,local,class=CODE,merge=1,delta=2
    26                           	psect	text12,local,class=CODE,merge=1,delta=2
    27                           	psect	text13,local,class=CODE,merge=1,delta=2
    28                           	psect	text14,local,class=CODE,merge=1,delta=2,group=1
    29                           	psect	config,global,abs,ovrld,class=CONFIG,space=4,delta=2,noexec
    30                           	dabs	1,0xCA0,32
    31                           	dabs	1,0xC20,80
    32                           	dabs	1,0xBE0,16
    33                           	dabs	1,0x2770,0,_line
    34                           	dabs	1,0x7E,2
    35     0000                     
    36                           ; Generated 07/09/2023 GMT
    37                           ; 
    38                           ; Copyright © 2023, Microchip Technology Inc. and its subsidiaries ("Microchip")
    39                           ; All rights reserved.
    40                           ; 
    41                           ; This software is developed by Microchip Technology Inc. and its subsidiaries ("Microch
      +                          ip").
    42                           ; 
    43                           ; Redistribution and use in source and binary forms, with or without modification, are
    44                           ; permitted provided that the following conditions are met:
    45                           ; 
    46                           ;     1. Redistributions of source code must retain the above copyright notice, this lis
      +                          t of
    47                           ;        conditions and the following disclaimer.
    48                           ; 
    49                           ;     2. Redistributions in binary form must reproduce the above copyright notice, this 
      +                          list
    50                           ;        of conditions and the following disclaimer in the documentation and/or other
    51                           ;        materials provided with the distribution. Publication is not required when
    52                           ;        this file is used in an embedded application.
    53                           ; 
    54                           ;     3. Microchip's name may not be used to endorse or promote products derived from th
      +                          is
    55                           ;        software without specific prior written permission.
    56                           ; 
    57                           ; THIS SOFTWARE IS PROVIDED BY MICROCHIP "AS IS" AND ANY EXPRESS OR IMPLIED WARRANTIES,
    58                           ; INCLUDING, BUT NOT LIMITED TO, THE IMPLIED WARRANTIES OF MERCHANTABILITY AND FITNESS F
      +                          OR
    59                           ; PURPOSE ARE DISCLAIMED.  IN NO EVENT SHALL MICROCHIP BE LIABLE FOR ANY DIRECT, INDIREC
      +                          T,
    60                           ; INCIDENTAL, SPECIAL, EXEMPLARY, OR CONSEQUENTIAL DAMAGES (INCLUDING BUT NOT LIMITED TO
    61                           ; PROCUREMENT OF SUBSTITUTE GOODS OR SERVICES; LOSS OF USE, DATA OR PROFITS; OR BUSINESS
    62                           ; INTERRUPTION) HOWSOEVER CAUSED AND ON ANY THEORY OF LIABILITY, WHETHER IN CONTRACT, ST
      +                          RICT
    63                           ; LIABILITY, OR TORT (INCLUDING NEGLIGENCE OR OTHERWISE) ARISING IN ANY WAY OUT OF THE U
      +                          SE OF
    64                           ; THIS SOFTWARE, EVEN IF ADVISED OF THE POSSIBILITY OF SUCH DAMAGE.
    65                           ; 
    66                           ; 
    67                           ; Code-generator required, PIC16F1718 Definitions
    68                           ; 
    69                           ; SFR Addresses
    70     0000                     	;# 
    71     0001                     	;# 
    72     0002                     	;# 
    73     0003                     	;# 
    74     0004                     	;# 
    75     0005                     	;# 
    76     0006                     	;# 
    77     0007                     	;# 
    78     0008                     	;# 
    79     0009                     	;# 
    80     000A                     	;# 
    81     000B                     	;# 
    82     000C                     	;# 
    83     000D                     	;# 
    84     000E                     	;# 
    85     0010                     	;# 
    86     0011                     	;# 
    87     0012                     	;# 
    88     0013                     	;# 
    89     0015                     	;# 
    90     0016                     	;# 
    91     0016                     	;# 
    92     0017                     	;# 
    93     0018                     	;# 
    94     0019                     	;# 
    95     001A                     	;# 
    96     001B                     	;# 
    97     001C                     	;# 
    98     008C                     	;# 
    99     008D                     	;# 
   100     008E                     	;# 
   101     0090                     	;# 
   102     0091                     	;# 
   103     0092                     	;# 
   104     0093                     	;# 
   105     0095                     	;# 
   106     0096                     	;# 
   107     0097                     	;# 
   108     0098                     	;# 
   109     0099                     	;# 
   110     009A                     	;# 
   111     009B                     	;# 
   112     009B                     	;# 
   113     009C                     	;# 
   114     009D                     	;# 
   115     009E                     	;# 
   116     009F                     	;# 
   117     010C                     	;# 
   118     010D                     	;# 
   119     010E                     	;# 
   120     0111                     	;# 
   121     0112                     	;# 
   122     0113                     	;# 
   123     0114                     	;# 
   124     0115                     	;# 
   125     0116                     	;# 
   126     0117                     	;# 
   127     0118                     	;# 
   128     0119                     	;# 
   129     011A                     	;# 
   130     011B                     	;# 
   131     011B                     	;# 
   132     011C                     	;# 
   133     018C                     	;# 
   134     018D                     	;# 
   135     018E                     	;# 
   136     0191                     	;# 
   137     0191                     	;# 
   138     0192                     	;# 
   139     0193                     	;# 
   140     0193                     	;# 
   141     0194                     	;# 
   142     0195                     	;# 
   143     0196                     	;# 
   144     0197                     	;# 
   145     0199                     	;# 
   146     0199                     	;# 
   147     0199                     	;# 
   148     019A                     	;# 
   149     019A                     	;# 
   150     019A                     	;# 
   151     019B                     	;# 
   152     019B                     	;# 
   153     019B                     	;# 
   154     019B                     	;# 
   155     019B                     	;# 
   156     019C                     	;# 
   157     019C                     	;# 
   158     019C                     	;# 
   159     019D                     	;# 
   160     019D                     	;# 
   161     019D                     	;# 
   162     019E                     	;# 
   163     019E                     	;# 
   164     019E                     	;# 
   165     019F                     	;# 
   166     019F                     	;# 
   167     019F                     	;# 
   168     019F                     	;# 
   169     019F                     	;# 
   170     020C                     	;# 
   171     020D                     	;# 
   172     020E                     	;# 
   173     0210                     	;# 
   174     0211                     	;# 
   175     0211                     	;# 
   176     0212                     	;# 
   177     0212                     	;# 
   178     0213                     	;# 
   179     0213                     	;# 
   180     0214                     	;# 
   181     0214                     	;# 
   182     0215                     	;# 
   183     0215                     	;# 
   184     0215                     	;# 
   185     0215                     	;# 
   186     0216                     	;# 
   187     0216                     	;# 
   188     0217                     	;# 
   189     0217                     	;# 
   190     028C                     	;# 
   191     028D                     	;# 
   192     028E                     	;# 
   193     0291                     	;# 
   194     0291                     	;# 
   195     0292                     	;# 
   196     0293                     	;# 
   197     0293                     	;# 
   198     0298                     	;# 
   199     0298                     	;# 
   200     0299                     	;# 
   201     029A                     	;# 
   202     029A                     	;# 
   203     029E                     	;# 
   204     030C                     	;# 
   205     030D                     	;# 
   206     030E                     	;# 
   207     038C                     	;# 
   208     038D                     	;# 
   209     038E                     	;# 
   210     0390                     	;# 
   211     0391                     	;# 
   212     0392                     	;# 
   213     0393                     	;# 
   214     0394                     	;# 
   215     0395                     	;# 
   216     0396                     	;# 
   217     0397                     	;# 
   218     0398                     	;# 
   219     0399                     	;# 
   220     039D                     	;# 
   221     039E                     	;# 
   222     039F                     	;# 
   223     0415                     	;# 
   224     0416                     	;# 
   225     0417                     	;# 
   226     041C                     	;# 
   227     041D                     	;# 
   228     041E                     	;# 
   229     0498                     	;# 
   230     0498                     	;# 
   231     0499                     	;# 
   232     049A                     	;# 
   233     049B                     	;# 
   234     049B                     	;# 
   235     049C                     	;# 
   236     049D                     	;# 
   237     049E                     	;# 
   238     049F                     	;# 
   239     0511                     	;# 
   240     0515                     	;# 
   241     0617                     	;# 
   242     0618                     	;# 
   243     0619                     	;# 
   244     0619                     	;# 
   245     061A                     	;# 
   246     061B                     	;# 
   247     061C                     	;# 
   248     061C                     	;# 
   249     0691                     	;# 
   250     0692                     	;# 
   251     0693                     	;# 
   252     0694                     	;# 
   253     0695                     	;# 
   254     0696                     	;# 
   255     0697                     	;# 
   256     0698                     	;# 
   257     0699                     	;# 
   258     069A                     	;# 
   259     069B                     	;# 
   260     069C                     	;# 
   261     069D                     	;# 
   262     069E                     	;# 
   263     069F                     	;# 
   264     0E0F                     	;# 
   265     0E10                     	;# 
   266     0E11                     	;# 
   267     0E12                     	;# 
   268     0E13                     	;# 
   269     0E14                     	;# 
   270     0E15                     	;# 
   271     0E17                     	;# 
   272     0E20                     	;# 
   273     0E21                     	;# 
   274     0E22                     	;# 
   275     0E24                     	;# 
   276     0E25                     	;# 
   277     0E28                     	;# 
   278     0E29                     	;# 
   279     0E2A                     	;# 
   280     0E2B                     	;# 
   281     0E90                     	;# 
   282     0E91                     	;# 
   283     0E92                     	;# 
   284     0E93                     	;# 
   285     0E94                     	;# 
   286     0E95                     	;# 
   287     0E96                     	;# 
   288     0E97                     	;# 
   289     0E98                     	;# 
   290     0E99                     	;# 
   291     0E9A                     	;# 
   292     0E9B                     	;# 
   293     0E9C                     	;# 
   294     0E9D                     	;# 
   295     0E9E                     	;# 
   296     0E9F                     	;# 
   297     0EA0                     	;# 
   298     0EA1                     	;# 
   299     0EA2                     	;# 
   300     0EA3                     	;# 
   301     0EA4                     	;# 
   302     0EA5                     	;# 
   303     0EA6                     	;# 
   304     0EA7                     	;# 
   305     0F0F                     	;# 
   306     0F10                     	;# 
   307     0F11                     	;# 
   308     0F12                     	;# 
   309     0F13                     	;# 
   310     0F14                     	;# 
   311     0F15                     	;# 
   312     0F16                     	;# 
   313     0F17                     	;# 
   314     0F18                     	;# 
   315     0F19                     	;# 
   316     0F1A                     	;# 
   317     0F1B                     	;# 
   318     0F1C                     	;# 
   319     0F1D                     	;# 
   320     0F1E                     	;# 
   321     0F1F                     	;# 
   322     0F20                     	;# 
   323     0F21                     	;# 
   324     0F22                     	;# 
   325     0F23                     	;# 
   326     0F24                     	;# 
   327     0F25                     	;# 
   328     0F26                     	;# 
   329     0F27                     	;# 
   330     0F28                     	;# 
   331     0F29                     	;# 
   332     0F2A                     	;# 
   333     0F2B                     	;# 
   334     0F2C                     	;# 
   335     0F2D                     	;# 
   336     0F2E                     	;# 
   337     0F2F                     	;# 
   338     0F30                     	;# 
   339     0F31                     	;# 
   340     0F32                     	;# 
   341     0F33                     	;# 
   342     0F34                     	;# 
   343     0F35                     	;# 
   344     0F36                     	;# 
   345     0F37                     	;# 
   346     0FE4                     	;# 
   347     0FE5                     	;# 
   348     0FE6                     	;# 
   349     0FE7                     	;# 
   350     0FE8                     	;# 
   351     0FE9                     	;# 
   352     0FEA                     	;# 
   353     0FEB                     	;# 
   354     0FED                     	;# 
   355     0FEE                     	;# 
   356     0FEF                     	;# 
   357     0000                     	;# 
   358     0001                     	;# 
   359     0002                     	;# 
   360     0003                     	;# 
   361     0004                     	;# 
   362     0005                     	;# 
   363     0006                     	;# 
   364     0007                     	;# 
   365     0008                     	;# 
   366     0009                     	;# 
   367     000A                     	;# 
   368     000B                     	;# 
   369     000C                     	;# 
   370     000D                     	;# 
   371     000E                     	;# 
   372     0010                     	;# 
   373     0011                     	;# 
   374     0012                     	;# 
   375     0013                     	;# 
   376     0015                     	;# 
   377     0016                     	;# 
   378     0016                     	;# 
   379     0017                     	;# 
   380     0018                     	;# 
   381     0019                     	;# 
   382     001A                     	;# 
   383     001B                     	;# 
   384     001C                     	;# 
   385     008C                     	;# 
   386     008D                     	;# 
   387     008E                     	;# 
   388     0090                     	;# 
   389     0091                     	;# 
   390     0092                     	;# 
   391     0093                     	;# 
   392     0095                     	;# 
   393     0096                     	;# 
   394     0097                     	;# 
   395     0098                     	;# 
   396     0099                     	;# 
   397     009A                     	;# 
   398     009B                     	;# 
   399     009B                     	;# 
   400     009C                     	;# 
   401     009D                     	;# 
   402     009E                     	;# 
   403     009F                     	;# 
   404     010C                     	;# 
   405     010D                     	;# 
   406     010E                     	;# 
   407     0111                     	;# 
   408     0112                     	;# 
   409     0113                     	;# 
   410     0114                     	;# 
   411     0115                     	;# 
   412     0116                     	;# 
   413     0117                     	;# 
   414     0118                     	;# 
   415     0119                     	;# 
   416     011A                     	;# 
   417     011B                     	;# 
   418     011B                     	;# 
   419     011C                     	;# 
   420     018C                     	;# 
   421     018D                     	;# 
   422     018E                     	;# 
   423     0191                     	;# 
   424     0191                     	;# 
   425     0192                     	;# 
   426     0193                     	;# 
   427     0193                     	;# 
   428     0194                     	;# 
   429     0195                     	;# 
   430     0196                     	;# 
   431     0197                     	;# 
   432     0199                     	;# 
   433     0199                     	;# 
   434     0199                     	;# 
   435     019A                     	;# 
   436     019A                     	;# 
   437     019A                     	;# 
   438     019B                     	;# 
   439     019B                     	;# 
   440     019B                     	;# 
   441     019B                     	;# 
   442     019B                     	;# 
   443     019C                     	;# 
   444     019C                     	;# 
   445     019C                     	;# 
   446     019D                     	;# 
   447     019D                     	;# 
   448     019D                     	;# 
   449     019E                     	;# 
   450     019E                     	;# 
   451     019E                     	;# 
   452     019F                     	;# 
   453     019F                     	;# 
   454     019F                     	;# 
   455     019F                     	;# 
   456     019F                     	;# 
   457     020C                     	;# 
   458     020D                     	;# 
   459     020E                     	;# 
   460     0210                     	;# 
   461     0211                     	;# 
   462     0211                     	;# 
   463     0212                     	;# 
   464     0212                     	;# 
   465     0213                     	;# 
   466     0213                     	;# 
   467     0214                     	;# 
   468     0214                     	;# 
   469     0215                     	;# 
   470     0215                     	;# 
   471     0215                     	;# 
   472     0215                     	;# 
   473     0216                     	;# 
   474     0216                     	;# 
   475     0217                     	;# 
   476     0217                     	;# 
   477     028C                     	;# 
   478     028D                     	;# 
   479     028E                     	;# 
   480     0291                     	;# 
   481     0291                     	;# 
   482     0292                     	;# 
   483     0293                     	;# 
   484     0293                     	;# 
   485     0298                     	;# 
   486     0298                     	;# 
   487     0299                     	;# 
   488     029A                     	;# 
   489     029A                     	;# 
   490     029E                     	;# 
   491     030C                     	;# 
   492     030D                     	;# 
   493     030E                     	;# 
   494     038C                     	;# 
   495     038D                     	;# 
   496     038E                     	;# 
   497     0390                     	;# 
   498     0391                     	;# 
   499     0392                     	;# 
   500     0393                     	;# 
   501     0394                     	;# 
   502     0395                     	;# 
   503     0396                     	;# 
   504     0397                     	;# 
   505     0398                     	;# 
   506     0399                     	;# 
   507     039D                     	;# 
   508     039E                     	;# 
   509     039F                     	;# 
   510     0415                     	;# 
   511     0416                     	;# 
   512     0417                     	;# 
   513     041C                     	;# 
   514     041D                     	;# 
   515     041E                     	;# 
   516     0498                     	;# 
   517     0498                     	;# 
   518     0499                     	;# 
   519     049A                     	;# 
   520     049B                     	;# 
   521     049B                     	;# 
   522     049C                     	;# 
   523     049D                     	;# 
   524     049E                     	;# 
   525     049F                     	;# 
   526     0511                     	;# 
   527     0515                     	;# 
   528     0617                     	;# 
   529     0618                     	;# 
   530     0619                     	;# 
   531     0619                     	;# 
   532     061A                     	;# 
   533     061B                     	;# 
   534     061C                     	;# 
   535     061C                     	;# 
   536     0691                     	;# 
   537     0692                     	;# 
   538     0693                     	;# 
   539     0694                     	;# 
   540     0695                     	;# 
   541     0696                     	;# 
   542     0697                     	;# 
   543     0698                     	;# 
   544     0699                     	;# 
   545     069A                     	;# 
   546     069B                     	;# 
   547     069C                     	;# 
   548     069D                     	;# 
   549     069E                     	;# 
   550     069F                     	;# 
   551     0E0F                     	;# 
   552     0E10                     	;# 
   553     0E11                     	;# 
   554     0E12                     	;# 
   555     0E13                     	;# 
   556     0E14                     	;# 
   557     0E15                     	;# 
   558     0E17                     	;# 
   559     0E20                     	;# 
   560     0E21                     	;# 
   561     0E22                     	;# 
   562     0E24                     	;# 
   563     0E25                     	;# 
   564     0E28                     	;# 
   565     0E29                     	;# 
   566     0E2A                     	;# 
   567     0E2B                     	;# 
   568     0E90                     	;# 
   569     0E91                     	;# 
   570     0E92                     	;# 
   571     0E93                     	;# 
   572     0E94                     	;# 
   573     0E95                     	;# 
   574     0E96                     	;# 
   575     0E97                     	;# 
   576     0E98                     	;# 
   577     0E99                     	;# 
   578     0E9A                     	;# 
   579     0E9B                     	;# 
   580     0E9C                     	;# 
   581     0E9D                     	;# 
   582     0E9E                     	;# 
   583     0E9F                     	;# 
   584     0EA0                     	;# 
   585     0EA1                     	;# 
   586     0EA2                     	;# 
   587     0EA3                     	;# 
   588     0EA4                     	;# 
   589     0EA5                     	;# 
   590     0EA6                     	;# 
   591     0EA7                     	;# 
   592     0F0F                     	;# 
   593     0F10                     	;# 
   594     0F11                     	;# 
   595     0F12                     	;# 
   596     0F13                     	;# 
   597     0F14                     	;# 
   598     0F15                     	;# 
   599     0F16                     	;# 
   600     0F17                     	;# 
   601     0F18                     	;# 
   602     0F19                     	;# 
   603     0F1A                     	;# 
   604     0F1B                     	;# 
   605     0F1C                     	;# 
   606     0F1D                     	;# 
   607     0F1E                     	;# 
   608     0F1F                     	;# 
   609     0F20                     	;# 
   610     0F21                     	;# 
   611     0F22                     	;# 
   612     0F23                     	;# 
   613     0F24                     	;# 
   614     0F25                     	;# 
   615     0F26                     	;# 
   616     0F27                     	;# 
   617     0F28                     	;# 
   618     0F29                     	;# 
   619     0F2A                     	;# 
   620     0F2B                     	;# 
   621     0F2C                     	;# 
   622     0F2D                     	;# 
   623     0F2E                     	;# 
   624     0F2F                     	;# 
   625     0F30                     	;# 
   626     0F31                     	;# 
   627     0F32                     	;# 
   628     0F33                     	;# 
   629     0F34                     	;# 
   630     0F35                     	;# 
   631     0F36                     	;# 
   632     0F37                     	;# 
   633     0FE4                     	;# 
   634     0FE5                     	;# 
   635     0FE6                     	;# 
   636     0FE7                     	;# 
   637     0FE8                     	;# 
   638     0FE9                     	;# 
   639     0FEA                     	;# 
   640     0FEB                     	;# 
   641     0FED                     	;# 
   642     0FEE                     	;# 
   643     0FEF                     	;# 
   644     0000                     	;# 
   645     0001                     	;# 
   646     0002                     	;# 
   647     0003                     	;# 
   648     0004                     	;# 
   649     0005                     	;# 
   650     0006                     	;# 
   651     0007                     	;# 
   652     0008                     	;# 
   653     0009                     	;# 
   654     000A                     	;# 
   655     000B                     	;# 
   656     000C                     	;# 
   657     000D                     	;# 
   658     000E                     	;# 
   659     0010                     	;# 
   660     0011                     	;# 
   661     0012                     	;# 
   662     0013                     	;# 
   663     0015                     	;# 
   664     0016                     	;# 
   665     0016                     	;# 
   666     0017                     	;# 
   667     0018                     	;# 
   668     0019                     	;# 
   669     001A                     	;# 
   670     001B                     	;# 
   671     001C                     	;# 
   672     008C                     	;# 
   673     008D                     	;# 
   674     008E                     	;# 
   675     0090                     	;# 
   676     0091                     	;# 
   677     0092                     	;# 
   678     0093                     	;# 
   679     0095                     	;# 
   680     0096                     	;# 
   681     0097                     	;# 
   682     0098                     	;# 
   683     0099                     	;# 
   684     009A                     	;# 
   685     009B                     	;# 
   686     009B                     	;# 
   687     009C                     	;# 
   688     009D                     	;# 
   689     009E                     	;# 
   690     009F                     	;# 
   691     010C                     	;# 
   692     010D                     	;# 
   693     010E                     	;# 
   694     0111                     	;# 
   695     0112                     	;# 
   696     0113                     	;# 
   697     0114                     	;# 
   698     0115                     	;# 
   699     0116                     	;# 
   700     0117                     	;# 
   701     0118                     	;# 
   702     0119                     	;# 
   703     011A                     	;# 
   704     011B                     	;# 
   705     011B                     	;# 
   706     011C                     	;# 
   707     018C                     	;# 
   708     018D                     	;# 
   709     018E                     	;# 
   710     0191                     	;# 
   711     0191                     	;# 
   712     0192                     	;# 
   713     0193                     	;# 
   714     0193                     	;# 
   715     0194                     	;# 
   716     0195                     	;# 
   717     0196                     	;# 
   718     0197                     	;# 
   719     0199                     	;# 
   720     0199                     	;# 
   721     0199                     	;# 
   722     019A                     	;# 
   723     019A                     	;# 
   724     019A                     	;# 
   725     019B                     	;# 
   726     019B                     	;# 
   727     019B                     	;# 
   728     019B                     	;# 
   729     019B                     	;# 
   730     019C                     	;# 
   731     019C                     	;# 
   732     019C                     	;# 
   733     019D                     	;# 
   734     019D                     	;# 
   735     019D                     	;# 
   736     019E                     	;# 
   737     019E                     	;# 
   738     019E                     	;# 
   739     019F                     	;# 
   740     019F                     	;# 
   741     019F                     	;# 
   742     019F                     	;# 
   743     019F                     	;# 
   744     020C                     	;# 
   745     020D                     	;# 
   746     020E                     	;# 
   747     0210                     	;# 
   748     0211                     	;# 
   749     0211                     	;# 
   750     0212                     	;# 
   751     0212                     	;# 
   752     0213                     	;# 
   753     0213                     	;# 
   754     0214                     	;# 
   755     0214                     	;# 
   756     0215                     	;# 
   757     0215                     	;# 
   758     0215                     	;# 
   759     0215                     	;# 
   760     0216                     	;# 
   761     0216                     	;# 
   762     0217                     	;# 
   763     0217                     	;# 
   764     028C                     	;# 
   765     028D                     	;# 
   766     028E                     	;# 
   767     0291                     	;# 
   768     0291                     	;# 
   769     0292                     	;# 
   770     0293                     	;# 
   771     0293                     	;# 
   772     0298                     	;# 
   773     0298                     	;# 
   774     0299                     	;# 
   775     029A                     	;# 
   776     029A                     	;# 
   777     029E                     	;# 
   778     030C                     	;# 
   779     030D                     	;# 
   780     030E                     	;# 
   781     038C                     	;# 
   782     038D                     	;# 
   783     038E                     	;# 
   784     0390                     	;# 
   785     0391                     	;# 
   786     0392                     	;# 
   787     0393                     	;# 
   788     0394                     	;# 
   789     0395                     	;# 
   790     0396                     	;# 
   791     0397                     	;# 
   792     0398                     	;# 
   793     0399                     	;# 
   794     039D                     	;# 
   795     039E                     	;# 
   796     039F                     	;# 
   797     0415                     	;# 
   798     0416                     	;# 
   799     0417                     	;# 
   800     041C                     	;# 
   801     041D                     	;# 
   802     041E                     	;# 
   803     0498                     	;# 
   804     0498                     	;# 
   805     0499                     	;# 
   806     049A                     	;# 
   807     049B                     	;# 
   808     049B                     	;# 
   809     049C                     	;# 
   810     049D                     	;# 
   811     049E                     	;# 
   812     049F                     	;# 
   813     0511                     	;# 
   814     0515                     	;# 
   815     0617                     	;# 
   816     0618                     	;# 
   817     0619                     	;# 
   818     0619                     	;# 
   819     061A                     	;# 
   820     061B                     	;# 
   821     061C                     	;# 
   822     061C                     	;# 
   823     0691                     	;# 
   824     0692                     	;# 
   825     0693                     	;# 
   826     0694                     	;# 
   827     0695                     	;# 
   828     0696                     	;# 
   829     0697                     	;# 
   830     0698                     	;# 
   831     0699                     	;# 
   832     069A                     	;# 
   833     069B                     	;# 
   834     069C                     	;# 
   835     069D                     	;# 
   836     069E                     	;# 
   837     069F                     	;# 
   838     0E0F                     	;# 
   839     0E10                     	;# 
   840     0E11                     	;# 
   841     0E12                     	;# 
   842     0E13                     	;# 
   843     0E14                     	;# 
   844     0E15                     	;# 
   845     0E17                     	;# 
   846     0E20                     	;# 
   847     0E21                     	;# 
   848     0E22                     	;# 
   849     0E24                     	;# 
   850     0E25                     	;# 
   851     0E28                     	;# 
   852     0E29                     	;# 
   853     0E2A                     	;# 
   854     0E2B                     	;# 
   855     0E90                     	;# 
   856     0E91                     	;# 
   857     0E92                     	;# 
   858     0E93                     	;# 
   859     0E94                     	;# 
   860     0E95                     	;# 
   861     0E96                     	;# 
   862     0E97                     	;# 
   863     0E98                     	;# 
   864     0E99                     	;# 
   865     0E9A                     	;# 
   866     0E9B                     	;# 
   867     0E9C                     	;# 
   868     0E9D                     	;# 
   869     0E9E                     	;# 
   870     0E9F                     	;# 
   871     0EA0                     	;# 
   872     0EA1                     	;# 
   873     0EA2                     	;# 
   874     0EA3                     	;# 
   875     0EA4                     	;# 
   876     0EA5                     	;# 
   877     0EA6                     	;# 
   878     0EA7                     	;# 
   879     0F0F                     	;# 
   880     0F10                     	;# 
   881     0F11                     	;# 
   882     0F12                     	;# 
   883     0F13                     	;# 
   884     0F14                     	;# 
   885     0F15                     	;# 
   886     0F16                     	;# 
   887     0F17                     	;# 
   888     0F18                     	;# 
   889     0F19                     	;# 
   890     0F1A                     	;# 
   891     0F1B                     	;# 
   892     0F1C                     	;# 
   893     0F1D                     	;# 
   894     0F1E                     	;# 
   895     0F1F                     	;# 
   896     0F20                     	;# 
   897     0F21                     	;# 
   898     0F22                     	;# 
   899     0F23                     	;# 
   900     0F24                     	;# 
   901     0F25                     	;# 
   902     0F26                     	;# 
   903     0F27                     	;# 
   904     0F28                     	;# 
   905     0F29                     	;# 
   906     0F2A                     	;# 
   907     0F2B                     	;# 
   908     0F2C                     	;# 
   909     0F2D                     	;# 
   910     0F2E                     	;# 
   911     0F2F                     	;# 
   912     0F30                     	;# 
   913     0F31                     	;# 
   914     0F32                     	;# 
   915     0F33                     	;# 
   916     0F34                     	;# 
   917     0F35                     	;# 
   918     0F36                     	;# 
   919     0F37                     	;# 
   920     0FE4                     	;# 
   921     0FE5                     	;# 
   922     0FE6                     	;# 
   923     0FE7                     	;# 
   924     0FE8                     	;# 
   925     0FE9                     	;# 
   926     0FEA                     	;# 
   927     0FEB                     	;# 
   928     0FED                     	;# 
   929     0FEE                     	;# 
   930     0FEF                     	;# 
   931     0000                     	;# 
   932     0001                     	;# 
   933     0002                     	;# 
   934     0003                     	;# 
   935     0004                     	;# 
   936     0005                     	;# 
   937     0006                     	;# 
   938     0007                     	;# 
   939     0008                     	;# 
   940     0009                     	;# 
   941     000A                     	;# 
   942     000B                     	;# 
   943     000C                     	;# 
   944     000D                     	;# 
   945     000E                     	;# 
   946     0010                     	;# 
   947     0011                     	;# 
   948     0012                     	;# 
   949     0013                     	;# 
   950     0015                     	;# 
   951     0016                     	;# 
   952     0016                     	;# 
   953     0017                     	;# 
   954     0018                     	;# 
   955     0019                     	;# 
   956     001A                     	;# 
   957     001B                     	;# 
   958     001C                     	;# 
   959     008C                     	;# 
   960     008D                     	;# 
   961     008E                     	;# 
   962     0090                     	;# 
   963     0091                     	;# 
   964     0092                     	;# 
   965     0093                     	;# 
   966     0095                     	;# 
   967     0096                     	;# 
   968     0097                     	;# 
   969     0098                     	;# 
   970     0099                     	;# 
   971     009A                     	;# 
   972     009B                     	;# 
   973     009B                     	;# 
   974     009C                     	;# 
   975     009D                     	;# 
   976     009E                     	;# 
   977     009F                     	;# 
   978     010C                     	;# 
   979     010D                     	;# 
   980     010E                     	;# 
   981     0111                     	;# 
   982     0112                     	;# 
   983     0113                     	;# 
   984     0114                     	;# 
   985     0115                     	;# 
   986     0116                     	;# 
   987     0117                     	;# 
   988     0118                     	;# 
   989     0119                     	;# 
   990     011A                     	;# 
   991     011B                     	;# 
   992     011B                     	;# 
   993     011C                     	;# 
   994     018C                     	;# 
   995     018D                     	;# 
   996     018E                     	;# 
   997     0191                     	;# 
   998     0191                     	;# 
   999     0192                     	;# 
  1000     0193                     	;# 
  1001     0193                     	;# 
  1002     0194                     	;# 
  1003     0195                     	;# 
  1004     0196                     	;# 
  1005     0197                     	;# 
  1006     0199                     	;# 
  1007     0199                     	;# 
  1008     0199                     	;# 
  1009     019A                     	;# 
  1010     019A                     	;# 
  1011     019A                     	;# 
  1012     019B                     	;# 
  1013     019B                     	;# 
  1014     019B                     	;# 
  1015     019B                     	;# 
  1016     019B                     	;# 
  1017     019C                     	;# 
  1018     019C                     	;# 
  1019     019C                     	;# 
  1020     019D                     	;# 
  1021     019D                     	;# 
  1022     019D                     	;# 
  1023     019E                     	;# 
  1024     019E                     	;# 
  1025     019E                     	;# 
  1026     019F                     	;# 
  1027     019F                     	;# 
  1028     019F                     	;# 
  1029     019F                     	;# 
  1030     019F                     	;# 
  1031     020C                     	;# 
  1032     020D                     	;# 
  1033     020E                     	;# 
  1034     0210                     	;# 
  1035     0211                     	;# 
  1036     0211                     	;# 
  1037     0212                     	;# 
  1038     0212                     	;# 
  1039     0213                     	;# 
  1040     0213                     	;# 
  1041     0214                     	;# 
  1042     0214                     	;# 
  1043     0215                     	;# 
  1044     0215                     	;# 
  1045     0215                     	;# 
  1046     0215                     	;# 
  1047     0216                     	;# 
  1048     0216                     	;# 
  1049     0217                     	;# 
  1050     0217                     	;# 
  1051     028C                     	;# 
  1052     028D                     	;# 
  1053     028E                     	;# 
  1054     0291                     	;# 
  1055     0291                     	;# 
  1056     0292                     	;# 
  1057     0293                     	;# 
  1058     0293                     	;# 
  1059     0298                     	;# 
  1060     0298                     	;# 
  1061     0299                     	;# 
  1062     029A                     	;# 
  1063     029A                     	;# 
  1064     029E                     	;# 
  1065     030C                     	;# 
  1066     030D                     	;# 
  1067     030E                     	;# 
  1068     038C                     	;# 
  1069     038D                     	;# 
  1070     038E                     	;# 
  1071     0390                     	;# 
  1072     0391                     	;# 
  1073     0392                     	;# 
  1074     0393                     	;# 
  1075     0394                     	;# 
  1076     0395                     	;# 
  1077     0396                     	;# 
  1078     0397                     	;# 
  1079     0398                     	;# 
  1080     0399                     	;# 
  1081     039D                     	;# 
  1082     039E                     	;# 
  1083     039F                     	;# 
  1084     0415                     	;# 
  1085     0416                     	;# 
  1086     0417                     	;# 
  1087     041C                     	;# 
  1088     041D                     	;# 
  1089     041E                     	;# 
  1090     0498                     	;# 
  1091     0498                     	;# 
  1092     0499                     	;# 
  1093     049A                     	;# 
  1094     049B                     	;# 
  1095     049B                     	;# 
  1096     049C                     	;# 
  1097     049D                     	;# 
  1098     049E                     	;# 
  1099     049F                     	;# 
  1100     0511                     	;# 
  1101     0515                     	;# 
  1102     0617                     	;# 
  1103     0618                     	;# 
  1104     0619                     	;# 
  1105     0619                     	;# 
  1106     061A                     	;# 
  1107     061B                     	;# 
  1108     061C                     	;# 
  1109     061C                     	;# 
  1110     0691                     	;# 
  1111     0692                     	;# 
  1112     0693                     	;# 
  1113     0694                     	;# 
  1114     0695                     	;# 
  1115     0696                     	;# 
  1116     0697                     	;# 
  1117     0698                     	;# 
  1118     0699                     	;# 
  1119     069A                     	;# 
  1120     069B                     	;# 
  1121     069C                     	;# 
  1122     069D                     	;# 
  1123     069E                     	;# 
  1124     069F                     	;# 
  1125     0E0F                     	;# 
  1126     0E10                     	;# 
  1127     0E11                     	;# 
  1128     0E12                     	;# 
  1129     0E13                     	;# 
  1130     0E14                     	;# 
  1131     0E15                     	;# 
  1132     0E17                     	;# 
  1133     0E20                     	;# 
  1134     0E21                     	;# 
  1135     0E22                     	;# 
  1136     0E24                     	;# 
  1137     0E25                     	;# 
  1138     0E28                     	;# 
  1139     0E29                     	;# 
  1140     0E2A                     	;# 
  1141     0E2B                     	;# 
  1142     0E90                     	;# 
  1143     0E91                     	;# 
  1144     0E92                     	;# 
  1145     0E93                     	;# 
  1146     0E94                     	;# 
  1147     0E95                     	;# 
  1148     0E96                     	;# 
  1149     0E97                     	;# 
  1150     0E98                     	;# 
  1151     0E99                     	;# 
  1152     0E9A                     	;# 
  1153     0E9B                     	;# 
  1154     0E9C                     	;# 
  1155     0E9D                     	;# 
  1156     0E9E                     	;# 
  1157     0E9F                     	;# 
  1158     0EA0                     	;# 
  1159     0EA1                     	;# 
  1160     0EA2                     	;# 
  1161     0EA3                     	;# 
  1162     0EA4                     	;# 
  1163     0EA5                     	;# 
  1164     0EA6                     	;# 
  1165     0EA7                     	;# 
  1166     0F0F                     	;# 
  1167     0F10                     	;# 
  1168     0F11                     	;# 
  1169     0F12                     	;# 
  1170     0F13                     	;# 
  1171     0F14                     	;# 
  1172     0F15                     	;# 
  1173     0F16                     	;# 
  1174     0F17                     	;# 
  1175     0F18                     	;# 
  1176     0F19                     	;# 
  1177     0F1A                     	;# 
  1178     0F1B                     	;# 
  1179     0F1C                     	;# 
  1180     0F1D                     	;# 
  1181     0F1E                     	;# 
  1182     0F1F                     	;# 
  1183     0F20                     	;# 
  1184     0F21                     	;# 
  1185     0F22                     	;# 
  1186     0F23                     	;# 
  1187     0F24                     	;# 
  1188     0F25                     	;# 
  1189     0F26                     	;# 
  1190     0F27                     	;# 
  1191     0F28                     	;# 
  1192     0F29                     	;# 
  1193     0F2A                     	;# 
  1194     0F2B                     	;# 
  1195     0F2C                     	;# 
  1196     0F2D                     	;# 
  1197     0F2E                     	;# 
  1198     0F2F                     	;# 
  1199     0F30                     	;# 
  1200     0F31                     	;# 
  1201     0F32                     	;# 
  1202     0F33                     	;# 
  1203     0F34                     	;# 
  1204     0F35                     	;# 
  1205     0F36                     	;# 
  1206     0F37                     	;# 
  1207     0FE4                     	;# 
  1208     0FE5                     	;# 
  1209     0FE6                     	;# 
  1210     0FE7                     	;# 
  1211     0FE8                     	;# 
  1212     0FE9                     	;# 
  1213     0FEA                     	;# 
  1214     0FEB                     	;# 
  1215     0FED                     	;# 
  1216     0FEE                     	;# 
  1217     0FEF                     	;_line
  1218     000D                     _PORTBbits	set	13
  1219     000B                     _INTCONbits	set	11
  1220     0011                     _PIR1bits	set	17
  1221     008D                     _TRISBbits	set	141
  1222     04CF                     _SPLLEN	set	1231
  1223     04CE                     _IRCF3	set	1230
  1224     04CD                     _IRCF2	set	1229
  1225     04CC                     _IRCF1	set	1228
  1226     04CB                     _IRCF0	set	1227
  1227     04C9                     _SCS1	set	1225
  1228     04C8                     _SCS0	set	1224
  1229     010D                     _LATBbits	set	269
  1230     019A                     _TX1REG	set	410
  1231     0199                     _RC1REG	set	409
  1232     019D                     _RC1STAbits	set	413
  1233     019B                     _SPBRGL	set	411
  1234     018D                     _ANSELBbits	set	397
  1235     0CF5                     _TXEN	set	3317
  1236     0CEC                     _CREN	set	3308
  1237     0CEF                     _SPEN	set	3311
  1238     0CF4                     _SYNC	set	3316
  1239     0CFB                     _BRG16	set	3323
  1240     0CF2                     _BRGH	set	3314
  1241     0E24                     _RXPPSbits	set	3620
  1242     0E0F                     _PPSLOCKbits	set	3599
  1243     0E0F                     _PPSLOCK	set	3599
  1244     0E9A                     _RB2PPSbits	set	3738
  1245                           
  1246                           	psect	stringtext1
  1247     0800                     __pstringtext1:
  1248     0800                     STR_2:
  1249     0800  3448               	retlw	72	;'H'
  1250     0801  3457               	retlw	87	;'W'
  1251     0802  3420               	retlw	32	;' '
  1252     0803  3455               	retlw	85	;'U'
  1253     0804  3441               	retlw	65	;'A'
  1254     0805  3452               	retlw	82	;'R'
  1255     0806  3454               	retlw	84	;'T'
  1256     0807  3420               	retlw	32	;' '
  1257     0808  3428               	retlw	40	;'('
  1258     0809  3452               	retlw	82	;'R'
  1259     080A  3442               	retlw	66	;'B'
  1260     080B  3433               	retlw	51	;'3'
  1261     080C  342F               	retlw	47	;'/'
  1262     080D  3452               	retlw	82	;'R'
  1263     080E  3442               	retlw	66	;'B'
  1264     080F  3432               	retlw	50	;'2'
  1265     0810  3429               	retlw	41	;')'
  1266     0811  3420               	retlw	32	;' '
  1267     0812  343C               	retlw	60	;'<'
  1268     0813  342D               	retlw	45	;'-'
  1269     0814  343E               	retlw	62	;'>'
  1270     0815  3420               	retlw	32	;' '
  1271     0816  3447               	retlw	71	;'G'
  1272     0817  3450               	retlw	80	;'P'
  1273     0818  3453               	retlw	83	;'S'
  1274     0819  3420               	retlw	32	;' '
  1275     081A  3440               	retlw	64	;'@'
  1276     081B  3420               	retlw	32	;' '
  1277     081C  3439               	retlw	57	;'9'
  1278     081D  3436               	retlw	54	;'6'
  1279     081E  3430               	retlw	48	;'0'
  1280     081F  3430               	retlw	48	;'0'
  1281     0820  340D               	retlw	13
  1282     0821  340A               	retlw	10
  1283     0822  3400               	retlw	0
  1284                           
  1285                           	psect	stringtext2
  1286     0823                     __pstringtext2:
  1287     0823                     STR_3:
  1288     0823  3453               	retlw	83	;'S'
  1289     0824  346F               	retlw	111	;'o'
  1290     0825  3466               	retlw	102	;'f'
  1291     0826  3474               	retlw	116	;'t'
  1292     0827  3455               	retlw	85	;'U'
  1293     0828  3441               	retlw	65	;'A'
  1294     0829  3452               	retlw	82	;'R'
  1295     082A  3454               	retlw	84	;'T'
  1296     082B  3420               	retlw	32	;' '
  1297     082C  3428               	retlw	40	;'('
  1298     082D  3452               	retlw	82	;'R'
  1299     082E  3442               	retlw	66	;'B'
  1300     082F  3431               	retlw	49	;'1'
  1301     0830  3429               	retlw	41	;')'
  1302     0831  3420               	retlw	32	;' '
  1303     0832  342D               	retlw	45	;'-'
  1304     0833  343E               	retlw	62	;'>'
  1305     0834  3420               	retlw	32	;' '
  1306     0835  3450               	retlw	80	;'P'
  1307     0836  3443               	retlw	67	;'C'
  1308     0837  3420               	retlw	32	;' '
  1309     0838  3474               	retlw	116	;'t'
  1310     0839  3465               	retlw	101	;'e'
  1311     083A  3472               	retlw	114	;'r'
  1312     083B  346D               	retlw	109	;'m'
  1313     083C  3469               	retlw	105	;'i'
  1314     083D  346E               	retlw	110	;'n'
  1315     083E  3461               	retlw	97	;'a'
  1316     083F  346C               	retlw	108	;'l'
  1317     0840  340D               	retlw	13
  1318     0841  340A               	retlw	10
  1319     0842  340D               	retlw	13
  1320     0843  340A               	retlw	10
  1321     0844  3400               	retlw	0
  1322                           
  1323                           	psect	stringtext3
  1324     0845                     __pstringtext3:
  1325     0845                     STR_1:
  1326     0845  340D               	retlw	13
  1327     0846  340A               	retlw	10
  1328     0847  343D               	retlw	61	;'='
  1329     0848  343D               	retlw	61	;'='
  1330     0849  343D               	retlw	61	;'='
  1331     084A  3420               	retlw	32	;' '
  1332     084B  344E               	retlw	78	;'N'
  1333     084C  3445               	retlw	69	;'E'
  1334     084D  344F               	retlw	79	;'O'
  1335     084E  342D               	retlw	45	;'-'
  1336     084F  3436               	retlw	54	;'6'
  1337     0850  344D               	retlw	77	;'M'
  1338     0851  3420               	retlw	32	;' '
  1339     0852  3442               	retlw	66	;'B'
  1340     0853  3452               	retlw	82	;'R'
  1341     0854  3449               	retlw	73	;'I'
  1342     0855  3444               	retlw	68	;'D'
  1343     0856  3447               	retlw	71	;'G'
  1344     0857  3445               	retlw	69	;'E'
  1345     0858  3420               	retlw	32	;' '
  1346     0859  3454               	retlw	84	;'T'
  1347     085A  3445               	retlw	69	;'E'
  1348     085B  3453               	retlw	83	;'S'
  1349     085C  3454               	retlw	84	;'T'
  1350     085D  3420               	retlw	32	;' '
  1351     085E  343D               	retlw	61	;'='
  1352     085F  343D               	retlw	61	;'='
  1353     0860  343D               	retlw	61	;'='
  1354     0861  340D               	retlw	13
  1355     0862  340A               	retlw	10
  1356     0863  3400               	retlw	0
  1357                           
  1358                           	psect	stringtext4
  1359     0864                     __pstringtext4:
  1360     0864                     STR_5:
  1361     0864  345B               	retlw	91	;'['
  1362     0865  3443               	retlw	67	;'C'
  1363     0866  3453               	retlw	83	;'S'
  1364     0867  3420               	retlw	32	;' '
  1365     0868  3442               	retlw	66	;'B'
  1366     0869  3441               	retlw	65	;'A'
  1367     086A  3444               	retlw	68	;'D'
  1368     086B  345D               	retlw	93	;']'
  1369     086C  340D               	retlw	13
  1370     086D  340A               	retlw	10
  1371     086E  3400               	retlw	0
  1372                           
  1373                           	psect	stringtext5
  1374     086F                     __pstringtext5:
  1375     086F                     STR_4:
  1376     086F  345B               	retlw	91	;'['
  1377     0870  3443               	retlw	67	;'C'
  1378     0871  3453               	retlw	83	;'S'
  1379     0872  3420               	retlw	32	;' '
  1380     0873  344F               	retlw	79	;'O'
  1381     0874  344B               	retlw	75	;'K'
  1382     0875  345D               	retlw	93	;']'
  1383     0876  340D               	retlw	13
  1384     0877  340A               	retlw	10
  1385     0878  3400               	retlw	0
  1386                           
  1387                           	psect	stringtext6
  1388     0000                     __pstringtext6:
  1389                           
  1390                           	psect	cinit
  1391     07F2                     start_initialization:	
  1392                           ; #config settings
  1393                           
  1394     07F2                     __initialization:	;BIGRAM
  1395                           
  1396                           ; Clear objects allocated to BIGRAM
  1397     07F2  3070               	movlw	low (0+10096)
  1398     07F3  0084               	movwf	4
  1399     07F4  3027               	movlw	high (0+10096)
  1400     07F5  0085               	movwf	5
  1401     07F6  3080               	movlw	128
  1402     07F7  00FE               	movwf	btemp
  1403     07F8  3000               	movlw	0
  1404     07F9  00FF               	movwf	btemp+1
  1405     07FA  3184  24C9  3187   	fcall	clear_ram0
  1406     07FD                     end_of_initialization:	
  1407                           ;End of C runtime variable initialization code
  1408                           
  1409     07FD                     __end_of__initialization:
  1410     07FD  0020               	movlb	0
  1411     07FE  3186  2E0B         	ljmp	_main	;jump to C main() function
  1412                           
  1413                           	psect	clrtext
  1414     04C9                     clear_ram0:	
  1415                           ;	Called with FSR0 containing the base address, and
  1416                           ;	btemp/btemp+1 has the size to clear
  1417                           
  1418     04C9  0064               	clrwdt	;clear the watchdog before getting into this loop
  1419     04CA                     clrloop0:
  1420     04CA  0180               	clrf	0	;clear RAM location pointed to by FSR
  1421     04CB  3101               	addfsr 0,1
  1422     04CC  3001               	movlw	1
  1423     04CD  02FE               	subwf	btemp,f
  1424     04CE  3000               	movlw	0
  1425     04CF  3BFF               	subwfb	btemp+1,f
  1426     04D0  087F               	movf	btemp+1,w
  1427     04D1  047E               	iorwf	btemp,w
  1428     04D2  1D03               	skipz
  1429     04D3  2CCA               	goto	clrloop0	;have we reached the end yet?
  1430     04D4  3400               	retlw	0	;all done for this memory range, return
  1431                           
  1432                           	psect	cstackCOMMON
  1433     0070                     __pcstackCOMMON:
  1434     0070                     ?_EUSART_Read:
  1435     0070                     ??_EUSART_Read:	
  1436                           ; 1 bytes @ 0x0
  1437                           
  1438     0070                     ?_internal_32:	
  1439                           ; 1 bytes @ 0x0
  1440                           
  1441     0070                     ??_internal_32:	
  1442                           ; 1 bytes @ 0x0
  1443                           
  1444     0070                     ?_SUART_Init:	
  1445                           ; 1 bytes @ 0x0
  1446                           
  1447     0070                     ??_SUART_Init:	
  1448                           ; 1 bytes @ 0x0
  1449                           
  1450     0070                     ?_gps_read_line:	
  1451                           ; 1 bytes @ 0x0
  1452                           
  1453     0070                     ?_initMain:	
  1454                           ; 1 bytes @ 0x0
  1455                           
  1456     0070                     ??_initMain:	
  1457                           ; 1 bytes @ 0x0
  1458                           
  1459     0070                     ?_main:	
  1460                           ; 1 bytes @ 0x0
  1461                           
  1462     0070                     ?_SUART_Lock:	
  1463                           ; 1 bytes @ 0x0
  1464                           
  1465     0070                     ??_SUART_Lock:	
  1466                           ; 1 bytes @ 0x0
  1467                           
  1468     0070                     ?_SUART_Unlock:	
  1469                           ; 1 bytes @ 0x0
  1470                           
  1471     0070                     ??_SUART_Unlock:	
  1472                           ; 1 bytes @ 0x0
  1473                           
  1474     0070                     ?_SUART_Transmit:	
  1475                           ; 1 bytes @ 0x0
  1476                           
  1477     0070                     ?_hex_nibble:	
  1478                           ; 1 bytes @ 0x0
  1479                           
  1480     0070                     ?___aldiv:	
  1481                           ; 2 bytes @ 0x0
  1482                           
  1483     0070                     SUART_Lock@gie:	
  1484                           ; 4 bytes @ 0x0
  1485                           
  1486     0070                     SUART_Unlock@gie:	
  1487                           ; 1 bytes @ 0x0
  1488                           
  1489     0070                     gps_read_line@buf:	
  1490                           ; 1 bytes @ 0x0
  1491                           
  1492     0070                     ___aldiv@divisor:	
  1493                           ; 2 bytes @ 0x0
  1494                           
  1495                           
  1496                           ; 4 bytes @ 0x0
  1497     0070                     	ds	1
  1498     0071                     ??_SUART_Transmit:
  1499                           
  1500                           ; 1 bytes @ 0x1
  1501     0071                     	ds	1
  1502     0072                     ??_hex_nibble:
  1503     0072                     hex_nibble@c:	
  1504                           ; 1 bytes @ 0x2
  1505                           
  1506     0072                     gps_read_line@maxlen:	
  1507                           ; 1 bytes @ 0x2
  1508                           
  1509     0072                     SUART_Transmit@DataValue:	
  1510                           ; 1 bytes @ 0x2
  1511                           
  1512                           
  1513                           ; 1 bytes @ 0x2
  1514     0072                     	ds	1
  1515     0073                     ?_nmea_checksum_ok:
  1516     0073                     ??_gps_read_line:	
  1517                           ; 1 bytes @ 0x3
  1518                           
  1519     0073                     SUART_Transmit@gie:	
  1520                           ; 1 bytes @ 0x3
  1521                           
  1522     0073                     nmea_checksum_ok@s:	
  1523                           ; 1 bytes @ 0x3
  1524                           
  1525                           
  1526                           ; 2 bytes @ 0x3
  1527     0073                     	ds	1
  1528     0074                     SUART_Transmit@i:
  1529     0074                     ___aldiv@dividend:	
  1530                           ; 1 bytes @ 0x4
  1531                           
  1532                           
  1533                           ; 4 bytes @ 0x4
  1534     0074                     	ds	1
  1535     0075                     ?_SUART_Write_Text:
  1536     0075                     ??_nmea_checksum_ok:	
  1537                           ; 1 bytes @ 0x5
  1538                           
  1539     0075                     SUART_Write_Text@text:	
  1540                           ; 1 bytes @ 0x5
  1541                           
  1542                           
  1543                           ; 2 bytes @ 0x5
  1544     0075                     	ds	2
  1545     0077                     ??_SUART_Write_Text:
  1546     0077                     nmea_checksum_ok@cs:	
  1547                           ; 1 bytes @ 0x7
  1548                           
  1549     0077                     gps_read_line@c:	
  1550                           ; 1 bytes @ 0x7
  1551                           
  1552                           
  1553                           ; 1 bytes @ 0x7
  1554     0077                     	ds	1
  1555     0078                     ??___aldiv:
  1556     0078                     gps_read_line@n:	
  1557                           ; 1 bytes @ 0x8
  1558                           
  1559     0078                     nmea_checksum_ok@hi:	
  1560                           ; 1 bytes @ 0x8
  1561                           
  1562     0078                     SUART_Write_Text@i:	
  1563                           ; 2 bytes @ 0x8
  1564                           
  1565                           
  1566                           ; 2 bytes @ 0x8
  1567     0078                     	ds	1
  1568     0079                     EUSART_Initialize@x:
  1569                           
  1570                           ; 2 bytes @ 0x9
  1571     0079                     	ds	1
  1572     007A                     ?_suart_puts:
  1573     007A                     suart_puts@s:	
  1574                           ; 1 bytes @ 0xA
  1575                           
  1576     007A                     nmea_checksum_ok@lo:	
  1577                           ; 2 bytes @ 0xA
  1578                           
  1579                           
  1580                           ; 2 bytes @ 0xA
  1581     007A                     	ds	2
  1582     007C                     ??_suart_puts:
  1583     007C                     nmea_checksum_ok@p:	
  1584                           ; 1 bytes @ 0xC
  1585                           
  1586                           
  1587                           ; 2 bytes @ 0xC
  1588     007C                     	ds	2
  1589                           
  1590                           	psect	cstackBANK0
  1591     0020                     __pcstackBANK0:
  1592     0020                     ___aldiv@counter:
  1593                           
  1594                           ; 1 bytes @ 0x0
  1595     0020                     	ds	1
  1596     0021                     ___aldiv@sign:
  1597                           
  1598                           ; 1 bytes @ 0x1
  1599     0021                     	ds	1
  1600     0022                     ___aldiv@quotient:
  1601                           
  1602                           ; 4 bytes @ 0x2
  1603     0022                     	ds	4
  1604     0026                     ?_EUSART_Initialize:
  1605     0026                     EUSART_Initialize@baudrate:	
  1606                           ; 1 bytes @ 0x6
  1607                           
  1608                           
  1609                           ; 4 bytes @ 0x6
  1610     0026                     	ds	4
  1611     002A                     ??_EUSART_Initialize:
  1612                           
  1613                           ; 1 bytes @ 0xA
  1614     002A                     	ds	12
  1615     0036                     ??_main:
  1616                           
  1617                           ; 1 bytes @ 0x16
  1618     0036                     	ds	2
  1619                           
  1620                           	psect	maintext
  1621     060B                     __pmaintext:	
  1622 ;;
  1623 ;;Main: autosize = 0, tempsize = 2, incstack = 0, save=0
  1624 ;;
  1625 ;; *************** function _main *****************
  1626 ;; Defined at:
  1627 ;;		line 149 in file "main.c"
  1628 ;; Parameters:    Size  Location     Type
  1629 ;;		None
  1630 ;; Auto vars:     Size  Location     Type
  1631 ;;		None
  1632 ;; Return value:  Size  Location     Type
  1633 ;;                  1    wreg      void 
  1634 ;; Registers used:
  1635 ;;		wreg, fsr0l, fsr0h, fsr1l, fsr1h, status,2, status,0, pclath, cstack
  1636 ;; Tracked objects:
  1637 ;;		On entry : B1F/0
  1638 ;;		On exit  : 0/0
  1639 ;;		Unchanged: 0/0
  1640 ;; Data sizes:     COMMON   BANK0   BANK1   BANK2   BANK3   BANK4   BANK5   BANK6   BANK7   BANK8   BANK9  BANK10  BANK1
      +1  BANK12  BANK13  BANK14  BANK15  BANK16  BANK17  BANK18  BANK19  BANK20  BANK21  BANK22  BANK23  BANK24  BANK25
  1641 ;;      Params:         0       0       0       0       0       0       0       0       0       0       0       0       
      +0       0       0       0       0       0       0       0       0       0       0       0       0       0       0
  1642 ;;      Locals:         0       0       0       0       0       0       0       0       0       0       0       0       
      +0       0       0       0       0       0       0       0       0       0       0       0       0       0       0
  1643 ;;      Temps:          0       2       0       0       0       0       0       0       0       0       0       0       
      +0       0       0       0       0       0       0       0       0       0       0       0       0       0       0
  1644 ;;      Totals:         0       2       0       0       0       0       0       0       0       0       0       0       
      +0       0       0       0       0       0       0       0       0       0       0       0       0       0       0
  1645 ;;Total ram usage:        2 bytes
  1646 ;; Hardware stack levels required when called: 4
  1647 ;; This function calls:
  1648 ;;		_EUSART_Initialize
  1649 ;;		_SUART_Init
  1650 ;;		_gps_read_line
  1651 ;;		_initMain
  1652 ;;		_nmea_checksum_ok
  1653 ;;		_suart_puts
  1654 ;; This function is called by:
  1655 ;;		Startup code after reset
  1656 ;; This function uses a non-reentrant model
  1657 ;;
  1658                           
  1659     060B                     _main:	
  1660                           ;psect for function _main
  1661                           
  1662     060B                     l1351:	
  1663                           ;incstack = 0
  1664                           ; Regs used in _main: [wreg-fsr1h+status,2+status,0+pclath+cstack]
  1665                           
  1666                           
  1667                           ;main.c: 150:     initMain();
  1668     060B  3185  2502  3186   	fcall	_initMain
  1669     060E                     l1353:
  1670                           
  1671                           ;main.c: 153:     SUART_Init();
  1672     060E  3184  24A4  3186   	fcall	_SUART_Init
  1673                           
  1674                           ;main.c: 154:     _delay((unsigned long)((200)*(32000000/4000.0)));
  1675     0611  3009               	movlw	9
  1676     0612  0020               	movlb	0	; select bank0
  1677     0613  00B7               	movwf	??_main+1
  1678     0614  301E               	movlw	30
  1679     0615  00B6               	movwf	??_main
  1680     0616  30E4               	movlw	228
  1681     0617                     u967:
  1682     0617  0B89               	decfsz	9,f
  1683     0618  2E17               	goto	u967
  1684     0619  0BB6               	decfsz	??_main,f
  1685     061A  2E17               	goto	u967
  1686     061B  0BB7               	decfsz	??_main+1,f
  1687     061C  2E17               	goto	u967
  1688     061D  0000               	nop
  1689     061E                     l1355:
  1690                           
  1691                           ;main.c: 157:     EUSART_Initialize(9600);
  1692     061E  3000               	movlw	0
  1693     061F  0020               	movlb	0	; select bank0
  1694     0620  00A9               	movwf	EUSART_Initialize@baudrate+3
  1695     0621  3000               	movlw	0
  1696     0622  00A8               	movwf	EUSART_Initialize@baudrate+2
  1697     0623  3025               	movlw	37
  1698     0624  00A7               	movwf	EUSART_Initialize@baudrate+1
  1699     0625  3080               	movlw	128
  1700     0626  00A6               	movwf	EUSART_Initialize@baudrate
  1701     0627  3185  25BB  3186   	fcall	_EUSART_Initialize
  1702     062A                     l1357:
  1703                           
  1704                           ;main.c: 159:     suart_puts("\r\n=== NEO-6M BRIDGE TEST ===\r\n");
  1705     062A  3045               	movlw	low (STR_1| (0+32768))
  1706     062B  00FA               	movwf	suart_puts@s
  1707     062C  3088               	movlw	high (STR_1| (0+32768))
  1708     062D  00FB               	movwf	suart_puts@s+1
  1709     062E  3184  24B8  3186   	fcall	_suart_puts
  1710     0631                     l1359:
  1711                           
  1712                           ;main.c: 160:     suart_puts("HW UART (RB3/RB2) <-> GPS @ 9600\r\n");
  1713     0631  3000               	movlw	low (STR_2| (0+32768))
  1714     0632  00FA               	movwf	suart_puts@s
  1715     0633  3088               	movlw	high (STR_2| (0+32768))
  1716     0634  00FB               	movwf	suart_puts@s+1
  1717     0635  3184  24B8  3186   	fcall	_suart_puts
  1718     0638                     l1361:
  1719                           
  1720                           ;main.c: 161:     suart_puts("SoftUART (RB1) -> PC terminal\r\n\r\n");
  1721     0638  3023               	movlw	low (STR_3| (0+32768))
  1722     0639  00FA               	movwf	suart_puts@s
  1723     063A  3088               	movlw	high (STR_3| (0+32768))
  1724     063B  00FB               	movwf	suart_puts@s+1
  1725     063C  3184  24B8  3186   	fcall	_suart_puts
  1726     063F                     l1363:
  1727                           
  1728                           ;main.c: 164:     {;main.c: 165:         gps_read_line(line, sizeof(line));
  1729     063F  3070               	movlw	112
  1730     0640  00F0               	movwf	gps_read_line@buf
  1731     0641  3027               	movlw	39
  1732     0642  00F1               	movwf	gps_read_line@buf+1
  1733     0643  3080               	movlw	128
  1734     0644  00F2               	movwf	gps_read_line@maxlen
  1735     0645  3186  266D  3186   	fcall	_gps_read_line
  1736     0648                     l1365:
  1737                           
  1738                           ;main.c: 168:         suart_puts(line);
  1739     0648  3070               	movlw	112
  1740     0649  00FA               	movwf	suart_puts@s
  1741     064A  3027               	movlw	39
  1742     064B  00FB               	movwf	suart_puts@s+1
  1743     064C  3184  24B8  3186   	fcall	_suart_puts
  1744     064F                     l1367:
  1745                           
  1746                           ;main.c: 171:         if (nmea_checksum_ok(line)) suart_puts("[CS OK]\r\n");
  1747     064F  3070               	movlw	112
  1748     0650  00F3               	movwf	nmea_checksum_ok@s
  1749     0651  3027               	movlw	39
  1750     0652  00F4               	movwf	nmea_checksum_ok@s+1
  1751     0653  3186  26D5  3186   	fcall	_nmea_checksum_ok
  1752     0656  3A00               	xorlw	0
  1753     0657  1903               	skipnz
  1754     0658  2E5A               	goto	u951
  1755     0659  2E5B               	goto	u950
  1756     065A                     u951:
  1757     065A  2E63               	goto	l1371
  1758     065B                     u950:
  1759     065B                     l1369:
  1760     065B  306F               	movlw	low (STR_4| (0+32768))
  1761     065C  00FA               	movwf	suart_puts@s
  1762     065D  3088               	movlw	high (STR_4| (0+32768))
  1763     065E  00FB               	movwf	suart_puts@s+1
  1764     065F  3184  24B8  3186   	fcall	_suart_puts
  1765     0662  2E3F               	goto	l1363
  1766     0663                     l1371:
  1767     0663  3064               	movlw	low (STR_5| (0+32768))
  1768     0664  00FA               	movwf	suart_puts@s
  1769     0665  3088               	movlw	high (STR_5| (0+32768))
  1770     0666  00FB               	movwf	suart_puts@s+1
  1771     0667  3184  24B8  3186   	fcall	_suart_puts
  1772     066A  2E3F               	goto	l1363
  1773     066B  3180  2803         	ljmp	start
  1774     066D                     __end_of_main:
  1775                           
  1776                           	psect	text1
  1777     04B8                     __ptext1:	
  1778 ;; *************** function _suart_puts *****************
  1779 ;; Defined at:
  1780 ;;		line 36 in file "main.c"
  1781 ;; Parameters:    Size  Location     Type
  1782 ;;  s               2   10[COMMON] PTR const unsigned char 
  1783 ;;		 -> STR_5(11), STR_4(10), line(128), STR_3(34), 
  1784 ;;		 -> STR_2(35), STR_1(31), 
  1785 ;; Auto vars:     Size  Location     Type
  1786 ;;		None
  1787 ;; Return value:  Size  Location     Type
  1788 ;;                  1    wreg      void 
  1789 ;; Registers used:
  1790 ;;		wreg, fsr0l, fsr0h, status,2, status,0, pclath, cstack
  1791 ;; Tracked objects:
  1792 ;;		On entry : 0/0
  1793 ;;		On exit  : 0/0
  1794 ;;		Unchanged: 0/0
  1795 ;; Data sizes:     COMMON   BANK0   BANK1   BANK2   BANK3   BANK4   BANK5   BANK6   BANK7   BANK8   BANK9  BANK10  BANK1
      +1  BANK12  BANK13  BANK14  BANK15  BANK16  BANK17  BANK18  BANK19  BANK20  BANK21  BANK22  BANK23  BANK24  BANK25
  1796 ;;      Params:         2       0       0       0       0       0       0       0       0       0       0       0       
      +0       0       0       0       0       0       0       0       0       0       0       0       0       0       0
  1797 ;;      Locals:         0       0       0       0       0       0       0       0       0       0       0       0       
      +0       0       0       0       0       0       0       0       0       0       0       0       0       0       0
  1798 ;;      Temps:          0       0       0       0       0       0       0       0       0       0       0       0       
      +0       0       0       0       0       0       0       0       0       0       0       0       0       0       0
  1799 ;;      Totals:         2       0       0       0       0       0       0       0       0       0       0       0       
      +0       0       0       0       0       0       0       0       0       0       0       0       0       0       0
  1800 ;;Total ram usage:        2 bytes
  1801 ;; Hardware stack levels used: 1
  1802 ;; Hardware stack levels required when called: 3
  1803 ;; This function calls:
  1804 ;;		_SUART_Write_Text
  1805 ;; This function is called by:
  1806 ;;		_main
  1807 ;; This function uses a non-reentrant model
  1808 ;;
  1809                           
  1810     04B8                     _suart_puts:	
  1811                           ;psect for function _suart_puts
  1812                           
  1813     04B8                     l1253:	
  1814                           ;incstack = 0
  1815                           ; Regs used in _suart_puts: [wreg-fsr0h+status,2+status,0+pclath+cstack]
  1816                           
  1817     04B8  087B               	movf	suart_puts@s+1,w
  1818     04B9  00F6               	movwf	SUART_Write_Text@text+1
  1819     04BA  087A               	movf	suart_puts@s,w
  1820     04BB  00F5               	movwf	SUART_Write_Text@text
  1821     04BC  3184  24E5  3184   	fcall	_SUART_Write_Text
  1822     04BF                     l33:
  1823     04BF  0008               	return
  1824     04C0                     __end_of_suart_puts:
  1825                           
  1826                           	psect	text2
  1827     04E5                     __ptext2:	
  1828 ;; *************** function _SUART_Write_Text *****************
  1829 ;; Defined at:
  1830 ;;		line 189 in file "SEUSART.c"
  1831 ;; Parameters:    Size  Location     Type
  1832 ;;  text            2    5[COMMON] PTR unsigned char 
  1833 ;;		 -> STR_5(11), STR_4(10), line(128), STR_3(34), 
  1834 ;;		 -> STR_2(35), STR_1(31), 
  1835 ;; Auto vars:     Size  Location     Type
  1836 ;;  i               2    8[COMMON] int 
  1837 ;; Return value:  Size  Location     Type
  1838 ;;                  1    wreg      void 
  1839 ;; Registers used:
  1840 ;;		wreg, fsr0l, fsr0h, status,2, status,0, pclath, cstack
  1841 ;; Tracked objects:
  1842 ;;		On entry : 0/0
  1843 ;;		On exit  : 0/0
  1844 ;;		Unchanged: 0/0
  1845 ;; Data sizes:     COMMON   BANK0   BANK1   BANK2   BANK3   BANK4   BANK5   BANK6   BANK7   BANK8   BANK9  BANK10  BANK1
      +1  BANK12  BANK13  BANK14  BANK15  BANK16  BANK17  BANK18  BANK19  BANK20  BANK21  BANK22  BANK23  BANK24  BANK25
  1846 ;;      Params:         2       0       0       0       0       0       0       0       0       0       0       0       
      +0       0       0       0       0       0       0       0       0       0       0       0       0       0       0
  1847 ;;      Locals:         2       0       0       0       0       0       0       0       0       0       0       0       
      +0       0       0       0       0       0       0       0       0       0       0       0       0       0       0
  1848 ;;      Temps:          1       0       0       0       0       0       0       0       0       0       0       0       
      +0       0       0       0       0       0       0       0       0       0       0       0       0       0       0
  1849 ;;      Totals:         5       0       0       0       0       0       0       0       0       0       0       0       
      +0       0       0       0       0       0       0       0       0       0       0       0       0       0       0
  1850 ;;Total ram usage:        5 bytes
  1851 ;; Hardware stack levels used: 1
  1852 ;; Hardware stack levels required when called: 2
  1853 ;; This function calls:
  1854 ;;		_SUART_Transmit
  1855 ;; This function is called by:
  1856 ;;		_suart_puts
  1857 ;; This function uses a non-reentrant model
  1858 ;;
  1859                           
  1860     04E5                     _SUART_Write_Text:	
  1861                           ;psect for function _SUART_Write_Text
  1862                           
  1863     04E5                     l1177:	
  1864                           ;incstack = 0
  1865                           ; Regs used in _SUART_Write_Text: [wreg-fsr0h+status,2+status,0+pclath+cstack]
  1866                           
  1867                           
  1868                           ;SEUSART.c: 189: void SUART_Write_Text(char *text);SEUSART.c: 190: {;SEUSART.c: 191:    
      +                           int i;;SEUSART.c: 192:     for (i = 0; text[i] != '\0'; i++)
  1869     04E5  01F8               	clrf	SUART_Write_Text@i
  1870     04E6  01F9               	clrf	SUART_Write_Text@i+1
  1871     04E7  2CF6               	goto	l1183
  1872     04E8                     l1179:
  1873                           
  1874                           ;SEUSART.c: 193:     {;SEUSART.c: 194:         SUART_Transmit(text[i]);
  1875     04E8  0875               	movf	SUART_Write_Text@text,w
  1876     04E9  0778               	addwf	SUART_Write_Text@i,w
  1877     04EA  0084               	movwf	4
  1878     04EB  0876               	movf	SUART_Write_Text@text+1,w
  1879     04EC  3D79               	addwfc	SUART_Write_Text@i+1,w
  1880     04ED  0085               	movwf	5
  1881     04EE  0800               	movf	0,w	;code access
  1882     04EF  3185  2539  3184   	fcall	_SUART_Transmit
  1883     04F2                     l1181:
  1884                           
  1885                           ;SEUSART.c: 195:     }
  1886     04F2  3001               	movlw	1
  1887     04F3  07F8               	addwf	SUART_Write_Text@i,f
  1888     04F4  3000               	movlw	0
  1889     04F5  3DF9               	addwfc	SUART_Write_Text@i+1,f
  1890     04F6                     l1183:
  1891     04F6  0875               	movf	SUART_Write_Text@text,w
  1892     04F7  0778               	addwf	SUART_Write_Text@i,w
  1893     04F8  0084               	movwf	4
  1894     04F9  0876               	movf	SUART_Write_Text@text+1,w
  1895     04FA  3D79               	addwfc	SUART_Write_Text@i+1,w
  1896     04FB  0085               	movwf	5
  1897     04FC  0012               	moviw fsr0++
  1898     04FD  1D03               	btfss	3,2
  1899     04FE  2D00               	goto	u601
  1900     04FF  2D01               	goto	u600
  1901     0500                     u601:
  1902     0500  2CE8               	goto	l1179
  1903     0501                     u600:
  1904     0501                     l227:
  1905     0501  0008               	return
  1906     0502                     __end_of_SUART_Write_Text:
  1907                           
  1908                           	psect	text3
  1909     0539                     __ptext3:	
  1910 ;; *************** function _SUART_Transmit *****************
  1911 ;; Defined at:
  1912 ;;		line 159 in file "SEUSART.c"
  1913 ;; Parameters:    Size  Location     Type
  1914 ;;  DataValue       1    wreg     const unsigned char 
  1915 ;; Auto vars:     Size  Location     Type
  1916 ;;  DataValue       1    2[COMMON] const unsigned char 
  1917 ;;  i               1    4[COMMON] unsigned char 
  1918 ;;  gie             1    3[COMMON] unsigned char 
  1919 ;; Return value:  Size  Location     Type
  1920 ;;                  1    wreg      void 
  1921 ;; Registers used:
  1922 ;;		wreg, status,2, status,0, pclath, cstack
  1923 ;; Tracked objects:
  1924 ;;		On entry : 0/0
  1925 ;;		On exit  : 0/0
  1926 ;;		Unchanged: 0/0
  1927 ;; Data sizes:     COMMON   BANK0   BANK1   BANK2   BANK3   BANK4   BANK5   BANK6   BANK7   BANK8   BANK9  BANK10  BANK1
      +1  BANK12  BANK13  BANK14  BANK15  BANK16  BANK17  BANK18  BANK19  BANK20  BANK21  BANK22  BANK23  BANK24  BANK25
  1928 ;;      Params:         0       0       0       0       0       0       0       0       0       0       0       0       
      +0       0       0       0       0       0       0       0       0       0       0       0       0       0       0
  1929 ;;      Locals:         3       0       0       0       0       0       0       0       0       0       0       0       
      +0       0       0       0       0       0       0       0       0       0       0       0       0       0       0
  1930 ;;      Temps:          1       0       0       0       0       0       0       0       0       0       0       0       
      +0       0       0       0       0       0       0       0       0       0       0       0       0       0       0
  1931 ;;      Totals:         4       0       0       0       0       0       0       0       0       0       0       0       
      +0       0       0       0       0       0       0       0       0       0       0       0       0       0       0
  1932 ;;Total ram usage:        4 bytes
  1933 ;; Hardware stack levels used: 1
  1934 ;; Hardware stack levels required when called: 1
  1935 ;; This function calls:
  1936 ;;		_SUART_Lock
  1937 ;;		_SUART_Unlock
  1938 ;; This function is called by:
  1939 ;;		_SUART_Write_Text
  1940 ;;		_SUART_Write_Char
  1941 ;; This function uses a non-reentrant model
  1942 ;;
  1943                           
  1944     0539                     _SUART_Transmit:	
  1945                           ;psect for function _SUART_Transmit
  1946                           
  1947                           
  1948                           ;incstack = 0
  1949                           ; Regs used in _SUART_Transmit: [wreg+status,2+status,0+pclath+cstack]
  1950                           ;SUART_Transmit@DataValue stored from wreg
  1951     0539  00F2               	movwf	SUART_Transmit@DataValue
  1952     053A                     l773:
  1953                           
  1954                           ;SEUSART.c: 159: void SUART_Transmit(const char DataValue);SEUSART.c: 160: {;SEUSART.c: 
      +                          161:     unsigned char gie = SUART_Lock();
  1955     053A  3184  24AA  3185   	fcall	_SUART_Lock
  1956     053D  00F3               	movwf	SUART_Transmit@gie
  1957     053E                     l775:
  1958                           
  1959                           ;SEUSART.c: 164:     LATBbits.LATB1 = 0;
  1960     053E  0022               	movlb	2	; select bank2
  1961     053F  108D               	bcf	13,1	;volatile
  1962     0540                     l777:
  1963                           
  1964                           ;SEUSART.c: 165:     _delay((unsigned long)(((1000000UL/2400))*(32000000/4000000.0)));
  1965     0540  3005               	movlw	5
  1966     0541  00F1               	movwf	??_SUART_Transmit
  1967     0542  3051               	movlw	81
  1968     0543                     u977:
  1969     0543  0B89               	decfsz	9,f
  1970     0544  2D43               	goto	u977
  1971     0545  0BF1               	decfsz	??_SUART_Transmit,f
  1972     0546  2D43               	goto	u977
  1973     0547  0000               	nop
  1974     0548                     l779:
  1975                           
  1976                           ;SEUSART.c: 168:     for (unsigned char i = 0; i < 8; i++)
  1977     0548  01F4               	clrf	SUART_Transmit@i
  1978     0549                     l785:
  1979                           
  1980                           ;SEUSART.c: 169:     {;SEUSART.c: 170:         LATBbits.LATB1 = ((DataValue >> i) & 0x1)
      +                           ? 1 : 0;
  1981     0549  0872               	movf	SUART_Transmit@DataValue,w
  1982     054A  00F1               	movwf	??_SUART_Transmit
  1983     054B  0A74               	incf	SUART_Transmit@i,w
  1984     054C  2D4E               	goto	u14
  1985     054D                     u15:
  1986     054D  36F1               	lsrf	??_SUART_Transmit,f
  1987     054E                     u14:
  1988     054E  0B89               	decfsz	9,f
  1989     054F  2D4D               	goto	u15
  1990     0550  1871               	btfsc	??_SUART_Transmit,0
  1991     0551  2D53               	goto	u21
  1992     0552  2D56               	goto	u20
  1993     0553                     u21:
  1994     0553  0022               	movlb	2	; select bank2
  1995     0554  148D               	bsf	13,1	;volatile
  1996     0555  2D58               	goto	u34
  1997     0556                     u20:
  1998     0556  0022               	movlb	2	; select bank2
  1999     0557  108D               	bcf	13,1	;volatile
  2000     0558                     u34:
  2001     0558                     l787:
  2002                           
  2003                           ;SEUSART.c: 171:         _delay((unsigned long)(((1000000UL/2400))*(32000000/4000000.0))
      +                          );
  2004     0558  3005               	movlw	5
  2005     0559  00F1               	movwf	??_SUART_Transmit
  2006     055A  3051               	movlw	81
  2007     055B                     u987:
  2008     055B  0B89               	decfsz	9,f
  2009     055C  2D5B               	goto	u987
  2010     055D  0BF1               	decfsz	??_SUART_Transmit,f
  2011     055E  2D5B               	goto	u987
  2012     055F  0000               	nop
  2013     0560                     l789:
  2014                           
  2015                           ;SEUSART.c: 172:     }
  2016     0560  3001               	movlw	1
  2017     0561  00F1               	movwf	??_SUART_Transmit
  2018     0562  0871               	movf	??_SUART_Transmit,w
  2019     0563  07F4               	addwf	SUART_Transmit@i,f
  2020     0564  3008               	movlw	8
  2021     0565  0274               	subwf	SUART_Transmit@i,w
  2022     0566  1C03               	skipc
  2023     0567  2D69               	goto	u41
  2024     0568  2D6A               	goto	u40
  2025     0569                     u41:
  2026     0569  2D49               	goto	l785
  2027     056A                     u40:
  2028     056A                     l220:
  2029                           
  2030                           ;SEUSART.c: 175:     LATBbits.LATB1 = 1;
  2031     056A  0022               	movlb	2	; select bank2
  2032     056B  148D               	bsf	13,1	;volatile
  2033     056C                     l791:
  2034                           
  2035                           ;SEUSART.c: 176:     _delay((unsigned long)(((1000000UL/2400))*(32000000/4000000.0)));
  2036     056C  3005               	movlw	5
  2037     056D  00F1               	movwf	??_SUART_Transmit
  2038     056E  3051               	movlw	81
  2039     056F                     u997:
  2040     056F  0B89               	decfsz	9,f
  2041     0570  2D6F               	goto	u997
  2042     0571  0BF1               	decfsz	??_SUART_Transmit,f
  2043     0572  2D6F               	goto	u997
  2044     0573  0000               	nop
  2045     0574                     l793:
  2046                           
  2047                           ;SEUSART.c: 178:     SUART_Unlock(gie);
  2048     0574  0873               	movf	SUART_Transmit@gie,w
  2049     0575  3184  24B1  3185   	fcall	_SUART_Unlock
  2050     0578                     l221:
  2051     0578  0008               	return
  2052     0579                     __end_of_SUART_Transmit:
  2053                           
  2054                           	psect	text4
  2055     04B1                     __ptext4:	
  2056 ;; *************** function _SUART_Unlock *****************
  2057 ;; Defined at:
  2058 ;;		line 45 in file "SEUSART.c"
  2059 ;; Parameters:    Size  Location     Type
  2060 ;;  gie             1    wreg     unsigned char 
  2061 ;; Auto vars:     Size  Location     Type
  2062 ;;  gie             1    0[COMMON] unsigned char 
  2063 ;; Return value:  Size  Location     Type
  2064 ;;                  1    wreg      void 
  2065 ;; Registers used:
  2066 ;;		wreg, status,0
  2067 ;; Tracked objects:
  2068 ;;		On entry : 0/0
  2069 ;;		On exit  : 0/0
  2070 ;;		Unchanged: 0/0
  2071 ;; Data sizes:     COMMON   BANK0   BANK1   BANK2   BANK3   BANK4   BANK5   BANK6   BANK7   BANK8   BANK9  BANK10  BANK1
      +1  BANK12  BANK13  BANK14  BANK15  BANK16  BANK17  BANK18  BANK19  BANK20  BANK21  BANK22  BANK23  BANK24  BANK25
  2072 ;;      Params:         0       0       0       0       0       0       0       0       0       0       0       0       
      +0       0       0       0       0       0       0       0       0       0       0       0       0       0       0
  2073 ;;      Locals:         1       0       0       0       0       0       0       0       0       0       0       0       
      +0       0       0       0       0       0       0       0       0       0       0       0       0       0       0
  2074 ;;      Temps:          0       0       0       0       0       0       0       0       0       0       0       0       
      +0       0       0       0       0       0       0       0       0       0       0       0       0       0       0
  2075 ;;      Totals:         1       0       0       0       0       0       0       0       0       0       0       0       
      +0       0       0       0       0       0       0       0       0       0       0       0       0       0       0
  2076 ;;Total ram usage:        1 bytes
  2077 ;; Hardware stack levels used: 1
  2078 ;; This function calls:
  2079 ;;		Nothing
  2080 ;; This function is called by:
  2081 ;;		_SUART_Transmit
  2082 ;;		_SUART_Receive
  2083 ;; This function uses a non-reentrant model
  2084 ;;
  2085                           
  2086     04B1                     _SUART_Unlock:	
  2087                           ;psect for function _SUART_Unlock
  2088                           
  2089                           
  2090                           ;incstack = 0
  2091                           ; Regs used in _SUART_Unlock: [wreg+status,0]
  2092                           ;SUART_Unlock@gie stored from wreg
  2093     04B1  00F0               	movwf	SUART_Unlock@gie
  2094     04B2                     l771:
  2095                           
  2096                           ;SEUSART.c: 45: static __attribute__((inline)) void SUART_Unlock(unsigned char gie);SEUS
      +                          ART.c: 46: {;SEUSART.c: 48:     INTCONbits.GIE = gie;
  2097     04B2  0C70               	rrf	SUART_Unlock@gie,w
  2098     04B3  1C03               	skipc
  2099     04B4  138B               	bcf	11,7	;volatile
  2100     04B5  1803               	skipnc
  2101     04B6  178B               	bsf	11,7	;volatile
  2102     04B7                     l197:
  2103     04B7  0008               	return
  2104     04B8                     __end_of_SUART_Unlock:
  2105                           
  2106                           	psect	text5
  2107     04AA                     __ptext5:	
  2108 ;; *************** function _SUART_Lock *****************
  2109 ;; Defined at:
  2110 ;;		line 34 in file "SEUSART.c"
  2111 ;; Parameters:    Size  Location     Type
  2112 ;;		None
  2113 ;; Auto vars:     Size  Location     Type
  2114 ;;  gie             1    0[COMMON] unsigned char 
  2115 ;; Return value:  Size  Location     Type
  2116 ;;                  1    wreg      unsigned char 
  2117 ;; Registers used:
  2118 ;;		wreg, status,2
  2119 ;; Tracked objects:
  2120 ;;		On entry : 0/0
  2121 ;;		On exit  : 0/0
  2122 ;;		Unchanged: 0/0
  2123 ;; Data sizes:     COMMON   BANK0   BANK1   BANK2   BANK3   BANK4   BANK5   BANK6   BANK7   BANK8   BANK9  BANK10  BANK1
      +1  BANK12  BANK13  BANK14  BANK15  BANK16  BANK17  BANK18  BANK19  BANK20  BANK21  BANK22  BANK23  BANK24  BANK25
  2124 ;;      Params:         0       0       0       0       0       0       0       0       0       0       0       0       
      +0       0       0       0       0       0       0       0       0       0       0       0       0       0       0
  2125 ;;      Locals:         1       0       0       0       0       0       0       0       0       0       0       0       
      +0       0       0       0       0       0       0       0       0       0       0       0       0       0       0
  2126 ;;      Temps:          0       0       0       0       0       0       0       0       0       0       0       0       
      +0       0       0       0       0       0       0       0       0       0       0       0       0       0       0
  2127 ;;      Totals:         1       0       0       0       0       0       0       0       0       0       0       0       
      +0       0       0       0       0       0       0       0       0       0       0       0       0       0       0
  2128 ;;Total ram usage:        1 bytes
  2129 ;; Hardware stack levels used: 1
  2130 ;; This function calls:
  2131 ;;		Nothing
  2132 ;; This function is called by:
  2133 ;;		_SUART_Transmit
  2134 ;;		_SUART_Receive
  2135 ;; This function uses a non-reentrant model
  2136 ;;
  2137                           
  2138     04AA                     _SUART_Lock:	
  2139                           ;psect for function _SUART_Lock
  2140                           
  2141     04AA                     l763:	
  2142                           ;incstack = 0
  2143                           ; Regs used in _SUART_Lock: [wreg+status,2]
  2144                           
  2145                           
  2146                           ;SEUSART.c: 37:     unsigned char gie = INTCONbits.GIE;
  2147     04AA  3000               	movlw	0
  2148     04AB  1B8B               	btfsc	11,7	;volatile
  2149     04AC  3001               	movlw	1
  2150     04AD  00F0               	movwf	SUART_Lock@gie
  2151     04AE                     l765:
  2152                           
  2153                           ;SEUSART.c: 38:     INTCONbits.GIE = 0;
  2154     04AE  138B               	bcf	11,7	;volatile
  2155     04AF                     l767:
  2156                           
  2157                           ;SEUSART.c: 39:     return gie;
  2158     04AF  0870               	movf	SUART_Lock@gie,w
  2159     04B0                     l194:
  2160     04B0  0008               	return
  2161     04B1                     __end_of_SUART_Lock:
  2162                           
  2163                           	psect	text6
  2164     06D5                     __ptext6:	
  2165 ;; *************** function _nmea_checksum_ok *****************
  2166 ;; Defined at:
  2167 ;;		line 47 in file "main.c"
  2168 ;; Parameters:    Size  Location     Type
  2169 ;;  s               2    3[COMMON] PTR const unsigned char 
  2170 ;;		 -> line(128), 
  2171 ;; Auto vars:     Size  Location     Type
  2172 ;;  p               2   12[COMMON] PTR const unsigned char 
  2173 ;;		 -> line(128), 
  2174 ;;  lo              2   10[COMMON] int 
  2175 ;;  hi              2    8[COMMON] int 
  2176 ;;  cs              1    7[COMMON] unsigned char 
  2177 ;; Return value:  Size  Location     Type
  2178 ;;                  1    wreg      unsigned char 
  2179 ;; Registers used:
  2180 ;;		wreg, fsr1l, fsr1h, status,2, status,0, pclath, cstack
  2181 ;; Tracked objects:
  2182 ;;		On entry : 0/0
  2183 ;;		On exit  : 0/0
  2184 ;;		Unchanged: 0/0
  2185 ;; Data sizes:     COMMON   BANK0   BANK1   BANK2   BANK3   BANK4   BANK5   BANK6   BANK7   BANK8   BANK9  BANK10  BANK1
      +1  BANK12  BANK13  BANK14  BANK15  BANK16  BANK17  BANK18  BANK19  BANK20  BANK21  BANK22  BANK23  BANK24  BANK25
  2186 ;;      Params:         2       0       0       0       0       0       0       0       0       0       0       0       
      +0       0       0       0       0       0       0       0       0       0       0       0       0       0       0
  2187 ;;      Locals:         7       0       0       0       0       0       0       0       0       0       0       0       
      +0       0       0       0       0       0       0       0       0       0       0       0       0       0       0
  2188 ;;      Temps:          2       0       0       0       0       0       0       0       0       0       0       0       
      +0       0       0       0       0       0       0       0       0       0       0       0       0       0       0
  2189 ;;      Totals:        11       0       0       0       0       0       0       0       0       0       0       0       
      +0       0       0       0       0       0       0       0       0       0       0       0       0       0       0
  2190 ;;Total ram usage:       11 bytes
  2191 ;; Hardware stack levels used: 1
  2192 ;; Hardware stack levels required when called: 1
  2193 ;; This function calls:
  2194 ;;		_hex_nibble
  2195 ;; This function is called by:
  2196 ;;		_main
  2197 ;; This function uses a non-reentrant model
  2198 ;;
  2199                           
  2200     06D5                     _nmea_checksum_ok:	
  2201                           ;psect for function _nmea_checksum_ok
  2202                           
  2203     06D5                     l1255:	
  2204                           ;incstack = 0
  2205                           ; Regs used in _nmea_checksum_ok: [wreg+fsr1l+fsr1h+status,2+status,0+pclath+cstack]
  2206                           
  2207                           
  2208                           ;main.c: 47: static unsigned char nmea_checksum_ok(const char *s);main.c: 48: {;main.c: 
      +                          49:     if (!s || s[0] != '$') return 0;
  2209     06D5  0873               	movf	nmea_checksum_ok@s,w
  2210     06D6  0474               	iorwf	nmea_checksum_ok@s+1,w
  2211     06D7  1903               	btfsc	3,2
  2212     06D8  2EDA               	goto	u771
  2213     06D9  2EDB               	goto	u770
  2214     06DA                     u771:
  2215     06DA  2EE5               	goto	l1259
  2216     06DB                     u770:
  2217     06DB                     l1257:
  2218     06DB  0873               	movf	nmea_checksum_ok@s,w
  2219     06DC  0086               	movwf	6
  2220     06DD  0874               	movf	nmea_checksum_ok@s+1,w
  2221     06DE  0087               	movwf	7
  2222     06DF  3024               	movlw	36
  2223     06E0  0601               	xorwf	1,w
  2224     06E1  1903               	btfsc	3,2
  2225     06E2  2EE4               	goto	u781
  2226     06E3  2EE5               	goto	u780
  2227     06E4                     u781:
  2228     06E4  2EE7               	goto	l1263
  2229     06E5                     u780:
  2230     06E5                     l1259:
  2231     06E5  3000               	movlw	0
  2232     06E6  2F61               	goto	l48
  2233     06E7                     l1263:
  2234                           
  2235                           ;main.c: 51:     unsigned char cs = 0;
  2236     06E7  01F7               	clrf	nmea_checksum_ok@cs
  2237     06E8                     l1265:
  2238                           
  2239                           ;main.c: 52:     const char *p = s + 1;
  2240     06E8  0873               	movf	nmea_checksum_ok@s,w
  2241     06E9  3E01               	addlw	1
  2242     06EA  00FC               	movwf	nmea_checksum_ok@p
  2243     06EB  3000               	movlw	0
  2244     06EC  3D74               	addwfc	nmea_checksum_ok@s+1,w
  2245     06ED  00FD               	movwf	nmea_checksum_ok@p+1
  2246                           
  2247                           ;main.c: 54:     while (*p && *p != '*' && *p != '\r' && *p != '\n')
  2248     06EE  2EFB               	goto	l1271
  2249     06EF                     l1267:
  2250                           
  2251                           ;main.c: 55:         cs ^= (unsigned char)(*p++);
  2252     06EF  087C               	movf	nmea_checksum_ok@p,w
  2253     06F0  0086               	movwf	6
  2254     06F1  087D               	movf	nmea_checksum_ok@p+1,w
  2255     06F2  0087               	movwf	7
  2256     06F3  0801               	movf	1,w
  2257     06F4  00F5               	movwf	??_nmea_checksum_ok
  2258     06F5  0875               	movf	??_nmea_checksum_ok,w
  2259     06F6  06F7               	xorwf	nmea_checksum_ok@cs,f
  2260     06F7                     l1269:
  2261     06F7  3001               	movlw	1
  2262     06F8  07FC               	addwf	nmea_checksum_ok@p,f
  2263     06F9  3000               	movlw	0
  2264     06FA  3DFD               	addwfc	nmea_checksum_ok@p+1,f
  2265     06FB                     l1271:
  2266                           
  2267                           ;main.c: 54:     while (*p && *p != '*' && *p != '\r' && *p != '\n')
  2268     06FB  087C               	movf	nmea_checksum_ok@p,w
  2269     06FC  0086               	movwf	6
  2270     06FD  087D               	movf	nmea_checksum_ok@p+1,w
  2271     06FE  0087               	movwf	7
  2272     06FF  0801               	movf	1,w
  2273     0700  1903               	btfsc	3,2
  2274     0701  2F03               	goto	u791
  2275     0702  2F04               	goto	u790
  2276     0703                     u791:
  2277     0703  2F22               	goto	l1279
  2278     0704                     u790:
  2279     0704                     l1273:
  2280     0704  087C               	movf	nmea_checksum_ok@p,w
  2281     0705  0086               	movwf	6
  2282     0706  087D               	movf	nmea_checksum_ok@p+1,w
  2283     0707  0087               	movwf	7
  2284     0708  302A               	movlw	42
  2285     0709  0601               	xorwf	1,w
  2286     070A  1903               	btfsc	3,2
  2287     070B  2F0D               	goto	u801
  2288     070C  2F0E               	goto	u800
  2289     070D                     u801:
  2290     070D  2F22               	goto	l1279
  2291     070E                     u800:
  2292     070E                     l1275:
  2293     070E  087C               	movf	nmea_checksum_ok@p,w
  2294     070F  0086               	movwf	6
  2295     0710  087D               	movf	nmea_checksum_ok@p+1,w
  2296     0711  0087               	movwf	7
  2297     0712  300D               	movlw	13
  2298     0713  0601               	xorwf	1,w
  2299     0714  1903               	btfsc	3,2
  2300     0715  2F17               	goto	u811
  2301     0716  2F18               	goto	u810
  2302     0717                     u811:
  2303     0717  2F22               	goto	l1279
  2304     0718                     u810:
  2305     0718                     l1277:
  2306     0718  087C               	movf	nmea_checksum_ok@p,w
  2307     0719  0086               	movwf	6
  2308     071A  087D               	movf	nmea_checksum_ok@p+1,w
  2309     071B  0087               	movwf	7
  2310     071C  300A               	movlw	10
  2311     071D  0601               	xorwf	1,w
  2312     071E  1D03               	btfss	3,2
  2313     071F  2F21               	goto	u821
  2314     0720  2F22               	goto	u820
  2315     0721                     u821:
  2316     0721  2EEF               	goto	l1267
  2317     0722                     u820:
  2318     0722                     l1279:
  2319                           
  2320                           ;main.c: 57:     if (*p != '*') return 0;
  2321     0722  087C               	movf	nmea_checksum_ok@p,w
  2322     0723  0086               	movwf	6
  2323     0724  087D               	movf	nmea_checksum_ok@p+1,w
  2324     0725  0087               	movwf	7
  2325     0726  302A               	movlw	42
  2326     0727  0601               	xorwf	1,w
  2327     0728  1903               	btfsc	3,2
  2328     0729  2F2B               	goto	u831
  2329     072A  2F2C               	goto	u830
  2330     072B                     u831:
  2331     072B  2F2D               	goto	l1285
  2332     072C                     u830:
  2333     072C  2EE5               	goto	l1259
  2334     072D                     l1285:
  2335                           
  2336                           ;main.c: 59:     int hi = hex_nibble(*(p + 1));
  2337     072D  087C               	movf	nmea_checksum_ok@p,w
  2338     072E  0086               	movwf	6
  2339     072F  087D               	movf	nmea_checksum_ok@p+1,w
  2340     0730  0087               	movwf	7
  2341     0731  3141               	addfsr 1,1
  2342     0732  0801               	movf	1,w
  2343     0733  3185  2579  3186   	fcall	_hex_nibble
  2344     0736  0871               	movf	?_hex_nibble+1,w
  2345     0737  00F9               	movwf	nmea_checksum_ok@hi+1
  2346     0738  0870               	movf	?_hex_nibble,w
  2347     0739  00F8               	movwf	nmea_checksum_ok@hi
  2348                           
  2349                           ;main.c: 60:     int lo = hex_nibble(*(p + 2));
  2350     073A  087C               	movf	nmea_checksum_ok@p,w
  2351     073B  0086               	movwf	6
  2352     073C  087D               	movf	nmea_checksum_ok@p+1,w
  2353     073D  0087               	movwf	7
  2354     073E  3142               	addfsr 1,2
  2355     073F  0801               	movf	1,w
  2356     0740  3185  2579  3186   	fcall	_hex_nibble
  2357     0743  0871               	movf	?_hex_nibble+1,w
  2358     0744  00FB               	movwf	nmea_checksum_ok@lo+1
  2359     0745  0870               	movf	?_hex_nibble,w
  2360     0746  00FA               	movwf	nmea_checksum_ok@lo
  2361     0747                     l1287:
  2362                           
  2363                           ;main.c: 61:     if (hi < 0 || lo < 0) return 0;
  2364     0747  1BF9               	btfsc	nmea_checksum_ok@hi+1,7
  2365     0748  2F4A               	goto	u841
  2366     0749  2F4B               	goto	u840
  2367     074A                     u841:
  2368     074A  2EE5               	goto	l1259
  2369     074B                     u840:
  2370     074B                     l1289:
  2371     074B  1FFB               	btfss	nmea_checksum_ok@lo+1,7
  2372     074C  2F4E               	goto	u851
  2373     074D  2F4F               	goto	u850
  2374     074E                     u851:
  2375     074E  2F50               	goto	l1295
  2376     074F                     u850:
  2377     074F  2EE5               	goto	l1259
  2378     0750                     l1295:
  2379                           
  2380                           ;main.c: 63:     return (cs == (unsigned char)((hi << 4) | lo));
  2381     0750  0878               	movf	nmea_checksum_ok@hi,w
  2382     0751  00F5               	movwf	??_nmea_checksum_ok
  2383     0752  3004               	movlw	4
  2384     0753                     u865:
  2385     0753  35F5               	lslf	??_nmea_checksum_ok,f
  2386     0754  0B89               	decfsz	9,f
  2387     0755  2F53               	goto	u865
  2388     0756  087A               	movf	nmea_checksum_ok@lo,w
  2389     0757  0475               	iorwf	??_nmea_checksum_ok,w
  2390     0758  00F6               	movwf	??_nmea_checksum_ok+1
  2391     0759  0876               	movf	??_nmea_checksum_ok+1,w
  2392     075A  0677               	xorwf	nmea_checksum_ok@cs,w
  2393     075B  1903               	skipnz
  2394     075C  2F5E               	goto	u871
  2395     075D  2F60               	goto	u870
  2396     075E                     u871:
  2397     075E  3001               	movlw	1
  2398     075F  2F61               	goto	u880
  2399     0760                     u870:
  2400     0760  3000               	movlw	0
  2401     0761                     u880:
  2402     0761                     l48:
  2403     0761  0008               	return
  2404     0762                     __end_of_nmea_checksum_ok:
  2405                           
  2406                           	psect	text7
  2407     0579                     __ptext7:	
  2408 ;; *************** function _hex_nibble *****************
  2409 ;; Defined at:
  2410 ;;		line 39 in file "main.c"
  2411 ;; Parameters:    Size  Location     Type
  2412 ;;  c               1    wreg     unsigned char 
  2413 ;; Auto vars:     Size  Location     Type
  2414 ;;  c               1    2[COMMON] unsigned char 
  2415 ;; Return value:  Size  Location     Type
  2416 ;;                  2    0[COMMON] int 
  2417 ;; Registers used:
  2418 ;;		wreg
  2419 ;; Tracked objects:
  2420 ;;		On entry : 0/0
  2421 ;;		On exit  : 0/0
  2422 ;;		Unchanged: 0/0
  2423 ;; Data sizes:     COMMON   BANK0   BANK1   BANK2   BANK3   BANK4   BANK5   BANK6   BANK7   BANK8   BANK9  BANK10  BANK1
      +1  BANK12  BANK13  BANK14  BANK15  BANK16  BANK17  BANK18  BANK19  BANK20  BANK21  BANK22  BANK23  BANK24  BANK25
  2424 ;;      Params:         2       0       0       0       0       0       0       0       0       0       0       0       
      +0       0       0       0       0       0       0       0       0       0       0       0       0       0       0
  2425 ;;      Locals:         1       0       0       0       0       0       0       0       0       0       0       0       
      +0       0       0       0       0       0       0       0       0       0       0       0       0       0       0
  2426 ;;      Temps:          0       0       0       0       0       0       0       0       0       0       0       0       
      +0       0       0       0       0       0       0       0       0       0       0       0       0       0       0
  2427 ;;      Totals:         3       0       0       0       0       0       0       0       0       0       0       0       
      +0       0       0       0       0       0       0       0       0       0       0       0       0       0       0
  2428 ;;Total ram usage:        3 bytes
  2429 ;; Hardware stack levels used: 1
  2430 ;; This function calls:
  2431 ;;		Nothing
  2432 ;; This function is called by:
  2433 ;;		_nmea_checksum_ok
  2434 ;; This function uses a non-reentrant model
  2435 ;;
  2436                           
  2437     0579                     _hex_nibble:	
  2438                           ;psect for function _hex_nibble
  2439                           
  2440                           
  2441                           ;incstack = 0
  2442                           ; Regs used in _hex_nibble: [wreg]
  2443                           ;hex_nibble@c stored from wreg
  2444     0579  00F2               	movwf	hex_nibble@c
  2445     057A                     l1185:
  2446                           
  2447                           ;main.c: 39: static int hex_nibble(char c);main.c: 40: {;main.c: 41:     if (c >= '0' &&
      +                           c <= '9') return (int)(c - '0');
  2448     057A  3030               	movlw	48
  2449     057B  0272               	subwf	hex_nibble@c,w
  2450     057C  1C03               	skipc
  2451     057D  2D7F               	goto	u611
  2452     057E  2D80               	goto	u610
  2453     057F                     u611:
  2454     057F  2D8E               	goto	l1193
  2455     0580                     u610:
  2456     0580                     l1187:
  2457     0580  303A               	movlw	58
  2458     0581  0272               	subwf	hex_nibble@c,w
  2459     0582  1803               	skipnc
  2460     0583  2D85               	goto	u621
  2461     0584  2D86               	goto	u620
  2462     0585                     u621:
  2463     0585  2D8E               	goto	l1193
  2464     0586                     u620:
  2465     0586                     l1189:
  2466     0586  0872               	movf	hex_nibble@c,w
  2467     0587  3ED0               	addlw	208
  2468     0588  00F0               	movwf	?_hex_nibble
  2469     0589  30FF               	movlw	255
  2470     058A  1803               	skipnc
  2471     058B  3000               	movlw	0
  2472     058C  00F1               	movwf	?_hex_nibble+1
  2473     058D  2DBA               	goto	l40
  2474     058E                     l1193:
  2475                           
  2476                           ;main.c: 42:     if (c >= 'A' && c <= 'F') return (int)(c - 'A' + 10);
  2477     058E  3041               	movlw	65
  2478     058F  0272               	subwf	hex_nibble@c,w
  2479     0590  1C03               	skipc
  2480     0591  2D93               	goto	u631
  2481     0592  2D94               	goto	u630
  2482     0593                     u631:
  2483     0593  2DA2               	goto	l1201
  2484     0594                     u630:
  2485     0594                     l1195:
  2486     0594  3047               	movlw	71
  2487     0595  0272               	subwf	hex_nibble@c,w
  2488     0596  1803               	skipnc
  2489     0597  2D99               	goto	u641
  2490     0598  2D9A               	goto	u640
  2491     0599                     u641:
  2492     0599  2DA2               	goto	l1201
  2493     059A                     u640:
  2494     059A                     l1197:
  2495     059A  0872               	movf	hex_nibble@c,w
  2496     059B  3EC9               	addlw	201
  2497     059C  00F0               	movwf	?_hex_nibble
  2498     059D  30FF               	movlw	255
  2499     059E  1803               	skipnc
  2500     059F  3000               	movlw	0
  2501     05A0  00F1               	movwf	?_hex_nibble+1
  2502     05A1  2DBA               	goto	l40
  2503     05A2                     l1201:
  2504                           
  2505                           ;main.c: 43:     if (c >= 'a' && c <= 'f') return (int)(c - 'a' + 10);
  2506     05A2  3061               	movlw	97
  2507     05A3  0272               	subwf	hex_nibble@c,w
  2508     05A4  1C03               	skipc
  2509     05A5  2DA7               	goto	u651
  2510     05A6  2DA8               	goto	u650
  2511     05A7                     u651:
  2512     05A7  2DB6               	goto	l1209
  2513     05A8                     u650:
  2514     05A8                     l1203:
  2515     05A8  3067               	movlw	103
  2516     05A9  0272               	subwf	hex_nibble@c,w
  2517     05AA  1803               	skipnc
  2518     05AB  2DAD               	goto	u661
  2519     05AC  2DAE               	goto	u660
  2520     05AD                     u661:
  2521     05AD  2DB6               	goto	l1209
  2522     05AE                     u660:
  2523     05AE                     l1205:
  2524     05AE  0872               	movf	hex_nibble@c,w
  2525     05AF  3EA9               	addlw	169
  2526     05B0  00F0               	movwf	?_hex_nibble
  2527     05B1  30FF               	movlw	255
  2528     05B2  1803               	skipnc
  2529     05B3  3000               	movlw	0
  2530     05B4  00F1               	movwf	?_hex_nibble+1
  2531     05B5  2DBA               	goto	l40
  2532     05B6                     l1209:
  2533                           
  2534                           ;main.c: 44:     return -1;
  2535     05B6  30FF               	movlw	255
  2536     05B7  00F0               	movwf	?_hex_nibble
  2537     05B8  30FF               	movlw	255
  2538     05B9  00F1               	movwf	?_hex_nibble+1
  2539     05BA                     l40:
  2540     05BA  0008               	return
  2541     05BB                     __end_of_hex_nibble:
  2542                           
  2543                           	psect	text8
  2544     0502                     __ptext8:	
  2545 ;; *************** function _initMain *****************
  2546 ;; Defined at:
  2547 ;;		line 109 in file "main.c"
  2548 ;; Parameters:    Size  Location     Type
  2549 ;;		None
  2550 ;; Auto vars:     Size  Location     Type
  2551 ;;		None
  2552 ;; Return value:  Size  Location     Type
  2553 ;;                  1    wreg      void 
  2554 ;; Registers used:
  2555 ;;		wreg, status,2, status,0, pclath, cstack
  2556 ;; Tracked objects:
  2557 ;;		On entry : 0/0
  2558 ;;		On exit  : 0/0
  2559 ;;		Unchanged: 0/0
  2560 ;; Data sizes:     COMMON   BANK0   BANK1   BANK2   BANK3   BANK4   BANK5   BANK6   BANK7   BANK8   BANK9  BANK10  BANK1
      +1  BANK12  BANK13  BANK14  BANK15  BANK16  BANK17  BANK18  BANK19  BANK20  BANK21  BANK22  BANK23  BANK24  BANK25
  2561 ;;      Params:         0       0       0       0       0       0       0       0       0       0       0       0       
      +0       0       0       0       0       0       0       0       0       0       0       0       0       0       0
  2562 ;;      Locals:         0       0       0       0       0       0       0       0       0       0       0       0       
      +0       0       0       0       0       0       0       0       0       0       0       0       0       0       0
  2563 ;;      Temps:          2       0       0       0       0       0       0       0       0       0       0       0       
      +0       0       0       0       0       0       0       0       0       0       0       0       0       0       0
  2564 ;;      Totals:         2       0       0       0       0       0       0       0       0       0       0       0       
      +0       0       0       0       0       0       0       0       0       0       0       0       0       0       0
  2565 ;;Total ram usage:        2 bytes
  2566 ;; Hardware stack levels used: 1
  2567 ;; Hardware stack levels required when called: 1
  2568 ;; This function calls:
  2569 ;;		_internal_32
  2570 ;; This function is called by:
  2571 ;;		_main
  2572 ;; This function uses a non-reentrant model
  2573 ;;
  2574                           
  2575     0502                     _initMain:	
  2576                           ;psect for function _initMain
  2577                           
  2578     0502                     l973:	
  2579                           ;incstack = 0
  2580                           ; Regs used in _initMain: [wreg+status,2+status,0+pclath+cstack]
  2581                           
  2582                           
  2583                           ;main.c: 112:     internal_32();
  2584     0502  3184  24C0  3185   	fcall	_internal_32
  2585     0505                     l975:
  2586                           
  2587                           ;main.c: 115:     _delay((unsigned long)((100)*(32000000/4000.0)));
  2588     0505  3005               	movlw	5
  2589     0506  00F1               	movwf	??_initMain+1
  2590     0507  300F               	movlw	15
  2591     0508  00F0               	movwf	??_initMain
  2592     0509  30F1               	movlw	241
  2593     050A                     u1007:
  2594     050A  0B89               	decfsz	9,f
  2595     050B  2D0A               	goto	u1007
  2596     050C  0BF0               	decfsz	??_initMain,f
  2597     050D  2D0A               	goto	u1007
  2598     050E  0BF1               	decfsz	??_initMain+1,f
  2599     050F  2D0A               	goto	u1007
  2600     0510  0000               	nop
  2601     0511                     l977:
  2602                           
  2603                           ;main.c: 118:     TRISBbits.TRISB0 = 1; ANSELBbits.ANSB0 = 0;
  2604     0511  0021               	movlb	1	; select bank1
  2605     0512  140D               	bsf	13,0	;volatile
  2606     0513                     l979:
  2607     0513  0023               	movlb	3	; select bank3
  2608     0514  100D               	bcf	13,0	;volatile
  2609     0515                     l981:
  2610                           
  2611                           ;main.c: 119:     TRISBbits.TRISB1 = 0; ANSELBbits.ANSB1 = 0;
  2612     0515  0021               	movlb	1	; select bank1
  2613     0516  108D               	bcf	13,1	;volatile
  2614     0517                     l983:
  2615     0517  0023               	movlb	3	; select bank3
  2616     0518  108D               	bcf	13,1	;volatile
  2617     0519                     l985:
  2618                           
  2619                           ;main.c: 120:     LATBbits.LATB1 = 1;
  2620     0519  0022               	movlb	2	; select bank2
  2621     051A  148D               	bsf	13,1	;volatile
  2622     051B                     l987:
  2623                           
  2624                           ;main.c: 123:     TRISBbits.TRISB2 = 0; ANSELBbits.ANSB2 = 0;
  2625     051B  0021               	movlb	1	; select bank1
  2626     051C  110D               	bcf	13,2	;volatile
  2627     051D                     l989:
  2628     051D  0023               	movlb	3	; select bank3
  2629     051E  110D               	bcf	13,2	;volatile
  2630     051F                     l991:
  2631                           
  2632                           ;main.c: 124:     TRISBbits.TRISB3 = 1; ANSELBbits.ANSB3 = 0;
  2633     051F  0021               	movlb	1	; select bank1
  2634     0520  158D               	bsf	13,3	;volatile
  2635     0521                     l993:
  2636     0521  0023               	movlb	3	; select bank3
  2637     0522  118D               	bcf	13,3	;volatile
  2638     0523                     l995:
  2639                           
  2640                           ;main.c: 129:     PPSLOCK = 0x55;
  2641     0523  3055               	movlw	85
  2642     0524  003C               	movlb	28	; select bank28
  2643     0525  008F               	movwf	15	;volsfr
  2644     0526                     l997:
  2645                           
  2646                           ;main.c: 130:     PPSLOCK = 0xAA;
  2647     0526  30AA               	movlw	170
  2648     0527  008F               	movwf	15	;volsfr
  2649     0528                     l999:
  2650                           
  2651                           ;main.c: 131:     PPSLOCKbits.PPSLOCKED = 0x00;
  2652     0528  100F               	bcf	15,0	;volsfr
  2653     0529                     l1001:
  2654                           
  2655                           ;main.c: 133:     RB2PPSbits.RB2PPS = 0x14;
  2656     0529  003D               	movlb	29	; select bank29
  2657     052A  081A               	movf	26,w	;volatile
  2658     052B  39E0               	andlw	-32
  2659     052C  3814               	iorlw	20
  2660     052D  009A               	movwf	26	;volatile
  2661     052E                     l1003:
  2662                           
  2663                           ;main.c: 134:     RXPPSbits.RXPPS = 0x0B;
  2664     052E  003C               	movlb	28	; select bank28
  2665     052F  0824               	movf	36,w	;volatile
  2666     0530  39E0               	andlw	-32
  2667     0531  380B               	iorlw	11
  2668     0532  00A4               	movwf	36	;volatile
  2669     0533                     l1005:
  2670                           
  2671                           ;main.c: 136:     PPSLOCK = 0x55;
  2672     0533  3055               	movlw	85
  2673     0534  008F               	movwf	15	;volsfr
  2674     0535                     l1007:
  2675                           
  2676                           ;main.c: 137:     PPSLOCK = 0xAA;
  2677     0535  30AA               	movlw	170
  2678     0536  008F               	movwf	15	;volsfr
  2679     0537                     l1009:
  2680                           
  2681                           ;main.c: 138:     PPSLOCKbits.PPSLOCKED = 0x01;
  2682     0537  140F               	bsf	15,0	;volsfr
  2683     0538                     l70:
  2684     0538  0008               	return
  2685     0539                     __end_of_initMain:
  2686                           
  2687                           	psect	text9
  2688     04C0                     __ptext9:	
  2689 ;; *************** function _internal_32 *****************
  2690 ;; Defined at:
  2691 ;;		line 36 in file "PIC16F1718_Internal.c"
  2692 ;; Parameters:    Size  Location     Type
  2693 ;;		None
  2694 ;; Auto vars:     Size  Location     Type
  2695 ;;		None
  2696 ;; Return value:  Size  Location     Type
  2697 ;;                  1    wreg      void 
  2698 ;; Registers used:
  2699 ;;		None
  2700 ;; Tracked objects:
  2701 ;;		On entry : 0/0
  2702 ;;		On exit  : 0/0
  2703 ;;		Unchanged: 0/0
  2704 ;; Data sizes:     COMMON   BANK0   BANK1   BANK2   BANK3   BANK4   BANK5   BANK6   BANK7   BANK8   BANK9  BANK10  BANK1
      +1  BANK12  BANK13  BANK14  BANK15  BANK16  BANK17  BANK18  BANK19  BANK20  BANK21  BANK22  BANK23  BANK24  BANK25
  2705 ;;      Params:         0       0       0       0       0       0       0       0       0       0       0       0       
      +0       0       0       0       0       0       0       0       0       0       0       0       0       0       0
  2706 ;;      Locals:         0       0       0       0       0       0       0       0       0       0       0       0       
      +0       0       0       0       0       0       0       0       0       0       0       0       0       0       0
  2707 ;;      Temps:          0       0       0       0       0       0       0       0       0       0       0       0       
      +0       0       0       0       0       0       0       0       0       0       0       0       0       0       0
  2708 ;;      Totals:         0       0       0       0       0       0       0       0       0       0       0       0       
      +0       0       0       0       0       0       0       0       0       0       0       0       0       0       0
  2709 ;;Total ram usage:        0 bytes
  2710 ;; Hardware stack levels used: 1
  2711 ;; This function calls:
  2712 ;;		Nothing
  2713 ;; This function is called by:
  2714 ;;		_initMain
  2715 ;; This function uses a non-reentrant model
  2716 ;;
  2717                           
  2718     04C0                     _internal_32:	
  2719                           ;psect for function _internal_32
  2720                           
  2721     04C0                     l839:	
  2722                           ;incstack = 0
  2723                           ; Regs used in _internal_32: []
  2724                           
  2725                           
  2726                           ;PIC16F1718_Internal.c: 38:     SCS0 = 0;
  2727     04C0  0021               	movlb	1	; select bank1
  2728     04C1  1019               	bcf	25,0	;volatile
  2729                           
  2730                           ;PIC16F1718_Internal.c: 39:     SCS1 = 0;
  2731     04C2  1099               	bcf	25,1	;volatile
  2732                           
  2733                           ;PIC16F1718_Internal.c: 42:     IRCF0 = 0;
  2734     04C3  1199               	bcf	25,3	;volatile
  2735                           
  2736                           ;PIC16F1718_Internal.c: 43:     IRCF1 = 1;
  2737     04C4  1619               	bsf	25,4	;volatile
  2738                           
  2739                           ;PIC16F1718_Internal.c: 44:     IRCF2 = 1;
  2740     04C5  1699               	bsf	25,5	;volatile
  2741                           
  2742                           ;PIC16F1718_Internal.c: 45:     IRCF3 = 1;
  2743     04C6  1719               	bsf	25,6	;volatile
  2744                           
  2745                           ;PIC16F1718_Internal.c: 48:     SPLLEN = 1;
  2746     04C7  1799               	bsf	25,7	;volatile
  2747     04C8                     l163:
  2748     04C8  0008               	return
  2749     04C9                     __end_of_internal_32:
  2750                           
  2751                           	psect	text10
  2752     066D                     __ptext10:	
  2753 ;; *************** function _gps_read_line *****************
  2754 ;; Defined at:
  2755 ;;		line 66 in file "main.c"
  2756 ;; Parameters:    Size  Location     Type
  2757 ;;  buf             2    0[COMMON] PTR unsigned char 
  2758 ;;		 -> line(128), 
  2759 ;;  maxlen          1    2[COMMON] unsigned char 
  2760 ;; Auto vars:     Size  Location     Type
  2761 ;;  n               1    8[COMMON] unsigned char 
  2762 ;;  c               1    7[COMMON] unsigned char 
  2763 ;; Return value:  Size  Location     Type
  2764 ;;                  1    wreg      unsigned char 
  2765 ;; Registers used:
  2766 ;;		wreg, fsr1l, fsr1h, status,2, status,0, pclath, cstack
  2767 ;; Tracked objects:
  2768 ;;		On entry : 0/0
  2769 ;;		On exit  : 0/0
  2770 ;;		Unchanged: 0/0
  2771 ;; Data sizes:     COMMON   BANK0   BANK1   BANK2   BANK3   BANK4   BANK5   BANK6   BANK7   BANK8   BANK9  BANK10  BANK1
      +1  BANK12  BANK13  BANK14  BANK15  BANK16  BANK17  BANK18  BANK19  BANK20  BANK21  BANK22  BANK23  BANK24  BANK25
  2772 ;;      Params:         3       0       0       0       0       0       0       0       0       0       0       0       
      +0       0       0       0       0       0       0       0       0       0       0       0       0       0       0
  2773 ;;      Locals:         2       0       0       0       0       0       0       0       0       0       0       0       
      +0       0       0       0       0       0       0       0       0       0       0       0       0       0       0
  2774 ;;      Temps:          4       0       0       0       0       0       0       0       0       0       0       0       
      +0       0       0       0       0       0       0       0       0       0       0       0       0       0       0
  2775 ;;      Totals:         9       0       0       0       0       0       0       0       0       0       0       0       
      +0       0       0       0       0       0       0       0       0       0       0       0       0       0       0
  2776 ;;Total ram usage:        9 bytes
  2777 ;; Hardware stack levels used: 1
  2778 ;; Hardware stack levels required when called: 1
  2779 ;; This function calls:
  2780 ;;		_EUSART_Read
  2781 ;; This function is called by:
  2782 ;;		_main
  2783 ;; This function uses a non-reentrant model
  2784 ;;
  2785                           
  2786     066D                     _gps_read_line:	
  2787                           ;psect for function _gps_read_line
  2788                           
  2789     066D                     l1299:	
  2790                           ;incstack = 0
  2791                           ; Regs used in _gps_read_line: [wreg+fsr1l+fsr1h+status,2+status,0+pclath+cstack]
  2792                           
  2793                           
  2794                           ;main.c: 66: static unsigned char gps_read_line(char *buf, unsigned char maxlen);main.c:
      +                           67: {;main.c: 68:     unsigned char n = 0;
  2795     066D  01F8               	clrf	gps_read_line@n
  2796     066E                     l1301:
  2797     066E  3184  24D5  3186   	fcall	_EUSART_Read
  2798     0671  00F7               	movwf	gps_read_line@c
  2799     0672                     l1303:
  2800     0672  3024               	movlw	36
  2801     0673  0677               	xorwf	gps_read_line@c,w
  2802     0674  1D03               	btfss	3,2
  2803     0675  2E77               	goto	u891
  2804     0676  2E78               	goto	u890
  2805     0677                     u891:
  2806     0677  2E6E               	goto	l1301
  2807     0678                     u890:
  2808     0678                     l1305:
  2809                           
  2810                           ;main.c: 75:     buf[n++] = '$';
  2811     0678  0878               	movf	gps_read_line@n,w
  2812     0679  00F3               	movwf	??_gps_read_line
  2813     067A  01F4               	clrf	??_gps_read_line+1
  2814     067B  0873               	movf	??_gps_read_line,w
  2815     067C  0770               	addwf	gps_read_line@buf,w
  2816     067D  00F5               	movwf	??_gps_read_line+2
  2817     067E  0874               	movf	??_gps_read_line+1,w
  2818     067F  3D71               	addwfc	gps_read_line@buf+1,w
  2819     0680  00F6               	movwf	??_gps_read_line+3
  2820     0681  0875               	movf	??_gps_read_line+2,w
  2821     0682  0086               	movwf	6
  2822     0683  0876               	movf	??_gps_read_line+3,w
  2823     0684  0087               	movwf	7
  2824     0685  3024               	movlw	36
  2825     0686  0081               	movwf	1
  2826     0687                     l1307:
  2827     0687  3001               	movlw	1
  2828     0688  00F3               	movwf	??_gps_read_line
  2829     0689  0873               	movf	??_gps_read_line,w
  2830     068A  07F8               	addwf	gps_read_line@n,f
  2831                           
  2832                           ;main.c: 77:     while (n < (maxlen - 1))
  2833     068B  2EB8               	goto	l1327
  2834     068C                     l1309:
  2835                           
  2836                           ;main.c: 78:     {;main.c: 79:         c = EUSART_Read();
  2837     068C  3184  24D5  3186   	fcall	_EUSART_Read
  2838     068F  00F7               	movwf	gps_read_line@c
  2839     0690                     l1311:
  2840                           
  2841                           ;main.c: 82:         if (c == '$') {
  2842     0690  3024               	movlw	36
  2843     0691  0677               	xorwf	gps_read_line@c,w
  2844     0692  1D03               	btfss	3,2
  2845     0693  2E95               	goto	u901
  2846     0694  2E96               	goto	u900
  2847     0695                     u901:
  2848     0695  2E9E               	goto	l1319
  2849     0696                     u900:
  2850     0696                     l1313:
  2851                           
  2852                           ;main.c: 83:             n = 0;
  2853     0696  01F8               	clrf	gps_read_line@n
  2854     0697                     l1315:
  2855                           
  2856                           ;main.c: 84:             buf[n++] = '$';
  2857     0697  0870               	movf	gps_read_line@buf,w
  2858     0698  0086               	movwf	6
  2859     0699  0871               	movf	gps_read_line@buf+1,w
  2860     069A  0087               	movwf	7
  2861     069B  3024               	movlw	36
  2862     069C  0081               	movwf	1
  2863     069D  2E87               	goto	l1307
  2864     069E                     l1319:
  2865                           
  2866                           ;main.c: 88:         buf[n++] = c;
  2867     069E  0878               	movf	gps_read_line@n,w
  2868     069F  00F3               	movwf	??_gps_read_line
  2869     06A0  01F4               	clrf	??_gps_read_line+1
  2870     06A1  0873               	movf	??_gps_read_line,w
  2871     06A2  0770               	addwf	gps_read_line@buf,w
  2872     06A3  00F5               	movwf	??_gps_read_line+2
  2873     06A4  0874               	movf	??_gps_read_line+1,w
  2874     06A5  3D71               	addwfc	gps_read_line@buf+1,w
  2875     06A6  00F6               	movwf	??_gps_read_line+3
  2876     06A7  0875               	movf	??_gps_read_line+2,w
  2877     06A8  0086               	movwf	6
  2878     06A9  0876               	movf	??_gps_read_line+3,w
  2879     06AA  0087               	movwf	7
  2880     06AB  0877               	movf	gps_read_line@c,w
  2881     06AC  0081               	movwf	1
  2882     06AD                     l1321:
  2883     06AD  3001               	movlw	1
  2884     06AE  00F3               	movwf	??_gps_read_line
  2885     06AF  0873               	movf	??_gps_read_line,w
  2886     06B0  07F8               	addwf	gps_read_line@n,f
  2887     06B1                     l1323:
  2888                           
  2889                           ;main.c: 90:         if (c == '\n') break;
  2890     06B1  300A               	movlw	10
  2891     06B2  0677               	xorwf	gps_read_line@c,w
  2892     06B3  1D03               	btfss	3,2
  2893     06B4  2EB6               	goto	u911
  2894     06B5  2EB7               	goto	u910
  2895     06B6                     u911:
  2896     06B6  2EB8               	goto	l1327
  2897     06B7                     u910:
  2898     06B7  2ECA               	goto	l1329
  2899     06B8                     l1327:
  2900                           
  2901                           ;main.c: 77:     while (n < (maxlen - 1))
  2902     06B8  0872               	movf	gps_read_line@maxlen,w
  2903     06B9  3EFF               	addlw	255
  2904     06BA  00F3               	movwf	??_gps_read_line
  2905     06BB  30FF               	movlw	255
  2906     06BC  1803               	skipnc
  2907     06BD  3000               	movlw	0
  2908     06BE  00F4               	movwf	??_gps_read_line+1
  2909     06BF  0874               	movf	??_gps_read_line+1,w
  2910     06C0  3A80               	xorlw	128
  2911     06C1  3C80               	sublw	128
  2912     06C2  1D03               	skipz
  2913     06C3  2EC6               	goto	u925
  2914     06C4  0873               	movf	??_gps_read_line,w
  2915     06C5  0278               	subwf	gps_read_line@n,w
  2916     06C6                     u925:
  2917     06C6  1C03               	skipc
  2918     06C7  2EC9               	goto	u921
  2919     06C8  2ECA               	goto	u920
  2920     06C9                     u921:
  2921     06C9  2E8C               	goto	l1309
  2922     06CA                     u920:
  2923     06CA                     l1329:
  2924                           
  2925                           ;main.c: 93:     buf[n] = '\0';
  2926     06CA  0878               	movf	gps_read_line@n,w
  2927     06CB  00F3               	movwf	??_gps_read_line
  2928     06CC  01F4               	clrf	??_gps_read_line+1
  2929     06CD  0873               	movf	??_gps_read_line,w
  2930     06CE  0770               	addwf	gps_read_line@buf,w
  2931     06CF  0086               	movwf	6
  2932     06D0  0874               	movf	??_gps_read_line+1,w
  2933     06D1  3D71               	addwfc	gps_read_line@buf+1,w
  2934     06D2  0087               	movwf	7
  2935     06D3  0181               	clrf	1
  2936     06D4                     l67:
  2937     06D4  0008               	return
  2938     06D5                     __end_of_gps_read_line:
  2939                           
  2940                           	psect	text11
  2941     04D5                     __ptext11:	
  2942 ;; *************** function _EUSART_Read *****************
  2943 ;; Defined at:
  2944 ;;		line 62 in file "EUSART.c"
  2945 ;; Parameters:    Size  Location     Type
  2946 ;;		None
  2947 ;; Auto vars:     Size  Location     Type
  2948 ;;		None
  2949 ;; Return value:  Size  Location     Type
  2950 ;;                  1    wreg      unsigned char 
  2951 ;; Registers used:
  2952 ;;		wreg
  2953 ;; Tracked objects:
  2954 ;;		On entry : 0/0
  2955 ;;		On exit  : 0/0
  2956 ;;		Unchanged: 0/0
  2957 ;; Data sizes:     COMMON   BANK0   BANK1   BANK2   BANK3   BANK4   BANK5   BANK6   BANK7   BANK8   BANK9  BANK10  BANK1
      +1  BANK12  BANK13  BANK14  BANK15  BANK16  BANK17  BANK18  BANK19  BANK20  BANK21  BANK22  BANK23  BANK24  BANK25
  2958 ;;      Params:         0       0       0       0       0       0       0       0       0       0       0       0       
      +0       0       0       0       0       0       0       0       0       0       0       0       0       0       0
  2959 ;;      Locals:         0       0       0       0       0       0       0       0       0       0       0       0       
      +0       0       0       0       0       0       0       0       0       0       0       0       0       0       0
  2960 ;;      Temps:          0       0       0       0       0       0       0       0       0       0       0       0       
      +0       0       0       0       0       0       0       0       0       0       0       0       0       0       0
  2961 ;;      Totals:         0       0       0       0       0       0       0       0       0       0       0       0       
      +0       0       0       0       0       0       0       0       0       0       0       0       0       0       0
  2962 ;;Total ram usage:        0 bytes
  2963 ;; Hardware stack levels used: 1
  2964 ;; This function calls:
  2965 ;;		Nothing
  2966 ;; This function is called by:
  2967 ;;		_gps_read_line
  2968 ;;		_EUSART_Read_Text
  2969 ;; This function uses a non-reentrant model
  2970 ;;
  2971                           
  2972     04D5                     _EUSART_Read:	
  2973                           ;psect for function _EUSART_Read
  2974                           
  2975     04D5                     l831:	
  2976                           ;incstack = 0
  2977                           ; Regs used in _EUSART_Read: [wreg]
  2978                           
  2979                           
  2980                           ;EUSART.c: 65:    RC1STAbits.SREN = 1;
  2981     04D5  0023               	movlb	3	; select bank3
  2982     04D6  169D               	bsf	29,5	;volatile
  2983     04D7                     l108:	
  2984                           ;EUSART.c: 67:     {;EUSART.c: 68:     }
  2985                           
  2986                           
  2987                           ;EUSART.c: 66:     while(!PIR1bits.RCIF)
  2988     04D7  0020               	movlb	0	; select bank0
  2989     04D8  1E91               	btfss	17,5	;volatile
  2990     04D9  2CDB               	goto	u121
  2991     04DA  2CDC               	goto	u120
  2992     04DB                     u121:
  2993     04DB  2CD7               	goto	l108
  2994     04DC                     u120:
  2995     04DC                     l110:
  2996                           
  2997                           ;EUSART.c: 70:     if(1 == RC1STAbits.OERR)
  2998     04DC  0023               	movlb	3	; select bank3
  2999     04DD  1C9D               	btfss	29,1	;volatile
  3000     04DE  2CE0               	goto	u131
  3001     04DF  2CE1               	goto	u130
  3002     04E0                     u131:
  3003     04E0  2CE3               	goto	l835
  3004     04E1                     u130:
  3005     04E1                     l833:
  3006                           
  3007                           ;EUSART.c: 71:     {;EUSART.c: 74:         RC1STAbits.SPEN = 0;
  3008     04E1  139D               	bcf	29,7	;volatile
  3009                           
  3010                           ;EUSART.c: 75:         RC1STAbits.SPEN = 1;
  3011     04E2  179D               	bsf	29,7	;volatile
  3012     04E3                     l835:
  3013                           
  3014                           ;EUSART.c: 78:     return RC1REG;
  3015     04E3  0819               	movf	25,w	;volatile
  3016     04E4                     l112:
  3017     04E4  0008               	return
  3018     04E5                     __end_of_EUSART_Read:
  3019                           
  3020                           	psect	text12
  3021     04A4                     __ptext12:	
  3022 ;; *************** function _SUART_Init *****************
  3023 ;; Defined at:
  3024 ;;		line 82 in file "SEUSART.c"
  3025 ;; Parameters:    Size  Location     Type
  3026 ;;		None
  3027 ;; Auto vars:     Size  Location     Type
  3028 ;;		None
  3029 ;; Return value:  Size  Location     Type
  3030 ;;                  1    wreg      void 
  3031 ;; Registers used:
  3032 ;;		None
  3033 ;; Tracked objects:
  3034 ;;		On entry : 0/0
  3035 ;;		On exit  : 0/0
  3036 ;;		Unchanged: 0/0
  3037 ;; Data sizes:     COMMON   BANK0   BANK1   BANK2   BANK3   BANK4   BANK5   BANK6   BANK7   BANK8   BANK9  BANK10  BANK1
      +1  BANK12  BANK13  BANK14  BANK15  BANK16  BANK17  BANK18  BANK19  BANK20  BANK21  BANK22  BANK23  BANK24  BANK25
  3038 ;;      Params:         0       0       0       0       0       0       0       0       0       0       0       0       
      +0       0       0       0       0       0       0       0       0       0       0       0       0       0       0
  3039 ;;      Locals:         0       0       0       0       0       0       0       0       0       0       0       0       
      +0       0       0       0       0       0       0       0       0       0       0       0       0       0       0
  3040 ;;      Temps:          0       0       0       0       0       0       0       0       0       0       0       0       
      +0       0       0       0       0       0       0       0       0       0       0       0       0       0       0
  3041 ;;      Totals:         0       0       0       0       0       0       0       0       0       0       0       0       
      +0       0       0       0       0       0       0       0       0       0       0       0       0       0       0
  3042 ;;Total ram usage:        0 bytes
  3043 ;; Hardware stack levels used: 1
  3044 ;; This function calls:
  3045 ;;		Nothing
  3046 ;; This function is called by:
  3047 ;;		_main
  3048 ;; This function uses a non-reentrant model
  3049 ;;
  3050                           
  3051     04A4                     _SUART_Init:	
  3052                           ;psect for function _SUART_Init
  3053                           
  3054     04A4                     l1011:	
  3055                           ;incstack = 0
  3056                           ; Regs used in _SUART_Init: []
  3057                           
  3058                           
  3059                           ;SEUSART.c: 85:     LATBbits.LATB1 = 1;
  3060     04A4  0022               	movlb	2	; select bank2
  3061     04A5  148D               	bsf	13,1	;volatile
  3062                           
  3063                           ;SEUSART.c: 87:     TRISBbits.TRISB0 = 1;
  3064     04A6  0021               	movlb	1	; select bank1
  3065     04A7  140D               	bsf	13,0	;volatile
  3066                           
  3067                           ;SEUSART.c: 88:     TRISBbits.TRISB1 = 0;
  3068     04A8  108D               	bcf	13,1	;volatile
  3069     04A9                     l207:
  3070     04A9  0008               	return
  3071     04AA                     __end_of_SUART_Init:
  3072                           
  3073                           	psect	text13
  3074     05BB                     __ptext13:	
  3075 ;; *************** function _EUSART_Initialize *****************
  3076 ;; Defined at:
  3077 ;;		line 36 in file "EUSART.c"
  3078 ;; Parameters:    Size  Location     Type
  3079 ;;  baudrate        4    6[BANK0 ] const long 
  3080 ;; Auto vars:     Size  Location     Type
  3081 ;;  x               2    9[COMMON] unsigned int 
  3082 ;; Return value:  Size  Location     Type
  3083 ;;                  1    wreg      unsigned char 
  3084 ;; Registers used:
  3085 ;;		wreg, status,2, status,0, pclath, cstack
  3086 ;; Tracked objects:
  3087 ;;		On entry : 0/0
  3088 ;;		On exit  : 0/0
  3089 ;;		Unchanged: 0/0
  3090 ;; Data sizes:     COMMON   BANK0   BANK1   BANK2   BANK3   BANK4   BANK5   BANK6   BANK7   BANK8   BANK9  BANK10  BANK1
      +1  BANK12  BANK13  BANK14  BANK15  BANK16  BANK17  BANK18  BANK19  BANK20  BANK21  BANK22  BANK23  BANK24  BANK25
  3091 ;;      Params:         0       4       0       0       0       0       0       0       0       0       0       0       
      +0       0       0       0       0       0       0       0       0       0       0       0       0       0       0
  3092 ;;      Locals:         2       0       0       0       0       0       0       0       0       0       0       0       
      +0       0       0       0       0       0       0       0       0       0       0       0       0       0       0
  3093 ;;      Temps:          0      12       0       0       0       0       0       0       0       0       0       0       
      +0       0       0       0       0       0       0       0       0       0       0       0       0       0       0
  3094 ;;      Totals:         2      16       0       0       0       0       0       0       0       0       0       0       
      +0       0       0       0       0       0       0       0       0       0       0       0       0       0       0
  3095 ;;Total ram usage:       18 bytes
  3096 ;; Hardware stack levels used: 1
  3097 ;; Hardware stack levels required when called: 1
  3098 ;; This function calls:
  3099 ;;		___aldiv
  3100 ;; This function is called by:
  3101 ;;		_main
  3102 ;; This function uses a non-reentrant model
  3103 ;;
  3104                           
  3105     05BB                     _EUSART_Initialize:	
  3106                           ;psect for function _EUSART_Initialize
  3107                           
  3108     05BB                     l1333:	
  3109                           ;incstack = 0
  3110                           ; Regs used in _EUSART_Initialize: [wreg+status,2+status,0+pclath+cstack]
  3111                           
  3112                           
  3113                           ;EUSART.c: 36: char EUSART_Initialize(const long int baudrate);EUSART.c: 37: {;EUSART.c:
      +                           38:     unsigned int x;;EUSART.c: 39:  x = (32000000 - baudrate*64)/(baudrate*64);
  3114     05BB  0020               	movlb	0	; select bank0
  3115     05BC  0826               	movf	EUSART_Initialize@baudrate,w
  3116     05BD  00AA               	movwf	??_EUSART_Initialize
  3117     05BE  0827               	movf	EUSART_Initialize@baudrate+1,w
  3118     05BF  00AB               	movwf	??_EUSART_Initialize+1
  3119     05C0  0828               	movf	EUSART_Initialize@baudrate+2,w
  3120     05C1  00AC               	movwf	??_EUSART_Initialize+2
  3121     05C2  0829               	movf	EUSART_Initialize@baudrate+3,w
  3122     05C3  00AD               	movwf	??_EUSART_Initialize+3
  3123     05C4  3006               	movlw	6
  3124     05C5                     u935:
  3125     05C5  35AA               	lslf	??_EUSART_Initialize,f
  3126     05C6  0DAB               	rlf	??_EUSART_Initialize+1,f
  3127     05C7  0DAC               	rlf	??_EUSART_Initialize+2,f
  3128     05C8  0DAD               	rlf	??_EUSART_Initialize+3,f
  3129     05C9                     u930:
  3130     05C9  0B89               	decfsz	9,f
  3131     05CA  2DC5               	goto	u935
  3132     05CB  082D               	movf	??_EUSART_Initialize+3,w
  3133     05CC  00F3               	movwf	___aldiv@divisor+3
  3134     05CD  082C               	movf	??_EUSART_Initialize+2,w
  3135     05CE  00F2               	movwf	___aldiv@divisor+2
  3136     05CF  082B               	movf	??_EUSART_Initialize+1,w
  3137     05D0  00F1               	movwf	___aldiv@divisor+1
  3138     05D1  082A               	movf	??_EUSART_Initialize,w
  3139     05D2  00F0               	movwf	___aldiv@divisor
  3140     05D3  0826               	movf	EUSART_Initialize@baudrate,w
  3141     05D4  00AE               	movwf	??_EUSART_Initialize+4
  3142     05D5  0827               	movf	EUSART_Initialize@baudrate+1,w
  3143     05D6  00AF               	movwf	??_EUSART_Initialize+5
  3144     05D7  0828               	movf	EUSART_Initialize@baudrate+2,w
  3145     05D8  00B0               	movwf	??_EUSART_Initialize+6
  3146     05D9  0829               	movf	EUSART_Initialize@baudrate+3,w
  3147     05DA  00B1               	movwf	??_EUSART_Initialize+7
  3148     05DB  3006               	movlw	6
  3149     05DC                     u945:
  3150     05DC  35AE               	lslf	??_EUSART_Initialize+4,f
  3151     05DD  0DAF               	rlf	??_EUSART_Initialize+5,f
  3152     05DE  0DB0               	rlf	??_EUSART_Initialize+6,f
  3153     05DF  0DB1               	rlf	??_EUSART_Initialize+7,f
  3154     05E0                     u940:
  3155     05E0  0B89               	decfsz	9,f
  3156     05E1  2DDC               	goto	u945
  3157     05E2  3000               	movlw	0
  3158     05E3  00B2               	movwf	??_EUSART_Initialize+8
  3159     05E4  3048               	movlw	72
  3160     05E5  00B3               	movwf	??_EUSART_Initialize+9
  3161     05E6  30E8               	movlw	232
  3162     05E7  00B4               	movwf	??_EUSART_Initialize+10
  3163     05E8  3001               	movlw	1
  3164     05E9  00B5               	movwf	??_EUSART_Initialize+11
  3165     05EA  082E               	movf	??_EUSART_Initialize+4,w
  3166     05EB  02B2               	subwf	??_EUSART_Initialize+8,f
  3167     05EC  082F               	movf	??_EUSART_Initialize+5,w
  3168     05ED  3BB3               	subwfb	??_EUSART_Initialize+9,f
  3169     05EE  0830               	movf	??_EUSART_Initialize+6,w
  3170     05EF  3BB4               	subwfb	??_EUSART_Initialize+10,f
  3171     05F0  0831               	movf	??_EUSART_Initialize+7,w
  3172     05F1  3BB5               	subwfb	??_EUSART_Initialize+11,f
  3173     05F2  0835               	movf	??_EUSART_Initialize+11,w
  3174     05F3  00F7               	movwf	___aldiv@dividend+3
  3175     05F4  0834               	movf	??_EUSART_Initialize+10,w
  3176     05F5  00F6               	movwf	___aldiv@dividend+2
  3177     05F6  0833               	movf	??_EUSART_Initialize+9,w
  3178     05F7  00F5               	movwf	___aldiv@dividend+1
  3179     05F8  0832               	movf	??_EUSART_Initialize+8,w
  3180     05F9  00F4               	movwf	___aldiv@dividend
  3181     05FA  3187  2762  3185   	fcall	___aldiv
  3182     05FD  0871               	movf	?___aldiv+1,w
  3183     05FE  00FA               	movwf	EUSART_Initialize@x+1
  3184     05FF  0870               	movf	?___aldiv,w
  3185     0600  00F9               	movwf	EUSART_Initialize@x
  3186     0601                     l1335:
  3187                           
  3188                           ;EUSART.c: 41:  SPBRGL = x;
  3189     0601  0879               	movf	EUSART_Initialize@x,w
  3190     0602  0023               	movlb	3	; select bank3
  3191     0603  009B               	movwf	27	;volatile
  3192     0604                     l1337:
  3193                           
  3194                           ;EUSART.c: 42:     BRGH = 0;
  3195     0604  111E               	bcf	30,2	;volatile
  3196     0605                     l1339:
  3197                           
  3198                           ;EUSART.c: 43:     BRG16 = 0;
  3199     0605  119F               	bcf	31,3	;volatile
  3200     0606                     l1341:
  3201                           
  3202                           ;EUSART.c: 44:     SYNC = 0;
  3203     0606  121E               	bcf	30,4	;volatile
  3204     0607                     l1343:
  3205                           
  3206                           ;EUSART.c: 45:     SPEN = 1;
  3207     0607  179D               	bsf	29,7	;volatile
  3208     0608                     l1345:
  3209                           
  3210                           ;EUSART.c: 46:     CREN = 1;
  3211     0608  161D               	bsf	29,4	;volatile
  3212     0609                     l1347:
  3213                           
  3214                           ;EUSART.c: 47:     TXEN = 1;
  3215     0609  169E               	bsf	30,5	;volatile
  3216     060A                     l105:
  3217     060A  0008               	return
  3218     060B                     __end_of_EUSART_Initialize:
  3219                           
  3220                           	psect	text14
  3221     0762                     __ptext14:	
  3222 ;; *************** function ___aldiv *****************
  3223 ;; Defined at:
  3224 ;;		line 5 in file "C:\Program Files\Microchip\xc8\v2.46\pic\sources\c99\common\aldiv.c"
  3225 ;; Parameters:    Size  Location     Type
  3226 ;;  divisor         4    0[COMMON] long 
  3227 ;;  dividend        4    4[COMMON] long 
  3228 ;; Auto vars:     Size  Location     Type
  3229 ;;  quotient        4    2[BANK0 ] long 
  3230 ;;  sign            1    1[BANK0 ] unsigned char 
  3231 ;;  counter         1    0[BANK0 ] unsigned char 
  3232 ;; Return value:  Size  Location     Type
  3233 ;;                  4    0[COMMON] long 
  3234 ;; Registers used:
  3235 ;;		wreg, status,2, status,0
  3236 ;; Tracked objects:
  3237 ;;		On entry : 0/0
  3238 ;;		On exit  : 0/0
  3239 ;;		Unchanged: 0/0
  3240 ;; Data sizes:     COMMON   BANK0   BANK1   BANK2   BANK3   BANK4   BANK5   BANK6   BANK7   BANK8   BANK9  BANK10  BANK1
      +1  BANK12  BANK13  BANK14  BANK15  BANK16  BANK17  BANK18  BANK19  BANK20  BANK21  BANK22  BANK23  BANK24  BANK25
  3241 ;;      Params:         8       0       0       0       0       0       0       0       0       0       0       0       
      +0       0       0       0       0       0       0       0       0       0       0       0       0       0       0
  3242 ;;      Locals:         0       6       0       0       0       0       0       0       0       0       0       0       
      +0       0       0       0       0       0       0       0       0       0       0       0       0       0       0
  3243 ;;      Temps:          1       0       0       0       0       0       0       0       0       0       0       0       
      +0       0       0       0       0       0       0       0       0       0       0       0       0       0       0
  3244 ;;      Totals:         9       6       0       0       0       0       0       0       0       0       0       0       
      +0       0       0       0       0       0       0       0       0       0       0       0       0       0       0
  3245 ;;Total ram usage:       15 bytes
  3246 ;; Hardware stack levels used: 1
  3247 ;; This function calls:
  3248 ;;		Nothing
  3249 ;; This function is called by:
  3250 ;;		_EUSART_Initialize
  3251 ;; This function uses a non-reentrant model
  3252 ;;
  3253                           
  3254     0762                     ___aldiv:	
  3255                           ;psect for function ___aldiv
  3256                           
  3257     0762                     l1213:	
  3258                           ;incstack = 0
  3259                           ; Regs used in ___aldiv: [wreg+status,2+status,0]
  3260                           
  3261     0762  0020               	movlb	0	; select bank0
  3262     0763  01A1               	clrf	___aldiv@sign
  3263     0764                     l1215:
  3264     0764  1FF3               	btfss	___aldiv@divisor+3,7
  3265     0765  2F67               	goto	u671
  3266     0766  2F68               	goto	u670
  3267     0767                     u671:
  3268     0767  2F75               	goto	l370
  3269     0768                     u670:
  3270     0768                     l1217:
  3271     0768  09F0               	comf	___aldiv@divisor,f
  3272     0769  09F1               	comf	___aldiv@divisor+1,f
  3273     076A  09F2               	comf	___aldiv@divisor+2,f
  3274     076B  09F3               	comf	___aldiv@divisor+3,f
  3275     076C  0AF0               	incf	___aldiv@divisor,f
  3276     076D  1903               	skipnz
  3277     076E  0AF1               	incf	___aldiv@divisor+1,f
  3278     076F  1903               	skipnz
  3279     0770  0AF2               	incf	___aldiv@divisor+2,f
  3280     0771  1903               	skipnz
  3281     0772  0AF3               	incf	___aldiv@divisor+3,f
  3282     0773  01A1               	clrf	___aldiv@sign
  3283     0774  0AA1               	incf	___aldiv@sign,f
  3284     0775                     l370:
  3285     0775  1FF7               	btfss	___aldiv@dividend+3,7
  3286     0776  2F78               	goto	u681
  3287     0777  2F79               	goto	u680
  3288     0778                     u681:
  3289     0778  2F88               	goto	l1223
  3290     0779                     u680:
  3291     0779                     l1219:
  3292     0779  09F4               	comf	___aldiv@dividend,f
  3293     077A  09F5               	comf	___aldiv@dividend+1,f
  3294     077B  09F6               	comf	___aldiv@dividend+2,f
  3295     077C  09F7               	comf	___aldiv@dividend+3,f
  3296     077D  0AF4               	incf	___aldiv@dividend,f
  3297     077E  1903               	skipnz
  3298     077F  0AF5               	incf	___aldiv@dividend+1,f
  3299     0780  1903               	skipnz
  3300     0781  0AF6               	incf	___aldiv@dividend+2,f
  3301     0782  1903               	skipnz
  3302     0783  0AF7               	incf	___aldiv@dividend+3,f
  3303     0784                     l1221:
  3304     0784  3001               	movlw	1
  3305     0785  00F8               	movwf	??___aldiv
  3306     0786  0878               	movf	??___aldiv,w
  3307     0787  06A1               	xorwf	___aldiv@sign,f
  3308     0788                     l1223:
  3309     0788  3000               	movlw	0
  3310     0789  00A5               	movwf	___aldiv@quotient+3
  3311     078A  3000               	movlw	0
  3312     078B  00A4               	movwf	___aldiv@quotient+2
  3313     078C  3000               	movlw	0
  3314     078D  00A3               	movwf	___aldiv@quotient+1
  3315     078E  3000               	movlw	0
  3316     078F  00A2               	movwf	___aldiv@quotient
  3317     0790                     l1225:
  3318     0790  0873               	movf	___aldiv@divisor+3,w
  3319     0791  0472               	iorwf	___aldiv@divisor+2,w
  3320     0792  0471               	iorwf	___aldiv@divisor+1,w
  3321     0793  0470               	iorwf	___aldiv@divisor,w
  3322     0794  1903               	skipnz
  3323     0795  2F97               	goto	u691
  3324     0796  2F98               	goto	u690
  3325     0797                     u691:
  3326     0797  2FD9               	goto	l1245
  3327     0798                     u690:
  3328     0798                     l1227:
  3329     0798  01A0               	clrf	___aldiv@counter
  3330     0799  0AA0               	incf	___aldiv@counter,f
  3331     079A  2FA6               	goto	l1231
  3332     079B                     l1229:
  3333     079B  3001               	movlw	1
  3334     079C                     u705:
  3335     079C  35F0               	lslf	___aldiv@divisor,f
  3336     079D  0DF1               	rlf	___aldiv@divisor+1,f
  3337     079E  0DF2               	rlf	___aldiv@divisor+2,f
  3338     079F  0DF3               	rlf	___aldiv@divisor+3,f
  3339     07A0  0B89               	decfsz	9,f
  3340     07A1  2F9C               	goto	u705
  3341     07A2  3001               	movlw	1
  3342     07A3  00F8               	movwf	??___aldiv
  3343     07A4  0878               	movf	??___aldiv,w
  3344     07A5  07A0               	addwf	___aldiv@counter,f
  3345     07A6                     l1231:
  3346     07A6  1FF3               	btfss	___aldiv@divisor+3,7
  3347     07A7  2FA9               	goto	u711
  3348     07A8  2FAA               	goto	u710
  3349     07A9                     u711:
  3350     07A9  2F9B               	goto	l1229
  3351     07AA                     u710:
  3352     07AA                     l1233:
  3353     07AA  3001               	movlw	1
  3354     07AB                     u725:
  3355     07AB  35A2               	lslf	___aldiv@quotient,f
  3356     07AC  0DA3               	rlf	___aldiv@quotient+1,f
  3357     07AD  0DA4               	rlf	___aldiv@quotient+2,f
  3358     07AE  0DA5               	rlf	___aldiv@quotient+3,f
  3359     07AF  0B89               	decfsz	9,f
  3360     07B0  2FAB               	goto	u725
  3361     07B1                     l1235:
  3362     07B1  0873               	movf	___aldiv@divisor+3,w
  3363     07B2  0277               	subwf	___aldiv@dividend+3,w
  3364     07B3  1D03               	skipz
  3365     07B4  2FBF               	goto	u735
  3366     07B5  0872               	movf	___aldiv@divisor+2,w
  3367     07B6  0276               	subwf	___aldiv@dividend+2,w
  3368     07B7  1D03               	skipz
  3369     07B8  2FBF               	goto	u735
  3370     07B9  0871               	movf	___aldiv@divisor+1,w
  3371     07BA  0275               	subwf	___aldiv@dividend+1,w
  3372     07BB  1D03               	skipz
  3373     07BC  2FBF               	goto	u735
  3374     07BD  0870               	movf	___aldiv@divisor,w
  3375     07BE  0274               	subwf	___aldiv@dividend,w
  3376     07BF                     u735:
  3377     07BF  1C03               	skipc
  3378     07C0  2FC2               	goto	u731
  3379     07C1  2FC3               	goto	u730
  3380     07C2                     u731:
  3381     07C2  2FCC               	goto	l1241
  3382     07C3                     u730:
  3383     07C3                     l1237:
  3384     07C3  0870               	movf	___aldiv@divisor,w
  3385     07C4  02F4               	subwf	___aldiv@dividend,f
  3386     07C5  0871               	movf	___aldiv@divisor+1,w
  3387     07C6  3BF5               	subwfb	___aldiv@dividend+1,f
  3388     07C7  0872               	movf	___aldiv@divisor+2,w
  3389     07C8  3BF6               	subwfb	___aldiv@dividend+2,f
  3390     07C9  0873               	movf	___aldiv@divisor+3,w
  3391     07CA  3BF7               	subwfb	___aldiv@dividend+3,f
  3392     07CB                     l1239:
  3393     07CB  1422               	bsf	___aldiv@quotient,0
  3394     07CC                     l1241:
  3395     07CC  3001               	movlw	1
  3396     07CD                     u745:
  3397     07CD  36F3               	lsrf	___aldiv@divisor+3,f
  3398     07CE  0CF2               	rrf	___aldiv@divisor+2,f
  3399     07CF  0CF1               	rrf	___aldiv@divisor+1,f
  3400     07D0  0CF0               	rrf	___aldiv@divisor,f
  3401     07D1  0B89               	decfsz	9,f
  3402     07D2  2FCD               	goto	u745
  3403     07D3                     l1243:
  3404     07D3  3001               	movlw	1
  3405     07D4  02A0               	subwf	___aldiv@counter,f
  3406     07D5  1D03               	btfss	3,2
  3407     07D6  2FD8               	goto	u751
  3408     07D7  2FD9               	goto	u750
  3409     07D8                     u751:
  3410     07D8  2FAA               	goto	l1233
  3411     07D9                     u750:
  3412     07D9                     l1245:
  3413     07D9  0821               	movf	___aldiv@sign,w
  3414     07DA  1903               	btfsc	3,2
  3415     07DB  2FDD               	goto	u761
  3416     07DC  2FDE               	goto	u760
  3417     07DD                     u761:
  3418     07DD  2FE9               	goto	l1249
  3419     07DE                     u760:
  3420     07DE                     l1247:
  3421     07DE  09A2               	comf	___aldiv@quotient,f
  3422     07DF  09A3               	comf	___aldiv@quotient+1,f
  3423     07E0  09A4               	comf	___aldiv@quotient+2,f
  3424     07E1  09A5               	comf	___aldiv@quotient+3,f
  3425     07E2  0AA2               	incf	___aldiv@quotient,f
  3426     07E3  1903               	skipnz
  3427     07E4  0AA3               	incf	___aldiv@quotient+1,f
  3428     07E5  1903               	skipnz
  3429     07E6  0AA4               	incf	___aldiv@quotient+2,f
  3430     07E7  1903               	skipnz
  3431     07E8  0AA5               	incf	___aldiv@quotient+3,f
  3432     07E9                     l1249:
  3433     07E9  0825               	movf	___aldiv@quotient+3,w
  3434     07EA  00F3               	movwf	?___aldiv+3
  3435     07EB  0824               	movf	___aldiv@quotient+2,w
  3436     07EC  00F2               	movwf	?___aldiv+2
  3437     07ED  0823               	movf	___aldiv@quotient+1,w
  3438     07EE  00F1               	movwf	?___aldiv+1
  3439     07EF  0822               	movf	___aldiv@quotient,w
  3440     07F0  00F0               	movwf	?___aldiv
  3441     07F1                     l380:
  3442     07F1  0008               	return
  3443     07F2                     __end_of___aldiv:
  3444     007E                     btemp	set	126	;btemp
  3445     007E                     wtemp0	set	126
  3446     2770                     
  3447                           	psect	config
  3448                           
  3449                           ;Config register CONFIG1 @ 0x8007
  3450                           ;	Oscillator Selection Bits
  3451                           ;	FOSC = INTOSC, INTOSC oscillator: I/O function on CLKIN pin
  3452                           ;	Watchdog Timer Enable
  3453                           ;	WDTE = OFF, WDT disabled
  3454                           ;	Power-up Timer Enable
  3455                           ;	PWRTE = OFF, PWRT disabled
  3456                           ;	MCLR Pin Function Select
  3457                           ;	MCLRE = OFF, MCLR/VPP pin function is digital input if LVP bit is also 0.
  3458                           ;	Flash Program Memory Code Protection
  3459                           ;	CP = OFF, Program memory code protection is disabled
  3460                           ;	Brown-out Reset Enable
  3461                           ;	BOREN = OFF, Brown-out Reset disabled
  3462                           ;	Clock Out Enable
  3463                           ;	CLKOUTEN = OFF, CLKOUT function is disabled. I/O or oscillator function on the CLKOUT 
      +                          pin
  3464                           ;	Internal/External Switchover Mode
  3465                           ;	IESO = ON, Internal/External Switchover Mode is enabled
  3466                           ;	Fail-Safe Clock Monitor Enable
  3467                           ;	FCMEN = OFF, Fail-Safe Clock Monitor is disabled
  3468     8007                     	org	32775
  3469     8007  19A4               	dw	6564
  3470                           
  3471                           ;Config register CONFIG2 @ 0x8008
  3472                           ;	Flash Memory Self-Write Protection
  3473                           ;	WRT = OFF, Write protection off
  3474                           ;	Peripheral Pin Select one-way control
  3475                           ;	PPS1WAY = ON, The PPSLOCK bit cannot be cleared once it is set by software
  3476                           ;	Zero-cross detect disable
  3477                           ;	ZCDDIS = ON, ZCD disabled. ZCD can be enabled by setting the ZCDSEN bit of ZCDCON
  3478                           ;	Phase Lock Loop enable
  3479                           ;	PLLEN = OFF, 4x PLL is disabled
  3480                           ;	Stack Overflow/Underflow Reset Enable
  3481                           ;	STVREN = ON, Stack Overflow or Underflow will cause a Reset
  3482                           ;	Brown-out Reset Voltage Selection
  3483                           ;	BORV = LO, Brown-out Reset Voltage (Vbor), low trip point selected.
  3484                           ;	Low-Power Brown Out Reset
  3485                           ;	LPBOR = OFF, Low-Power BOR is disabled
  3486                           ;	In-Circuit Debugger Mode
  3487                           ;	DEBUG = 0x1, unprogrammed default
  3488                           ;	Low-Voltage Programming Enable
  3489                           ;	LVP = OFF, High-voltage on MCLR/VPP must be used for programming
  3490     8008                     	org	32776
  3491     8008  1EFF               	dw	7935

Data Sizes:
    Strings     121
    Constant    0
    Data        0
    BSS         0
    Persistent  32
    Stack       0

Auto Spaces:
    Space          Size  Autos    Used
    COMMON           14     14      14
    BANK0            80     24      24
    BANK1            80      0       0
    BANK2            80      0       0
    BANK3            80      0       0
    BANK4            80      0       0
    BANK5            80      0       0
    BANK6            80      0       0
    BANK7            80      0       0
    BANK8            80      0       0
    BANK9            80      0       0
    BANK10           80      0       0
    BANK11           80      0       0
    BANK12           80      0       0
    BANK13           80      0       0
    BANK14           80      0       0
    BANK15           80      0       0
    BANK16           80      0       0
    BANK17           80      0       0
    BANK18           80      0       0
    BANK19           80      0       0
    BANK20           80      0       0
    BANK21           80      0       0
    BANK22           80      0       0
    BANK23           64      0       0
    BANK24            0      0       0
    BANK25            0      0       0

Pointer List with Targets:

    gps_read_line@buf	PTR unsigned char  size(2) Largest target is 128
		 -> line(BIGRAM[128]), 

    nmea_checksum_ok@p	PTR const unsigned char  size(2) Largest target is 128
		 -> line(BIGRAM[128]), 

    nmea_checksum_ok@s	PTR const unsigned char  size(2) Largest target is 128
		 -> line(BIGRAM[128]), 

    suart_puts@s	PTR const unsigned char  size(2) Largest target is 128
		 -> line(BIGRAM[128]), STR_1(CODE[31]), STR_2(CODE[35]), STR_3(CODE[34]), 
		 -> STR_4(CODE[10]), STR_5(CODE[11]), 

    SUART_Write_Text@text	PTR unsigned char  size(2) Largest target is 128
		 -> line(BIGRAM[128]), STR_1(CODE[31]), STR_2(CODE[35]), STR_3(CODE[34]), 
		 -> STR_4(CODE[10]), STR_5(CODE[11]), 


Critical Paths under _main in COMMON

    _main->_nmea_checksum_ok
    _suart_puts->_SUART_Write_Text
    _SUART_Write_Text->_SUART_Transmit
    _SUART_Transmit->_SUART_Lock
    _SUART_Transmit->_SUART_Unlock
    _nmea_checksum_ok->_hex_nibble
    _EUSART_Initialize->___aldiv

Critical Paths under _main in BANK0

    _main->_EUSART_Initialize
    _EUSART_Initialize->___aldiv

Critical Paths under _main in BANK1

    None.

Critical Paths under _main in BANK2

    None.

Critical Paths under _main in BANK3

    None.

Critical Paths under _main in BANK4

    None.

Critical Paths under _main in BANK5

    None.

Critical Paths under _main in BANK6

    None.

Critical Paths under _main in BANK7

    None.

Critical Paths under _main in BANK8

    None.

Critical Paths under _main in BANK9

    None.

Critical Paths under _main in BANK10

    None.

Critical Paths under _main in BANK11

    None.

Critical Paths under _main in BANK12

    None.

Critical Paths under _main in BANK13

    None.

Critical Paths under _main in BANK14

    None.

Critical Paths under _main in BANK15

    None.

Critical Paths under _main in BANK16

    None.

Critical Paths under _main in BANK17

    None.

Critical Paths under _main in BANK18

    None.

Critical Paths under _main in BANK19

    None.

Critical Paths under _main in BANK20

    None.

Critical Paths under _main in BANK21

    None.

Critical Paths under _main in BANK22

    None.

Critical Paths under _main in BANK23

    None.

Critical Paths under _main in BANK24

    None.

Critical Paths under _main in BANK25

    None.

Call Graph Tables:

 ---------------------------------------------------------------------------------
 (Depth) Function   	        Calls       Base Space   Used Autos Params    Refs
 ---------------------------------------------------------------------------------
 (0) _main                                                 2     2      0    2449
                                             22 BANK0      2     2      0
                  _EUSART_Initialize
                         _SUART_Init
                      _gps_read_line
                           _initMain
                   _nmea_checksum_ok
                         _suart_puts
 ---------------------------------------------------------------------------------
 (1) _suart_puts                                           2     0      2     749
                                             10 COMMON     2     0      2
                   _SUART_Write_Text
 ---------------------------------------------------------------------------------
 (2) _SUART_Write_Text                                     5     3      2     271
                                              5 COMMON     5     3      2
                     _SUART_Transmit
 ---------------------------------------------------------------------------------
 (3) _SUART_Transmit                                       4     4      0     105
                                              1 COMMON     4     4      0
                         _SUART_Lock
                       _SUART_Unlock
 ---------------------------------------------------------------------------------
 (4) _SUART_Unlock                                         1     1      0      15
                                              0 COMMON     1     1      0
 ---------------------------------------------------------------------------------
 (4) _SUART_Lock                                           1     1      0      15
                                              0 COMMON     1     1      0
 ---------------------------------------------------------------------------------
 (1) _nmea_checksum_ok                                    11     9      2     632
                                              3 COMMON    11     9      2
                         _hex_nibble
 ---------------------------------------------------------------------------------
 (2) _hex_nibble                                           3     1      2     198
                                              0 COMMON     3     1      2
 ---------------------------------------------------------------------------------
 (1) _initMain                                             2     2      0       0
                                              0 COMMON     2     2      0
                        _internal_32
 ---------------------------------------------------------------------------------
 (2) _internal_32                                          0     0      0       0
 ---------------------------------------------------------------------------------
 (1) _gps_read_line                                        9     6      3     473
                                              0 COMMON     9     6      3
                        _EUSART_Read
 ---------------------------------------------------------------------------------
 (2) _EUSART_Read                                          0     0      0       0
 ---------------------------------------------------------------------------------
 (1) _SUART_Init                                           0     0      0       0
 ---------------------------------------------------------------------------------
 (1) _EUSART_Initialize                                   18    14      4     595
                                              9 COMMON     2     2      0
                                              6 BANK0     16    12      4
                            ___aldiv
 ---------------------------------------------------------------------------------
 (2) ___aldiv                                             15     7      8     452
                                              0 COMMON     9     1      8
                                              0 BANK0      6     6      0
 ---------------------------------------------------------------------------------
 Estimated maximum stack depth 4
 ---------------------------------------------------------------------------------

 Call Graph Graphs:

 _main (ROOT)
   _EUSART_Initialize
     ___aldiv
   _SUART_Init
   _gps_read_line
     _EUSART_Read
   _initMain
     _internal_32
   _nmea_checksum_ok
     _hex_nibble
   _suart_puts
     _SUART_Write_Text
       _SUART_Transmit
         _SUART_Lock
         _SUART_Unlock

 Address spaces:
Name               Size   Autos  Total    Cost      Usage
BIGRAM             7F0      0       0       0        0.0%
NULL                 0      0       0       0        0.0%
CODE                 0      0       0       0        0.0%
BITCOMMON            E      0       0       1        0.0%
BITSFR0              0      0       0       1        0.0%
SFR0                 0      0       0       1        0.0%
COMMON               E      E       E       2      100.0%
BITSFR1              0      0       0       2        0.0%
SFR1                 0      0       0       2        0.0%
BITSFR2              0      0       0       3        0.0%
SFR2                 0      0       0       3        0.0%
STACK                0      0       0       3        0.0%
BITBANK0            50      0       0       4        0.0%
BITSFR3              0      0       0       4        0.0%
SFR3                 0      0       0       4        0.0%
BANK0               50     18      18       5       30.0%
BITSFR4              0      0       0       5        0.0%
SFR4                 0      0       0       5        0.0%
BITBANK1            50      0       0       6        0.0%
BITSFR5              0      0       0       6        0.0%
SFR5                 0      0       0       6        0.0%
BANK1               50      0       0       7        0.0%
BITSFR6              0      0       0       7        0.0%
SFR6                 0      0       0       7        0.0%
BITBANK2            50      0       0       8        0.0%
BITSFR7              0      0       0       8        0.0%
SFR7                 0      0       0       8        0.0%
BANK2               50      0       0       9        0.0%
BITSFR8              0      0       0       9        0.0%
SFR8                 0      0       0       9        0.0%
BITBANK3            50      0       0      10        0.0%
BITSFR9              0      0       0      10        0.0%
SFR9                 0      0       0      10        0.0%
BANK3               50      0       0      11        0.0%
BITSFR10             0      0       0      11        0.0%
SFR10                0      0       0      11        0.0%
BITBANK4            50      0       0      12        0.0%
BITSFR11             0      0       0      12        0.0%
SFR11                0      0       0      12        0.0%
BANK4               50      0       0      13        0.0%
BITSFR12             0      0       0      13        0.0%
SFR12                0      0       0      13        0.0%
BITSFR13             0      0       0      14        0.0%
SFR13                0      0       0      14        0.0%
ABS                  0      0       0      14        0.0%
BITBANK5            50      0       0      15        0.0%
BITSFR14             0      0       0      15        0.0%
SFR14                0      0       0      15        0.0%
BANK5               50      0       0      16        0.0%
BITSFR15             0      0       0      16        0.0%
SFR15                0      0       0      16        0.0%
BITBANK6            50      0       0      17        0.0%
BITSFR16             0      0       0      17        0.0%
SFR16                0      0       0      17        0.0%
BANK6               50      0       0      18        0.0%
BITSFR17             0      0       0      18        0.0%
SFR17                0      0       0      18        0.0%
BITBANK7            50      0       0      19        0.0%
BITSFR18             0      0       0      19        0.0%
SFR18                0      0       0      19        0.0%
BANK7               50      0       0      20        0.0%
BITSFR19             0      0       0      20        0.0%
SFR19                0      0       0      20        0.0%
BITBANK8            50      0       0      21        0.0%
BITSFR20             0      0       0      21        0.0%
SFR20                0      0       0      21        0.0%
BANK8               50      0       0      22        0.0%
BITSFR21             0      0       0      22        0.0%
SFR21                0      0       0      22        0.0%
BITBANK9            50      0       0      23        0.0%
BITSFR22             0      0       0      23        0.0%
SFR22                0      0       0      23        0.0%
BANK9               50      0       0      24        0.0%
BITSFR23             0      0       0      24        0.0%
SFR23                0      0       0      24        0.0%
BITBANK10           50      0       0      25        0.0%
BITSFR24             0      0       0      25        0.0%
SFR24                0      0       0      25        0.0%
BANK10              50      0       0      26        0.0%
BITSFR25             0      0       0      26        0.0%
SFR25                0      0       0      26        0.0%
BITBANK11           50      0       0      27        0.0%
BITSFR26             0      0       0      27        0.0%
SFR26                0      0       0      27        0.0%
BITSFR27             0      0       0      28        0.0%
SFR27                0      0       0      28        0.0%
DATA                 0      0       0      28        0.0%
BANK11              50      0       0      29        0.0%
BITSFR28             0      0       0      29        0.0%
SFR28                0      0       0      29        0.0%
BITBANK12           50      0       0      30        0.0%
BITSFR29             0      0       0      30        0.0%
SFR29                0      0       0      30        0.0%
BANK12              50      0       0      31        0.0%
BITSFR30             0      0       0      31        0.0%
SFR30                0      0       0      31        0.0%
BITBANK13           50      0       0      32        0.0%
BITSFR31             0      0       0      32        0.0%
SFR31                0      0       0      32        0.0%
BANK13              50      0       0      33        0.0%
BITBANK14           50      0       0      34        0.0%
BANK14              50      0       0      35        0.0%
BITBANK15           50      0       0      36        0.0%
BANK15              50      0       0      37        0.0%
BITBANK16           50      0       0      38        0.0%
BANK16              50      0       0      39        0.0%
BITBANK17           50      0       0      40        0.0%
BANK17              50      0       0      41        0.0%
BITBANK18           50      0       0      42        0.0%
BANK18              50      0       0      43        0.0%
BITBANK19           50      0       0      44        0.0%
BANK19              50      0       0      45        0.0%
BITBANK20           50      0       0      46        0.0%
BANK20              50      0       0      47        0.0%
BITBANK21           50      0       0      48        0.0%
BANK21              50      0       0      49        0.0%
BITBANK22           50      0       0      50        0.0%
BANK22              50      0       0      51        0.0%
BITBANK23           50      0       0      52        0.0%
BANK23              40      0       0      53        0.0%
BITBANK24           50      0       0      54        0.0%
BANK24               0      0       0      55        0.0%
BITBANK25           20      0       0      56        0.0%
BANK25               0      0       0      57        0.0%


Microchip Technology PIC Macro Assembler V2.46 build 20240104201356 
Symbol Table                                                                                   Thu Jan 29 19:34:58 2026

                       l40 05BA                         l33 04BF                         l70 0538  
                       l48 0761                         l67 06D4                         u20 0556  
                       u21 0553                         u14 054E                         u15 054D  
                       u40 056A                         u41 0569                         u34 0558  
                      l110 04DC                        l112 04E4                        l105 060A  
                      l108 04D7                        l220 056A                        l221 0578  
                      l207 04A9                        l163 04C8                        l227 0501  
                      l370 0775                        l194 04B0                        l380 07F1  
                      l197 04B7                        l831 04D5                        l833 04E1  
                      l835 04E3                        l763 04AA                        l771 04B2  
                      l765 04AE                        l773 053A                        l839 04C0  
                      l767 04AF                        l791 056C                        l775 053E  
                      l793 0574                        l785 0549                        l777 0540  
                      l787 0558                        l779 0548                        l981 0515  
                      l973 0502                        l789 0560                        l991 051F  
                      l983 0517                        l975 0505                        l993 0521  
                      l985 0519                        l977 0511                        l995 0523  
                      l987 051B                        l979 0513                        l997 0526  
                      l989 051D                        l999 0528                        u120 04DC  
                      u121 04DB                        u130 04E1                        u131 04E0  
                      u600 0501                        u601 0500                        u610 0580  
                      u611 057F                        u620 0586                        u621 0585  
                      u710 07AA                        u630 0594                        u711 07A9  
                      u631 0593                        u640 059A                        u800 070E  
                      u705 079C                        u641 0599                        u801 070D  
                      u730 07C3                        u650 05A8                        u810 0718  
                      u731 07C2                        u651 05A7                        u811 0717  
                      u900 0696                        u660 05AE                        u820 0722  
                      u725 07AB                        u901 0695                        u661 05AD  
                      u821 0721                        u750 07D9                        u670 0768  
                      u910 06B7                        u830 072C                        u751 07D8  
                      u735 07BF                        u671 0767                        u911 06B6  
                      u831 072B                        u760 07DE                        u680 0779  
                      u920 06CA                        u840 074B                        u761 07DD  
                      u745 07CD                        u681 0778                        u921 06C9  
                      u841 074A                        u690 0798                        u930 05C9  
                      u850 074F                        u770 06DB                        u691 0797  
                      u851 074E                        u771 06DA                        u940 05E0  
                      u780 06E5                        u925 06C6                        u781 06E4  
                      u870 0760                        u790 0704                        u950 065B  
                      u935 05C5                        u871 075E                        u791 0703  
                      u951 065A                        u880 0761                        u945 05DC  
                      u865 0753                        u890 0678                        u891 0677  
                      u967 0617                        u977 0543                        u987 055B  
                      u997 056F                        wreg 0009               ?_EUSART_Read 0070  
                     l1001 0529                       l1011 04A4                       l1003 052E  
                     l1005 0533                       l1007 0535                       l1009 0537  
                     l1201 05A2                       l1203 05A8                       l1221 0784  
                     l1213 0762                       l1301 066E                       l1205 05AE  
                     l1231 07A6                       l1223 0788                       l1215 0764  
                     l1311 0690                       l1303 0672                       l1241 07CC  
                     l1233 07AA                       l1225 0790                       l1217 0768  
                     l1321 06AD                       l1313 0696                       l1305 0678  
                     l1209 05B6                       l1243 07D3                       l1235 07B1  
                     l1227 0798                       l1219 0779                       l1323 06B1  
                     l1315 0697                       l1307 0687                       l1237 07C3  
                     l1229 079B                       l1245 07D9                       l1341 0606  
                     l1333 05BB                       l1309 068C                       l1181 04F2  
                     l1253 04B8                       l1247 07DE                       l1239 07CB  
                     l1343 0607                       l1335 0601                       l1319 069E  
                     l1327 06B8                       l1271 06FB                       l1263 06E7  
                     l1255 06D5                       l1183 04F6                       l1351 060B  
                     l1249 07E9                       l1345 0608                       l1337 0604  
                     l1329 06CA                       l1193 058E                       l1185 057A  
                     l1273 0704                       l1265 06E8                       l1257 06DB  
                     l1177 04E5                       l1361 0638                       l1353 060E  
                     l1347 0609                       l1339 0605                       l1195 0594  
                     l1187 0580                       l1275 070E                       l1267 06EF  
                     l1259 06E5                       l1179 04E8                       l1371 0663  
                     l1363 063F                       l1355 061E                       l1197 059A  
                     l1189 0586                       l1285 072D                       l1277 0718  
                     l1269 06F7                       l1365 0648                       l1357 062A  
                     l1295 0750                       l1287 0747                       l1279 0722  
                     l1367 064F                       l1359 0631                       l1289 074B  
                     l1369 065B                       l1299 066D                       STR_1 0845  
                     STR_2 0800                       STR_3 0823                       STR_4 086F  
                     STR_5 0864                       _BRGH 0CF2                       _CREN 0CEC  
                     u1007 050A                       _SCS0 04C8                       _SCS1 04C9  
                     _SPEN 0CEF                       _TXEN 0CF5                       _SYNC 0CF4  
                     _main 060B                       _line 2770                       fsr0h 0005  
                     fsr1h 0007                       indf0 0000                       fsr0l 0004  
                     indf1 0001                       fsr1l 0006                       btemp 007E  
                     start 0003              SUART_Lock@gie 0070            __end_of___aldiv 07F2  
                    ?_main 0070                      _BRG16 0CFB                      _IRCF0 04CB  
                    _IRCF1 04CC                      _IRCF2 04CD                      _IRCF3 04CE  
              hex_nibble@c 0072                      status 0003                      wtemp0 007E  
              ?_SUART_Init 0070                ?_SUART_Lock 0070               ?_internal_32 0070  
          __initialization 07F2               __end_of_main 066D   __end_of_nmea_checksum_ok 0762  
                   ??_main 0036                     _RC1REG 0199                     _SPBRGL 019B  
                   _TX1REG 019A                     _SPLLEN 04CF                  ??___aldiv 0078  
         __end_of_initMain 0539           ??_SUART_Transmit 0071    SUART_Transmit@DataValue 0072  
  __end_of__initialization 07FD             __pcstackCOMMON 0070              _gps_read_line 066D  
               __pmaintext 060B             ?_gps_read_line 0070                    _PPSLOCK 0E0F  
         _SUART_Write_Text 04E5                 _hex_nibble 0579                  ?_initMain 0070  
             ??_SUART_Init 0070               ??_SUART_Lock 0070                    ___aldiv 0762  
        ?_nmea_checksum_ok 0073                    __ptext1 04B8                    __ptext2 04E5  
                  __ptext3 0539                    __ptext4 04B1                    __ptext5 04AA  
                  __ptext6 06D5                    __ptext7 0579                    __ptext8 0502  
                  __ptext9 04C0            SUART_Transmit@i 0074            SUART_Unlock@gie 0070  
       ??_nmea_checksum_ok 0075         __end_of_SUART_Init 04AA         __end_of_SUART_Lock 04B1  
         ___aldiv@dividend 0074                    clrloop0 04CA       end_of_initialization 07FD  
               ??_initMain 0070          _EUSART_Initialize 05BB         ?_EUSART_Initialize 0026  
         ___aldiv@quotient 0022            ??_gps_read_line 0073         EUSART_Initialize@x 0079  
      ??_EUSART_Initialize 002A                  _PORTBbits 000D              ?_SUART_Unlock 0070  
                _TRISBbits 008D                  _RXPPSbits 0E24                ?_hex_nibble 0070  
__end_of_EUSART_Initialize 060B                 _suart_puts 04B8             ??_SUART_Unlock 0070  
     SUART_Write_Text@text 0075        start_initialization 07F2              ??_EUSART_Read 0070  
 __end_of_SUART_Write_Text 0502                __pbssBIGRAM 2770                  ___latbits 0003  
            __pcstackBANK0 0020                suart_puts@s 007A                ?_suart_puts 007A  
      __end_of_EUSART_Read 04E5              ??_internal_32 0070                   ?___aldiv 0070  
        SUART_Transmit@gie 0073  EUSART_Initialize@baudrate 0026             gps_read_line@c 0077  
           gps_read_line@n 0078            ___aldiv@divisor 0070            ___aldiv@counter 0020  
                 _LATBbits 010D       __end_of_SUART_Unlock 04B8                  clear_ram0 04C9  
                 _PIR1bits 0011        __end_of_internal_32 04C9           gps_read_line@buf 0070  
              _EUSART_Read 04D5               ??_hex_nibble 0072      __end_of_gps_read_line 06D5  
        SUART_Write_Text@i 0078                 _ANSELBbits 018D         __end_of_hex_nibble 05BB  
           _SUART_Transmit 0539                   __ptext10 066D                   __ptext11 04D5  
                 __ptext12 04A4                   __ptext13 05BB                   __ptext14 0762  
                 _initMain 0502                _internal_32 04C0                 _RB2PPSbits 0E9A  
               _RC1STAbits 019D          ?_SUART_Write_Text 0075         ??_SUART_Write_Text 0077  
   __end_of_SUART_Transmit 0579                 _INTCONbits 000B           _nmea_checksum_ok 06D5  
             ??_suart_puts 007C                _PPSLOCKbits 0E0F        gps_read_line@maxlen 0072  
       nmea_checksum_ok@hi 0078         nmea_checksum_ok@cs 0077         nmea_checksum_ok@lo 007A  
            __pstringtext1 0800              __pstringtext2 0823              __pstringtext3 0845  
            __pstringtext4 0864              __pstringtext5 086F              __pstringtext6 0000  
             _SUART_Unlock 04B1         __end_of_suart_puts 04C0            ?_SUART_Transmit 0070  
             ___aldiv@sign 0021          nmea_checksum_ok@p 007C          nmea_checksum_ok@s 0073  
               _SUART_Init 04A4                 _SUART_Lock 04AA  
