

Microchip MPLAB XC8 Assembler V2.46 build 20240104201356 
                                                                                               Fri Dec 26 22:57:31 2025

Microchip MPLAB XC8 C Compiler v2.46 (Free license) build 20240104201356 Og1 
     1                           	processor	16F1719
     2                           	pagewidth 120
     3                           	opt	flic
     4                           	psect	idataCOMMON,global,class=CODE,delta=2,noexec
     5                           	psect	idataBANK0,global,class=CODE,delta=2,noexec
     6                           	psect	stringtext1,global,class=STRCODE,delta=2,noexec
     7                           	psect	stringtext2,global,class=STRCODE,delta=2,noexec
     8                           	psect	cinit,global,class=CODE,merge=1,delta=2
     9                           	psect	bssCOMMON,global,class=COMMON,space=1,delta=1,noexec
    10                           	psect	dataCOMMON,global,class=COMMON,space=1,delta=1,noexec
    11                           	psect	bssBANK0,global,class=BANK0,space=1,delta=1,noexec
    12                           	psect	dataBANK0,global,class=BANK0,space=1,delta=1,noexec
    13                           	psect	bssBANK1,global,class=BANK1,space=1,delta=1,noexec
    14                           	psect	clrtext,global,class=CODE,delta=2
    15                           	psect	cstackCOMMON,global,class=COMMON,space=1,delta=1,noexec
    16                           	psect	cstackBANK0,global,class=BANK0,space=1,delta=1,noexec
    17                           	psect	maintext,global,class=CODE,merge=1,split=1,delta=2
    18                           	psect	text1,local,class=CODE,merge=1,delta=2
    19                           	psect	text2,local,class=CODE,merge=1,delta=2
    20                           	psect	text3,local,class=CODE,merge=1,delta=2,group=1
    21                           	psect	text4,local,class=CODE,merge=1,delta=2
    22                           	psect	text5,local,class=CODE,merge=1,delta=2
    23                           	psect	text6,local,class=CODE,merge=1,delta=2
    24                           	psect	text7,local,class=CODE,merge=1,delta=2
    25                           	psect	text8,local,class=CODE,merge=1,delta=2
    26                           	psect	text9,local,class=CODE,merge=1,delta=2
    27                           	psect	text10,local,class=CODE,merge=1,delta=2
    28                           	psect	text11,local,class=CODE,merge=1,delta=2
    29                           	psect	text12,local,class=CODE,merge=1,delta=2
    30                           	psect	text13,local,class=CODE,merge=1,delta=2
    31                           	psect	text14,local,class=CODE,merge=1,delta=2
    32                           	psect	text15,local,class=CODE,merge=1,delta=2
    33                           	psect	text16,local,class=CODE,merge=1,delta=2,group=1
    34                           	psect	text17,local,class=CODE,merge=1,delta=2,group=1
    35                           	psect	text18,local,class=CODE,merge=1,delta=2
    36                           	psect	text19,local,class=CODE,merge=1,delta=2
    37                           	psect	intentry,global,class=CODE,delta=2
    38                           	psect	text21,local,class=CODE,merge=1,inline,delta=2
    39                           	psect	config,global,abs,ovrld,class=CONFIG,space=4,delta=2,noexec
    40                           	dabs	1,0x7E,2
    41     0000                     
    42                           ; Generated 07/09/2023 GMT
    43                           ; 
    44                           ; Copyright © 2023, Microchip Technology Inc. and its subsidiaries ("Microchip")
    45                           ; All rights reserved.
    46                           ; 
    47                           ; This software is developed by Microchip Technology Inc. and its subsidiaries ("Microch
      +                          ip").
    48                           ; 
    49                           ; Redistribution and use in source and binary forms, with or without modification, are
    50                           ; permitted provided that the following conditions are met:
    51                           ; 
    52                           ;     1. Redistributions of source code must retain the above copyright notice, this lis
      +                          t of
    53                           ;        conditions and the following disclaimer.
    54                           ; 
    55                           ;     2. Redistributions in binary form must reproduce the above copyright notice, this 
      +                          list
    56                           ;        of conditions and the following disclaimer in the documentation and/or other
    57                           ;        materials provided with the distribution. Publication is not required when
    58                           ;        this file is used in an embedded application.
    59                           ; 
    60                           ;     3. Microchip's name may not be used to endorse or promote products derived from th
      +                          is
    61                           ;        software without specific prior written permission.
    62                           ; 
    63                           ; THIS SOFTWARE IS PROVIDED BY MICROCHIP "AS IS" AND ANY EXPRESS OR IMPLIED WARRANTIES,
    64                           ; INCLUDING, BUT NOT LIMITED TO, THE IMPLIED WARRANTIES OF MERCHANTABILITY AND FITNESS F
      +                          OR
    65                           ; PURPOSE ARE DISCLAIMED.  IN NO EVENT SHALL MICROCHIP BE LIABLE FOR ANY DIRECT, INDIREC
      +                          T,
    66                           ; INCIDENTAL, SPECIAL, EXEMPLARY, OR CONSEQUENTIAL DAMAGES (INCLUDING BUT NOT LIMITED TO
    67                           ; PROCUREMENT OF SUBSTITUTE GOODS OR SERVICES; LOSS OF USE, DATA OR PROFITS; OR BUSINESS
    68                           ; INTERRUPTION) HOWSOEVER CAUSED AND ON ANY THEORY OF LIABILITY, WHETHER IN CONTRACT, ST
      +                          RICT
    69                           ; LIABILITY, OR TORT (INCLUDING NEGLIGENCE OR OTHERWISE) ARISING IN ANY WAY OUT OF THE U
      +                          SE OF
    70                           ; THIS SOFTWARE, EVEN IF ADVISED OF THE POSSIBILITY OF SUCH DAMAGE.
    71                           ; 
    72                           ; 
    73                           ; Code-generator required, PIC16F1719 Definitions
    74                           ; 
    75                           ; SFR Addresses
    76     0000                     	;# 
    77     0001                     	;# 
    78     0002                     	;# 
    79     0003                     	;# 
    80     0004                     	;# 
    81     0005                     	;# 
    82     0006                     	;# 
    83     0007                     	;# 
    84     0008                     	;# 
    85     0009                     	;# 
    86     000A                     	;# 
    87     000B                     	;# 
    88     000C                     	;# 
    89     000D                     	;# 
    90     000E                     	;# 
    91     000F                     	;# 
    92     0010                     	;# 
    93     0011                     	;# 
    94     0012                     	;# 
    95     0013                     	;# 
    96     0015                     	;# 
    97     0016                     	;# 
    98     0016                     	;# 
    99     0017                     	;# 
   100     0018                     	;# 
   101     0019                     	;# 
   102     001A                     	;# 
   103     001B                     	;# 
   104     001C                     	;# 
   105     008C                     	;# 
   106     008D                     	;# 
   107     008E                     	;# 
   108     008F                     	;# 
   109     0090                     	;# 
   110     0091                     	;# 
   111     0092                     	;# 
   112     0093                     	;# 
   113     0095                     	;# 
   114     0096                     	;# 
   115     0097                     	;# 
   116     0098                     	;# 
   117     0099                     	;# 
   118     009A                     	;# 
   119     009B                     	;# 
   120     009B                     	;# 
   121     009C                     	;# 
   122     009D                     	;# 
   123     009E                     	;# 
   124     009F                     	;# 
   125     010C                     	;# 
   126     010D                     	;# 
   127     010E                     	;# 
   128     010F                     	;# 
   129     0110                     	;# 
   130     0111                     	;# 
   131     0112                     	;# 
   132     0113                     	;# 
   133     0114                     	;# 
   134     0115                     	;# 
   135     0116                     	;# 
   136     0117                     	;# 
   137     0118                     	;# 
   138     0119                     	;# 
   139     011A                     	;# 
   140     011B                     	;# 
   141     011B                     	;# 
   142     011C                     	;# 
   143     018C                     	;# 
   144     018D                     	;# 
   145     018E                     	;# 
   146     018F                     	;# 
   147     0190                     	;# 
   148     0191                     	;# 
   149     0191                     	;# 
   150     0192                     	;# 
   151     0193                     	;# 
   152     0193                     	;# 
   153     0194                     	;# 
   154     0195                     	;# 
   155     0196                     	;# 
   156     0197                     	;# 
   157     0199                     	;# 
   158     0199                     	;# 
   159     0199                     	;# 
   160     019A                     	;# 
   161     019A                     	;# 
   162     019A                     	;# 
   163     019B                     	;# 
   164     019B                     	;# 
   165     019B                     	;# 
   166     019B                     	;# 
   167     019B                     	;# 
   168     019C                     	;# 
   169     019C                     	;# 
   170     019C                     	;# 
   171     019D                     	;# 
   172     019D                     	;# 
   173     019D                     	;# 
   174     019E                     	;# 
   175     019E                     	;# 
   176     019E                     	;# 
   177     019F                     	;# 
   178     019F                     	;# 
   179     019F                     	;# 
   180     019F                     	;# 
   181     019F                     	;# 
   182     020C                     	;# 
   183     020D                     	;# 
   184     020E                     	;# 
   185     020F                     	;# 
   186     0210                     	;# 
   187     0211                     	;# 
   188     0211                     	;# 
   189     0212                     	;# 
   190     0212                     	;# 
   191     0213                     	;# 
   192     0213                     	;# 
   193     0214                     	;# 
   194     0214                     	;# 
   195     0215                     	;# 
   196     0215                     	;# 
   197     0215                     	;# 
   198     0215                     	;# 
   199     0216                     	;# 
   200     0216                     	;# 
   201     0217                     	;# 
   202     0217                     	;# 
   203     028C                     	;# 
   204     028D                     	;# 
   205     028E                     	;# 
   206     028F                     	;# 
   207     0290                     	;# 
   208     0291                     	;# 
   209     0291                     	;# 
   210     0292                     	;# 
   211     0293                     	;# 
   212     0293                     	;# 
   213     0298                     	;# 
   214     0298                     	;# 
   215     0299                     	;# 
   216     029A                     	;# 
   217     029A                     	;# 
   218     029E                     	;# 
   219     030C                     	;# 
   220     030D                     	;# 
   221     030E                     	;# 
   222     030F                     	;# 
   223     0310                     	;# 
   224     038C                     	;# 
   225     038D                     	;# 
   226     038E                     	;# 
   227     038F                     	;# 
   228     0390                     	;# 
   229     0391                     	;# 
   230     0392                     	;# 
   231     0393                     	;# 
   232     0394                     	;# 
   233     0395                     	;# 
   234     0396                     	;# 
   235     0397                     	;# 
   236     0398                     	;# 
   237     0399                     	;# 
   238     039D                     	;# 
   239     039E                     	;# 
   240     039F                     	;# 
   241     0415                     	;# 
   242     0416                     	;# 
   243     0417                     	;# 
   244     041C                     	;# 
   245     041D                     	;# 
   246     041E                     	;# 
   247     0498                     	;# 
   248     0498                     	;# 
   249     0499                     	;# 
   250     049A                     	;# 
   251     049B                     	;# 
   252     049B                     	;# 
   253     049C                     	;# 
   254     049D                     	;# 
   255     049E                     	;# 
   256     049F                     	;# 
   257     0511                     	;# 
   258     0515                     	;# 
   259     0617                     	;# 
   260     0618                     	;# 
   261     0619                     	;# 
   262     0619                     	;# 
   263     061A                     	;# 
   264     061B                     	;# 
   265     061C                     	;# 
   266     061C                     	;# 
   267     0691                     	;# 
   268     0692                     	;# 
   269     0693                     	;# 
   270     0694                     	;# 
   271     0695                     	;# 
   272     0696                     	;# 
   273     0697                     	;# 
   274     0698                     	;# 
   275     0699                     	;# 
   276     069A                     	;# 
   277     069B                     	;# 
   278     069C                     	;# 
   279     069D                     	;# 
   280     069E                     	;# 
   281     069F                     	;# 
   282     0E0F                     	;# 
   283     0E10                     	;# 
   284     0E11                     	;# 
   285     0E12                     	;# 
   286     0E13                     	;# 
   287     0E14                     	;# 
   288     0E15                     	;# 
   289     0E17                     	;# 
   290     0E20                     	;# 
   291     0E21                     	;# 
   292     0E22                     	;# 
   293     0E24                     	;# 
   294     0E25                     	;# 
   295     0E28                     	;# 
   296     0E29                     	;# 
   297     0E2A                     	;# 
   298     0E2B                     	;# 
   299     0E90                     	;# 
   300     0E91                     	;# 
   301     0E92                     	;# 
   302     0E93                     	;# 
   303     0E94                     	;# 
   304     0E95                     	;# 
   305     0E96                     	;# 
   306     0E97                     	;# 
   307     0E98                     	;# 
   308     0E99                     	;# 
   309     0E9A                     	;# 
   310     0E9B                     	;# 
   311     0E9C                     	;# 
   312     0E9D                     	;# 
   313     0E9E                     	;# 
   314     0E9F                     	;# 
   315     0EA0                     	;# 
   316     0EA1                     	;# 
   317     0EA2                     	;# 
   318     0EA3                     	;# 
   319     0EA4                     	;# 
   320     0EA5                     	;# 
   321     0EA6                     	;# 
   322     0EA7                     	;# 
   323     0EA8                     	;# 
   324     0EA9                     	;# 
   325     0EAA                     	;# 
   326     0EAB                     	;# 
   327     0EAC                     	;# 
   328     0EAD                     	;# 
   329     0EAE                     	;# 
   330     0EAF                     	;# 
   331     0EB0                     	;# 
   332     0EB1                     	;# 
   333     0EB2                     	;# 
   334     0F0F                     	;# 
   335     0F10                     	;# 
   336     0F11                     	;# 
   337     0F12                     	;# 
   338     0F13                     	;# 
   339     0F14                     	;# 
   340     0F15                     	;# 
   341     0F16                     	;# 
   342     0F17                     	;# 
   343     0F18                     	;# 
   344     0F19                     	;# 
   345     0F1A                     	;# 
   346     0F1B                     	;# 
   347     0F1C                     	;# 
   348     0F1D                     	;# 
   349     0F1E                     	;# 
   350     0F1F                     	;# 
   351     0F20                     	;# 
   352     0F21                     	;# 
   353     0F22                     	;# 
   354     0F23                     	;# 
   355     0F24                     	;# 
   356     0F25                     	;# 
   357     0F26                     	;# 
   358     0F27                     	;# 
   359     0F28                     	;# 
   360     0F29                     	;# 
   361     0F2A                     	;# 
   362     0F2B                     	;# 
   363     0F2C                     	;# 
   364     0F2D                     	;# 
   365     0F2E                     	;# 
   366     0F2F                     	;# 
   367     0F30                     	;# 
   368     0F31                     	;# 
   369     0F32                     	;# 
   370     0F33                     	;# 
   371     0F34                     	;# 
   372     0F35                     	;# 
   373     0F36                     	;# 
   374     0F37                     	;# 
   375     0FE4                     	;# 
   376     0FE5                     	;# 
   377     0FE6                     	;# 
   378     0FE7                     	;# 
   379     0FE8                     	;# 
   380     0FE9                     	;# 
   381     0FEA                     	;# 
   382     0FEB                     	;# 
   383     0FED                     	;# 
   384     0FEE                     	;# 
   385     0FEF                     	;# 
   386     0000                     	;# 
   387     0001                     	;# 
   388     0002                     	;# 
   389     0003                     	;# 
   390     0004                     	;# 
   391     0005                     	;# 
   392     0006                     	;# 
   393     0007                     	;# 
   394     0008                     	;# 
   395     0009                     	;# 
   396     000A                     	;# 
   397     000B                     	;# 
   398     000C                     	;# 
   399     000D                     	;# 
   400     000E                     	;# 
   401     000F                     	;# 
   402     0010                     	;# 
   403     0011                     	;# 
   404     0012                     	;# 
   405     0013                     	;# 
   406     0015                     	;# 
   407     0016                     	;# 
   408     0016                     	;# 
   409     0017                     	;# 
   410     0018                     	;# 
   411     0019                     	;# 
   412     001A                     	;# 
   413     001B                     	;# 
   414     001C                     	;# 
   415     008C                     	;# 
   416     008D                     	;# 
   417     008E                     	;# 
   418     008F                     	;# 
   419     0090                     	;# 
   420     0091                     	;# 
   421     0092                     	;# 
   422     0093                     	;# 
   423     0095                     	;# 
   424     0096                     	;# 
   425     0097                     	;# 
   426     0098                     	;# 
   427     0099                     	;# 
   428     009A                     	;# 
   429     009B                     	;# 
   430     009B                     	;# 
   431     009C                     	;# 
   432     009D                     	;# 
   433     009E                     	;# 
   434     009F                     	;# 
   435     010C                     	;# 
   436     010D                     	;# 
   437     010E                     	;# 
   438     010F                     	;# 
   439     0110                     	;# 
   440     0111                     	;# 
   441     0112                     	;# 
   442     0113                     	;# 
   443     0114                     	;# 
   444     0115                     	;# 
   445     0116                     	;# 
   446     0117                     	;# 
   447     0118                     	;# 
   448     0119                     	;# 
   449     011A                     	;# 
   450     011B                     	;# 
   451     011B                     	;# 
   452     011C                     	;# 
   453     018C                     	;# 
   454     018D                     	;# 
   455     018E                     	;# 
   456     018F                     	;# 
   457     0190                     	;# 
   458     0191                     	;# 
   459     0191                     	;# 
   460     0192                     	;# 
   461     0193                     	;# 
   462     0193                     	;# 
   463     0194                     	;# 
   464     0195                     	;# 
   465     0196                     	;# 
   466     0197                     	;# 
   467     0199                     	;# 
   468     0199                     	;# 
   469     0199                     	;# 
   470     019A                     	;# 
   471     019A                     	;# 
   472     019A                     	;# 
   473     019B                     	;# 
   474     019B                     	;# 
   475     019B                     	;# 
   476     019B                     	;# 
   477     019B                     	;# 
   478     019C                     	;# 
   479     019C                     	;# 
   480     019C                     	;# 
   481     019D                     	;# 
   482     019D                     	;# 
   483     019D                     	;# 
   484     019E                     	;# 
   485     019E                     	;# 
   486     019E                     	;# 
   487     019F                     	;# 
   488     019F                     	;# 
   489     019F                     	;# 
   490     019F                     	;# 
   491     019F                     	;# 
   492     020C                     	;# 
   493     020D                     	;# 
   494     020E                     	;# 
   495     020F                     	;# 
   496     0210                     	;# 
   497     0211                     	;# 
   498     0211                     	;# 
   499     0212                     	;# 
   500     0212                     	;# 
   501     0213                     	;# 
   502     0213                     	;# 
   503     0214                     	;# 
   504     0214                     	;# 
   505     0215                     	;# 
   506     0215                     	;# 
   507     0215                     	;# 
   508     0215                     	;# 
   509     0216                     	;# 
   510     0216                     	;# 
   511     0217                     	;# 
   512     0217                     	;# 
   513     028C                     	;# 
   514     028D                     	;# 
   515     028E                     	;# 
   516     028F                     	;# 
   517     0290                     	;# 
   518     0291                     	;# 
   519     0291                     	;# 
   520     0292                     	;# 
   521     0293                     	;# 
   522     0293                     	;# 
   523     0298                     	;# 
   524     0298                     	;# 
   525     0299                     	;# 
   526     029A                     	;# 
   527     029A                     	;# 
   528     029E                     	;# 
   529     030C                     	;# 
   530     030D                     	;# 
   531     030E                     	;# 
   532     030F                     	;# 
   533     0310                     	;# 
   534     038C                     	;# 
   535     038D                     	;# 
   536     038E                     	;# 
   537     038F                     	;# 
   538     0390                     	;# 
   539     0391                     	;# 
   540     0392                     	;# 
   541     0393                     	;# 
   542     0394                     	;# 
   543     0395                     	;# 
   544     0396                     	;# 
   545     0397                     	;# 
   546     0398                     	;# 
   547     0399                     	;# 
   548     039D                     	;# 
   549     039E                     	;# 
   550     039F                     	;# 
   551     0415                     	;# 
   552     0416                     	;# 
   553     0417                     	;# 
   554     041C                     	;# 
   555     041D                     	;# 
   556     041E                     	;# 
   557     0498                     	;# 
   558     0498                     	;# 
   559     0499                     	;# 
   560     049A                     	;# 
   561     049B                     	;# 
   562     049B                     	;# 
   563     049C                     	;# 
   564     049D                     	;# 
   565     049E                     	;# 
   566     049F                     	;# 
   567     0511                     	;# 
   568     0515                     	;# 
   569     0617                     	;# 
   570     0618                     	;# 
   571     0619                     	;# 
   572     0619                     	;# 
   573     061A                     	;# 
   574     061B                     	;# 
   575     061C                     	;# 
   576     061C                     	;# 
   577     0691                     	;# 
   578     0692                     	;# 
   579     0693                     	;# 
   580     0694                     	;# 
   581     0695                     	;# 
   582     0696                     	;# 
   583     0697                     	;# 
   584     0698                     	;# 
   585     0699                     	;# 
   586     069A                     	;# 
   587     069B                     	;# 
   588     069C                     	;# 
   589     069D                     	;# 
   590     069E                     	;# 
   591     069F                     	;# 
   592     0E0F                     	;# 
   593     0E10                     	;# 
   594     0E11                     	;# 
   595     0E12                     	;# 
   596     0E13                     	;# 
   597     0E14                     	;# 
   598     0E15                     	;# 
   599     0E17                     	;# 
   600     0E20                     	;# 
   601     0E21                     	;# 
   602     0E22                     	;# 
   603     0E24                     	;# 
   604     0E25                     	;# 
   605     0E28                     	;# 
   606     0E29                     	;# 
   607     0E2A                     	;# 
   608     0E2B                     	;# 
   609     0E90                     	;# 
   610     0E91                     	;# 
   611     0E92                     	;# 
   612     0E93                     	;# 
   613     0E94                     	;# 
   614     0E95                     	;# 
   615     0E96                     	;# 
   616     0E97                     	;# 
   617     0E98                     	;# 
   618     0E99                     	;# 
   619     0E9A                     	;# 
   620     0E9B                     	;# 
   621     0E9C                     	;# 
   622     0E9D                     	;# 
   623     0E9E                     	;# 
   624     0E9F                     	;# 
   625     0EA0                     	;# 
   626     0EA1                     	;# 
   627     0EA2                     	;# 
   628     0EA3                     	;# 
   629     0EA4                     	;# 
   630     0EA5                     	;# 
   631     0EA6                     	;# 
   632     0EA7                     	;# 
   633     0EA8                     	;# 
   634     0EA9                     	;# 
   635     0EAA                     	;# 
   636     0EAB                     	;# 
   637     0EAC                     	;# 
   638     0EAD                     	;# 
   639     0EAE                     	;# 
   640     0EAF                     	;# 
   641     0EB0                     	;# 
   642     0EB1                     	;# 
   643     0EB2                     	;# 
   644     0F0F                     	;# 
   645     0F10                     	;# 
   646     0F11                     	;# 
   647     0F12                     	;# 
   648     0F13                     	;# 
   649     0F14                     	;# 
   650     0F15                     	;# 
   651     0F16                     	;# 
   652     0F17                     	;# 
   653     0F18                     	;# 
   654     0F19                     	;# 
   655     0F1A                     	;# 
   656     0F1B                     	;# 
   657     0F1C                     	;# 
   658     0F1D                     	;# 
   659     0F1E                     	;# 
   660     0F1F                     	;# 
   661     0F20                     	;# 
   662     0F21                     	;# 
   663     0F22                     	;# 
   664     0F23                     	;# 
   665     0F24                     	;# 
   666     0F25                     	;# 
   667     0F26                     	;# 
   668     0F27                     	;# 
   669     0F28                     	;# 
   670     0F29                     	;# 
   671     0F2A                     	;# 
   672     0F2B                     	;# 
   673     0F2C                     	;# 
   674     0F2D                     	;# 
   675     0F2E                     	;# 
   676     0F2F                     	;# 
   677     0F30                     	;# 
   678     0F31                     	;# 
   679     0F32                     	;# 
   680     0F33                     	;# 
   681     0F34                     	;# 
   682     0F35                     	;# 
   683     0F36                     	;# 
   684     0F37                     	;# 
   685     0FE4                     	;# 
   686     0FE5                     	;# 
   687     0FE6                     	;# 
   688     0FE7                     	;# 
   689     0FE8                     	;# 
   690     0FE9                     	;# 
   691     0FEA                     	;# 
   692     0FEB                     	;# 
   693     0FED                     	;# 
   694     0FEE                     	;# 
   695     0FEF                     	;# 
   696     0000                     	;# 
   697     0001                     	;# 
   698     0002                     	;# 
   699     0003                     	;# 
   700     0004                     	;# 
   701     0005                     	;# 
   702     0006                     	;# 
   703     0007                     	;# 
   704     0008                     	;# 
   705     0009                     	;# 
   706     000A                     	;# 
   707     000B                     	;# 
   708     000C                     	;# 
   709     000D                     	;# 
   710     000E                     	;# 
   711     000F                     	;# 
   712     0010                     	;# 
   713     0011                     	;# 
   714     0012                     	;# 
   715     0013                     	;# 
   716     0015                     	;# 
   717     0016                     	;# 
   718     0016                     	;# 
   719     0017                     	;# 
   720     0018                     	;# 
   721     0019                     	;# 
   722     001A                     	;# 
   723     001B                     	;# 
   724     001C                     	;# 
   725     008C                     	;# 
   726     008D                     	;# 
   727     008E                     	;# 
   728     008F                     	;# 
   729     0090                     	;# 
   730     0091                     	;# 
   731     0092                     	;# 
   732     0093                     	;# 
   733     0095                     	;# 
   734     0096                     	;# 
   735     0097                     	;# 
   736     0098                     	;# 
   737     0099                     	;# 
   738     009A                     	;# 
   739     009B                     	;# 
   740     009B                     	;# 
   741     009C                     	;# 
   742     009D                     	;# 
   743     009E                     	;# 
   744     009F                     	;# 
   745     010C                     	;# 
   746     010D                     	;# 
   747     010E                     	;# 
   748     010F                     	;# 
   749     0110                     	;# 
   750     0111                     	;# 
   751     0112                     	;# 
   752     0113                     	;# 
   753     0114                     	;# 
   754     0115                     	;# 
   755     0116                     	;# 
   756     0117                     	;# 
   757     0118                     	;# 
   758     0119                     	;# 
   759     011A                     	;# 
   760     011B                     	;# 
   761     011B                     	;# 
   762     011C                     	;# 
   763     018C                     	;# 
   764     018D                     	;# 
   765     018E                     	;# 
   766     018F                     	;# 
   767     0190                     	;# 
   768     0191                     	;# 
   769     0191                     	;# 
   770     0192                     	;# 
   771     0193                     	;# 
   772     0193                     	;# 
   773     0194                     	;# 
   774     0195                     	;# 
   775     0196                     	;# 
   776     0197                     	;# 
   777     0199                     	;# 
   778     0199                     	;# 
   779     0199                     	;# 
   780     019A                     	;# 
   781     019A                     	;# 
   782     019A                     	;# 
   783     019B                     	;# 
   784     019B                     	;# 
   785     019B                     	;# 
   786     019B                     	;# 
   787     019B                     	;# 
   788     019C                     	;# 
   789     019C                     	;# 
   790     019C                     	;# 
   791     019D                     	;# 
   792     019D                     	;# 
   793     019D                     	;# 
   794     019E                     	;# 
   795     019E                     	;# 
   796     019E                     	;# 
   797     019F                     	;# 
   798     019F                     	;# 
   799     019F                     	;# 
   800     019F                     	;# 
   801     019F                     	;# 
   802     020C                     	;# 
   803     020D                     	;# 
   804     020E                     	;# 
   805     020F                     	;# 
   806     0210                     	;# 
   807     0211                     	;# 
   808     0211                     	;# 
   809     0212                     	;# 
   810     0212                     	;# 
   811     0213                     	;# 
   812     0213                     	;# 
   813     0214                     	;# 
   814     0214                     	;# 
   815     0215                     	;# 
   816     0215                     	;# 
   817     0215                     	;# 
   818     0215                     	;# 
   819     0216                     	;# 
   820     0216                     	;# 
   821     0217                     	;# 
   822     0217                     	;# 
   823     028C                     	;# 
   824     028D                     	;# 
   825     028E                     	;# 
   826     028F                     	;# 
   827     0290                     	;# 
   828     0291                     	;# 
   829     0291                     	;# 
   830     0292                     	;# 
   831     0293                     	;# 
   832     0293                     	;# 
   833     0298                     	;# 
   834     0298                     	;# 
   835     0299                     	;# 
   836     029A                     	;# 
   837     029A                     	;# 
   838     029E                     	;# 
   839     030C                     	;# 
   840     030D                     	;# 
   841     030E                     	;# 
   842     030F                     	;# 
   843     0310                     	;# 
   844     038C                     	;# 
   845     038D                     	;# 
   846     038E                     	;# 
   847     038F                     	;# 
   848     0390                     	;# 
   849     0391                     	;# 
   850     0392                     	;# 
   851     0393                     	;# 
   852     0394                     	;# 
   853     0395                     	;# 
   854     0396                     	;# 
   855     0397                     	;# 
   856     0398                     	;# 
   857     0399                     	;# 
   858     039D                     	;# 
   859     039E                     	;# 
   860     039F                     	;# 
   861     0415                     	;# 
   862     0416                     	;# 
   863     0417                     	;# 
   864     041C                     	;# 
   865     041D                     	;# 
   866     041E                     	;# 
   867     0498                     	;# 
   868     0498                     	;# 
   869     0499                     	;# 
   870     049A                     	;# 
   871     049B                     	;# 
   872     049B                     	;# 
   873     049C                     	;# 
   874     049D                     	;# 
   875     049E                     	;# 
   876     049F                     	;# 
   877     0511                     	;# 
   878     0515                     	;# 
   879     0617                     	;# 
   880     0618                     	;# 
   881     0619                     	;# 
   882     0619                     	;# 
   883     061A                     	;# 
   884     061B                     	;# 
   885     061C                     	;# 
   886     061C                     	;# 
   887     0691                     	;# 
   888     0692                     	;# 
   889     0693                     	;# 
   890     0694                     	;# 
   891     0695                     	;# 
   892     0696                     	;# 
   893     0697                     	;# 
   894     0698                     	;# 
   895     0699                     	;# 
   896     069A                     	;# 
   897     069B                     	;# 
   898     069C                     	;# 
   899     069D                     	;# 
   900     069E                     	;# 
   901     069F                     	;# 
   902     0E0F                     	;# 
   903     0E10                     	;# 
   904     0E11                     	;# 
   905     0E12                     	;# 
   906     0E13                     	;# 
   907     0E14                     	;# 
   908     0E15                     	;# 
   909     0E17                     	;# 
   910     0E20                     	;# 
   911     0E21                     	;# 
   912     0E22                     	;# 
   913     0E24                     	;# 
   914     0E25                     	;# 
   915     0E28                     	;# 
   916     0E29                     	;# 
   917     0E2A                     	;# 
   918     0E2B                     	;# 
   919     0E90                     	;# 
   920     0E91                     	;# 
   921     0E92                     	;# 
   922     0E93                     	;# 
   923     0E94                     	;# 
   924     0E95                     	;# 
   925     0E96                     	;# 
   926     0E97                     	;# 
   927     0E98                     	;# 
   928     0E99                     	;# 
   929     0E9A                     	;# 
   930     0E9B                     	;# 
   931     0E9C                     	;# 
   932     0E9D                     	;# 
   933     0E9E                     	;# 
   934     0E9F                     	;# 
   935     0EA0                     	;# 
   936     0EA1                     	;# 
   937     0EA2                     	;# 
   938     0EA3                     	;# 
   939     0EA4                     	;# 
   940     0EA5                     	;# 
   941     0EA6                     	;# 
   942     0EA7                     	;# 
   943     0EA8                     	;# 
   944     0EA9                     	;# 
   945     0EAA                     	;# 
   946     0EAB                     	;# 
   947     0EAC                     	;# 
   948     0EAD                     	;# 
   949     0EAE                     	;# 
   950     0EAF                     	;# 
   951     0EB0                     	;# 
   952     0EB1                     	;# 
   953     0EB2                     	;# 
   954     0F0F                     	;# 
   955     0F10                     	;# 
   956     0F11                     	;# 
   957     0F12                     	;# 
   958     0F13                     	;# 
   959     0F14                     	;# 
   960     0F15                     	;# 
   961     0F16                     	;# 
   962     0F17                     	;# 
   963     0F18                     	;# 
   964     0F19                     	;# 
   965     0F1A                     	;# 
   966     0F1B                     	;# 
   967     0F1C                     	;# 
   968     0F1D                     	;# 
   969     0F1E                     	;# 
   970     0F1F                     	;# 
   971     0F20                     	;# 
   972     0F21                     	;# 
   973     0F22                     	;# 
   974     0F23                     	;# 
   975     0F24                     	;# 
   976     0F25                     	;# 
   977     0F26                     	;# 
   978     0F27                     	;# 
   979     0F28                     	;# 
   980     0F29                     	;# 
   981     0F2A                     	;# 
   982     0F2B                     	;# 
   983     0F2C                     	;# 
   984     0F2D                     	;# 
   985     0F2E                     	;# 
   986     0F2F                     	;# 
   987     0F30                     	;# 
   988     0F31                     	;# 
   989     0F32                     	;# 
   990     0F33                     	;# 
   991     0F34                     	;# 
   992     0F35                     	;# 
   993     0F36                     	;# 
   994     0F37                     	;# 
   995     0FE4                     	;# 
   996     0FE5                     	;# 
   997     0FE6                     	;# 
   998     0FE7                     	;# 
   999     0FE8                     	;# 
  1000     0FE9                     	;# 
  1001     0FEA                     	;# 
  1002     0FEB                     	;# 
  1003     0FED                     	;# 
  1004     0FEE                     	;# 
  1005     0FEF                     	;# 
  1006                           
  1007                           	psect	idataCOMMON
  1008     07FF                     __pidataCOMMON:
  1009                           
  1010                           ;initializer for btn_action_10ms@prev
  1011     07FF  3401               	retlw	1
  1012                           
  1013                           	psect	idataBANK0
  1014     0EDC                     __pidataBANK0:
  1015                           
  1016                           ;initializer for _total_cs
  1017     0EDC  34E8               	retlw	232
  1018     0EDD  3403               	retlw	3
  1019     0EDE  3400               	retlw	0
  1020     0EDF  3400               	retlw	0
  1021                           
  1022                           	psect	stringtext1
  1023     1000                     __pstringtext1:
  1024     1000                     Buzzer_Siren@tick:
  1025     1000  3405               	retlw	5
  1026     1001  3400               	retlw	0
  1027     1002  3400               	retlw	0
  1028     1003  3400               	retlw	0
  1029     1004                     __end_ofBuzzer_Siren@tick:
  1030                           
  1031                           	psect	stringtext2
  1032     1004                     __pstringtext2:
  1033     1004                     _digit_mask:
  1034     1004  3402               	retlw	2
  1035     1005  3404               	retlw	4
  1036     1006  3408               	retlw	8
  1037     1007  3410               	retlw	16
  1038     1008                     __end_of_digit_mask:
  1039     000C                     _PORTAbits	set	12
  1040     000B                     _INTCONbits	set	11
  1041     0016                     _TMR1L	set	22
  1042     0017                     _TMR1H	set	23
  1043     0018                     _T1CONbits	set	24
  1044     0011                     _PIR1bits	set	17
  1045     001A                     _TMR2	set	26
  1046     001B                     _PR2	set	27
  1047     001C                     _T2CONbits	set	28
  1048     008C                     _TRISAbits	set	140
  1049     008D                     _TRISBbits	set	141
  1050     008E                     _TRISC	set	142
  1051     0091                     _PIE1bits	set	145
  1052     04CF                     _SPLLEN	set	1231
  1053     04CE                     _IRCF3	set	1230
  1054     04CD                     _IRCF2	set	1229
  1055     04CC                     _IRCF1	set	1228
  1056     04CB                     _IRCF0	set	1227
  1057     04C9                     _SCS1	set	1225
  1058     04C8                     _SCS0	set	1224
  1059     010D                     _LATB	set	269
  1060     010E                     _LATC	set	270
  1061     018D                     _ANSELBbits	set	397
  1062     018E                     _ANSELC	set	398
  1063     018D                     _ANSELB	set	397
  1064     018C                     _ANSELA	set	396
  1065     0291                     _CCPR1L	set	657
  1066     0293                     _CCP1CONbits	set	659
  1067     029E                     _CCPTMRSbits	set	670
  1068     041C                     _TMR6	set	1052
  1069     041D                     _PR6	set	1053
  1070     041E                     _T6CONbits	set	1054
  1071     0E0F                     _PPSLOCKbits	set	3599
  1072     0E0F                     _PPSLOCK	set	3599
  1073     0E98                     _RB0PPSbits	set	3736
  1074                           
  1075                           	psect	cinit
  1076     003A                     start_initialization:	
  1077                           ; #config settings
  1078                           
  1079     003A                     __initialization:
  1080                           
  1081                           ; Initialize objects allocated to COMMON
  1082     003A  3187  27FF  3180   	fcall	__pidataCOMMON	;fetch initializer
  1083     003D  00FB               	movwf	__pdataCOMMON& (0+127)
  1084                           
  1085                           ; Initialize objects allocated to BANK0
  1086     003E  318E  26DC  3180   	fcall	__pidataBANK0	;fetch initializer
  1087     0041  00E9               	movwf	__pdataBANK0& (0+127)
  1088     0042  318E  26DD  3180   	fcall	__pidataBANK0+1	;fetch initializer
  1089     0045  00EA               	movwf	(__pdataBANK0+1)& (0+127)
  1090     0046  318E  26DE  3180   	fcall	__pidataBANK0+2	;fetch initializer
  1091     0049  00EB               	movwf	(__pdataBANK0+2)& (0+127)
  1092     004A  318E  26DF  3180   	fcall	__pidataBANK0+3	;fetch initializer
  1093     004D  00EC               	movwf	(__pdataBANK0+3)& (0+127)
  1094                           
  1095                           ; Clear objects allocated to COMMON
  1096     004E  01FA               	clrf	__pbssCOMMON& (0+127)
  1097                           
  1098                           ; Clear objects allocated to BANK0
  1099     004F  01E4               	clrf	__pbssBANK0& (0+127)
  1100     0050  01E5               	clrf	(__pbssBANK0+1)& (0+127)
  1101     0051  01E6               	clrf	(__pbssBANK0+2)& (0+127)
  1102     0052  01E7               	clrf	(__pbssBANK0+3)& (0+127)
  1103     0053  01E8               	clrf	(__pbssBANK0+4)& (0+127)
  1104                           
  1105                           ; Clear objects allocated to BANK1
  1106     0054  30A0               	movlw	low __pbssBANK1
  1107     0055  0084               	movwf	4
  1108     0056  3000               	movlw	high __pbssBANK1
  1109     0057  0085               	movwf	5
  1110     0058  300F               	movlw	15
  1111     0059  3187  27F9  3180   	fcall	clear_ram0
  1112     005C                     end_of_initialization:	
  1113                           ;End of C runtime variable initialization code
  1114                           
  1115     005C                     __end_of__initialization:
  1116     005C  107E               	bcf	int$flags,0	;clear compiler interrupt flag (level 1)
  1117     005D  0020               	movlb	0
  1118     005E  3182  2A51         	ljmp	_main	;jump to C main() function
  1119                           
  1120                           	psect	bssCOMMON
  1121     007A                     __pbssCOMMON:
  1122     007A                     _scan_idx:
  1123     007A                     	ds	1
  1124                           
  1125                           	psect	dataCOMMON
  1126     007B                     __pdataCOMMON:
  1127     007B                     btn_action_10ms@prev:
  1128     007B                     	ds	1
  1129                           
  1130                           	psect	bssBANK0
  1131     0064                     __pbssBANK0:
  1132     0064                     _digits:
  1133     0064                     	ds	4
  1134     0068                     _tick10ms:
  1135     0068                     	ds	1
  1136                           
  1137                           	psect	dataBANK0
  1138     0069                     __pdataBANK0:
  1139     0069                     _total_cs:
  1140     0069                     	ds	4
  1141                           
  1142                           	psect	bssBANK1
  1143     00A0                     __pbssBANK1:
  1144     00A0                     _beep:
  1145     00A0                     	ds	15
  1146                           
  1147                           	psect	clrtext
  1148     07F9                     clear_ram0:	
  1149                           ;	Called with FSR0 containing the base address, and
  1150                           ;	WREG with the size to clear
  1151                           
  1152     07F9  0064               	clrwdt	;clear the watchdog before getting into this loop
  1153     07FA                     clrloop0:
  1154     07FA  0180               	clrf	0	;clear RAM location pointed to by FSR
  1155     07FB  3101               	addfsr 0,1
  1156     07FC  0B89               	decfsz	9,f	;Have we reached the end of clearing yet?
  1157     07FD  2FFA               	goto	clrloop0	;have we reached the end yet?
  1158     07FE  3400               	retlw	0	;all done for this memory range, return
  1159                           
  1160                           	psect	cstackCOMMON
  1161     0070                     __pcstackCOMMON:
  1162     0070                     ?_Buzzer_Stop:
  1163     0070                     ?_Buzzer_Init:	
  1164                           ; 1 bytes @ 0x0
  1165                           
  1166     0070                     ?_internal_32:	
  1167                           ; 1 bytes @ 0x0
  1168                           
  1169     0070                     ?_seg:	
  1170                           ; 1 bytes @ 0x0
  1171                           
  1172     0070                     ??_seg:	
  1173                           ; 1 bytes @ 0x0
  1174                           
  1175     0070                     ?_btn_init:	
  1176                           ; 1 bytes @ 0x0
  1177                           
  1178     0070                     ?_Beep_Reset:	
  1179                           ; 1 bytes @ 0x0
  1180                           
  1181     0070                     ?_Timer2_Init_DisplayScan:	
  1182                           ; 1 bytes @ 0x0
  1183                           
  1184     0070                     ?_Timer1_Init_Tick10ms:	
  1185                           ; 1 bytes @ 0x0
  1186                           
  1187     0070                     ?_initMain:	
  1188                           ; 1 bytes @ 0x0
  1189                           
  1190     0070                     ?_isr:	
  1191                           ; 1 bytes @ 0x0
  1192                           
  1193     0070                     ?_main:	
  1194                           ; 1 bytes @ 0x0
  1195                           
  1196     0070                     seg@num:	
  1197                           ; 1 bytes @ 0x0
  1198                           
  1199                           
  1200                           ; 1 bytes @ 0x0
  1201     0070                     	ds	1
  1202     0071                     ??_isr:
  1203                           
  1204                           ; 1 bytes @ 0x1
  1205     0071                     	ds	1
  1206     0072                     ??_Buzzer_Stop:
  1207     0072                     ??_Buzzer_Init:	
  1208                           ; 1 bytes @ 0x2
  1209                           
  1210     0072                     ??_internal_32:	
  1211                           ; 1 bytes @ 0x2
  1212                           
  1213     0072                     ??_btn_init:	
  1214                           ; 1 bytes @ 0x2
  1215                           
  1216     0072                     ?_btn_debounce_10ms:	
  1217                           ; 1 bytes @ 0x2
  1218                           
  1219     0072                     ??_Beep_Reset:	
  1220                           ; 1 bytes @ 0x2
  1221                           
  1222     0072                     ??_Timer2_Init_DisplayScan:	
  1223                           ; 1 bytes @ 0x2
  1224                           
  1225     0072                     ??_Timer1_Init_Tick10ms:	
  1226                           ; 1 bytes @ 0x2
  1227                           
  1228     0072                     ?_accel_interval_ms:	
  1229                           ; 1 bytes @ 0x2
  1230                           
  1231     0072                     ?___lmul:	
  1232                           ; 2 bytes @ 0x2
  1233                           
  1234     0072                     btn_init@b:	
  1235                           ; 4 bytes @ 0x2
  1236                           
  1237     0072                     btn_debounce_10ms@raw_now:	
  1238                           ; 1 bytes @ 0x2
  1239                           
  1240     0072                     accel_interval_ms@hold_ms:	
  1241                           ; 1 bytes @ 0x2
  1242                           
  1243     0072                     ___lmul@multiplier:	
  1244                           ; 2 bytes @ 0x2
  1245                           
  1246                           
  1247                           ; 4 bytes @ 0x2
  1248     0072                     	ds	1
  1249     0073                     ??_btn_debounce_10ms:
  1250                           
  1251                           ; 1 bytes @ 0x3
  1252     0073                     	ds	1
  1253     0074                     ??_accel_interval_ms:
  1254     0074                     ?_btn_action_10ms:	
  1255                           ; 1 bytes @ 0x4
  1256                           
  1257     0074                     btn_debounce_10ms@b:	
  1258                           ; 1 bytes @ 0x4
  1259                           
  1260     0074                     btn_action_10ms@stable_now:	
  1261                           ; 1 bytes @ 0x4
  1262                           
  1263                           
  1264                           ; 1 bytes @ 0x4
  1265     0074                     	ds	1
  1266     0075                     ??_btn_action_10ms:
  1267                           
  1268                           ; 1 bytes @ 0x5
  1269     0075                     	ds	1
  1270     0076                     ___lmul@multiplicand:
  1271                           
  1272                           ; 4 bytes @ 0x6
  1273     0076                     	ds	4
  1274     007A                     ??_updateDigits_SS_tt:
  1275     007A                     ??_movie_interval_ms:	
  1276                           ; 1 bytes @ 0xA
  1277                           
  1278     007A                     ??_movie_params:	
  1279                           ; 1 bytes @ 0xA
  1280                           
  1281     007A                     ??_Beep_Tick10ms:	
  1282                           ; 1 bytes @ 0xA
  1283                           
  1284     007A                     ??___lmul:	
  1285                           ; 1 bytes @ 0xA
  1286                           
  1287                           
  1288                           	psect	cstackBANK0
  1289     0020                     __pcstackBANK0:	
  1290                           ; 1 bytes @ 0xA
  1291                           
  1292     0020                     btn_action_10ms@iv:
  1293     0020                     ___lmul@product:	
  1294                           ; 2 bytes @ 0x0
  1295                           
  1296                           
  1297                           ; 4 bytes @ 0x0
  1298     0020                     	ds	2
  1299     0022                     btn_action_10ms@fire:
  1300                           
  1301                           ; 1 bytes @ 0x2
  1302     0022                     	ds	1
  1303     0023                     btn_action_10ms@b:
  1304                           
  1305                           ; 1 bytes @ 0x3
  1306     0023                     	ds	1
  1307     0024                     ?___lldiv:
  1308     0024                     ___lldiv@divisor:	
  1309                           ; 4 bytes @ 0x4
  1310                           
  1311                           
  1312                           ; 4 bytes @ 0x4
  1313     0024                     	ds	4
  1314     0028                     ___lldiv@dividend:
  1315                           
  1316                           ; 4 bytes @ 0x8
  1317     0028                     	ds	4
  1318     002C                     ??___lldiv:
  1319                           
  1320                           ; 1 bytes @ 0xC
  1321     002C                     	ds	1
  1322     002D                     ___lldiv@quotient:
  1323                           
  1324                           ; 4 bytes @ 0xD
  1325     002D                     	ds	4
  1326     0031                     ___lldiv@counter:
  1327                           
  1328                           ; 1 bytes @ 0x11
  1329     0031                     	ds	1
  1330     0032                     ?_Buzzer_Set:
  1331     0032                     ?_movie_params:	
  1332                           ; 1 bytes @ 0x12
  1333                           
  1334     0032                     ?_movie_interval_ms:	
  1335                           ; 1 bytes @ 0x12
  1336                           
  1337     0032                     ?___llmod:	
  1338                           ; 2 bytes @ 0x12
  1339                           
  1340     0032                     movie_interval_ms@cs_remaining:	
  1341                           ; 4 bytes @ 0x12
  1342                           
  1343     0032                     movie_params@cs_remaining:	
  1344                           ; 4 bytes @ 0x12
  1345                           
  1346     0032                     Buzzer_Set@frequency_hz:	
  1347                           ; 4 bytes @ 0x12
  1348                           
  1349     0032                     ___llmod@divisor:	
  1350                           ; 4 bytes @ 0x12
  1351                           
  1352                           
  1353                           ; 4 bytes @ 0x12
  1354     0032                     	ds	4
  1355     0036                     movie_params@freq:
  1356     0036                     Buzzer_Set@volume_pct:	
  1357                           ; 1 bytes @ 0x16
  1358                           
  1359     0036                     movie_interval_ms@s:	
  1360                           ; 1 bytes @ 0x16
  1361                           
  1362     0036                     ___llmod@dividend:	
  1363                           ; 4 bytes @ 0x16
  1364                           
  1365                           
  1366                           ; 4 bytes @ 0x16
  1367     0036                     	ds	1
  1368     0037                     ??_Buzzer_Set:
  1369     0037                     movie_params@vol:	
  1370                           ; 1 bytes @ 0x17
  1371                           
  1372                           
  1373                           ; 1 bytes @ 0x17
  1374     0037                     	ds	1
  1375     0038                     movie_params@on_ms:
  1376                           
  1377                           ; 1 bytes @ 0x18
  1378     0038                     	ds	1
  1379     0039                     movie_params@s:
  1380                           
  1381                           ; 4 bytes @ 0x19
  1382     0039                     	ds	1
  1383     003A                     ??___llmod:
  1384                           
  1385                           ; 1 bytes @ 0x1A
  1386     003A                     	ds	1
  1387     003B                     ___llmod@counter:
  1388                           
  1389                           ; 1 bytes @ 0x1B
  1390     003B                     	ds	1
  1391     003C                     ?_updateDigits_SS_tt:
  1392     003C                     updateDigits_SS_tt@cs:	
  1393                           ; 1 bytes @ 0x1C
  1394                           
  1395                           
  1396                           ; 4 bytes @ 0x1C
  1397     003C                     	ds	3
  1398     003F                     Buzzer_Set@duty_10bit:
  1399                           
  1400                           ; 2 bytes @ 0x1F
  1401     003F                     	ds	1
  1402     0040                     updateDigits_SS_tt@sec_tens:
  1403                           
  1404                           ; 1 bytes @ 0x20
  1405     0040                     	ds	1
  1406     0041                     updateDigits_SS_tt@sec_ones:
  1407     0041                     Buzzer_Set@prescale_bits:	
  1408                           ; 1 bytes @ 0x21
  1409                           
  1410                           
  1411                           ; 1 bytes @ 0x21
  1412     0041                     	ds	1
  1413     0042                     updateDigits_SS_tt@hun_tens:
  1414     0042                     Buzzer_Set@pr_value:	
  1415                           ; 1 bytes @ 0x22
  1416                           
  1417                           
  1418                           ; 4 bytes @ 0x22
  1419     0042                     	ds	1
  1420     0043                     updateDigits_SS_tt@hun_ones:
  1421                           
  1422                           ; 1 bytes @ 0x23
  1423     0043                     	ds	1
  1424     0044                     updateDigits_SS_tt@seconds:
  1425                           
  1426                           ; 4 bytes @ 0x24
  1427     0044                     	ds	2
  1428     0046                     ?_Beep_Tick10ms:
  1429     0046                     Beep_Tick10ms@cs_remaining:	
  1430                           ; 1 bytes @ 0x26
  1431                           
  1432                           
  1433                           ; 4 bytes @ 0x26
  1434     0046                     	ds	2
  1435     0048                     updateDigits_SS_tt@hund:
  1436                           
  1437                           ; 4 bytes @ 0x28
  1438     0048                     	ds	4
  1439     004C                     ??_initMain:
  1440                           
  1441                           ; 1 bytes @ 0x2C
  1442     004C                     	ds	2
  1443     004E                     ??_main:
  1444                           
  1445                           ; 1 bytes @ 0x2E
  1446     004E                     	ds	4
  1447     0052                     main@inc_stable:
  1448                           
  1449                           ; 1 bytes @ 0x32
  1450     0052                     	ds	1
  1451     0053                     main@dec_stable:
  1452                           
  1453                           ; 1 bytes @ 0x33
  1454     0053                     	ds	1
  1455     0054                     main@prev_start:
  1456                           
  1457                           ; 1 bytes @ 0x34
  1458     0054                     	ds	1
  1459     0055                     main@running:
  1460                           
  1461                           ; 1 bytes @ 0x35
  1462     0055                     	ds	1
  1463     0056                     main@inc_btn:
  1464                           
  1465                           ; 7 bytes @ 0x36
  1466     0056                     	ds	7
  1467     005D                     main@dec_btn:
  1468                           
  1469                           ; 7 bytes @ 0x3D
  1470     005D                     	ds	7
  1471                           
  1472                           	psect	maintext
  1473     0251                     __pmaintext:	
  1474 ;;
  1475 ;;Main: autosize = 0, tempsize = 4, incstack = 0, save=0
  1476 ;;
  1477 ;; *************** function _main *****************
  1478 ;; Defined at:
  1479 ;;		line 344 in file "main.c"
  1480 ;; Parameters:    Size  Location     Type
  1481 ;;		None
  1482 ;; Auto vars:     Size  Location     Type
  1483 ;;  dec_stable      1   51[BANK0 ] unsigned char 
  1484 ;;  inc_stable      1   50[BANK0 ] unsigned char 
  1485 ;;  dec_btn         7   61[BANK0 ] struct .
  1486 ;;  inc_btn         7   54[BANK0 ] struct .
  1487 ;;  running         1   53[BANK0 ] unsigned char 
  1488 ;;  prev_start      1   52[BANK0 ] unsigned char 
  1489 ;; Return value:  Size  Location     Type
  1490 ;;                  1    wreg      void 
  1491 ;; Registers used:
  1492 ;;		wreg, fsr1l, fsr1h, status,2, status,0, pclath, cstack
  1493 ;; Tracked objects:
  1494 ;;		On entry : B1F/0
  1495 ;;		On exit  : 0/0
  1496 ;;		Unchanged: 0/0
  1497 ;; Data sizes:     COMMON   BANK0   BANK1   BANK2   BANK3   BANK4   BANK5   BANK6   BANK7   BANK8   BANK9  BANK10  BANK1
      +1  BANK12  BANK13  BANK14  BANK15  BANK16  BANK17  BANK18  BANK19  BANK20  BANK21  BANK22  BANK23  BANK24  BANK25
  1498 ;;      Params:         0       0       0       0       0       0       0       0       0       0       0       0       
      +0       0       0       0       0       0       0       0       0       0       0       0       0       0       0
  1499 ;;      Locals:         0      18       0       0       0       0       0       0       0       0       0       0       
      +0       0       0       0       0       0       0       0       0       0       0       0       0       0       0
  1500 ;;      Temps:          0       4       0       0       0       0       0       0       0       0       0       0       
      +0       0       0       0       0       0       0       0       0       0       0       0       0       0       0
  1501 ;;      Totals:         0      22       0       0       0       0       0       0       0       0       0       0       
      +0       0       0       0       0       0       0       0       0       0       0       0       0       0       0
  1502 ;;Total ram usage:       22 bytes
  1503 ;; Hardware stack levels required when called: 5
  1504 ;; This function calls:
  1505 ;;		_Beep_Reset
  1506 ;;		_Beep_Tick10ms
  1507 ;;		_Buzzer_Set
  1508 ;;		_Buzzer_Stop
  1509 ;;		_btn_action_10ms
  1510 ;;		_btn_debounce_10ms
  1511 ;;		_btn_init
  1512 ;;		_initMain
  1513 ;;		_updateDigits_SS_tt
  1514 ;; This function is called by:
  1515 ;;		Startup code after reset
  1516 ;; This function uses a non-reentrant model
  1517 ;;
  1518                           
  1519     0251                     _main:	
  1520                           ;psect for function _main
  1521                           
  1522     0251                     l2984:	
  1523                           ;incstack = 0
  1524                           ; Regs used in _main: [wreg+fsr1l+fsr1h+status,2+status,0+pclath+cstack]
  1525                           
  1526                           
  1527                           ;main.c: 346:     initMain();
  1528     0251  3187  277B  3182   	fcall	_initMain
  1529     0254                     l2986:
  1530                           
  1531                           ;main.c: 348:     uint8_t running = 0;
  1532     0254  0020               	movlb	0	; select bank0
  1533     0255  01D5               	clrf	main@running
  1534     0256                     l2988:
  1535                           
  1536                           ;main.c: 349:     uint8_t prev_start = 1;
  1537     0256  01D4               	clrf	main@prev_start
  1538     0257  0AD4               	incf	main@prev_start,f
  1539     0258                     l2990:
  1540                           
  1541                           ;main.c: 351:     hold_btn_t inc_btn, dec_btn;;main.c: 352:     btn_init(&inc_btn);
  1542     0258  3056               	movlw	(low (main@inc_btn| 0))& (0+255)
  1543     0259  318F  2719  3182   	fcall	_btn_init
  1544     025C                     l2992:
  1545                           
  1546                           ;main.c: 353:     btn_init(&dec_btn);
  1547     025C  305D               	movlw	(low (main@dec_btn| 0))& (0+255)
  1548     025D  318F  2719  3182   	fcall	_btn_init
  1549     0260                     l2994:
  1550                           
  1551                           ;main.c: 355:     Beep_Reset();
  1552     0260  318E  26EE  3182   	fcall	_Beep_Reset
  1553     0263                     l2996:
  1554                           
  1555                           ;main.c: 358:     {;main.c: 359:         if(!tick10ms) continue;
  1556     0263  0020               	movlb	0	; select bank0
  1557     0264  0868               	movf	_tick10ms,w	;volatile
  1558     0265  1D03               	btfss	3,2
  1559     0266  2A68               	goto	u2611
  1560     0267  2A69               	goto	u2610
  1561     0268                     u2611:
  1562     0268  2A6A               	goto	l3000
  1563     0269                     u2610:
  1564     0269  2A63               	goto	l2996
  1565     026A                     l3000:
  1566                           
  1567                           ;main.c: 360:         tick10ms = 0;
  1568     026A  01E8               	clrf	_tick10ms	;volatile
  1569     026B                     l3002:
  1570                           
  1571                           ;main.c: 364:         if((prev_start == 1) && (PORTAbits.RA0 == 0))
  1572     026B  0354               	decf	main@prev_start,w
  1573     026C  1D03               	btfss	3,2
  1574     026D  2A6F               	goto	u2621
  1575     026E  2A70               	goto	u2620
  1576     026F                     u2621:
  1577     026F  2A90               	goto	l191
  1578     0270                     u2620:
  1579     0270                     l3004:
  1580     0270  180C               	btfsc	12,0	;volatile
  1581     0271  2A73               	goto	u2631
  1582     0272  2A74               	goto	u2630
  1583     0273                     u2631:
  1584     0273  2A90               	goto	l191
  1585     0274                     u2630:
  1586     0274                     l3006:
  1587                           
  1588                           ;main.c: 365:         {;main.c: 367:             prev_start = 0;
  1589     0274  01D4               	clrf	main@prev_start
  1590     0275                     l3008:
  1591                           
  1592                           ;main.c: 369:             running = !running;
  1593     0275  0855               	movf	main@running,w
  1594     0276  1903               	btfsc	3,2
  1595     0277  2A79               	goto	u2641
  1596     0278  2A7B               	goto	u2640
  1597     0279                     u2641:
  1598     0279  3001               	movlw	1
  1599     027A  2A7C               	goto	u2650
  1600     027B                     u2640:
  1601     027B  3000               	movlw	0
  1602     027C                     u2650:
  1603     027C  00D5               	movwf	main@running
  1604     027D                     l3010:
  1605                           
  1606                           ;main.c: 371:             if(running) {
  1607     027D  0855               	movf	main@running,w
  1608     027E  1903               	btfsc	3,2
  1609     027F  2A81               	goto	u2661
  1610     0280  2A82               	goto	u2660
  1611     0281                     u2661:
  1612     0281  2A8C               	goto	l3018
  1613     0282                     u2660:
  1614     0282                     l3012:
  1615                           
  1616                           ;main.c: 372:                 beep.enabled = 1;
  1617     0282  0021               	movlb	1	; select bank1
  1618     0283  01A0               	clrf	_beep^(0+128)
  1619     0284  0AA0               	incf	_beep^(0+128),f
  1620     0285                     l3014:
  1621                           
  1622                           ;main.c: 373:                 beep.accum_ms = 0;
  1623     0285  01A1               	clrf	(_beep^(0+128)+1)
  1624     0286  01A2               	clrf	((_beep+1)^(0+128)+1)
  1625                           
  1626                           ;main.c: 374:                 beep.on = 0;
  1627     0287  01A9               	clrf	(_beep^(0+128)+9)
  1628     0288                     l3016:
  1629                           
  1630                           ;main.c: 375:                 Buzzer_Stop();
  1631     0288  318E  26E0  3182   	fcall	_Buzzer_Stop
  1632                           
  1633                           ;main.c: 376:             } else {
  1634     028B  2A96               	goto	l3022
  1635     028C                     l3018:
  1636                           
  1637                           ;main.c: 377:                 Beep_Reset();
  1638     028C  318E  26EE  3182   	fcall	_Beep_Reset
  1639     028F  2A96               	goto	l3022
  1640     0290                     l191:	
  1641                           ;main.c: 380:         else if(PORTAbits.RA0 == 1)
  1642                           
  1643     0290  1C0C               	btfss	12,0	;volatile
  1644     0291  2A93               	goto	u2671
  1645     0292  2A94               	goto	u2670
  1646     0293                     u2671:
  1647     0293  2A96               	goto	l3022
  1648     0294                     u2670:
  1649     0294                     l3020:
  1650                           
  1651                           ;main.c: 381:         {;main.c: 382:             prev_start = 1;
  1652     0294  01D4               	clrf	main@prev_start
  1653     0295  0AD4               	incf	main@prev_start,f
  1654     0296                     l3022:
  1655                           
  1656                           ;main.c: 386:         if(!running)
  1657     0296  0020               	movlb	0	; select bank0
  1658     0297  0855               	movf	main@running,w
  1659     0298  1D03               	btfss	3,2
  1660     0299  2A9B               	goto	u2681
  1661     029A  2A9C               	goto	u2680
  1662     029B                     u2681:
  1663     029B  2B14               	goto	l3040
  1664     029C                     u2680:
  1665     029C                     l3024:
  1666                           
  1667                           ;main.c: 387:         {;main.c: 388:             uint8_t inc_stable = btn_debounce_10ms(
      +                          &inc_btn, PORTAbits.RA1);
  1668     029C  3000               	movlw	0
  1669     029D  188C               	btfsc	12,1	;volatile
  1670     029E  3001               	movlw	1
  1671     029F  00F2               	movwf	btn_debounce_10ms@raw_now
  1672     02A0  3056               	movlw	(low (main@inc_btn| 0))& (0+255)
  1673     02A1  3187  27BE  3182   	fcall	_btn_debounce_10ms
  1674     02A4  0020               	movlb	0	; select bank0
  1675     02A5  00D2               	movwf	main@inc_stable
  1676                           
  1677                           ;main.c: 389:             uint8_t dec_stable = btn_debounce_10ms(&dec_btn, PORTAbits.RA2
      +                          );
  1678     02A6  3000               	movlw	0
  1679     02A7  190C               	btfsc	12,2	;volatile
  1680     02A8  3001               	movlw	1
  1681     02A9  00F2               	movwf	btn_debounce_10ms@raw_now
  1682     02AA  305D               	movlw	(low (main@dec_btn| 0))& (0+255)
  1683     02AB  3187  27BE  3182   	fcall	_btn_debounce_10ms
  1684     02AE  0020               	movlb	0	; select bank0
  1685     02AF  00D3               	movwf	main@dec_stable
  1686                           
  1687                           ;main.c: 391:             if(btn_action_10ms(&inc_btn, inc_stable))
  1688     02B0  0852               	movf	main@inc_stable,w
  1689     02B1  00F4               	movwf	btn_action_10ms@stable_now
  1690     02B2  3056               	movlw	(low (main@inc_btn| 0))& (0+255)
  1691     02B3  3185  25D5  3182   	fcall	_btn_action_10ms
  1692     02B6  3A00               	xorlw	0
  1693     02B7  1903               	skipnz
  1694     02B8  2ABA               	goto	u2691
  1695     02B9  2ABB               	goto	u2690
  1696     02BA                     u2691:
  1697     02BA  2ADD               	goto	l3032
  1698     02BB                     u2690:
  1699     02BB                     l3026:
  1700                           
  1701                           ;main.c: 392:             {;main.c: 393:                 if(total_cs <= 9899) total_cs +
      +                          = 100; else total_cs = 9999;
  1702     02BB  0020               	movlb	0	; select bank0
  1703     02BC  086C               	movf	_total_cs+3,w	;volatile
  1704     02BD  1D03               	btfss	3,2
  1705     02BE  2AC9               	goto	u2701
  1706     02BF  086B               	movf	_total_cs+2,w	;volatile
  1707     02C0  1D03               	btfss	3,2
  1708     02C1  2AC9               	goto	u2701
  1709     02C2  30AC               	movlw	172
  1710     02C3  0269               	subwf	_total_cs,w	;volatile
  1711     02C4  3026               	movlw	38
  1712     02C5  3B6A               	subwfb	_total_cs+1,w	;volatile
  1713     02C6  1803               	btfsc	3,0
  1714     02C7  2AC9               	goto	u2701
  1715     02C8  2ACA               	goto	u2700
  1716     02C9                     u2701:
  1717     02C9  2AD4               	goto	l3030
  1718     02CA                     u2700:
  1719     02CA                     l3028:
  1720     02CA  3064               	movlw	100
  1721     02CB  0020               	movlb	0	; select bank0
  1722     02CC  07E9               	addwf	_total_cs,f	;volatile
  1723     02CD  3000               	movlw	0
  1724     02CE  3DEA               	addwfc	_total_cs+1,f	;volatile
  1725     02CF  3000               	movlw	0
  1726     02D0  3DEB               	addwfc	_total_cs+2,f	;volatile
  1727     02D1  3000               	movlw	0
  1728     02D2  3DEC               	addwfc	_total_cs+3,f	;volatile
  1729     02D3  2ADD               	goto	l3032
  1730     02D4                     l3030:
  1731     02D4  3000               	movlw	0
  1732     02D5  0020               	movlb	0	; select bank0
  1733     02D6  00EC               	movwf	_total_cs+3	;volatile
  1734     02D7  3000               	movlw	0
  1735     02D8  00EB               	movwf	_total_cs+2	;volatile
  1736     02D9  3027               	movlw	39
  1737     02DA  00EA               	movwf	_total_cs+1	;volatile
  1738     02DB  300F               	movlw	15
  1739     02DC  00E9               	movwf	_total_cs	;volatile
  1740     02DD                     l3032:
  1741                           
  1742                           ;main.c: 396:             if(btn_action_10ms(&dec_btn, dec_stable))
  1743     02DD  0020               	movlb	0	; select bank0
  1744     02DE  0853               	movf	main@dec_stable,w
  1745     02DF  00F4               	movwf	btn_action_10ms@stable_now
  1746     02E0  305D               	movlw	(low (main@dec_btn| 0))& (0+255)
  1747     02E1  3185  25D5  3182   	fcall	_btn_action_10ms
  1748     02E4  3A00               	xorlw	0
  1749     02E5  1903               	skipnz
  1750     02E6  2AE8               	goto	u2711
  1751     02E7  2AE9               	goto	u2710
  1752     02E8                     u2711:
  1753     02E8  2B14               	goto	l3040
  1754     02E9                     u2710:
  1755     02E9                     l3034:
  1756                           
  1757                           ;main.c: 397:             {;main.c: 398:                 if(total_cs >= 100) total_cs -=
      +                           100; else total_cs = 0;
  1758     02E9  0020               	movlb	0	; select bank0
  1759     02EA  086C               	movf	_total_cs+3,w	;volatile
  1760     02EB  1D03               	btfss	3,2
  1761     02EC  2AF9               	goto	u2720
  1762     02ED  086B               	movf	_total_cs+2,w	;volatile
  1763     02EE  1D03               	btfss	3,2
  1764     02EF  2AF9               	goto	u2720
  1765     02F0  086A               	movf	_total_cs+1,w	;volatile
  1766     02F1  1D03               	btfss	3,2
  1767     02F2  2AF9               	goto	u2720
  1768     02F3  3064               	movlw	100
  1769     02F4  0269               	subwf	_total_cs,w	;volatile
  1770     02F5  1C03               	btfss	3,0
  1771     02F6  2AF8               	goto	u2721
  1772     02F7  2AF9               	goto	u2720
  1773     02F8                     u2721:
  1774     02F8  2B0B               	goto	l3038
  1775     02F9                     u2720:
  1776     02F9                     l3036:
  1777     02F9  3064               	movlw	100
  1778     02FA  0020               	movlb	0	; select bank0
  1779     02FB  00CE               	movwf	??_main
  1780     02FC  3000               	movlw	0
  1781     02FD  00CF               	movwf	??_main+1
  1782     02FE  3000               	movlw	0
  1783     02FF  00D0               	movwf	??_main+2
  1784     0300  3000               	movlw	0
  1785     0301  00D1               	movwf	??_main+3
  1786     0302  084E               	movf	??_main,w
  1787     0303  02E9               	subwf	_total_cs,f	;volatile
  1788     0304  084F               	movf	??_main+1,w
  1789     0305  3BEA               	subwfb	_total_cs+1,f	;volatile
  1790     0306  0850               	movf	??_main+2,w
  1791     0307  3BEB               	subwfb	_total_cs+2,f	;volatile
  1792     0308  0851               	movf	??_main+3,w
  1793     0309  3BEC               	subwfb	_total_cs+3,f	;volatile
  1794     030A  2B14               	goto	l3040
  1795     030B                     l3038:
  1796     030B  3000               	movlw	0
  1797     030C  0020               	movlb	0	; select bank0
  1798     030D  00EC               	movwf	_total_cs+3	;volatile
  1799     030E  3000               	movlw	0
  1800     030F  00EB               	movwf	_total_cs+2	;volatile
  1801     0310  3000               	movlw	0
  1802     0311  00EA               	movwf	_total_cs+1	;volatile
  1803     0312  3000               	movlw	0
  1804     0313  00E9               	movwf	_total_cs	;volatile
  1805     0314                     l3040:
  1806                           
  1807                           ;main.c: 403:         if(running)
  1808     0314  0020               	movlb	0	; select bank0
  1809     0315  0855               	movf	main@running,w
  1810     0316  1903               	btfsc	3,2
  1811     0317  2B19               	goto	u2731
  1812     0318  2B1A               	goto	u2730
  1813     0319                     u2731:
  1814     0319  2B61               	goto	l3058
  1815     031A                     u2730:
  1816     031A                     l3042:
  1817                           
  1818                           ;main.c: 404:         {;main.c: 405:             if(total_cs > 0) total_cs--;
  1819     031A  086C               	movf	_total_cs+3,w	;volatile
  1820     031B  046B               	iorwf	_total_cs+2,w	;volatile
  1821     031C  046A               	iorwf	_total_cs+1,w	;volatile
  1822     031D  0469               	iorwf	_total_cs,w	;volatile
  1823     031E  1903               	skipnz
  1824     031F  2B21               	goto	u2741
  1825     0320  2B22               	goto	u2740
  1826     0321                     u2741:
  1827     0321  2B33               	goto	l3046
  1828     0322                     u2740:
  1829     0322                     l3044:
  1830     0322  3001               	movlw	1
  1831     0323  00CE               	movwf	??_main
  1832     0324  3000               	movlw	0
  1833     0325  00CF               	movwf	??_main+1
  1834     0326  3000               	movlw	0
  1835     0327  00D0               	movwf	??_main+2
  1836     0328  3000               	movlw	0
  1837     0329  00D1               	movwf	??_main+3
  1838     032A  084E               	movf	??_main,w
  1839     032B  02E9               	subwf	_total_cs,f	;volatile
  1840     032C  084F               	movf	??_main+1,w
  1841     032D  3BEA               	subwfb	_total_cs+1,f	;volatile
  1842     032E  0850               	movf	??_main+2,w
  1843     032F  3BEB               	subwfb	_total_cs+2,f	;volatile
  1844     0330  0851               	movf	??_main+3,w
  1845     0331  3BEC               	subwfb	_total_cs+3,f	;volatile
  1846     0332  2B55               	goto	l3056
  1847     0333                     l3046:
  1848                           
  1849                           ;main.c: 407:             {;main.c: 408:                 running = 0;
  1850     0333  01D5               	clrf	main@running
  1851     0334                     l3048:
  1852                           
  1853                           ;main.c: 409:                 Beep_Reset();
  1854     0334  318E  26EE  3182   	fcall	_Beep_Reset
  1855     0337                     l3050:
  1856                           
  1857                           ;main.c: 412:                 Buzzer_Set(3600, 100);
  1858     0337  3000               	movlw	0
  1859     0338  0020               	movlb	0	; select bank0
  1860     0339  00B5               	movwf	Buzzer_Set@frequency_hz+3
  1861     033A  3000               	movlw	0
  1862     033B  00B4               	movwf	Buzzer_Set@frequency_hz+2
  1863     033C  300E               	movlw	14
  1864     033D  00B3               	movwf	Buzzer_Set@frequency_hz+1
  1865     033E  3010               	movlw	16
  1866     033F  00B2               	movwf	Buzzer_Set@frequency_hz
  1867     0340  3064               	movlw	100
  1868     0341  00B6               	movwf	Buzzer_Set@volume_pct
  1869     0342  3180  2060  3182   	fcall	_Buzzer_Set
  1870     0345                     l3052:
  1871                           
  1872                           ;main.c: 413:                 _delay((unsigned long)((500)*(32000000/4000.0)));
  1873     0345  3015               	movlw	21
  1874     0346  0020               	movlb	0	; select bank0
  1875     0347  00CF               	movwf	??_main+1
  1876     0348  304B               	movlw	75
  1877     0349  00CE               	movwf	??_main
  1878     034A  30BE               	movlw	190
  1879     034B                     u2947:
  1880     034B  0B89               	decfsz	9,f
  1881     034C  2B4B               	goto	u2947
  1882     034D  0BCE               	decfsz	??_main,f
  1883     034E  2B4B               	goto	u2947
  1884     034F  0BCF               	decfsz	??_main+1,f
  1885     0350  2B4B               	goto	u2947
  1886     0351  0000               	nop
  1887     0352                     l3054:
  1888                           
  1889                           ;main.c: 414:                 Buzzer_Stop();
  1890     0352  318E  26E0  3182   	fcall	_Buzzer_Stop
  1891     0355                     l3056:
  1892                           
  1893                           ;main.c: 417:             Beep_Tick10ms(total_cs);
  1894     0355  0020               	movlb	0	; select bank0
  1895     0356  086C               	movf	_total_cs+3,w	;volatile
  1896     0357  00C9               	movwf	Beep_Tick10ms@cs_remaining+3
  1897     0358  086B               	movf	_total_cs+2,w	;volatile
  1898     0359  00C8               	movwf	Beep_Tick10ms@cs_remaining+2
  1899     035A  086A               	movf	_total_cs+1,w	;volatile
  1900     035B  00C7               	movwf	Beep_Tick10ms@cs_remaining+1
  1901     035C  0869               	movf	_total_cs,w	;volatile
  1902     035D  00C6               	movwf	Beep_Tick10ms@cs_remaining
  1903     035E  3186  2658  3182   	fcall	_Beep_Tick10ms
  1904     0361                     l3058:
  1905                           
  1906                           ;main.c: 421:         (INTCONbits.GIE = 0);
  1907     0361  138B               	bcf	11,7	;volatile
  1908     0362                     l3060:
  1909                           
  1910                           ;main.c: 422:         updateDigits_SS_tt(total_cs);
  1911     0362  0020               	movlb	0	; select bank0
  1912     0363  086C               	movf	_total_cs+3,w	;volatile
  1913     0364  00BF               	movwf	updateDigits_SS_tt@cs+3
  1914     0365  086B               	movf	_total_cs+2,w	;volatile
  1915     0366  00BE               	movwf	updateDigits_SS_tt@cs+2
  1916     0367  086A               	movf	_total_cs+1,w	;volatile
  1917     0368  00BD               	movwf	updateDigits_SS_tt@cs+1
  1918     0369  0869               	movf	_total_cs,w	;volatile
  1919     036A  00BC               	movwf	updateDigits_SS_tt@cs
  1920     036B  3184  246D  3182   	fcall	_updateDigits_SS_tt
  1921     036E                     l3062:
  1922                           
  1923                           ;main.c: 423:         (INTCONbits.GIE = 1);
  1924     036E  178B               	bsf	11,7	;volatile
  1925     036F  2A63               	goto	l2996
  1926     0370  3180  2838         	ljmp	start
  1927     0372                     __end_of_main:
  1928                           
  1929                           	psect	text1
  1930     077B                     __ptext1:	
  1931 ;; *************** function _initMain *****************
  1932 ;; Defined at:
  1933 ;;		line 266 in file "main.c"
  1934 ;; Parameters:    Size  Location     Type
  1935 ;;		None
  1936 ;; Auto vars:     Size  Location     Type
  1937 ;;		None
  1938 ;; Return value:  Size  Location     Type
  1939 ;;                  1    wreg      void 
  1940 ;; Registers used:
  1941 ;;		wreg, status,2, status,0, pclath, cstack
  1942 ;; Tracked objects:
  1943 ;;		On entry : 0/0
  1944 ;;		On exit  : 0/0
  1945 ;;		Unchanged: 0/0
  1946 ;; Data sizes:     COMMON   BANK0   BANK1   BANK2   BANK3   BANK4   BANK5   BANK6   BANK7   BANK8   BANK9  BANK10  BANK1
      +1  BANK12  BANK13  BANK14  BANK15  BANK16  BANK17  BANK18  BANK19  BANK20  BANK21  BANK22  BANK23  BANK24  BANK25
  1947 ;;      Params:         0       0       0       0       0       0       0       0       0       0       0       0       
      +0       0       0       0       0       0       0       0       0       0       0       0       0       0       0
  1948 ;;      Locals:         0       0       0       0       0       0       0       0       0       0       0       0       
      +0       0       0       0       0       0       0       0       0       0       0       0       0       0       0
  1949 ;;      Temps:          0       2       0       0       0       0       0       0       0       0       0       0       
      +0       0       0       0       0       0       0       0       0       0       0       0       0       0       0
  1950 ;;      Totals:         0       2       0       0       0       0       0       0       0       0       0       0       
      +0       0       0       0       0       0       0       0       0       0       0       0       0       0       0
  1951 ;;Total ram usage:        2 bytes
  1952 ;; Hardware stack levels used: 1
  1953 ;; Hardware stack levels required when called: 4
  1954 ;; This function calls:
  1955 ;;		_Buzzer_Init
  1956 ;;		_Buzzer_Stop
  1957 ;;		_Timer1_Init_Tick10ms
  1958 ;;		_Timer2_Init_DisplayScan
  1959 ;;		_internal_32
  1960 ;;		_updateDigits_SS_tt
  1961 ;; This function is called by:
  1962 ;;		_main
  1963 ;; This function uses a non-reentrant model
  1964 ;;
  1965                           
  1966     077B                     _initMain:	
  1967                           ;psect for function _initMain
  1968                           
  1969     077B                     l2894:	
  1970                           ;incstack = 0
  1971                           ; Regs used in _initMain: [wreg+status,2+status,0+pclath+cstack]
  1972                           
  1973                           
  1974                           ;main.c: 268:     internal_32();
  1975     077B  318E  26E5  3187   	fcall	_internal_32
  1976     077E                     l2896:
  1977                           
  1978                           ;main.c: 269:     _delay((unsigned long)((100)*(32000000/4000.0)));
  1979     077E  3005               	movlw	5
  1980     077F  0020               	movlb	0	; select bank0
  1981     0780  00CD               	movwf	??_initMain+1
  1982     0781  300F               	movlw	15
  1983     0782  00CC               	movwf	??_initMain
  1984     0783  30F1               	movlw	241
  1985     0784                     u2957:
  1986     0784  0B89               	decfsz	9,f
  1987     0785  2F84               	goto	u2957
  1988     0786  0BCC               	decfsz	??_initMain,f
  1989     0787  2F84               	goto	u2957
  1990     0788  0BCD               	decfsz	??_initMain+1,f
  1991     0789  2F84               	goto	u2957
  1992     078A                     l2898:
  1993                           
  1994                           ;main.c: 271:     ANSELA = 0x00;
  1995     078A  0023               	movlb	3	; select bank3
  1996     078B  018C               	clrf	12	;volatile
  1997     078C                     l2900:
  1998                           
  1999                           ;main.c: 272:     ANSELB = 0x00;
  2000     078C  018D               	clrf	13	;volatile
  2001     078D                     l2902:
  2002                           
  2003                           ;main.c: 273:     ANSELC = 0x00;
  2004     078D  018E               	clrf	14	;volatile
  2005     078E                     l2904:
  2006                           
  2007                           ;main.c: 276:     TRISC = 0x00;
  2008     078E  0021               	movlb	1	; select bank1
  2009     078F  018E               	clrf	14	;volatile
  2010     0790                     l2906:
  2011                           
  2012                           ;main.c: 277:     LATC = 0x00;
  2013     0790  0022               	movlb	2	; select bank2
  2014     0791  018E               	clrf	14	;volatile
  2015     0792                     l2908:
  2016                           
  2017                           ;main.c: 280:     TRISBbits.TRISB1 = 0;
  2018     0792  0021               	movlb	1	; select bank1
  2019     0793  108D               	bcf	13,1	;volatile
  2020     0794                     l2910:
  2021                           
  2022                           ;main.c: 281:     TRISBbits.TRISB2 = 0;
  2023     0794  110D               	bcf	13,2	;volatile
  2024     0795                     l2912:
  2025                           
  2026                           ;main.c: 282:     TRISBbits.TRISB3 = 0;
  2027     0795  118D               	bcf	13,3	;volatile
  2028     0796                     l2914:
  2029                           
  2030                           ;main.c: 283:     TRISBbits.TRISB4 = 0;
  2031     0796  120D               	bcf	13,4	;volatile
  2032     0797                     l2916:
  2033                           
  2034                           ;main.c: 286:     LATB &= 0b11100001;
  2035     0797  30E1               	movlw	225
  2036     0798  0020               	movlb	0	; select bank0
  2037     0799  00CC               	movwf	??_initMain
  2038     079A  084C               	movf	??_initMain,w
  2039     079B  0022               	movlb	2	; select bank2
  2040     079C  058D               	andwf	13,f	;volatile
  2041     079D                     l2918:
  2042                           
  2043                           ;main.c: 289:     TRISAbits.TRISA0 = 1;
  2044     079D  0021               	movlb	1	; select bank1
  2045     079E  140C               	bsf	12,0	;volatile
  2046     079F                     l2920:
  2047                           
  2048                           ;main.c: 290:     TRISAbits.TRISA1 = 1;
  2049     079F  148C               	bsf	12,1	;volatile
  2050     07A0                     l2922:
  2051                           
  2052                           ;main.c: 291:     TRISAbits.TRISA2 = 1;
  2053     07A0  150C               	bsf	12,2	;volatile
  2054     07A1                     l2924:
  2055                           
  2056                           ;main.c: 294:     Buzzer_Init();
  2057     07A1  318F  2738  3187   	fcall	_Buzzer_Init
  2058     07A4                     l2926:
  2059                           
  2060                           ;main.c: 295:     Buzzer_Stop();
  2061     07A4  318E  26E0  3187   	fcall	_Buzzer_Stop
  2062     07A7                     l2928:
  2063                           
  2064                           ;main.c: 297:     (INTCONbits.GIE = 0); updateDigits_SS_tt(total_cs); (INTCONbits.GIE = 
      +                          1);
  2065     07A7  138B               	bcf	11,7	;volatile
  2066     07A8                     l2930:
  2067     07A8  0020               	movlb	0	; select bank0
  2068     07A9  086C               	movf	_total_cs+3,w	;volatile
  2069     07AA  00BF               	movwf	updateDigits_SS_tt@cs+3
  2070     07AB  086B               	movf	_total_cs+2,w	;volatile
  2071     07AC  00BE               	movwf	updateDigits_SS_tt@cs+2
  2072     07AD  086A               	movf	_total_cs+1,w	;volatile
  2073     07AE  00BD               	movwf	updateDigits_SS_tt@cs+1
  2074     07AF  0869               	movf	_total_cs,w	;volatile
  2075     07B0  00BC               	movwf	updateDigits_SS_tt@cs
  2076     07B1  3184  246D  3187   	fcall	_updateDigits_SS_tt
  2077     07B4                     l2932:
  2078     07B4  178B               	bsf	11,7	;volatile
  2079     07B5                     l2934:
  2080                           
  2081                           ;main.c: 299:     Timer2_Init_DisplayScan();
  2082     07B5  318F  2709  3187   	fcall	_Timer2_Init_DisplayScan
  2083     07B8                     l2936:
  2084                           
  2085                           ;main.c: 300:     Timer1_Init_Tick10ms();
  2086     07B8  318E  26F9  3187   	fcall	_Timer1_Init_Tick10ms
  2087     07BB                     l2938:
  2088                           
  2089                           ;main.c: 302:     INTCONbits.PEIE = 1;
  2090     07BB  170B               	bsf	11,6	;volatile
  2091     07BC                     l2940:
  2092                           
  2093                           ;main.c: 303:     (INTCONbits.GIE = 1);
  2094     07BC  178B               	bsf	11,7	;volatile
  2095     07BD                     l176:
  2096     07BD  0008               	return
  2097     07BE                     __end_of_initMain:
  2098                           
  2099                           	psect	text2
  2100     046D                     __ptext2:	
  2101 ;; *************** function _updateDigits_SS_tt *****************
  2102 ;; Defined at:
  2103 ;;		line 49 in file "main.c"
  2104 ;; Parameters:    Size  Location     Type
  2105 ;;  cs              4   28[BANK0 ] unsigned long 
  2106 ;; Auto vars:     Size  Location     Type
  2107 ;;  hund            4   40[BANK0 ] unsigned long 
  2108 ;;  seconds         4   36[BANK0 ] unsigned long 
  2109 ;;  hun_ones        1   35[BANK0 ] unsigned char 
  2110 ;;  hun_tens        1   34[BANK0 ] unsigned char 
  2111 ;;  sec_ones        1   33[BANK0 ] unsigned char 
  2112 ;;  sec_tens        1   32[BANK0 ] unsigned char 
  2113 ;; Return value:  Size  Location     Type
  2114 ;;                  1    wreg      void 
  2115 ;; Registers used:
  2116 ;;		wreg, status,2, status,0, pclath, cstack
  2117 ;; Tracked objects:
  2118 ;;		On entry : 0/0
  2119 ;;		On exit  : 0/0
  2120 ;;		Unchanged: 0/0
  2121 ;; Data sizes:     COMMON   BANK0   BANK1   BANK2   BANK3   BANK4   BANK5   BANK6   BANK7   BANK8   BANK9  BANK10  BANK1
      +1  BANK12  BANK13  BANK14  BANK15  BANK16  BANK17  BANK18  BANK19  BANK20  BANK21  BANK22  BANK23  BANK24  BANK25
  2122 ;;      Params:         0       4       0       0       0       0       0       0       0       0       0       0       
      +0       0       0       0       0       0       0       0       0       0       0       0       0       0       0
  2123 ;;      Locals:         0      12       0       0       0       0       0       0       0       0       0       0       
      +0       0       0       0       0       0       0       0       0       0       0       0       0       0       0
  2124 ;;      Temps:          0       0       0       0       0       0       0       0       0       0       0       0       
      +0       0       0       0       0       0       0       0       0       0       0       0       0       0       0
  2125 ;;      Totals:         0      16       0       0       0       0       0       0       0       0       0       0       
      +0       0       0       0       0       0       0       0       0       0       0       0       0       0       0
  2126 ;;Total ram usage:       16 bytes
  2127 ;; Hardware stack levels used: 1
  2128 ;; Hardware stack levels required when called: 3
  2129 ;; This function calls:
  2130 ;;		___lldiv
  2131 ;;		___llmod
  2132 ;; This function is called by:
  2133 ;;		_initMain
  2134 ;;		_main
  2135 ;; This function uses a non-reentrant model
  2136 ;;
  2137                           
  2138     046D                     _updateDigits_SS_tt:	
  2139                           ;psect for function _updateDigits_SS_tt
  2140                           
  2141     046D                     l2636:	
  2142                           ;incstack = 0
  2143                           ; Regs used in _updateDigits_SS_tt: [wreg+status,2+status,0+pclath+cstack]
  2144                           
  2145                           
  2146                           ;main.c: 49: static void updateDigits_SS_tt(uint32_t cs);main.c: 50: {;main.c: 51:     u
      +                          int32_t seconds = cs / 100;
  2147     046D  3000               	movlw	0
  2148     046E  0020               	movlb	0	; select bank0
  2149     046F  00A7               	movwf	___lldiv@divisor+3
  2150     0470  3000               	movlw	0
  2151     0471  00A6               	movwf	___lldiv@divisor+2
  2152     0472  3000               	movlw	0
  2153     0473  00A5               	movwf	___lldiv@divisor+1
  2154     0474  3064               	movlw	100
  2155     0475  00A4               	movwf	___lldiv@divisor
  2156     0476  083F               	movf	updateDigits_SS_tt@cs+3,w
  2157     0477  00AB               	movwf	___lldiv@dividend+3
  2158     0478  083E               	movf	updateDigits_SS_tt@cs+2,w
  2159     0479  00AA               	movwf	___lldiv@dividend+2
  2160     047A  083D               	movf	updateDigits_SS_tt@cs+1,w
  2161     047B  00A9               	movwf	___lldiv@dividend+1
  2162     047C  083C               	movf	updateDigits_SS_tt@cs,w
  2163     047D  00A8               	movwf	___lldiv@dividend
  2164     047E  3186  26D5  3184   	fcall	___lldiv
  2165     0481  0020               	movlb	0	; select bank0
  2166     0482  0827               	movf	?___lldiv+3,w
  2167     0483  00C7               	movwf	updateDigits_SS_tt@seconds+3
  2168     0484  0826               	movf	?___lldiv+2,w
  2169     0485  00C6               	movwf	updateDigits_SS_tt@seconds+2
  2170     0486  0825               	movf	?___lldiv+1,w
  2171     0487  00C5               	movwf	updateDigits_SS_tt@seconds+1
  2172     0488  0824               	movf	?___lldiv,w
  2173     0489  00C4               	movwf	updateDigits_SS_tt@seconds
  2174                           
  2175                           ;main.c: 52:     uint32_t hund = cs % 100;
  2176     048A  3000               	movlw	0
  2177     048B  00B5               	movwf	___llmod@divisor+3
  2178     048C  3000               	movlw	0
  2179     048D  00B4               	movwf	___llmod@divisor+2
  2180     048E  3000               	movlw	0
  2181     048F  00B3               	movwf	___llmod@divisor+1
  2182     0490  3064               	movlw	100
  2183     0491  00B2               	movwf	___llmod@divisor
  2184     0492  083F               	movf	updateDigits_SS_tt@cs+3,w
  2185     0493  00B9               	movwf	___llmod@dividend+3
  2186     0494  083E               	movf	updateDigits_SS_tt@cs+2,w
  2187     0495  00B8               	movwf	___llmod@dividend+2
  2188     0496  083D               	movf	updateDigits_SS_tt@cs+1,w
  2189     0497  00B7               	movwf	___llmod@dividend+1
  2190     0498  083C               	movf	updateDigits_SS_tt@cs,w
  2191     0499  00B6               	movwf	___llmod@dividend
  2192     049A  3187  2730  3184   	fcall	___llmod
  2193     049D  0020               	movlb	0	; select bank0
  2194     049E  0835               	movf	?___llmod+3,w
  2195     049F  00CB               	movwf	updateDigits_SS_tt@hund+3
  2196     04A0  0834               	movf	?___llmod+2,w
  2197     04A1  00CA               	movwf	updateDigits_SS_tt@hund+2
  2198     04A2  0833               	movf	?___llmod+1,w
  2199     04A3  00C9               	movwf	updateDigits_SS_tt@hund+1
  2200     04A4  0832               	movf	?___llmod,w
  2201     04A5  00C8               	movwf	updateDigits_SS_tt@hund
  2202                           
  2203                           ;main.c: 54:     uint8_t sec_tens = (uint8_t)((seconds / 10) % 10);
  2204     04A6  3000               	movlw	0
  2205     04A7  00B5               	movwf	___llmod@divisor+3
  2206     04A8  3000               	movlw	0
  2207     04A9  00B4               	movwf	___llmod@divisor+2
  2208     04AA  3000               	movlw	0
  2209     04AB  00B3               	movwf	___llmod@divisor+1
  2210     04AC  300A               	movlw	10
  2211     04AD  00B2               	movwf	___llmod@divisor
  2212     04AE  3000               	movlw	0
  2213     04AF  00A7               	movwf	___lldiv@divisor+3
  2214     04B0  3000               	movlw	0
  2215     04B1  00A6               	movwf	___lldiv@divisor+2
  2216     04B2  3000               	movlw	0
  2217     04B3  00A5               	movwf	___lldiv@divisor+1
  2218     04B4  300A               	movlw	10
  2219     04B5  00A4               	movwf	___lldiv@divisor
  2220     04B6  0847               	movf	updateDigits_SS_tt@seconds+3,w
  2221     04B7  00AB               	movwf	___lldiv@dividend+3
  2222     04B8  0846               	movf	updateDigits_SS_tt@seconds+2,w
  2223     04B9  00AA               	movwf	___lldiv@dividend+2
  2224     04BA  0845               	movf	updateDigits_SS_tt@seconds+1,w
  2225     04BB  00A9               	movwf	___lldiv@dividend+1
  2226     04BC  0844               	movf	updateDigits_SS_tt@seconds,w
  2227     04BD  00A8               	movwf	___lldiv@dividend
  2228     04BE  3186  26D5  3184   	fcall	___lldiv
  2229     04C1  0020               	movlb	0	; select bank0
  2230     04C2  0827               	movf	?___lldiv+3,w
  2231     04C3  00B9               	movwf	___llmod@dividend+3
  2232     04C4  0826               	movf	?___lldiv+2,w
  2233     04C5  00B8               	movwf	___llmod@dividend+2
  2234     04C6  0825               	movf	?___lldiv+1,w
  2235     04C7  00B7               	movwf	___llmod@dividend+1
  2236     04C8  0824               	movf	?___lldiv,w
  2237     04C9  00B6               	movwf	___llmod@dividend
  2238     04CA  3187  2730  3184   	fcall	___llmod
  2239     04CD  0020               	movlb	0	; select bank0
  2240     04CE  0832               	movf	?___llmod,w
  2241     04CF  00C0               	movwf	updateDigits_SS_tt@sec_tens
  2242                           
  2243                           ;main.c: 55:     uint8_t sec_ones = (uint8_t)(seconds % 10);
  2244     04D0  3000               	movlw	0
  2245     04D1  00B5               	movwf	___llmod@divisor+3
  2246     04D2  3000               	movlw	0
  2247     04D3  00B4               	movwf	___llmod@divisor+2
  2248     04D4  3000               	movlw	0
  2249     04D5  00B3               	movwf	___llmod@divisor+1
  2250     04D6  300A               	movlw	10
  2251     04D7  00B2               	movwf	___llmod@divisor
  2252     04D8  0847               	movf	updateDigits_SS_tt@seconds+3,w
  2253     04D9  00B9               	movwf	___llmod@dividend+3
  2254     04DA  0846               	movf	updateDigits_SS_tt@seconds+2,w
  2255     04DB  00B8               	movwf	___llmod@dividend+2
  2256     04DC  0845               	movf	updateDigits_SS_tt@seconds+1,w
  2257     04DD  00B7               	movwf	___llmod@dividend+1
  2258     04DE  0844               	movf	updateDigits_SS_tt@seconds,w
  2259     04DF  00B6               	movwf	___llmod@dividend
  2260     04E0  3187  2730  3184   	fcall	___llmod
  2261     04E3  0020               	movlb	0	; select bank0
  2262     04E4  0832               	movf	?___llmod,w
  2263     04E5  00C1               	movwf	updateDigits_SS_tt@sec_ones
  2264                           
  2265                           ;main.c: 56:     uint8_t hun_tens = (uint8_t)((hund / 10) % 10);
  2266     04E6  3000               	movlw	0
  2267     04E7  00B5               	movwf	___llmod@divisor+3
  2268     04E8  3000               	movlw	0
  2269     04E9  00B4               	movwf	___llmod@divisor+2
  2270     04EA  3000               	movlw	0
  2271     04EB  00B3               	movwf	___llmod@divisor+1
  2272     04EC  300A               	movlw	10
  2273     04ED  00B2               	movwf	___llmod@divisor
  2274     04EE  3000               	movlw	0
  2275     04EF  00A7               	movwf	___lldiv@divisor+3
  2276     04F0  3000               	movlw	0
  2277     04F1  00A6               	movwf	___lldiv@divisor+2
  2278     04F2  3000               	movlw	0
  2279     04F3  00A5               	movwf	___lldiv@divisor+1
  2280     04F4  300A               	movlw	10
  2281     04F5  00A4               	movwf	___lldiv@divisor
  2282     04F6  084B               	movf	updateDigits_SS_tt@hund+3,w
  2283     04F7  00AB               	movwf	___lldiv@dividend+3
  2284     04F8  084A               	movf	updateDigits_SS_tt@hund+2,w
  2285     04F9  00AA               	movwf	___lldiv@dividend+2
  2286     04FA  0849               	movf	updateDigits_SS_tt@hund+1,w
  2287     04FB  00A9               	movwf	___lldiv@dividend+1
  2288     04FC  0848               	movf	updateDigits_SS_tt@hund,w
  2289     04FD  00A8               	movwf	___lldiv@dividend
  2290     04FE  3186  26D5  3184   	fcall	___lldiv
  2291     0501  0020               	movlb	0	; select bank0
  2292     0502  0827               	movf	?___lldiv+3,w
  2293     0503  00B9               	movwf	___llmod@dividend+3
  2294     0504  0826               	movf	?___lldiv+2,w
  2295     0505  00B8               	movwf	___llmod@dividend+2
  2296     0506  0825               	movf	?___lldiv+1,w
  2297     0507  00B7               	movwf	___llmod@dividend+1
  2298     0508  0824               	movf	?___lldiv,w
  2299     0509  00B6               	movwf	___llmod@dividend
  2300     050A  3187  2730  3184   	fcall	___llmod
  2301     050D  0020               	movlb	0	; select bank0
  2302     050E  0832               	movf	?___llmod,w
  2303     050F  00C2               	movwf	updateDigits_SS_tt@hun_tens
  2304                           
  2305                           ;main.c: 57:     uint8_t hun_ones = (uint8_t)(hund % 10);
  2306     0510  3000               	movlw	0
  2307     0511  00B5               	movwf	___llmod@divisor+3
  2308     0512  3000               	movlw	0
  2309     0513  00B4               	movwf	___llmod@divisor+2
  2310     0514  3000               	movlw	0
  2311     0515  00B3               	movwf	___llmod@divisor+1
  2312     0516  300A               	movlw	10
  2313     0517  00B2               	movwf	___llmod@divisor
  2314     0518  084B               	movf	updateDigits_SS_tt@hund+3,w
  2315     0519  00B9               	movwf	___llmod@dividend+3
  2316     051A  084A               	movf	updateDigits_SS_tt@hund+2,w
  2317     051B  00B8               	movwf	___llmod@dividend+2
  2318     051C  0849               	movf	updateDigits_SS_tt@hund+1,w
  2319     051D  00B7               	movwf	___llmod@dividend+1
  2320     051E  0848               	movf	updateDigits_SS_tt@hund,w
  2321     051F  00B6               	movwf	___llmod@dividend
  2322     0520  3187  2730  3184   	fcall	___llmod
  2323     0523  0020               	movlb	0	; select bank0
  2324     0524  0832               	movf	?___llmod,w
  2325     0525  00C3               	movwf	updateDigits_SS_tt@hun_ones
  2326     0526                     l2638:
  2327                           
  2328                           ;main.c: 60:     digits[3] = sec_tens;
  2329     0526  0840               	movf	updateDigits_SS_tt@sec_tens,w
  2330     0527  00E7               	movwf	_digits+3	;volatile
  2331     0528                     l2640:
  2332                           
  2333                           ;main.c: 61:     digits[2] = sec_ones;
  2334     0528  0841               	movf	updateDigits_SS_tt@sec_ones,w
  2335     0529  00E6               	movwf	_digits+2	;volatile
  2336     052A                     l2642:
  2337                           
  2338                           ;main.c: 62:     digits[1] = hun_tens;
  2339     052A  0842               	movf	updateDigits_SS_tt@hun_tens,w
  2340     052B  00E5               	movwf	_digits+1	;volatile
  2341     052C                     l2644:
  2342                           
  2343                           ;main.c: 63:     digits[0] = hun_ones;
  2344     052C  0843               	movf	updateDigits_SS_tt@hun_ones,w
  2345     052D  00E4               	movwf	_digits	;volatile
  2346     052E                     l110:
  2347     052E  0008               	return
  2348     052F                     __end_of_updateDigits_SS_tt:
  2349                           
  2350                           	psect	text3
  2351     0730                     __ptext3:	
  2352 ;; *************** function ___llmod *****************
  2353 ;; Defined at:
  2354 ;;		line 5 in file "C:\Program Files\Microchip\xc8\v2.46\pic\sources\c99\common\llmod.c"
  2355 ;; Parameters:    Size  Location     Type
  2356 ;;  divisor         4   18[BANK0 ] unsigned long 
  2357 ;;  dividend        4   22[BANK0 ] unsigned long 
  2358 ;; Auto vars:     Size  Location     Type
  2359 ;;  counter         1   27[BANK0 ] unsigned char 
  2360 ;; Return value:  Size  Location     Type
  2361 ;;                  4   18[BANK0 ] unsigned long 
  2362 ;; Registers used:
  2363 ;;		wreg, status,2, status,0
  2364 ;; Tracked objects:
  2365 ;;		On entry : 0/0
  2366 ;;		On exit  : 0/0
  2367 ;;		Unchanged: 0/0
  2368 ;; Data sizes:     COMMON   BANK0   BANK1   BANK2   BANK3   BANK4   BANK5   BANK6   BANK7   BANK8   BANK9  BANK10  BANK1
      +1  BANK12  BANK13  BANK14  BANK15  BANK16  BANK17  BANK18  BANK19  BANK20  BANK21  BANK22  BANK23  BANK24  BANK25
  2369 ;;      Params:         0       8       0       0       0       0       0       0       0       0       0       0       
      +0       0       0       0       0       0       0       0       0       0       0       0       0       0       0
  2370 ;;      Locals:         0       1       0       0       0       0       0       0       0       0       0       0       
      +0       0       0       0       0       0       0       0       0       0       0       0       0       0       0
  2371 ;;      Temps:          0       1       0       0       0       0       0       0       0       0       0       0       
      +0       0       0       0       0       0       0       0       0       0       0       0       0       0       0
  2372 ;;      Totals:         0      10       0       0       0       0       0       0       0       0       0       0       
      +0       0       0       0       0       0       0       0       0       0       0       0       0       0       0
  2373 ;;Total ram usage:       10 bytes
  2374 ;; Hardware stack levels used: 1
  2375 ;; Hardware stack levels required when called: 2
  2376 ;; This function calls:
  2377 ;;		Nothing
  2378 ;; This function is called by:
  2379 ;;		_updateDigits_SS_tt
  2380 ;; This function uses a non-reentrant model
  2381 ;;
  2382                           
  2383     0730                     ___llmod:	
  2384                           ;psect for function ___llmod
  2385                           
  2386     0730                     l2616:	
  2387                           ;incstack = 0
  2388                           ; Regs used in ___llmod: [wreg+status,2+status,0]
  2389                           
  2390     0730  0020               	movlb	0	; select bank0
  2391     0731  0835               	movf	___llmod@divisor+3,w
  2392     0732  0434               	iorwf	___llmod@divisor+2,w
  2393     0733  0433               	iorwf	___llmod@divisor+1,w
  2394     0734  0432               	iorwf	___llmod@divisor,w
  2395     0735  1903               	skipnz
  2396     0736  2F38               	goto	u2101
  2397     0737  2F39               	goto	u2100
  2398     0738                     u2101:
  2399     0738  2F72               	goto	l2632
  2400     0739                     u2100:
  2401     0739                     l2618:
  2402     0739  01BB               	clrf	___llmod@counter
  2403     073A  0ABB               	incf	___llmod@counter,f
  2404     073B  2F47               	goto	l2622
  2405     073C                     l2620:
  2406     073C  3001               	movlw	1
  2407     073D                     u2115:
  2408     073D  35B2               	lslf	___llmod@divisor,f
  2409     073E  0DB3               	rlf	___llmod@divisor+1,f
  2410     073F  0DB4               	rlf	___llmod@divisor+2,f
  2411     0740  0DB5               	rlf	___llmod@divisor+3,f
  2412     0741  0B89               	decfsz	9,f
  2413     0742  2F3D               	goto	u2115
  2414     0743  3001               	movlw	1
  2415     0744  00BA               	movwf	??___llmod
  2416     0745  083A               	movf	??___llmod,w
  2417     0746  07BB               	addwf	___llmod@counter,f
  2418     0747                     l2622:
  2419     0747  1FB5               	btfss	___llmod@divisor+3,7
  2420     0748  2F4A               	goto	u2121
  2421     0749  2F4B               	goto	u2120
  2422     074A                     u2121:
  2423     074A  2F3C               	goto	l2620
  2424     074B                     u2120:
  2425     074B                     l2624:
  2426     074B  0835               	movf	___llmod@divisor+3,w
  2427     074C  0239               	subwf	___llmod@dividend+3,w
  2428     074D  1D03               	skipz
  2429     074E  2F59               	goto	u2135
  2430     074F  0834               	movf	___llmod@divisor+2,w
  2431     0750  0238               	subwf	___llmod@dividend+2,w
  2432     0751  1D03               	skipz
  2433     0752  2F59               	goto	u2135
  2434     0753  0833               	movf	___llmod@divisor+1,w
  2435     0754  0237               	subwf	___llmod@dividend+1,w
  2436     0755  1D03               	skipz
  2437     0756  2F59               	goto	u2135
  2438     0757  0832               	movf	___llmod@divisor,w
  2439     0758  0236               	subwf	___llmod@dividend,w
  2440     0759                     u2135:
  2441     0759  1C03               	skipc
  2442     075A  2F5C               	goto	u2131
  2443     075B  2F5D               	goto	u2130
  2444     075C                     u2131:
  2445     075C  2F65               	goto	l2628
  2446     075D                     u2130:
  2447     075D                     l2626:
  2448     075D  0832               	movf	___llmod@divisor,w
  2449     075E  02B6               	subwf	___llmod@dividend,f
  2450     075F  0833               	movf	___llmod@divisor+1,w
  2451     0760  3BB7               	subwfb	___llmod@dividend+1,f
  2452     0761  0834               	movf	___llmod@divisor+2,w
  2453     0762  3BB8               	subwfb	___llmod@dividend+2,f
  2454     0763  0835               	movf	___llmod@divisor+3,w
  2455     0764  3BB9               	subwfb	___llmod@dividend+3,f
  2456     0765                     l2628:
  2457     0765  3001               	movlw	1
  2458     0766                     u2145:
  2459     0766  36B5               	lsrf	___llmod@divisor+3,f
  2460     0767  0CB4               	rrf	___llmod@divisor+2,f
  2461     0768  0CB3               	rrf	___llmod@divisor+1,f
  2462     0769  0CB2               	rrf	___llmod@divisor,f
  2463     076A  0B89               	decfsz	9,f
  2464     076B  2F66               	goto	u2145
  2465     076C                     l2630:
  2466     076C  3001               	movlw	1
  2467     076D  02BB               	subwf	___llmod@counter,f
  2468     076E  1D03               	btfss	3,2
  2469     076F  2F71               	goto	u2151
  2470     0770  2F72               	goto	u2150
  2471     0771                     u2151:
  2472     0771  2F4B               	goto	l2624
  2473     0772                     u2150:
  2474     0772                     l2632:
  2475     0772  0839               	movf	___llmod@dividend+3,w
  2476     0773  00B5               	movwf	?___llmod+3
  2477     0774  0838               	movf	___llmod@dividend+2,w
  2478     0775  00B4               	movwf	?___llmod+2
  2479     0776  0837               	movf	___llmod@dividend+1,w
  2480     0777  00B3               	movwf	?___llmod+1
  2481     0778  0836               	movf	___llmod@dividend,w
  2482     0779  00B2               	movwf	?___llmod
  2483     077A                     l686:
  2484     077A  0008               	return
  2485     077B                     __end_of___llmod:
  2486                           
  2487                           	psect	text4
  2488     0EE5                     __ptext4:	
  2489 ;; *************** function _internal_32 *****************
  2490 ;; Defined at:
  2491 ;;		line 36 in file "PIC16F1718_Internal.c"
  2492 ;; Parameters:    Size  Location     Type
  2493 ;;		None
  2494 ;; Auto vars:     Size  Location     Type
  2495 ;;		None
  2496 ;; Return value:  Size  Location     Type
  2497 ;;                  1    wreg      void 
  2498 ;; Registers used:
  2499 ;;		None
  2500 ;; Tracked objects:
  2501 ;;		On entry : 0/0
  2502 ;;		On exit  : 0/0
  2503 ;;		Unchanged: 0/0
  2504 ;; Data sizes:     COMMON   BANK0   BANK1   BANK2   BANK3   BANK4   BANK5   BANK6   BANK7   BANK8   BANK9  BANK10  BANK1
      +1  BANK12  BANK13  BANK14  BANK15  BANK16  BANK17  BANK18  BANK19  BANK20  BANK21  BANK22  BANK23  BANK24  BANK25
  2505 ;;      Params:         0       0       0       0       0       0       0       0       0       0       0       0       
      +0       0       0       0       0       0       0       0       0       0       0       0       0       0       0
  2506 ;;      Locals:         0       0       0       0       0       0       0       0       0       0       0       0       
      +0       0       0       0       0       0       0       0       0       0       0       0       0       0       0
  2507 ;;      Temps:          0       0       0       0       0       0       0       0       0       0       0       0       
      +0       0       0       0       0       0       0       0       0       0       0       0       0       0       0
  2508 ;;      Totals:         0       0       0       0       0       0       0       0       0       0       0       0       
      +0       0       0       0       0       0       0       0       0       0       0       0       0       0       0
  2509 ;;Total ram usage:        0 bytes
  2510 ;; Hardware stack levels used: 1
  2511 ;; Hardware stack levels required when called: 2
  2512 ;; This function calls:
  2513 ;;		Nothing
  2514 ;; This function is called by:
  2515 ;;		_initMain
  2516 ;; This function uses a non-reentrant model
  2517 ;;
  2518                           
  2519     0EE5                     _internal_32:	
  2520                           ;psect for function _internal_32
  2521                           
  2522     0EE5                     l1826:	
  2523                           ;incstack = 0
  2524                           ; Regs used in _internal_32: []
  2525                           
  2526                           
  2527                           ;PIC16F1718_Internal.c: 38:     SCS0 = 0;
  2528     0EE5  0021               	movlb	1	; select bank1
  2529     0EE6  1019               	bcf	25,0	;volatile
  2530                           
  2531                           ;PIC16F1718_Internal.c: 39:     SCS1 = 0;
  2532     0EE7  1099               	bcf	25,1	;volatile
  2533                           
  2534                           ;PIC16F1718_Internal.c: 42:     IRCF0 = 0;
  2535     0EE8  1199               	bcf	25,3	;volatile
  2536                           
  2537                           ;PIC16F1718_Internal.c: 43:     IRCF1 = 1;
  2538     0EE9  1619               	bsf	25,4	;volatile
  2539                           
  2540                           ;PIC16F1718_Internal.c: 44:     IRCF2 = 1;
  2541     0EEA  1699               	bsf	25,5	;volatile
  2542                           
  2543                           ;PIC16F1718_Internal.c: 45:     IRCF3 = 1;
  2544     0EEB  1719               	bsf	25,6	;volatile
  2545                           
  2546                           ;PIC16F1718_Internal.c: 48:     SPLLEN = 1;
  2547     0EEC  1799               	bsf	25,7	;volatile
  2548     0EED                     l17:
  2549     0EED  0008               	return
  2550     0EEE                     __end_of_internal_32:
  2551                           
  2552                           	psect	text5
  2553     0F09                     __ptext5:	
  2554 ;; *************** function _Timer2_Init_DisplayScan *****************
  2555 ;; Defined at:
  2556 ;;		line 229 in file "main.c"
  2557 ;; Parameters:    Size  Location     Type
  2558 ;;		None
  2559 ;; Auto vars:     Size  Location     Type
  2560 ;;		None
  2561 ;; Return value:  Size  Location     Type
  2562 ;;                  1    wreg      void 
  2563 ;; Registers used:
  2564 ;;		wreg, status,2, status,0
  2565 ;; Tracked objects:
  2566 ;;		On entry : 0/0
  2567 ;;		On exit  : 0/0
  2568 ;;		Unchanged: 0/0
  2569 ;; Data sizes:     COMMON   BANK0   BANK1   BANK2   BANK3   BANK4   BANK5   BANK6   BANK7   BANK8   BANK9  BANK10  BANK1
      +1  BANK12  BANK13  BANK14  BANK15  BANK16  BANK17  BANK18  BANK19  BANK20  BANK21  BANK22  BANK23  BANK24  BANK25
  2570 ;;      Params:         0       0       0       0       0       0       0       0       0       0       0       0       
      +0       0       0       0       0       0       0       0       0       0       0       0       0       0       0
  2571 ;;      Locals:         0       0       0       0       0       0       0       0       0       0       0       0       
      +0       0       0       0       0       0       0       0       0       0       0       0       0       0       0
  2572 ;;      Temps:          0       0       0       0       0       0       0       0       0       0       0       0       
      +0       0       0       0       0       0       0       0       0       0       0       0       0       0       0
  2573 ;;      Totals:         0       0       0       0       0       0       0       0       0       0       0       0       
      +0       0       0       0       0       0       0       0       0       0       0       0       0       0       0
  2574 ;;Total ram usage:        0 bytes
  2575 ;; Hardware stack levels used: 1
  2576 ;; Hardware stack levels required when called: 2
  2577 ;; This function calls:
  2578 ;;		Nothing
  2579 ;; This function is called by:
  2580 ;;		_initMain
  2581 ;; This function uses a non-reentrant model
  2582 ;;
  2583                           
  2584     0F09                     _Timer2_Init_DisplayScan:	
  2585                           ;psect for function _Timer2_Init_DisplayScan
  2586                           
  2587     0F09                     l2026:	
  2588                           ;incstack = 0
  2589                           ; Regs used in _Timer2_Init_DisplayScan: [wreg+status,2+status,0]
  2590                           
  2591                           
  2592                           ;main.c: 231:     T2CONbits.T2CKPS = 0b10;
  2593     0F09  0020               	movlb	0	; select bank0
  2594     0F0A  081C               	movf	28,w	;volatile
  2595     0F0B  39FC               	andlw	-4
  2596     0F0C  3802               	iorlw	2
  2597     0F0D  009C               	movwf	28	;volatile
  2598                           
  2599                           ;main.c: 232:     T2CONbits.T2OUTPS = 0b0000;
  2600     0F0E  3087               	movlw	-121
  2601     0F0F  059C               	andwf	28,f	;volatile
  2602     0F10                     l2028:
  2603                           
  2604                           ;main.c: 233:     PR2 = 39;
  2605     0F10  3027               	movlw	39
  2606     0F11  009B               	movwf	27	;volatile
  2607     0F12                     l2030:
  2608                           
  2609                           ;main.c: 234:     TMR2 = 0;
  2610     0F12  019A               	clrf	26	;volatile
  2611     0F13                     l2032:
  2612                           
  2613                           ;main.c: 236:     PIR1bits.TMR2IF = 0;
  2614     0F13  1091               	bcf	17,1	;volatile
  2615     0F14                     l2034:
  2616                           
  2617                           ;main.c: 237:     PIE1bits.TMR2IE = 1;
  2618     0F14  0021               	movlb	1	; select bank1
  2619     0F15  1491               	bsf	17,1	;volatile
  2620     0F16                     l2036:
  2621                           
  2622                           ;main.c: 239:     T2CONbits.TMR2ON = 1;
  2623     0F16  0020               	movlb	0	; select bank0
  2624     0F17  151C               	bsf	28,2	;volatile
  2625     0F18                     l170:
  2626     0F18  0008               	return
  2627     0F19                     __end_of_Timer2_Init_DisplayScan:
  2628                           
  2629                           	psect	text6
  2630     0EF9                     __ptext6:	
  2631 ;; *************** function _Timer1_Init_Tick10ms *****************
  2632 ;; Defined at:
  2633 ;;		line 248 in file "main.c"
  2634 ;; Parameters:    Size  Location     Type
  2635 ;;		None
  2636 ;; Auto vars:     Size  Location     Type
  2637 ;;		None
  2638 ;; Return value:  Size  Location     Type
  2639 ;;                  1    wreg      void 
  2640 ;; Registers used:
  2641 ;;		wreg, status,2, status,0
  2642 ;; Tracked objects:
  2643 ;;		On entry : 0/0
  2644 ;;		On exit  : 0/0
  2645 ;;		Unchanged: 0/0
  2646 ;; Data sizes:     COMMON   BANK0   BANK1   BANK2   BANK3   BANK4   BANK5   BANK6   BANK7   BANK8   BANK9  BANK10  BANK1
      +1  BANK12  BANK13  BANK14  BANK15  BANK16  BANK17  BANK18  BANK19  BANK20  BANK21  BANK22  BANK23  BANK24  BANK25
  2647 ;;      Params:         0       0       0       0       0       0       0       0       0       0       0       0       
      +0       0       0       0       0       0       0       0       0       0       0       0       0       0       0
  2648 ;;      Locals:         0       0       0       0       0       0       0       0       0       0       0       0       
      +0       0       0       0       0       0       0       0       0       0       0       0       0       0       0
  2649 ;;      Temps:          0       0       0       0       0       0       0       0       0       0       0       0       
      +0       0       0       0       0       0       0       0       0       0       0       0       0       0       0
  2650 ;;      Totals:         0       0       0       0       0       0       0       0       0       0       0       0       
      +0       0       0       0       0       0       0       0       0       0       0       0       0       0       0
  2651 ;;Total ram usage:        0 bytes
  2652 ;; Hardware stack levels used: 1
  2653 ;; Hardware stack levels required when called: 2
  2654 ;; This function calls:
  2655 ;;		Nothing
  2656 ;; This function is called by:
  2657 ;;		_initMain
  2658 ;; This function uses a non-reentrant model
  2659 ;;
  2660                           
  2661     0EF9                     _Timer1_Init_Tick10ms:	
  2662                           ;psect for function _Timer1_Init_Tick10ms
  2663                           
  2664     0EF9                     l2038:	
  2665                           ;incstack = 0
  2666                           ; Regs used in _Timer1_Init_Tick10ms: [wreg+status,2+status,0]
  2667                           
  2668                           
  2669                           ;main.c: 250:     T1CONbits.TMR1CS = 0;
  2670     0EF9  303F               	movlw	-193
  2671     0EFA  0020               	movlb	0	; select bank0
  2672     0EFB  0598               	andwf	24,f	;volatile
  2673                           
  2674                           ;main.c: 251:     T1CONbits.T1CKPS = 0b11;
  2675     0EFC  3030               	movlw	48
  2676     0EFD  0498               	iorwf	24,f	;volatile
  2677     0EFE                     l2040:
  2678                           
  2679                           ;main.c: 252:     T1CONbits.T1OSCEN = 0;
  2680     0EFE  1198               	bcf	24,3	;volatile
  2681     0EFF                     l2042:
  2682                           
  2683                           ;main.c: 254:     TMR1H = 0xD8;
  2684     0EFF  30D8               	movlw	216
  2685     0F00  0097               	movwf	23	;volatile
  2686     0F01                     l2044:
  2687                           
  2688                           ;main.c: 255:     TMR1L = 0xF0;
  2689     0F01  30F0               	movlw	240
  2690     0F02  0096               	movwf	22	;volatile
  2691     0F03                     l2046:
  2692                           
  2693                           ;main.c: 257:     PIR1bits.TMR1IF = 0;
  2694     0F03  1011               	bcf	17,0	;volatile
  2695     0F04                     l2048:
  2696                           
  2697                           ;main.c: 258:     PIE1bits.TMR1IE = 1;
  2698     0F04  0021               	movlb	1	; select bank1
  2699     0F05  1411               	bsf	17,0	;volatile
  2700     0F06                     l2050:
  2701                           
  2702                           ;main.c: 260:     T1CONbits.TMR1ON = 1;
  2703     0F06  0020               	movlb	0	; select bank0
  2704     0F07  1418               	bsf	24,0	;volatile
  2705     0F08                     l173:
  2706     0F08  0008               	return
  2707     0F09                     __end_of_Timer1_Init_Tick10ms:
  2708                           
  2709                           	psect	text7
  2710     0F38                     __ptext7:	
  2711 ;; *************** function _Buzzer_Init *****************
  2712 ;; Defined at:
  2713 ;;		line 29 in file "buzzer.c"
  2714 ;; Parameters:    Size  Location     Type
  2715 ;;		None
  2716 ;; Auto vars:     Size  Location     Type
  2717 ;;		None
  2718 ;; Return value:  Size  Location     Type
  2719 ;;                  1    wreg      void 
  2720 ;; Registers used:
  2721 ;;		wreg, status,2, status,0
  2722 ;; Tracked objects:
  2723 ;;		On entry : 0/0
  2724 ;;		On exit  : 0/0
  2725 ;;		Unchanged: 0/0
  2726 ;; Data sizes:     COMMON   BANK0   BANK1   BANK2   BANK3   BANK4   BANK5   BANK6   BANK7   BANK8   BANK9  BANK10  BANK1
      +1  BANK12  BANK13  BANK14  BANK15  BANK16  BANK17  BANK18  BANK19  BANK20  BANK21  BANK22  BANK23  BANK24  BANK25
  2727 ;;      Params:         0       0       0       0       0       0       0       0       0       0       0       0       
      +0       0       0       0       0       0       0       0       0       0       0       0       0       0       0
  2728 ;;      Locals:         0       0       0       0       0       0       0       0       0       0       0       0       
      +0       0       0       0       0       0       0       0       0       0       0       0       0       0       0
  2729 ;;      Temps:          0       0       0       0       0       0       0       0       0       0       0       0       
      +0       0       0       0       0       0       0       0       0       0       0       0       0       0       0
  2730 ;;      Totals:         0       0       0       0       0       0       0       0       0       0       0       0       
      +0       0       0       0       0       0       0       0       0       0       0       0       0       0       0
  2731 ;;Total ram usage:        0 bytes
  2732 ;; Hardware stack levels used: 1
  2733 ;; Hardware stack levels required when called: 2
  2734 ;; This function calls:
  2735 ;;		Nothing
  2736 ;; This function is called by:
  2737 ;;		_initMain
  2738 ;; This function uses a non-reentrant model
  2739 ;;
  2740                           
  2741     0F38                     _Buzzer_Init:	
  2742                           ;psect for function _Buzzer_Init
  2743                           
  2744     0F38                     l2052:	
  2745                           ;incstack = 0
  2746                           ; Regs used in _Buzzer_Init: [wreg+status,2+status,0]
  2747                           
  2748                           
  2749                           ;buzzer.c: 32:     TRISBbits.TRISB0 = 0;
  2750     0F38  0021               	movlb	1	; select bank1
  2751     0F39  100D               	bcf	13,0	;volatile
  2752                           
  2753                           ;buzzer.c: 35:     ANSELBbits.ANSB0 = 0;
  2754     0F3A  0023               	movlb	3	; select bank3
  2755     0F3B  100D               	bcf	13,0	;volatile
  2756     0F3C                     l2054:
  2757                           
  2758                           ;buzzer.c: 38:     CCPTMRSbits.C1TSEL = 0b10;
  2759     0F3C  0025               	movlb	5	; select bank5
  2760     0F3D  081E               	movf	30,w	;volatile
  2761     0F3E  39FC               	andlw	-4
  2762     0F3F  3802               	iorlw	2
  2763     0F40  009E               	movwf	30	;volatile
  2764                           
  2765                           ;buzzer.c: 41:     T6CONbits.T6CKPS = 0b00;
  2766     0F41  30FC               	movlw	-4
  2767     0F42  0028               	movlb	8	; select bank8
  2768     0F43  059E               	andwf	30,f	;volatile
  2769     0F44                     l2056:
  2770                           
  2771                           ;buzzer.c: 42:     T6CONbits.TMR6ON = 1;
  2772     0F44  151E               	bsf	30,2	;volatile
  2773     0F45                     l2058:
  2774                           
  2775                           ;buzzer.c: 43:     PR6 = 255;
  2776     0F45  30FF               	movlw	255
  2777     0F46  009D               	movwf	29	;volatile
  2778     0F47                     l2060:
  2779                           
  2780                           ;buzzer.c: 46:     CCP1CONbits.DC1B = 0b00;
  2781     0F47  30CF               	movlw	-49
  2782     0F48  0025               	movlb	5	; select bank5
  2783     0F49  0593               	andwf	19,f	;volatile
  2784     0F4A                     l2062:
  2785                           
  2786                           ;buzzer.c: 47:     CCP1CONbits.CCP1M = 0b1100;
  2787     0F4A  0813               	movf	19,w	;volatile
  2788     0F4B  39F0               	andlw	-16
  2789     0F4C  380C               	iorlw	12
  2790     0F4D  0093               	movwf	19	;volatile
  2791     0F4E                     l2064:
  2792                           
  2793                           ;buzzer.c: 50:     PPSLOCK = 0x55;
  2794     0F4E  3055               	movlw	85
  2795     0F4F  003C               	movlb	28	; select bank28
  2796     0F50  008F               	movwf	15	;volsfr
  2797     0F51                     l2066:
  2798                           
  2799                           ;buzzer.c: 51:     PPSLOCK = 0xAA;
  2800     0F51  30AA               	movlw	170
  2801     0F52  008F               	movwf	15	;volsfr
  2802     0F53                     l2068:
  2803                           
  2804                           ;buzzer.c: 52:     PPSLOCKbits.PPSLOCKED = 0x00;
  2805     0F53  100F               	bcf	15,0	;volsfr
  2806     0F54                     l2070:
  2807                           
  2808                           ;buzzer.c: 53:     RB0PPSbits.RB0PPS = 0b01100;
  2809     0F54  003D               	movlb	29	; select bank29
  2810     0F55  0818               	movf	24,w	;volatile
  2811     0F56  39E0               	andlw	-32
  2812     0F57  380C               	iorlw	12
  2813     0F58  0098               	movwf	24	;volatile
  2814                           
  2815                           ;buzzer.c: 54:     PPSLOCK = 0x55;
  2816     0F59  3055               	movlw	85
  2817     0F5A  003C               	movlb	28	; select bank28
  2818     0F5B  008F               	movwf	15	;volsfr
  2819                           
  2820                           ;buzzer.c: 55:     PPSLOCK = 0xAA;
  2821     0F5C  30AA               	movlw	170
  2822     0F5D  008F               	movwf	15	;volsfr
  2823     0F5E                     l2072:
  2824                           
  2825                           ;buzzer.c: 56:     PPSLOCKbits.PPSLOCKED = 0x01;
  2826     0F5E  140F               	bsf	15,0	;volsfr
  2827     0F5F                     l2074:
  2828                           
  2829                           ;buzzer.c: 59:     CCPR1L = 0;
  2830     0F5F  0025               	movlb	5	; select bank5
  2831     0F60  0191               	clrf	17	;volatile
  2832     0F61                     l242:
  2833     0F61  0008               	return
  2834     0F62                     __end_of_Buzzer_Init:
  2835                           
  2836                           	psect	text8
  2837     0F19                     __ptext8:	
  2838 ;; *************** function _btn_init *****************
  2839 ;; Defined at:
  2840 ;;		line 77 in file "main.c"
  2841 ;; Parameters:    Size  Location     Type
  2842 ;;  b               1    wreg     PTR struct .
  2843 ;;		 -> main@dec_btn(7), main@inc_btn(7), 
  2844 ;; Auto vars:     Size  Location     Type
  2845 ;;  b               1    2[COMMON] PTR struct .
  2846 ;;		 -> main@dec_btn(7), main@inc_btn(7), 
  2847 ;; Return value:  Size  Location     Type
  2848 ;;                  1    wreg      void 
  2849 ;; Registers used:
  2850 ;;		wreg, fsr1l, fsr1h, status,2, status,0
  2851 ;; Tracked objects:
  2852 ;;		On entry : 0/0
  2853 ;;		On exit  : 0/0
  2854 ;;		Unchanged: 0/0
  2855 ;; Data sizes:     COMMON   BANK0   BANK1   BANK2   BANK3   BANK4   BANK5   BANK6   BANK7   BANK8   BANK9  BANK10  BANK1
      +1  BANK12  BANK13  BANK14  BANK15  BANK16  BANK17  BANK18  BANK19  BANK20  BANK21  BANK22  BANK23  BANK24  BANK25
  2856 ;;      Params:         0       0       0       0       0       0       0       0       0       0       0       0       
      +0       0       0       0       0       0       0       0       0       0       0       0       0       0       0
  2857 ;;      Locals:         1       0       0       0       0       0       0       0       0       0       0       0       
      +0       0       0       0       0       0       0       0       0       0       0       0       0       0       0
  2858 ;;      Temps:          0       0       0       0       0       0       0       0       0       0       0       0       
      +0       0       0       0       0       0       0       0       0       0       0       0       0       0       0
  2859 ;;      Totals:         1       0       0       0       0       0       0       0       0       0       0       0       
      +0       0       0       0       0       0       0       0       0       0       0       0       0       0       0
  2860 ;;Total ram usage:        1 bytes
  2861 ;; Hardware stack levels used: 1
  2862 ;; Hardware stack levels required when called: 2
  2863 ;; This function calls:
  2864 ;;		Nothing
  2865 ;; This function is called by:
  2866 ;;		_main
  2867 ;; This function uses a non-reentrant model
  2868 ;;
  2869                           
  2870     0F19                     _btn_init:	
  2871                           ;psect for function _btn_init
  2872                           
  2873                           
  2874                           ;incstack = 0
  2875                           ; Regs used in _btn_init: [wreg+fsr1l+fsr1h+status,2+status,0]
  2876                           ;btn_init@b stored from wreg
  2877     0F19  00F2               	movwf	btn_init@b
  2878     0F1A                     l2126:
  2879                           
  2880                           ;main.c: 77: static void btn_init(hold_btn_t *b);main.c: 78: {;main.c: 79:     b->stable
      +                           = 1;
  2881     0F1A  0872               	movf	btn_init@b,w
  2882     0F1B  0086               	movwf	6
  2883     0F1C  0187               	clrf	7
  2884     0F1D  0181               	clrf	1
  2885     0F1E  0A81               	incf	1,f
  2886                           
  2887                           ;main.c: 80:     b->last_raw = 1;
  2888     0F1F  0A72               	incf	btn_init@b,w
  2889     0F20  0086               	movwf	6
  2890     0F21  0187               	clrf	7
  2891     0F22  0181               	clrf	1
  2892     0F23  0A81               	incf	1,f
  2893     0F24                     l2128:
  2894                           
  2895                           ;main.c: 81:     b->db_count = 0;
  2896     0F24  0872               	movf	btn_init@b,w
  2897     0F25  3E02               	addlw	2
  2898     0F26  0086               	movwf	6
  2899     0F27  0187               	clrf	7
  2900     0F28  0181               	clrf	1
  2901     0F29                     l2130:
  2902                           
  2903                           ;main.c: 82:     b->hold_ms = 0;
  2904     0F29  0872               	movf	btn_init@b,w
  2905     0F2A  3E03               	addlw	3
  2906     0F2B  0086               	movwf	6
  2907     0F2C  0187               	clrf	7
  2908     0F2D  3000               	movlw	0
  2909     0F2E  3FC0               	movwi [0]fsr1
  2910     0F2F  3FC1               	movwi [1]fsr1
  2911     0F30                     l2132:
  2912                           
  2913                           ;main.c: 83:     b->rep_ms = 0;
  2914     0F30  0872               	movf	btn_init@b,w
  2915     0F31  3E05               	addlw	5
  2916     0F32  0086               	movwf	6
  2917     0F33  0187               	clrf	7
  2918     0F34  3000               	movlw	0
  2919     0F35  3FC0               	movwi [0]fsr1
  2920     0F36  3FC1               	movwi [1]fsr1
  2921     0F37                     l113:
  2922     0F37  0008               	return
  2923     0F38                     __end_of_btn_init:
  2924                           
  2925                           	psect	text9
  2926     07BE                     __ptext9:	
  2927 ;; *************** function _btn_debounce_10ms *****************
  2928 ;; Defined at:
  2929 ;;		line 87 in file "main.c"
  2930 ;; Parameters:    Size  Location     Type
  2931 ;;  b               1    wreg     PTR struct .
  2932 ;;		 -> main@dec_btn(7), main@inc_btn(7), 
  2933 ;;  raw_now         1    2[COMMON] unsigned char 
  2934 ;; Auto vars:     Size  Location     Type
  2935 ;;  b               1    4[COMMON] PTR struct .
  2936 ;;		 -> main@dec_btn(7), main@inc_btn(7), 
  2937 ;; Return value:  Size  Location     Type
  2938 ;;                  1    wreg      unsigned char 
  2939 ;; Registers used:
  2940 ;;		wreg, fsr1l, fsr1h, status,2, status,0
  2941 ;; Tracked objects:
  2942 ;;		On entry : 0/0
  2943 ;;		On exit  : 0/0
  2944 ;;		Unchanged: 0/0
  2945 ;; Data sizes:     COMMON   BANK0   BANK1   BANK2   BANK3   BANK4   BANK5   BANK6   BANK7   BANK8   BANK9  BANK10  BANK1
      +1  BANK12  BANK13  BANK14  BANK15  BANK16  BANK17  BANK18  BANK19  BANK20  BANK21  BANK22  BANK23  BANK24  BANK25
  2946 ;;      Params:         1       0       0       0       0       0       0       0       0       0       0       0       
      +0       0       0       0       0       0       0       0       0       0       0       0       0       0       0
  2947 ;;      Locals:         1       0       0       0       0       0       0       0       0       0       0       0       
      +0       0       0       0       0       0       0       0       0       0       0       0       0       0       0
  2948 ;;      Temps:          1       0       0       0       0       0       0       0       0       0       0       0       
      +0       0       0       0       0       0       0       0       0       0       0       0       0       0       0
  2949 ;;      Totals:         3       0       0       0       0       0       0       0       0       0       0       0       
      +0       0       0       0       0       0       0       0       0       0       0       0       0       0       0
  2950 ;;Total ram usage:        3 bytes
  2951 ;; Hardware stack levels used: 1
  2952 ;; Hardware stack levels required when called: 2
  2953 ;; This function calls:
  2954 ;;		Nothing
  2955 ;; This function is called by:
  2956 ;;		_main
  2957 ;; This function uses a non-reentrant model
  2958 ;;
  2959                           
  2960     07BE                     _btn_debounce_10ms:	
  2961                           ;psect for function _btn_debounce_10ms
  2962                           
  2963                           
  2964                           ;incstack = 0
  2965                           ; Regs used in _btn_debounce_10ms: [wreg+fsr1l+fsr1h+status,2+status,0]
  2966                           ;btn_debounce_10ms@b stored from wreg
  2967     07BE  00F4               	movwf	btn_debounce_10ms@b
  2968     07BF                     l2134:
  2969                           
  2970                           ;main.c: 87: static uint8_t btn_debounce_10ms(hold_btn_t *b, uint8_t raw_now);main.c: 88
      +                          : {;main.c: 89:     if(raw_now == b->last_raw) {
  2971     07BF  0A74               	incf	btn_debounce_10ms@b,w
  2972     07C0  0086               	movwf	6
  2973     07C1  0187               	clrf	7
  2974     07C2  0801               	movf	1,w
  2975     07C3  0672               	xorwf	btn_debounce_10ms@raw_now,w
  2976     07C4  1D03               	skipz
  2977     07C5  2FC7               	goto	u1471
  2978     07C6  2FC8               	goto	u1470
  2979     07C7                     u1471:
  2980     07C7  2FDB               	goto	l2140
  2981     07C8                     u1470:
  2982     07C8                     l2136:
  2983                           
  2984                           ;main.c: 90:         if(b->db_count < 3) b->db_count++;
  2985     07C8  0874               	movf	btn_debounce_10ms@b,w
  2986     07C9  3E02               	addlw	2
  2987     07CA  0086               	movwf	6
  2988     07CB  0187               	clrf	7
  2989     07CC  3003               	movlw	3
  2990     07CD  0201               	subwf	1,w
  2991     07CE  1803               	skipnc
  2992     07CF  2FD1               	goto	u1481
  2993     07D0  2FD2               	goto	u1480
  2994     07D1                     u1481:
  2995     07D1  2FE5               	goto	l2144
  2996     07D2                     u1480:
  2997     07D2                     l2138:
  2998     07D2  3001               	movlw	1
  2999     07D3  00F3               	movwf	??_btn_debounce_10ms
  3000     07D4  0874               	movf	btn_debounce_10ms@b,w
  3001     07D5  3E02               	addlw	2
  3002     07D6  0086               	movwf	6
  3003     07D7  0187               	clrf	7
  3004     07D8  0873               	movf	??_btn_debounce_10ms,w
  3005     07D9  0781               	addwf	1,f
  3006     07DA  2FE5               	goto	l2144
  3007     07DB                     l2140:
  3008                           
  3009                           ;main.c: 92:         b->db_count = 0;
  3010     07DB  0874               	movf	btn_debounce_10ms@b,w
  3011     07DC  3E02               	addlw	2
  3012     07DD  0086               	movwf	6
  3013     07DE  0187               	clrf	7
  3014     07DF  0181               	clrf	1
  3015     07E0                     l2142:
  3016                           
  3017                           ;main.c: 93:         b->last_raw = raw_now;
  3018     07E0  0A74               	incf	btn_debounce_10ms@b,w
  3019     07E1  0086               	movwf	6
  3020     07E2  0187               	clrf	7
  3021     07E3  0872               	movf	btn_debounce_10ms@raw_now,w
  3022     07E4  0081               	movwf	1
  3023     07E5                     l2144:
  3024                           
  3025                           ;main.c: 96:     if(b->db_count >= 3) {
  3026     07E5  0874               	movf	btn_debounce_10ms@b,w
  3027     07E6  3E02               	addlw	2
  3028     07E7  0086               	movwf	6
  3029     07E8  0187               	clrf	7
  3030     07E9  3003               	movlw	3
  3031     07EA  0201               	subwf	1,w
  3032     07EB  1C03               	skipc
  3033     07EC  2FEE               	goto	u1491
  3034     07ED  2FEF               	goto	u1490
  3035     07EE                     u1491:
  3036     07EE  2FF4               	goto	l119
  3037     07EF                     u1490:
  3038     07EF                     l2146:
  3039                           
  3040                           ;main.c: 97:         b->stable = raw_now;
  3041     07EF  0874               	movf	btn_debounce_10ms@b,w
  3042     07F0  0086               	movwf	6
  3043     07F1  0187               	clrf	7
  3044     07F2  0872               	movf	btn_debounce_10ms@raw_now,w
  3045     07F3  0081               	movwf	1
  3046     07F4                     l119:	
  3047                           ;main.c: 98:     }
  3048                           
  3049                           
  3050                           ;main.c: 100:     return b->stable;
  3051     07F4  0874               	movf	btn_debounce_10ms@b,w
  3052     07F5  0086               	movwf	6
  3053     07F6  0187               	clrf	7
  3054     07F7  0801               	movf	1,w
  3055     07F8                     l120:
  3056     07F8  0008               	return
  3057     07F9                     __end_of_btn_debounce_10ms:
  3058                           
  3059                           	psect	text10
  3060     05D5                     __ptext10:	
  3061 ;; *************** function _btn_action_10ms *****************
  3062 ;; Defined at:
  3063 ;;		line 112 in file "main.c"
  3064 ;; Parameters:    Size  Location     Type
  3065 ;;  b               1    wreg     PTR struct .
  3066 ;;		 -> main@dec_btn(7), main@inc_btn(7), 
  3067 ;;  stable_now      1    4[COMMON] unsigned char 
  3068 ;; Auto vars:     Size  Location     Type
  3069 ;;  b               1    3[BANK0 ] PTR struct .
  3070 ;;		 -> main@dec_btn(7), main@inc_btn(7), 
  3071 ;;  iv              2    0[BANK0 ] unsigned short 
  3072 ;;  fire            1    2[BANK0 ] unsigned char 
  3073 ;; Return value:  Size  Location     Type
  3074 ;;                  1    wreg      unsigned char 
  3075 ;; Registers used:
  3076 ;;		wreg, fsr1l, fsr1h, status,2, status,0, pclath, cstack
  3077 ;; Tracked objects:
  3078 ;;		On entry : 0/0
  3079 ;;		On exit  : 0/0
  3080 ;;		Unchanged: 0/0
  3081 ;; Data sizes:     COMMON   BANK0   BANK1   BANK2   BANK3   BANK4   BANK5   BANK6   BANK7   BANK8   BANK9  BANK10  BANK1
      +1  BANK12  BANK13  BANK14  BANK15  BANK16  BANK17  BANK18  BANK19  BANK20  BANK21  BANK22  BANK23  BANK24  BANK25
  3082 ;;      Params:         1       0       0       0       0       0       0       0       0       0       0       0       
      +0       0       0       0       0       0       0       0       0       0       0       0       0       0       0
  3083 ;;      Locals:         0       4       0       0       0       0       0       0       0       0       0       0       
      +0       0       0       0       0       0       0       0       0       0       0       0       0       0       0
  3084 ;;      Temps:          2       0       0       0       0       0       0       0       0       0       0       0       
      +0       0       0       0       0       0       0       0       0       0       0       0       0       0       0
  3085 ;;      Totals:         3       4       0       0       0       0       0       0       0       0       0       0       
      +0       0       0       0       0       0       0       0       0       0       0       0       0       0       0
  3086 ;;Total ram usage:        7 bytes
  3087 ;; Hardware stack levels used: 1
  3088 ;; Hardware stack levels required when called: 3
  3089 ;; This function calls:
  3090 ;;		_accel_interval_ms
  3091 ;; This function is called by:
  3092 ;;		_main
  3093 ;; This function uses a non-reentrant model
  3094 ;;
  3095                           
  3096     05D5                     _btn_action_10ms:	
  3097                           ;psect for function _btn_action_10ms
  3098                           
  3099                           
  3100                           ;incstack = 0
  3101                           ; Regs used in _btn_action_10ms: [wreg+fsr1l+fsr1h+status,2+status,0+pclath+cstack]
  3102                           ;btn_action_10ms@b stored from wreg
  3103     05D5  0020               	movlb	0	; select bank0
  3104     05D6  00A3               	movwf	btn_action_10ms@b
  3105     05D7                     l2830:
  3106                           
  3107                           ;main.c: 112: static uint8_t btn_action_10ms(hold_btn_t *b, uint8_t stable_now);main.c: 
      +                          113: {;main.c: 114:     static uint8_t prev = 1;;main.c: 115:     uint8_t fire = 0;
  3108     05D7  01A2               	clrf	btn_action_10ms@fire
  3109     05D8                     l2832:
  3110                           
  3111                           ;main.c: 118:     if(prev == 1 && stable_now == 0) {
  3112     05D8  037B               	decf	btn_action_10ms@prev,w
  3113     05D9  1D03               	btfss	3,2
  3114     05DA  2DDC               	goto	u2431
  3115     05DB  2DDD               	goto	u2430
  3116     05DC                     u2431:
  3117     05DC  2DF2               	goto	l2840
  3118     05DD                     u2430:
  3119     05DD                     l2834:
  3120     05DD  0874               	movf	btn_action_10ms@stable_now,w
  3121     05DE  1D03               	btfss	3,2
  3122     05DF  2DE1               	goto	u2441
  3123     05E0  2DE2               	goto	u2440
  3124     05E1                     u2441:
  3125     05E1  2DF2               	goto	l2840
  3126     05E2                     u2440:
  3127     05E2                     l2836:
  3128                           
  3129                           ;main.c: 119:         b->hold_ms = 0;
  3130     05E2  0823               	movf	btn_action_10ms@b,w
  3131     05E3  3E03               	addlw	3
  3132     05E4  0086               	movwf	6
  3133     05E5  0187               	clrf	7
  3134     05E6  3000               	movlw	0
  3135     05E7  3FC0               	movwi [0]fsr1
  3136     05E8  3FC1               	movwi [1]fsr1
  3137                           
  3138                           ;main.c: 120:         b->rep_ms = 0;
  3139     05E9  0823               	movf	btn_action_10ms@b,w
  3140     05EA  3E05               	addlw	5
  3141     05EB  0086               	movwf	6
  3142     05EC  0187               	clrf	7
  3143     05ED  3000               	movlw	0
  3144     05EE  3FC0               	movwi [0]fsr1
  3145     05EF  3FC1               	movwi [1]fsr1
  3146     05F0                     l2838:
  3147                           
  3148                           ;main.c: 121:         fire = 1;
  3149     05F0  01A2               	clrf	btn_action_10ms@fire
  3150     05F1  0AA2               	incf	btn_action_10ms@fire,f
  3151     05F2                     l2840:
  3152                           
  3153                           ;main.c: 124:     prev = stable_now;
  3154     05F2  0874               	movf	btn_action_10ms@stable_now,w
  3155     05F3  00FB               	movwf	btn_action_10ms@prev
  3156     05F4                     l2842:
  3157                           
  3158                           ;main.c: 126:     if(stable_now == 0) {
  3159     05F4  0874               	movf	btn_action_10ms@stable_now,w
  3160     05F5  1D03               	btfss	3,2
  3161     05F6  2DF8               	goto	u2451
  3162     05F7  2DF9               	goto	u2450
  3163     05F8                     u2451:
  3164     05F8  2E48               	goto	l2856
  3165     05F9                     u2450:
  3166     05F9                     l2844:
  3167                           
  3168                           ;main.c: 127:         b->hold_ms += 10;
  3169     05F9  0823               	movf	btn_action_10ms@b,w
  3170     05FA  3E03               	addlw	3
  3171     05FB  0086               	movwf	6
  3172     05FC  0187               	clrf	7
  3173     05FD  300A               	movlw	10
  3174     05FE  0781               	addwf	1,f
  3175     05FF  3141               	addfsr 1,1
  3176     0600  1803               	skipnc
  3177     0601  0A81               	incf	1,f
  3178                           
  3179                           ;main.c: 129:         if(b->hold_ms >= 350) {
  3180     0602  0823               	movf	btn_action_10ms@b,w
  3181     0603  3E03               	addlw	3
  3182     0604  0086               	movwf	6
  3183     0605  0187               	clrf	7
  3184     0606  3F40               	moviw [0]fsr1
  3185     0607  00F5               	movwf	??_btn_action_10ms
  3186     0608  3F41               	moviw [1]fsr1
  3187     0609  00F6               	movwf	??_btn_action_10ms+1
  3188     060A  3001               	movlw	1
  3189     060B  0276               	subwf	??_btn_action_10ms+1,w
  3190     060C  305E               	movlw	94
  3191     060D  1903               	skipnz
  3192     060E  0275               	subwf	??_btn_action_10ms,w
  3193     060F  1C03               	skipc
  3194     0610  2E12               	goto	u2461
  3195     0611  2E13               	goto	u2460
  3196     0612                     u2461:
  3197     0612  2E56               	goto	l2858
  3198     0613                     u2460:
  3199     0613                     l2846:
  3200                           
  3201                           ;main.c: 130:             b->rep_ms += 10;
  3202     0613  0823               	movf	btn_action_10ms@b,w
  3203     0614  3E05               	addlw	5
  3204     0615  0086               	movwf	6
  3205     0616  0187               	clrf	7
  3206     0617  300A               	movlw	10
  3207     0618  0781               	addwf	1,f
  3208     0619  3141               	addfsr 1,1
  3209     061A  1803               	skipnc
  3210     061B  0A81               	incf	1,f
  3211     061C                     l2848:
  3212                           
  3213                           ;main.c: 131:             uint16_t iv = accel_interval_ms(b->hold_ms);
  3214     061C  0823               	movf	btn_action_10ms@b,w
  3215     061D  3E03               	addlw	3
  3216     061E  0086               	movwf	6
  3217     061F  0187               	clrf	7
  3218     0620  3F40               	moviw [0]fsr1
  3219     0621  00F2               	movwf	accel_interval_ms@hold_ms
  3220     0622  3F41               	moviw [1]fsr1
  3221     0623  00F3               	movwf	accel_interval_ms@hold_ms+1
  3222     0624  318F  2762  3185   	fcall	_accel_interval_ms
  3223     0627  0873               	movf	?_accel_interval_ms+1,w
  3224     0628  0020               	movlb	0	; select bank0
  3225     0629  00A1               	movwf	btn_action_10ms@iv+1
  3226     062A  0872               	movf	?_accel_interval_ms,w
  3227     062B  00A0               	movwf	btn_action_10ms@iv
  3228     062C                     l2850:
  3229                           
  3230                           ;main.c: 132:             if(b->rep_ms >= iv) {
  3231     062C  0823               	movf	btn_action_10ms@b,w
  3232     062D  3E05               	addlw	5
  3233     062E  0086               	movwf	6
  3234     062F  0187               	clrf	7
  3235     0630  3F40               	moviw [0]fsr1
  3236     0631  00F5               	movwf	??_btn_action_10ms
  3237     0632  3F41               	moviw [1]fsr1
  3238     0633  00F6               	movwf	??_btn_action_10ms+1
  3239     0634  0821               	movf	btn_action_10ms@iv+1,w
  3240     0635  0276               	subwf	??_btn_action_10ms+1,w
  3241     0636  1D03               	skipz
  3242     0637  2E3A               	goto	u2475
  3243     0638  0820               	movf	btn_action_10ms@iv,w
  3244     0639  0275               	subwf	??_btn_action_10ms,w
  3245     063A                     u2475:
  3246     063A  1C03               	skipc
  3247     063B  2E3D               	goto	u2471
  3248     063C  2E3E               	goto	u2470
  3249     063D                     u2471:
  3250     063D  2E56               	goto	l2858
  3251     063E                     u2470:
  3252     063E                     l2852:
  3253                           
  3254                           ;main.c: 133:                 b->rep_ms = 0;
  3255     063E  0823               	movf	btn_action_10ms@b,w
  3256     063F  3E05               	addlw	5
  3257     0640  0086               	movwf	6
  3258     0641  0187               	clrf	7
  3259     0642  3000               	movlw	0
  3260     0643  3FC0               	movwi [0]fsr1
  3261     0644  3FC1               	movwi [1]fsr1
  3262     0645                     l2854:
  3263                           
  3264                           ;main.c: 134:                 fire = 1;
  3265     0645  01A2               	clrf	btn_action_10ms@fire
  3266     0646  0AA2               	incf	btn_action_10ms@fire,f
  3267     0647  2E56               	goto	l2858
  3268     0648                     l2856:
  3269                           
  3270                           ;main.c: 138:         b->hold_ms = 0;
  3271     0648  0823               	movf	btn_action_10ms@b,w
  3272     0649  3E03               	addlw	3
  3273     064A  0086               	movwf	6
  3274     064B  0187               	clrf	7
  3275     064C  3000               	movlw	0
  3276     064D  3FC0               	movwi [0]fsr1
  3277     064E  3FC1               	movwi [1]fsr1
  3278                           
  3279                           ;main.c: 139:         b->rep_ms = 0;
  3280     064F  0823               	movf	btn_action_10ms@b,w
  3281     0650  3E05               	addlw	5
  3282     0651  0086               	movwf	6
  3283     0652  0187               	clrf	7
  3284     0653  3000               	movlw	0
  3285     0654  3FC0               	movwi [0]fsr1
  3286     0655  3FC1               	movwi [1]fsr1
  3287     0656                     l2858:
  3288                           
  3289                           ;main.c: 142:     return fire;
  3290     0656  0822               	movf	btn_action_10ms@fire,w
  3291     0657                     l136:
  3292     0657  0008               	return
  3293     0658                     __end_of_btn_action_10ms:
  3294                           
  3295                           	psect	text11
  3296     0F62                     __ptext11:	
  3297 ;; *************** function _accel_interval_ms *****************
  3298 ;; Defined at:
  3299 ;;		line 103 in file "main.c"
  3300 ;; Parameters:    Size  Location     Type
  3301 ;;  hold_ms         2    2[COMMON] unsigned short 
  3302 ;; Auto vars:     Size  Location     Type
  3303 ;;		None
  3304 ;; Return value:  Size  Location     Type
  3305 ;;                  2    2[COMMON] unsigned short 
  3306 ;; Registers used:
  3307 ;;		wreg
  3308 ;; Tracked objects:
  3309 ;;		On entry : 0/0
  3310 ;;		On exit  : 0/0
  3311 ;;		Unchanged: 0/0
  3312 ;; Data sizes:     COMMON   BANK0   BANK1   BANK2   BANK3   BANK4   BANK5   BANK6   BANK7   BANK8   BANK9  BANK10  BANK1
      +1  BANK12  BANK13  BANK14  BANK15  BANK16  BANK17  BANK18  BANK19  BANK20  BANK21  BANK22  BANK23  BANK24  BANK25
  3313 ;;      Params:         2       0       0       0       0       0       0       0       0       0       0       0       
      +0       0       0       0       0       0       0       0       0       0       0       0       0       0       0
  3314 ;;      Locals:         0       0       0       0       0       0       0       0       0       0       0       0       
      +0       0       0       0       0       0       0       0       0       0       0       0       0       0       0
  3315 ;;      Temps:          0       0       0       0       0       0       0       0       0       0       0       0       
      +0       0       0       0       0       0       0       0       0       0       0       0       0       0       0
  3316 ;;      Totals:         2       0       0       0       0       0       0       0       0       0       0       0       
      +0       0       0       0       0       0       0       0       0       0       0       0       0       0       0
  3317 ;;Total ram usage:        2 bytes
  3318 ;; Hardware stack levels used: 1
  3319 ;; Hardware stack levels required when called: 2
  3320 ;; This function calls:
  3321 ;;		Nothing
  3322 ;; This function is called by:
  3323 ;;		_btn_action_10ms
  3324 ;; This function uses a non-reentrant model
  3325 ;;
  3326                           
  3327     0F62                     _accel_interval_ms:	
  3328                           ;psect for function _accel_interval_ms
  3329                           
  3330     0F62                     l2646:	
  3331                           ;incstack = 0
  3332                           ; Regs used in _accel_interval_ms: [wreg]
  3333                           
  3334                           
  3335                           ;main.c: 103: static uint16_t accel_interval_ms(uint16_t hold_ms);main.c: 104: {;main.c:
      +                           105:     if(hold_ms < 600) return 200;
  3336     0F62  3002               	movlw	2
  3337     0F63  0273               	subwf	accel_interval_ms@hold_ms+1,w
  3338     0F64  3058               	movlw	88
  3339     0F65  1903               	skipnz
  3340     0F66  0272               	subwf	accel_interval_ms@hold_ms,w
  3341     0F67  1803               	skipnc
  3342     0F68  2F6A               	goto	u2161
  3343     0F69  2F6B               	goto	u2160
  3344     0F6A                     u2161:
  3345     0F6A  2F70               	goto	l2652
  3346     0F6B                     u2160:
  3347     0F6B                     l2648:
  3348     0F6B  30C8               	movlw	200
  3349     0F6C  00F2               	movwf	?_accel_interval_ms
  3350     0F6D  3000               	movlw	0
  3351     0F6E  00F3               	movwf	?_accel_interval_ms+1
  3352     0F6F  2F90               	goto	l124
  3353     0F70                     l2652:
  3354                           
  3355                           ;main.c: 106:     if(hold_ms < 1200) return 120;
  3356     0F70  3004               	movlw	4
  3357     0F71  0273               	subwf	accel_interval_ms@hold_ms+1,w
  3358     0F72  30B0               	movlw	176
  3359     0F73  1903               	skipnz
  3360     0F74  0272               	subwf	accel_interval_ms@hold_ms,w
  3361     0F75  1803               	skipnc
  3362     0F76  2F78               	goto	u2171
  3363     0F77  2F79               	goto	u2170
  3364     0F78                     u2171:
  3365     0F78  2F7E               	goto	l2658
  3366     0F79                     u2170:
  3367     0F79                     l2654:
  3368     0F79  3078               	movlw	120
  3369     0F7A  00F2               	movwf	?_accel_interval_ms
  3370     0F7B  3000               	movlw	0
  3371     0F7C  00F3               	movwf	?_accel_interval_ms+1
  3372     0F7D  2F90               	goto	l124
  3373     0F7E                     l2658:
  3374                           
  3375                           ;main.c: 107:     if(hold_ms < 2500) return 70;
  3376     0F7E  3009               	movlw	9
  3377     0F7F  0273               	subwf	accel_interval_ms@hold_ms+1,w
  3378     0F80  30C4               	movlw	196
  3379     0F81  1903               	skipnz
  3380     0F82  0272               	subwf	accel_interval_ms@hold_ms,w
  3381     0F83  1803               	skipnc
  3382     0F84  2F86               	goto	u2181
  3383     0F85  2F87               	goto	u2180
  3384     0F86                     u2181:
  3385     0F86  2F8C               	goto	l2664
  3386     0F87                     u2180:
  3387     0F87                     l2660:
  3388     0F87  3046               	movlw	70
  3389     0F88  00F2               	movwf	?_accel_interval_ms
  3390     0F89  3000               	movlw	0
  3391     0F8A  00F3               	movwf	?_accel_interval_ms+1
  3392     0F8B  2F90               	goto	l124
  3393     0F8C                     l2664:
  3394                           
  3395                           ;main.c: 108:     return 40;
  3396     0F8C  3028               	movlw	40
  3397     0F8D  00F2               	movwf	?_accel_interval_ms
  3398     0F8E  3000               	movlw	0
  3399     0F8F  00F3               	movwf	?_accel_interval_ms+1
  3400     0F90                     l124:
  3401     0F90  0008               	return
  3402     0F91                     __end_of_accel_interval_ms:
  3403                           
  3404                           	psect	text12
  3405     0658                     __ptext12:	
  3406 ;; *************** function _Beep_Tick10ms *****************
  3407 ;; Defined at:
  3408 ;;		line 194 in file "main.c"
  3409 ;; Parameters:    Size  Location     Type
  3410 ;;  cs_remaining    4   38[BANK0 ] unsigned long 
  3411 ;; Auto vars:     Size  Location     Type
  3412 ;;		None
  3413 ;; Return value:  Size  Location     Type
  3414 ;;                  1    wreg      void 
  3415 ;; Registers used:
  3416 ;;		wreg, fsr1l, fsr1h, status,2, status,0, pclath, cstack
  3417 ;; Tracked objects:
  3418 ;;		On entry : 0/0
  3419 ;;		On exit  : 0/0
  3420 ;;		Unchanged: 0/0
  3421 ;; Data sizes:     COMMON   BANK0   BANK1   BANK2   BANK3   BANK4   BANK5   BANK6   BANK7   BANK8   BANK9  BANK10  BANK1
      +1  BANK12  BANK13  BANK14  BANK15  BANK16  BANK17  BANK18  BANK19  BANK20  BANK21  BANK22  BANK23  BANK24  BANK25
  3422 ;;      Params:         0       4       0       0       0       0       0       0       0       0       0       0       
      +0       0       0       0       0       0       0       0       0       0       0       0       0       0       0
  3423 ;;      Locals:         0       0       0       0       0       0       0       0       0       0       0       0       
      +0       0       0       0       0       0       0       0       0       0       0       0       0       0       0
  3424 ;;      Temps:          0       0       0       0       0       0       0       0       0       0       0       0       
      +0       0       0       0       0       0       0       0       0       0       0       0       0       0       0
  3425 ;;      Totals:         0       4       0       0       0       0       0       0       0       0       0       0       
      +0       0       0       0       0       0       0       0       0       0       0       0       0       0       0
  3426 ;;Total ram usage:        4 bytes
  3427 ;; Hardware stack levels used: 1
  3428 ;; Hardware stack levels required when called: 4
  3429 ;; This function calls:
  3430 ;;		_Beep_Reset
  3431 ;;		_Buzzer_Set
  3432 ;;		_Buzzer_Stop
  3433 ;;		_movie_interval_ms
  3434 ;;		_movie_params
  3435 ;; This function is called by:
  3436 ;;		_main
  3437 ;; This function uses a non-reentrant model
  3438 ;;
  3439                           
  3440     0658                     _Beep_Tick10ms:	
  3441                           ;psect for function _Beep_Tick10ms
  3442                           
  3443     0658                     l2862:	
  3444                           ;incstack = 0
  3445                           ; Regs used in _Beep_Tick10ms: [wreg+fsr1l+fsr1h+status,2+status,0+pclath+cstack]
  3446                           
  3447                           
  3448                           ;main.c: 194: static void Beep_Tick10ms(uint32_t cs_remaining);main.c: 195: {;main.c: 19
      +                          6:     if(!beep.enabled || cs_remaining == 0) {
  3449     0658  0021               	movlb	1	; select bank1
  3450     0659  0820               	movf	_beep^(0+128),w
  3451     065A  1903               	btfsc	3,2
  3452     065B  2E5D               	goto	u2481
  3453     065C  2E5E               	goto	u2480
  3454     065D                     u2481:
  3455     065D  2E67               	goto	l2866
  3456     065E                     u2480:
  3457     065E                     l2864:
  3458     065E  0020               	movlb	0	; select bank0
  3459     065F  0849               	movf	Beep_Tick10ms@cs_remaining+3,w
  3460     0660  0448               	iorwf	Beep_Tick10ms@cs_remaining+2,w
  3461     0661  0447               	iorwf	Beep_Tick10ms@cs_remaining+1,w
  3462     0662  0446               	iorwf	Beep_Tick10ms@cs_remaining,w
  3463     0663  1D03               	skipz
  3464     0664  2E66               	goto	u2491
  3465     0665  2E67               	goto	u2490
  3466     0666                     u2491:
  3467     0666  2E6B               	goto	l2870
  3468     0667                     u2490:
  3469     0667                     l2866:
  3470                           
  3471                           ;main.c: 197:         Beep_Reset();
  3472     0667  318E  26EE  3186   	fcall	_Beep_Reset
  3473     066A  2ED4               	goto	l164
  3474     066B                     l2870:
  3475                           
  3476                           ;main.c: 201:     beep.interval_ms = movie_interval_ms(cs_remaining);
  3477     066B  0849               	movf	Beep_Tick10ms@cs_remaining+3,w
  3478     066C  00B5               	movwf	movie_interval_ms@cs_remaining+3
  3479     066D  0848               	movf	Beep_Tick10ms@cs_remaining+2,w
  3480     066E  00B4               	movwf	movie_interval_ms@cs_remaining+2
  3481     066F  0847               	movf	Beep_Tick10ms@cs_remaining+1,w
  3482     0670  00B3               	movwf	movie_interval_ms@cs_remaining+1
  3483     0671  0846               	movf	Beep_Tick10ms@cs_remaining,w
  3484     0672  00B2               	movwf	movie_interval_ms@cs_remaining
  3485     0673  3185  252F  3186   	fcall	_movie_interval_ms
  3486     0676  0020               	movlb	0	; select bank0
  3487     0677  0833               	movf	?_movie_interval_ms+1,w
  3488     0678  0021               	movlb	1	; select bank1
  3489     0679  00A6               	movwf	((_beep+1)^(0+128)+5)
  3490     067A  0020               	movlb	0	; select bank0
  3491     067B  0832               	movf	?_movie_interval_ms,w
  3492     067C  0021               	movlb	1	; select bank1
  3493     067D  00A5               	movwf	(_beep^(0+128)+5)
  3494     067E                     l2872:
  3495                           
  3496                           ;main.c: 202:     movie_params(cs_remaining, &beep.freq, &beep.vol, &beep.on_ms);
  3497     067E  0020               	movlb	0	; select bank0
  3498     067F  0849               	movf	Beep_Tick10ms@cs_remaining+3,w
  3499     0680  00B5               	movwf	movie_params@cs_remaining+3
  3500     0681  0848               	movf	Beep_Tick10ms@cs_remaining+2,w
  3501     0682  00B4               	movwf	movie_params@cs_remaining+2
  3502     0683  0847               	movf	Beep_Tick10ms@cs_remaining+1,w
  3503     0684  00B3               	movwf	movie_params@cs_remaining+1
  3504     0685  0846               	movf	Beep_Tick10ms@cs_remaining,w
  3505     0686  00B2               	movwf	movie_params@cs_remaining
  3506     0687  30AA               	movlw	(low ((_beep| 0+10)))& (0+255)
  3507     0688  00B6               	movwf	movie_params@freq
  3508     0689  30AE               	movlw	(low ((_beep| 0+14)))& (0+255)
  3509     068A  00B7               	movwf	movie_params@vol
  3510     068B  30A7               	movlw	(low ((_beep| 0+7)))& (0+255)
  3511     068C  00B8               	movwf	movie_params@on_ms
  3512     068D  3183  2372  3186   	fcall	_movie_params
  3513     0690                     l2874:
  3514                           
  3515                           ;main.c: 204:     if(beep.on) {
  3516     0690  0021               	movlb	1	; select bank1
  3517     0691  0829               	movf	(_beep^(0+128)+9),w
  3518     0692  1903               	btfsc	3,2
  3519     0693  2E95               	goto	u2501
  3520     0694  2E96               	goto	u2500
  3521     0695                     u2501:
  3522     0695  2EAA               	goto	l2882
  3523     0696                     u2500:
  3524     0696                     l2876:
  3525                           
  3526                           ;main.c: 205:         beep.on_accum_ms += 10;
  3527     0696  300A               	movlw	10
  3528     0697  07A3               	addwf	(_beep^(0+128)+3),f
  3529     0698  3000               	movlw	0
  3530     0699  3DA4               	addwfc	((_beep+1)^(0+128)+3),f
  3531                           
  3532                           ;main.c: 206:         if(beep.on_accum_ms >= beep.on_ms) {
  3533     069A  0828               	movf	((_beep+1)^(0+128)+7),w
  3534     069B  0224               	subwf	((_beep+1)^(0+128)+3),w
  3535     069C  1D03               	skipz
  3536     069D  2EA0               	goto	u2515
  3537     069E  0827               	movf	(_beep^(0+128)+7),w
  3538     069F  0223               	subwf	(_beep^(0+128)+3),w
  3539     06A0                     u2515:
  3540     06A0  1C03               	skipc
  3541     06A1  2EA3               	goto	u2511
  3542     06A2  2EA4               	goto	u2510
  3543     06A3                     u2511:
  3544     06A3  2EAA               	goto	l2882
  3545     06A4                     u2510:
  3546     06A4                     l2878:
  3547                           
  3548                           ;main.c: 207:             beep.on = 0;
  3549     06A4  01A9               	clrf	(_beep^(0+128)+9)
  3550                           
  3551                           ;main.c: 208:             beep.on_accum_ms = 0;
  3552     06A5  01A3               	clrf	(_beep^(0+128)+3)
  3553     06A6  01A4               	clrf	((_beep+1)^(0+128)+3)
  3554     06A7                     l2880:
  3555                           
  3556                           ;main.c: 209:             Buzzer_Stop();
  3557     06A7  318E  26E0  3186   	fcall	_Buzzer_Stop
  3558     06AA                     l2882:
  3559                           
  3560                           ;main.c: 213:     beep.accum_ms += 10;
  3561     06AA  300A               	movlw	10
  3562     06AB  0021               	movlb	1	; select bank1
  3563     06AC  07A1               	addwf	(_beep^(0+128)+1),f
  3564     06AD  3000               	movlw	0
  3565     06AE  3DA2               	addwfc	((_beep+1)^(0+128)+1),f
  3566     06AF                     l2884:
  3567                           
  3568                           ;main.c: 214:     if(beep.accum_ms >= beep.interval_ms) {
  3569     06AF  0826               	movf	((_beep+1)^(0+128)+5),w
  3570     06B0  0222               	subwf	((_beep+1)^(0+128)+1),w
  3571     06B1  1D03               	skipz
  3572     06B2  2EB5               	goto	u2525
  3573     06B3  0825               	movf	(_beep^(0+128)+5),w
  3574     06B4  0221               	subwf	(_beep^(0+128)+1),w
  3575     06B5                     u2525:
  3576     06B5  1C03               	skipc
  3577     06B6  2EB8               	goto	u2521
  3578     06B7  2EB9               	goto	u2520
  3579     06B8                     u2521:
  3580     06B8  2ED4               	goto	l164
  3581     06B9                     u2520:
  3582     06B9                     l2886:
  3583                           
  3584                           ;main.c: 215:         beep.accum_ms = 0;
  3585     06B9  01A1               	clrf	(_beep^(0+128)+1)
  3586     06BA  01A2               	clrf	((_beep+1)^(0+128)+1)
  3587     06BB                     l2888:
  3588                           
  3589                           ;main.c: 216:         Buzzer_Set(beep.freq, beep.vol);
  3590     06BB  300A               	movlw	10
  3591     06BC  3EA0               	addlw	(low (_beep| 0))& (0+255)
  3592     06BD  0086               	movwf	6
  3593     06BE  0187               	clrf	7
  3594     06BF  3F40               	moviw [0]fsr1
  3595     06C0  0020               	movlb	0	; select bank0
  3596     06C1  00B2               	movwf	Buzzer_Set@frequency_hz
  3597     06C2  3F41               	moviw [1]fsr1
  3598     06C3  00B3               	movwf	Buzzer_Set@frequency_hz+1
  3599     06C4  3F42               	moviw [2]fsr1
  3600     06C5  00B4               	movwf	Buzzer_Set@frequency_hz+2
  3601     06C6  3F43               	moviw [3]fsr1
  3602     06C7  00B5               	movwf	Buzzer_Set@frequency_hz+3
  3603     06C8  0021               	movlb	1	; select bank1
  3604     06C9  082E               	movf	(_beep^(0+128)+14),w
  3605     06CA  0020               	movlb	0	; select bank0
  3606     06CB  00B6               	movwf	Buzzer_Set@volume_pct
  3607     06CC  3180  2060  3186   	fcall	_Buzzer_Set
  3608     06CF                     l2890:
  3609                           
  3610                           ;main.c: 217:         beep.on = 1;
  3611     06CF  0021               	movlb	1	; select bank1
  3612     06D0  01A9               	clrf	(_beep^(0+128)+9)
  3613     06D1  0AA9               	incf	(_beep^(0+128)+9),f
  3614     06D2                     l2892:
  3615                           
  3616                           ;main.c: 218:         beep.on_accum_ms = 0;
  3617     06D2  01A3               	clrf	(_beep^(0+128)+3)
  3618     06D3  01A4               	clrf	((_beep+1)^(0+128)+3)
  3619     06D4                     l164:
  3620     06D4  0008               	return
  3621     06D5                     __end_of_Beep_Tick10ms:
  3622                           
  3623                           	psect	text13
  3624     0372                     __ptext13:	
  3625 ;; *************** function _movie_params *****************
  3626 ;; Defined at:
  3627 ;;		line 173 in file "main.c"
  3628 ;; Parameters:    Size  Location     Type
  3629 ;;  cs_remaining    4   18[BANK0 ] unsigned long 
  3630 ;;  freq            1   22[BANK0 ] PTR unsigned long 
  3631 ;;		 -> beep(15), 
  3632 ;;  vol             1   23[BANK0 ] PTR unsigned char 
  3633 ;;		 -> beep(15), 
  3634 ;;  on_ms           1   24[BANK0 ] PTR unsigned short 
  3635 ;;		 -> beep(15), 
  3636 ;; Auto vars:     Size  Location     Type
  3637 ;;  s               4   25[BANK0 ] unsigned long 
  3638 ;; Return value:  Size  Location     Type
  3639 ;;                  1    wreg      void 
  3640 ;; Registers used:
  3641 ;;		wreg, fsr1l, fsr1h, status,2, status,0, pclath, cstack
  3642 ;; Tracked objects:
  3643 ;;		On entry : 0/0
  3644 ;;		On exit  : 0/0
  3645 ;;		Unchanged: 0/0
  3646 ;; Data sizes:     COMMON   BANK0   BANK1   BANK2   BANK3   BANK4   BANK5   BANK6   BANK7   BANK8   BANK9  BANK10  BANK1
      +1  BANK12  BANK13  BANK14  BANK15  BANK16  BANK17  BANK18  BANK19  BANK20  BANK21  BANK22  BANK23  BANK24  BANK25
  3647 ;;      Params:         0       7       0       0       0       0       0       0       0       0       0       0       
      +0       0       0       0       0       0       0       0       0       0       0       0       0       0       0
  3648 ;;      Locals:         0       4       0       0       0       0       0       0       0       0       0       0       
      +0       0       0       0       0       0       0       0       0       0       0       0       0       0       0
  3649 ;;      Temps:          0       0       0       0       0       0       0       0       0       0       0       0       
      +0       0       0       0       0       0       0       0       0       0       0       0       0       0       0
  3650 ;;      Totals:         0      11       0       0       0       0       0       0       0       0       0       0       
      +0       0       0       0       0       0       0       0       0       0       0       0       0       0       0
  3651 ;;Total ram usage:       11 bytes
  3652 ;; Hardware stack levels used: 1
  3653 ;; Hardware stack levels required when called: 3
  3654 ;; This function calls:
  3655 ;;		___lldiv
  3656 ;; This function is called by:
  3657 ;;		_Beep_Tick10ms
  3658 ;; This function uses a non-reentrant model
  3659 ;;
  3660                           
  3661     0372                     _movie_params:	
  3662                           ;psect for function _movie_params
  3663                           
  3664     0372                     l2710:	
  3665                           ;incstack = 0
  3666                           ; Regs used in _movie_params: [wreg+fsr1l+fsr1h+status,2+status,0+pclath+cstack]
  3667                           
  3668                           
  3669                           ;main.c: 173: static void movie_params(uint32_t cs_remaining, uint32_t *freq, uint8_t *v
      +                          ol, uint16_t *on_ms);main.c: 174: {;main.c: 175:     uint32_t s = cs_remaining / 100;
  3670     0372  3000               	movlw	0
  3671     0373  0020               	movlb	0	; select bank0
  3672     0374  00A7               	movwf	___lldiv@divisor+3
  3673     0375  3000               	movlw	0
  3674     0376  00A6               	movwf	___lldiv@divisor+2
  3675     0377  3000               	movlw	0
  3676     0378  00A5               	movwf	___lldiv@divisor+1
  3677     0379  3064               	movlw	100
  3678     037A  00A4               	movwf	___lldiv@divisor
  3679     037B  0835               	movf	movie_params@cs_remaining+3,w
  3680     037C  00AB               	movwf	___lldiv@dividend+3
  3681     037D  0834               	movf	movie_params@cs_remaining+2,w
  3682     037E  00AA               	movwf	___lldiv@dividend+2
  3683     037F  0833               	movf	movie_params@cs_remaining+1,w
  3684     0380  00A9               	movwf	___lldiv@dividend+1
  3685     0381  0832               	movf	movie_params@cs_remaining,w
  3686     0382  00A8               	movwf	___lldiv@dividend
  3687     0383  3186  26D5  3183   	fcall	___lldiv
  3688     0386  0020               	movlb	0	; select bank0
  3689     0387  0827               	movf	?___lldiv+3,w
  3690     0388  00BC               	movwf	movie_params@s+3
  3691     0389  0826               	movf	?___lldiv+2,w
  3692     038A  00BB               	movwf	movie_params@s+2
  3693     038B  0825               	movf	?___lldiv+1,w
  3694     038C  00BA               	movwf	movie_params@s+1
  3695     038D  0824               	movf	?___lldiv,w
  3696     038E  00B9               	movwf	movie_params@s
  3697     038F                     l2712:
  3698                           
  3699                           ;main.c: 177:     if(s >= 30) { *freq = 2100; *vol = 50; *on_ms = 35; return; }
  3700     038F  083C               	movf	movie_params@s+3,w
  3701     0390  1D03               	btfss	3,2
  3702     0391  2B9E               	goto	u2250
  3703     0392  083B               	movf	movie_params@s+2,w
  3704     0393  1D03               	btfss	3,2
  3705     0394  2B9E               	goto	u2250
  3706     0395  083A               	movf	movie_params@s+1,w
  3707     0396  1D03               	btfss	3,2
  3708     0397  2B9E               	goto	u2250
  3709     0398  301E               	movlw	30
  3710     0399  0239               	subwf	movie_params@s,w
  3711     039A  1C03               	btfss	3,0
  3712     039B  2B9D               	goto	u2251
  3713     039C  2B9E               	goto	u2250
  3714     039D                     u2251:
  3715     039D  2BB7               	goto	l2722
  3716     039E                     u2250:
  3717     039E                     l2714:
  3718     039E  0020               	movlb	0	; select bank0
  3719     039F  0836               	movf	movie_params@freq,w
  3720     03A0  0086               	movwf	6
  3721     03A1  0187               	clrf	7
  3722     03A2  3034               	movlw	52
  3723     03A3  3FC0               	movwi [0]fsr1
  3724     03A4  3008               	movlw	8
  3725     03A5  3FC1               	movwi [1]fsr1
  3726     03A6  3000               	movlw	0
  3727     03A7  3FC2               	movwi [2]fsr1
  3728     03A8  3000               	movlw	0
  3729     03A9  3FC3               	movwi [3]fsr1
  3730     03AA                     l2716:
  3731     03AA  0837               	movf	movie_params@vol,w
  3732     03AB  0086               	movwf	6
  3733     03AC  0187               	clrf	7
  3734     03AD  3032               	movlw	50
  3735     03AE  0081               	movwf	1
  3736     03AF                     l2718:
  3737     03AF  0838               	movf	movie_params@on_ms,w
  3738     03B0  0086               	movwf	6
  3739     03B1  0187               	clrf	7
  3740     03B2  3023               	movlw	35
  3741     03B3  3FC0               	movwi [0]fsr1
  3742     03B4  3000               	movlw	0
  3743     03B5  3FC1               	movwi [1]fsr1
  3744     03B6  2C6C               	goto	l151
  3745     03B7                     l2722:
  3746                           
  3747                           ;main.c: 178:     if(s >= 15) { *freq = 2300; *vol = 60; *on_ms = 35; return; }
  3748     03B7  0020               	movlb	0	; select bank0
  3749     03B8  083C               	movf	movie_params@s+3,w
  3750     03B9  1D03               	btfss	3,2
  3751     03BA  2BC7               	goto	u2260
  3752     03BB  083B               	movf	movie_params@s+2,w
  3753     03BC  1D03               	btfss	3,2
  3754     03BD  2BC7               	goto	u2260
  3755     03BE  083A               	movf	movie_params@s+1,w
  3756     03BF  1D03               	btfss	3,2
  3757     03C0  2BC7               	goto	u2260
  3758     03C1  300F               	movlw	15
  3759     03C2  0239               	subwf	movie_params@s,w
  3760     03C3  1C03               	btfss	3,0
  3761     03C4  2BC6               	goto	u2261
  3762     03C5  2BC7               	goto	u2260
  3763     03C6                     u2261:
  3764     03C6  2BD9               	goto	l2732
  3765     03C7                     u2260:
  3766     03C7                     l2724:
  3767     03C7  0020               	movlb	0	; select bank0
  3768     03C8  0836               	movf	movie_params@freq,w
  3769     03C9  0086               	movwf	6
  3770     03CA  0187               	clrf	7
  3771     03CB  30FC               	movlw	252
  3772     03CC  3FC0               	movwi [0]fsr1
  3773     03CD  3008               	movlw	8
  3774     03CE  3FC1               	movwi [1]fsr1
  3775     03CF  3000               	movlw	0
  3776     03D0  3FC2               	movwi [2]fsr1
  3777     03D1  3000               	movlw	0
  3778     03D2  3FC3               	movwi [3]fsr1
  3779     03D3                     l2726:
  3780     03D3  0837               	movf	movie_params@vol,w
  3781     03D4  0086               	movwf	6
  3782     03D5  0187               	clrf	7
  3783     03D6  303C               	movlw	60
  3784     03D7  0081               	movwf	1
  3785     03D8  2BAF               	goto	l2718
  3786     03D9                     l2732:
  3787                           
  3788                           ;main.c: 179:     if(s >= 8) { *freq = 2500; *vol = 72; *on_ms = 38; return; }
  3789     03D9  0020               	movlb	0	; select bank0
  3790     03DA  083C               	movf	movie_params@s+3,w
  3791     03DB  1D03               	btfss	3,2
  3792     03DC  2BE9               	goto	u2270
  3793     03DD  083B               	movf	movie_params@s+2,w
  3794     03DE  1D03               	btfss	3,2
  3795     03DF  2BE9               	goto	u2270
  3796     03E0  083A               	movf	movie_params@s+1,w
  3797     03E1  1D03               	btfss	3,2
  3798     03E2  2BE9               	goto	u2270
  3799     03E3  3008               	movlw	8
  3800     03E4  0239               	subwf	movie_params@s,w
  3801     03E5  1C03               	btfss	3,0
  3802     03E6  2BE8               	goto	u2271
  3803     03E7  2BE9               	goto	u2270
  3804     03E8                     u2271:
  3805     03E8  2C02               	goto	l2742
  3806     03E9                     u2270:
  3807     03E9                     l2734:
  3808     03E9  0020               	movlb	0	; select bank0
  3809     03EA  0836               	movf	movie_params@freq,w
  3810     03EB  0086               	movwf	6
  3811     03EC  0187               	clrf	7
  3812     03ED  30C4               	movlw	196
  3813     03EE  3FC0               	movwi [0]fsr1
  3814     03EF  3009               	movlw	9
  3815     03F0  3FC1               	movwi [1]fsr1
  3816     03F1  3000               	movlw	0
  3817     03F2  3FC2               	movwi [2]fsr1
  3818     03F3  3000               	movlw	0
  3819     03F4  3FC3               	movwi [3]fsr1
  3820     03F5                     l2736:
  3821     03F5  0837               	movf	movie_params@vol,w
  3822     03F6  0086               	movwf	6
  3823     03F7  0187               	clrf	7
  3824     03F8  3048               	movlw	72
  3825     03F9  0081               	movwf	1
  3826     03FA                     l2738:
  3827     03FA  0838               	movf	movie_params@on_ms,w
  3828     03FB  0086               	movwf	6
  3829     03FC  0187               	clrf	7
  3830     03FD  3026               	movlw	38
  3831     03FE  3FC0               	movwi [0]fsr1
  3832     03FF  3000               	movlw	0
  3833     0400  3FC1               	movwi [1]fsr1
  3834     0401  2C6C               	goto	l151
  3835     0402                     l2742:
  3836                           
  3837                           ;main.c: 180:     if(s >= 4) { *freq = 2900; *vol = 85; *on_ms = 42; return; }
  3838     0402  0020               	movlb	0	; select bank0
  3839     0403  083C               	movf	movie_params@s+3,w
  3840     0404  1D03               	btfss	3,2
  3841     0405  2C12               	goto	u2280
  3842     0406  083B               	movf	movie_params@s+2,w
  3843     0407  1D03               	btfss	3,2
  3844     0408  2C12               	goto	u2280
  3845     0409  083A               	movf	movie_params@s+1,w
  3846     040A  1D03               	btfss	3,2
  3847     040B  2C12               	goto	u2280
  3848     040C  3004               	movlw	4
  3849     040D  0239               	subwf	movie_params@s,w
  3850     040E  1C03               	btfss	3,0
  3851     040F  2C11               	goto	u2281
  3852     0410  2C12               	goto	u2280
  3853     0411                     u2281:
  3854     0411  2C2B               	goto	l2752
  3855     0412                     u2280:
  3856     0412                     l2744:
  3857     0412  0020               	movlb	0	; select bank0
  3858     0413  0836               	movf	movie_params@freq,w
  3859     0414  0086               	movwf	6
  3860     0415  0187               	clrf	7
  3861     0416  3054               	movlw	84
  3862     0417  3FC0               	movwi [0]fsr1
  3863     0418  300B               	movlw	11
  3864     0419  3FC1               	movwi [1]fsr1
  3865     041A  3000               	movlw	0
  3866     041B  3FC2               	movwi [2]fsr1
  3867     041C  3000               	movlw	0
  3868     041D  3FC3               	movwi [3]fsr1
  3869     041E                     l2746:
  3870     041E  0837               	movf	movie_params@vol,w
  3871     041F  0086               	movwf	6
  3872     0420  0187               	clrf	7
  3873     0421  3055               	movlw	85
  3874     0422  0081               	movwf	1
  3875     0423                     l2748:
  3876     0423  0838               	movf	movie_params@on_ms,w
  3877     0424  0086               	movwf	6
  3878     0425  0187               	clrf	7
  3879     0426  302A               	movlw	42
  3880     0427  3FC0               	movwi [0]fsr1
  3881     0428  3000               	movlw	0
  3882     0429  3FC1               	movwi [1]fsr1
  3883     042A  2C6C               	goto	l151
  3884     042B                     l2752:
  3885                           
  3886                           ;main.c: 181:     if(s >= 2) { *freq = 3300; *vol = 95; *on_ms = 48; return; }
  3887     042B  0020               	movlb	0	; select bank0
  3888     042C  083C               	movf	movie_params@s+3,w
  3889     042D  1D03               	btfss	3,2
  3890     042E  2C3B               	goto	u2290
  3891     042F  083B               	movf	movie_params@s+2,w
  3892     0430  1D03               	btfss	3,2
  3893     0431  2C3B               	goto	u2290
  3894     0432  083A               	movf	movie_params@s+1,w
  3895     0433  1D03               	btfss	3,2
  3896     0434  2C3B               	goto	u2290
  3897     0435  3002               	movlw	2
  3898     0436  0239               	subwf	movie_params@s,w
  3899     0437  1C03               	btfss	3,0
  3900     0438  2C3A               	goto	u2291
  3901     0439  2C3B               	goto	u2290
  3902     043A                     u2291:
  3903     043A  2C54               	goto	l2762
  3904     043B                     u2290:
  3905     043B                     l2754:
  3906     043B  0020               	movlb	0	; select bank0
  3907     043C  0836               	movf	movie_params@freq,w
  3908     043D  0086               	movwf	6
  3909     043E  0187               	clrf	7
  3910     043F  30E4               	movlw	228
  3911     0440  3FC0               	movwi [0]fsr1
  3912     0441  300C               	movlw	12
  3913     0442  3FC1               	movwi [1]fsr1
  3914     0443  3000               	movlw	0
  3915     0444  3FC2               	movwi [2]fsr1
  3916     0445  3000               	movlw	0
  3917     0446  3FC3               	movwi [3]fsr1
  3918     0447                     l2756:
  3919     0447  0837               	movf	movie_params@vol,w
  3920     0448  0086               	movwf	6
  3921     0449  0187               	clrf	7
  3922     044A  305F               	movlw	95
  3923     044B  0081               	movwf	1
  3924     044C                     l2758:
  3925     044C  0838               	movf	movie_params@on_ms,w
  3926     044D  0086               	movwf	6
  3927     044E  0187               	clrf	7
  3928     044F  3030               	movlw	48
  3929     0450  3FC0               	movwi [0]fsr1
  3930     0451  3000               	movlw	0
  3931     0452  3FC1               	movwi [1]fsr1
  3932     0453  2C6C               	goto	l151
  3933     0454                     l2762:
  3934                           
  3935                           ;main.c: 182:     *freq = 3800; *vol = 100; *on_ms = 55;
  3936     0454  0020               	movlb	0	; select bank0
  3937     0455  0836               	movf	movie_params@freq,w
  3938     0456  0086               	movwf	6
  3939     0457  0187               	clrf	7
  3940     0458  30D8               	movlw	216
  3941     0459  3FC0               	movwi [0]fsr1
  3942     045A  300E               	movlw	14
  3943     045B  3FC1               	movwi [1]fsr1
  3944     045C  3000               	movlw	0
  3945     045D  3FC2               	movwi [2]fsr1
  3946     045E  3000               	movlw	0
  3947     045F  3FC3               	movwi [3]fsr1
  3948     0460                     l2764:
  3949     0460  0837               	movf	movie_params@vol,w
  3950     0461  0086               	movwf	6
  3951     0462  0187               	clrf	7
  3952     0463  3064               	movlw	100
  3953     0464  0081               	movwf	1
  3954     0465                     l2766:
  3955     0465  0838               	movf	movie_params@on_ms,w
  3956     0466  0086               	movwf	6
  3957     0467  0187               	clrf	7
  3958     0468  3037               	movlw	55
  3959     0469  3FC0               	movwi [0]fsr1
  3960     046A  3000               	movlw	0
  3961     046B  3FC1               	movwi [1]fsr1
  3962     046C                     l151:
  3963     046C  0008               	return
  3964     046D                     __end_of_movie_params:
  3965                           
  3966                           	psect	text14
  3967     052F                     __ptext14:	
  3968 ;; *************** function _movie_interval_ms *****************
  3969 ;; Defined at:
  3970 ;;		line 161 in file "main.c"
  3971 ;; Parameters:    Size  Location     Type
  3972 ;;  cs_remaining    4   18[BANK0 ] unsigned long 
  3973 ;; Auto vars:     Size  Location     Type
  3974 ;;  s               4   22[BANK0 ] unsigned long 
  3975 ;; Return value:  Size  Location     Type
  3976 ;;                  2   18[BANK0 ] unsigned short 
  3977 ;; Registers used:
  3978 ;;		wreg, status,2, status,0, pclath, cstack
  3979 ;; Tracked objects:
  3980 ;;		On entry : 0/0
  3981 ;;		On exit  : 0/0
  3982 ;;		Unchanged: 0/0
  3983 ;; Data sizes:     COMMON   BANK0   BANK1   BANK2   BANK3   BANK4   BANK5   BANK6   BANK7   BANK8   BANK9  BANK10  BANK1
      +1  BANK12  BANK13  BANK14  BANK15  BANK16  BANK17  BANK18  BANK19  BANK20  BANK21  BANK22  BANK23  BANK24  BANK25
  3984 ;;      Params:         0       4       0       0       0       0       0       0       0       0       0       0       
      +0       0       0       0       0       0       0       0       0       0       0       0       0       0       0
  3985 ;;      Locals:         0       4       0       0       0       0       0       0       0       0       0       0       
      +0       0       0       0       0       0       0       0       0       0       0       0       0       0       0
  3986 ;;      Temps:          0       0       0       0       0       0       0       0       0       0       0       0       
      +0       0       0       0       0       0       0       0       0       0       0       0       0       0       0
  3987 ;;      Totals:         0       8       0       0       0       0       0       0       0       0       0       0       
      +0       0       0       0       0       0       0       0       0       0       0       0       0       0       0
  3988 ;;Total ram usage:        8 bytes
  3989 ;; Hardware stack levels used: 1
  3990 ;; Hardware stack levels required when called: 3
  3991 ;; This function calls:
  3992 ;;		___lldiv
  3993 ;; This function is called by:
  3994 ;;		_Beep_Tick10ms
  3995 ;; This function uses a non-reentrant model
  3996 ;;
  3997                           
  3998     052F                     _movie_interval_ms:	
  3999                           ;psect for function _movie_interval_ms
  4000                           
  4001     052F                     l2668:	
  4002                           ;incstack = 0
  4003                           ; Regs used in _movie_interval_ms: [wreg+status,2+status,0+pclath+cstack]
  4004                           
  4005                           
  4006                           ;main.c: 161: static uint16_t movie_interval_ms(uint32_t cs_remaining);main.c: 162: {;ma
      +                          in.c: 163:     uint32_t s = cs_remaining / 100;
  4007     052F  3000               	movlw	0
  4008     0530  0020               	movlb	0	; select bank0
  4009     0531  00A7               	movwf	___lldiv@divisor+3
  4010     0532  3000               	movlw	0
  4011     0533  00A6               	movwf	___lldiv@divisor+2
  4012     0534  3000               	movlw	0
  4013     0535  00A5               	movwf	___lldiv@divisor+1
  4014     0536  3064               	movlw	100
  4015     0537  00A4               	movwf	___lldiv@divisor
  4016     0538  0835               	movf	movie_interval_ms@cs_remaining+3,w
  4017     0539  00AB               	movwf	___lldiv@dividend+3
  4018     053A  0834               	movf	movie_interval_ms@cs_remaining+2,w
  4019     053B  00AA               	movwf	___lldiv@dividend+2
  4020     053C  0833               	movf	movie_interval_ms@cs_remaining+1,w
  4021     053D  00A9               	movwf	___lldiv@dividend+1
  4022     053E  0832               	movf	movie_interval_ms@cs_remaining,w
  4023     053F  00A8               	movwf	___lldiv@dividend
  4024     0540  3186  26D5  3185   	fcall	___lldiv
  4025     0543  0020               	movlb	0	; select bank0
  4026     0544  0827               	movf	?___lldiv+3,w
  4027     0545  00B9               	movwf	movie_interval_ms@s+3
  4028     0546  0826               	movf	?___lldiv+2,w
  4029     0547  00B8               	movwf	movie_interval_ms@s+2
  4030     0548  0825               	movf	?___lldiv+1,w
  4031     0549  00B7               	movwf	movie_interval_ms@s+1
  4032     054A  0824               	movf	?___lldiv,w
  4033     054B  00B6               	movwf	movie_interval_ms@s
  4034     054C                     l2670:
  4035                           
  4036                           ;main.c: 164:     if(s >= 60) return 700;
  4037     054C  0839               	movf	movie_interval_ms@s+3,w
  4038     054D  1D03               	btfss	3,2
  4039     054E  2D5B               	goto	u2190
  4040     054F  0838               	movf	movie_interval_ms@s+2,w
  4041     0550  1D03               	btfss	3,2
  4042     0551  2D5B               	goto	u2190
  4043     0552  0837               	movf	movie_interval_ms@s+1,w
  4044     0553  1D03               	btfss	3,2
  4045     0554  2D5B               	goto	u2190
  4046     0555  303C               	movlw	60
  4047     0556  0236               	subwf	movie_interval_ms@s,w
  4048     0557  1C03               	btfss	3,0
  4049     0558  2D5A               	goto	u2191
  4050     0559  2D5B               	goto	u2190
  4051     055A                     u2191:
  4052     055A  2D61               	goto	l2676
  4053     055B                     u2190:
  4054     055B                     l2672:
  4055     055B  30BC               	movlw	188
  4056     055C  0020               	movlb	0	; select bank0
  4057     055D  00B2               	movwf	?_movie_interval_ms
  4058     055E  3002               	movlw	2
  4059     055F  00B3               	movwf	?_movie_interval_ms+1
  4060     0560  2DD4               	goto	l142
  4061     0561                     l2676:
  4062                           
  4063                           ;main.c: 165:     if(s >= 30) return 550;
  4064     0561  0020               	movlb	0	; select bank0
  4065     0562  0839               	movf	movie_interval_ms@s+3,w
  4066     0563  1D03               	btfss	3,2
  4067     0564  2D71               	goto	u2200
  4068     0565  0838               	movf	movie_interval_ms@s+2,w
  4069     0566  1D03               	btfss	3,2
  4070     0567  2D71               	goto	u2200
  4071     0568  0837               	movf	movie_interval_ms@s+1,w
  4072     0569  1D03               	btfss	3,2
  4073     056A  2D71               	goto	u2200
  4074     056B  301E               	movlw	30
  4075     056C  0236               	subwf	movie_interval_ms@s,w
  4076     056D  1C03               	btfss	3,0
  4077     056E  2D70               	goto	u2201
  4078     056F  2D71               	goto	u2200
  4079     0570                     u2201:
  4080     0570  2D77               	goto	l2682
  4081     0571                     u2200:
  4082     0571                     l2678:
  4083     0571  3026               	movlw	38
  4084     0572  0020               	movlb	0	; select bank0
  4085     0573  00B2               	movwf	?_movie_interval_ms
  4086     0574  3002               	movlw	2
  4087     0575  00B3               	movwf	?_movie_interval_ms+1
  4088     0576  2DD4               	goto	l142
  4089     0577                     l2682:
  4090                           
  4091                           ;main.c: 166:     if(s >= 15) return 420;
  4092     0577  0020               	movlb	0	; select bank0
  4093     0578  0839               	movf	movie_interval_ms@s+3,w
  4094     0579  1D03               	btfss	3,2
  4095     057A  2D87               	goto	u2210
  4096     057B  0838               	movf	movie_interval_ms@s+2,w
  4097     057C  1D03               	btfss	3,2
  4098     057D  2D87               	goto	u2210
  4099     057E  0837               	movf	movie_interval_ms@s+1,w
  4100     057F  1D03               	btfss	3,2
  4101     0580  2D87               	goto	u2210
  4102     0581  300F               	movlw	15
  4103     0582  0236               	subwf	movie_interval_ms@s,w
  4104     0583  1C03               	btfss	3,0
  4105     0584  2D86               	goto	u2211
  4106     0585  2D87               	goto	u2210
  4107     0586                     u2211:
  4108     0586  2D8D               	goto	l2688
  4109     0587                     u2210:
  4110     0587                     l2684:
  4111     0587  30A4               	movlw	164
  4112     0588  0020               	movlb	0	; select bank0
  4113     0589  00B2               	movwf	?_movie_interval_ms
  4114     058A  3001               	movlw	1
  4115     058B  00B3               	movwf	?_movie_interval_ms+1
  4116     058C  2DD4               	goto	l142
  4117     058D                     l2688:
  4118                           
  4119                           ;main.c: 167:     if(s >= 8) return 320;
  4120     058D  0020               	movlb	0	; select bank0
  4121     058E  0839               	movf	movie_interval_ms@s+3,w
  4122     058F  1D03               	btfss	3,2
  4123     0590  2D9D               	goto	u2220
  4124     0591  0838               	movf	movie_interval_ms@s+2,w
  4125     0592  1D03               	btfss	3,2
  4126     0593  2D9D               	goto	u2220
  4127     0594  0837               	movf	movie_interval_ms@s+1,w
  4128     0595  1D03               	btfss	3,2
  4129     0596  2D9D               	goto	u2220
  4130     0597  3008               	movlw	8
  4131     0598  0236               	subwf	movie_interval_ms@s,w
  4132     0599  1C03               	btfss	3,0
  4133     059A  2D9C               	goto	u2221
  4134     059B  2D9D               	goto	u2220
  4135     059C                     u2221:
  4136     059C  2DA3               	goto	l2694
  4137     059D                     u2220:
  4138     059D                     l2690:
  4139     059D  3040               	movlw	64
  4140     059E  0020               	movlb	0	; select bank0
  4141     059F  00B2               	movwf	?_movie_interval_ms
  4142     05A0  3001               	movlw	1
  4143     05A1  00B3               	movwf	?_movie_interval_ms+1
  4144     05A2  2DD4               	goto	l142
  4145     05A3                     l2694:
  4146                           
  4147                           ;main.c: 168:     if(s >= 4) return 240;
  4148     05A3  0020               	movlb	0	; select bank0
  4149     05A4  0839               	movf	movie_interval_ms@s+3,w
  4150     05A5  1D03               	btfss	3,2
  4151     05A6  2DB3               	goto	u2230
  4152     05A7  0838               	movf	movie_interval_ms@s+2,w
  4153     05A8  1D03               	btfss	3,2
  4154     05A9  2DB3               	goto	u2230
  4155     05AA  0837               	movf	movie_interval_ms@s+1,w
  4156     05AB  1D03               	btfss	3,2
  4157     05AC  2DB3               	goto	u2230
  4158     05AD  3004               	movlw	4
  4159     05AE  0236               	subwf	movie_interval_ms@s,w
  4160     05AF  1C03               	btfss	3,0
  4161     05B0  2DB2               	goto	u2231
  4162     05B1  2DB3               	goto	u2230
  4163     05B2                     u2231:
  4164     05B2  2DB9               	goto	l2700
  4165     05B3                     u2230:
  4166     05B3                     l2696:
  4167     05B3  30F0               	movlw	240
  4168     05B4  0020               	movlb	0	; select bank0
  4169     05B5  00B2               	movwf	?_movie_interval_ms
  4170     05B6  3000               	movlw	0
  4171     05B7  00B3               	movwf	?_movie_interval_ms+1
  4172     05B8  2DD4               	goto	l142
  4173     05B9                     l2700:
  4174                           
  4175                           ;main.c: 169:     if(s >= 2) return 170;
  4176     05B9  0020               	movlb	0	; select bank0
  4177     05BA  0839               	movf	movie_interval_ms@s+3,w
  4178     05BB  1D03               	btfss	3,2
  4179     05BC  2DC9               	goto	u2240
  4180     05BD  0838               	movf	movie_interval_ms@s+2,w
  4181     05BE  1D03               	btfss	3,2
  4182     05BF  2DC9               	goto	u2240
  4183     05C0  0837               	movf	movie_interval_ms@s+1,w
  4184     05C1  1D03               	btfss	3,2
  4185     05C2  2DC9               	goto	u2240
  4186     05C3  3002               	movlw	2
  4187     05C4  0236               	subwf	movie_interval_ms@s,w
  4188     05C5  1C03               	btfss	3,0
  4189     05C6  2DC8               	goto	u2241
  4190     05C7  2DC9               	goto	u2240
  4191     05C8                     u2241:
  4192     05C8  2DCF               	goto	l2706
  4193     05C9                     u2240:
  4194     05C9                     l2702:
  4195     05C9  30AA               	movlw	170
  4196     05CA  0020               	movlb	0	; select bank0
  4197     05CB  00B2               	movwf	?_movie_interval_ms
  4198     05CC  3000               	movlw	0
  4199     05CD  00B3               	movwf	?_movie_interval_ms+1
  4200     05CE  2DD4               	goto	l142
  4201     05CF                     l2706:
  4202                           
  4203                           ;main.c: 170:     return 120;
  4204     05CF  3078               	movlw	120
  4205     05D0  0020               	movlb	0	; select bank0
  4206     05D1  00B2               	movwf	?_movie_interval_ms
  4207     05D2  3000               	movlw	0
  4208     05D3  00B3               	movwf	?_movie_interval_ms+1
  4209     05D4                     l142:
  4210     05D4  0008               	return
  4211     05D5                     __end_of_movie_interval_ms:
  4212                           
  4213                           	psect	text15
  4214     0060                     __ptext15:	
  4215 ;; *************** function _Buzzer_Set *****************
  4216 ;; Defined at:
  4217 ;;		line 72 in file "buzzer.c"
  4218 ;; Parameters:    Size  Location     Type
  4219 ;;  frequency_hz    4   18[BANK0 ] unsigned long 
  4220 ;;  volume_pct      1   22[BANK0 ] unsigned char 
  4221 ;; Auto vars:     Size  Location     Type
  4222 ;;  pr_value        4   34[BANK0 ] unsigned long 
  4223 ;;  fosc            4    0        unsigned long 
  4224 ;;  duty_10bit      2   31[BANK0 ] unsigned short 
  4225 ;;  prescaler       1    0        unsigned char 
  4226 ;;  prescale_bit    1   33[BANK0 ] unsigned char 
  4227 ;; Return value:  Size  Location     Type
  4228 ;;                  1    wreg      void 
  4229 ;; Registers used:
  4230 ;;		wreg, status,2, status,0, pclath, cstack
  4231 ;; Tracked objects:
  4232 ;;		On entry : 0/0
  4233 ;;		On exit  : 0/0
  4234 ;;		Unchanged: 0/0
  4235 ;; Data sizes:     COMMON   BANK0   BANK1   BANK2   BANK3   BANK4   BANK5   BANK6   BANK7   BANK8   BANK9  BANK10  BANK1
      +1  BANK12  BANK13  BANK14  BANK15  BANK16  BANK17  BANK18  BANK19  BANK20  BANK21  BANK22  BANK23  BANK24  BANK25
  4236 ;;      Params:         0       5       0       0       0       0       0       0       0       0       0       0       
      +0       0       0       0       0       0       0       0       0       0       0       0       0       0       0
  4237 ;;      Locals:         0       7       0       0       0       0       0       0       0       0       0       0       
      +0       0       0       0       0       0       0       0       0       0       0       0       0       0       0
  4238 ;;      Temps:          0       8       0       0       0       0       0       0       0       0       0       0       
      +0       0       0       0       0       0       0       0       0       0       0       0       0       0       0
  4239 ;;      Totals:         0      20       0       0       0       0       0       0       0       0       0       0       
      +0       0       0       0       0       0       0       0       0       0       0       0       0       0       0
  4240 ;;Total ram usage:       20 bytes
  4241 ;; Hardware stack levels used: 1
  4242 ;; Hardware stack levels required when called: 3
  4243 ;; This function calls:
  4244 ;;		_Buzzer_Stop
  4245 ;;		___lldiv
  4246 ;;		___lmul
  4247 ;; This function is called by:
  4248 ;;		_Beep_Tick10ms
  4249 ;;		_main
  4250 ;;		_Buzzer_Beep
  4251 ;;		_Buzzer_SweepUp
  4252 ;;		_Buzzer_SweepDown
  4253 ;;		_Buzzer_Siren
  4254 ;;		_Buzzer_Countdown
  4255 ;;		_Buzzer_CountdownIntense
  4256 ;;		_Buzzer_Scanner
  4257 ;;		_Buzzer_Connected
  4258 ;;		_Buzzer_Disconnected
  4259 ;;		_Buzzer_ChargingComplete
  4260 ;;		_Buzzer_Reminder
  4261 ;;		_Buzzer_TimerComplete
  4262 ;; This function uses a non-reentrant model
  4263 ;;
  4264                           
  4265     0060                     _Buzzer_Set:	
  4266                           ;psect for function _Buzzer_Set
  4267                           
  4268     0060                     l2768:	
  4269                           ;incstack = 0
  4270                           ; Regs used in _Buzzer_Set: [wreg+status,2+status,0+pclath+cstack]
  4271                           
  4272                           
  4273                           ;buzzer.c: 72: void Buzzer_Set(uint32_t frequency_hz, uint8_t volume_pct);buzzer.c: 73: 
      +                          {;buzzer.c: 74:     if (frequency_hz == 0 || volume_pct == 0) {
  4274     0060  0020               	movlb	0	; select bank0
  4275     0061  0835               	movf	Buzzer_Set@frequency_hz+3,w
  4276     0062  0434               	iorwf	Buzzer_Set@frequency_hz+2,w
  4277     0063  0433               	iorwf	Buzzer_Set@frequency_hz+1,w
  4278     0064  0432               	iorwf	Buzzer_Set@frequency_hz,w
  4279     0065  1903               	skipnz
  4280     0066  2868               	goto	u2301
  4281     0067  2869               	goto	u2300
  4282     0068                     u2301:
  4283     0068  286E               	goto	l2772
  4284     0069                     u2300:
  4285     0069                     l2770:
  4286     0069  0836               	movf	Buzzer_Set@volume_pct,w
  4287     006A  1D03               	btfss	3,2
  4288     006B  286D               	goto	u2311
  4289     006C  286E               	goto	u2310
  4290     006D                     u2311:
  4291     006D  2872               	goto	l2776
  4292     006E                     u2310:
  4293     006E                     l2772:
  4294                           
  4295                           ;buzzer.c: 75:         Buzzer_Stop();
  4296     006E  318E  26E0  3180   	fcall	_Buzzer_Stop
  4297     0071  2A50               	goto	l248
  4298     0072                     l2776:
  4299                           
  4300                           ;buzzer.c: 79:     if (volume_pct > 100) volume_pct = 100;
  4301     0072  3065               	movlw	101
  4302     0073  0236               	subwf	Buzzer_Set@volume_pct,w
  4303     0074  1C03               	skipc
  4304     0075  2877               	goto	u2321
  4305     0076  2878               	goto	u2320
  4306     0077                     u2321:
  4307     0077  287A               	goto	l249
  4308     0078                     u2320:
  4309     0078                     l2778:
  4310     0078  3064               	movlw	100
  4311     0079  00B6               	movwf	Buzzer_Set@volume_pct
  4312     007A                     l249:
  4313     007A                     l2780:
  4314     007A                     l2782:
  4315                           
  4316                           ;buzzer.c: 87:     uint8_t prescale_bits = 0b00;
  4317     007A  01C1               	clrf	Buzzer_Set@prescale_bits
  4318     007B                     l2784:
  4319                           
  4320                           ;buzzer.c: 90:     uint32_t pr_value = (fosc / (4UL * frequency_hz * prescaler)) - 1;
  4321     007B  0832               	movf	Buzzer_Set@frequency_hz,w
  4322     007C  00B7               	movwf	??_Buzzer_Set
  4323     007D  0833               	movf	Buzzer_Set@frequency_hz+1,w
  4324     007E  00B8               	movwf	??_Buzzer_Set+1
  4325     007F  0834               	movf	Buzzer_Set@frequency_hz+2,w
  4326     0080  00B9               	movwf	??_Buzzer_Set+2
  4327     0081  0835               	movf	Buzzer_Set@frequency_hz+3,w
  4328     0082  00BA               	movwf	??_Buzzer_Set+3
  4329     0083  3002               	movlw	2
  4330     0084                     u2335:
  4331     0084  35B7               	lslf	??_Buzzer_Set,f
  4332     0085  0DB8               	rlf	??_Buzzer_Set+1,f
  4333     0086  0DB9               	rlf	??_Buzzer_Set+2,f
  4334     0087  0DBA               	rlf	??_Buzzer_Set+3,f
  4335     0088                     u2330:
  4336     0088  0B89               	decfsz	9,f
  4337     0089  2884               	goto	u2335
  4338     008A  083A               	movf	??_Buzzer_Set+3,w
  4339     008B  00F5               	movwf	___lmul@multiplier+3
  4340     008C  0839               	movf	??_Buzzer_Set+2,w
  4341     008D  00F4               	movwf	___lmul@multiplier+2
  4342     008E  0838               	movf	??_Buzzer_Set+1,w
  4343     008F  00F3               	movwf	___lmul@multiplier+1
  4344     0090  0837               	movf	??_Buzzer_Set,w
  4345     0091  00F2               	movwf	___lmul@multiplier
  4346     0092  3000               	movlw	0
  4347     0093  00F9               	movwf	___lmul@multiplicand+3
  4348     0094  3000               	movlw	0
  4349     0095  00F8               	movwf	___lmul@multiplicand+2
  4350     0096  3000               	movlw	0
  4351     0097  00F7               	movwf	___lmul@multiplicand+1
  4352     0098  3001               	movlw	1
  4353     0099  00F6               	movwf	___lmul@multiplicand
  4354     009A  318F  2791  3180   	fcall	___lmul
  4355     009D  0875               	movf	?___lmul+3,w
  4356     009E  0020               	movlb	0	; select bank0
  4357     009F  00A7               	movwf	___lldiv@divisor+3
  4358     00A0  0874               	movf	?___lmul+2,w
  4359     00A1  00A6               	movwf	___lldiv@divisor+2
  4360     00A2  0873               	movf	?___lmul+1,w
  4361     00A3  00A5               	movwf	___lldiv@divisor+1
  4362     00A4  0872               	movf	?___lmul,w
  4363     00A5  00A4               	movwf	___lldiv@divisor
  4364     00A6  3001               	movlw	1
  4365     00A7  00AB               	movwf	___lldiv@dividend+3
  4366     00A8  30E8               	movlw	232
  4367     00A9  00AA               	movwf	___lldiv@dividend+2
  4368     00AA  3048               	movlw	72
  4369     00AB  00A9               	movwf	___lldiv@dividend+1
  4370     00AC  3000               	movlw	0
  4371     00AD  00A8               	movwf	___lldiv@dividend
  4372     00AE  3186  26D5  3180   	fcall	___lldiv
  4373     00B1  30FF               	movlw	255
  4374     00B2  0020               	movlb	0	; select bank0
  4375     00B3  0724               	addwf	?___lldiv,w
  4376     00B4  00C2               	movwf	Buzzer_Set@pr_value
  4377     00B5  30FF               	movlw	255
  4378     00B6  3D25               	addwfc	?___lldiv+1,w
  4379     00B7  00C3               	movwf	Buzzer_Set@pr_value+1
  4380     00B8  30FF               	movlw	255
  4381     00B9  3D26               	addwfc	?___lldiv+2,w
  4382     00BA  00C4               	movwf	Buzzer_Set@pr_value+2
  4383     00BB  30FF               	movlw	255
  4384     00BC  3D27               	addwfc	?___lldiv+3,w
  4385     00BD  00C5               	movwf	Buzzer_Set@pr_value+3
  4386     00BE                     l2786:
  4387                           
  4388                           ;buzzer.c: 92:     if (pr_value > 255) {
  4389     00BE  0845               	movf	Buzzer_Set@pr_value+3,w
  4390     00BF  1D03               	btfss	3,2
  4391     00C0  28CA               	goto	u2340
  4392     00C1  0844               	movf	Buzzer_Set@pr_value+2,w
  4393     00C2  1D03               	btfss	3,2
  4394     00C3  28CA               	goto	u2340
  4395     00C4  3001               	movlw	1
  4396     00C5  0243               	subwf	Buzzer_Set@pr_value+1,w
  4397     00C6  1C03               	btfss	3,0
  4398     00C7  28C9               	goto	u2341
  4399     00C8  28CA               	goto	u2340
  4400     00C9                     u2341:
  4401     00C9  2910               	goto	l2794
  4402     00CA                     u2340:
  4403     00CA                     l2788:
  4404     00CA                     l2790:
  4405                           
  4406                           ;buzzer.c: 94:         prescale_bits = 0b01;
  4407     00CA  0020               	movlb	0	; select bank0
  4408     00CB  01C1               	clrf	Buzzer_Set@prescale_bits
  4409     00CC  0AC1               	incf	Buzzer_Set@prescale_bits,f
  4410     00CD                     l2792:
  4411                           
  4412                           ;buzzer.c: 95:         pr_value = (fosc / (4UL * frequency_hz * prescaler)) - 1;
  4413     00CD  0832               	movf	Buzzer_Set@frequency_hz,w
  4414     00CE  00B7               	movwf	??_Buzzer_Set
  4415     00CF  0833               	movf	Buzzer_Set@frequency_hz+1,w
  4416     00D0  00B8               	movwf	??_Buzzer_Set+1
  4417     00D1  0834               	movf	Buzzer_Set@frequency_hz+2,w
  4418     00D2  00B9               	movwf	??_Buzzer_Set+2
  4419     00D3  0835               	movf	Buzzer_Set@frequency_hz+3,w
  4420     00D4  00BA               	movwf	??_Buzzer_Set+3
  4421     00D5  3002               	movlw	2
  4422     00D6                     u2355:
  4423     00D6  35B7               	lslf	??_Buzzer_Set,f
  4424     00D7  0DB8               	rlf	??_Buzzer_Set+1,f
  4425     00D8  0DB9               	rlf	??_Buzzer_Set+2,f
  4426     00D9  0DBA               	rlf	??_Buzzer_Set+3,f
  4427     00DA                     u2350:
  4428     00DA  0B89               	decfsz	9,f
  4429     00DB  28D6               	goto	u2355
  4430     00DC  083A               	movf	??_Buzzer_Set+3,w
  4431     00DD  00F5               	movwf	___lmul@multiplier+3
  4432     00DE  0839               	movf	??_Buzzer_Set+2,w
  4433     00DF  00F4               	movwf	___lmul@multiplier+2
  4434     00E0  0838               	movf	??_Buzzer_Set+1,w
  4435     00E1  00F3               	movwf	___lmul@multiplier+1
  4436     00E2  0837               	movf	??_Buzzer_Set,w
  4437     00E3  00F2               	movwf	___lmul@multiplier
  4438     00E4  3000               	movlw	0
  4439     00E5  00F9               	movwf	___lmul@multiplicand+3
  4440     00E6  3000               	movlw	0
  4441     00E7  00F8               	movwf	___lmul@multiplicand+2
  4442     00E8  3000               	movlw	0
  4443     00E9  00F7               	movwf	___lmul@multiplicand+1
  4444     00EA  3004               	movlw	4
  4445     00EB  00F6               	movwf	___lmul@multiplicand
  4446     00EC  318F  2791  3180   	fcall	___lmul
  4447     00EF  0875               	movf	?___lmul+3,w
  4448     00F0  0020               	movlb	0	; select bank0
  4449     00F1  00A7               	movwf	___lldiv@divisor+3
  4450     00F2  0874               	movf	?___lmul+2,w
  4451     00F3  00A6               	movwf	___lldiv@divisor+2
  4452     00F4  0873               	movf	?___lmul+1,w
  4453     00F5  00A5               	movwf	___lldiv@divisor+1
  4454     00F6  0872               	movf	?___lmul,w
  4455     00F7  00A4               	movwf	___lldiv@divisor
  4456     00F8  3001               	movlw	1
  4457     00F9  00AB               	movwf	___lldiv@dividend+3
  4458     00FA  30E8               	movlw	232
  4459     00FB  00AA               	movwf	___lldiv@dividend+2
  4460     00FC  3048               	movlw	72
  4461     00FD  00A9               	movwf	___lldiv@dividend+1
  4462     00FE  3000               	movlw	0
  4463     00FF  00A8               	movwf	___lldiv@dividend
  4464     0100  3186  26D5  3180   	fcall	___lldiv
  4465     0103  30FF               	movlw	255
  4466     0104  0020               	movlb	0	; select bank0
  4467     0105  0724               	addwf	?___lldiv,w
  4468     0106  00C2               	movwf	Buzzer_Set@pr_value
  4469     0107  30FF               	movlw	255
  4470     0108  3D25               	addwfc	?___lldiv+1,w
  4471     0109  00C3               	movwf	Buzzer_Set@pr_value+1
  4472     010A  30FF               	movlw	255
  4473     010B  3D26               	addwfc	?___lldiv+2,w
  4474     010C  00C4               	movwf	Buzzer_Set@pr_value+2
  4475     010D  30FF               	movlw	255
  4476     010E  3D27               	addwfc	?___lldiv+3,w
  4477     010F  00C5               	movwf	Buzzer_Set@pr_value+3
  4478     0110                     l2794:
  4479                           
  4480                           ;buzzer.c: 98:     if (pr_value > 255) {
  4481     0110  0020               	movlb	0	; select bank0
  4482     0111  0845               	movf	Buzzer_Set@pr_value+3,w
  4483     0112  1D03               	btfss	3,2
  4484     0113  291D               	goto	u2360
  4485     0114  0844               	movf	Buzzer_Set@pr_value+2,w
  4486     0115  1D03               	btfss	3,2
  4487     0116  291D               	goto	u2360
  4488     0117  3001               	movlw	1
  4489     0118  0243               	subwf	Buzzer_Set@pr_value+1,w
  4490     0119  1C03               	btfss	3,0
  4491     011A  291C               	goto	u2361
  4492     011B  291D               	goto	u2360
  4493     011C                     u2361:
  4494     011C  2963               	goto	l2800
  4495     011D                     u2360:
  4496     011D                     l2796:
  4497                           
  4498                           ;buzzer.c: 100:         prescale_bits = 0b10;
  4499     011D  3002               	movlw	2
  4500     011E  0020               	movlb	0	; select bank0
  4501     011F  00C1               	movwf	Buzzer_Set@prescale_bits
  4502     0120                     l2798:
  4503                           
  4504                           ;buzzer.c: 101:         pr_value = (fosc / (4UL * frequency_hz * prescaler)) - 1;
  4505     0120  0832               	movf	Buzzer_Set@frequency_hz,w
  4506     0121  00B7               	movwf	??_Buzzer_Set
  4507     0122  0833               	movf	Buzzer_Set@frequency_hz+1,w
  4508     0123  00B8               	movwf	??_Buzzer_Set+1
  4509     0124  0834               	movf	Buzzer_Set@frequency_hz+2,w
  4510     0125  00B9               	movwf	??_Buzzer_Set+2
  4511     0126  0835               	movf	Buzzer_Set@frequency_hz+3,w
  4512     0127  00BA               	movwf	??_Buzzer_Set+3
  4513     0128  3002               	movlw	2
  4514     0129                     u2375:
  4515     0129  35B7               	lslf	??_Buzzer_Set,f
  4516     012A  0DB8               	rlf	??_Buzzer_Set+1,f
  4517     012B  0DB9               	rlf	??_Buzzer_Set+2,f
  4518     012C  0DBA               	rlf	??_Buzzer_Set+3,f
  4519     012D                     u2370:
  4520     012D  0B89               	decfsz	9,f
  4521     012E  2929               	goto	u2375
  4522     012F  083A               	movf	??_Buzzer_Set+3,w
  4523     0130  00F5               	movwf	___lmul@multiplier+3
  4524     0131  0839               	movf	??_Buzzer_Set+2,w
  4525     0132  00F4               	movwf	___lmul@multiplier+2
  4526     0133  0838               	movf	??_Buzzer_Set+1,w
  4527     0134  00F3               	movwf	___lmul@multiplier+1
  4528     0135  0837               	movf	??_Buzzer_Set,w
  4529     0136  00F2               	movwf	___lmul@multiplier
  4530     0137  3000               	movlw	0
  4531     0138  00F9               	movwf	___lmul@multiplicand+3
  4532     0139  3000               	movlw	0
  4533     013A  00F8               	movwf	___lmul@multiplicand+2
  4534     013B  3000               	movlw	0
  4535     013C  00F7               	movwf	___lmul@multiplicand+1
  4536     013D  3010               	movlw	16
  4537     013E  00F6               	movwf	___lmul@multiplicand
  4538     013F  318F  2791  3180   	fcall	___lmul
  4539     0142  0875               	movf	?___lmul+3,w
  4540     0143  0020               	movlb	0	; select bank0
  4541     0144  00A7               	movwf	___lldiv@divisor+3
  4542     0145  0874               	movf	?___lmul+2,w
  4543     0146  00A6               	movwf	___lldiv@divisor+2
  4544     0147  0873               	movf	?___lmul+1,w
  4545     0148  00A5               	movwf	___lldiv@divisor+1
  4546     0149  0872               	movf	?___lmul,w
  4547     014A  00A4               	movwf	___lldiv@divisor
  4548     014B  3001               	movlw	1
  4549     014C  00AB               	movwf	___lldiv@dividend+3
  4550     014D  30E8               	movlw	232
  4551     014E  00AA               	movwf	___lldiv@dividend+2
  4552     014F  3048               	movlw	72
  4553     0150  00A9               	movwf	___lldiv@dividend+1
  4554     0151  3000               	movlw	0
  4555     0152  00A8               	movwf	___lldiv@dividend
  4556     0153  3186  26D5  3180   	fcall	___lldiv
  4557     0156  30FF               	movlw	255
  4558     0157  0020               	movlb	0	; select bank0
  4559     0158  0724               	addwf	?___lldiv,w
  4560     0159  00C2               	movwf	Buzzer_Set@pr_value
  4561     015A  30FF               	movlw	255
  4562     015B  3D25               	addwfc	?___lldiv+1,w
  4563     015C  00C3               	movwf	Buzzer_Set@pr_value+1
  4564     015D  30FF               	movlw	255
  4565     015E  3D26               	addwfc	?___lldiv+2,w
  4566     015F  00C4               	movwf	Buzzer_Set@pr_value+2
  4567     0160  30FF               	movlw	255
  4568     0161  3D27               	addwfc	?___lldiv+3,w
  4569     0162  00C5               	movwf	Buzzer_Set@pr_value+3
  4570     0163                     l2800:
  4571                           
  4572                           ;buzzer.c: 104:     if (pr_value > 255) {
  4573     0163  0020               	movlb	0	; select bank0
  4574     0164  0845               	movf	Buzzer_Set@pr_value+3,w
  4575     0165  1D03               	btfss	3,2
  4576     0166  2970               	goto	u2380
  4577     0167  0844               	movf	Buzzer_Set@pr_value+2,w
  4578     0168  1D03               	btfss	3,2
  4579     0169  2970               	goto	u2380
  4580     016A  3001               	movlw	1
  4581     016B  0243               	subwf	Buzzer_Set@pr_value+1,w
  4582     016C  1C03               	btfss	3,0
  4583     016D  296F               	goto	u2381
  4584     016E  2970               	goto	u2380
  4585     016F                     u2381:
  4586     016F  29B6               	goto	l2806
  4587     0170                     u2380:
  4588     0170                     l2802:
  4589                           
  4590                           ;buzzer.c: 106:         prescale_bits = 0b11;
  4591     0170  3003               	movlw	3
  4592     0171  0020               	movlb	0	; select bank0
  4593     0172  00C1               	movwf	Buzzer_Set@prescale_bits
  4594     0173                     l2804:
  4595                           
  4596                           ;buzzer.c: 107:         pr_value = (fosc / (4UL * frequency_hz * prescaler)) - 1;
  4597     0173  0832               	movf	Buzzer_Set@frequency_hz,w
  4598     0174  00B7               	movwf	??_Buzzer_Set
  4599     0175  0833               	movf	Buzzer_Set@frequency_hz+1,w
  4600     0176  00B8               	movwf	??_Buzzer_Set+1
  4601     0177  0834               	movf	Buzzer_Set@frequency_hz+2,w
  4602     0178  00B9               	movwf	??_Buzzer_Set+2
  4603     0179  0835               	movf	Buzzer_Set@frequency_hz+3,w
  4604     017A  00BA               	movwf	??_Buzzer_Set+3
  4605     017B  3002               	movlw	2
  4606     017C                     u2395:
  4607     017C  35B7               	lslf	??_Buzzer_Set,f
  4608     017D  0DB8               	rlf	??_Buzzer_Set+1,f
  4609     017E  0DB9               	rlf	??_Buzzer_Set+2,f
  4610     017F  0DBA               	rlf	??_Buzzer_Set+3,f
  4611     0180                     u2390:
  4612     0180  0B89               	decfsz	9,f
  4613     0181  297C               	goto	u2395
  4614     0182  083A               	movf	??_Buzzer_Set+3,w
  4615     0183  00F5               	movwf	___lmul@multiplier+3
  4616     0184  0839               	movf	??_Buzzer_Set+2,w
  4617     0185  00F4               	movwf	___lmul@multiplier+2
  4618     0186  0838               	movf	??_Buzzer_Set+1,w
  4619     0187  00F3               	movwf	___lmul@multiplier+1
  4620     0188  0837               	movf	??_Buzzer_Set,w
  4621     0189  00F2               	movwf	___lmul@multiplier
  4622     018A  3000               	movlw	0
  4623     018B  00F9               	movwf	___lmul@multiplicand+3
  4624     018C  3000               	movlw	0
  4625     018D  00F8               	movwf	___lmul@multiplicand+2
  4626     018E  3000               	movlw	0
  4627     018F  00F7               	movwf	___lmul@multiplicand+1
  4628     0190  3040               	movlw	64
  4629     0191  00F6               	movwf	___lmul@multiplicand
  4630     0192  318F  2791  3180   	fcall	___lmul
  4631     0195  0875               	movf	?___lmul+3,w
  4632     0196  0020               	movlb	0	; select bank0
  4633     0197  00A7               	movwf	___lldiv@divisor+3
  4634     0198  0874               	movf	?___lmul+2,w
  4635     0199  00A6               	movwf	___lldiv@divisor+2
  4636     019A  0873               	movf	?___lmul+1,w
  4637     019B  00A5               	movwf	___lldiv@divisor+1
  4638     019C  0872               	movf	?___lmul,w
  4639     019D  00A4               	movwf	___lldiv@divisor
  4640     019E  3001               	movlw	1
  4641     019F  00AB               	movwf	___lldiv@dividend+3
  4642     01A0  30E8               	movlw	232
  4643     01A1  00AA               	movwf	___lldiv@dividend+2
  4644     01A2  3048               	movlw	72
  4645     01A3  00A9               	movwf	___lldiv@dividend+1
  4646     01A4  3000               	movlw	0
  4647     01A5  00A8               	movwf	___lldiv@dividend
  4648     01A6  3186  26D5  3180   	fcall	___lldiv
  4649     01A9  30FF               	movlw	255
  4650     01AA  0020               	movlb	0	; select bank0
  4651     01AB  0724               	addwf	?___lldiv,w
  4652     01AC  00C2               	movwf	Buzzer_Set@pr_value
  4653     01AD  30FF               	movlw	255
  4654     01AE  3D25               	addwfc	?___lldiv+1,w
  4655     01AF  00C3               	movwf	Buzzer_Set@pr_value+1
  4656     01B0  30FF               	movlw	255
  4657     01B1  3D26               	addwfc	?___lldiv+2,w
  4658     01B2  00C4               	movwf	Buzzer_Set@pr_value+2
  4659     01B3  30FF               	movlw	255
  4660     01B4  3D27               	addwfc	?___lldiv+3,w
  4661     01B5  00C5               	movwf	Buzzer_Set@pr_value+3
  4662     01B6                     l2806:
  4663                           
  4664                           ;buzzer.c: 110:     if (pr_value > 255) pr_value = 255;
  4665     01B6  0020               	movlb	0	; select bank0
  4666     01B7  0845               	movf	Buzzer_Set@pr_value+3,w
  4667     01B8  1D03               	btfss	3,2
  4668     01B9  29C3               	goto	u2400
  4669     01BA  0844               	movf	Buzzer_Set@pr_value+2,w
  4670     01BB  1D03               	btfss	3,2
  4671     01BC  29C3               	goto	u2400
  4672     01BD  3001               	movlw	1
  4673     01BE  0243               	subwf	Buzzer_Set@pr_value+1,w
  4674     01BF  1C03               	btfss	3,0
  4675     01C0  29C2               	goto	u2401
  4676     01C1  29C3               	goto	u2400
  4677     01C2                     u2401:
  4678     01C2  29CC               	goto	l253
  4679     01C3                     u2400:
  4680     01C3                     l2808:
  4681     01C3  3000               	movlw	0
  4682     01C4  0020               	movlb	0	; select bank0
  4683     01C5  00C5               	movwf	Buzzer_Set@pr_value+3
  4684     01C6  3000               	movlw	0
  4685     01C7  00C4               	movwf	Buzzer_Set@pr_value+2
  4686     01C8  3000               	movlw	0
  4687     01C9  00C3               	movwf	Buzzer_Set@pr_value+1
  4688     01CA  30FF               	movlw	255
  4689     01CB  00C2               	movwf	Buzzer_Set@pr_value
  4690     01CC                     l253:
  4691                           
  4692                           ;buzzer.c: 111:     if (pr_value < 1) pr_value = 1;
  4693     01CC  0020               	movlb	0	; select bank0
  4694     01CD  0845               	movf	Buzzer_Set@pr_value+3,w
  4695     01CE  0444               	iorwf	Buzzer_Set@pr_value+2,w
  4696     01CF  0443               	iorwf	Buzzer_Set@pr_value+1,w
  4697     01D0  0442               	iorwf	Buzzer_Set@pr_value,w
  4698     01D1  1D03               	skipz
  4699     01D2  29D4               	goto	u2411
  4700     01D3  29D5               	goto	u2410
  4701     01D4                     u2411:
  4702     01D4  29DD               	goto	l2812
  4703     01D5                     u2410:
  4704     01D5                     l2810:
  4705     01D5  3000               	movlw	0
  4706     01D6  00C5               	movwf	Buzzer_Set@pr_value+3
  4707     01D7  3000               	movlw	0
  4708     01D8  00C4               	movwf	Buzzer_Set@pr_value+2
  4709     01D9  3000               	movlw	0
  4710     01DA  00C3               	movwf	Buzzer_Set@pr_value+1
  4711     01DB  3001               	movlw	1
  4712     01DC  00C2               	movwf	Buzzer_Set@pr_value
  4713     01DD                     l2812:
  4714                           
  4715                           ;buzzer.c: 114:     CCP1CONbits.CCP1M = 0b0000;
  4716     01DD  30F0               	movlw	-16
  4717     01DE  0025               	movlb	5	; select bank5
  4718     01DF  0593               	andwf	19,f	;volatile
  4719     01E0                     l2814:
  4720                           
  4721                           ;buzzer.c: 117:     T6CONbits.TMR6ON = 0;
  4722     01E0  0028               	movlb	8	; select bank8
  4723     01E1  111E               	bcf	30,2	;volatile
  4724     01E2                     l2816:
  4725                           
  4726                           ;buzzer.c: 118:     T6CONbits.T6CKPS = prescale_bits;
  4727     01E2  081E               	movf	30,w	;volatile
  4728     01E3  0020               	movlb	0	; select bank0
  4729     01E4  0641               	xorwf	Buzzer_Set@prescale_bits,w
  4730     01E5  39FC               	andlw	-4
  4731     01E6  0641               	xorwf	Buzzer_Set@prescale_bits,w
  4732     01E7  0028               	movlb	8	; select bank8
  4733     01E8  009E               	movwf	30	;volatile
  4734                           
  4735                           ;buzzer.c: 119:     PR6 = (uint8_t)pr_value;
  4736     01E9  0020               	movlb	0	; select bank0
  4737     01EA  0842               	movf	Buzzer_Set@pr_value,w
  4738     01EB  0028               	movlb	8	; select bank8
  4739     01EC  009D               	movwf	29	;volatile
  4740     01ED                     l2818:
  4741                           
  4742                           ;buzzer.c: 120:     TMR6 = 0;
  4743     01ED  019C               	clrf	28	;volatile
  4744     01EE                     l2820:
  4745                           
  4746                           ;buzzer.c: 121:     T6CONbits.TMR6ON = 1;
  4747     01EE  151E               	bsf	30,2	;volatile
  4748     01EF                     l2822:
  4749                           
  4750                           ;buzzer.c: 125:     uint16_t duty_10bit = ((pr_value + 1) * 4 * volume_pct) / 200;
  4751     01EF  3000               	movlw	0
  4752     01F0  0020               	movlb	0	; select bank0
  4753     01F1  00A7               	movwf	___lldiv@divisor+3
  4754     01F2  3000               	movlw	0
  4755     01F3  00A6               	movwf	___lldiv@divisor+2
  4756     01F4  3000               	movlw	0
  4757     01F5  00A5               	movwf	___lldiv@divisor+1
  4758     01F6  30C8               	movlw	200
  4759     01F7  00A4               	movwf	___lldiv@divisor
  4760     01F8  0842               	movf	Buzzer_Set@pr_value,w
  4761     01F9  00B7               	movwf	??_Buzzer_Set
  4762     01FA  0843               	movf	Buzzer_Set@pr_value+1,w
  4763     01FB  00B8               	movwf	??_Buzzer_Set+1
  4764     01FC  0844               	movf	Buzzer_Set@pr_value+2,w
  4765     01FD  00B9               	movwf	??_Buzzer_Set+2
  4766     01FE  0845               	movf	Buzzer_Set@pr_value+3,w
  4767     01FF  00BA               	movwf	??_Buzzer_Set+3
  4768     0200  3002               	movlw	2
  4769     0201                     u2425:
  4770     0201  35B7               	lslf	??_Buzzer_Set,f
  4771     0202  0DB8               	rlf	??_Buzzer_Set+1,f
  4772     0203  0DB9               	rlf	??_Buzzer_Set+2,f
  4773     0204  0DBA               	rlf	??_Buzzer_Set+3,f
  4774     0205                     u2420:
  4775     0205  0B89               	decfsz	9,f
  4776     0206  2A01               	goto	u2425
  4777     0207  3004               	movlw	4
  4778     0208  0737               	addwf	??_Buzzer_Set,w
  4779     0209  00F2               	movwf	___lmul@multiplier
  4780     020A  3000               	movlw	0
  4781     020B  3D38               	addwfc	??_Buzzer_Set+1,w
  4782     020C  00F3               	movwf	___lmul@multiplier+1
  4783     020D  3000               	movlw	0
  4784     020E  3D39               	addwfc	??_Buzzer_Set+2,w
  4785     020F  00F4               	movwf	___lmul@multiplier+2
  4786     0210  3000               	movlw	0
  4787     0211  3D3A               	addwfc	??_Buzzer_Set+3,w
  4788     0212  00F5               	movwf	___lmul@multiplier+3
  4789     0213  0836               	movf	Buzzer_Set@volume_pct,w
  4790     0214  00BB               	movwf	??_Buzzer_Set+4
  4791     0215  01BC               	clrf	??_Buzzer_Set+5
  4792     0216  01BD               	clrf	??_Buzzer_Set+6
  4793     0217  01BE               	clrf	??_Buzzer_Set+7
  4794     0218  083E               	movf	??_Buzzer_Set+7,w
  4795     0219  00F9               	movwf	___lmul@multiplicand+3
  4796     021A  083D               	movf	??_Buzzer_Set+6,w
  4797     021B  00F8               	movwf	___lmul@multiplicand+2
  4798     021C  083C               	movf	??_Buzzer_Set+5,w
  4799     021D  00F7               	movwf	___lmul@multiplicand+1
  4800     021E  083B               	movf	??_Buzzer_Set+4,w
  4801     021F  00F6               	movwf	___lmul@multiplicand
  4802     0220  318F  2791  3180   	fcall	___lmul
  4803     0223  0875               	movf	?___lmul+3,w
  4804     0224  0020               	movlb	0	; select bank0
  4805     0225  00AB               	movwf	___lldiv@dividend+3
  4806     0226  0874               	movf	?___lmul+2,w
  4807     0227  00AA               	movwf	___lldiv@dividend+2
  4808     0228  0873               	movf	?___lmul+1,w
  4809     0229  00A9               	movwf	___lldiv@dividend+1
  4810     022A  0872               	movf	?___lmul,w
  4811     022B  00A8               	movwf	___lldiv@dividend
  4812     022C  3186  26D5  3180   	fcall	___lldiv
  4813     022F  0020               	movlb	0	; select bank0
  4814     0230  0825               	movf	?___lldiv+1,w
  4815     0231  00C0               	movwf	Buzzer_Set@duty_10bit+1
  4816     0232  0824               	movf	?___lldiv,w
  4817     0233  00BF               	movwf	Buzzer_Set@duty_10bit
  4818     0234                     l2824:
  4819                           
  4820                           ;buzzer.c: 128:     CCPR1L = (uint8_t)(duty_10bit >> 2);
  4821     0234  0840               	movf	Buzzer_Set@duty_10bit+1,w
  4822     0235  00B8               	movwf	??_Buzzer_Set+1
  4823     0236  083F               	movf	Buzzer_Set@duty_10bit,w
  4824     0237  00B7               	movwf	??_Buzzer_Set
  4825     0238  36B8               	lsrf	??_Buzzer_Set+1,f
  4826     0239  0CB7               	rrf	??_Buzzer_Set,f
  4827     023A  36B8               	lsrf	??_Buzzer_Set+1,f
  4828     023B  0CB7               	rrf	??_Buzzer_Set,f
  4829     023C  0837               	movf	??_Buzzer_Set,w
  4830     023D  0025               	movlb	5	; select bank5
  4831     023E  0091               	movwf	17	;volatile
  4832     023F                     l2826:
  4833                           
  4834                           ;buzzer.c: 129:     CCP1CONbits.DC1B = (uint8_t)(duty_10bit & 0x03);
  4835     023F  0020               	movlb	0	; select bank0
  4836     0240  083F               	movf	Buzzer_Set@duty_10bit,w
  4837     0241  3903               	andlw	3
  4838     0242  00B7               	movwf	??_Buzzer_Set
  4839     0243  0EB7               	swapf	??_Buzzer_Set,f
  4840     0244  0025               	movlb	5	; select bank5
  4841     0245  0813               	movf	19,w	;volatile
  4842     0246  0020               	movlb	0	; select bank0
  4843     0247  0637               	xorwf	??_Buzzer_Set,w
  4844     0248  39CF               	andlw	-49
  4845     0249  0637               	xorwf	??_Buzzer_Set,w
  4846     024A  0025               	movlb	5	; select bank5
  4847     024B  0093               	movwf	19	;volatile
  4848     024C                     l2828:
  4849                           
  4850                           ;buzzer.c: 132:     CCP1CONbits.CCP1M = 0b1100;
  4851     024C  0813               	movf	19,w	;volatile
  4852     024D  39F0               	andlw	-16
  4853     024E  380C               	iorlw	12
  4854     024F  0093               	movwf	19	;volatile
  4855     0250                     l248:
  4856     0250  0008               	return
  4857     0251                     __end_of_Buzzer_Set:
  4858                           
  4859                           	psect	text16
  4860     0F91                     __ptext16:	
  4861 ;; *************** function ___lmul *****************
  4862 ;; Defined at:
  4863 ;;		line 15 in file "C:\Program Files\Microchip\xc8\v2.46\pic\sources\c99\common\Umul32.c"
  4864 ;; Parameters:    Size  Location     Type
  4865 ;;  multiplier      4    2[COMMON] unsigned long 
  4866 ;;  multiplicand    4    6[COMMON] unsigned long 
  4867 ;; Auto vars:     Size  Location     Type
  4868 ;;  product         4    0[BANK0 ] unsigned long 
  4869 ;; Return value:  Size  Location     Type
  4870 ;;                  4    2[COMMON] unsigned long 
  4871 ;; Registers used:
  4872 ;;		wreg, status,2, status,0
  4873 ;; Tracked objects:
  4874 ;;		On entry : 0/0
  4875 ;;		On exit  : 0/0
  4876 ;;		Unchanged: 0/0
  4877 ;; Data sizes:     COMMON   BANK0   BANK1   BANK2   BANK3   BANK4   BANK5   BANK6   BANK7   BANK8   BANK9  BANK10  BANK1
      +1  BANK12  BANK13  BANK14  BANK15  BANK16  BANK17  BANK18  BANK19  BANK20  BANK21  BANK22  BANK23  BANK24  BANK25
  4878 ;;      Params:         8       0       0       0       0       0       0       0       0       0       0       0       
      +0       0       0       0       0       0       0       0       0       0       0       0       0       0       0
  4879 ;;      Locals:         0       4       0       0       0       0       0       0       0       0       0       0       
      +0       0       0       0       0       0       0       0       0       0       0       0       0       0       0
  4880 ;;      Temps:          0       0       0       0       0       0       0       0       0       0       0       0       
      +0       0       0       0       0       0       0       0       0       0       0       0       0       0       0
  4881 ;;      Totals:         8       4       0       0       0       0       0       0       0       0       0       0       
      +0       0       0       0       0       0       0       0       0       0       0       0       0       0       0
  4882 ;;Total ram usage:       12 bytes
  4883 ;; Hardware stack levels used: 1
  4884 ;; Hardware stack levels required when called: 2
  4885 ;; This function calls:
  4886 ;;		Nothing
  4887 ;; This function is called by:
  4888 ;;		_Buzzer_Set
  4889 ;;		_Buzzer_SweepUp
  4890 ;;		_Buzzer_SweepDown
  4891 ;;		_Buzzer_CountdownIntense
  4892 ;; This function uses a non-reentrant model
  4893 ;;
  4894                           
  4895     0F91                     ___lmul:	
  4896                           ;psect for function ___lmul
  4897                           
  4898     0F91                     l1768:	
  4899                           ;incstack = 0
  4900                           ; Regs used in ___lmul: [wreg+status,2+status,0]
  4901                           
  4902     0F91  3000               	movlw	0
  4903     0F92  0020               	movlb	0	; select bank0
  4904     0F93  00A3               	movwf	___lmul@product+3
  4905     0F94  3000               	movlw	0
  4906     0F95  00A2               	movwf	___lmul@product+2
  4907     0F96  3000               	movlw	0
  4908     0F97  00A1               	movwf	___lmul@product+1
  4909     0F98  3000               	movlw	0
  4910     0F99  00A0               	movwf	___lmul@product
  4911     0F9A                     l1770:
  4912     0F9A  1C72               	btfss	___lmul@multiplier,0
  4913     0F9B  2F9D               	goto	u1031
  4914     0F9C  2F9E               	goto	u1030
  4915     0F9D                     u1031:
  4916     0F9D  2FA7               	goto	l1774
  4917     0F9E                     u1030:
  4918     0F9E                     l1772:
  4919     0F9E  0876               	movf	___lmul@multiplicand,w
  4920     0F9F  0020               	movlb	0	; select bank0
  4921     0FA0  07A0               	addwf	___lmul@product,f
  4922     0FA1  0877               	movf	___lmul@multiplicand+1,w
  4923     0FA2  3DA1               	addwfc	___lmul@product+1,f
  4924     0FA3  0878               	movf	___lmul@multiplicand+2,w
  4925     0FA4  3DA2               	addwfc	___lmul@product+2,f
  4926     0FA5  0879               	movf	___lmul@multiplicand+3,w
  4927     0FA6  3DA3               	addwfc	___lmul@product+3,f
  4928     0FA7                     l1774:
  4929     0FA7  3001               	movlw	1
  4930     0FA8                     u1045:
  4931     0FA8  35F6               	lslf	___lmul@multiplicand,f
  4932     0FA9  0DF7               	rlf	___lmul@multiplicand+1,f
  4933     0FAA  0DF8               	rlf	___lmul@multiplicand+2,f
  4934     0FAB  0DF9               	rlf	___lmul@multiplicand+3,f
  4935     0FAC  0B89               	decfsz	9,f
  4936     0FAD  2FA8               	goto	u1045
  4937     0FAE                     l1776:
  4938     0FAE  3001               	movlw	1
  4939     0FAF                     u1055:
  4940     0FAF  36F5               	lsrf	___lmul@multiplier+3,f
  4941     0FB0  0CF4               	rrf	___lmul@multiplier+2,f
  4942     0FB1  0CF3               	rrf	___lmul@multiplier+1,f
  4943     0FB2  0CF2               	rrf	___lmul@multiplier,f
  4944     0FB3  0B89               	decfsz	9,f
  4945     0FB4  2FAF               	goto	u1055
  4946     0FB5  0875               	movf	___lmul@multiplier+3,w
  4947     0FB6  0474               	iorwf	___lmul@multiplier+2,w
  4948     0FB7  0473               	iorwf	___lmul@multiplier+1,w
  4949     0FB8  0472               	iorwf	___lmul@multiplier,w
  4950     0FB9  1D03               	skipz
  4951     0FBA  2FBC               	goto	u1061
  4952     0FBB  2FBD               	goto	u1060
  4953     0FBC                     u1061:
  4954     0FBC  2F9A               	goto	l1770
  4955     0FBD                     u1060:
  4956     0FBD                     l1778:
  4957     0FBD  0020               	movlb	0	; select bank0
  4958     0FBE  0823               	movf	___lmul@product+3,w
  4959     0FBF  00F5               	movwf	?___lmul+3
  4960     0FC0  0822               	movf	___lmul@product+2,w
  4961     0FC1  00F4               	movwf	?___lmul+2
  4962     0FC2  0821               	movf	___lmul@product+1,w
  4963     0FC3  00F3               	movwf	?___lmul+1
  4964     0FC4  0820               	movf	___lmul@product,w
  4965     0FC5  00F2               	movwf	?___lmul
  4966     0FC6                     l470:
  4967     0FC6  0008               	return
  4968     0FC7                     __end_of___lmul:
  4969                           
  4970                           	psect	text17
  4971     06D5                     __ptext17:	
  4972 ;; *************** function ___lldiv *****************
  4973 ;; Defined at:
  4974 ;;		line 5 in file "C:\Program Files\Microchip\xc8\v2.46\pic\sources\c99\common\__lldiv.c"
  4975 ;; Parameters:    Size  Location     Type
  4976 ;;  divisor         4    4[BANK0 ] unsigned long 
  4977 ;;  dividend        4    8[BANK0 ] unsigned long 
  4978 ;; Auto vars:     Size  Location     Type
  4979 ;;  quotient        4   13[BANK0 ] unsigned long 
  4980 ;;  counter         1   17[BANK0 ] unsigned char 
  4981 ;; Return value:  Size  Location     Type
  4982 ;;                  4    4[BANK0 ] unsigned long 
  4983 ;; Registers used:
  4984 ;;		wreg, status,2, status,0
  4985 ;; Tracked objects:
  4986 ;;		On entry : 0/0
  4987 ;;		On exit  : 0/0
  4988 ;;		Unchanged: 0/0
  4989 ;; Data sizes:     COMMON   BANK0   BANK1   BANK2   BANK3   BANK4   BANK5   BANK6   BANK7   BANK8   BANK9  BANK10  BANK1
      +1  BANK12  BANK13  BANK14  BANK15  BANK16  BANK17  BANK18  BANK19  BANK20  BANK21  BANK22  BANK23  BANK24  BANK25
  4990 ;;      Params:         0       8       0       0       0       0       0       0       0       0       0       0       
      +0       0       0       0       0       0       0       0       0       0       0       0       0       0       0
  4991 ;;      Locals:         0       5       0       0       0       0       0       0       0       0       0       0       
      +0       0       0       0       0       0       0       0       0       0       0       0       0       0       0
  4992 ;;      Temps:          0       1       0       0       0       0       0       0       0       0       0       0       
      +0       0       0       0       0       0       0       0       0       0       0       0       0       0       0
  4993 ;;      Totals:         0      14       0       0       0       0       0       0       0       0       0       0       
      +0       0       0       0       0       0       0       0       0       0       0       0       0       0       0
  4994 ;;Total ram usage:       14 bytes
  4995 ;; Hardware stack levels used: 1
  4996 ;; Hardware stack levels required when called: 2
  4997 ;; This function calls:
  4998 ;;		Nothing
  4999 ;; This function is called by:
  5000 ;;		_updateDigits_SS_tt
  5001 ;;		_movie_interval_ms
  5002 ;;		_movie_params
  5003 ;;		_Buzzer_Set
  5004 ;;		_Buzzer_SweepUp
  5005 ;;		_Buzzer_SweepDown
  5006 ;;		_Buzzer_Siren
  5007 ;;		_Buzzer_Countdown
  5008 ;;		_Buzzer_CountdownIntense
  5009 ;; This function uses a non-reentrant model
  5010 ;;
  5011                           
  5012     06D5                     ___lldiv:	
  5013                           ;psect for function ___lldiv
  5014                           
  5015     06D5                     l2592:	
  5016                           ;incstack = 0
  5017                           ; Regs used in ___lldiv: [wreg+status,2+status,0]
  5018                           
  5019     06D5  3000               	movlw	0
  5020     06D6  0020               	movlb	0	; select bank0
  5021     06D7  00B0               	movwf	___lldiv@quotient+3
  5022     06D8  3000               	movlw	0
  5023     06D9  00AF               	movwf	___lldiv@quotient+2
  5024     06DA  3000               	movlw	0
  5025     06DB  00AE               	movwf	___lldiv@quotient+1
  5026     06DC  3000               	movlw	0
  5027     06DD  00AD               	movwf	___lldiv@quotient
  5028     06DE  0827               	movf	___lldiv@divisor+3,w
  5029     06DF  0426               	iorwf	___lldiv@divisor+2,w
  5030     06E0  0425               	iorwf	___lldiv@divisor+1,w
  5031     06E1  0424               	iorwf	___lldiv@divisor,w
  5032     06E2  1903               	skipnz
  5033     06E3  2EE5               	goto	u2031
  5034     06E4  2EE6               	goto	u2030
  5035     06E5                     u2031:
  5036     06E5  2F27               	goto	l2612
  5037     06E6                     u2030:
  5038     06E6                     l2594:
  5039     06E6  01B1               	clrf	___lldiv@counter
  5040     06E7  0AB1               	incf	___lldiv@counter,f
  5041     06E8  2EF4               	goto	l2598
  5042     06E9                     l2596:
  5043     06E9  3001               	movlw	1
  5044     06EA                     u2045:
  5045     06EA  35A4               	lslf	___lldiv@divisor,f
  5046     06EB  0DA5               	rlf	___lldiv@divisor+1,f
  5047     06EC  0DA6               	rlf	___lldiv@divisor+2,f
  5048     06ED  0DA7               	rlf	___lldiv@divisor+3,f
  5049     06EE  0B89               	decfsz	9,f
  5050     06EF  2EEA               	goto	u2045
  5051     06F0  3001               	movlw	1
  5052     06F1  00AC               	movwf	??___lldiv
  5053     06F2  082C               	movf	??___lldiv,w
  5054     06F3  07B1               	addwf	___lldiv@counter,f
  5055     06F4                     l2598:
  5056     06F4  1FA7               	btfss	___lldiv@divisor+3,7
  5057     06F5  2EF7               	goto	u2051
  5058     06F6  2EF8               	goto	u2050
  5059     06F7                     u2051:
  5060     06F7  2EE9               	goto	l2596
  5061     06F8                     u2050:
  5062     06F8                     l2600:
  5063     06F8  3001               	movlw	1
  5064     06F9                     u2065:
  5065     06F9  35AD               	lslf	___lldiv@quotient,f
  5066     06FA  0DAE               	rlf	___lldiv@quotient+1,f
  5067     06FB  0DAF               	rlf	___lldiv@quotient+2,f
  5068     06FC  0DB0               	rlf	___lldiv@quotient+3,f
  5069     06FD  0B89               	decfsz	9,f
  5070     06FE  2EF9               	goto	u2065
  5071     06FF                     l2602:
  5072     06FF  0827               	movf	___lldiv@divisor+3,w
  5073     0700  022B               	subwf	___lldiv@dividend+3,w
  5074     0701  1D03               	skipz
  5075     0702  2F0D               	goto	u2075
  5076     0703  0826               	movf	___lldiv@divisor+2,w
  5077     0704  022A               	subwf	___lldiv@dividend+2,w
  5078     0705  1D03               	skipz
  5079     0706  2F0D               	goto	u2075
  5080     0707  0825               	movf	___lldiv@divisor+1,w
  5081     0708  0229               	subwf	___lldiv@dividend+1,w
  5082     0709  1D03               	skipz
  5083     070A  2F0D               	goto	u2075
  5084     070B  0824               	movf	___lldiv@divisor,w
  5085     070C  0228               	subwf	___lldiv@dividend,w
  5086     070D                     u2075:
  5087     070D  1C03               	skipc
  5088     070E  2F10               	goto	u2071
  5089     070F  2F11               	goto	u2070
  5090     0710                     u2071:
  5091     0710  2F1A               	goto	l2608
  5092     0711                     u2070:
  5093     0711                     l2604:
  5094     0711  0824               	movf	___lldiv@divisor,w
  5095     0712  02A8               	subwf	___lldiv@dividend,f
  5096     0713  0825               	movf	___lldiv@divisor+1,w
  5097     0714  3BA9               	subwfb	___lldiv@dividend+1,f
  5098     0715  0826               	movf	___lldiv@divisor+2,w
  5099     0716  3BAA               	subwfb	___lldiv@dividend+2,f
  5100     0717  0827               	movf	___lldiv@divisor+3,w
  5101     0718  3BAB               	subwfb	___lldiv@dividend+3,f
  5102     0719                     l2606:
  5103     0719  142D               	bsf	___lldiv@quotient,0
  5104     071A                     l2608:
  5105     071A  3001               	movlw	1
  5106     071B                     u2085:
  5107     071B  36A7               	lsrf	___lldiv@divisor+3,f
  5108     071C  0CA6               	rrf	___lldiv@divisor+2,f
  5109     071D  0CA5               	rrf	___lldiv@divisor+1,f
  5110     071E  0CA4               	rrf	___lldiv@divisor,f
  5111     071F  0B89               	decfsz	9,f
  5112     0720  2F1B               	goto	u2085
  5113     0721                     l2610:
  5114     0721  3001               	movlw	1
  5115     0722  02B1               	subwf	___lldiv@counter,f
  5116     0723  1D03               	btfss	3,2
  5117     0724  2F26               	goto	u2091
  5118     0725  2F27               	goto	u2090
  5119     0726                     u2091:
  5120     0726  2EF8               	goto	l2600
  5121     0727                     u2090:
  5122     0727                     l2612:
  5123     0727  0830               	movf	___lldiv@quotient+3,w
  5124     0728  00A7               	movwf	?___lldiv+3
  5125     0729  082F               	movf	___lldiv@quotient+2,w
  5126     072A  00A6               	movwf	?___lldiv+2
  5127     072B  082E               	movf	___lldiv@quotient+1,w
  5128     072C  00A5               	movwf	?___lldiv+1
  5129     072D  082D               	movf	___lldiv@quotient,w
  5130     072E  00A4               	movwf	?___lldiv
  5131     072F                     l492:
  5132     072F  0008               	return
  5133     0730                     __end_of___lldiv:
  5134                           
  5135                           	psect	text18
  5136     0EEE                     __ptext18:	
  5137 ;; *************** function _Beep_Reset *****************
  5138 ;; Defined at:
  5139 ;;		line 185 in file "main.c"
  5140 ;; Parameters:    Size  Location     Type
  5141 ;;		None
  5142 ;; Auto vars:     Size  Location     Type
  5143 ;;		None
  5144 ;; Return value:  Size  Location     Type
  5145 ;;                  1    wreg      void 
  5146 ;; Registers used:
  5147 ;;		wreg, status,2, status,0, pclath, cstack
  5148 ;; Tracked objects:
  5149 ;;		On entry : 0/0
  5150 ;;		On exit  : 0/0
  5151 ;;		Unchanged: 0/0
  5152 ;; Data sizes:     COMMON   BANK0   BANK1   BANK2   BANK3   BANK4   BANK5   BANK6   BANK7   BANK8   BANK9  BANK10  BANK1
      +1  BANK12  BANK13  BANK14  BANK15  BANK16  BANK17  BANK18  BANK19  BANK20  BANK21  BANK22  BANK23  BANK24  BANK25
  5153 ;;      Params:         0       0       0       0       0       0       0       0       0       0       0       0       
      +0       0       0       0       0       0       0       0       0       0       0       0       0       0       0
  5154 ;;      Locals:         0       0       0       0       0       0       0       0       0       0       0       0       
      +0       0       0       0       0       0       0       0       0       0       0       0       0       0       0
  5155 ;;      Temps:          0       0       0       0       0       0       0       0       0       0       0       0       
      +0       0       0       0       0       0       0       0       0       0       0       0       0       0       0
  5156 ;;      Totals:         0       0       0       0       0       0       0       0       0       0       0       0       
      +0       0       0       0       0       0       0       0       0       0       0       0       0       0       0
  5157 ;;Total ram usage:        0 bytes
  5158 ;; Hardware stack levels used: 1
  5159 ;; Hardware stack levels required when called: 3
  5160 ;; This function calls:
  5161 ;;		_Buzzer_Stop
  5162 ;; This function is called by:
  5163 ;;		_Beep_Tick10ms
  5164 ;;		_main
  5165 ;; This function uses a non-reentrant model
  5166 ;;
  5167                           
  5168     0EEE                     _Beep_Reset:	
  5169                           ;psect for function _Beep_Reset
  5170                           
  5171     0EEE                     l1960:	
  5172                           ;incstack = 0
  5173                           ; Regs used in _Beep_Reset: [wreg+status,2+status,0+pclath+cstack]
  5174                           
  5175                           
  5176                           ;main.c: 187:     beep.enabled = 0;
  5177     0EEE  0021               	movlb	1	; select bank1
  5178     0EEF  01A0               	clrf	_beep^(0+128)
  5179                           
  5180                           ;main.c: 188:     beep.accum_ms = 0;
  5181     0EF0  01A1               	clrf	(_beep^(0+128)+1)
  5182     0EF1  01A2               	clrf	((_beep+1)^(0+128)+1)
  5183                           
  5184                           ;main.c: 189:     beep.on_accum_ms = 0;
  5185     0EF2  01A3               	clrf	(_beep^(0+128)+3)
  5186     0EF3  01A4               	clrf	((_beep+1)^(0+128)+3)
  5187                           
  5188                           ;main.c: 190:     beep.on = 0;
  5189     0EF4  01A9               	clrf	(_beep^(0+128)+9)
  5190     0EF5                     l1962:
  5191                           
  5192                           ;main.c: 191:     Buzzer_Stop();
  5193     0EF5  318E  26E0  318E   	fcall	_Buzzer_Stop
  5194     0EF8                     l158:
  5195     0EF8  0008               	return
  5196     0EF9                     __end_of_Beep_Reset:
  5197                           
  5198                           	psect	text19
  5199     0EE0                     __ptext19:	
  5200 ;; *************** function _Buzzer_Stop *****************
  5201 ;; Defined at:
  5202 ;;		line 142 in file "buzzer.c"
  5203 ;; Parameters:    Size  Location     Type
  5204 ;;		None
  5205 ;; Auto vars:     Size  Location     Type
  5206 ;;		None
  5207 ;; Return value:  Size  Location     Type
  5208 ;;                  1    wreg      void 
  5209 ;; Registers used:
  5210 ;;		wreg, status,2, status,0
  5211 ;; Tracked objects:
  5212 ;;		On entry : 0/0
  5213 ;;		On exit  : 0/0
  5214 ;;		Unchanged: 0/0
  5215 ;; Data sizes:     COMMON   BANK0   BANK1   BANK2   BANK3   BANK4   BANK5   BANK6   BANK7   BANK8   BANK9  BANK10  BANK1
      +1  BANK12  BANK13  BANK14  BANK15  BANK16  BANK17  BANK18  BANK19  BANK20  BANK21  BANK22  BANK23  BANK24  BANK25
  5216 ;;      Params:         0       0       0       0       0       0       0       0       0       0       0       0       
      +0       0       0       0       0       0       0       0       0       0       0       0       0       0       0
  5217 ;;      Locals:         0       0       0       0       0       0       0       0       0       0       0       0       
      +0       0       0       0       0       0       0       0       0       0       0       0       0       0       0
  5218 ;;      Temps:          0       0       0       0       0       0       0       0       0       0       0       0       
      +0       0       0       0       0       0       0       0       0       0       0       0       0       0       0
  5219 ;;      Totals:         0       0       0       0       0       0       0       0       0       0       0       0       
      +0       0       0       0       0       0       0       0       0       0       0       0       0       0       0
  5220 ;;Total ram usage:        0 bytes
  5221 ;; Hardware stack levels used: 1
  5222 ;; Hardware stack levels required when called: 2
  5223 ;; This function calls:
  5224 ;;		Nothing
  5225 ;; This function is called by:
  5226 ;;		_Beep_Reset
  5227 ;;		_Beep_Tick10ms
  5228 ;;		_initMain
  5229 ;;		_main
  5230 ;;		_Buzzer_Set
  5231 ;;		_Buzzer_Beep
  5232 ;;		_Buzzer_SweepUp
  5233 ;;		_Buzzer_SweepDown
  5234 ;;		_Buzzer_Siren
  5235 ;;		_Buzzer_Countdown
  5236 ;;		_Buzzer_CountdownIntense
  5237 ;;		_Buzzer_Scanner
  5238 ;;		_Buzzer_Connected
  5239 ;;		_Buzzer_Disconnected
  5240 ;;		_Buzzer_ChargingComplete
  5241 ;;		_Buzzer_Reminder
  5242 ;;		_Buzzer_TimerComplete
  5243 ;; This function uses a non-reentrant model
  5244 ;;
  5245                           
  5246     0EE0                     _Buzzer_Stop:	
  5247                           ;psect for function _Buzzer_Stop
  5248                           
  5249     0EE0                     l1764:	
  5250                           ;incstack = 0
  5251                           ; Regs used in _Buzzer_Stop: [wreg+status,2+status,0]
  5252                           
  5253                           
  5254                           ;buzzer.c: 144:     CCPR1L = 0;
  5255     0EE0  0025               	movlb	5	; select bank5
  5256     0EE1  0191               	clrf	17	;volatile
  5257     0EE2                     l1766:
  5258                           
  5259                           ;buzzer.c: 145:     CCP1CONbits.DC1B = 0;
  5260     0EE2  30CF               	movlw	-49
  5261     0EE3  0593               	andwf	19,f	;volatile
  5262     0EE4                     l257:
  5263     0EE4  0008               	return
  5264     0EE5                     __end_of_Buzzer_Stop:
  5265                           
  5266                           	psect	intentry
  5267     0004                     __pintentry:	
  5268 ;; *************** function _isr *****************
  5269 ;; Defined at:
  5270 ;;		line 309 in file "main.c"
  5271 ;; Parameters:    Size  Location     Type
  5272 ;;		None
  5273 ;; Auto vars:     Size  Location     Type
  5274 ;;		None
  5275 ;; Return value:  Size  Location     Type
  5276 ;;                  1    wreg      void 
  5277 ;; Registers used:
  5278 ;;		wreg, fsr0l, fsr0h, fsr1l, fsr1h, status,2, status,0, pclath, cstack
  5279 ;; Tracked objects:
  5280 ;;		On entry : 0/0
  5281 ;;		On exit  : 0/0
  5282 ;;		Unchanged: 0/0
  5283 ;; Data sizes:     COMMON   BANK0   BANK1   BANK2   BANK3   BANK4   BANK5   BANK6   BANK7   BANK8   BANK9  BANK10  BANK1
      +1  BANK12  BANK13  BANK14  BANK15  BANK16  BANK17  BANK18  BANK19  BANK20  BANK21  BANK22  BANK23  BANK24  BANK25
  5284 ;;      Params:         0       0       0       0       0       0       0       0       0       0       0       0       
      +0       0       0       0       0       0       0       0       0       0       0       0       0       0       0
  5285 ;;      Locals:         0       0       0       0       0       0       0       0       0       0       0       0       
      +0       0       0       0       0       0       0       0       0       0       0       0       0       0       0
  5286 ;;      Temps:          1       0       0       0       0       0       0       0       0       0       0       0       
      +0       0       0       0       0       0       0       0       0       0       0       0       0       0       0
  5287 ;;      Totals:         1       0       0       0       0       0       0       0       0       0       0       0       
      +0       0       0       0       0       0       0       0       0       0       0       0       0       0       0
  5288 ;;Total ram usage:        1 bytes
  5289 ;; Hardware stack levels used: 1
  5290 ;; Hardware stack levels required when called: 1
  5291 ;; This function calls:
  5292 ;;		_seg
  5293 ;; This function is called by:
  5294 ;;		Interrupt level 1
  5295 ;; This function uses a non-reentrant model
  5296 ;;
  5297                           
  5298     0004                     _isr:
  5299                           
  5300                           ;incstack = 0
  5301     0004  147E               	bsf	int$flags,0	;set compiler interrupt flag (level 1)
  5302                           
  5303                           ; Regs used in _isr: [wreg-fsr1h+status,2+status,0+pclath+cstack]
  5304     0005  3180               	pagesel	$
  5305     0006                     i1l2304:
  5306                           
  5307                           ;main.c: 312:     if(PIR1bits.TMR2IF)
  5308     0006  0020               	movlb	0	; select bank0
  5309     0007  1C91               	btfss	17,1	;volatile
  5310     0008  280A               	goto	u168_21
  5311     0009  280B               	goto	u168_20
  5312     000A                     u168_21:
  5313     000A  282A               	goto	i1l2316
  5314     000B                     u168_20:
  5315     000B                     i1l2306:
  5316                           
  5317                           ;main.c: 313:     {;main.c: 314:         PIR1bits.TMR2IF = 0;
  5318     000B  1091               	bcf	17,1	;volatile
  5319     000C                     i1l2308:
  5320                           
  5321                           ;main.c: 317:         LATB &= 0b11100001;
  5322     000C  30E1               	movlw	225
  5323     000D  00F1               	movwf	??_isr
  5324     000E  0871               	movf	??_isr,w
  5325     000F  0022               	movlb	2	; select bank2
  5326     0010  058D               	andwf	13,f	;volatile
  5327     0011                     i1l2310:
  5328                           
  5329                           ;main.c: 320:         LATC = seg(digits[scan_idx]);
  5330     0011  087A               	movf	_scan_idx,w
  5331     0012  3E64               	addlw	(low (_digits| 0))& (0+255)
  5332     0013  0086               	movwf	6
  5333     0014  0187               	clrf	7
  5334     0015  0801               	movf	1,w
  5335     0016  318F  27C7  3180   	fcall	_seg
  5336     0019  0022               	movlb	2	; select bank2
  5337     001A  008E               	movwf	14	;volatile
  5338     001B                     i1l2312:
  5339                           
  5340                           ;main.c: 323:         LATB |= digit_mask[scan_idx];
  5341     001B  087A               	movf	_scan_idx,w	;volatile
  5342     001C  3E04               	addlw	low (_digit_mask| (0+32768))
  5343     001D  0084               	movwf	4
  5344     001E  3090               	movlw	high (_digit_mask| (0+32768))
  5345     001F  1803               	skipnc
  5346     0020  3E01               	addlw	1
  5347     0021  0085               	movwf	5
  5348     0022  0800               	movf	0,w	;code access
  5349     0023  00F1               	movwf	??_isr
  5350     0024  0871               	movf	??_isr,w
  5351     0025  048D               	iorwf	13,f	;volatile
  5352     0026                     i1l2314:
  5353                           
  5354                           ;main.c: 325:         scan_idx = (scan_idx + 1) & 0x03;
  5355     0026  087A               	movf	_scan_idx,w	;volatile
  5356     0027  3E01               	addlw	1
  5357     0028  3903               	andlw	3
  5358     0029  00FA               	movwf	_scan_idx	;volatile
  5359     002A                     i1l2316:
  5360                           
  5361                           ;main.c: 329:     if(PIR1bits.TMR1IF)
  5362     002A  0020               	movlb	0	; select bank0
  5363     002B  1C11               	btfss	17,0	;volatile
  5364     002C  282E               	goto	u169_21
  5365     002D  282F               	goto	u169_20
  5366     002E                     u169_21:
  5367     002E  2836               	goto	i1l183
  5368     002F                     u169_20:
  5369     002F                     i1l2318:
  5370                           
  5371                           ;main.c: 330:     {;main.c: 331:         PIR1bits.TMR1IF = 0;
  5372     002F  1011               	bcf	17,0	;volatile
  5373     0030                     i1l2320:
  5374                           
  5375                           ;main.c: 334:         TMR1H = 0xD8;
  5376     0030  30D8               	movlw	216
  5377     0031  0097               	movwf	23	;volatile
  5378                           
  5379                           ;main.c: 335:         TMR1L = 0xF0;
  5380     0032  30F0               	movlw	240
  5381     0033  0096               	movwf	22	;volatile
  5382                           
  5383                           ;main.c: 337:         tick10ms = 1;
  5384     0034  3001               	movlw	1
  5385     0035  00E8               	movwf	_tick10ms	;volatile
  5386     0036                     i1l183:
  5387     0036  107E               	bcf	int$flags,0	;clear compiler interrupt flag (level 1)
  5388     0037  0009               	retfie
  5389     0038                     __end_of_isr:
  5390                           
  5391                           	psect	text21
  5392     0FC7                     __ptext21:	
  5393 ;; *************** function _seg *****************
  5394 ;; Defined at:
  5395 ;;		line 28 in file "main.c"
  5396 ;; Parameters:    Size  Location     Type
  5397 ;;  num             1    wreg     unsigned char 
  5398 ;; Auto vars:     Size  Location     Type
  5399 ;;  num             1    0[COMMON] unsigned char 
  5400 ;; Return value:  Size  Location     Type
  5401 ;;                  1    wreg      unsigned char 
  5402 ;; Registers used:
  5403 ;;		wreg, fsr0l, fsr0h, status,2, status,0
  5404 ;; Tracked objects:
  5405 ;;		On entry : 0/0
  5406 ;;		On exit  : 0/0
  5407 ;;		Unchanged: 0/0
  5408 ;; Data sizes:     COMMON   BANK0   BANK1   BANK2   BANK3   BANK4   BANK5   BANK6   BANK7   BANK8   BANK9  BANK10  BANK1
      +1  BANK12  BANK13  BANK14  BANK15  BANK16  BANK17  BANK18  BANK19  BANK20  BANK21  BANK22  BANK23  BANK24  BANK25
  5409 ;;      Params:         0       0       0       0       0       0       0       0       0       0       0       0       
      +0       0       0       0       0       0       0       0       0       0       0       0       0       0       0
  5410 ;;      Locals:         1       0       0       0       0       0       0       0       0       0       0       0       
      +0       0       0       0       0       0       0       0       0       0       0       0       0       0       0
  5411 ;;      Temps:          0       0       0       0       0       0       0       0       0       0       0       0       
      +0       0       0       0       0       0       0       0       0       0       0       0       0       0       0
  5412 ;;      Totals:         1       0       0       0       0       0       0       0       0       0       0       0       
      +0       0       0       0       0       0       0       0       0       0       0       0       0       0       0
  5413 ;;Total ram usage:        1 bytes
  5414 ;; Hardware stack levels used: 1
  5415 ;; This function calls:
  5416 ;;		Nothing
  5417 ;; This function is called by:
  5418 ;;		_isr
  5419 ;; This function uses a non-reentrant model
  5420 ;;
  5421                           
  5422     0FC7                     _seg:	
  5423                           ;psect for function _seg
  5424                           
  5425                           
  5426                           ;incstack = 0
  5427                           ; Regs used in _seg: [wreg-fsr0h+status,2+status,0]
  5428                           ;seg@num stored from wreg
  5429     0FC7  00F0               	movwf	seg@num
  5430     0FC8                     i1l2076:
  5431                           
  5432                           ;main.c: 28: static __attribute__((inline)) uint8_t seg(uint8_t num);main.c: 29: {;main.
      +                          c: 30:     switch(num)
  5433     0FC8  2FDF               	goto	i1l2124
  5434     0FC9                     i1l2078:
  5435     0FC9  303F               	movlw	63
  5436     0FCA  2FFF               	goto	i1l96
  5437     0FCB                     i1l2082:
  5438     0FCB  3006               	movlw	6
  5439     0FCC  2FFF               	goto	i1l96
  5440     0FCD                     i1l2086:
  5441     0FCD  305B               	movlw	91
  5442     0FCE  2FFF               	goto	i1l96
  5443     0FCF                     i1l2090:
  5444     0FCF  304F               	movlw	79
  5445     0FD0  2FFF               	goto	i1l96
  5446     0FD1                     i1l2094:
  5447     0FD1  3066               	movlw	102
  5448     0FD2  2FFF               	goto	i1l96
  5449     0FD3                     i1l2098:
  5450     0FD3  306D               	movlw	109
  5451     0FD4  2FFF               	goto	i1l96
  5452     0FD5                     i1l2102:
  5453     0FD5  307D               	movlw	125
  5454     0FD6  2FFF               	goto	i1l96
  5455     0FD7                     i1l2106:
  5456     0FD7  3007               	movlw	7
  5457     0FD8  2FFF               	goto	i1l96
  5458     0FD9                     i1l2110:
  5459     0FD9  307F               	movlw	127
  5460     0FDA  2FFF               	goto	i1l96
  5461     0FDB                     i1l2114:
  5462     0FDB  306F               	movlw	111
  5463     0FDC  2FFF               	goto	i1l96
  5464     0FDD                     i1l2118:
  5465     0FDD  3000               	movlw	0
  5466     0FDE  2FFF               	goto	i1l96
  5467     0FDF                     i1l2124:
  5468     0FDF  0870               	movf	seg@num,w
  5469                           
  5470                           ; Switch size 1, requested type "simple"
  5471                           ; Number of cases is 10, Range of values is 0 to 9
  5472                           ; switch strategies available:
  5473                           ; Name         Instructions Cycles
  5474                           ; direct_byte           26     6 (fixed)
  5475                           ; simple_byte           31    16 (average)
  5476                           ; jumptable            260     6 (fixed)
  5477                           ;	Chosen strategy is simple_byte
  5478     0FE0  3A00               	xorlw	0	; case 0
  5479     0FE1  1903               	skipnz
  5480     0FE2  2FC9               	goto	i1l2078
  5481     0FE3  3A01               	xorlw	1	; case 1
  5482     0FE4  1903               	skipnz
  5483     0FE5  2FCB               	goto	i1l2082
  5484     0FE6  3A03               	xorlw	3	; case 2
  5485     0FE7  1903               	skipnz
  5486     0FE8  2FCD               	goto	i1l2086
  5487     0FE9  3A01               	xorlw	1	; case 3
  5488     0FEA  1903               	skipnz
  5489     0FEB  2FCF               	goto	i1l2090
  5490     0FEC  3A07               	xorlw	7	; case 4
  5491     0FED  1903               	skipnz
  5492     0FEE  2FD1               	goto	i1l2094
  5493     0FEF  3A01               	xorlw	1	; case 5
  5494     0FF0  1903               	skipnz
  5495     0FF1  2FD3               	goto	i1l2098
  5496     0FF2  3A03               	xorlw	3	; case 6
  5497     0FF3  1903               	skipnz
  5498     0FF4  2FD5               	goto	i1l2102
  5499     0FF5  3A01               	xorlw	1	; case 7
  5500     0FF6  1903               	skipnz
  5501     0FF7  2FD7               	goto	i1l2106
  5502     0FF8  3A0F               	xorlw	15	; case 8
  5503     0FF9  1903               	skipnz
  5504     0FFA  2FD9               	goto	i1l2110
  5505     0FFB  3A01               	xorlw	1	; case 9
  5506     0FFC  1903               	skipnz
  5507     0FFD  2FDB               	goto	i1l2114
  5508     0FFE  2FDD               	goto	i1l2118
  5509     0FFF                     i1l96:
  5510     0FFF  0008               	return
  5511     1000                     __end_of_seg:
  5512     007E                     btemp	set	126	;btemp
  5513     007E                     int$flags	set	126
  5514     007E                     wtemp0	set	126
  5515                           
  5516                           	psect	config
  5517                           
  5518                           ;Config register CONFIG1 @ 0x8007
  5519                           ;	Oscillator Selection Bits
  5520                           ;	FOSC = INTOSC, INTOSC oscillator: I/O function on CLKIN pin
  5521                           ;	Watchdog Timer Enable
  5522                           ;	WDTE = OFF, WDT disabled
  5523                           ;	Power-up Timer Enable
  5524                           ;	PWRTE = OFF, PWRT disabled
  5525                           ;	MCLR Pin Function Select
  5526                           ;	MCLRE = OFF, MCLR/VPP pin function is digital input if LVP bit is also 0.
  5527                           ;	Flash Program Memory Code Protection
  5528                           ;	CP = OFF, Program memory code protection is disabled
  5529                           ;	Brown-out Reset Enable
  5530                           ;	BOREN = OFF, Brown-out Reset disabled
  5531                           ;	Clock Out Enable
  5532                           ;	CLKOUTEN = OFF, CLKOUT function is disabled. I/O or oscillator function on the CLKOUT 
      +                          pin
  5533                           ;	Internal/External Switchover Mode
  5534                           ;	IESO = ON, Internal/External Switchover Mode is enabled
  5535                           ;	Fail-Safe Clock Monitor Enable
  5536                           ;	FCMEN = OFF, Fail-Safe Clock Monitor is disabled
  5537     8007                     	org	32775
  5538     8007  19A4               	dw	6564
  5539                           
  5540                           ;Config register CONFIG2 @ 0x8008
  5541                           ;	Flash Memory Self-Write Protection
  5542                           ;	WRT = OFF, Write protection off
  5543                           ;	Peripheral Pin Select one-way control
  5544                           ;	PPS1WAY = ON, The PPSLOCK bit cannot be cleared once it is set by software
  5545                           ;	Zero-cross detect disable
  5546                           ;	ZCDDIS = ON, ZCD disabled. ZCD can be enabled by setting the ZCDSEN bit of ZCDCON
  5547                           ;	Phase Lock Loop enable
  5548                           ;	PLLEN = OFF, 4x PLL is disabled
  5549                           ;	Stack Overflow/Underflow Reset Enable
  5550                           ;	STVREN = ON, Stack Overflow or Underflow will cause a Reset
  5551                           ;	Brown-out Reset Voltage Selection
  5552                           ;	BORV = LO, Brown-out Reset Voltage (Vbor), low trip point selected.
  5553                           ;	Low-Power Brown Out Reset
  5554                           ;	LPBOR = OFF, Low-Power BOR is disabled
  5555                           ;	In-Circuit Debugger Mode
  5556                           ;	DEBUG = 0x1, unprogrammed default
  5557                           ;	Low-Voltage Programming Enable
  5558                           ;	LVP = OFF, High-voltage on MCLR/VPP must be used for programming
  5559     8008                     	org	32776
  5560     8008  1EFF               	dw	7935

Data Sizes:
    Strings     0
    Constant    8
    Data        5
    BSS         21
    Persistent  32
    Stack       0

Auto Spaces:
    Space          Size  Autos    Used
    COMMON           14     10      12
    BANK0            80     68      77
    BANK1            80      0      15
    BANK2            80      0       0
    BANK3            80      0       0
    BANK4            80      0       0
    BANK5            80      0       0
    BANK6            80      0       0
    BANK7            80      0       0
    BANK8            80      0       0
    BANK9            80      0       0
    BANK10           80      0       0
    BANK11           80      0       0
    BANK12           80      0       0
    BANK13           80      0       0
    BANK14           80      0       0
    BANK15           80      0       0
    BANK16           80      0       0
    BANK17           80      0       0
    BANK18           80      0       0
    BANK19           80      0       0
    BANK20           80      0       0
    BANK21           80      0       0
    BANK22           80      0       0
    BANK23           80      0       0
    BANK24           80      0       0
    BANK25           32      0       0

Pointer List with Targets:

    btn_action_10ms@b	PTR struct . size(1) Largest target is 7
		 -> main@dec_btn(BANK0[7]), main@inc_btn(BANK0[7]), 

    btn_debounce_10ms@b	PTR struct . size(1) Largest target is 7
		 -> main@dec_btn(BANK0[7]), main@inc_btn(BANK0[7]), 

    btn_init@b	PTR struct . size(1) Largest target is 7
		 -> main@dec_btn(BANK0[7]), main@inc_btn(BANK0[7]), 

    movie_params@freq	PTR unsigned long  size(1) Largest target is 15
		 -> beep(BANK1[15]), 

    movie_params@on_ms	PTR unsigned short  size(1) Largest target is 15
		 -> beep(BANK1[15]), 

    movie_params@vol	PTR unsigned char  size(1) Largest target is 15
		 -> beep(BANK1[15]), 


Critical Paths under _main in COMMON

    _btn_action_10ms->_accel_interval_ms
    _Buzzer_Set->___lmul
    ___lldiv->___lmul

Critical Paths under _isr in COMMON

    _isr->_seg

Critical Paths under _main in BANK0

    _main->_initMain
    _initMain->_updateDigits_SS_tt
    _updateDigits_SS_tt->___llmod
    ___llmod->___lldiv
    _Beep_Tick10ms->_Buzzer_Set
    _movie_params->___lldiv
    _movie_interval_ms->___lldiv
    _Buzzer_Set->___lldiv
    ___lldiv->___lmul

Critical Paths under _isr in BANK0

    None.

Critical Paths under _main in BANK1

    None.

Critical Paths under _isr in BANK1

    None.

Critical Paths under _main in BANK2

    None.

Critical Paths under _isr in BANK2

    None.

Critical Paths under _main in BANK3

    None.

Critical Paths under _isr in BANK3

    None.

Critical Paths under _main in BANK4

    None.

Critical Paths under _isr in BANK4

    None.

Critical Paths under _main in BANK5

    None.

Critical Paths under _isr in BANK5

    None.

Critical Paths under _main in BANK6

    None.

Critical Paths under _isr in BANK6

    None.

Critical Paths under _main in BANK7

    None.

Critical Paths under _isr in BANK7

    None.

Critical Paths under _main in BANK8

    None.

Critical Paths under _isr in BANK8

    None.

Critical Paths under _main in BANK9

    None.

Critical Paths under _isr in BANK9

    None.

Critical Paths under _main in BANK10

    None.

Critical Paths under _isr in BANK10

    None.

Critical Paths under _main in BANK11

    None.

Critical Paths under _isr in BANK11

    None.

Critical Paths under _main in BANK12

    None.

Critical Paths under _isr in BANK12

    None.

Critical Paths under _main in BANK13

    None.

Critical Paths under _isr in BANK13

    None.

Critical Paths under _main in BANK14

    None.

Critical Paths under _isr in BANK14

    None.

Critical Paths under _main in BANK15

    None.

Critical Paths under _isr in BANK15

    None.

Critical Paths under _main in BANK16

    None.

Critical Paths under _isr in BANK16

    None.

Critical Paths under _main in BANK17

    None.

Critical Paths under _isr in BANK17

    None.

Critical Paths under _main in BANK18

    None.

Critical Paths under _isr in BANK18

    None.

Critical Paths under _main in BANK19

    None.

Critical Paths under _isr in BANK19

    None.

Critical Paths under _main in BANK20

    None.

Critical Paths under _isr in BANK20

    None.

Critical Paths under _main in BANK21

    None.

Critical Paths under _isr in BANK21

    None.

Critical Paths under _main in BANK22

    None.

Critical Paths under _isr in BANK22

    None.

Critical Paths under _main in BANK23

    None.

Critical Paths under _isr in BANK23

    None.

Critical Paths under _main in BANK24

    None.

Critical Paths under _isr in BANK24

    None.

Critical Paths under _main in BANK25

    None.

Critical Paths under _isr in BANK25

    None.

Call Graph Tables:

 ---------------------------------------------------------------------------------
 (Depth) Function   	        Calls       Base Space   Used Autos Params    Refs
 ---------------------------------------------------------------------------------
 (0) _main                                                22    22      0   35911
                                             46 BANK0     22    22      0
                         _Beep_Reset
                      _Beep_Tick10ms
                         _Buzzer_Set
                        _Buzzer_Stop
                    _btn_action_10ms
                  _btn_debounce_10ms
                           _btn_init
                           _initMain
                 _updateDigits_SS_tt
 ---------------------------------------------------------------------------------
 (1) _initMain                                             2     2      0    4581
                                             44 BANK0      2     2      0
                        _Buzzer_Init
                        _Buzzer_Stop
               _Timer1_Init_Tick10ms
            _Timer2_Init_DisplayScan
                        _internal_32
                 _updateDigits_SS_tt
 ---------------------------------------------------------------------------------
 (1) _updateDigits_SS_tt                                  16    12      4    4581
                                             28 BANK0     16    12      4
                            ___lldiv
                            ___llmod
 ---------------------------------------------------------------------------------
 (2) ___llmod                                             10     2      8    1132
                                             18 BANK0     10     2      8
                            ___lldiv (ARG)
 ---------------------------------------------------------------------------------
 (2) _internal_32                                          0     0      0       0
 ---------------------------------------------------------------------------------
 (2) _Timer2_Init_DisplayScan                              0     0      0       0
 ---------------------------------------------------------------------------------
 (2) _Timer1_Init_Tick10ms                                 0     0      0       0
 ---------------------------------------------------------------------------------
 (2) _Buzzer_Init                                          0     0      0       0
 ---------------------------------------------------------------------------------
 (1) _btn_init                                             1     1      0     176
                                              2 COMMON     1     1      0
 ---------------------------------------------------------------------------------
 (1) _btn_debounce_10ms                                    3     2      1     460
                                              2 COMMON     3     2      1
 ---------------------------------------------------------------------------------
 (1) _btn_action_10ms                                      7     6      1     912
                                              4 COMMON     3     2      1
                                              0 BANK0      4     4      0
                  _accel_interval_ms
 ---------------------------------------------------------------------------------
 (2) _accel_interval_ms                                    2     0      2     183
                                              2 COMMON     2     0      2
 ---------------------------------------------------------------------------------
 (1) _Beep_Tick10ms                                        4     0      4   16008
                                             38 BANK0      4     0      4
                         _Beep_Reset
                         _Buzzer_Set
                        _Buzzer_Stop
                  _movie_interval_ms
                       _movie_params
 ---------------------------------------------------------------------------------
 (2) _movie_params                                        11     4      7    4048
                                             18 BANK0     11     4      7
                            ___lldiv
 ---------------------------------------------------------------------------------
 (2) _movie_interval_ms                                    8     4      4    3251
                                             18 BANK0      8     4      4
                            ___lldiv
 ---------------------------------------------------------------------------------
 (1) _Buzzer_Set                                          25    20      5    8526
                                             18 BANK0     20    15      5
                        _Buzzer_Stop
                            ___lldiv
                             ___lmul
 ---------------------------------------------------------------------------------
 (2) ___lmul                                              12     4      8    1308
                                              2 COMMON     8     0      8
                                              0 BANK0      4     4      0
 ---------------------------------------------------------------------------------
 (2) ___lldiv                                             14     6      8    2941
                                              4 BANK0     14     6      8
                             ___lmul (ARG)
 ---------------------------------------------------------------------------------
 (2) _Beep_Reset                                           0     0      0       0
                        _Buzzer_Stop
 ---------------------------------------------------------------------------------
 (2) _Buzzer_Stop                                          0     0      0       0
 ---------------------------------------------------------------------------------
 Estimated maximum stack depth 2
 ---------------------------------------------------------------------------------
 (Depth) Function   	        Calls       Base Space   Used Autos Params    Refs
 ---------------------------------------------------------------------------------
 (4) _isr                                                  1     1      0      22
                                              1 COMMON     1     1      0
                                _seg
 ---------------------------------------------------------------------------------
 (5) _seg                                                  1     1      0      22
                                              0 COMMON     1     1      0
 ---------------------------------------------------------------------------------
 Estimated maximum stack depth 5
 ---------------------------------------------------------------------------------

 Call Graph Graphs:

 _main (ROOT)
   _Beep_Reset
     _Buzzer_Stop
   _Beep_Tick10ms
     _Beep_Reset
     _Buzzer_Set
       _Buzzer_Stop
       ___lldiv
         ___lmul (ARG)
       ___lmul
     _Buzzer_Stop
     _movie_interval_ms
       ___lldiv
     _movie_params
       ___lldiv
   _Buzzer_Set
   _Buzzer_Stop
   _btn_action_10ms
     _accel_interval_ms
   _btn_debounce_10ms
   _btn_init
   _initMain
     _Buzzer_Init
     _Buzzer_Stop
     _Timer1_Init_Tick10ms
     _Timer2_Init_DisplayScan
     _internal_32
     _updateDigits_SS_tt
       ___lldiv
       ___llmod
         ___lldiv (ARG)
   _updateDigits_SS_tt

 _isr (ROOT)
   _seg

 Address spaces:
Name               Size   Autos  Total    Cost      Usage
BIGRAM             7F0      0       0       0        0.0%
NULL                 0      0       0       0        0.0%
CODE                 0      0       0       0        0.0%
BITCOMMON            E      0       0       1        0.0%
BITSFR0              0      0       0       1        0.0%
SFR0                 0      0       0       1        0.0%
COMMON               E      A       C       2       85.7%
BITSFR1              0      0       0       2        0.0%
SFR1                 0      0       0       2        0.0%
BITSFR2              0      0       0       3        0.0%
SFR2                 0      0       0       3        0.0%
STACK                0      0       0       3        0.0%
BITBANK0            50      0       0       4        0.0%
BITSFR3              0      0       0       4        0.0%
SFR3                 0      0       0       4        0.0%
BANK0               50     44      4D       5       96.2%
BITSFR4              0      0       0       5        0.0%
SFR4                 0      0       0       5        0.0%
BITBANK1            50      0       0       6        0.0%
BITSFR5              0      0       0       6        0.0%
SFR5                 0      0       0       6        0.0%
BANK1               50      0       F       7       18.8%
BITSFR6              0      0       0       7        0.0%
SFR6                 0      0       0       7        0.0%
BITBANK2            50      0       0       8        0.0%
BITSFR7              0      0       0       8        0.0%
SFR7                 0      0       0       8        0.0%
BANK2               50      0       0       9        0.0%
BITSFR8              0      0       0       9        0.0%
SFR8                 0      0       0       9        0.0%
BITBANK3            50      0       0      10        0.0%
BITSFR9              0      0       0      10        0.0%
SFR9                 0      0       0      10        0.0%
BANK3               50      0       0      11        0.0%
BITSFR10             0      0       0      11        0.0%
SFR10                0      0       0      11        0.0%
BITBANK4            50      0       0      12        0.0%
BITSFR11             0      0       0      12        0.0%
SFR11                0      0       0      12        0.0%
BANK4               50      0       0      13        0.0%
BITSFR12             0      0       0      13        0.0%
SFR12                0      0       0      13        0.0%
BITSFR13             0      0       0      14        0.0%
SFR13                0      0       0      14        0.0%
ABS                  0      0      68      14        0.0%
BITBANK5            50      0       0      15        0.0%
BITSFR14             0      0       0      15        0.0%
SFR14                0      0       0      15        0.0%
BANK5               50      0       0      16        0.0%
BITSFR15             0      0       0      16        0.0%
SFR15                0      0       0      16        0.0%
BITBANK6            50      0       0      17        0.0%
BITSFR16             0      0       0      17        0.0%
SFR16                0      0       0      17        0.0%
BANK6               50      0       0      18        0.0%
BITSFR17             0      0       0      18        0.0%
SFR17                0      0       0      18        0.0%
BITBANK7            50      0       0      19        0.0%
BITSFR18             0      0       0      19        0.0%
SFR18                0      0       0      19        0.0%
BANK7               50      0       0      20        0.0%
BITSFR19             0      0       0      20        0.0%
SFR19                0      0       0      20        0.0%
BITBANK8            50      0       0      21        0.0%
BITSFR20             0      0       0      21        0.0%
SFR20                0      0       0      21        0.0%
BANK8               50      0       0      22        0.0%
BITSFR21             0      0       0      22        0.0%
SFR21                0      0       0      22        0.0%
BITBANK9            50      0       0      23        0.0%
BITSFR22             0      0       0      23        0.0%
SFR22                0      0       0      23        0.0%
BANK9               50      0       0      24        0.0%
BITSFR23             0      0       0      24        0.0%
SFR23                0      0       0      24        0.0%
BITBANK10           50      0       0      25        0.0%
BITSFR24             0      0       0      25        0.0%
SFR24                0      0       0      25        0.0%
BANK10              50      0       0      26        0.0%
BITSFR25             0      0       0      26        0.0%
SFR25                0      0       0      26        0.0%
BITBANK11           50      0       0      27        0.0%
BITSFR26             0      0       0      27        0.0%
SFR26                0      0       0      27        0.0%
BITSFR27             0      0       0      28        0.0%
SFR27                0      0       0      28        0.0%
DATA                 0      0      68      28        0.0%
BANK11              50      0       0      29        0.0%
BITSFR28             0      0       0      29        0.0%
SFR28                0      0       0      29        0.0%
BITBANK12           50      0       0      30        0.0%
BITSFR29             0      0       0      30        0.0%
SFR29                0      0       0      30        0.0%
BANK12              50      0       0      31        0.0%
BITSFR30             0      0       0      31        0.0%
SFR30                0      0       0      31        0.0%
BITBANK13           50      0       0      32        0.0%
BITSFR31             0      0       0      32        0.0%
SFR31                0      0       0      32        0.0%
BANK13              50      0       0      33        0.0%
BITBANK14           50      0       0      34        0.0%
BANK14              50      0       0      35        0.0%
BITBANK15           50      0       0      36        0.0%
BANK15              50      0       0      37        0.0%
BITBANK16           50      0       0      38        0.0%
BANK16              50      0       0      39        0.0%
BITBANK17           50      0       0      40        0.0%
BANK17              50      0       0      41        0.0%
BITBANK18           50      0       0      42        0.0%
BANK18              50      0       0      43        0.0%
BITBANK19           50      0       0      44        0.0%
BANK19              50      0       0      45        0.0%
BITBANK20           50      0       0      46        0.0%
BANK20              50      0       0      47        0.0%
BITBANK21           50      0       0      48        0.0%
BANK21              50      0       0      49        0.0%
BITBANK22           50      0       0      50        0.0%
BANK22              50      0       0      51        0.0%
BITBANK23           50      0       0      52        0.0%
BANK23              50      0       0      53        0.0%
BITBANK24           50      0       0      54        0.0%
BANK24              50      0       0      55        0.0%
BITBANK25           20      0       0      56        0.0%
BANK25              20      0       0      57        0.0%


Microchip Technology PIC Macro Assembler V2.46 build 20240104201356 
Symbol Table                                                                                   Fri Dec 26 22:57:31 2025

           Buzzer_Set@volume_pct 0036                               l17 0EED                              l110 052E  
                            l120 07F8                              l113 0F37                              l124 0F90  
                            l142 05D4                              l151 046C                              l119 07F4  
                            l136 0657                              l242 0F61                              l170 0F18  
                            l164 06D4                              l253 01CC                              l173 0F08  
                            l158 0EF8                              l191 0290                              l248 0250  
                            l176 07BD                              l257 0EE4                              l249 007A  
                            l470 0FC6                              l492 072F                              l686 077A  
       btn_debounce_10ms@raw_now 0072                              _PR2 001B                              _PR6 041D  
                     _Beep_Reset 0EEE                              _isr 0004                              _seg 0FC7  
                            wreg 0009                      main@dec_btn 005D                  movie_params@vol 0037  
               ?_btn_action_10ms 0074                             l2030 0F12                             l2040 0EFE  
                           l2032 0F13                             l3000 026A                             l2130 0F29  
                           l2050 0F06                             l2042 0EFF                             l2034 0F14  
                           l2026 0F09                             l3010 027D                             l3002 026B  
                           l2140 07DB                             l2132 0F30                             l2060 0F47  
                           l2052 0F38                             l2044 0F01                             l2036 0F16  
                           l2028 0F10                             l3020 0294                             l3012 0282  
                           l3004 0270                             l2142 07E0                             l2134 07BF  
                           l2126 0F1A                             l2070 0F54                             l2062 0F4A  
                           l2054 0F3C                             l2046 0F03                             l2038 0EF9  
                           l3030 02D4                             l3022 0296                             l3014 0285  
                           l3006 0274                             l2144 07E5                             l2136 07C8  
                           l2128 0F24                             l2072 0F5E                             l2064 0F4E  
                           l2056 0F44                             l2048 0F04                             l3032 02DD  
                           l3024 029C                             l3040 0314                             l3016 0288  
                           l3008 0275                             l2146 07EF                             l2138 07D2  
                           l2074 0F5F                             l2066 0F51                             l2058 0F45  
                           l3050 0337                             l3042 031A                             l3034 02E9  
                           l3026 02BB                             l3018 028C                             l2068 0F53  
                           l3060 0362                             l3052 0345                             l3044 0322  
                           l3036 02F9                             l3028 02CA                             l3062 036E  
                           l3054 0352                             l3046 0333                             l3038 030B  
                           l2600 06F8                             l3048 0334                             l3056 0355  
                           l2610 0721                             l2602 06FF                             l3058 0361  
                           l2604 0711                             l2612 0727                             l2700 05B9  
                           l2620 073C                             l2606 0719                             l2702 05C9  
                           l2710 0372                             l2630 076C                             l2622 0747  
                           l2608 071A                             l2800 0163                             l2712 038F  
                           l2624 074B                             l2632 0772                             l2616 0730  
                           l2640 0528                             l1770 0F9A                             l2810 01D5  
                           l2802 0170                             l2706 05CF                             l2714 039E  
                           l2722 03B7                             l1826 0EE5                             l2626 075D  
                           l2618 0739                             l2642 052A                             l1764 0EE0  
                           l1772 0F9E                             l2820 01EE                             l2812 01DD  
                           l2804 0173                             l2724 03C7                             l2732 03D9  
                           l2716 03AA                             l2660 0F87                             l2652 0F70  
                           l2628 0765                             l2644 052C                             l2636 046D  
                           l2900 078C                             l1766 0EE2                             l1774 0FA7  
                           l2822 01EF                             l2814 01E0                             l2806 01B6  
                           l2670 054C                             l2734 03E9                             l2742 0402  
                           l2726 03D3                             l2718 03AF                             l2654 0F79  
                           l2646 0F62                             l2830 05D7                             l2638 0526  
                           l2910 0794                             l2902 078D                             l1960 0EEE  
                           l2592 06D5                             l1776 0FAE                             l1768 0F91  
                           l2824 0234                             l2816 01E2                             l2808 01C3  
                           l2672 055B                             l2744 0412                             l2752 042B  
                           l2736 03F5                             l2664 0F8C                             l2648 0F6B  
                           l2840 05F2                             l2832 05D8                             l2920 079F  
                           l2912 0795                             l2904 078E                             l1962 0EF5  
                           l2594 06E6                             l1778 0FBD                             l2826 023F  
                           l2818 01ED                             l2770 0069                             l2690 059D  
                           l2682 0577                             l2754 043B                             l2762 0454  
                           l2746 041E                             l2738 03FA                             l2658 0F7E  
                           l2850 062C                             l2842 05F4                             l2834 05DD  
                           l2930 07A8                             l2922 07A0                             l2914 0796  
                           l2906 0790                             l2596 06E9                             l2828 024C  
                           l2780 007A                             l2772 006E                             l2684 0587  
                           l2676 0561                             l2668 052F                             l2764 0460  
                           l2756 0447                             l2748 0423                             l2852 063E  
                           l2844 05F9                             l2836 05E2                             l2940 07BC  
                           l2932 07B4                             l2924 07A1                             l2916 0797  
                           l2908 0792                             l2598 06F4                             l2790 00CA  
                           l2782 007A                             l2694 05A3                             l2678 0571  
                           l2766 0465                             l2758 044C                             l2870 066B  
                           l2862 0658                             l2854 0645                             l2846 0613  
                           l2838 05F0                             l2934 07B5                             l2926 07A4  
                           l2918 079D                             l2792 00CD                             l2784 007B  
                           l2776 0072                             l2768 0060                             l2696 05B3  
                           l2688 058D                             l2880 06A7                             l2872 067E  
                           l2864 065E                             l2848 061C                             l2856 0648  
                           l2936 07B8                             l2928 07A7                             l2794 0110  
                           l2786 00BE                             l2778 0078                             l2890 06CF  
                           l2882 06AA                             l2874 0690                             l2866 0667  
                           l2858 0656                             l2938 07BB                             l2796 011D  
                           l2788 00CA                             l2892 06D2                             l2884 06AF  
                           l2876 0696                             l2798 0120                             l2886 06B9  
                           l2878 06A4                             l2894 077B                             l2990 0258  
                           l2888 06BB                             l2896 077E                             l2992 025C  
                           l2984 0251                             l2898 078A                             l2994 0260  
                           l2986 0254                             l2996 0263                             l2988 0256  
                           ?_isr 0070                             ?_seg 0070                      main@inc_btn 0056  
                           u1030 0F9E                             u1031 0F9D                             u1060 0FBD  
                           u2100 0739                             u1061 0FBC                             u1045 0FA8  
                           u2101 0738                             u2030 06E6                             u2031 06E5  
                           u1055 0FAF                             u2200 0571                             u2120 074B  
                           u2201 0570                             u2121 074A                             u2050 06F8  
                           u2210 0587                             u2130 075D                             u2051 06F7  
                           u2211 0586                             u2131 075C                             u2115 073D  
                           u2300 0069                             u2220 059D                             u2045 06EA  
                           u2301 0068                             u2221 059C                             u2070 0711  
                           u2310 006E                             u2230 05B3                             u2150 0772  
                           _LATB 010D                             u2071 0710                             u2311 006D  
                           u2231 05B2                             u2151 0771                             u2135 0759  
                           _LATC 010E                             u2400 01C3                             u2320 0078  
                           u2240 05C9                             u2160 0F6B                             u2065 06F9  
                           u2401 01C2                             u2321 0077                             u2241 05C8  
                           u2161 0F6A                             u2145 0766                             u2090 0727  
                           u2410 01D5                             u2330 0088                             u2250 039E  
                           u2170 0F79                             u2091 0726                             u2075 070D  
                           u2411 01D4                             u2251 039D                             u2171 0F78  
                           u2420 0205                             u2340 00CA                             u2260 03C7  
                           u2500 0696                             u2180 0F87                             u2085 071B  
                           u2341 00C9                             u2261 03C6                             u2501 0695  
                           u2181 0F86                             u2350 00DA                             u2190 055B  
                           u2270 03E9                             u2510 06A4                             u2430 05DD  
                           u1470 07C8                             u2335 0084                             u2191 055A  
                           u2271 03E8                             u2511 06A3                             u2431 05DC  
                           u1471 07C7                             u2360 011D                             u2280 0412  
                           u2520 06B9                             u2440 05E2                             u1480 07D2  
                           u2425 0201                             u2361 011C                             u2281 0411  
                           u2521 06B8                             u2441 05E1                             u1481 07D1  
                           u2370 012D                             u2290 043B                             u2450 05F9  
                           u1490 07EF                             u2610 0269                             u2355 00D6  
                           u2291 043A                             u2515 06A0                             u2451 05F8  
                           u1491 07EE                             u2611 0268                             u2380 0170  
                           u2460 0613                             u2700 02CA                             u2620 0270  
                           u2381 016F                             u2525 06B5                             u2461 0612  
                           u2701 02C9                             u2621 026F                             u2390 0180  
                           u2470 063E                             u2710 02E9                             u2630 0274  
                           u2375 0129                             u2471 063D                             u2711 02E8  
                           u2631 0273                             u2480 065E                             u2720 02F9  
                           u2640 027B                             u2481 065D                             u2721 02F8  
                           u2641 0279                             u2490 0667                             u2730 031A  
                           u2650 027C                             u2395 017C                             u2491 0666  
                           u2475 063A                             u2731 0319                             u2740 0322  
                           u2660 0282                             u2741 0321                             u2661 0281  
                           u2670 0294                             u2671 0293                             u2680 029C  
                           u2681 029B                             u2690 02BB                             u2691 02BA  
                           u2947 034B                             u2957 0784                             _SCS0 04C8  
                           _SCS1 04C9                             i1l96 0FFF                             _TMR2 001A  
                           _TMR6 041C                             _beep 00A0                             _main 0251  
                           fsr0h 0005                             fsr1h 0007                             indf0 0000  
                           fsr0l 0004                             indf1 0001                             fsr1l 0006  
                           btemp 007E                             start 0038                      main@running 0055  
               movie_params@freq 0036                            ??_isr 0071                            ??_seg 0070  
     __end_of_updateDigits_SS_tt 052F                            ?_main 0070                  __end_of___lldiv 0730  
                __end_of___llmod 077B                            _IRCF0 04CB                            _IRCF1 04CC  
                          _IRCF2 04CD                            _IRCF3 04CE                            i1l183 0036  
                          _TMR1H 0017                            _TMR1L 0016                            _TRISC 008E  
            ___lmul@multiplicand 0076        btn_action_10ms@stable_now 0074                    ??_Buzzer_Init 0072  
                  ??_Buzzer_Stop 0072           updateDigits_SS_tt@hund 0048                            status 0003  
                          wtemp0 007E                     ?_internal_32 0070                  __initialization 003A  
       ?_Timer2_Init_DisplayScan 0070                     __end_of_main 0372                movie_params@on_ms 0038  
                         ??_main 004E                       _Buzzer_Set 0060                      ?_Beep_Reset 0070  
               ___llmod@dividend 0036                           _CCPR1L 0291                           _ANSELA 018C  
                         _ANSELB 018D                           _ANSELC 018E                           i1l2110 0FD9  
                         i1l2102 0FD5                           i1l2114 0FDB                           i1l2106 0FD7  
                         i1l2124 0FDF                           i1l2118 0FDD                           i1l2310 0011  
                         i1l2320 0030                           i1l2312 001B                           i1l2304 0006  
                         i1l2090 0FCF                           i1l2082 0FCB                           i1l2314 0026  
                         i1l2306 000B                           i1l2076 0FC8                           i1l2308 000C  
                         i1l2316 002A                           i1l2094 0FD1                           i1l2086 0FCD  
                         i1l2078 0FC9                           i1l2318 002F                           i1l2098 0FD3  
                         u168_20 000B                           u168_21 000A                           u169_20 002F  
                         u169_21 002E                           _SPLLEN 04CF              __end_of_Buzzer_Init 0F62  
            __end_of_Buzzer_Stop 0EE5                    _Beep_Tick10ms 0658                 __end_of_btn_init 0F38  
                         ___lmul 0F91                        ??___lldiv 002C                        ??___llmod 003A  
                         _digits 0064                 __end_of_initMain 07BE                _btn_debounce_10ms 07BE  
              _accel_interval_ms 0F62                           seg@num 0070               ?_btn_debounce_10ms 0072  
                   __pdataCOMMON 007B               ?_accel_interval_ms 0072               Buzzer_Set@pr_value 0042  
            ??_btn_debounce_10ms 0073              ??_accel_interval_ms 0074          __end_of__initialization 005C  
__end_of_Timer2_Init_DisplayScan 0F19                   ?_Beep_Tick10ms 0046                   __pcstackCOMMON 0070  
                   __pidataBANK0 0EDC     __end_of_Timer1_Init_Tick10ms 0F09                   main@dec_stable 0053  
      __end_of_btn_debounce_10ms 07F9        __end_of_accel_interval_ms 0F91                      ?_Buzzer_Set 0032  
               btn_action_10ms@b 0023                       __pbssBANK0 0064                       __pbssBANK1 00A0  
                    _Buzzer_Init 0F38                      _Buzzer_Stop 0EE0                       __pmaintext 0251  
      Beep_Tick10ms@cs_remaining 0046                          ?___lmul 0072                       __pintentry 0004  
                     _digit_mask 1004                   ___lmul@product 0020                 Buzzer_Siren@tick 1000  
                 main@inc_stable 0052               _updateDigits_SS_tt 046D                          _PPSLOCK 0E0F  
                      ?_btn_init 0070                        ?_initMain 0070               movie_interval_ms@s 0036  
            ?_updateDigits_SS_tt 003C    movie_interval_ms@cs_remaining 0032                  ??_Beep_Tick10ms 007A  
                  ?_movie_params 0032                          ___lldiv 06D5                          ___llmod 0730  
           ??_updateDigits_SS_tt 007A                          __ptext1 077B                          __ptext2 046D  
                        __ptext3 0730                          __ptext4 0EE5                          __ptext5 0F09  
                        __ptext6 0EF9                          __ptext7 0F38                          __ptext8 0F19  
                        __ptext9 07BE                        _T1CONbits 0018                     ??_Beep_Reset 0072  
                      _T2CONbits 001C              btn_action_10ms@fire 0022              btn_action_10ms@prev 007B  
                      _T6CONbits 041E         movie_params@cs_remaining 0032                          clrloop0 07FA  
                     ??_btn_init 0072             end_of_initialization 005C             _Timer1_Init_Tick10ms 0EF9  
                     ??_initMain 004C                   main@prev_start 0054                  ___lldiv@divisor 0024  
                ___lldiv@counter 0031                   ??_movie_params 007A               __end_of_Beep_Reset 0EF9  
                      _PORTAbits 000C           Buzzer_Set@frequency_hz 0032                        _TRISAbits 008C  
                      _TRISBbits 008D            ?_Timer1_Init_Tick10ms 0070        updateDigits_SS_tt@seconds 0044  
             btn_debounce_10ms@b 0074                      _CCP1CONbits 0293             updateDigits_SS_tt@cs 003C  
              ??_btn_action_10ms 0075                   __end_of___lmul 0FC7                    __pidataCOMMON 07FF  
                   ??_Buzzer_Set 0037              start_initialization 003A                      __end_of_isr 0038  
                    __end_of_seg 1000                     ?_Buzzer_Init 0070                     ?_Buzzer_Stop 0070  
       __end_ofBuzzer_Siren@tick 1004          Buzzer_Set@prescale_bits 0041                  ___llmod@divisor 0032  
                ___llmod@counter 003B               __end_of_Buzzer_Set 0251                         ??___lmul 007A  
              btn_action_10ms@iv 0020                      _CCPTMRSbits 029E                      __pdataBANK0 0069  
     updateDigits_SS_tt@hun_ones 0043       updateDigits_SS_tt@hun_tens 0042       updateDigits_SS_tt@sec_ones 0041  
     updateDigits_SS_tt@sec_tens 0040          _Timer2_Init_DisplayScan 0F09                      __pbssCOMMON 007A  
                      ___latbits 0003                    __pcstackBANK0 0020           ??_Timer1_Init_Tick10ms 0072  
           __end_of_movie_params 046D                    ??_internal_32 0072                         ?___lldiv 0024  
                       ?___llmod 0032                        clear_ram0 07F9                         _PIE1bits 0091  
          __end_of_Beep_Tick10ms 06D5                         _PIR1bits 0011              __end_of_internal_32 0EEE  
      ??_Timer2_Init_DisplayScan 0072                    movie_params@s 0039         accel_interval_ms@hold_ms 0072  
                      btn_init@b 0072                ___lmul@multiplier 0072               __end_of_digit_mask 1008  
                _btn_action_10ms 05D5                       _ANSELBbits 018D                         __ptext10 05D5  
                       __ptext11 0F62                         __ptext12 0658                         __ptext21 0FC7  
                       __ptext13 0372                         __ptext14 052F                         __ptext15 0060  
                       __ptext16 0F91                         __ptext17 06D5                         __ptext18 0EEE  
                       __ptext19 0EE0                         _btn_init 0F19                         _initMain 077B  
                       _tick10ms 0068                         _scan_idx 007A                      _internal_32 0EE5  
                     _RB0PPSbits 0E98                     _movie_params 0372                         int$flags 007E  
           Buzzer_Set@duty_10bit 003F                         _total_cs 0069                       _INTCONbits 000B  
        __end_of_btn_action_10ms 0658                         intlevel1 0000                 ___lldiv@dividend 0028  
                    _PPSLOCKbits 0E0F                _movie_interval_ms 052F               ?_movie_interval_ms 0032  
                  __pstringtext1 1000                    __pstringtext2 1004              ??_movie_interval_ms 007A  
               ___lldiv@quotient 002D        __end_of_movie_interval_ms 05D5  
