

Microchip Technology PIC LITE Macro Assembler V1.38 build -256452561 
                                                                                               Tue Sep 11 13:45:44 2018

Microchip Technology Omniscient Code Generator v1.38 (Free mode) build 201607010351
     1                           	processor	16F1717
     2                           	opt	pw 120
     3                           	opt	lm
     4                           	psect	stringtext,global,class=STRCODE,delta=2
     5                           	psect	cinit,global,class=CODE,merge=1,delta=2
     6                           	psect	cstackCOMMON,global,class=COMMON,space=1,delta=1
     7                           	psect	cstackBANK0,global,class=BANK0,space=1,delta=1
     8                           	psect	maintext,global,class=CODE,merge=1,split=1,delta=2
     9                           	psect	text1,local,class=CODE,merge=1,delta=2
    10                           	psect	text2,local,class=CODE,merge=1,delta=2
    11                           	psect	text3,local,class=CODE,merge=1,delta=2
    12                           	psect	text4,local,class=CODE,merge=1,delta=2
    13                           	psect	text5,local,class=CODE,merge=1,delta=2
    14                           	psect	text6,local,class=CODE,merge=1,delta=2
    15                           	psect	text7,local,class=CODE,merge=1,delta=2
    16                           	psect	text8,local,class=CODE,merge=1,delta=2
    17                           	psect	text9,local,class=CODE,merge=1,delta=2
    18                           	psect	text10,local,class=CODE,merge=1,delta=2
    19                           	psect	text11,local,class=CODE,merge=1,delta=2
    20                           	psect	text12,local,class=CODE,merge=1,delta=2
    21                           	psect	text13,local,class=CODE,merge=1,delta=2
    22                           	psect	text14,local,class=CODE,merge=1,delta=2
    23                           	psect	text15,local,class=CODE,merge=1,delta=2
    24                           	psect	text16,local,class=CODE,merge=1,delta=2
    25                           	psect	text17,local,class=CODE,merge=1,delta=2
    26                           	psect	text18,local,class=CODE,merge=1,delta=2
    27                           	psect	text19,local,class=CODE,merge=1,delta=2
    28                           	psect	text20,local,class=CODE,merge=1,delta=2
    29                           	dabs	1,0x7E,2
    30  0000                     	;# 
    31  0001                     	;# 
    32  0002                     	;# 
    33  0003                     	;# 
    34  0004                     	;# 
    35  0005                     	;# 
    36  0006                     	;# 
    37  0007                     	;# 
    38  0008                     	;# 
    39  0009                     	;# 
    40  000A                     	;# 
    41  000B                     	;# 
    42  000C                     	;# 
    43  000D                     	;# 
    44  000E                     	;# 
    45  000F                     	;# 
    46  0010                     	;# 
    47  0011                     	;# 
    48  0012                     	;# 
    49  0013                     	;# 
    50  0015                     	;# 
    51  0016                     	;# 
    52  0016                     	;# 
    53  0017                     	;# 
    54  0018                     	;# 
    55  0019                     	;# 
    56  001A                     	;# 
    57  001B                     	;# 
    58  001C                     	;# 
    59  008C                     	;# 
    60  008D                     	;# 
    61  008E                     	;# 
    62  008F                     	;# 
    63  0090                     	;# 
    64  0091                     	;# 
    65  0092                     	;# 
    66  0093                     	;# 
    67  0095                     	;# 
    68  0096                     	;# 
    69  0097                     	;# 
    70  0098                     	;# 
    71  0099                     	;# 
    72  009A                     	;# 
    73  009B                     	;# 
    74  009B                     	;# 
    75  009C                     	;# 
    76  009D                     	;# 
    77  009E                     	;# 
    78  009F                     	;# 
    79  010C                     	;# 
    80  010D                     	;# 
    81  010E                     	;# 
    82  010F                     	;# 
    83  0110                     	;# 
    84  0111                     	;# 
    85  0112                     	;# 
    86  0113                     	;# 
    87  0114                     	;# 
    88  0115                     	;# 
    89  0116                     	;# 
    90  0117                     	;# 
    91  0118                     	;# 
    92  0119                     	;# 
    93  011A                     	;# 
    94  011B                     	;# 
    95  011B                     	;# 
    96  011C                     	;# 
    97  018C                     	;# 
    98  018D                     	;# 
    99  018E                     	;# 
   100  018F                     	;# 
   101  0190                     	;# 
   102  0191                     	;# 
   103  0191                     	;# 
   104  0192                     	;# 
   105  0193                     	;# 
   106  0193                     	;# 
   107  0194                     	;# 
   108  0195                     	;# 
   109  0196                     	;# 
   110  0197                     	;# 
   111  0199                     	;# 
   112  0199                     	;# 
   113  0199                     	;# 
   114  019A                     	;# 
   115  019A                     	;# 
   116  019A                     	;# 
   117  019B                     	;# 
   118  019B                     	;# 
   119  019B                     	;# 
   120  019B                     	;# 
   121  019B                     	;# 
   122  019C                     	;# 
   123  019C                     	;# 
   124  019C                     	;# 
   125  019D                     	;# 
   126  019D                     	;# 
   127  019D                     	;# 
   128  019E                     	;# 
   129  019E                     	;# 
   130  019E                     	;# 
   131  019F                     	;# 
   132  019F                     	;# 
   133  019F                     	;# 
   134  019F                     	;# 
   135  019F                     	;# 
   136  020C                     	;# 
   137  020D                     	;# 
   138  020E                     	;# 
   139  020F                     	;# 
   140  0210                     	;# 
   141  0211                     	;# 
   142  0211                     	;# 
   143  0212                     	;# 
   144  0212                     	;# 
   145  0213                     	;# 
   146  0213                     	;# 
   147  0214                     	;# 
   148  0214                     	;# 
   149  0215                     	;# 
   150  0215                     	;# 
   151  0215                     	;# 
   152  0215                     	;# 
   153  0216                     	;# 
   154  0216                     	;# 
   155  0217                     	;# 
   156  0217                     	;# 
   157  028C                     	;# 
   158  028D                     	;# 
   159  028E                     	;# 
   160  028F                     	;# 
   161  0290                     	;# 
   162  0291                     	;# 
   163  0291                     	;# 
   164  0292                     	;# 
   165  0293                     	;# 
   166  0293                     	;# 
   167  0298                     	;# 
   168  0298                     	;# 
   169  0299                     	;# 
   170  029A                     	;# 
   171  029A                     	;# 
   172  029E                     	;# 
   173  030C                     	;# 
   174  030D                     	;# 
   175  030E                     	;# 
   176  030F                     	;# 
   177  0310                     	;# 
   178  038C                     	;# 
   179  038D                     	;# 
   180  038E                     	;# 
   181  038F                     	;# 
   182  0390                     	;# 
   183  0391                     	;# 
   184  0392                     	;# 
   185  0393                     	;# 
   186  0394                     	;# 
   187  0395                     	;# 
   188  0396                     	;# 
   189  0397                     	;# 
   190  0398                     	;# 
   191  0399                     	;# 
   192  039D                     	;# 
   193  039E                     	;# 
   194  039F                     	;# 
   195  0415                     	;# 
   196  0416                     	;# 
   197  0417                     	;# 
   198  041C                     	;# 
   199  041D                     	;# 
   200  041E                     	;# 
   201  0498                     	;# 
   202  0498                     	;# 
   203  0499                     	;# 
   204  049A                     	;# 
   205  049B                     	;# 
   206  049B                     	;# 
   207  049C                     	;# 
   208  049D                     	;# 
   209  049E                     	;# 
   210  049F                     	;# 
   211  0511                     	;# 
   212  0515                     	;# 
   213  0617                     	;# 
   214  0618                     	;# 
   215  0619                     	;# 
   216  0619                     	;# 
   217  061A                     	;# 
   218  061B                     	;# 
   219  061C                     	;# 
   220  061C                     	;# 
   221  0691                     	;# 
   222  0692                     	;# 
   223  0693                     	;# 
   224  0694                     	;# 
   225  0695                     	;# 
   226  0696                     	;# 
   227  0697                     	;# 
   228  0698                     	;# 
   229  0699                     	;# 
   230  069A                     	;# 
   231  069B                     	;# 
   232  069C                     	;# 
   233  069D                     	;# 
   234  069E                     	;# 
   235  069F                     	;# 
   236  0E0F                     	;# 
   237  0E10                     	;# 
   238  0E11                     	;# 
   239  0E12                     	;# 
   240  0E13                     	;# 
   241  0E14                     	;# 
   242  0E15                     	;# 
   243  0E17                     	;# 
   244  0E20                     	;# 
   245  0E21                     	;# 
   246  0E22                     	;# 
   247  0E24                     	;# 
   248  0E25                     	;# 
   249  0E28                     	;# 
   250  0E29                     	;# 
   251  0E2A                     	;# 
   252  0E2B                     	;# 
   253  0E90                     	;# 
   254  0E91                     	;# 
   255  0E92                     	;# 
   256  0E93                     	;# 
   257  0E94                     	;# 
   258  0E95                     	;# 
   259  0E96                     	;# 
   260  0E97                     	;# 
   261  0E98                     	;# 
   262  0E99                     	;# 
   263  0E9A                     	;# 
   264  0E9B                     	;# 
   265  0E9C                     	;# 
   266  0E9D                     	;# 
   267  0E9E                     	;# 
   268  0E9F                     	;# 
   269  0EA0                     	;# 
   270  0EA1                     	;# 
   271  0EA2                     	;# 
   272  0EA3                     	;# 
   273  0EA4                     	;# 
   274  0EA5                     	;# 
   275  0EA6                     	;# 
   276  0EA7                     	;# 
   277  0EA8                     	;# 
   278  0EA9                     	;# 
   279  0EAA                     	;# 
   280  0EAB                     	;# 
   281  0EAC                     	;# 
   282  0EAD                     	;# 
   283  0EAE                     	;# 
   284  0EAF                     	;# 
   285  0EB0                     	;# 
   286  0EB1                     	;# 
   287  0EB2                     	;# 
   288  0F0F                     	;# 
   289  0F10                     	;# 
   290  0F11                     	;# 
   291  0F12                     	;# 
   292  0F13                     	;# 
   293  0F14                     	;# 
   294  0F15                     	;# 
   295  0F16                     	;# 
   296  0F17                     	;# 
   297  0F18                     	;# 
   298  0F19                     	;# 
   299  0F1A                     	;# 
   300  0F1B                     	;# 
   301  0F1C                     	;# 
   302  0F1D                     	;# 
   303  0F1E                     	;# 
   304  0F1F                     	;# 
   305  0F20                     	;# 
   306  0F21                     	;# 
   307  0F22                     	;# 
   308  0F23                     	;# 
   309  0F24                     	;# 
   310  0F25                     	;# 
   311  0F26                     	;# 
   312  0F27                     	;# 
   313  0F28                     	;# 
   314  0F29                     	;# 
   315  0F2A                     	;# 
   316  0F2B                     	;# 
   317  0F2C                     	;# 
   318  0F2D                     	;# 
   319  0F2E                     	;# 
   320  0F2F                     	;# 
   321  0F30                     	;# 
   322  0F31                     	;# 
   323  0F32                     	;# 
   324  0F33                     	;# 
   325  0F34                     	;# 
   326  0F35                     	;# 
   327  0F36                     	;# 
   328  0F37                     	;# 
   329  0FE4                     	;# 
   330  0FE5                     	;# 
   331  0FE6                     	;# 
   332  0FE7                     	;# 
   333  0FE8                     	;# 
   334  0FE9                     	;# 
   335  0FEA                     	;# 
   336  0FEB                     	;# 
   337  0FED                     	;# 
   338  0FEE                     	;# 
   339  0FEF                     	;# 
   340  0000                     	;# 
   341  0001                     	;# 
   342  0002                     	;# 
   343  0003                     	;# 
   344  0004                     	;# 
   345  0005                     	;# 
   346  0006                     	;# 
   347  0007                     	;# 
   348  0008                     	;# 
   349  0009                     	;# 
   350  000A                     	;# 
   351  000B                     	;# 
   352  000C                     	;# 
   353  000D                     	;# 
   354  000E                     	;# 
   355  000F                     	;# 
   356  0010                     	;# 
   357  0011                     	;# 
   358  0012                     	;# 
   359  0013                     	;# 
   360  0015                     	;# 
   361  0016                     	;# 
   362  0016                     	;# 
   363  0017                     	;# 
   364  0018                     	;# 
   365  0019                     	;# 
   366  001A                     	;# 
   367  001B                     	;# 
   368  001C                     	;# 
   369  008C                     	;# 
   370  008D                     	;# 
   371  008E                     	;# 
   372  008F                     	;# 
   373  0090                     	;# 
   374  0091                     	;# 
   375  0092                     	;# 
   376  0093                     	;# 
   377  0095                     	;# 
   378  0096                     	;# 
   379  0097                     	;# 
   380  0098                     	;# 
   381  0099                     	;# 
   382  009A                     	;# 
   383  009B                     	;# 
   384  009B                     	;# 
   385  009C                     	;# 
   386  009D                     	;# 
   387  009E                     	;# 
   388  009F                     	;# 
   389  010C                     	;# 
   390  010D                     	;# 
   391  010E                     	;# 
   392  010F                     	;# 
   393  0110                     	;# 
   394  0111                     	;# 
   395  0112                     	;# 
   396  0113                     	;# 
   397  0114                     	;# 
   398  0115                     	;# 
   399  0116                     	;# 
   400  0117                     	;# 
   401  0118                     	;# 
   402  0119                     	;# 
   403  011A                     	;# 
   404  011B                     	;# 
   405  011B                     	;# 
   406  011C                     	;# 
   407  018C                     	;# 
   408  018D                     	;# 
   409  018E                     	;# 
   410  018F                     	;# 
   411  0190                     	;# 
   412  0191                     	;# 
   413  0191                     	;# 
   414  0192                     	;# 
   415  0193                     	;# 
   416  0193                     	;# 
   417  0194                     	;# 
   418  0195                     	;# 
   419  0196                     	;# 
   420  0197                     	;# 
   421  0199                     	;# 
   422  0199                     	;# 
   423  0199                     	;# 
   424  019A                     	;# 
   425  019A                     	;# 
   426  019A                     	;# 
   427  019B                     	;# 
   428  019B                     	;# 
   429  019B                     	;# 
   430  019B                     	;# 
   431  019B                     	;# 
   432  019C                     	;# 
   433  019C                     	;# 
   434  019C                     	;# 
   435  019D                     	;# 
   436  019D                     	;# 
   437  019D                     	;# 
   438  019E                     	;# 
   439  019E                     	;# 
   440  019E                     	;# 
   441  019F                     	;# 
   442  019F                     	;# 
   443  019F                     	;# 
   444  019F                     	;# 
   445  019F                     	;# 
   446  020C                     	;# 
   447  020D                     	;# 
   448  020E                     	;# 
   449  020F                     	;# 
   450  0210                     	;# 
   451  0211                     	;# 
   452  0211                     	;# 
   453  0212                     	;# 
   454  0212                     	;# 
   455  0213                     	;# 
   456  0213                     	;# 
   457  0214                     	;# 
   458  0214                     	;# 
   459  0215                     	;# 
   460  0215                     	;# 
   461  0215                     	;# 
   462  0215                     	;# 
   463  0216                     	;# 
   464  0216                     	;# 
   465  0217                     	;# 
   466  0217                     	;# 
   467  028C                     	;# 
   468  028D                     	;# 
   469  028E                     	;# 
   470  028F                     	;# 
   471  0290                     	;# 
   472  0291                     	;# 
   473  0291                     	;# 
   474  0292                     	;# 
   475  0293                     	;# 
   476  0293                     	;# 
   477  0298                     	;# 
   478  0298                     	;# 
   479  0299                     	;# 
   480  029A                     	;# 
   481  029A                     	;# 
   482  029E                     	;# 
   483  030C                     	;# 
   484  030D                     	;# 
   485  030E                     	;# 
   486  030F                     	;# 
   487  0310                     	;# 
   488  038C                     	;# 
   489  038D                     	;# 
   490  038E                     	;# 
   491  038F                     	;# 
   492  0390                     	;# 
   493  0391                     	;# 
   494  0392                     	;# 
   495  0393                     	;# 
   496  0394                     	;# 
   497  0395                     	;# 
   498  0396                     	;# 
   499  0397                     	;# 
   500  0398                     	;# 
   501  0399                     	;# 
   502  039D                     	;# 
   503  039E                     	;# 
   504  039F                     	;# 
   505  0415                     	;# 
   506  0416                     	;# 
   507  0417                     	;# 
   508  041C                     	;# 
   509  041D                     	;# 
   510  041E                     	;# 
   511  0498                     	;# 
   512  0498                     	;# 
   513  0499                     	;# 
   514  049A                     	;# 
   515  049B                     	;# 
   516  049B                     	;# 
   517  049C                     	;# 
   518  049D                     	;# 
   519  049E                     	;# 
   520  049F                     	;# 
   521  0511                     	;# 
   522  0515                     	;# 
   523  0617                     	;# 
   524  0618                     	;# 
   525  0619                     	;# 
   526  0619                     	;# 
   527  061A                     	;# 
   528  061B                     	;# 
   529  061C                     	;# 
   530  061C                     	;# 
   531  0691                     	;# 
   532  0692                     	;# 
   533  0693                     	;# 
   534  0694                     	;# 
   535  0695                     	;# 
   536  0696                     	;# 
   537  0697                     	;# 
   538  0698                     	;# 
   539  0699                     	;# 
   540  069A                     	;# 
   541  069B                     	;# 
   542  069C                     	;# 
   543  069D                     	;# 
   544  069E                     	;# 
   545  069F                     	;# 
   546  0E0F                     	;# 
   547  0E10                     	;# 
   548  0E11                     	;# 
   549  0E12                     	;# 
   550  0E13                     	;# 
   551  0E14                     	;# 
   552  0E15                     	;# 
   553  0E17                     	;# 
   554  0E20                     	;# 
   555  0E21                     	;# 
   556  0E22                     	;# 
   557  0E24                     	;# 
   558  0E25                     	;# 
   559  0E28                     	;# 
   560  0E29                     	;# 
   561  0E2A                     	;# 
   562  0E2B                     	;# 
   563  0E90                     	;# 
   564  0E91                     	;# 
   565  0E92                     	;# 
   566  0E93                     	;# 
   567  0E94                     	;# 
   568  0E95                     	;# 
   569  0E96                     	;# 
   570  0E97                     	;# 
   571  0E98                     	;# 
   572  0E99                     	;# 
   573  0E9A                     	;# 
   574  0E9B                     	;# 
   575  0E9C                     	;# 
   576  0E9D                     	;# 
   577  0E9E                     	;# 
   578  0E9F                     	;# 
   579  0EA0                     	;# 
   580  0EA1                     	;# 
   581  0EA2                     	;# 
   582  0EA3                     	;# 
   583  0EA4                     	;# 
   584  0EA5                     	;# 
   585  0EA6                     	;# 
   586  0EA7                     	;# 
   587  0EA8                     	;# 
   588  0EA9                     	;# 
   589  0EAA                     	;# 
   590  0EAB                     	;# 
   591  0EAC                     	;# 
   592  0EAD                     	;# 
   593  0EAE                     	;# 
   594  0EAF                     	;# 
   595  0EB0                     	;# 
   596  0EB1                     	;# 
   597  0EB2                     	;# 
   598  0F0F                     	;# 
   599  0F10                     	;# 
   600  0F11                     	;# 
   601  0F12                     	;# 
   602  0F13                     	;# 
   603  0F14                     	;# 
   604  0F15                     	;# 
   605  0F16                     	;# 
   606  0F17                     	;# 
   607  0F18                     	;# 
   608  0F19                     	;# 
   609  0F1A                     	;# 
   610  0F1B                     	;# 
   611  0F1C                     	;# 
   612  0F1D                     	;# 
   613  0F1E                     	;# 
   614  0F1F                     	;# 
   615  0F20                     	;# 
   616  0F21                     	;# 
   617  0F22                     	;# 
   618  0F23                     	;# 
   619  0F24                     	;# 
   620  0F25                     	;# 
   621  0F26                     	;# 
   622  0F27                     	;# 
   623  0F28                     	;# 
   624  0F29                     	;# 
   625  0F2A                     	;# 
   626  0F2B                     	;# 
   627  0F2C                     	;# 
   628  0F2D                     	;# 
   629  0F2E                     	;# 
   630  0F2F                     	;# 
   631  0F30                     	;# 
   632  0F31                     	;# 
   633  0F32                     	;# 
   634  0F33                     	;# 
   635  0F34                     	;# 
   636  0F35                     	;# 
   637  0F36                     	;# 
   638  0F37                     	;# 
   639  0FE4                     	;# 
   640  0FE5                     	;# 
   641  0FE6                     	;# 
   642  0FE7                     	;# 
   643  0FE8                     	;# 
   644  0FE9                     	;# 
   645  0FEA                     	;# 
   646  0FEB                     	;# 
   647  0FED                     	;# 
   648  0FEE                     	;# 
   649  0FEF                     	;# 
   650  0000                     	;# 
   651  0001                     	;# 
   652  0002                     	;# 
   653  0003                     	;# 
   654  0004                     	;# 
   655  0005                     	;# 
   656  0006                     	;# 
   657  0007                     	;# 
   658  0008                     	;# 
   659  0009                     	;# 
   660  000A                     	;# 
   661  000B                     	;# 
   662  000C                     	;# 
   663  000D                     	;# 
   664  000E                     	;# 
   665  000F                     	;# 
   666  0010                     	;# 
   667  0011                     	;# 
   668  0012                     	;# 
   669  0013                     	;# 
   670  0015                     	;# 
   671  0016                     	;# 
   672  0016                     	;# 
   673  0017                     	;# 
   674  0018                     	;# 
   675  0019                     	;# 
   676  001A                     	;# 
   677  001B                     	;# 
   678  001C                     	;# 
   679  008C                     	;# 
   680  008D                     	;# 
   681  008E                     	;# 
   682  008F                     	;# 
   683  0090                     	;# 
   684  0091                     	;# 
   685  0092                     	;# 
   686  0093                     	;# 
   687  0095                     	;# 
   688  0096                     	;# 
   689  0097                     	;# 
   690  0098                     	;# 
   691  0099                     	;# 
   692  009A                     	;# 
   693  009B                     	;# 
   694  009B                     	;# 
   695  009C                     	;# 
   696  009D                     	;# 
   697  009E                     	;# 
   698  009F                     	;# 
   699  010C                     	;# 
   700  010D                     	;# 
   701  010E                     	;# 
   702  010F                     	;# 
   703  0110                     	;# 
   704  0111                     	;# 
   705  0112                     	;# 
   706  0113                     	;# 
   707  0114                     	;# 
   708  0115                     	;# 
   709  0116                     	;# 
   710  0117                     	;# 
   711  0118                     	;# 
   712  0119                     	;# 
   713  011A                     	;# 
   714  011B                     	;# 
   715  011B                     	;# 
   716  011C                     	;# 
   717  018C                     	;# 
   718  018D                     	;# 
   719  018E                     	;# 
   720  018F                     	;# 
   721  0190                     	;# 
   722  0191                     	;# 
   723  0191                     	;# 
   724  0192                     	;# 
   725  0193                     	;# 
   726  0193                     	;# 
   727  0194                     	;# 
   728  0195                     	;# 
   729  0196                     	;# 
   730  0197                     	;# 
   731  0199                     	;# 
   732  0199                     	;# 
   733  0199                     	;# 
   734  019A                     	;# 
   735  019A                     	;# 
   736  019A                     	;# 
   737  019B                     	;# 
   738  019B                     	;# 
   739  019B                     	;# 
   740  019B                     	;# 
   741  019B                     	;# 
   742  019C                     	;# 
   743  019C                     	;# 
   744  019C                     	;# 
   745  019D                     	;# 
   746  019D                     	;# 
   747  019D                     	;# 
   748  019E                     	;# 
   749  019E                     	;# 
   750  019E                     	;# 
   751  019F                     	;# 
   752  019F                     	;# 
   753  019F                     	;# 
   754  019F                     	;# 
   755  019F                     	;# 
   756  020C                     	;# 
   757  020D                     	;# 
   758  020E                     	;# 
   759  020F                     	;# 
   760  0210                     	;# 
   761  0211                     	;# 
   762  0211                     	;# 
   763  0212                     	;# 
   764  0212                     	;# 
   765  0213                     	;# 
   766  0213                     	;# 
   767  0214                     	;# 
   768  0214                     	;# 
   769  0215                     	;# 
   770  0215                     	;# 
   771  0215                     	;# 
   772  0215                     	;# 
   773  0216                     	;# 
   774  0216                     	;# 
   775  0217                     	;# 
   776  0217                     	;# 
   777  028C                     	;# 
   778  028D                     	;# 
   779  028E                     	;# 
   780  028F                     	;# 
   781  0290                     	;# 
   782  0291                     	;# 
   783  0291                     	;# 
   784  0292                     	;# 
   785  0293                     	;# 
   786  0293                     	;# 
   787  0298                     	;# 
   788  0298                     	;# 
   789  0299                     	;# 
   790  029A                     	;# 
   791  029A                     	;# 
   792  029E                     	;# 
   793  030C                     	;# 
   794  030D                     	;# 
   795  030E                     	;# 
   796  030F                     	;# 
   797  0310                     	;# 
   798  038C                     	;# 
   799  038D                     	;# 
   800  038E                     	;# 
   801  038F                     	;# 
   802  0390                     	;# 
   803  0391                     	;# 
   804  0392                     	;# 
   805  0393                     	;# 
   806  0394                     	;# 
   807  0395                     	;# 
   808  0396                     	;# 
   809  0397                     	;# 
   810  0398                     	;# 
   811  0399                     	;# 
   812  039D                     	;# 
   813  039E                     	;# 
   814  039F                     	;# 
   815  0415                     	;# 
   816  0416                     	;# 
   817  0417                     	;# 
   818  041C                     	;# 
   819  041D                     	;# 
   820  041E                     	;# 
   821  0498                     	;# 
   822  0498                     	;# 
   823  0499                     	;# 
   824  049A                     	;# 
   825  049B                     	;# 
   826  049B                     	;# 
   827  049C                     	;# 
   828  049D                     	;# 
   829  049E                     	;# 
   830  049F                     	;# 
   831  0511                     	;# 
   832  0515                     	;# 
   833  0617                     	;# 
   834  0618                     	;# 
   835  0619                     	;# 
   836  0619                     	;# 
   837  061A                     	;# 
   838  061B                     	;# 
   839  061C                     	;# 
   840  061C                     	;# 
   841  0691                     	;# 
   842  0692                     	;# 
   843  0693                     	;# 
   844  0694                     	;# 
   845  0695                     	;# 
   846  0696                     	;# 
   847  0697                     	;# 
   848  0698                     	;# 
   849  0699                     	;# 
   850  069A                     	;# 
   851  069B                     	;# 
   852  069C                     	;# 
   853  069D                     	;# 
   854  069E                     	;# 
   855  069F                     	;# 
   856  0E0F                     	;# 
   857  0E10                     	;# 
   858  0E11                     	;# 
   859  0E12                     	;# 
   860  0E13                     	;# 
   861  0E14                     	;# 
   862  0E15                     	;# 
   863  0E17                     	;# 
   864  0E20                     	;# 
   865  0E21                     	;# 
   866  0E22                     	;# 
   867  0E24                     	;# 
   868  0E25                     	;# 
   869  0E28                     	;# 
   870  0E29                     	;# 
   871  0E2A                     	;# 
   872  0E2B                     	;# 
   873  0E90                     	;# 
   874  0E91                     	;# 
   875  0E92                     	;# 
   876  0E93                     	;# 
   877  0E94                     	;# 
   878  0E95                     	;# 
   879  0E96                     	;# 
   880  0E97                     	;# 
   881  0E98                     	;# 
   882  0E99                     	;# 
   883  0E9A                     	;# 
   884  0E9B                     	;# 
   885  0E9C                     	;# 
   886  0E9D                     	;# 
   887  0E9E                     	;# 
   888  0E9F                     	;# 
   889  0EA0                     	;# 
   890  0EA1                     	;# 
   891  0EA2                     	;# 
   892  0EA3                     	;# 
   893  0EA4                     	;# 
   894  0EA5                     	;# 
   895  0EA6                     	;# 
   896  0EA7                     	;# 
   897  0EA8                     	;# 
   898  0EA9                     	;# 
   899  0EAA                     	;# 
   900  0EAB                     	;# 
   901  0EAC                     	;# 
   902  0EAD                     	;# 
   903  0EAE                     	;# 
   904  0EAF                     	;# 
   905  0EB0                     	;# 
   906  0EB1                     	;# 
   907  0EB2                     	;# 
   908  0F0F                     	;# 
   909  0F10                     	;# 
   910  0F11                     	;# 
   911  0F12                     	;# 
   912  0F13                     	;# 
   913  0F14                     	;# 
   914  0F15                     	;# 
   915  0F16                     	;# 
   916  0F17                     	;# 
   917  0F18                     	;# 
   918  0F19                     	;# 
   919  0F1A                     	;# 
   920  0F1B                     	;# 
   921  0F1C                     	;# 
   922  0F1D                     	;# 
   923  0F1E                     	;# 
   924  0F1F                     	;# 
   925  0F20                     	;# 
   926  0F21                     	;# 
   927  0F22                     	;# 
   928  0F23                     	;# 
   929  0F24                     	;# 
   930  0F25                     	;# 
   931  0F26                     	;# 
   932  0F27                     	;# 
   933  0F28                     	;# 
   934  0F29                     	;# 
   935  0F2A                     	;# 
   936  0F2B                     	;# 
   937  0F2C                     	;# 
   938  0F2D                     	;# 
   939  0F2E                     	;# 
   940  0F2F                     	;# 
   941  0F30                     	;# 
   942  0F31                     	;# 
   943  0F32                     	;# 
   944  0F33                     	;# 
   945  0F34                     	;# 
   946  0F35                     	;# 
   947  0F36                     	;# 
   948  0F37                     	;# 
   949  0FE4                     	;# 
   950  0FE5                     	;# 
   951  0FE6                     	;# 
   952  0FE7                     	;# 
   953  0FE8                     	;# 
   954  0FE9                     	;# 
   955  0FEA                     	;# 
   956  0FEB                     	;# 
   957  0FED                     	;# 
   958  0FEE                     	;# 
   959  0FEF                     	;# 
   960  0000                     	;# 
   961  0001                     	;# 
   962  0002                     	;# 
   963  0003                     	;# 
   964  0004                     	;# 
   965  0005                     	;# 
   966  0006                     	;# 
   967  0007                     	;# 
   968  0008                     	;# 
   969  0009                     	;# 
   970  000A                     	;# 
   971  000B                     	;# 
   972  000C                     	;# 
   973  000D                     	;# 
   974  000E                     	;# 
   975  000F                     	;# 
   976  0010                     	;# 
   977  0011                     	;# 
   978  0012                     	;# 
   979  0013                     	;# 
   980  0015                     	;# 
   981  0016                     	;# 
   982  0016                     	;# 
   983  0017                     	;# 
   984  0018                     	;# 
   985  0019                     	;# 
   986  001A                     	;# 
   987  001B                     	;# 
   988  001C                     	;# 
   989  008C                     	;# 
   990  008D                     	;# 
   991  008E                     	;# 
   992  008F                     	;# 
   993  0090                     	;# 
   994  0091                     	;# 
   995  0092                     	;# 
   996  0093                     	;# 
   997  0095                     	;# 
   998  0096                     	;# 
   999  0097                     	;# 
  1000  0098                     	;# 
  1001  0099                     	;# 
  1002  009A                     	;# 
  1003  009B                     	;# 
  1004  009B                     	;# 
  1005  009C                     	;# 
  1006  009D                     	;# 
  1007  009E                     	;# 
  1008  009F                     	;# 
  1009  010C                     	;# 
  1010  010D                     	;# 
  1011  010E                     	;# 
  1012  010F                     	;# 
  1013  0110                     	;# 
  1014  0111                     	;# 
  1015  0112                     	;# 
  1016  0113                     	;# 
  1017  0114                     	;# 
  1018  0115                     	;# 
  1019  0116                     	;# 
  1020  0117                     	;# 
  1021  0118                     	;# 
  1022  0119                     	;# 
  1023  011A                     	;# 
  1024  011B                     	;# 
  1025  011B                     	;# 
  1026  011C                     	;# 
  1027  018C                     	;# 
  1028  018D                     	;# 
  1029  018E                     	;# 
  1030  018F                     	;# 
  1031  0190                     	;# 
  1032  0191                     	;# 
  1033  0191                     	;# 
  1034  0192                     	;# 
  1035  0193                     	;# 
  1036  0193                     	;# 
  1037  0194                     	;# 
  1038  0195                     	;# 
  1039  0196                     	;# 
  1040  0197                     	;# 
  1041  0199                     	;# 
  1042  0199                     	;# 
  1043  0199                     	;# 
  1044  019A                     	;# 
  1045  019A                     	;# 
  1046  019A                     	;# 
  1047  019B                     	;# 
  1048  019B                     	;# 
  1049  019B                     	;# 
  1050  019B                     	;# 
  1051  019B                     	;# 
  1052  019C                     	;# 
  1053  019C                     	;# 
  1054  019C                     	;# 
  1055  019D                     	;# 
  1056  019D                     	;# 
  1057  019D                     	;# 
  1058  019E                     	;# 
  1059  019E                     	;# 
  1060  019E                     	;# 
  1061  019F                     	;# 
  1062  019F                     	;# 
  1063  019F                     	;# 
  1064  019F                     	;# 
  1065  019F                     	;# 
  1066  020C                     	;# 
  1067  020D                     	;# 
  1068  020E                     	;# 
  1069  020F                     	;# 
  1070  0210                     	;# 
  1071  0211                     	;# 
  1072  0211                     	;# 
  1073  0212                     	;# 
  1074  0212                     	;# 
  1075  0213                     	;# 
  1076  0213                     	;# 
  1077  0214                     	;# 
  1078  0214                     	;# 
  1079  0215                     	;# 
  1080  0215                     	;# 
  1081  0215                     	;# 
  1082  0215                     	;# 
  1083  0216                     	;# 
  1084  0216                     	;# 
  1085  0217                     	;# 
  1086  0217                     	;# 
  1087  028C                     	;# 
  1088  028D                     	;# 
  1089  028E                     	;# 
  1090  028F                     	;# 
  1091  0290                     	;# 
  1092  0291                     	;# 
  1093  0291                     	;# 
  1094  0292                     	;# 
  1095  0293                     	;# 
  1096  0293                     	;# 
  1097  0298                     	;# 
  1098  0298                     	;# 
  1099  0299                     	;# 
  1100  029A                     	;# 
  1101  029A                     	;# 
  1102  029E                     	;# 
  1103  030C                     	;# 
  1104  030D                     	;# 
  1105  030E                     	;# 
  1106  030F                     	;# 
  1107  0310                     	;# 
  1108  038C                     	;# 
  1109  038D                     	;# 
  1110  038E                     	;# 
  1111  038F                     	;# 
  1112  0390                     	;# 
  1113  0391                     	;# 
  1114  0392                     	;# 
  1115  0393                     	;# 
  1116  0394                     	;# 
  1117  0395                     	;# 
  1118  0396                     	;# 
  1119  0397                     	;# 
  1120  0398                     	;# 
  1121  0399                     	;# 
  1122  039D                     	;# 
  1123  039E                     	;# 
  1124  039F                     	;# 
  1125  0415                     	;# 
  1126  0416                     	;# 
  1127  0417                     	;# 
  1128  041C                     	;# 
  1129  041D                     	;# 
  1130  041E                     	;# 
  1131  0498                     	;# 
  1132  0498                     	;# 
  1133  0499                     	;# 
  1134  049A                     	;# 
  1135  049B                     	;# 
  1136  049B                     	;# 
  1137  049C                     	;# 
  1138  049D                     	;# 
  1139  049E                     	;# 
  1140  049F                     	;# 
  1141  0511                     	;# 
  1142  0515                     	;# 
  1143  0617                     	;# 
  1144  0618                     	;# 
  1145  0619                     	;# 
  1146  0619                     	;# 
  1147  061A                     	;# 
  1148  061B                     	;# 
  1149  061C                     	;# 
  1150  061C                     	;# 
  1151  0691                     	;# 
  1152  0692                     	;# 
  1153  0693                     	;# 
  1154  0694                     	;# 
  1155  0695                     	;# 
  1156  0696                     	;# 
  1157  0697                     	;# 
  1158  0698                     	;# 
  1159  0699                     	;# 
  1160  069A                     	;# 
  1161  069B                     	;# 
  1162  069C                     	;# 
  1163  069D                     	;# 
  1164  069E                     	;# 
  1165  069F                     	;# 
  1166  0E0F                     	;# 
  1167  0E10                     	;# 
  1168  0E11                     	;# 
  1169  0E12                     	;# 
  1170  0E13                     	;# 
  1171  0E14                     	;# 
  1172  0E15                     	;# 
  1173  0E17                     	;# 
  1174  0E20                     	;# 
  1175  0E21                     	;# 
  1176  0E22                     	;# 
  1177  0E24                     	;# 
  1178  0E25                     	;# 
  1179  0E28                     	;# 
  1180  0E29                     	;# 
  1181  0E2A                     	;# 
  1182  0E2B                     	;# 
  1183  0E90                     	;# 
  1184  0E91                     	;# 
  1185  0E92                     	;# 
  1186  0E93                     	;# 
  1187  0E94                     	;# 
  1188  0E95                     	;# 
  1189  0E96                     	;# 
  1190  0E97                     	;# 
  1191  0E98                     	;# 
  1192  0E99                     	;# 
  1193  0E9A                     	;# 
  1194  0E9B                     	;# 
  1195  0E9C                     	;# 
  1196  0E9D                     	;# 
  1197  0E9E                     	;# 
  1198  0E9F                     	;# 
  1199  0EA0                     	;# 
  1200  0EA1                     	;# 
  1201  0EA2                     	;# 
  1202  0EA3                     	;# 
  1203  0EA4                     	;# 
  1204  0EA5                     	;# 
  1205  0EA6                     	;# 
  1206  0EA7                     	;# 
  1207  0EA8                     	;# 
  1208  0EA9                     	;# 
  1209  0EAA                     	;# 
  1210  0EAB                     	;# 
  1211  0EAC                     	;# 
  1212  0EAD                     	;# 
  1213  0EAE                     	;# 
  1214  0EAF                     	;# 
  1215  0EB0                     	;# 
  1216  0EB1                     	;# 
  1217  0EB2                     	;# 
  1218  0F0F                     	;# 
  1219  0F10                     	;# 
  1220  0F11                     	;# 
  1221  0F12                     	;# 
  1222  0F13                     	;# 
  1223  0F14                     	;# 
  1224  0F15                     	;# 
  1225  0F16                     	;# 
  1226  0F17                     	;# 
  1227  0F18                     	;# 
  1228  0F19                     	;# 
  1229  0F1A                     	;# 
  1230  0F1B                     	;# 
  1231  0F1C                     	;# 
  1232  0F1D                     	;# 
  1233  0F1E                     	;# 
  1234  0F1F                     	;# 
  1235  0F20                     	;# 
  1236  0F21                     	;# 
  1237  0F22                     	;# 
  1238  0F23                     	;# 
  1239  0F24                     	;# 
  1240  0F25                     	;# 
  1241  0F26                     	;# 
  1242  0F27                     	;# 
  1243  0F28                     	;# 
  1244  0F29                     	;# 
  1245  0F2A                     	;# 
  1246  0F2B                     	;# 
  1247  0F2C                     	;# 
  1248  0F2D                     	;# 
  1249  0F2E                     	;# 
  1250  0F2F                     	;# 
  1251  0F30                     	;# 
  1252  0F31                     	;# 
  1253  0F32                     	;# 
  1254  0F33                     	;# 
  1255  0F34                     	;# 
  1256  0F35                     	;# 
  1257  0F36                     	;# 
  1258  0F37                     	;# 
  1259  0FE4                     	;# 
  1260  0FE5                     	;# 
  1261  0FE6                     	;# 
  1262  0FE7                     	;# 
  1263  0FE8                     	;# 
  1264  0FE9                     	;# 
  1265  0FEA                     	;# 
  1266  0FEB                     	;# 
  1267  0FED                     	;# 
  1268  0FEE                     	;# 
  1269  0FEF                     	;# 
  1270  0000                     	;# 
  1271  0001                     	;# 
  1272  0002                     	;# 
  1273  0003                     	;# 
  1274  0004                     	;# 
  1275  0005                     	;# 
  1276  0006                     	;# 
  1277  0007                     	;# 
  1278  0008                     	;# 
  1279  0009                     	;# 
  1280  000A                     	;# 
  1281  000B                     	;# 
  1282  000C                     	;# 
  1283  000D                     	;# 
  1284  000E                     	;# 
  1285  000F                     	;# 
  1286  0010                     	;# 
  1287  0011                     	;# 
  1288  0012                     	;# 
  1289  0013                     	;# 
  1290  0015                     	;# 
  1291  0016                     	;# 
  1292  0016                     	;# 
  1293  0017                     	;# 
  1294  0018                     	;# 
  1295  0019                     	;# 
  1296  001A                     	;# 
  1297  001B                     	;# 
  1298  001C                     	;# 
  1299  008C                     	;# 
  1300  008D                     	;# 
  1301  008E                     	;# 
  1302  008F                     	;# 
  1303  0090                     	;# 
  1304  0091                     	;# 
  1305  0092                     	;# 
  1306  0093                     	;# 
  1307  0095                     	;# 
  1308  0096                     	;# 
  1309  0097                     	;# 
  1310  0098                     	;# 
  1311  0099                     	;# 
  1312  009A                     	;# 
  1313  009B                     	;# 
  1314  009B                     	;# 
  1315  009C                     	;# 
  1316  009D                     	;# 
  1317  009E                     	;# 
  1318  009F                     	;# 
  1319  010C                     	;# 
  1320  010D                     	;# 
  1321  010E                     	;# 
  1322  010F                     	;# 
  1323  0110                     	;# 
  1324  0111                     	;# 
  1325  0112                     	;# 
  1326  0113                     	;# 
  1327  0114                     	;# 
  1328  0115                     	;# 
  1329  0116                     	;# 
  1330  0117                     	;# 
  1331  0118                     	;# 
  1332  0119                     	;# 
  1333  011A                     	;# 
  1334  011B                     	;# 
  1335  011B                     	;# 
  1336  011C                     	;# 
  1337  018C                     	;# 
  1338  018D                     	;# 
  1339  018E                     	;# 
  1340  018F                     	;# 
  1341  0190                     	;# 
  1342  0191                     	;# 
  1343  0191                     	;# 
  1344  0192                     	;# 
  1345  0193                     	;# 
  1346  0193                     	;# 
  1347  0194                     	;# 
  1348  0195                     	;# 
  1349  0196                     	;# 
  1350  0197                     	;# 
  1351  0199                     	;# 
  1352  0199                     	;# 
  1353  0199                     	;# 
  1354  019A                     	;# 
  1355  019A                     	;# 
  1356  019A                     	;# 
  1357  019B                     	;# 
  1358  019B                     	;# 
  1359  019B                     	;# 
  1360  019B                     	;# 
  1361  019B                     	;# 
  1362  019C                     	;# 
  1363  019C                     	;# 
  1364  019C                     	;# 
  1365  019D                     	;# 
  1366  019D                     	;# 
  1367  019D                     	;# 
  1368  019E                     	;# 
  1369  019E                     	;# 
  1370  019E                     	;# 
  1371  019F                     	;# 
  1372  019F                     	;# 
  1373  019F                     	;# 
  1374  019F                     	;# 
  1375  019F                     	;# 
  1376  020C                     	;# 
  1377  020D                     	;# 
  1378  020E                     	;# 
  1379  020F                     	;# 
  1380  0210                     	;# 
  1381  0211                     	;# 
  1382  0211                     	;# 
  1383  0212                     	;# 
  1384  0212                     	;# 
  1385  0213                     	;# 
  1386  0213                     	;# 
  1387  0214                     	;# 
  1388  0214                     	;# 
  1389  0215                     	;# 
  1390  0215                     	;# 
  1391  0215                     	;# 
  1392  0215                     	;# 
  1393  0216                     	;# 
  1394  0216                     	;# 
  1395  0217                     	;# 
  1396  0217                     	;# 
  1397  028C                     	;# 
  1398  028D                     	;# 
  1399  028E                     	;# 
  1400  028F                     	;# 
  1401  0290                     	;# 
  1402  0291                     	;# 
  1403  0291                     	;# 
  1404  0292                     	;# 
  1405  0293                     	;# 
  1406  0293                     	;# 
  1407  0298                     	;# 
  1408  0298                     	;# 
  1409  0299                     	;# 
  1410  029A                     	;# 
  1411  029A                     	;# 
  1412  029E                     	;# 
  1413  030C                     	;# 
  1414  030D                     	;# 
  1415  030E                     	;# 
  1416  030F                     	;# 
  1417  0310                     	;# 
  1418  038C                     	;# 
  1419  038D                     	;# 
  1420  038E                     	;# 
  1421  038F                     	;# 
  1422  0390                     	;# 
  1423  0391                     	;# 
  1424  0392                     	;# 
  1425  0393                     	;# 
  1426  0394                     	;# 
  1427  0395                     	;# 
  1428  0396                     	;# 
  1429  0397                     	;# 
  1430  0398                     	;# 
  1431  0399                     	;# 
  1432  039D                     	;# 
  1433  039E                     	;# 
  1434  039F                     	;# 
  1435  0415                     	;# 
  1436  0416                     	;# 
  1437  0417                     	;# 
  1438  041C                     	;# 
  1439  041D                     	;# 
  1440  041E                     	;# 
  1441  0498                     	;# 
  1442  0498                     	;# 
  1443  0499                     	;# 
  1444  049A                     	;# 
  1445  049B                     	;# 
  1446  049B                     	;# 
  1447  049C                     	;# 
  1448  049D                     	;# 
  1449  049E                     	;# 
  1450  049F                     	;# 
  1451  0511                     	;# 
  1452  0515                     	;# 
  1453  0617                     	;# 
  1454  0618                     	;# 
  1455  0619                     	;# 
  1456  0619                     	;# 
  1457  061A                     	;# 
  1458  061B                     	;# 
  1459  061C                     	;# 
  1460  061C                     	;# 
  1461  0691                     	;# 
  1462  0692                     	;# 
  1463  0693                     	;# 
  1464  0694                     	;# 
  1465  0695                     	;# 
  1466  0696                     	;# 
  1467  0697                     	;# 
  1468  0698                     	;# 
  1469  0699                     	;# 
  1470  069A                     	;# 
  1471  069B                     	;# 
  1472  069C                     	;# 
  1473  069D                     	;# 
  1474  069E                     	;# 
  1475  069F                     	;# 
  1476  0E0F                     	;# 
  1477  0E10                     	;# 
  1478  0E11                     	;# 
  1479  0E12                     	;# 
  1480  0E13                     	;# 
  1481  0E14                     	;# 
  1482  0E15                     	;# 
  1483  0E17                     	;# 
  1484  0E20                     	;# 
  1485  0E21                     	;# 
  1486  0E22                     	;# 
  1487  0E24                     	;# 
  1488  0E25                     	;# 
  1489  0E28                     	;# 
  1490  0E29                     	;# 
  1491  0E2A                     	;# 
  1492  0E2B                     	;# 
  1493  0E90                     	;# 
  1494  0E91                     	;# 
  1495  0E92                     	;# 
  1496  0E93                     	;# 
  1497  0E94                     	;# 
  1498  0E95                     	;# 
  1499  0E96                     	;# 
  1500  0E97                     	;# 
  1501  0E98                     	;# 
  1502  0E99                     	;# 
  1503  0E9A                     	;# 
  1504  0E9B                     	;# 
  1505  0E9C                     	;# 
  1506  0E9D                     	;# 
  1507  0E9E                     	;# 
  1508  0E9F                     	;# 
  1509  0EA0                     	;# 
  1510  0EA1                     	;# 
  1511  0EA2                     	;# 
  1512  0EA3                     	;# 
  1513  0EA4                     	;# 
  1514  0EA5                     	;# 
  1515  0EA6                     	;# 
  1516  0EA7                     	;# 
  1517  0EA8                     	;# 
  1518  0EA9                     	;# 
  1519  0EAA                     	;# 
  1520  0EAB                     	;# 
  1521  0EAC                     	;# 
  1522  0EAD                     	;# 
  1523  0EAE                     	;# 
  1524  0EAF                     	;# 
  1525  0EB0                     	;# 
  1526  0EB1                     	;# 
  1527  0EB2                     	;# 
  1528  0F0F                     	;# 
  1529  0F10                     	;# 
  1530  0F11                     	;# 
  1531  0F12                     	;# 
  1532  0F13                     	;# 
  1533  0F14                     	;# 
  1534  0F15                     	;# 
  1535  0F16                     	;# 
  1536  0F17                     	;# 
  1537  0F18                     	;# 
  1538  0F19                     	;# 
  1539  0F1A                     	;# 
  1540  0F1B                     	;# 
  1541  0F1C                     	;# 
  1542  0F1D                     	;# 
  1543  0F1E                     	;# 
  1544  0F1F                     	;# 
  1545  0F20                     	;# 
  1546  0F21                     	;# 
  1547  0F22                     	;# 
  1548  0F23                     	;# 
  1549  0F24                     	;# 
  1550  0F25                     	;# 
  1551  0F26                     	;# 
  1552  0F27                     	;# 
  1553  0F28                     	;# 
  1554  0F29                     	;# 
  1555  0F2A                     	;# 
  1556  0F2B                     	;# 
  1557  0F2C                     	;# 
  1558  0F2D                     	;# 
  1559  0F2E                     	;# 
  1560  0F2F                     	;# 
  1561  0F30                     	;# 
  1562  0F31                     	;# 
  1563  0F32                     	;# 
  1564  0F33                     	;# 
  1565  0F34                     	;# 
  1566  0F35                     	;# 
  1567  0F36                     	;# 
  1568  0F37                     	;# 
  1569  0FE4                     	;# 
  1570  0FE5                     	;# 
  1571  0FE6                     	;# 
  1572  0FE7                     	;# 
  1573  0FE8                     	;# 
  1574  0FE9                     	;# 
  1575  0FEA                     	;# 
  1576  0FEB                     	;# 
  1577  0FED                     	;# 
  1578  0FEE                     	;# 
  1579  0FEF                     	;# 
  1580                           
  1581                           	psect	stringtext
  1582  0800                     __pstringtext:	
  1583  0800                     _font:	
  1584  0800  3400               	retlw	0
  1585  0801  3400               	retlw	0
  1586  0802  3400               	retlw	0
  1587  0803  3400               	retlw	0
  1588  0804  3400               	retlw	0
  1589  0805  3400               	retlw	0
  1590  0806  3400               	retlw	0
  1591  0807  345F               	retlw	95
  1592  0808  3400               	retlw	0
  1593  0809  3400               	retlw	0
  1594  080A  3400               	retlw	0
  1595  080B  3407               	retlw	7
  1596  080C  3400               	retlw	0
  1597  080D  3407               	retlw	7
  1598  080E  3400               	retlw	0
  1599  080F  3414               	retlw	20
  1600  0810  347F               	retlw	127
  1601  0811  3414               	retlw	20
  1602  0812  347F               	retlw	127
  1603  0813  3414               	retlw	20
  1604  0814  3424               	retlw	36
  1605  0815  342A               	retlw	42
  1606  0816  347F               	retlw	127
  1607  0817  342A               	retlw	42
  1608  0818  3412               	retlw	18
  1609  0819  3423               	retlw	35
  1610  081A  3413               	retlw	19
  1611  081B  3408               	retlw	8
  1612  081C  3464               	retlw	100
  1613  081D  3462               	retlw	98
  1614  081E  3436               	retlw	54
  1615  081F  3449               	retlw	73
  1616  0820  3455               	retlw	85
  1617  0821  3422               	retlw	34
  1618  0822  3450               	retlw	80
  1619  0823  3400               	retlw	0
  1620  0824  3405               	retlw	5
  1621  0825  3403               	retlw	3
  1622  0826  3400               	retlw	0
  1623  0827  3400               	retlw	0
  1624  0828  3400               	retlw	0
  1625  0829  341C               	retlw	28
  1626  082A  3422               	retlw	34
  1627  082B  3441               	retlw	65
  1628  082C  3400               	retlw	0
  1629  082D  3400               	retlw	0
  1630  082E  3441               	retlw	65
  1631  082F  3422               	retlw	34
  1632  0830  341C               	retlw	28
  1633  0831  3400               	retlw	0
  1634  0832  3414               	retlw	20
  1635  0833  3408               	retlw	8
  1636  0834  343E               	retlw	62
  1637  0835  3408               	retlw	8
  1638  0836  3414               	retlw	20
  1639  0837  3408               	retlw	8
  1640  0838  3408               	retlw	8
  1641  0839  343E               	retlw	62
  1642  083A  3408               	retlw	8
  1643  083B  3408               	retlw	8
  1644  083C  3400               	retlw	0
  1645  083D  3450               	retlw	80
  1646  083E  3430               	retlw	48
  1647  083F  3400               	retlw	0
  1648  0840  3400               	retlw	0
  1649  0841  3408               	retlw	8
  1650  0842  3408               	retlw	8
  1651  0843  3408               	retlw	8
  1652  0844  3408               	retlw	8
  1653  0845  3408               	retlw	8
  1654  0846  3400               	retlw	0
  1655  0847  3460               	retlw	96
  1656  0848  3460               	retlw	96
  1657  0849  3400               	retlw	0
  1658  084A  3400               	retlw	0
  1659  084B  3420               	retlw	32
  1660  084C  3410               	retlw	16
  1661  084D  3408               	retlw	8
  1662  084E  3404               	retlw	4
  1663  084F  3402               	retlw	2
  1664  0850  343E               	retlw	62
  1665  0851  3451               	retlw	81
  1666  0852  3449               	retlw	73
  1667  0853  3445               	retlw	69
  1668  0854  343E               	retlw	62
  1669  0855  3400               	retlw	0
  1670  0856  3442               	retlw	66
  1671  0857  347F               	retlw	127
  1672  0858  3440               	retlw	64
  1673  0859  3400               	retlw	0
  1674  085A  3442               	retlw	66
  1675  085B  3461               	retlw	97
  1676  085C  3451               	retlw	81
  1677  085D  3449               	retlw	73
  1678  085E  3446               	retlw	70
  1679  085F  3421               	retlw	33
  1680  0860  3441               	retlw	65
  1681  0861  3445               	retlw	69
  1682  0862  344B               	retlw	75
  1683  0863  3431               	retlw	49
  1684  0864  3418               	retlw	24
  1685  0865  3414               	retlw	20
  1686  0866  3412               	retlw	18
  1687  0867  347F               	retlw	127
  1688  0868  3410               	retlw	16
  1689  0869  3427               	retlw	39
  1690  086A  3445               	retlw	69
  1691  086B  3445               	retlw	69
  1692  086C  3445               	retlw	69
  1693  086D  3439               	retlw	57
  1694  086E  343C               	retlw	60
  1695  086F  344A               	retlw	74
  1696  0870  3449               	retlw	73
  1697  0871  3449               	retlw	73
  1698  0872  3430               	retlw	48
  1699  0873  3401               	retlw	1
  1700  0874  3471               	retlw	113
  1701  0875  3409               	retlw	9
  1702  0876  3405               	retlw	5
  1703  0877  3403               	retlw	3
  1704  0878  3436               	retlw	54
  1705  0879  3449               	retlw	73
  1706  087A  3449               	retlw	73
  1707  087B  3449               	retlw	73
  1708  087C  3436               	retlw	54
  1709  087D  3406               	retlw	6
  1710  087E  3449               	retlw	73
  1711  087F  3449               	retlw	73
  1712  0880  3429               	retlw	41
  1713  0881  341E               	retlw	30
  1714  0882  3400               	retlw	0
  1715  0883  3436               	retlw	54
  1716  0884  3436               	retlw	54
  1717  0885  3400               	retlw	0
  1718  0886  3400               	retlw	0
  1719  0887  3400               	retlw	0
  1720  0888  3456               	retlw	86
  1721  0889  3436               	retlw	54
  1722  088A  3400               	retlw	0
  1723  088B  3400               	retlw	0
  1724  088C  3408               	retlw	8
  1725  088D  3414               	retlw	20
  1726  088E  3422               	retlw	34
  1727  088F  3441               	retlw	65
  1728  0890  3400               	retlw	0
  1729  0891  3414               	retlw	20
  1730  0892  3414               	retlw	20
  1731  0893  3414               	retlw	20
  1732  0894  3414               	retlw	20
  1733  0895  3414               	retlw	20
  1734  0896  3400               	retlw	0
  1735  0897  3441               	retlw	65
  1736  0898  3422               	retlw	34
  1737  0899  3414               	retlw	20
  1738  089A  3408               	retlw	8
  1739  089B  3402               	retlw	2
  1740  089C  3401               	retlw	1
  1741  089D  3451               	retlw	81
  1742  089E  3409               	retlw	9
  1743  089F  3406               	retlw	6
  1744  08A0  3432               	retlw	50
  1745  08A1  3449               	retlw	73
  1746  08A2  3479               	retlw	121
  1747  08A3  3441               	retlw	65
  1748  08A4  343E               	retlw	62
  1749  08A5  347E               	retlw	126
  1750  08A6  3411               	retlw	17
  1751  08A7  3411               	retlw	17
  1752  08A8  3411               	retlw	17
  1753  08A9  347E               	retlw	126
  1754  08AA  347F               	retlw	127
  1755  08AB  3449               	retlw	73
  1756  08AC  3449               	retlw	73
  1757  08AD  3449               	retlw	73
  1758  08AE  3436               	retlw	54
  1759  08AF  343E               	retlw	62
  1760  08B0  3441               	retlw	65
  1761  08B1  3441               	retlw	65
  1762  08B2  3441               	retlw	65
  1763  08B3  3422               	retlw	34
  1764  08B4  347F               	retlw	127
  1765  08B5  3441               	retlw	65
  1766  08B6  3441               	retlw	65
  1767  08B7  3422               	retlw	34
  1768  08B8  341C               	retlw	28
  1769  08B9  347F               	retlw	127
  1770  08BA  3449               	retlw	73
  1771  08BB  3449               	retlw	73
  1772  08BC  3449               	retlw	73
  1773  08BD  3441               	retlw	65
  1774  08BE  347F               	retlw	127
  1775  08BF  3409               	retlw	9
  1776  08C0  3409               	retlw	9
  1777  08C1  3409               	retlw	9
  1778  08C2  3401               	retlw	1
  1779  08C3  343E               	retlw	62
  1780  08C4  3441               	retlw	65
  1781  08C5  3449               	retlw	73
  1782  08C6  3449               	retlw	73
  1783  08C7  347A               	retlw	122
  1784  08C8  347F               	retlw	127
  1785  08C9  3408               	retlw	8
  1786  08CA  3408               	retlw	8
  1787  08CB  3408               	retlw	8
  1788  08CC  347F               	retlw	127
  1789  08CD  3400               	retlw	0
  1790  08CE  3441               	retlw	65
  1791  08CF  347F               	retlw	127
  1792  08D0  3441               	retlw	65
  1793  08D1  3400               	retlw	0
  1794  08D2  3420               	retlw	32
  1795  08D3  3440               	retlw	64
  1796  08D4  3441               	retlw	65
  1797  08D5  343F               	retlw	63
  1798  08D6  3401               	retlw	1
  1799  08D7  347F               	retlw	127
  1800  08D8  3408               	retlw	8
  1801  08D9  3414               	retlw	20
  1802  08DA  3422               	retlw	34
  1803  08DB  3441               	retlw	65
  1804  08DC  347F               	retlw	127
  1805  08DD  3440               	retlw	64
  1806  08DE  3440               	retlw	64
  1807  08DF  3440               	retlw	64
  1808  08E0  3440               	retlw	64
  1809  08E1  347F               	retlw	127
  1810  08E2  3402               	retlw	2
  1811  08E3  340C               	retlw	12
  1812  08E4  3402               	retlw	2
  1813  08E5  347F               	retlw	127
  1814  08E6  347F               	retlw	127
  1815  08E7  3404               	retlw	4
  1816  08E8  3408               	retlw	8
  1817  08E9  3410               	retlw	16
  1818  08EA  347F               	retlw	127
  1819  08EB  343E               	retlw	62
  1820  08EC  3441               	retlw	65
  1821  08ED  3441               	retlw	65
  1822  08EE  3441               	retlw	65
  1823  08EF  343E               	retlw	62
  1824  08F0  347F               	retlw	127
  1825  08F1  3409               	retlw	9
  1826  08F2  3409               	retlw	9
  1827  08F3  3409               	retlw	9
  1828  08F4  3406               	retlw	6
  1829  08F5  343E               	retlw	62
  1830  08F6  3441               	retlw	65
  1831  08F7  3451               	retlw	81
  1832  08F8  3421               	retlw	33
  1833  08F9  345E               	retlw	94
  1834  08FA  347F               	retlw	127
  1835  08FB  3409               	retlw	9
  1836  08FC  3419               	retlw	25
  1837  08FD  3429               	retlw	41
  1838  08FE  3446               	retlw	70
  1839  08FF  3446               	retlw	70
  1840  0900  3449               	retlw	73
  1841  0901  3449               	retlw	73
  1842  0902  3449               	retlw	73
  1843  0903  3431               	retlw	49
  1844  0904  3401               	retlw	1
  1845  0905  3401               	retlw	1
  1846  0906  347F               	retlw	127
  1847  0907  3401               	retlw	1
  1848  0908  3401               	retlw	1
  1849  0909  343F               	retlw	63
  1850  090A  3440               	retlw	64
  1851  090B  3440               	retlw	64
  1852  090C  3440               	retlw	64
  1853  090D  343F               	retlw	63
  1854  090E  341F               	retlw	31
  1855  090F  3420               	retlw	32
  1856  0910  3440               	retlw	64
  1857  0911  3420               	retlw	32
  1858  0912  341F               	retlw	31
  1859  0913  343F               	retlw	63
  1860  0914  3440               	retlw	64
  1861  0915  3438               	retlw	56
  1862  0916  3440               	retlw	64
  1863  0917  343F               	retlw	63
  1864  0918  3463               	retlw	99
  1865  0919  3414               	retlw	20
  1866  091A  3408               	retlw	8
  1867  091B  3414               	retlw	20
  1868  091C  3463               	retlw	99
  1869  091D  3407               	retlw	7
  1870  091E  3408               	retlw	8
  1871  091F  3470               	retlw	112
  1872  0920  3408               	retlw	8
  1873  0921  3407               	retlw	7
  1874  0922  3461               	retlw	97
  1875  0923  3451               	retlw	81
  1876  0924  3449               	retlw	73
  1877  0925  3445               	retlw	69
  1878  0926  3443               	retlw	67
  1879  0927  3400               	retlw	0
  1880  0928  347F               	retlw	127
  1881  0929  3441               	retlw	65
  1882  092A  3441               	retlw	65
  1883  092B  3400               	retlw	0
  1884  092C  3402               	retlw	2
  1885  092D  3404               	retlw	4
  1886  092E  3408               	retlw	8
  1887  092F  3410               	retlw	16
  1888  0930  3420               	retlw	32
  1889  0931  3400               	retlw	0
  1890  0932  3441               	retlw	65
  1891  0933  3441               	retlw	65
  1892  0934  347F               	retlw	127
  1893  0935  3400               	retlw	0
  1894  0936  3404               	retlw	4
  1895  0937  3402               	retlw	2
  1896  0938  3401               	retlw	1
  1897  0939  3402               	retlw	2
  1898  093A  3404               	retlw	4
  1899  093B  3440               	retlw	64
  1900  093C  3440               	retlw	64
  1901  093D  3440               	retlw	64
  1902  093E  3440               	retlw	64
  1903  093F  3440               	retlw	64
  1904  0940  3400               	retlw	0
  1905  0941  3401               	retlw	1
  1906  0942  3402               	retlw	2
  1907  0943  3404               	retlw	4
  1908  0944  3400               	retlw	0
  1909  0945  3420               	retlw	32
  1910  0946  3454               	retlw	84
  1911  0947  3454               	retlw	84
  1912  0948  3454               	retlw	84
  1913  0949  3478               	retlw	120
  1914  094A  347F               	retlw	127
  1915  094B  3448               	retlw	72
  1916  094C  3444               	retlw	68
  1917  094D  3444               	retlw	68
  1918  094E  3438               	retlw	56
  1919  094F  3438               	retlw	56
  1920  0950  3444               	retlw	68
  1921  0951  3444               	retlw	68
  1922  0952  3444               	retlw	68
  1923  0953  3420               	retlw	32
  1924  0954  3438               	retlw	56
  1925  0955  3444               	retlw	68
  1926  0956  3444               	retlw	68
  1927  0957  3448               	retlw	72
  1928  0958  347F               	retlw	127
  1929  0959  3438               	retlw	56
  1930  095A  3454               	retlw	84
  1931  095B  3454               	retlw	84
  1932  095C  3454               	retlw	84
  1933  095D  3418               	retlw	24
  1934  095E  3408               	retlw	8
  1935  095F  347E               	retlw	126
  1936  0960  3409               	retlw	9
  1937  0961  3401               	retlw	1
  1938  0962  3402               	retlw	2
  1939  0963  340C               	retlw	12
  1940  0964  3452               	retlw	82
  1941  0965  3452               	retlw	82
  1942  0966  3452               	retlw	82
  1943  0967  343E               	retlw	62
  1944  0968  347F               	retlw	127
  1945  0969  3408               	retlw	8
  1946  096A  3404               	retlw	4
  1947  096B  3404               	retlw	4
  1948  096C  3478               	retlw	120
  1949  096D  3400               	retlw	0
  1950  096E  3444               	retlw	68
  1951  096F  347D               	retlw	125
  1952  0970  3440               	retlw	64
  1953  0971  3400               	retlw	0
  1954  0972  3420               	retlw	32
  1955  0973  3440               	retlw	64
  1956  0974  3444               	retlw	68
  1957  0975  343D               	retlw	61
  1958  0976  3400               	retlw	0
  1959  0977  347F               	retlw	127
  1960  0978  3410               	retlw	16
  1961  0979  3428               	retlw	40
  1962  097A  3444               	retlw	68
  1963  097B  3400               	retlw	0
  1964  097C  3400               	retlw	0
  1965  097D  3441               	retlw	65
  1966  097E  347F               	retlw	127
  1967  097F  3440               	retlw	64
  1968  0980  3400               	retlw	0
  1969  0981  347C               	retlw	124
  1970  0982  3404               	retlw	4
  1971  0983  3418               	retlw	24
  1972  0984  3404               	retlw	4
  1973  0985  3478               	retlw	120
  1974  0986  347C               	retlw	124
  1975  0987  3408               	retlw	8
  1976  0988  3404               	retlw	4
  1977  0989  3404               	retlw	4
  1978  098A  3478               	retlw	120
  1979  098B  3438               	retlw	56
  1980  098C  3444               	retlw	68
  1981  098D  3444               	retlw	68
  1982  098E  3444               	retlw	68
  1983  098F  3438               	retlw	56
  1984  0990  347C               	retlw	124
  1985  0991  3414               	retlw	20
  1986  0992  3414               	retlw	20
  1987  0993  3414               	retlw	20
  1988  0994  3408               	retlw	8
  1989  0995  3408               	retlw	8
  1990  0996  3414               	retlw	20
  1991  0997  3414               	retlw	20
  1992  0998  3418               	retlw	24
  1993  0999  347C               	retlw	124
  1994  099A  347C               	retlw	124
  1995  099B  3408               	retlw	8
  1996  099C  3404               	retlw	4
  1997  099D  3404               	retlw	4
  1998  099E  3408               	retlw	8
  1999  099F  3448               	retlw	72
  2000  09A0  3454               	retlw	84
  2001  09A1  3454               	retlw	84
  2002  09A2  3454               	retlw	84
  2003  09A3  3420               	retlw	32
  2004  09A4  3404               	retlw	4
  2005  09A5  343F               	retlw	63
  2006  09A6  3444               	retlw	68
  2007  09A7  3440               	retlw	64
  2008  09A8  3420               	retlw	32
  2009  09A9  343C               	retlw	60
  2010  09AA  3440               	retlw	64
  2011  09AB  3440               	retlw	64
  2012  09AC  3420               	retlw	32
  2013  09AD  347C               	retlw	124
  2014  09AE  341C               	retlw	28
  2015  09AF  3420               	retlw	32
  2016  09B0  3440               	retlw	64
  2017  09B1  3420               	retlw	32
  2018  09B2  341C               	retlw	28
  2019  09B3  343C               	retlw	60
  2020  09B4  3440               	retlw	64
  2021  09B5  3430               	retlw	48
  2022  09B6  3440               	retlw	64
  2023  09B7  343C               	retlw	60
  2024  09B8  3444               	retlw	68
  2025  09B9  3428               	retlw	40
  2026  09BA  3410               	retlw	16
  2027  09BB  3428               	retlw	40
  2028  09BC  3444               	retlw	68
  2029  09BD  340C               	retlw	12
  2030  09BE  3450               	retlw	80
  2031  09BF  3450               	retlw	80
  2032  09C0  3450               	retlw	80
  2033  09C1  343C               	retlw	60
  2034  09C2  3444               	retlw	68
  2035  09C3  3464               	retlw	100
  2036  09C4  3454               	retlw	84
  2037  09C5  344C               	retlw	76
  2038  09C6  3444               	retlw	68
  2039  09C7  3400               	retlw	0
  2040  09C8  3408               	retlw	8
  2041  09C9  3436               	retlw	54
  2042  09CA  3441               	retlw	65
  2043  09CB  3400               	retlw	0
  2044  09CC  3400               	retlw	0
  2045  09CD  3400               	retlw	0
  2046  09CE  347F               	retlw	127
  2047  09CF  3400               	retlw	0
  2048  09D0  3400               	retlw	0
  2049  09D1  3400               	retlw	0
  2050  09D2  3441               	retlw	65
  2051  09D3  3436               	retlw	54
  2052  09D4  3408               	retlw	8
  2053  09D5  3400               	retlw	0
  2054  09D6  3410               	retlw	16
  2055  09D7  3408               	retlw	8
  2056  09D8  3408               	retlw	8
  2057  09D9  3410               	retlw	16
  2058  09DA  3408               	retlw	8
  2059  09DB  3478               	retlw	120
  2060  09DC  3446               	retlw	70
  2061  09DD  3441               	retlw	65
  2062  09DE  3446               	retlw	70
  2063  09DF  3478               	retlw	120
  2064  09E0                     __end_of_font:	
  2065  000F                     _PORTDbits	set	15
  2066  008E                     _TRISCbits	set	142
  2067  008F                     _TRISD	set	143
  2068  008F                     _TRISDbits	set	143
  2069  04CB                     _IRCF0	set	1227
  2070  04CC                     _IRCF1	set	1228
  2071  04CD                     _IRCF2	set	1229
  2072  04CE                     _IRCF3	set	1230
  2073  04C8                     _SCS0	set	1224
  2074  04C9                     _SCS1	set	1225
  2075  04CF                     _SPLLEN	set	1231
  2076  010F                     _LATDbits	set	271
  2077  018E                     _ANSELCbits	set	398
  2078  018F                     _ANSELD	set	399
  2079  0212                     _SSP1ADD	set	530
  2080  0215                     _SSP1CON1	set	533
  2081  0215                     _SSP1CON1bits	set	533
  2082  0214                     _SSP1STAT	set	532
  2083  0214                     _SSP1STATbits	set	532
  2084  0211                     _SSPBUF	set	529
  2085  0E0F                     _PPSLOCK	set	3599
  2086  0E0F                     _PPSLOCKbits	set	3599
  2087  0E21                     _SSPDATPPSbits	set	3617
  2088  0EA3                     _RC3PPSbits	set	3747
  2089  0EA5                     _RC5PPSbits	set	3749
  2090  09E0                     STR_4:	
  2091  09E0  344E               	retlw	78	;'N'
  2092  09E1  346F               	retlw	111	;'o'
  2093  09E2  3420               	retlw	32	;' '
  2094  09E3  3445               	retlw	69	;'E'
  2095  09E4  3472               	retlw	114	;'r'
  2096  09E5  3472               	retlw	114	;'r'
  2097  09E6  3400               	retlw	0
  2098  09E7                     STR_3:	
  2099  09E7  3445               	retlw	69	;'E'
  2100  09E8  3472               	retlw	114	;'r'
  2101  09E9  3472               	retlw	114	;'r'
  2102  09EA  346F               	retlw	111	;'o'
  2103  09EB  3472               	retlw	114	;'r'
  2104  09EC  3400               	retlw	0
  2105  09ED                     STR_2:	
  2106  09ED  3454               	retlw	84	;'T'
  2107  09EE  3465               	retlw	101	;'e'
  2108  09EF  346D               	retlw	109	;'m'
  2109  09F0  3400               	retlw	0
  2110  09F1                     STR_1:	
  2111  09F1  3448               	retlw	72	;'H'
  2112  09F2  3475               	retlw	117	;'u'
  2113  09F3  346D               	retlw	109	;'m'
  2114  09F4  3400               	retlw	0
  2115                           
  2116                           ; #config settings
  2117  0000                     
  2118                           	psect	cinit
  2119  07FD                     start_initialization:	
  2120  07FD                     __initialization:	
  2121  07FD                     end_of_initialization:	
  2122                           ;End of C runtime variable initialization code
  2123                           
  2124  07FD                     __end_of__initialization:	
  2125  07FD  0020               	movlb	0
  2126  07FE  3187  2F30         	ljmp	_main	;jump to C main() function
  2127                           
  2128                           	psect	cstackCOMMON
  2129  0070                     __pcstackCOMMON:	
  2130  0070                     ?_SPI_Initialize:	
  2131  0070                     ??_SPI_Initialize:	
  2132                           ; 1 bytes @ 0x0
  2133                           
  2134  0070                     ?_LCD5110_init:	
  2135                           ; 1 bytes @ 0x0
  2136                           
  2137  0070                     ?_DHT11_Init:	
  2138                           ; 1 bytes @ 0x0
  2139                           
  2140  0070                     ??_DHT11_Init:	
  2141                           ; 1 bytes @ 0x0
  2142                           
  2143  0070                     ?_DHT11_Check:	
  2144                           ; 1 bytes @ 0x0
  2145                           
  2146  0070                     ??_DHT11_Check:	
  2147                           ; 1 bytes @ 0x0
  2148                           
  2149  0070                     ?_DHT11_Read:	
  2150                           ; 1 bytes @ 0x0
  2151                           
  2152  0070                     ??_DHT11_Read:	
  2153                           ; 1 bytes @ 0x0
  2154                           
  2155  0070                     ?_SPI_Exchange8bit:	
  2156                           ; 1 bytes @ 0x0
  2157                           
  2158  0070                     ??_SPI_Exchange8bit:	
  2159                           ; 1 bytes @ 0x0
  2160                           
  2161  0070                     ?_internal_16:	
  2162                           ; 1 bytes @ 0x0
  2163                           
  2164  0070                     ??_internal_16:	
  2165                           ; 1 bytes @ 0x0
  2166                           
  2167  0070                     ?_initMain:	
  2168                           ; 1 bytes @ 0x0
  2169                           
  2170  0070                     ??_initMain:	
  2171                           ; 1 bytes @ 0x0
  2172                           
  2173  0070                     ?_main:	
  2174                           ; 1 bytes @ 0x0
  2175                           
  2176  0070                     ?_SPI1_transfer:	
  2177                           ; 1 bytes @ 0x0
  2178                           
  2179  0070                     ?_LCD5110_sendChar:	
  2180                           ; 1 bytes @ 0x0
  2181                           
  2182  0070                     ?_LCD5110_clearScreen:	
  2183                           ; 1 bytes @ 0x0
  2184                           
  2185  0070                     ?___wmul:	
  2186                           ; 2 bytes @ 0x0
  2187                           
  2188  0070                     ?___lwdiv:	
  2189                           ; 2 bytes @ 0x0
  2190                           
  2191  0070                     ?___lwmod:	
  2192                           ; 2 bytes @ 0x0
  2193                           
  2194  0070                     SPI_Exchange8bit@data:	
  2195                           ; 2 bytes @ 0x0
  2196                           
  2197  0070                     ___wmul@multiplier:	
  2198                           ; 1 bytes @ 0x0
  2199                           
  2200  0070                     ___lwdiv@divisor:	
  2201                           ; 2 bytes @ 0x0
  2202                           
  2203  0070                     ___lwmod@divisor:	
  2204                           ; 2 bytes @ 0x0
  2205                           
  2206                           
  2207                           ; 2 bytes @ 0x0
  2208  0070                     	ds	1
  2209  0071                     ??_SPI1_transfer:	
  2210  0071                     SPI1_transfer@b:	
  2211                           ; 1 bytes @ 0x1
  2212                           
  2213  0071                     DHT11_Read@i:	
  2214                           ; 1 bytes @ 0x1
  2215                           
  2216                           
  2217                           ; 1 bytes @ 0x1
  2218  0071                     	ds	1
  2219  0072                     DHT11_Read@dat:	
  2220  0072                     ___wmul@multiplicand:	
  2221                           ; 1 bytes @ 0x2
  2222                           
  2223  0072                     ___lwdiv@dividend:	
  2224                           ; 2 bytes @ 0x2
  2225                           
  2226  0072                     ___lwmod@dividend:	
  2227                           ; 2 bytes @ 0x2
  2228                           
  2229                           
  2230                           ; 2 bytes @ 0x2
  2231  0072                     	ds	2
  2232  0074                     ??___wmul:	
  2233  0074                     ??___lwdiv:	
  2234                           ; 1 bytes @ 0x4
  2235                           
  2236  0074                     ??___lwmod:	
  2237                           ; 1 bytes @ 0x4
  2238                           
  2239  0074                     ___wmul@product:	
  2240                           ; 1 bytes @ 0x4
  2241                           
  2242                           
  2243                           ; 2 bytes @ 0x4
  2244  0074                     	ds	1
  2245  0075                     ___lwmod@counter:	
  2246  0075                     ___lwdiv@quotient:	
  2247                           ; 1 bytes @ 0x5
  2248                           
  2249                           
  2250                           ; 2 bytes @ 0x5
  2251  0075                     	ds	1
  2252  0076                     ?_LCD5110_send:	
  2253  0076                     LCD5110_send@dc:	
  2254                           ; 1 bytes @ 0x6
  2255                           
  2256                           
  2257                           ; 1 bytes @ 0x6
  2258  0076                     	ds	1
  2259  0077                     ??_LCD5110_send:	
  2260  0077                     LCD5110_send@data:	
  2261                           ; 1 bytes @ 0x7
  2262                           
  2263  0077                     ___lwdiv@counter:	
  2264                           ; 1 bytes @ 0x7
  2265                           
  2266                           
  2267                           ; 1 bytes @ 0x7
  2268  0077                     	ds	1
  2269  0078                     ??_LCD5110_init:	
  2270  0078                     ?_utoa:	
  2271                           ; 1 bytes @ 0x8
  2272                           
  2273  0078                     ?_set_xy:	
  2274                           ; 1 bytes @ 0x8
  2275                           
  2276  0078                     ??_LCD5110_sendChar:	
  2277                           ; 1 bytes @ 0x8
  2278                           
  2279  0078                     set_xy@x:	
  2280                           ; 1 bytes @ 0x8
  2281                           
  2282  0078                     utoa@val:	
  2283                           ; 2 bytes @ 0x8
  2284                           
  2285                           
  2286                           ; 2 bytes @ 0x8
  2287  0078                     	ds	2
  2288  007A                     set_xy@y:	
  2289  007A                     utoa@base:	
  2290                           ; 2 bytes @ 0xA
  2291                           
  2292                           
  2293                           ; 2 bytes @ 0xA
  2294  007A                     	ds	2
  2295  007C                     ??_LCD5110_clearScreen:	
  2296  007C                     ??_utoa:	
  2297                           ; 1 bytes @ 0xC
  2298                           
  2299  007C                     ??_set_xy:	
  2300                           ; 1 bytes @ 0xC
  2301                           
  2302                           
  2303                           ; 1 bytes @ 0xC
  2304  007C                     	ds	1
  2305  007D                     ??_itoa:	
  2306                           
  2307                           ; 1 bytes @ 0xD
  2308  007D                     	ds	1
  2309  007E                     ??_LCD5110_writeInteger:	
  2310                           
  2311                           	psect	cstackBANK0
  2312  0020                     __pcstackBANK0:	
  2313                           ; 1 bytes @ 0xE
  2314                           
  2315  0020                     LCD5110_sendChar@character:	
  2316  0020                     LCD5110_clearScreen@index:	
  2317                           ; 1 bytes @ 0x0
  2318                           
  2319  0020                     utoa@v:	
  2320                           ; 2 bytes @ 0x0
  2321                           
  2322                           
  2323                           ; 2 bytes @ 0x0
  2324  0020                     	ds	1
  2325  0021                     LCD5110_sendChar@column:	
  2326                           
  2327                           ; 1 bytes @ 0x1
  2328  0021                     	ds	1
  2329  0022                     utoa@c:	
  2330                           
  2331                           ; 1 bytes @ 0x2
  2332  0022                     	ds	1
  2333  0023                     utoa@buf:	
  2334                           
  2335                           ; 1 bytes @ 0x3
  2336  0023                     	ds	1
  2337  0024                     ?_itoa:	
  2338  0024                     itoa@val:	
  2339                           ; 1 bytes @ 0x4
  2340                           
  2341                           
  2342                           ; 2 bytes @ 0x4
  2343  0024                     	ds	2
  2344  0026                     itoa@base:	
  2345                           
  2346                           ; 2 bytes @ 0x6
  2347  0026                     	ds	2
  2348  0028                     itoa@cp:	
  2349                           
  2350                           ; 1 bytes @ 0x8
  2351  0028                     	ds	1
  2352  0029                     itoa@buf:	
  2353                           
  2354                           ; 1 bytes @ 0x9
  2355  0029                     	ds	1
  2356  002A                     ?_LCD5110_sendString:	
  2357  002A                     LCD5110_sendString@str:	
  2358                           ; 1 bytes @ 0xA
  2359                           
  2360                           
  2361                           ; 2 bytes @ 0xA
  2362  002A                     	ds	2
  2363  002C                     ??_LCD5110_sendString:	
  2364                           
  2365                           ; 1 bytes @ 0xC
  2366  002C                     	ds	1
  2367  002D                     ?_LCD5110_writeInteger:	
  2368  002D                     LCD5110_writeInteger@v:	
  2369                           ; 1 bytes @ 0xD
  2370                           
  2371                           
  2372                           ; 2 bytes @ 0xD
  2373  002D                     	ds	2
  2374  002F                     LCD5110_writeInteger@buf:	
  2375                           
  2376                           ; 8 bytes @ 0xF
  2377  002F                     	ds	8
  2378  0037                     ??_main:	
  2379                           
  2380                           ; 1 bytes @ 0x17
  2381  0037                     	ds	10
  2382  0041                     main@RH_Decimal:	
  2383                           
  2384                           ; 1 bytes @ 0x21
  2385  0041                     	ds	1
  2386  0042                     main@T_Decimal:	
  2387                           
  2388                           ; 1 bytes @ 0x22
  2389  0042                     	ds	1
  2390  0043                     main@Checksum:	
  2391                           
  2392                           ; 1 bytes @ 0x23
  2393  0043                     	ds	1
  2394  0044                     main@RH_Integral:	
  2395                           
  2396                           ; 1 bytes @ 0x24
  2397  0044                     	ds	1
  2398  0045                     main@T_Integral:	
  2399                           
  2400                           ; 1 bytes @ 0x25
  2401  0045                     	ds	1
  2402                           
  2403                           	psect	maintext
  2404  0730                     __pmaintext:	
  2405 ;;
  2406 ;;Main: autosize = 0, tempsize = 10, incstack = 0, save=0
  2407 ;;
  2408 ;; *************** function _main *****************
  2409 ;; Defined at:
  2410 ;;		line 100 in file "Main.c"
  2411 ;; Parameters:    Size  Location     Type
  2412 ;;		None
  2413 ;; Auto vars:     Size  Location     Type
  2414 ;;  T_Integral      1   37[BANK0 ] unsigned char 
  2415 ;;  RH_Integral     1   36[BANK0 ] unsigned char 
  2416 ;;  Checksum        1   35[BANK0 ] unsigned char 
  2417 ;;  T_Decimal       1   34[BANK0 ] unsigned char 
  2418 ;;  RH_Decimal      1   33[BANK0 ] unsigned char 
  2419 ;; Return value:  Size  Location     Type
  2420 ;;                  1    wreg      void 
  2421 ;; Registers used:
  2422 ;;		wreg, fsr0l, fsr0h, fsr1l, fsr1h, status,2, status,0, pclath, cstack
  2423 ;; Tracked objects:
  2424 ;;		On entry : B1F/0
  2425 ;;		On exit  : 0/0
  2426 ;;		Unchanged: 0/0
  2427 ;; Data sizes:     COMMON   BANK0   BANK1   BANK2   BANK3   BANK4   BANK5   BANK6   BANK7   BANK8   BANK9  BANK10  BANK1
      +1  BANK12
  2428 ;;      Params:         0       0       0       0       0       0       0       0       0       0       0       0       
      +0       0
  2429 ;;      Locals:         0       5       0       0       0       0       0       0       0       0       0       0       
      +0       0
  2430 ;;      Temps:          0      10       0       0       0       0       0       0       0       0       0       0       
      +0       0
  2431 ;;      Totals:         0      15       0       0       0       0       0       0       0       0       0       0       
      +0       0
  2432 ;;Total ram usage:       15 bytes
  2433 ;; Hardware stack levels required when called:    6
  2434 ;; This function calls:
  2435 ;;		_DHT11_Check
  2436 ;;		_DHT11_Init
  2437 ;;		_DHT11_Read
  2438 ;;		_LCD5110_clearScreen
  2439 ;;		_LCD5110_init
  2440 ;;		_LCD5110_send
  2441 ;;		_LCD5110_sendString
  2442 ;;		_LCD5110_writeInteger
  2443 ;;		_initMain
  2444 ;; This function is called by:
  2445 ;;		Startup code after reset
  2446 ;; This function uses a non-reentrant model
  2447 ;;
  2448                           
  2449                           
  2450                           ;psect for function _main
  2451  0730                     _main:	
  2452                           
  2453                           ;Main.c: 101: initMain();
  2454                           
  2455                           ;incstack = 0
  2456                           ; Regs used in _main: [wreg-fsr1h+status,2+status,0+pclath+cstack]
  2457  0730  3185  25F8  3187   	fcall	_initMain
  2458                           
  2459                           ;Main.c: 104: LCD5110_init();
  2460  0733  3186  265A  3187   	fcall	_LCD5110_init
  2461  0736                     L1:	
  2462                           
  2463                           ;Main.c: 105: LCD5110_clearScreen();
  2464  0736  3185  25CB  3187   	fcall	_LCD5110_clearScreen
  2465                           
  2466                           ;Main.c: 111: {
  2467                           ;Main.c: 113: DHT11_Init();
  2468                           
  2469                           ;Main.c: 107: char RH_Decimal,RH_Integral,T_Decimal,T_Integral;
  2470                           ;Main.c: 108: char Checksum;
  2471                           ;Main.c: 110: while(1)
  2472  0739  3185  250C  3187   	fcall	_DHT11_Init
  2473                           
  2474                           ;Main.c: 116: DHT11_Check();
  2475  073C  3184  24C7  3187   	fcall	_DHT11_Check
  2476                           
  2477                           ;Main.c: 119: RH_Integral = DHT11_Read();
  2478  073F  3185  2555  3187   	fcall	_DHT11_Read
  2479  0742  0020               	movlb	0	; select bank0
  2480  0743  00B7               	movwf	??_main
  2481  0744  0837               	movf	??_main,w
  2482  0745  00C4               	movwf	main@RH_Integral
  2483                           
  2484                           ;Main.c: 120: RH_Decimal = DHT11_Read();
  2485  0746  3185  2555  3187   	fcall	_DHT11_Read
  2486  0749  0020               	movlb	0	; select bank0
  2487  074A  00B7               	movwf	??_main
  2488  074B  0837               	movf	??_main,w
  2489  074C  00C1               	movwf	main@RH_Decimal
  2490                           
  2491                           ;Main.c: 121: T_Integral = DHT11_Read();
  2492  074D  3185  2555  3187   	fcall	_DHT11_Read
  2493  0750  0020               	movlb	0	; select bank0
  2494  0751  00B7               	movwf	??_main
  2495  0752  0837               	movf	??_main,w
  2496  0753  00C5               	movwf	main@T_Integral
  2497                           
  2498                           ;Main.c: 122: T_Decimal = DHT11_Read();
  2499  0754  3185  2555  3187   	fcall	_DHT11_Read
  2500  0757  0020               	movlb	0	; select bank0
  2501  0758  00B7               	movwf	??_main
  2502  0759  0837               	movf	??_main,w
  2503  075A  00C2               	movwf	main@T_Decimal
  2504                           
  2505                           ;Main.c: 123: Checksum = DHT11_Read();
  2506  075B  3185  2555  3187   	fcall	_DHT11_Read
  2507  075E  0020               	movlb	0	; select bank0
  2508  075F  00B7               	movwf	??_main
  2509  0760  0837               	movf	??_main,w
  2510  0761  00C3               	movwf	main@Checksum
  2511                           
  2512                           ;Main.c: 127: LCD5110_send(0x40 + 0, 0);
  2513  0762  01F6               	clrf	LCD5110_send@dc
  2514  0763  3040               	movlw	64
  2515  0764  3184  24E1  3187   	fcall	_LCD5110_send
  2516                           
  2517                           ;Main.c: 128: LCD5110_send(0x80 + 0, 0);
  2518  0767  01F6               	clrf	LCD5110_send@dc
  2519  0768  3080               	movlw	128
  2520  0769  3184  24E1  3187   	fcall	_LCD5110_send
  2521                           
  2522                           ;Main.c: 129: LCD5110_sendString("Hum");
  2523  076C  30F1               	movlw	low (STR_1| (0+32768))
  2524  076D  0020               	movlb	0	; select bank0
  2525  076E  00AA               	movwf	LCD5110_sendString@str
  2526  076F  3089               	movlw	high (STR_1| (0+32768))
  2527  0770  00AB               	movwf	LCD5110_sendString@str+1
  2528  0771  3185  2523  3187   	fcall	_LCD5110_sendString
  2529                           
  2530                           ;Main.c: 130: LCD5110_send(0x40 + 0, 0);
  2531  0774  01F6               	clrf	LCD5110_send@dc
  2532  0775  3040               	movlw	64
  2533  0776  3184  24E1  3187   	fcall	_LCD5110_send
  2534                           
  2535                           ;Main.c: 131: LCD5110_send(0x80 + 30, 0);
  2536  0779  01F6               	clrf	LCD5110_send@dc
  2537  077A  309E               	movlw	158
  2538  077B  3184  24E1  3187   	fcall	_LCD5110_send
  2539                           
  2540                           ;Main.c: 132: LCD5110_writeInteger(RH_Integral);
  2541  077E  0020               	movlb	0	; select bank0
  2542  077F  0844               	movf	main@RH_Integral,w
  2543  0780  00B7               	movwf	??_main
  2544  0781  01B8               	clrf	??_main+1
  2545  0782  0837               	movf	??_main,w
  2546  0783  00AD               	movwf	LCD5110_writeInteger@v
  2547  0784  0838               	movf	??_main+1,w
  2548  0785  00AE               	movwf	LCD5110_writeInteger@v+1
  2549  0786  3184  24F8  3187   	fcall	_LCD5110_writeInteger
  2550                           
  2551                           ;Main.c: 136: LCD5110_send(0x40 + 1, 0);
  2552  0789  01F6               	clrf	LCD5110_send@dc
  2553  078A  3041               	movlw	65
  2554  078B  3184  24E1  3187   	fcall	_LCD5110_send
  2555                           
  2556                           ;Main.c: 137: LCD5110_send(0x80 + 0, 0);
  2557  078E  01F6               	clrf	LCD5110_send@dc
  2558  078F  3080               	movlw	128
  2559  0790  3184  24E1  3187   	fcall	_LCD5110_send
  2560                           
  2561                           ;Main.c: 138: LCD5110_sendString("Tem");
  2562  0793  30ED               	movlw	low (STR_2| (0+32768))
  2563  0794  0020               	movlb	0	; select bank0
  2564  0795  00AA               	movwf	LCD5110_sendString@str
  2565  0796  3089               	movlw	high (STR_2| (0+32768))
  2566  0797  00AB               	movwf	LCD5110_sendString@str+1
  2567  0798  3185  2523  3187   	fcall	_LCD5110_sendString
  2568                           
  2569                           ;Main.c: 139: LCD5110_send(0x40 + 1, 0);
  2570  079B  01F6               	clrf	LCD5110_send@dc
  2571  079C  3041               	movlw	65
  2572  079D  3184  24E1  3187   	fcall	_LCD5110_send
  2573                           
  2574                           ;Main.c: 140: LCD5110_send(0x80 + 30, 0);
  2575  07A0  01F6               	clrf	LCD5110_send@dc
  2576  07A1  309E               	movlw	158
  2577  07A2  3184  24E1  3187   	fcall	_LCD5110_send
  2578                           
  2579                           ;Main.c: 141: LCD5110_writeInteger(T_Integral);
  2580  07A5  0020               	movlb	0	; select bank0
  2581  07A6  0845               	movf	main@T_Integral,w
  2582  07A7  00B7               	movwf	??_main
  2583  07A8  01B8               	clrf	??_main+1
  2584  07A9  0837               	movf	??_main,w
  2585  07AA  00AD               	movwf	LCD5110_writeInteger@v
  2586  07AB  0838               	movf	??_main+1,w
  2587  07AC  00AE               	movwf	LCD5110_writeInteger@v+1
  2588  07AD  3184  24F8  3187   	fcall	_LCD5110_writeInteger
  2589                           
  2590                           ;Main.c: 145: if(Checksum != (RH_Integral + RH_Decimal + T_Integral + T_Decimal))
  2591  07B0  0020               	movlb	0	; select bank0
  2592  07B1  0842               	movf	main@T_Decimal,w
  2593  07B2  00B7               	movwf	??_main
  2594  07B3  01B8               	clrf	??_main+1
  2595  07B4  0845               	movf	main@T_Integral,w
  2596  07B5  00B9               	movwf	??_main+2
  2597  07B6  01BA               	clrf	??_main+3
  2598  07B7  0844               	movf	main@RH_Integral,w
  2599  07B8  0741               	addwf	main@RH_Decimal,w
  2600  07B9  00BB               	movwf	??_main+4
  2601  07BA  01BC               	clrf	??_main+5
  2602  07BB  0DBC               	rlf	??_main+5,f
  2603  07BC  0839               	movf	??_main+2,w
  2604  07BD  073B               	addwf	??_main+4,w
  2605  07BE  00BD               	movwf	??_main+6
  2606  07BF  083A               	movf	??_main+3,w
  2607  07C0  3D3C               	addwfc	??_main+5,w
  2608  07C1  00BE               	movwf	??_main+7
  2609  07C2  0837               	movf	??_main,w
  2610  07C3  073D               	addwf	??_main+6,w
  2611  07C4  00BF               	movwf	??_main+8
  2612  07C5  0838               	movf	??_main+1,w
  2613  07C6  3D3E               	addwfc	??_main+7,w
  2614  07C7  00C0               	movwf	??_main+9
  2615  07C8  0843               	movf	main@Checksum,w
  2616  07C9  063F               	xorwf	??_main+8,w
  2617  07CA  0440               	iorwf	??_main+9,w
  2618  07CB  1903               	skipnz
  2619  07CC  2FDC               	goto	l1376
  2620                           
  2621                           ;Main.c: 146: {
  2622                           ;Main.c: 148: LCD5110_send(0x40 + 20, 0);
  2623  07CD  01F6               	clrf	LCD5110_send@dc
  2624  07CE  3054               	movlw	84
  2625  07CF  3184  24E1  3187   	fcall	_LCD5110_send
  2626                           
  2627                           ;Main.c: 149: LCD5110_send(0x80 + 0, 0);
  2628  07D2  01F6               	clrf	LCD5110_send@dc
  2629  07D3  3080               	movlw	128
  2630  07D4  3184  24E1  3187   	fcall	_LCD5110_send
  2631                           
  2632                           ;Main.c: 150: LCD5110_sendString("Error");
  2633  07D7  30E7               	movlw	low (STR_3| (0+32768))
  2634  07D8  0020               	movlb	0	; select bank0
  2635  07D9  00AA               	movwf	LCD5110_sendString@str
  2636  07DA  3089               	movlw	high (STR_3| (0+32768))
  2637  07DB  2FEA               	goto	L2
  2638  07DC                     l1376:	
  2639                           ;Main.c: 151: }
  2640                           
  2641                           
  2642                           ;Main.c: 153: else
  2643                           ;Main.c: 154: {
  2644                           ;Main.c: 156: LCD5110_send(0x40 + 20, 0);
  2645  07DC  01F6               	clrf	LCD5110_send@dc
  2646  07DD  3054               	movlw	84
  2647  07DE  3184  24E1  3187   	fcall	_LCD5110_send
  2648                           
  2649                           ;Main.c: 157: LCD5110_send(0x80 + 0, 0);
  2650  07E1  01F6               	clrf	LCD5110_send@dc
  2651  07E2  3080               	movlw	128
  2652  07E3  3184  24E1  3187   	fcall	_LCD5110_send
  2653                           
  2654                           ;Main.c: 158: LCD5110_sendString("No Err");
  2655  07E6  30E0               	movlw	low (STR_4| (0+32768))
  2656  07E7  0020               	movlb	0	; select bank0
  2657  07E8  00AA               	movwf	LCD5110_sendString@str
  2658  07E9  3089               	movlw	high (STR_4| (0+32768))
  2659  07EA                     L2:	
  2660  07EA  00AB               	movwf	LCD5110_sendString@str+1
  2661  07EB  3185  2523  3187   	fcall	_LCD5110_sendString
  2662                           
  2663                           ;Main.c: 159: }
  2664                           ;Main.c: 161: _delay((unsigned long)((1000)*(16000000/4000.0)));
  2665  07EE  3015               	movlw	21
  2666  07EF  0020               	movlb	0	; select bank0
  2667  07F0  00B9               	movwf	??_main+2
  2668  07F1  304B               	movlw	75
  2669  07F2  00B8               	movwf	??_main+1
  2670  07F3  30D1               	movlw	209
  2671  07F4  00B7               	movwf	??_main
  2672  07F5                     u1057:	
  2673  07F5  0BB7               	decfsz	??_main,f
  2674  07F6  2FF5               	goto	u1057
  2675  07F7  0BB8               	decfsz	??_main+1,f
  2676  07F8  2FF5               	goto	u1057
  2677  07F9  0BB9               	decfsz	??_main+2,f
  2678  07FA  2FF5               	goto	u1057
  2679  07FB  0000               	nop
  2680  07FC  2F36               	goto	L1
  2681  07FD                     __end_of_main:	
  2682                           ;Main.c: 163: }
  2683                           ;Main.c: 165: return;
  2684                           
  2685                           ;Main.c: 162: LCD5110_clearScreen();
  2686                           
  2687                           
  2688                           	psect	text1
  2689  05F8                     __ptext1:	
  2690 ;; *************** function _initMain *****************
  2691 ;; Defined at:
  2692 ;;		line 51 in file "Main.c"
  2693 ;; Parameters:    Size  Location     Type
  2694 ;;		None
  2695 ;; Auto vars:     Size  Location     Type
  2696 ;;		None
  2697 ;; Return value:  Size  Location     Type
  2698 ;;                  1    wreg      void 
  2699 ;; Registers used:
  2700 ;;		wreg, status,2, status,0, pclath, cstack
  2701 ;; Tracked objects:
  2702 ;;		On entry : 0/0
  2703 ;;		On exit  : 0/0
  2704 ;;		Unchanged: 0/0
  2705 ;; Data sizes:     COMMON   BANK0   BANK1   BANK2   BANK3   BANK4   BANK5   BANK6   BANK7   BANK8   BANK9  BANK10  BANK1
      +1  BANK12
  2706 ;;      Params:         0       0       0       0       0       0       0       0       0       0       0       0       
      +0       0
  2707 ;;      Locals:         0       0       0       0       0       0       0       0       0       0       0       0       
      +0       0
  2708 ;;      Temps:          0       0       0       0       0       0       0       0       0       0       0       0       
      +0       0
  2709 ;;      Totals:         0       0       0       0       0       0       0       0       0       0       0       0       
      +0       0
  2710 ;;Total ram usage:        0 bytes
  2711 ;; Hardware stack levels used:    1
  2712 ;; Hardware stack levels required when called:    1
  2713 ;; This function calls:
  2714 ;;		_SPI_Initialize
  2715 ;;		_internal_16
  2716 ;; This function is called by:
  2717 ;;		_main
  2718 ;; This function uses a non-reentrant model
  2719 ;;
  2720                           
  2721                           
  2722                           ;psect for function _initMain
  2723  05F8                     _initMain:	
  2724                           
  2725                           ;Main.c: 53: internal_16();
  2726                           
  2727                           ;incstack = 0
  2728                           ; Regs used in _initMain: [wreg+status,2+status,0+pclath+cstack]
  2729  05F8  3184  24D8  3185   	fcall	_internal_16
  2730                           
  2731                           ;Main.c: 56: TRISDbits.TRISD1 = 0;
  2732  05FB  0021               	movlb	1	; select bank1
  2733  05FC  108F               	bcf	15,1	;volatile
  2734                           
  2735                           ;Main.c: 59: LATDbits.LATD1 = 0;
  2736  05FD  0022               	movlb	2	; select bank2
  2737  05FE  108F               	bcf	15,1	;volatile
  2738                           
  2739                           ;Main.c: 62: TRISD = 0;
  2740  05FF  0021               	movlb	1	; select bank1
  2741  0600  018F               	clrf	15	;volatile
  2742                           
  2743                           ;Main.c: 63: ANSELD = 0;
  2744  0601  0023               	movlb	3	; select bank3
  2745  0602  018F               	clrf	15	;volatile
  2746                           
  2747                           ;Main.c: 66: ANSELCbits.ANSC3 = 0;
  2748  0603  118E               	bcf	14,3	;volatile
  2749                           
  2750                           ;Main.c: 67: ANSELCbits.ANSC4 = 0;
  2751  0604  120E               	bcf	14,4	;volatile
  2752                           
  2753                           ;Main.c: 68: ANSELCbits.ANSC5 = 0;
  2754  0605  128E               	bcf	14,5	;volatile
  2755                           
  2756                           ;Main.c: 70: TRISCbits.TRISC3 = 0;
  2757  0606  0021               	movlb	1	; select bank1
  2758  0607  118E               	bcf	14,3	;volatile
  2759                           
  2760                           ;Main.c: 71: TRISCbits.TRISC4 = 1;
  2761  0608  160E               	bsf	14,4	;volatile
  2762                           
  2763                           ;Main.c: 72: TRISCbits.TRISC5 = 0;
  2764  0609  128E               	bcf	14,5	;volatile
  2765                           
  2766                           ;Main.c: 74: PPSLOCK = 0x55;
  2767  060A  3055               	movlw	85
  2768  060B  003C               	movlb	28	; select bank28
  2769  060C  008F               	movwf	15	;volatile
  2770                           
  2771                           ;Main.c: 75: PPSLOCK = 0xAA;
  2772  060D  30AA               	movlw	170
  2773  060E  008F               	movwf	15	;volatile
  2774                           
  2775                           ;Main.c: 76: PPSLOCKbits.PPSLOCKED = 0x00;
  2776  060F  100F               	bcf	15,0	;volatile
  2777                           
  2778                           ;Main.c: 78: SSPDATPPSbits.SSPDATPPS = 0x14;
  2779  0610  0821               	movf	33,w	;volatile
  2780  0611  39E0               	andlw	-32
  2781  0612  3814               	iorlw	20
  2782  0613  00A1               	movwf	33	;volatile
  2783                           
  2784                           ;Main.c: 79: RC3PPSbits.RC3PPS = 0x10;
  2785  0614  003D               	movlb	29	; select bank29
  2786  0615  0823               	movf	35,w	;volatile
  2787  0616  39E0               	andlw	-32
  2788  0617  3810               	iorlw	16
  2789  0618  00A3               	movwf	35	;volatile
  2790                           
  2791                           ;Main.c: 80: RC5PPSbits.RC5PPS = 0x11;
  2792  0619  0825               	movf	37,w	;volatile
  2793  061A  39E0               	andlw	-32
  2794  061B  3811               	iorlw	17
  2795  061C  00A5               	movwf	37	;volatile
  2796                           
  2797                           ;Main.c: 82: PPSLOCK = 0x55;
  2798  061D  3055               	movlw	85
  2799  061E  003C               	movlb	28	; select bank28
  2800  061F  008F               	movwf	15	;volatile
  2801                           
  2802                           ;Main.c: 83: PPSLOCK = 0xAA;
  2803  0620  30AA               	movlw	170
  2804  0621  008F               	movwf	15	;volatile
  2805                           
  2806                           ;Main.c: 84: PPSLOCKbits.PPSLOCKED = 0x01;
  2807  0622  140F               	bsf	15,0	;volatile
  2808                           
  2809                           ;Main.c: 88: SPI_Initialize();
  2810  0623  3184  24C0         	fcall	_SPI_Initialize
  2811  0625  0008               	return
  2812  0626                     __end_of_initMain:	
  2813                           
  2814                           	psect	text2
  2815  04D8                     __ptext2:	
  2816 ;; *************** function _internal_16 *****************
  2817 ;; Defined at:
  2818 ;;		line 56 in file "16F1717_Internal.c"
  2819 ;; Parameters:    Size  Location     Type
  2820 ;;		None
  2821 ;; Auto vars:     Size  Location     Type
  2822 ;;		None
  2823 ;; Return value:  Size  Location     Type
  2824 ;;                  1    wreg      void 
  2825 ;; Registers used:
  2826 ;;		None
  2827 ;; Tracked objects:
  2828 ;;		On entry : 0/0
  2829 ;;		On exit  : 0/0
  2830 ;;		Unchanged: 0/0
  2831 ;; Data sizes:     COMMON   BANK0   BANK1   BANK2   BANK3   BANK4   BANK5   BANK6   BANK7   BANK8   BANK9  BANK10  BANK1
      +1  BANK12
  2832 ;;      Params:         0       0       0       0       0       0       0       0       0       0       0       0       
      +0       0
  2833 ;;      Locals:         0       0       0       0       0       0       0       0       0       0       0       0       
      +0       0
  2834 ;;      Temps:          0       0       0       0       0       0       0       0       0       0       0       0       
      +0       0
  2835 ;;      Totals:         0       0       0       0       0       0       0       0       0       0       0       0       
      +0       0
  2836 ;;Total ram usage:        0 bytes
  2837 ;; Hardware stack levels used:    1
  2838 ;; This function calls:
  2839 ;;		Nothing
  2840 ;; This function is called by:
  2841 ;;		_initMain
  2842 ;; This function uses a non-reentrant model
  2843 ;;
  2844                           
  2845                           
  2846                           ;psect for function _internal_16
  2847  04D8                     _internal_16:	
  2848                           
  2849                           ;16F1717_Internal.c: 58: SCS0 = 0;
  2850                           
  2851                           ;incstack = 0
  2852                           ; Regs used in _internal_16: []
  2853  04D8  0021               	movlb	1	; select bank1
  2854  04D9  1019               	bcf	25,0	;volatile
  2855                           
  2856                           ;16F1717_Internal.c: 59: SCS1 = 0;
  2857  04DA  1099               	bcf	25,1	;volatile
  2858                           
  2859                           ;16F1717_Internal.c: 62: IRCF0 = 1;
  2860  04DB  1599               	bsf	25,3	;volatile
  2861                           
  2862                           ;16F1717_Internal.c: 63: IRCF1 = 1;
  2863  04DC  1619               	bsf	25,4	;volatile
  2864                           
  2865                           ;16F1717_Internal.c: 64: IRCF2 = 1;
  2866  04DD  1699               	bsf	25,5	;volatile
  2867                           
  2868                           ;16F1717_Internal.c: 65: IRCF3 = 1;
  2869  04DE  1719               	bsf	25,6	;volatile
  2870                           
  2871                           ;16F1717_Internal.c: 68: SPLLEN = 0;
  2872  04DF  1399               	bcf	25,7	;volatile
  2873  04E0  0008               	return
  2874  04E1                     __end_of_internal_16:	
  2875                           
  2876                           	psect	text3
  2877  04C0                     __ptext3:	
  2878 ;; *************** function _SPI_Initialize *****************
  2879 ;; Defined at:
  2880 ;;		line 117 in file "SPI.c"
  2881 ;; Parameters:    Size  Location     Type
  2882 ;;		None
  2883 ;; Auto vars:     Size  Location     Type
  2884 ;;		None
  2885 ;; Return value:  Size  Location     Type
  2886 ;;                  1    wreg      void 
  2887 ;; Registers used:
  2888 ;;		wreg, status,2
  2889 ;; Tracked objects:
  2890 ;;		On entry : 0/0
  2891 ;;		On exit  : 0/0
  2892 ;;		Unchanged: 0/0
  2893 ;; Data sizes:     COMMON   BANK0   BANK1   BANK2   BANK3   BANK4   BANK5   BANK6   BANK7   BANK8   BANK9  BANK10  BANK1
      +1  BANK12
  2894 ;;      Params:         0       0       0       0       0       0       0       0       0       0       0       0       
      +0       0
  2895 ;;      Locals:         0       0       0       0       0       0       0       0       0       0       0       0       
      +0       0
  2896 ;;      Temps:          0       0       0       0       0       0       0       0       0       0       0       0       
      +0       0
  2897 ;;      Totals:         0       0       0       0       0       0       0       0       0       0       0       0       
      +0       0
  2898 ;;Total ram usage:        0 bytes
  2899 ;; Hardware stack levels used:    1
  2900 ;; This function calls:
  2901 ;;		Nothing
  2902 ;; This function is called by:
  2903 ;;		_initMain
  2904 ;; This function uses a non-reentrant model
  2905 ;;
  2906                           
  2907                           
  2908                           ;psect for function _SPI_Initialize
  2909  04C0                     _SPI_Initialize:	
  2910                           
  2911                           ;SPI.c: 122: SSP1STAT = 0x40;
  2912                           
  2913                           ;incstack = 0
  2914                           ; Regs used in _SPI_Initialize: [wreg+status,2]
  2915  04C0  3040               	movlw	64
  2916  04C1  0024               	movlb	4	; select bank4
  2917  04C2  0094               	movwf	20	;volatile
  2918                           
  2919                           ;SPI.c: 125: SSP1CON1 = 0x22;
  2920  04C3  3022               	movlw	34
  2921  04C4  0095               	movwf	21	;volatile
  2922                           
  2923                           ;SPI.c: 128: SSP1ADD = 0x00;
  2924  04C5  0192               	clrf	18	;volatile
  2925  04C6  0008               	return
  2926  04C7                     __end_of_SPI_Initialize:	
  2927                           
  2928                           	psect	text4
  2929  04F8                     __ptext4:	
  2930 ;; *************** function _LCD5110_writeInteger *****************
  2931 ;; Defined at:
  2932 ;;		line 265 in file "Nokia5110.c"
  2933 ;; Parameters:    Size  Location     Type
  2934 ;;  v               2   13[BANK0 ] int 
  2935 ;; Auto vars:     Size  Location     Type
  2936 ;;  buf             8   15[BANK0 ] unsigned char [8]
  2937 ;; Return value:  Size  Location     Type
  2938 ;;                  1    wreg      void 
  2939 ;; Registers used:
  2940 ;;		wreg, fsr0l, fsr0h, fsr1l, fsr1h, status,2, status,0, pclath, cstack
  2941 ;; Tracked objects:
  2942 ;;		On entry : 0/0
  2943 ;;		On exit  : 0/0
  2944 ;;		Unchanged: 0/0
  2945 ;; Data sizes:     COMMON   BANK0   BANK1   BANK2   BANK3   BANK4   BANK5   BANK6   BANK7   BANK8   BANK9  BANK10  BANK1
      +1  BANK12
  2946 ;;      Params:         0       2       0       0       0       0       0       0       0       0       0       0       
      +0       0
  2947 ;;      Locals:         0       8       0       0       0       0       0       0       0       0       0       0       
      +0       0
  2948 ;;      Temps:          0       0       0       0       0       0       0       0       0       0       0       0       
      +0       0
  2949 ;;      Totals:         0      10       0       0       0       0       0       0       0       0       0       0       
      +0       0
  2950 ;;Total ram usage:       10 bytes
  2951 ;; Hardware stack levels used:    1
  2952 ;; Hardware stack levels required when called:    5
  2953 ;; This function calls:
  2954 ;;		_LCD5110_sendString
  2955 ;;		_itoa
  2956 ;; This function is called by:
  2957 ;;		_main
  2958 ;; This function uses a non-reentrant model
  2959 ;;
  2960                           
  2961                           
  2962                           ;psect for function _LCD5110_writeInteger
  2963  04F8                     _LCD5110_writeInteger:	
  2964                           
  2965                           ;Nokia5110.c: 267: unsigned char buf[8];
  2966                           ;Nokia5110.c: 269: LCD5110_sendString(itoa(buf, v, 10));
  2967                           
  2968                           ;incstack = 0
  2969                           ; Regs used in _LCD5110_writeInteger: [wreg-fsr1h+status,2+status,0+pclath+cstack]
  2970  04F8  0020               	movlb	0	; select bank0
  2971  04F9  082E               	movf	LCD5110_writeInteger@v+1,w
  2972  04FA  00A5               	movwf	itoa@val+1
  2973  04FB  082D               	movf	LCD5110_writeInteger@v,w
  2974  04FC  00A4               	movwf	itoa@val
  2975  04FD  300A               	movlw	10
  2976  04FE  00A6               	movwf	itoa@base
  2977  04FF  3000               	movlw	0
  2978  0500  00A7               	movwf	itoa@base+1
  2979  0501  302F               	movlw	(low (LCD5110_writeInteger@buf| 0))& (0+255)
  2980  0502  3185  2579  3184   	fcall	_itoa
  2981  0505  0020               	movlb	0	; select bank0
  2982  0506  00AA               	movwf	LCD5110_sendString@str
  2983  0507  3000               	movlw	0
  2984  0508  00AB               	movwf	LCD5110_sendString@str+1
  2985  0509  3185  2523         	fcall	_LCD5110_sendString
  2986  050B  0008               	return
  2987  050C                     __end_of_LCD5110_writeInteger:	
  2988                           
  2989                           	psect	text5
  2990  0579                     __ptext5:	
  2991 ;; *************** function _itoa *****************
  2992 ;; Defined at:
  2993 ;;		line 4 in file "C:\Program Files (x86)\Microchip\xc8\v1.38\sources\common\itoa.c"
  2994 ;; Parameters:    Size  Location     Type
  2995 ;;  buf             1    wreg     PTR unsigned char 
  2996 ;;		 -> LCD5110_writeInteger@buf(8), 
  2997 ;;  val             2    4[BANK0 ] int 
  2998 ;;  base            2    6[BANK0 ] int 
  2999 ;; Auto vars:     Size  Location     Type
  3000 ;;  buf             1    9[BANK0 ] PTR unsigned char 
  3001 ;;		 -> LCD5110_writeInteger@buf(8), 
  3002 ;;  cp              1    8[BANK0 ] PTR unsigned char 
  3003 ;;		 -> LCD5110_writeInteger@buf(8), 
  3004 ;; Return value:  Size  Location     Type
  3005 ;;                  1    wreg      PTR unsigned char 
  3006 ;; Registers used:
  3007 ;;		wreg, fsr1l, fsr1h, status,2, status,0, pclath, cstack
  3008 ;; Tracked objects:
  3009 ;;		On entry : 0/0
  3010 ;;		On exit  : 0/0
  3011 ;;		Unchanged: 0/0
  3012 ;; Data sizes:     COMMON   BANK0   BANK1   BANK2   BANK3   BANK4   BANK5   BANK6   BANK7   BANK8   BANK9  BANK10  BANK1
      +1  BANK12
  3013 ;;      Params:         0       4       0       0       0       0       0       0       0       0       0       0       
      +0       0
  3014 ;;      Locals:         0       2       0       0       0       0       0       0       0       0       0       0       
      +0       0
  3015 ;;      Temps:          1       0       0       0       0       0       0       0       0       0       0       0       
      +0       0
  3016 ;;      Totals:         1       6       0       0       0       0       0       0       0       0       0       0       
      +0       0
  3017 ;;Total ram usage:        7 bytes
  3018 ;; Hardware stack levels used:    1
  3019 ;; Hardware stack levels required when called:    2
  3020 ;; This function calls:
  3021 ;;		_utoa
  3022 ;; This function is called by:
  3023 ;;		_LCD5110_writeInteger
  3024 ;; This function uses a non-reentrant model
  3025 ;;
  3026                           
  3027                           
  3028                           ;psect for function _itoa
  3029  0579                     _itoa:	
  3030                           
  3031                           ;incstack = 0
  3032                           ; Regs used in _itoa: [wreg+fsr1l+fsr1h+status,2+status,0+pclath+cstack]
  3033                           ;itoa@buf stored from wreg
  3034  0579  0020               	movlb	0	; select bank0
  3035  057A  00A9               	movwf	itoa@buf
  3036  057B  0829               	movf	itoa@buf,w
  3037  057C  00FD               	movwf	??_itoa
  3038  057D  087D               	movf	??_itoa,w
  3039  057E  00A8               	movwf	itoa@cp
  3040  057F  1FA5               	btfss	itoa@val+1,7
  3041  0580  2D91               	goto	l1216
  3042  0581  302D               	movlw	45
  3043  0582  00FD               	movwf	??_itoa
  3044  0583  0829               	movf	itoa@buf,w
  3045  0584  0086               	movwf	6
  3046  0585  0187               	clrf	7
  3047  0586  087D               	movf	??_itoa,w
  3048  0587  0081               	movwf	1
  3049  0588  3001               	movlw	1
  3050  0589  00FD               	movwf	??_itoa
  3051  058A  087D               	movf	??_itoa,w
  3052  058B  07A9               	addwf	itoa@buf,f
  3053  058C  09A4               	comf	itoa@val,f
  3054  058D  09A5               	comf	itoa@val+1,f
  3055  058E  0AA4               	incf	itoa@val,f
  3056  058F  1903               	skipnz
  3057  0590  0AA5               	incf	itoa@val+1,f
  3058  0591                     l1216:	
  3059  0591  0825               	movf	itoa@val+1,w
  3060  0592  00F9               	movwf	utoa@val+1
  3061  0593  0824               	movf	itoa@val,w
  3062  0594  00F8               	movwf	utoa@val
  3063  0595  0827               	movf	itoa@base+1,w
  3064  0596  00FB               	movwf	utoa@base+1
  3065  0597  0826               	movf	itoa@base,w
  3066  0598  00FA               	movwf	utoa@base
  3067  0599  0829               	movf	itoa@buf,w
  3068  059A  3186  26CE         	fcall	_utoa
  3069  059C  0020               	movlb	0	; select bank0
  3070  059D  0828               	movf	itoa@cp,w
  3071  059E  0008               	return
  3072  059F                     __end_of_itoa:	
  3073                           
  3074                           	psect	text6
  3075  06CE                     __ptext6:	
  3076 ;; *************** function _utoa *****************
  3077 ;; Defined at:
  3078 ;;		line 17 in file "C:\Program Files (x86)\Microchip\xc8\v1.38\sources\common\itoa.c"
  3079 ;; Parameters:    Size  Location     Type
  3080 ;;  buf             1    wreg     PTR unsigned char 
  3081 ;;		 -> LCD5110_writeInteger@buf(8), 
  3082 ;;  val             2    8[COMMON] unsigned int 
  3083 ;;  base            2   10[COMMON] int 
  3084 ;; Auto vars:     Size  Location     Type
  3085 ;;  buf             1    3[BANK0 ] PTR unsigned char 
  3086 ;;		 -> LCD5110_writeInteger@buf(8), 
  3087 ;;  v               2    0[BANK0 ] unsigned int 
  3088 ;;  c               1    2[BANK0 ] unsigned char 
  3089 ;; Return value:  Size  Location     Type
  3090 ;;                  1    wreg      PTR unsigned char 
  3091 ;; Registers used:
  3092 ;;		wreg, fsr1l, fsr1h, status,2, status,0, pclath, cstack
  3093 ;; Tracked objects:
  3094 ;;		On entry : 0/0
  3095 ;;		On exit  : 0/0
  3096 ;;		Unchanged: 0/0
  3097 ;; Data sizes:     COMMON   BANK0   BANK1   BANK2   BANK3   BANK4   BANK5   BANK6   BANK7   BANK8   BANK9  BANK10  BANK1
      +1  BANK12
  3098 ;;      Params:         4       0       0       0       0       0       0       0       0       0       0       0       
      +0       0
  3099 ;;      Locals:         0       4       0       0       0       0       0       0       0       0       0       0       
      +0       0
  3100 ;;      Temps:          1       0       0       0       0       0       0       0       0       0       0       0       
      +0       0
  3101 ;;      Totals:         5       4       0       0       0       0       0       0       0       0       0       0       
      +0       0
  3102 ;;Total ram usage:        9 bytes
  3103 ;; Hardware stack levels used:    1
  3104 ;; Hardware stack levels required when called:    1
  3105 ;; This function calls:
  3106 ;;		___lwdiv
  3107 ;;		___lwmod
  3108 ;; This function is called by:
  3109 ;;		_itoa
  3110 ;; This function uses a non-reentrant model
  3111 ;;
  3112                           
  3113                           
  3114                           ;psect for function _utoa
  3115  06CE                     _utoa:	
  3116                           
  3117                           ;incstack = 0
  3118                           ; Regs used in _utoa: [wreg+fsr1l+fsr1h+status,2+status,0+pclath+cstack]
  3119                           ;utoa@buf stored from wreg
  3120  06CE  0020               	movlb	0	; select bank0
  3121  06CF  00A3               	movwf	utoa@buf
  3122  06D0  0879               	movf	utoa@val+1,w
  3123  06D1  00A1               	movwf	utoa@v+1
  3124  06D2  0878               	movf	utoa@val,w
  3125  06D3  00A0               	movwf	utoa@v
  3126  06D4                     l1162:	
  3127  06D4  087B               	movf	utoa@base+1,w
  3128  06D5  00F1               	movwf	___lwdiv@divisor+1
  3129  06D6  087A               	movf	utoa@base,w
  3130  06D7  00F0               	movwf	___lwdiv@divisor
  3131  06D8  0821               	movf	utoa@v+1,w
  3132  06D9  00F3               	movwf	___lwdiv@dividend+1
  3133  06DA  0820               	movf	utoa@v,w
  3134  06DB  00F2               	movwf	___lwdiv@dividend
  3135  06DC  3186  2626  3186   	fcall	___lwdiv
  3136  06DF  0871               	movf	?___lwdiv+1,w
  3137  06E0  0020               	movlb	0	; select bank0
  3138  06E1  00A1               	movwf	utoa@v+1
  3139  06E2  0870               	movf	?___lwdiv,w
  3140  06E3  00A0               	movwf	utoa@v
  3141  06E4  3001               	movlw	1
  3142  06E5  00FC               	movwf	??_utoa
  3143  06E6  087C               	movf	??_utoa,w
  3144  06E7  07A3               	addwf	utoa@buf,f
  3145  06E8  0820               	movf	utoa@v,w
  3146  06E9  0421               	iorwf	utoa@v+1,w
  3147  06EA  1D03               	btfss	3,2
  3148  06EB  2ED4               	goto	l1162
  3149  06EC  0823               	movf	utoa@buf,w
  3150  06ED  0086               	movwf	6
  3151  06EE  0187               	clrf	7
  3152  06EF  0181               	clrf	1
  3153  06F0  3001               	movlw	1
  3154  06F1  02A3               	subwf	utoa@buf,f
  3155  06F2                     l1172:	
  3156  06F2  087B               	movf	utoa@base+1,w
  3157  06F3  00F1               	movwf	___lwmod@divisor+1
  3158  06F4  087A               	movf	utoa@base,w
  3159  06F5  00F0               	movwf	___lwmod@divisor
  3160  06F6  0879               	movf	utoa@val+1,w
  3161  06F7  00F3               	movwf	___lwmod@dividend+1
  3162  06F8  0878               	movf	utoa@val,w
  3163  06F9  00F2               	movwf	___lwmod@dividend
  3164  06FA  3185  259F  3186   	fcall	___lwmod
  3165  06FD  0870               	movf	?___lwmod,w
  3166  06FE  00FC               	movwf	??_utoa
  3167  06FF  087C               	movf	??_utoa,w
  3168  0700  0020               	movlb	0	; select bank0
  3169  0701  00A2               	movwf	utoa@c
  3170  0702  087B               	movf	utoa@base+1,w
  3171  0703  00F1               	movwf	___lwdiv@divisor+1
  3172  0704  087A               	movf	utoa@base,w
  3173  0705  00F0               	movwf	___lwdiv@divisor
  3174  0706  0879               	movf	utoa@val+1,w
  3175  0707  00F3               	movwf	___lwdiv@dividend+1
  3176  0708  0878               	movf	utoa@val,w
  3177  0709  00F2               	movwf	___lwdiv@dividend
  3178  070A  3186  2626  3186   	fcall	___lwdiv
  3179  070D  0871               	movf	?___lwdiv+1,w
  3180  070E  00F9               	movwf	utoa@val+1
  3181  070F  0870               	movf	?___lwdiv,w
  3182  0710  00F8               	movwf	utoa@val
  3183  0711  300A               	movlw	10
  3184  0712  0020               	movlb	0	; select bank0
  3185  0713  0222               	subwf	utoa@c,w
  3186  0714  1C03               	skipc
  3187  0715  2F1A               	goto	l505
  3188  0716  3007               	movlw	7
  3189  0717  00FC               	movwf	??_utoa
  3190  0718  087C               	movf	??_utoa,w
  3191  0719  07A2               	addwf	utoa@c,f
  3192  071A                     l505:	
  3193  071A  3030               	movlw	48
  3194  071B  00FC               	movwf	??_utoa
  3195  071C  087C               	movf	??_utoa,w
  3196  071D  07A2               	addwf	utoa@c,f
  3197  071E  0822               	movf	utoa@c,w
  3198  071F  00FC               	movwf	??_utoa
  3199  0720  0823               	movf	utoa@buf,w
  3200  0721  0086               	movwf	6
  3201  0722  0187               	clrf	7
  3202  0723  087C               	movf	??_utoa,w
  3203  0724  0081               	movwf	1
  3204  0725  3001               	movlw	1
  3205  0726  02A3               	subwf	utoa@buf,f
  3206  0727  0878               	movf	utoa@val,w
  3207  0728  0479               	iorwf	utoa@val+1,w
  3208  0729  1D03               	btfss	3,2
  3209  072A  2EF2               	goto	l1172
  3210                           
  3211                           ;	Return value of _utoa is never used
  3212  072B  3001               	movlw	1
  3213  072C  00FC               	movwf	??_utoa
  3214  072D  087C               	movf	??_utoa,w
  3215  072E  07A3               	addwf	utoa@buf,f
  3216  072F  0008               	return
  3217  0730                     __end_of_utoa:	
  3218                           
  3219                           	psect	text7
  3220  059F                     __ptext7:	
  3221 ;; *************** function ___lwmod *****************
  3222 ;; Defined at:
  3223 ;;		line 6 in file "C:\Program Files (x86)\Microchip\xc8\v1.38\sources\common\lwmod.c"
  3224 ;; Parameters:    Size  Location     Type
  3225 ;;  divisor         2    0[COMMON] unsigned int 
  3226 ;;  dividend        2    2[COMMON] unsigned int 
  3227 ;; Auto vars:     Size  Location     Type
  3228 ;;  counter         1    5[COMMON] unsigned char 
  3229 ;; Return value:  Size  Location     Type
  3230 ;;                  2    0[COMMON] unsigned int 
  3231 ;; Registers used:
  3232 ;;		wreg, status,2, status,0
  3233 ;; Tracked objects:
  3234 ;;		On entry : 0/0
  3235 ;;		On exit  : 0/0
  3236 ;;		Unchanged: 0/0
  3237 ;; Data sizes:     COMMON   BANK0   BANK1   BANK2   BANK3   BANK4   BANK5   BANK6   BANK7   BANK8   BANK9  BANK10  BANK1
      +1  BANK12
  3238 ;;      Params:         4       0       0       0       0       0       0       0       0       0       0       0       
      +0       0
  3239 ;;      Locals:         1       0       0       0       0       0       0       0       0       0       0       0       
      +0       0
  3240 ;;      Temps:          1       0       0       0       0       0       0       0       0       0       0       0       
      +0       0
  3241 ;;      Totals:         6       0       0       0       0       0       0       0       0       0       0       0       
      +0       0
  3242 ;;Total ram usage:        6 bytes
  3243 ;; Hardware stack levels used:    1
  3244 ;; This function calls:
  3245 ;;		Nothing
  3246 ;; This function is called by:
  3247 ;;		_utoa
  3248 ;; This function uses a non-reentrant model
  3249 ;;
  3250                           
  3251                           
  3252                           ;psect for function ___lwmod
  3253  059F                     ___lwmod:	
  3254                           
  3255                           ;incstack = 0
  3256                           ; Regs used in ___lwmod: [wreg+status,2+status,0]
  3257  059F  0870               	movf	___lwmod@divisor,w
  3258  05A0  0471               	iorwf	___lwmod@divisor+1,w
  3259  05A1  1903               	btfsc	3,2
  3260  05A2  2DC6               	goto	l1138
  3261  05A3  01F5               	clrf	___lwmod@counter
  3262  05A4  0AF5               	incf	___lwmod@counter,f
  3263  05A5                     l1128:	
  3264  05A5  1BF1               	btfsc	___lwmod@divisor+1,7
  3265  05A6  2DB1               	goto	l1130
  3266  05A7  3001               	movlw	1
  3267  05A8                     u665:	
  3268  05A8  35F0               	lslf	___lwmod@divisor,f
  3269  05A9  0DF1               	rlf	___lwmod@divisor+1,f
  3270  05AA  0B89               	decfsz	9,f
  3271  05AB  2DA8               	goto	u665
  3272  05AC  3001               	movlw	1
  3273  05AD  00F4               	movwf	??___lwmod
  3274  05AE  0874               	movf	??___lwmod,w
  3275  05AF  07F5               	addwf	___lwmod@counter,f
  3276  05B0  2DA5               	goto	l1128
  3277  05B1                     l1130:	
  3278  05B1  0871               	movf	___lwmod@divisor+1,w
  3279  05B2  0273               	subwf	___lwmod@dividend+1,w
  3280  05B3  1D03               	skipz
  3281  05B4  2DB7               	goto	u685
  3282  05B5  0870               	movf	___lwmod@divisor,w
  3283  05B6  0272               	subwf	___lwmod@dividend,w
  3284  05B7                     u685:	
  3285  05B7  1C03               	skipc
  3286  05B8  2DBD               	goto	l1134
  3287  05B9  0870               	movf	___lwmod@divisor,w
  3288  05BA  02F2               	subwf	___lwmod@dividend,f
  3289  05BB  0871               	movf	___lwmod@divisor+1,w
  3290  05BC  3BF3               	subwfb	___lwmod@dividend+1,f
  3291  05BD                     l1134:	
  3292  05BD  3001               	movlw	1
  3293  05BE                     u695:	
  3294  05BE  36F1               	lsrf	___lwmod@divisor+1,f
  3295  05BF  0CF0               	rrf	___lwmod@divisor,f
  3296  05C0  0B89               	decfsz	9,f
  3297  05C1  2DBE               	goto	u695
  3298  05C2  3001               	movlw	1
  3299  05C3  02F5               	subwf	___lwmod@counter,f
  3300  05C4  1D03               	btfss	3,2
  3301  05C5  2DB1               	goto	l1130
  3302  05C6                     l1138:	
  3303  05C6  0873               	movf	___lwmod@dividend+1,w
  3304  05C7  00F1               	movwf	?___lwmod+1
  3305  05C8  0872               	movf	___lwmod@dividend,w
  3306  05C9  00F0               	movwf	?___lwmod
  3307  05CA  0008               	return
  3308  05CB                     __end_of___lwmod:	
  3309                           
  3310                           	psect	text8
  3311  0626                     __ptext8:	
  3312 ;; *************** function ___lwdiv *****************
  3313 ;; Defined at:
  3314 ;;		line 6 in file "C:\Program Files (x86)\Microchip\xc8\v1.38\sources\common\lwdiv.c"
  3315 ;; Parameters:    Size  Location     Type
  3316 ;;  divisor         2    0[COMMON] unsigned int 
  3317 ;;  dividend        2    2[COMMON] unsigned int 
  3318 ;; Auto vars:     Size  Location     Type
  3319 ;;  quotient        2    5[COMMON] unsigned int 
  3320 ;;  counter         1    7[COMMON] unsigned char 
  3321 ;; Return value:  Size  Location     Type
  3322 ;;                  2    0[COMMON] unsigned int 
  3323 ;; Registers used:
  3324 ;;		wreg, status,2, status,0
  3325 ;; Tracked objects:
  3326 ;;		On entry : 0/0
  3327 ;;		On exit  : 0/0
  3328 ;;		Unchanged: 0/0
  3329 ;; Data sizes:     COMMON   BANK0   BANK1   BANK2   BANK3   BANK4   BANK5   BANK6   BANK7   BANK8   BANK9  BANK10  BANK1
      +1  BANK12
  3330 ;;      Params:         4       0       0       0       0       0       0       0       0       0       0       0       
      +0       0
  3331 ;;      Locals:         3       0       0       0       0       0       0       0       0       0       0       0       
      +0       0
  3332 ;;      Temps:          1       0       0       0       0       0       0       0       0       0       0       0       
      +0       0
  3333 ;;      Totals:         8       0       0       0       0       0       0       0       0       0       0       0       
      +0       0
  3334 ;;Total ram usage:        8 bytes
  3335 ;; Hardware stack levels used:    1
  3336 ;; This function calls:
  3337 ;;		Nothing
  3338 ;; This function is called by:
  3339 ;;		_utoa
  3340 ;; This function uses a non-reentrant model
  3341 ;;
  3342                           
  3343                           
  3344                           ;psect for function ___lwdiv
  3345  0626                     ___lwdiv:	
  3346                           
  3347                           ;incstack = 0
  3348                           ; Regs used in ___lwdiv: [wreg+status,2+status,0]
  3349  0626  01F5               	clrf	___lwdiv@quotient
  3350  0627  01F6               	clrf	___lwdiv@quotient+1
  3351  0628  0870               	movf	___lwdiv@divisor,w
  3352  0629  0471               	iorwf	___lwdiv@divisor+1,w
  3353  062A  1903               	btfsc	3,2
  3354  062B  2E55               	goto	l1116
  3355  062C  01F7               	clrf	___lwdiv@counter
  3356  062D  0AF7               	incf	___lwdiv@counter,f
  3357  062E                     l1104:	
  3358  062E  1BF1               	btfsc	___lwdiv@divisor+1,7
  3359  062F  2E3A               	goto	l1106
  3360  0630  3001               	movlw	1
  3361  0631                     u595:	
  3362  0631  35F0               	lslf	___lwdiv@divisor,f
  3363  0632  0DF1               	rlf	___lwdiv@divisor+1,f
  3364  0633  0B89               	decfsz	9,f
  3365  0634  2E31               	goto	u595
  3366  0635  3001               	movlw	1
  3367  0636  00F4               	movwf	??___lwdiv
  3368  0637  0874               	movf	??___lwdiv,w
  3369  0638  07F7               	addwf	___lwdiv@counter,f
  3370  0639  2E2E               	goto	l1104
  3371  063A                     l1106:	
  3372  063A  3001               	movlw	1
  3373  063B                     u615:	
  3374  063B  35F5               	lslf	___lwdiv@quotient,f
  3375  063C  0DF6               	rlf	___lwdiv@quotient+1,f
  3376  063D  0B89               	decfsz	9,f
  3377  063E  2E3B               	goto	u615
  3378  063F  0871               	movf	___lwdiv@divisor+1,w
  3379  0640  0273               	subwf	___lwdiv@dividend+1,w
  3380  0641  1D03               	skipz
  3381  0642  2E45               	goto	u625
  3382  0643  0870               	movf	___lwdiv@divisor,w
  3383  0644  0272               	subwf	___lwdiv@dividend,w
  3384  0645                     u625:	
  3385  0645  1C03               	skipc
  3386  0646  2E4C               	goto	l1112
  3387  0647  0870               	movf	___lwdiv@divisor,w
  3388  0648  02F2               	subwf	___lwdiv@dividend,f
  3389  0649  0871               	movf	___lwdiv@divisor+1,w
  3390  064A  3BF3               	subwfb	___lwdiv@dividend+1,f
  3391  064B  1475               	bsf	___lwdiv@quotient,0
  3392  064C                     l1112:	
  3393  064C  3001               	movlw	1
  3394  064D                     u635:	
  3395  064D  36F1               	lsrf	___lwdiv@divisor+1,f
  3396  064E  0CF0               	rrf	___lwdiv@divisor,f
  3397  064F  0B89               	decfsz	9,f
  3398  0650  2E4D               	goto	u635
  3399  0651  3001               	movlw	1
  3400  0652  02F7               	subwf	___lwdiv@counter,f
  3401  0653  1D03               	btfss	3,2
  3402  0654  2E3A               	goto	l1106
  3403  0655                     l1116:	
  3404  0655  0876               	movf	___lwdiv@quotient+1,w
  3405  0656  00F1               	movwf	?___lwdiv+1
  3406  0657  0875               	movf	___lwdiv@quotient,w
  3407  0658  00F0               	movwf	?___lwdiv
  3408  0659  0008               	return
  3409  065A                     __end_of___lwdiv:	
  3410                           
  3411                           	psect	text9
  3412  0523                     __ptext9:	
  3413 ;; *************** function _LCD5110_sendString *****************
  3414 ;; Defined at:
  3415 ;;		line 246 in file "Nokia5110.c"
  3416 ;; Parameters:    Size  Location     Type
  3417 ;;  str             2   10[BANK0 ] PTR const unsigned char 
  3418 ;;		 -> LCD5110_writeInteger@buf(8), STR_4(7), STR_3(6), STR_2(4), 
  3419 ;;		 -> STR_1(4), 
  3420 ;; Auto vars:     Size  Location     Type
  3421 ;;		None
  3422 ;; Return value:  Size  Location     Type
  3423 ;;                  1    wreg      void 
  3424 ;; Registers used:
  3425 ;;		wreg, fsr0l, fsr0h, status,2, status,0, pclath, cstack
  3426 ;; Tracked objects:
  3427 ;;		On entry : 0/0
  3428 ;;		On exit  : 0/0
  3429 ;;		Unchanged: 0/0
  3430 ;; Data sizes:     COMMON   BANK0   BANK1   BANK2   BANK3   BANK4   BANK5   BANK6   BANK7   BANK8   BANK9  BANK10  BANK1
      +1  BANK12
  3431 ;;      Params:         0       2       0       0       0       0       0       0       0       0       0       0       
      +0       0
  3432 ;;      Locals:         0       0       0       0       0       0       0       0       0       0       0       0       
      +0       0
  3433 ;;      Temps:          0       1       0       0       0       0       0       0       0       0       0       0       
      +0       0
  3434 ;;      Totals:         0       3       0       0       0       0       0       0       0       0       0       0       
      +0       0
  3435 ;;Total ram usage:        3 bytes
  3436 ;; Hardware stack levels used:    1
  3437 ;; Hardware stack levels required when called:    4
  3438 ;; This function calls:
  3439 ;;		_LCD5110_sendChar
  3440 ;; This function is called by:
  3441 ;;		_main
  3442 ;;		_LCD5110_writeInteger
  3443 ;; This function uses a non-reentrant model
  3444 ;;
  3445                           
  3446                           
  3447                           ;psect for function _LCD5110_sendString
  3448  0523                     _LCD5110_sendString:	
  3449  0523                     l1202:	
  3450                           ;Nokia5110.c: 248: while (*str)
  3451                           
  3452                           ;incstack = 0
  3453                           ; Regs used in _LCD5110_sendString: [wreg-fsr0h+status,2+status,0+pclath+cstack]
  3454                           
  3455  0523  0020               	movlb	0	; select bank0
  3456  0524  082A               	movf	LCD5110_sendString@str,w
  3457  0525  0084               	movwf	4
  3458  0526  082B               	movf	LCD5110_sendString@str+1,w
  3459  0527  0085               	movwf	5
  3460  0528  0012               	moviw fsr0++
  3461  0529  1903               	btfsc	3,2
  3462  052A  0008               	return
  3463                           
  3464                           ;Nokia5110.c: 249: {
  3465                           ;Nokia5110.c: 250: LCD5110_sendChar(*str);
  3466  052B  0020               	movlb	0	; select bank0
  3467  052C  082A               	movf	LCD5110_sendString@str,w
  3468  052D  0084               	movwf	4
  3469  052E  082B               	movf	LCD5110_sendString@str+1,w
  3470  052F  0085               	movwf	5
  3471  0530  0800               	movf	0,w	;code access
  3472  0531  3186  268F  3185   	fcall	_LCD5110_sendChar
  3473                           
  3474                           ;Nokia5110.c: 251: str++;
  3475  0534  3001               	movlw	1
  3476  0535  0020               	movlb	0	; select bank0
  3477  0536  07AA               	addwf	LCD5110_sendString@str,f
  3478  0537  3000               	movlw	0
  3479  0538  3DAB               	addwfc	LCD5110_sendString@str+1,f
  3480  0539  2D23               	goto	l1202
  3481  053A                     __end_of_LCD5110_sendString:	
  3482                           
  3483                           	psect	text10
  3484  068F                     __ptext10:	
  3485 ;; *************** function _LCD5110_sendChar *****************
  3486 ;; Defined at:
  3487 ;;		line 223 in file "Nokia5110.c"
  3488 ;; Parameters:    Size  Location     Type
  3489 ;;  character       1    wreg     unsigned char 
  3490 ;; Auto vars:     Size  Location     Type
  3491 ;;  character       1    0[BANK0 ] unsigned char 
  3492 ;;  column          1    1[BANK0 ] unsigned char 
  3493 ;; Return value:  Size  Location     Type
  3494 ;;                  1    wreg      void 
  3495 ;; Registers used:
  3496 ;;		wreg, fsr0l, fsr0h, status,2, status,0, pclath, cstack
  3497 ;; Tracked objects:
  3498 ;;		On entry : 0/0
  3499 ;;		On exit  : 0/0
  3500 ;;		Unchanged: 0/0
  3501 ;; Data sizes:     COMMON   BANK0   BANK1   BANK2   BANK3   BANK4   BANK5   BANK6   BANK7   BANK8   BANK9  BANK10  BANK1
      +1  BANK12
  3502 ;;      Params:         0       0       0       0       0       0       0       0       0       0       0       0       
      +0       0
  3503 ;;      Locals:         0       2       0       0       0       0       0       0       0       0       0       0       
      +0       0
  3504 ;;      Temps:          6       0       0       0       0       0       0       0       0       0       0       0       
      +0       0
  3505 ;;      Totals:         6       2       0       0       0       0       0       0       0       0       0       0       
      +0       0
  3506 ;;Total ram usage:        8 bytes
  3507 ;; Hardware stack levels used:    1
  3508 ;; Hardware stack levels required when called:    3
  3509 ;; This function calls:
  3510 ;;		_LCD5110_send
  3511 ;;		___wmul
  3512 ;; This function is called by:
  3513 ;;		_LCD5110_sendString
  3514 ;; This function uses a non-reentrant model
  3515 ;;
  3516                           
  3517                           
  3518                           ;psect for function _LCD5110_sendChar
  3519  068F                     _LCD5110_sendChar:	
  3520                           
  3521                           ;incstack = 0
  3522                           ; Regs used in _LCD5110_sendChar: [wreg-fsr0h+status,2+status,0+pclath+cstack]
  3523                           ;LCD5110_sendChar@character stored from wreg
  3524  068F  0020               	movlb	0	; select bank0
  3525  0690  00A0               	movwf	LCD5110_sendChar@character
  3526                           
  3527                           ;Nokia5110.c: 225: unsigned char column = 0;
  3528  0691  01A1               	clrf	LCD5110_sendChar@column
  3529                           
  3530                           ;Nokia5110.c: 226: character = character - 0x20;
  3531  0692  0820               	movf	LCD5110_sendChar@character,w
  3532  0693  3EE0               	addlw	224
  3533  0694  00F8               	movwf	??_LCD5110_sendChar
  3534  0695  0878               	movf	??_LCD5110_sendChar,w
  3535  0696  00A0               	movwf	LCD5110_sendChar@character
  3536                           
  3537                           ;Nokia5110.c: 228: for (column = 0; column < 5; column++)
  3538  0697  01A1               	clrf	LCD5110_sendChar@column
  3539  0698  3005               	movlw	5
  3540  0699  0221               	subwf	LCD5110_sendChar@column,w
  3541  069A  1803               	btfsc	3,0
  3542  069B  2EC8               	goto	l1158
  3543  069C                     l1152:	
  3544                           
  3545                           ;Nokia5110.c: 229: {
  3546                           ;Nokia5110.c: 230: LCD5110_send(font[(int) character * 5 + column], 1);
  3547  069C  01F6               	clrf	LCD5110_send@dc
  3548  069D  0AF6               	incf	LCD5110_send@dc,f
  3549  069E  0821               	movf	LCD5110_sendChar@column,w
  3550  069F  00F8               	movwf	??_LCD5110_sendChar
  3551  06A0  01F9               	clrf	??_LCD5110_sendChar+1
  3552  06A1  0820               	movf	LCD5110_sendChar@character,w
  3553  06A2  00FA               	movwf	??_LCD5110_sendChar+2
  3554  06A3  01FB               	clrf	??_LCD5110_sendChar+3
  3555  06A4  087A               	movf	??_LCD5110_sendChar+2,w
  3556  06A5  00F0               	movwf	___wmul@multiplier
  3557  06A6  087B               	movf	??_LCD5110_sendChar+3,w
  3558  06A7  00F1               	movwf	___wmul@multiplier+1
  3559  06A8  3005               	movlw	5
  3560  06A9  00F2               	movwf	___wmul@multiplicand
  3561  06AA  3000               	movlw	0
  3562  06AB  00F3               	movwf	___wmul@multiplicand+1
  3563  06AC  3185  253A  3186   	fcall	___wmul
  3564  06AF  0878               	movf	??_LCD5110_sendChar,w
  3565  06B0  0770               	addwf	?___wmul,w
  3566  06B1  00FC               	movwf	??_LCD5110_sendChar+4
  3567  06B2  0879               	movf	??_LCD5110_sendChar+1,w
  3568  06B3  3D71               	addwfc	?___wmul+1,w
  3569  06B4  00FD               	movwf	??_LCD5110_sendChar+5
  3570  06B5  3000               	movlw	low (_font| (0+32768))
  3571  06B6  077C               	addwf	??_LCD5110_sendChar+4,w
  3572  06B7  0084               	movwf	4
  3573  06B8  3088               	movlw	high (_font| (0+32768))
  3574  06B9  3D7D               	addwfc	??_LCD5110_sendChar+5,w
  3575  06BA  0085               	movwf	5
  3576  06BB  0800               	movf	0,w	;code access
  3577  06BC  3184  24E1  3186   	fcall	_LCD5110_send
  3578  06BF  3001               	movlw	1
  3579  06C0  00F8               	movwf	??_LCD5110_sendChar
  3580  06C1  0878               	movf	??_LCD5110_sendChar,w
  3581  06C2  0020               	movlb	0	; select bank0
  3582  06C3  07A1               	addwf	LCD5110_sendChar@column,f
  3583  06C4  3005               	movlw	5
  3584  06C5  0221               	subwf	LCD5110_sendChar@column,w
  3585  06C6  1C03               	skipc
  3586  06C7  2E9C               	goto	l1152
  3587  06C8                     l1158:	
  3588                           
  3589                           ;Nokia5110.c: 231: }
  3590                           ;Nokia5110.c: 233: LCD5110_send(0x00, 1);
  3591  06C8  01F6               	clrf	LCD5110_send@dc
  3592  06C9  0AF6               	incf	LCD5110_send@dc,f
  3593  06CA  3000               	movlw	0
  3594  06CB  3184  24E1         	fcall	_LCD5110_send
  3595  06CD  0008               	return
  3596  06CE                     __end_of_LCD5110_sendChar:	
  3597                           
  3598                           	psect	text11
  3599  053A                     __ptext11:	
  3600 ;; *************** function ___wmul *****************
  3601 ;; Defined at:
  3602 ;;		line 15 in file "C:\Program Files (x86)\Microchip\xc8\v1.38\sources\common\Umul16.c"
  3603 ;; Parameters:    Size  Location     Type
  3604 ;;  multiplier      2    0[COMMON] unsigned int 
  3605 ;;  multiplicand    2    2[COMMON] unsigned int 
  3606 ;; Auto vars:     Size  Location     Type
  3607 ;;  product         2    4[COMMON] unsigned int 
  3608 ;; Return value:  Size  Location     Type
  3609 ;;                  2    0[COMMON] unsigned int 
  3610 ;; Registers used:
  3611 ;;		wreg, status,2, status,0
  3612 ;; Tracked objects:
  3613 ;;		On entry : 0/0
  3614 ;;		On exit  : 0/0
  3615 ;;		Unchanged: 0/0
  3616 ;; Data sizes:     COMMON   BANK0   BANK1   BANK2   BANK3   BANK4   BANK5   BANK6   BANK7   BANK8   BANK9  BANK10  BANK1
      +1  BANK12
  3617 ;;      Params:         4       0       0       0       0       0       0       0       0       0       0       0       
      +0       0
  3618 ;;      Locals:         2       0       0       0       0       0       0       0       0       0       0       0       
      +0       0
  3619 ;;      Temps:          0       0       0       0       0       0       0       0       0       0       0       0       
      +0       0
  3620 ;;      Totals:         6       0       0       0       0       0       0       0       0       0       0       0       
      +0       0
  3621 ;;Total ram usage:        6 bytes
  3622 ;; Hardware stack levels used:    1
  3623 ;; This function calls:
  3624 ;;		Nothing
  3625 ;; This function is called by:
  3626 ;;		_LCD5110_sendChar
  3627 ;; This function uses a non-reentrant model
  3628 ;;
  3629                           
  3630                           
  3631                           ;psect for function ___wmul
  3632  053A                     ___wmul:	
  3633                           
  3634                           ;incstack = 0
  3635                           ; Regs used in ___wmul: [wreg+status,2+status,0]
  3636  053A  01F4               	clrf	___wmul@product
  3637  053B  01F5               	clrf	___wmul@product+1
  3638  053C                     l1082:	
  3639  053C  1C70               	btfss	___wmul@multiplier,0
  3640  053D  2D42               	goto	l238
  3641  053E  0872               	movf	___wmul@multiplicand,w
  3642  053F  07F4               	addwf	___wmul@product,f
  3643  0540  0873               	movf	___wmul@multiplicand+1,w
  3644  0541  3DF5               	addwfc	___wmul@product+1,f
  3645  0542                     l238:	
  3646  0542  3001               	movlw	1
  3647  0543                     u555:	
  3648  0543  35F2               	lslf	___wmul@multiplicand,f
  3649  0544  0DF3               	rlf	___wmul@multiplicand+1,f
  3650  0545  0B89               	decfsz	9,f
  3651  0546  2D43               	goto	u555
  3652  0547  3001               	movlw	1
  3653  0548                     u565:	
  3654  0548  36F1               	lsrf	___wmul@multiplier+1,f
  3655  0549  0CF0               	rrf	___wmul@multiplier,f
  3656  054A  0B89               	decfsz	9,f
  3657  054B  2D48               	goto	u565
  3658  054C  0870               	movf	___wmul@multiplier,w
  3659  054D  0471               	iorwf	___wmul@multiplier+1,w
  3660  054E  1D03               	btfss	3,2
  3661  054F  2D3C               	goto	l1082
  3662  0550  0875               	movf	___wmul@product+1,w
  3663  0551  00F1               	movwf	?___wmul+1
  3664  0552  0874               	movf	___wmul@product,w
  3665  0553  00F0               	movwf	?___wmul
  3666  0554  0008               	return
  3667  0555                     __end_of___wmul:	
  3668                           
  3669                           	psect	text12
  3670  065A                     __ptext12:	
  3671 ;; *************** function _LCD5110_init *****************
  3672 ;; Defined at:
  3673 ;;		line 148 in file "Nokia5110.c"
  3674 ;; Parameters:    Size  Location     Type
  3675 ;;		None
  3676 ;; Auto vars:     Size  Location     Type
  3677 ;;		None
  3678 ;; Return value:  Size  Location     Type
  3679 ;;                  1    wreg      void 
  3680 ;; Registers used:
  3681 ;;		wreg, status,2, status,0, pclath, cstack
  3682 ;; Tracked objects:
  3683 ;;		On entry : 0/0
  3684 ;;		On exit  : 0/0
  3685 ;;		Unchanged: 0/0
  3686 ;; Data sizes:     COMMON   BANK0   BANK1   BANK2   BANK3   BANK4   BANK5   BANK6   BANK7   BANK8   BANK9  BANK10  BANK1
      +1  BANK12
  3687 ;;      Params:         0       0       0       0       0       0       0       0       0       0       0       0       
      +0       0
  3688 ;;      Locals:         0       0       0       0       0       0       0       0       0       0       0       0       
      +0       0
  3689 ;;      Temps:          2       0       0       0       0       0       0       0       0       0       0       0       
      +0       0
  3690 ;;      Totals:         2       0       0       0       0       0       0       0       0       0       0       0       
      +0       0
  3691 ;;Total ram usage:        2 bytes
  3692 ;; Hardware stack levels used:    1
  3693 ;; Hardware stack levels required when called:    3
  3694 ;; This function calls:
  3695 ;;		_LCD5110_send
  3696 ;; This function is called by:
  3697 ;;		_main
  3698 ;; This function uses a non-reentrant model
  3699 ;;
  3700                           
  3701                           
  3702                           ;psect for function _LCD5110_init
  3703  065A                     _LCD5110_init:	
  3704                           
  3705                           ;Nokia5110.c: 150: _delay((unsigned long)((20)*(16000000/4000.0)));
  3706                           
  3707                           ;incstack = 0
  3708                           ; Regs used in _LCD5110_init: [wreg+status,2+status,0+pclath+cstack]
  3709  065A  3068               	movlw	104
  3710  065B  00F9               	movwf	??_LCD5110_init+1
  3711  065C  30E4               	movlw	228
  3712  065D  00F8               	movwf	??_LCD5110_init
  3713  065E                     u1067:	
  3714  065E  0BF8               	decfsz	??_LCD5110_init,f
  3715  065F  2E5E               	goto	u1067
  3716  0660  0BF9               	decfsz	??_LCD5110_init+1,f
  3717  0661  2E5E               	goto	u1067
  3718  0662  0000               	nop
  3719                           
  3720                           ;Nokia5110.c: 151: LATDbits.LATD0 = 0;
  3721  0663  0022               	movlb	2	; select bank2
  3722  0664  100F               	bcf	15,0	;volatile
  3723                           
  3724                           ;Nokia5110.c: 152: LATDbits.LATD1 = 0;
  3725  0665  108F               	bcf	15,1	;volatile
  3726                           
  3727                           ;Nokia5110.c: 153: _delay((unsigned long)((20)*(16000000/4000.0)));
  3728  0666  3068               	movlw	104
  3729  0667  00F9               	movwf	??_LCD5110_init+1
  3730  0668  30E4               	movlw	228
  3731  0669  00F8               	movwf	??_LCD5110_init
  3732  066A                     u1077:	
  3733  066A  0BF8               	decfsz	??_LCD5110_init,f
  3734  066B  2E6A               	goto	u1077
  3735  066C  0BF9               	decfsz	??_LCD5110_init+1,f
  3736  066D  2E6A               	goto	u1077
  3737  066E  0000               	nop
  3738                           
  3739                           ;Nokia5110.c: 154: LATDbits.LATD1 = 1;
  3740  066F  0022               	movlb	2	; select bank2
  3741  0670  148F               	bsf	15,1	;volatile
  3742                           
  3743                           ;Nokia5110.c: 156: LCD5110_send(0x20 + 0x01, 0);
  3744  0671  01F6               	clrf	LCD5110_send@dc
  3745  0672  3021               	movlw	33
  3746  0673  3184  24E1  3186   	fcall	_LCD5110_send
  3747                           
  3748                           ;Nokia5110.c: 157: LCD5110_send(0x80 + 0x40, 0);
  3749  0676  01F6               	clrf	LCD5110_send@dc
  3750  0677  30C0               	movlw	192
  3751  0678  3184  24E1  3186   	fcall	_LCD5110_send
  3752                           
  3753                           ;Nokia5110.c: 158: LCD5110_send(0x04 + 0x02, 0);
  3754  067B  01F6               	clrf	LCD5110_send@dc
  3755  067C  3006               	movlw	6
  3756  067D  3184  24E1  3186   	fcall	_LCD5110_send
  3757                           
  3758                           ;Nokia5110.c: 159: LCD5110_send(0x10 + 0x03, 0);
  3759  0680  01F6               	clrf	LCD5110_send@dc
  3760  0681  3013               	movlw	19
  3761  0682  3184  24E1  3186   	fcall	_LCD5110_send
  3762                           
  3763                           ;Nokia5110.c: 160: LCD5110_send(0x20 + 0x00, 0);
  3764  0685  01F6               	clrf	LCD5110_send@dc
  3765  0686  3020               	movlw	32
  3766  0687  3184  24E1  3186   	fcall	_LCD5110_send
  3767                           
  3768                           ;Nokia5110.c: 161: LCD5110_send(0x08 + 0x04, 0);
  3769  068A  01F6               	clrf	LCD5110_send@dc
  3770  068B  300C               	movlw	12
  3771  068C  3184  24E1         	fcall	_LCD5110_send
  3772  068E  0008               	return
  3773  068F                     __end_of_LCD5110_init:	
  3774                           
  3775                           	psect	text13
  3776  05CB                     __ptext13:	
  3777 ;; *************** function _LCD5110_clearScreen *****************
  3778 ;; Defined at:
  3779 ;;		line 205 in file "Nokia5110.c"
  3780 ;; Parameters:    Size  Location     Type
  3781 ;;		None
  3782 ;; Auto vars:     Size  Location     Type
  3783 ;;  index           2    0[BANK0 ] int 
  3784 ;; Return value:  Size  Location     Type
  3785 ;;                  2   65[None  ] int 
  3786 ;; Registers used:
  3787 ;;		wreg, status,2, status,0, pclath, cstack
  3788 ;; Tracked objects:
  3789 ;;		On entry : 0/0
  3790 ;;		On exit  : 0/0
  3791 ;;		Unchanged: 0/0
  3792 ;; Data sizes:     COMMON   BANK0   BANK1   BANK2   BANK3   BANK4   BANK5   BANK6   BANK7   BANK8   BANK9  BANK10  BANK1
      +1  BANK12
  3793 ;;      Params:         0       0       0       0       0       0       0       0       0       0       0       0       
      +0       0
  3794 ;;      Locals:         0       2       0       0       0       0       0       0       0       0       0       0       
      +0       0
  3795 ;;      Temps:          1       0       0       0       0       0       0       0       0       0       0       0       
      +0       0
  3796 ;;      Totals:         1       2       0       0       0       0       0       0       0       0       0       0       
      +0       0
  3797 ;;Total ram usage:        3 bytes
  3798 ;; Hardware stack levels used:    1
  3799 ;; Hardware stack levels required when called:    4
  3800 ;; This function calls:
  3801 ;;		_LCD5110_send
  3802 ;;		_set_xy
  3803 ;; This function is called by:
  3804 ;;		_main
  3805 ;; This function uses a non-reentrant model
  3806 ;;
  3807                           
  3808                           
  3809                           ;psect for function _LCD5110_clearScreen
  3810  05CB                     _LCD5110_clearScreen:	
  3811                           
  3812                           ;Nokia5110.c: 207: int index;
  3813                           ;Nokia5110.c: 208: for (index = 0; index < 84 * 48 / 8; index++) {
  3814                           
  3815                           ;incstack = 0
  3816                           ; Regs used in _LCD5110_clearScreen: [wreg+status,2+status,0+pclath+cstack]
  3817  05CB  0020               	movlb	0	; select bank0
  3818  05CC  01A0               	clrf	LCD5110_clearScreen@index
  3819  05CD  01A1               	clrf	LCD5110_clearScreen@index+1
  3820  05CE  0821               	movf	LCD5110_clearScreen@index+1,w
  3821  05CF  3A80               	xorlw	128
  3822  05D0  00FC               	movwf	??_LCD5110_clearScreen
  3823  05D1  3081               	movlw	129
  3824  05D2  027C               	subwf	??_LCD5110_clearScreen,w
  3825  05D3  1D03               	skipz
  3826  05D4  2DD7               	goto	u785
  3827  05D5  30F8               	movlw	248
  3828  05D6  0220               	subwf	LCD5110_clearScreen@index,w
  3829  05D7                     u785:	
  3830  05D7  1803               	btfsc	3,0
  3831  05D8  2DEF               	goto	l1296
  3832  05D9                     l1290:	
  3833                           
  3834                           ;Nokia5110.c: 209: LCD5110_send(0x00, 1);
  3835  05D9  01F6               	clrf	LCD5110_send@dc
  3836  05DA  0AF6               	incf	LCD5110_send@dc,f
  3837  05DB  3000               	movlw	0
  3838  05DC  3184  24E1  3185   	fcall	_LCD5110_send
  3839  05DF  3001               	movlw	1
  3840  05E0  0020               	movlb	0	; select bank0
  3841  05E1  07A0               	addwf	LCD5110_clearScreen@index,f
  3842  05E2  3000               	movlw	0
  3843  05E3  3DA1               	addwfc	LCD5110_clearScreen@index+1,f
  3844  05E4  0821               	movf	LCD5110_clearScreen@index+1,w
  3845  05E5  3A80               	xorlw	128
  3846  05E6  00FC               	movwf	??_LCD5110_clearScreen
  3847  05E7  3081               	movlw	129
  3848  05E8  027C               	subwf	??_LCD5110_clearScreen,w
  3849  05E9  1D03               	skipz
  3850  05EA  2DED               	goto	u795
  3851  05EB  30F8               	movlw	248
  3852  05EC  0220               	subwf	LCD5110_clearScreen@index,w
  3853  05ED                     u795:	
  3854  05ED  1C03               	skipc
  3855  05EE  2DD9               	goto	l1290
  3856  05EF                     l1296:	
  3857                           
  3858                           ;Nokia5110.c: 210: }
  3859                           ;Nokia5110.c: 211: set_xy(0,0);
  3860  05EF  3000               	movlw	0
  3861  05F0  00F8               	movwf	set_xy@x
  3862  05F1  00F9               	movwf	set_xy@x+1
  3863  05F2  3000               	movlw	0
  3864  05F3  00FA               	movwf	set_xy@y
  3865  05F4  00FB               	movwf	set_xy@y+1
  3866  05F5  3184  24EC         	fcall	_set_xy
  3867  05F7  0008               	return
  3868  05F8                     __end_of_LCD5110_clearScreen:	
  3869                           
  3870                           	psect	text14
  3871  04EC                     __ptext14:	
  3872 ;; *************** function _set_xy *****************
  3873 ;; Defined at:
  3874 ;;		line 189 in file "Nokia5110.c"
  3875 ;; Parameters:    Size  Location     Type
  3876 ;;  x               2    8[COMMON] int 
  3877 ;;  y               2   10[COMMON] int 
  3878 ;; Auto vars:     Size  Location     Type
  3879 ;;		None
  3880 ;; Return value:  Size  Location     Type
  3881 ;;                  1    wreg      void 
  3882 ;; Registers used:
  3883 ;;		wreg, status,2, status,0, pclath, cstack
  3884 ;; Tracked objects:
  3885 ;;		On entry : 0/0
  3886 ;;		On exit  : 0/0
  3887 ;;		Unchanged: 0/0
  3888 ;; Data sizes:     COMMON   BANK0   BANK1   BANK2   BANK3   BANK4   BANK5   BANK6   BANK7   BANK8   BANK9  BANK10  BANK1
      +1  BANK12
  3889 ;;      Params:         4       0       0       0       0       0       0       0       0       0       0       0       
      +0       0
  3890 ;;      Locals:         0       0       0       0       0       0       0       0       0       0       0       0       
      +0       0
  3891 ;;      Temps:          0       0       0       0       0       0       0       0       0       0       0       0       
      +0       0
  3892 ;;      Totals:         4       0       0       0       0       0       0       0       0       0       0       0       
      +0       0
  3893 ;;Total ram usage:        4 bytes
  3894 ;; Hardware stack levels used:    1
  3895 ;; Hardware stack levels required when called:    3
  3896 ;; This function calls:
  3897 ;;		_LCD5110_send
  3898 ;; This function is called by:
  3899 ;;		_LCD5110_clearScreen
  3900 ;;		_LCD5110_drawBorder
  3901 ;;		_LCD5110_setPixel
  3902 ;; This function uses a non-reentrant model
  3903 ;;
  3904                           
  3905                           
  3906                           ;psect for function _set_xy
  3907  04EC                     _set_xy:	
  3908                           
  3909                           ;Nokia5110.c: 191: LCD5110_send(0x80 | x, 0);
  3910                           
  3911                           ;incstack = 0
  3912                           ; Regs used in _set_xy: [wreg+status,2+status,0+pclath+cstack]
  3913  04EC  01F6               	clrf	LCD5110_send@dc
  3914  04ED  0878               	movf	set_xy@x,w
  3915  04EE  3880               	iorlw	128
  3916  04EF  3184  24E1  3184   	fcall	_LCD5110_send
  3917                           
  3918                           ;Nokia5110.c: 192: LCD5110_send(0x40 | y, 0);
  3919  04F2  01F6               	clrf	LCD5110_send@dc
  3920  04F3  087A               	movf	set_xy@y,w
  3921  04F4  3840               	iorlw	64
  3922  04F5  3184  24E1         	fcall	_LCD5110_send
  3923  04F7  0008               	return
  3924  04F8                     __end_of_set_xy:	
  3925                           
  3926                           	psect	text15
  3927  04E1                     __ptext15:	
  3928 ;; *************** function _LCD5110_send *****************
  3929 ;; Defined at:
  3930 ;;		line 173 in file "Nokia5110.c"
  3931 ;; Parameters:    Size  Location     Type
  3932 ;;  data            1    wreg     unsigned char 
  3933 ;;  dc              1    6[COMMON] unsigned char 
  3934 ;; Auto vars:     Size  Location     Type
  3935 ;;  data            1    7[COMMON] unsigned char 
  3936 ;; Return value:  Size  Location     Type
  3937 ;;                  1    wreg      void 
  3938 ;; Registers used:
  3939 ;;		wreg, status,2, status,0, pclath, cstack
  3940 ;; Tracked objects:
  3941 ;;		On entry : 0/0
  3942 ;;		On exit  : 0/0
  3943 ;;		Unchanged: 0/0
  3944 ;; Data sizes:     COMMON   BANK0   BANK1   BANK2   BANK3   BANK4   BANK5   BANK6   BANK7   BANK8   BANK9  BANK10  BANK1
      +1  BANK12
  3945 ;;      Params:         1       0       0       0       0       0       0       0       0       0       0       0       
      +0       0
  3946 ;;      Locals:         1       0       0       0       0       0       0       0       0       0       0       0       
      +0       0
  3947 ;;      Temps:          0       0       0       0       0       0       0       0       0       0       0       0       
      +0       0
  3948 ;;      Totals:         2       0       0       0       0       0       0       0       0       0       0       0       
      +0       0
  3949 ;;Total ram usage:        2 bytes
  3950 ;; Hardware stack levels used:    1
  3951 ;; Hardware stack levels required when called:    2
  3952 ;; This function calls:
  3953 ;;		_SPI1_transfer
  3954 ;; This function is called by:
  3955 ;;		_main
  3956 ;;		_LCD5110_init
  3957 ;;		_set_xy
  3958 ;;		_LCD5110_clearScreen
  3959 ;;		_LCD5110_sendChar
  3960 ;;		_LCD5110_drawBitmap
  3961 ;;		_LCD5110_drawBorder
  3962 ;;		_LCD5110_setPixel
  3963 ;; This function uses a non-reentrant model
  3964 ;;
  3965                           
  3966                           
  3967                           ;psect for function _LCD5110_send
  3968  04E1                     _LCD5110_send:	
  3969                           
  3970                           ;incstack = 0
  3971                           ; Regs used in _LCD5110_send: [wreg+status,2+status,0+pclath+cstack]
  3972                           ;LCD5110_send@data stored from wreg
  3973  04E1  00F7               	movwf	LCD5110_send@data
  3974                           
  3975                           ;Nokia5110.c: 175: LATDbits.LATD2 = dc;
  3976  04E2  0C76               	rrf	LCD5110_send@dc,w
  3977  04E3  0022               	movlb	2	; select bank2
  3978  04E4  1C03               	skipc
  3979  04E5  110F               	bcf	15,2	;volatile
  3980  04E6  1803               	skipnc
  3981  04E7  150F               	bsf	15,2	;volatile
  3982                           
  3983                           ;Nokia5110.c: 176: SPI1_transfer(data);
  3984  04E8  0877               	movf	LCD5110_send@data,w
  3985  04E9  3184  24BB         	fcall	_SPI1_transfer
  3986  04EB  0008               	return
  3987  04EC                     __end_of_LCD5110_send:	
  3988                           
  3989                           	psect	text16
  3990  04BB                     __ptext16:	
  3991 ;; *************** function _SPI1_transfer *****************
  3992 ;; Defined at:
  3993 ;;		line 133 in file "Nokia5110.c"
  3994 ;; Parameters:    Size  Location     Type
  3995 ;;  b               1    wreg     unsigned char 
  3996 ;; Auto vars:     Size  Location     Type
  3997 ;;  b               1    1[COMMON] unsigned char 
  3998 ;; Return value:  Size  Location     Type
  3999 ;;                  1    wreg      unsigned char 
  4000 ;; Registers used:
  4001 ;;		wreg, status,2, status,0, pclath, cstack
  4002 ;; Tracked objects:
  4003 ;;		On entry : 0/0
  4004 ;;		On exit  : 0/0
  4005 ;;		Unchanged: 0/0
  4006 ;; Data sizes:     COMMON   BANK0   BANK1   BANK2   BANK3   BANK4   BANK5   BANK6   BANK7   BANK8   BANK9  BANK10  BANK1
      +1  BANK12
  4007 ;;      Params:         0       0       0       0       0       0       0       0       0       0       0       0       
      +0       0
  4008 ;;      Locals:         1       0       0       0       0       0       0       0       0       0       0       0       
      +0       0
  4009 ;;      Temps:          0       0       0       0       0       0       0       0       0       0       0       0       
      +0       0
  4010 ;;      Totals:         1       0       0       0       0       0       0       0       0       0       0       0       
      +0       0
  4011 ;;Total ram usage:        1 bytes
  4012 ;; Hardware stack levels used:    1
  4013 ;; Hardware stack levels required when called:    1
  4014 ;; This function calls:
  4015 ;;		_SPI_Exchange8bit
  4016 ;; This function is called by:
  4017 ;;		_LCD5110_send
  4018 ;; This function uses a non-reentrant model
  4019 ;;
  4020                           
  4021                           
  4022                           ;psect for function _SPI1_transfer
  4023  04BB                     _SPI1_transfer:	
  4024                           
  4025                           ;incstack = 0
  4026                           ; Regs used in _SPI1_transfer: [wreg+status,2+status,0+pclath+cstack]
  4027                           ;SPI1_transfer@b stored from wreg
  4028  04BB  00F1               	movwf	SPI1_transfer@b
  4029                           
  4030                           ;Nokia5110.c: 135: SPI_Exchange8bit(b);
  4031  04BC  0871               	movf	SPI1_transfer@b,w
  4032  04BD  3184  24CF         	fcall	_SPI_Exchange8bit
  4033  04BF  0008               	return
  4034  04C0                     __end_of_SPI1_transfer:	
  4035                           
  4036                           	psect	text17
  4037  04CF                     __ptext17:	
  4038 ;; *************** function _SPI_Exchange8bit *****************
  4039 ;; Defined at:
  4040 ;;		line 165 in file "SPI.c"
  4041 ;; Parameters:    Size  Location     Type
  4042 ;;  data            1    wreg     unsigned char 
  4043 ;; Auto vars:     Size  Location     Type
  4044 ;;  data            1    0[COMMON] unsigned char 
  4045 ;; Return value:  Size  Location     Type
  4046 ;;                  1    wreg      unsigned char 
  4047 ;; Registers used:
  4048 ;;		wreg
  4049 ;; Tracked objects:
  4050 ;;		On entry : 0/0
  4051 ;;		On exit  : 0/0
  4052 ;;		Unchanged: 0/0
  4053 ;; Data sizes:     COMMON   BANK0   BANK1   BANK2   BANK3   BANK4   BANK5   BANK6   BANK7   BANK8   BANK9  BANK10  BANK1
      +1  BANK12
  4054 ;;      Params:         0       0       0       0       0       0       0       0       0       0       0       0       
      +0       0
  4055 ;;      Locals:         1       0       0       0       0       0       0       0       0       0       0       0       
      +0       0
  4056 ;;      Temps:          0       0       0       0       0       0       0       0       0       0       0       0       
      +0       0
  4057 ;;      Totals:         1       0       0       0       0       0       0       0       0       0       0       0       
      +0       0
  4058 ;;Total ram usage:        1 bytes
  4059 ;; Hardware stack levels used:    1
  4060 ;; This function calls:
  4061 ;;		Nothing
  4062 ;; This function is called by:
  4063 ;;		_SPI1_transfer
  4064 ;;		_SPI_Exchange8bitBuffer
  4065 ;; This function uses a non-reentrant model
  4066 ;;
  4067                           
  4068                           
  4069                           ;psect for function _SPI_Exchange8bit
  4070  04CF                     _SPI_Exchange8bit:	
  4071                           
  4072                           ;incstack = 0
  4073                           ; Regs used in _SPI_Exchange8bit: [wreg]
  4074                           ;SPI_Exchange8bit@data stored from wreg
  4075  04CF  00F0               	movwf	SPI_Exchange8bit@data
  4076                           
  4077                           ;SPI.c: 168: SSP1CON1bits.WCOL = 0;
  4078  04D0  0024               	movlb	4	; select bank4
  4079  04D1  1395               	bcf	21,7	;volatile
  4080                           
  4081                           ;SPI.c: 170: SSPBUF = data;
  4082  04D2  0870               	movf	SPI_Exchange8bit@data,w
  4083  04D3  0091               	movwf	17	;volatile
  4084  04D4                     l171:	
  4085                           ;SPI.c: 173: {
  4086                           
  4087                           ;SPI.c: 172: while(SSP1STATbits.BF == 0x0)
  4088                           
  4089  04D4  1C14               	btfss	20,0	;volatile
  4090  04D5  2CD4               	goto	l171
  4091                           
  4092                           ;SPI.c: 174: }
  4093                           ;SPI.c: 176: return (SSPBUF);
  4094  04D6  0811               	movf	17,w	;volatile
  4095  04D7  0008               	return
  4096  04D8                     __end_of_SPI_Exchange8bit:	
  4097                           
  4098                           	psect	text18
  4099  0555                     __ptext18:	
  4100 ;; *************** function _DHT11_Read *****************
  4101 ;; Defined at:
  4102 ;;		line 73 in file "DHT11.c"
  4103 ;; Parameters:    Size  Location     Type
  4104 ;;		None
  4105 ;; Auto vars:     Size  Location     Type
  4106 ;;  dat             1    2[COMMON] unsigned char 
  4107 ;;  i               1    1[COMMON] unsigned char 
  4108 ;; Return value:  Size  Location     Type
  4109 ;;                  1    wreg      unsigned char 
  4110 ;; Registers used:
  4111 ;;		wreg, status,2, status,0
  4112 ;; Tracked objects:
  4113 ;;		On entry : 0/0
  4114 ;;		On exit  : 0/0
  4115 ;;		Unchanged: 0/0
  4116 ;; Data sizes:     COMMON   BANK0   BANK1   BANK2   BANK3   BANK4   BANK5   BANK6   BANK7   BANK8   BANK9  BANK10  BANK1
      +1  BANK12
  4117 ;;      Params:         0       0       0       0       0       0       0       0       0       0       0       0       
      +0       0
  4118 ;;      Locals:         2       0       0       0       0       0       0       0       0       0       0       0       
      +0       0
  4119 ;;      Temps:          1       0       0       0       0       0       0       0       0       0       0       0       
      +0       0
  4120 ;;      Totals:         3       0       0       0       0       0       0       0       0       0       0       0       
      +0       0
  4121 ;;Total ram usage:        3 bytes
  4122 ;; Hardware stack levels used:    1
  4123 ;; This function calls:
  4124 ;;		Nothing
  4125 ;; This function is called by:
  4126 ;;		_main
  4127 ;; This function uses a non-reentrant model
  4128 ;;
  4129                           
  4130                           
  4131                           ;psect for function _DHT11_Read
  4132  0555                     _DHT11_Read:	
  4133                           
  4134                           ;DHT11.c: 75: char i,dat = 0;
  4135                           
  4136                           ;incstack = 0
  4137                           ; Regs used in _DHT11_Read: [wreg+status,2+status,0]
  4138  0555  01F2               	clrf	DHT11_Read@dat
  4139                           
  4140                           ;DHT11.c: 77: for(i = 0; i<8; i++)
  4141  0556  01F1               	clrf	DHT11_Read@i
  4142  0557  3008               	movlw	8
  4143  0558  0271               	subwf	DHT11_Read@i,w
  4144  0559  1803               	btfsc	3,0
  4145  055A  2D77               	goto	l1326
  4146  055B                     l226:	
  4147                           ;DHT11.c: 78: {
  4148                           ;DHT11.c: 80: while(!(PORTDbits.RD3 & 1));
  4149                           
  4150  055B  0020               	movlb	0	; select bank0
  4151  055C  1D8F               	btfss	15,3	;volatile
  4152  055D  2D5B               	goto	l226
  4153                           
  4154                           ;DHT11.c: 81: _delay((unsigned long)((30)*(16000000/4000000.0)));
  4155  055E  3027               	movlw	39
  4156  055F  00F0               	movwf	??_DHT11_Read
  4157  0560                     u1087:	
  4158  0560  0BF0               	decfsz	??_DHT11_Read,f
  4159  0561  2D60               	goto	u1087
  4160  0562  3200               	nop2	;nop
  4161                           
  4162                           ;DHT11.c: 84: if(PORTDbits.RD3 & 1)
  4163  0563  0020               	movlb	0	; select bank0
  4164  0564  1D8F               	btfss	15,3	;volatile
  4165  0565  2D69               	goto	l1320
  4166                           
  4167                           ;DHT11.c: 85: {
  4168                           ;DHT11.c: 86: dat = ((dat<<1) | 1);
  4169  0566  1403               	setc
  4170  0567  0DF2               	rlf	DHT11_Read@dat,f
  4171                           
  4172                           ;DHT11.c: 87: }
  4173  0568  2D6D               	goto	l231
  4174  0569                     l1320:	
  4175                           
  4176                           ;DHT11.c: 88: else
  4177                           ;DHT11.c: 89: {
  4178                           ;DHT11.c: 90: dat = (dat<<1);
  4179  0569  3572               	lslf	DHT11_Read@dat,w
  4180  056A  00F0               	movwf	??_DHT11_Read
  4181  056B  0870               	movf	??_DHT11_Read,w
  4182  056C  00F2               	movwf	DHT11_Read@dat
  4183  056D                     l231:	
  4184                           ;DHT11.c: 91: }
  4185                           ;DHT11.c: 93: while(PORTDbits.RD3 & 1);
  4186                           
  4187  056D  198F               	btfsc	15,3	;volatile
  4188  056E  2D6D               	goto	l231
  4189  056F  3001               	movlw	1
  4190  0570  00F0               	movwf	??_DHT11_Read
  4191  0571  0870               	movf	??_DHT11_Read,w
  4192  0572  07F1               	addwf	DHT11_Read@i,f
  4193  0573  3008               	movlw	8
  4194  0574  0271               	subwf	DHT11_Read@i,w
  4195  0575  1C03               	skipc
  4196  0576  2D5B               	goto	l226
  4197  0577                     l1326:	
  4198                           
  4199                           ;DHT11.c: 94: }
  4200                           ;DHT11.c: 95: return dat;
  4201  0577  0872               	movf	DHT11_Read@dat,w
  4202  0578  0008               	return
  4203  0579                     __end_of_DHT11_Read:	
  4204                           
  4205                           	psect	text19
  4206  050C                     __ptext19:	
  4207 ;; *************** function _DHT11_Init *****************
  4208 ;; Defined at:
  4209 ;;		line 27 in file "DHT11.c"
  4210 ;; Parameters:    Size  Location     Type
  4211 ;;		None
  4212 ;; Auto vars:     Size  Location     Type
  4213 ;;		None
  4214 ;; Return value:  Size  Location     Type
  4215 ;;                  1    wreg      void 
  4216 ;; Registers used:
  4217 ;;		wreg
  4218 ;; Tracked objects:
  4219 ;;		On entry : 0/0
  4220 ;;		On exit  : 0/0
  4221 ;;		Unchanged: 0/0
  4222 ;; Data sizes:     COMMON   BANK0   BANK1   BANK2   BANK3   BANK4   BANK5   BANK6   BANK7   BANK8   BANK9  BANK10  BANK1
      +1  BANK12
  4223 ;;      Params:         0       0       0       0       0       0       0       0       0       0       0       0       
      +0       0
  4224 ;;      Locals:         0       0       0       0       0       0       0       0       0       0       0       0       
      +0       0
  4225 ;;      Temps:          2       0       0       0       0       0       0       0       0       0       0       0       
      +0       0
  4226 ;;      Totals:         2       0       0       0       0       0       0       0       0       0       0       0       
      +0       0
  4227 ;;Total ram usage:        2 bytes
  4228 ;; Hardware stack levels used:    1
  4229 ;; This function calls:
  4230 ;;		Nothing
  4231 ;; This function is called by:
  4232 ;;		_main
  4233 ;; This function uses a non-reentrant model
  4234 ;;
  4235                           
  4236                           
  4237                           ;psect for function _DHT11_Init
  4238  050C                     _DHT11_Init:	
  4239                           
  4240                           ;DHT11.c: 30: TRISDbits.TRISD3 = 0;
  4241                           
  4242                           ;incstack = 0
  4243                           ; Regs used in _DHT11_Init: [wreg]
  4244  050C  0021               	movlb	1	; select bank1
  4245  050D  118F               	bcf	15,3	;volatile
  4246                           
  4247                           ;DHT11.c: 33: LATDbits.LATD3 = 0;
  4248  050E  0022               	movlb	2	; select bank2
  4249  050F  118F               	bcf	15,3	;volatile
  4250                           
  4251                           ;DHT11.c: 34: _delay((unsigned long)((18)*(16000000/4000.0)));
  4252  0510  305E               	movlw	94
  4253  0511  00F1               	movwf	??_DHT11_Init+1
  4254  0512  3080               	movlw	128
  4255  0513  00F0               	movwf	??_DHT11_Init
  4256  0514                     u1097:	
  4257  0514  0BF0               	decfsz	??_DHT11_Init,f
  4258  0515  2D14               	goto	u1097
  4259  0516  0BF1               	decfsz	??_DHT11_Init+1,f
  4260  0517  2D14               	goto	u1097
  4261  0518  0000               	nop
  4262                           
  4263                           ;DHT11.c: 37: LATDbits.LATD3 = 1;
  4264  0519  0022               	movlb	2	; select bank2
  4265  051A  158F               	bsf	15,3	;volatile
  4266                           
  4267                           ;DHT11.c: 38: _delay((unsigned long)((20)*(16000000/4000000.0)));
  4268  051B  301A               	movlw	26
  4269  051C  00F0               	movwf	??_DHT11_Init
  4270  051D                     u1107:	
  4271  051D  0BF0               	decfsz	??_DHT11_Init,f
  4272  051E  2D1D               	goto	u1107
  4273  051F  0000               	nop
  4274                           
  4275                           ;DHT11.c: 41: TRISDbits.TRISD3 = 1;
  4276  0520  0021               	movlb	1	; select bank1
  4277  0521  158F               	bsf	15,3	;volatile
  4278  0522  0008               	return
  4279  0523                     __end_of_DHT11_Init:	
  4280                           
  4281                           	psect	text20
  4282  04C7                     __ptext20:	
  4283 ;; *************** function _DHT11_Check *****************
  4284 ;; Defined at:
  4285 ;;		line 52 in file "DHT11.c"
  4286 ;; Parameters:    Size  Location     Type
  4287 ;;		None
  4288 ;; Auto vars:     Size  Location     Type
  4289 ;;		None
  4290 ;; Return value:  Size  Location     Type
  4291 ;;                  1    wreg      void 
  4292 ;; Registers used:
  4293 ;;		None
  4294 ;; Tracked objects:
  4295 ;;		On entry : 0/0
  4296 ;;		On exit  : 0/0
  4297 ;;		Unchanged: 0/0
  4298 ;; Data sizes:     COMMON   BANK0   BANK1   BANK2   BANK3   BANK4   BANK5   BANK6   BANK7   BANK8   BANK9  BANK10  BANK1
      +1  BANK12
  4299 ;;      Params:         0       0       0       0       0       0       0       0       0       0       0       0       
      +0       0
  4300 ;;      Locals:         0       0       0       0       0       0       0       0       0       0       0       0       
      +0       0
  4301 ;;      Temps:          0       0       0       0       0       0       0       0       0       0       0       0       
      +0       0
  4302 ;;      Totals:         0       0       0       0       0       0       0       0       0       0       0       0       
      +0       0
  4303 ;;Total ram usage:        0 bytes
  4304 ;; Hardware stack levels used:    1
  4305 ;; This function calls:
  4306 ;;		Nothing
  4307 ;; This function is called by:
  4308 ;;		_main
  4309 ;; This function uses a non-reentrant model
  4310 ;;
  4311                           
  4312                           
  4313                           ;psect for function _DHT11_Check
  4314  04C7                     _DHT11_Check:	
  4315  04C7                     l212:	
  4316                           ;DHT11.c: 55: while(PORTDbits.RD3 & 1);
  4317                           
  4318                           ;incstack = 0
  4319                           ; Regs used in _DHT11_Check: []
  4320                           
  4321  04C7  0020               	movlb	0	; select bank0
  4322  04C8  198F               	btfsc	15,3	;volatile
  4323  04C9  2CC7               	goto	l212
  4324  04CA                     l215:	
  4325                           ;DHT11.c: 58: while(!(PORTDbits.RD3 & 1));
  4326                           
  4327  04CA  1D8F               	btfss	15,3	;volatile
  4328  04CB  2CCA               	goto	l215
  4329  04CC                     l218:	
  4330                           ;DHT11.c: 61: while(PORTDbits.RD3 & 1);
  4331                           
  4332  04CC  1D8F               	btfss	15,3	;volatile
  4333  04CD  0008               	return
  4334  04CE  2CCC               	goto	l218
  4335  04CF                     __end_of_DHT11_Check:	
  4336  007E                     btemp	set	126	;btemp
  4337  007E                     wtemp	set	126
  4338  007E                     wtemp0	set	126
  4339  0080                     wtemp1	set	128
  4340  0082                     wtemp2	set	130
  4341  0084                     wtemp3	set	132
  4342  0086                     wtemp4	set	134
  4343  0088                     wtemp5	set	136
  4344  007F                     wtemp6	set	127
  4345  007E                     ttemp	set	126
  4346  007E                     ttemp0	set	126
  4347  0081                     ttemp1	set	129
  4348  0084                     ttemp2	set	132
  4349  0087                     ttemp3	set	135
  4350  007F                     ttemp4	set	127
  4351  007E                     ltemp	set	126
  4352  007E                     ltemp0	set	126
  4353  0082                     ltemp1	set	130
  4354  0086                     ltemp2	set	134
  4355  0080                     ltemp3	set	128


Data Sizes:
    Strings     21
    Constant    480
    Data        0
    BSS         0
    Persistent  0
    Stack       0

Auto Spaces:
    Space          Size  Autos    Used
    COMMON           14     14      14
    BANK0            80     38      38
    BANK1            80      0       0
    BANK2            80      0       0
    BANK3            80      0       0
    BANK4            80      0       0
    BANK5            80      0       0
    BANK6            80      0       0
    BANK7            80      0       0
    BANK8            80      0       0
    BANK9            80      0       0
    BANK10           80      0       0
    BANK11           80      0       0
    BANK12           48      0       0

Pointer List with Targets:

    utoa@buf	PTR unsigned char  size(1) Largest target is 8
		 -> LCD5110_writeInteger@buf(BANK0[8]), 

    sp__utoa	PTR unsigned char  size(1) Largest target is 8
		 -> LCD5110_writeInteger@buf(BANK0[8]), 

    itoa@buf	PTR unsigned char  size(1) Largest target is 8
		 -> LCD5110_writeInteger@buf(BANK0[8]), 

    itoa@cp	PTR unsigned char  size(1) Largest target is 8
		 -> LCD5110_writeInteger@buf(BANK0[8]), 

    sp__itoa	PTR unsigned char  size(1) Largest target is 8
		 -> LCD5110_writeInteger@buf(BANK0[8]), 

    LCD5110_sendString@str	PTR const unsigned char  size(2) Largest target is 8
		 -> LCD5110_writeInteger@buf(BANK0[8]), STR_4(CODE[7]), STR_3(CODE[6]), STR_2(CODE[4]), 
		 -> STR_1(CODE[4]), 


Critical Paths under _main in COMMON

    _LCD5110_writeInteger->_itoa
    _itoa->_utoa
    _utoa->___lwdiv
    _LCD5110_sendString->_LCD5110_sendChar
    _LCD5110_sendString->_itoa
    _LCD5110_sendChar->_LCD5110_send
    _LCD5110_init->_LCD5110_send
    _LCD5110_clearScreen->_set_xy
    _set_xy->_LCD5110_send
    _LCD5110_send->___wmul
    _SPI1_transfer->_SPI_Exchange8bit

Critical Paths under _main in BANK0

    _main->_LCD5110_writeInteger
    _LCD5110_writeInteger->_LCD5110_sendString
    _itoa->_utoa
    _LCD5110_sendString->_itoa

Critical Paths under _main in BANK1

    None.

Critical Paths under _main in BANK2

    None.

Critical Paths under _main in BANK3

    None.

Critical Paths under _main in BANK4

    None.

Critical Paths under _main in BANK5

    None.

Critical Paths under _main in BANK6

    None.

Critical Paths under _main in BANK7

    None.

Critical Paths under _main in BANK8

    None.

Critical Paths under _main in BANK9

    None.

Critical Paths under _main in BANK10

    None.

Critical Paths under _main in BANK11

    None.

Critical Paths under _main in BANK12

    None.

Call Graph Tables:

 ---------------------------------------------------------------------------------
 (Depth) Function   	        Calls       Base Space   Used Autos Params    Refs
 ---------------------------------------------------------------------------------
 (0) _main                                                15    15      0   15876
                                             23 BANK0     15    15      0
                        _DHT11_Check
                         _DHT11_Init
                         _DHT11_Read
                _LCD5110_clearScreen
                       _LCD5110_init
                       _LCD5110_send
                 _LCD5110_sendString
               _LCD5110_writeInteger
                           _initMain
 ---------------------------------------------------------------------------------
 (1) _initMain                                             0     0      0       0
                     _SPI_Initialize
                        _internal_16
 ---------------------------------------------------------------------------------
 (2) _internal_16                                          0     0      0       0
 ---------------------------------------------------------------------------------
 (2) _SPI_Initialize                                       0     0      0       0
 ---------------------------------------------------------------------------------
 (1) _LCD5110_writeInteger                                10     8      2    4325
                                             13 BANK0     10     8      2
                 _LCD5110_sendString
                               _itoa
 ---------------------------------------------------------------------------------
 (2) _itoa                                                 7     3      4    1502
                                             13 COMMON     1     1      0
                                              4 BANK0      6     2      4
                               _utoa
 ---------------------------------------------------------------------------------
 (3) _utoa                                                 9     5      4    1165
                                              8 COMMON     5     1      4
                                              0 BANK0      4     4      0
                            ___lwdiv
                            ___lwmod
 ---------------------------------------------------------------------------------
 (4) ___lwmod                                              6     2      4     287
                                              0 COMMON     6     2      4
 ---------------------------------------------------------------------------------
 (4) ___lwdiv                                              8     4      4     418
                                              0 COMMON     8     4      4
 ---------------------------------------------------------------------------------
 (2) _LCD5110_sendString                                   3     1      2    2643
                                             10 BANK0      3     1      2
                   _LCD5110_sendChar
                               _itoa (ARG)
 ---------------------------------------------------------------------------------
 (3) _LCD5110_sendChar                                     8     8      0    2278
                                              8 COMMON     6     6      0
                                              0 BANK0      2     2      0
                       _LCD5110_send
                             ___wmul
 ---------------------------------------------------------------------------------
 (4) ___wmul                                               6     2      4     220
                                              0 COMMON     6     2      4
 ---------------------------------------------------------------------------------
 (1) _LCD5110_init                                         2     2      0    1944
                                              8 COMMON     2     2      0
                       _LCD5110_send
 ---------------------------------------------------------------------------------
 (1) _LCD5110_clearScreen                                  3     3      0    4746
                                             12 COMMON     1     1      0
                                              0 BANK0      2     2      0
                       _LCD5110_send
                             _set_xy
 ---------------------------------------------------------------------------------
 (2) _set_xy                                               4     0      4    2756
                                              8 COMMON     4     0      4
                       _LCD5110_send
 ---------------------------------------------------------------------------------
 (4) _LCD5110_send                                         2     1      1    1944
                                              6 COMMON     2     1      1
                      _SPI1_transfer
                             ___wmul (ARG)
 ---------------------------------------------------------------------------------
 (5) _SPI1_transfer                                        1     1      0      44
                                              1 COMMON     1     1      0
                   _SPI_Exchange8bit
 ---------------------------------------------------------------------------------
 (6) _SPI_Exchange8bit                                     1     1      0      22
                                              0 COMMON     1     1      0
 ---------------------------------------------------------------------------------
 (1) _DHT11_Read                                           3     3      0     115
                                              0 COMMON     3     3      0
 ---------------------------------------------------------------------------------
 (1) _DHT11_Init                                           2     2      0       0
                                              0 COMMON     2     2      0
 ---------------------------------------------------------------------------------
 (1) _DHT11_Check                                          0     0      0       0
 ---------------------------------------------------------------------------------
 Estimated maximum stack depth 6
 ---------------------------------------------------------------------------------

 Call Graph Graphs:

 _main (ROOT)
   _DHT11_Check
   _DHT11_Init
   _DHT11_Read
   _LCD5110_clearScreen
     _LCD5110_send
       _SPI1_transfer
         _SPI_Exchange8bit
       ___wmul (ARG)
     _set_xy
       _LCD5110_send
         _SPI1_transfer
           _SPI_Exchange8bit
         ___wmul (ARG)
   _LCD5110_init
     _LCD5110_send
       _SPI1_transfer
         _SPI_Exchange8bit
       ___wmul (ARG)
   _LCD5110_send
     _SPI1_transfer
       _SPI_Exchange8bit
     ___wmul (ARG)
   _LCD5110_sendString
     _LCD5110_sendChar
       _LCD5110_send
         _SPI1_transfer
           _SPI_Exchange8bit
         ___wmul (ARG)
       ___wmul
     _itoa (ARG)
       _utoa
         ___lwdiv
         ___lwmod
   _LCD5110_writeInteger
     _LCD5110_sendString
       _LCD5110_sendChar
         _LCD5110_send
           _SPI1_transfer
             _SPI_Exchange8bit
           ___wmul (ARG)
         ___wmul
       _itoa (ARG)
         _utoa
           ___lwdiv
           ___lwmod
     _itoa
       _utoa
         ___lwdiv
         ___lwmod
   _initMain
     _SPI_Initialize
     _internal_16

 Address spaces:
Name               Size   Autos  Total    Cost      Usage
BIGRAM             3F0      0       0       0        0.0%
NULL                 0      0       0       0        0.0%
CODE                 0      0       0       0        0.0%
BITCOMMON            E      0       0       1        0.0%
BITSFR0              0      0       0       1        0.0%
SFR0                 0      0       0       1        0.0%
COMMON               E      E       E       2      100.0%
BITSFR1              0      0       0       2        0.0%
SFR1                 0      0       0       2        0.0%
BITSFR2              0      0       0       3        0.0%
SFR2                 0      0       0       3        0.0%
STACK                0      0       0       3        0.0%
BITBANK0            50      0       0       4        0.0%
BITSFR3              0      0       0       4        0.0%
SFR3                 0      0       0       4        0.0%
BANK0               50     26      26       5       47.5%
BITSFR4              0      0       0       5        0.0%
SFR4                 0      0       0       5        0.0%
BITBANK1            50      0       0       6        0.0%
BITSFR5              0      0       0       6        0.0%
SFR5                 0      0       0       6        0.0%
BANK1               50      0       0       7        0.0%
BITSFR6              0      0       0       7        0.0%
SFR6                 0      0       0       7        0.0%
BITBANK2            50      0       0       8        0.0%
BITSFR7              0      0       0       8        0.0%
SFR7                 0      0       0       8        0.0%
BANK2               50      0       0       9        0.0%
BITSFR8              0      0       0       9        0.0%
SFR8                 0      0       0       9        0.0%
BITBANK3            50      0       0      10        0.0%
BITSFR9              0      0       0      10        0.0%
SFR9                 0      0       0      10        0.0%
BANK3               50      0       0      11        0.0%
BITSFR10             0      0       0      11        0.0%
SFR10                0      0       0      11        0.0%
BITBANK4            50      0       0      12        0.0%
BITSFR11             0      0       0      12        0.0%
SFR11                0      0       0      12        0.0%
BANK4               50      0       0      13        0.0%
BITSFR12             0      0       0      13        0.0%
SFR12                0      0       0      13        0.0%
BITBANK5            50      0       0      14        0.0%
BITSFR13             0      0       0      14        0.0%
SFR13                0      0       0      14        0.0%
BANK5               50      0       0      15        0.0%
BITSFR14             0      0       0      15        0.0%
SFR14                0      0       0      15        0.0%
BITBANK6            50      0       0      16        0.0%
BITSFR15             0      0       0      16        0.0%
SFR15                0      0       0      16        0.0%
BANK6               50      0       0      17        0.0%
BITSFR16             0      0       0      17        0.0%
SFR16                0      0       0      17        0.0%
BITBANK7            50      0       0      18        0.0%
BITSFR17             0      0       0      18        0.0%
SFR17                0      0       0      18        0.0%
BANK7               50      0       0      19        0.0%
BITSFR18             0      0       0      19        0.0%
SFR18                0      0       0      19        0.0%
BITSFR19             0      0       0      20        0.0%
SFR19                0      0       0      20        0.0%
ABS                  0      0       0      20        0.0%
BITBANK8            50      0       0      21        0.0%
BITSFR20             0      0       0      21        0.0%
SFR20                0      0       0      21        0.0%
BANK8               50      0       0      22        0.0%
BITSFR21             0      0       0      22        0.0%
SFR21                0      0       0      22        0.0%
BITBANK9            50      0       0      23        0.0%
BITSFR22             0      0       0      23        0.0%
SFR22                0      0       0      23        0.0%
BANK9               50      0       0      24        0.0%
BITSFR23             0      0       0      24        0.0%
SFR23                0      0       0      24        0.0%
BITBANK10           50      0       0      25        0.0%
BITSFR24             0      0       0      25        0.0%
SFR24                0      0       0      25        0.0%
BANK10              50      0       0      26        0.0%
BITSFR25             0      0       0      26        0.0%
SFR25                0      0       0      26        0.0%
BITBANK11           50      0       0      27        0.0%
BITSFR26             0      0       0      27        0.0%
SFR26                0      0       0      27        0.0%
BANK11              50      0       0      28        0.0%
BITSFR27             0      0       0      28        0.0%
SFR27                0      0       0      28        0.0%
BITBANK12           30      0       0      29        0.0%
BITSFR28             0      0       0      29        0.0%
SFR28                0      0       0      29        0.0%
BANK12              30      0       0      30        0.0%
BITSFR29             0      0       0      30        0.0%
SFR29                0      0       0      30        0.0%
BITSFR30             0      0       0      31        0.0%
SFR30                0      0       0      31        0.0%
DATA                 0      0       0      31        0.0%
BITSFR31             0      0       0      32        0.0%
SFR31                0      0       0      32        0.0%


Microchip Technology PIC Macro Assembler V1.38 build -256452561 
Symbol Table                                                                                   Tue Sep 11 13:45:44 2018

                 main@Checksum 0043                 _SPI_Initialize 04C0                    __CFG_CP$OFF 0000  
          ___wmul@multiplicand 0072       __end_of_LCD5110_sendChar 06CE                            l212 04C7  
                          l215 04CA                            l231 056D                            l218 04CC  
                          l226 055B                            l171 04D4                            l238 0542  
                          l505 071A                  main@T_Decimal 0042                            u615 063B  
                          u625 0645                            u555 0543                            u635 064D  
                          u565 0548                            u665 05A8                            u595 0631  
                          u685 05B7                            u695 05BE                            u785 05D7  
                          u795 05ED                   __CFG_BORV$LO 0000                            wreg 0009  
          __size_of_DHT11_Init 0017            __size_of_DHT11_Read 0024                   __CFG_IESO$ON 0000  
                 __CFG_LVP$OFF 0000                           l1112 064C                           l1104 062E  
                         l1202 0523                           l1106 063A                           l1130 05B1  
                         l1116 0655                           l1134 05BD                           l1320 0569  
                         l1152 069C                           l1128 05A5                           l1216 0591  
                         l1082 053C                           l1138 05C6                           l1162 06D4  
                         l1172 06F2                           l1326 0577                           l1158 06C8  
                         l1290 05D9                           l1296 05EF                           l1376 07DC  
                         STR_1 09F1                           STR_2 09ED                           STR_3 09E7  
                         STR_4 09E0                           u1107 051D                           u1057 07F5  
                         u1067 065E                           u1077 066A                           u1087 0560  
                         u1097 0514                           _SCS0 04C8                           _SCS1 04C9  
                 __CFG_WRT$OFF 0000                           _main 0730                           _font 0800  
                         _itoa 0579          ?_LCD5110_writeInteger 002D                           fsr0h 0005  
                         fsr1h 0007                           fsr0l 0004                           indf0 0000  
                         indf1 0001                           fsr1l 0006                           btemp 007E  
                         _utoa 06CE                           ltemp 007E           __size_of_DHT11_Check 0008  
                         start 0002                           ttemp 007E                           wtemp 007E  
       __end_of_SPI_Initialize 04C7            _LCD5110_clearScreen 05CB                 main@T_Integral 0045  
                        ?_main 0070                          ?_itoa 0024                  __CFG_WDTE$OFF 0000  
                        ?_utoa 0078                          _IRCF0 04CB                          _IRCF1 04CC  
                        _IRCF2 04CD                          _IRCF3 04CE                __end_of___lwdiv 065A  
              __end_of___lwmod 05CB                          _TRISD 008F           ?_LCD5110_clearScreen 0070  
               __CFG_FCMEN$OFF 0000          LCD5110_writeInteger@v 002D                 __CFG_BOREN$OFF 0000  
                        ltemp0 007E                          ltemp1 0082                          ltemp2 0086  
                        ltemp3 0080                          ttemp0 007E                          ttemp1 0081  
                        ttemp2 0084                          ttemp3 0087                          ttemp4 007F  
                        utoa@c 0022                          utoa@v 0020                          status 0003  
                        wtemp0 007E                          wtemp1 0080                          wtemp2 0082  
                        wtemp3 0084                          wtemp4 0086                          wtemp5 0088  
                        wtemp6 007F                   ?_internal_16 0070          __size_of_LCD5110_init 0035  
        __size_of_LCD5110_send 000B                ?_SPI_Initialize 0070                 __CFG_MCLRE$OFF 0000  
              __initialization 07FD                   __end_of_main 07FD                   __end_of_font 09E0  
                 __end_of_itoa 059F                   __end_of_utoa 0730                 __CFG_LPBOR$OFF 0000  
                       ??_main 0037                         ??_itoa 007D             _LCD5110_sendString 0523  
                       ??_utoa 007C                 __CFG_PLLEN$OFF 0000          ??_LCD5110_clearScreen 007C  
     __end_of_SPI_Exchange8bit 04D8            ?_LCD5110_sendString 002A                   _LCD5110_init 065A  
                 _LCD5110_send 04E1                 __CFG_ZCDDIS$ON 0000                         _ANSELD 018F  
       ??_LCD5110_writeInteger 007E                         _SPLLEN 04CF                         _SSPBUF 0211  
                 ??_DHT11_Init 0070                   ??_DHT11_Read 0070                 __CFG_PWRTE$OFF 0000  
         ??_LCD5110_sendString 002C                         ___wmul 053A                 __CFG_STVREN$ON 0000  
                    ??___lwdiv 0074                      ??___lwmod 0074               __end_of_initMain 0626  
                       _set_xy 04EC       LCD5110_clearScreen@index 0020                         itoa@cp 0028  
           __end_of_DHT11_Init 0523             __end_of_DHT11_Read 0579          __end_of_SPI1_transfer 04C0  
      __end_of__initialization 07FD                 __pcstackCOMMON 0070              ?_LCD5110_sendChar 0070  
           ??_LCD5110_sendChar 0078                     __pmaintext 0730           __size_of_internal_16 0009  
                      ?___wmul 0070                __CFG_PPS1WAY$ON 0000                        ?_set_xy 0078  
                      _SSP1ADD 0212                        _PPSLOCK 0E0F                  ??_DHT11_Check 0070  
             ??_SPI_Initialize 0070                      ?_initMain 0070        LCD5110_writeInteger@buf 002F  
              __size_of___wmul 001B                        ___lwdiv 0626                        ___lwmod 059F  
                      __ptext1 05F8                        __ptext2 04D8                        __ptext3 04C0  
                      __ptext4 04F8                        __ptext5 0579                        __ptext6 06CE  
                      __ptext7 059F                        __ptext8 0626                        __ptext9 0523  
              __size_of_set_xy 000C                 SPI1_transfer@b 0071              ?_SPI_Exchange8bit 0070  
         end_of_initialization 07FD             ??_SPI_Exchange8bit 0070           SPI_Exchange8bit@data 0070  
                   ??_initMain 0070                        itoa@buf 0029                        itoa@val 0024  
          __end_of_DHT11_Check 04CF                        set_xy@x 0078                        set_xy@y 007A  
                 __pstringtext 0800                        utoa@buf 0023                        utoa@val 0078  
  __end_of_LCD5110_clearScreen 05F8                      _PORTDbits 000F               __CFG_FOSC$INTOSC 0000  
                    _TRISCbits 008E                      _TRISDbits 008F      LCD5110_sendChar@character 0020  
__size_of_LCD5110_writeInteger 0014    __size_of_LCD5110_sendString 0017                 __end_of___wmul 0555  
               __end_of_set_xy 04F8            start_initialization 07FD                    _DHT11_Check 04C7  
    __size_of_LCD5110_sendChar 003F          LCD5110_sendString@str 002A                       ??___wmul 0074  
                     ??_set_xy 007C         __size_of_SPI1_transfer 0005                      ___latbits 0002  
                __pcstackBANK0 0020                  ??_internal_16 0070              __size_of_initMain 002E  
             ___lwdiv@dividend 0072                       ?___lwdiv 0070                       ?___lwmod 0070  
             ___lwdiv@quotient 0075                  ?_LCD5110_init 0070                  ?_LCD5110_send 0076  
               ___wmul@product 0074                  _SPI1_transfer 04BB                       _LATDbits 010F  
             LCD5110_send@data 0077      __size_of_SPI_Exchange8bit 0009                    DHT11_Read@i 0071  
                     _SSP1CON1 0215            __end_of_internal_16 04E1                       _SSP1STAT 0214  
       LCD5110_sendChar@column 0021              ___wmul@multiplier 0070                 ??_LCD5110_init 0078  
               ??_LCD5110_send 0077                 ?_SPI1_transfer 0070               _LCD5110_sendChar 068F  
                   _DHT11_Init 050C                     _DHT11_Read 0555        __size_of_SPI_Initialize 0007  
             __size_of___lwdiv 0034               __size_of___lwmod 002C   __end_of_LCD5110_writeInteger 050C  
                   _ANSELCbits 018E   __size_of_LCD5110_clearScreen 002D                ___lwdiv@divisor 0070  
              ___lwdiv@counter 0077                       __ptext10 068F                       __ptext11 053A  
                     __ptext20 04C7                       __ptext12 065A                       __ptext13 05CB  
                     __ptext14 04EC                       __ptext15 04E1                       __ptext16 04BB  
                     __ptext17 04CF                       __ptext18 0555                       __ptext19 050C  
                 _SSP1CON1bits 0215                   ?_DHT11_Check 0070                       _initMain 05F8  
                __size_of_main 00CD                  _SSPDATPPSbits 0E21                  __size_of_itoa 0026  
                __size_of_utoa 0062                    _internal_16 04D8     __end_of_LCD5110_sendString 053A  
                   _RC3PPSbits 0EA3                     _RC5PPSbits 0EA5                   _SSP1STATbits 0214  
                     itoa@base 0026                ??_SPI1_transfer 0071               ___lwmod@dividend 0072  
            __CFG_CLKOUTEN$OFF 0000                    _PPSLOCKbits 0E0F                    ?_DHT11_Init 0070  
                  ?_DHT11_Read 0070                 LCD5110_send@dc 0076               _SPI_Exchange8bit 04CF  
              main@RH_Integral 0044           __end_of_LCD5110_init 068F           __end_of_LCD5110_send 04EC  
                     utoa@base 007A                 main@RH_Decimal 0041                  DHT11_Read@dat 0072  
              ___lwmod@divisor 0070                ___lwmod@counter 0075           _LCD5110_writeInteger 04F8  
