

Microchip MPLAB XC8 Assembler V2.46 build 20240104201356 
                                                                                               Fri Dec 26 04:41:52 2025

Microchip MPLAB XC8 C Compiler v2.46 (Free license) build 20240104201356 Og1 
     1                           	processor	16F1718
     2                           	pagewidth 120
     3                           	opt	flic
     4                           	psect	stringtext1,global,class=STRCODE,delta=2,noexec
     5                           	psect	stringtext2,global,class=STRCODE,delta=2,noexec
     6                           	psect	stringtext3,global,class=STRCODE,delta=2,noexec
     7                           	psect	stringtext4,global,class=STRCODE,delta=2,noexec
     8                           	psect	stringtext5,global,class=STRCODE,delta=2,noexec
     9                           	psect	cinit,global,class=CODE,merge=1,delta=2
    10                           	psect	clrtext,global,class=CODE,delta=2
    11                           	psect	cstackBANK1,global,class=BANK1,space=1,delta=1,noexec
    12                           	psect	cstackCOMMON,global,class=COMMON,space=1,delta=1,noexec
    13                           	psect	cstackBANK0,global,class=BANK0,space=1,delta=1,noexec
    14                           	psect	maintext,global,class=CODE,merge=1,split=1,delta=2
    15                           	psect	text1,local,class=CODE,merge=1,delta=2
    16                           	psect	text2,local,class=CODE,merge=1,delta=2
    17                           	psect	text3,local,class=CODE,merge=1,delta=2
    18                           	psect	text4,local,class=CODE,merge=1,delta=2
    19                           	psect	text5,local,class=CODE,merge=1,delta=2,group=2
    20                           	psect	text6,local,class=CODE,merge=1,delta=2,group=2
    21                           	psect	text7,local,class=CODE,merge=1,delta=2,group=2
    22                           	psect	text8,local,class=CODE,merge=1,delta=2,group=1
    23                           	psect	text9,local,class=CODE,merge=1,delta=2,group=1
    24                           	psect	text10,local,class=CODE,merge=1,delta=2,group=1
    25                           	psect	text11,local,class=CODE,merge=1,delta=2,group=1
    26                           	psect	text12,local,class=CODE,merge=1,delta=2,group=1
    27                           	psect	text13,local,class=CODE,merge=1,delta=2,group=1
    28                           	psect	text14,local,class=CODE,merge=1,delta=2,group=1
    29                           	psect	text15,local,class=CODE,merge=1,delta=2
    30                           	psect	text16,local,class=CODE,merge=1,delta=2
    31                           	psect	text17,local,class=CODE,merge=1,delta=2
    32                           	psect	text18,local,class=CODE,merge=1,delta=2,group=2
    33                           	psect	text19,local,class=CODE,merge=1,delta=2
    34                           	psect	text20,local,class=CODE,merge=1,delta=2
    35                           	psect	text21,local,class=CODE,merge=1,delta=2
    36                           	psect	text22,local,class=CODE,merge=1,delta=2
    37                           	psect	text23,local,class=CODE,merge=1,delta=2
    38                           	psect	text24,local,class=CODE,merge=1,delta=2
    39                           	psect	text25,local,class=CODE,merge=1,delta=2
    40                           	psect	text26,local,class=CODE,merge=1,delta=2
    41                           	psect	text27,local,class=CODE,merge=1,delta=2
    42                           	psect	text28,local,class=CODE,merge=1,delta=2
    43                           	psect	text29,local,class=CODE,merge=1,delta=2
    44                           	psect	text30,local,class=CODE,merge=1,delta=2
    45                           	psect	text31,local,class=CODE,merge=1,delta=2,group=1
    46                           	psect	text32,local,class=CODE,merge=1,delta=2
    47                           	psect	config,global,abs,ovrld,class=CONFIG,space=4,delta=2,noexec
    48                           	dabs	1,0xCA0,32
    49                           	dabs	1,0xC20,80
    50                           	dabs	1,0xBA0,80
    51                           	dabs	1,0xB30,64
    52                           	dabs	1,0xB20,16
    53                           	dabs	1,0xAA0,80
    54                           	dabs	1,0xA20,80
    55                           	dabs	1,0x9A0,80
    56                           	dabs	1,0x920,80
    57                           	dabs	1,0x8A0,80
    58                           	dabs	1,0x820,80
    59                           	dabs	1,0x7E0,16
    60                           	dabs	1,0x24F0,0,_screen_buffer
    61                           	dabs	1,0x26F0,0,OLED_Printf_Line@last_text
    62                           	dabs	1,0x7E,2
    63     0000                     
    64                           ; Generated 07/09/2023 GMT
    65                           ; 
    66                           ; Copyright © 2023, Microchip Technology Inc. and its subsidiaries ("Microchip")
    67                           ; All rights reserved.
    68                           ; 
    69                           ; This software is developed by Microchip Technology Inc. and its subsidiaries ("Microch
      +                          ip").
    70                           ; 
    71                           ; Redistribution and use in source and binary forms, with or without modification, are
    72                           ; permitted provided that the following conditions are met:
    73                           ; 
    74                           ;     1. Redistributions of source code must retain the above copyright notice, this lis
      +                          t of
    75                           ;        conditions and the following disclaimer.
    76                           ; 
    77                           ;     2. Redistributions in binary form must reproduce the above copyright notice, this 
      +                          list
    78                           ;        of conditions and the following disclaimer in the documentation and/or other
    79                           ;        materials provided with the distribution. Publication is not required when
    80                           ;        this file is used in an embedded application.
    81                           ; 
    82                           ;     3. Microchip's name may not be used to endorse or promote products derived from th
      +                          is
    83                           ;        software without specific prior written permission.
    84                           ; 
    85                           ; THIS SOFTWARE IS PROVIDED BY MICROCHIP "AS IS" AND ANY EXPRESS OR IMPLIED WARRANTIES,
    86                           ; INCLUDING, BUT NOT LIMITED TO, THE IMPLIED WARRANTIES OF MERCHANTABILITY AND FITNESS F
      +                          OR
    87                           ; PURPOSE ARE DISCLAIMED.  IN NO EVENT SHALL MICROCHIP BE LIABLE FOR ANY DIRECT, INDIREC
      +                          T,
    88                           ; INCIDENTAL, SPECIAL, EXEMPLARY, OR CONSEQUENTIAL DAMAGES (INCLUDING BUT NOT LIMITED TO
    89                           ; PROCUREMENT OF SUBSTITUTE GOODS OR SERVICES; LOSS OF USE, DATA OR PROFITS; OR BUSINESS
    90                           ; INTERRUPTION) HOWSOEVER CAUSED AND ON ANY THEORY OF LIABILITY, WHETHER IN CONTRACT, ST
      +                          RICT
    91                           ; LIABILITY, OR TORT (INCLUDING NEGLIGENCE OR OTHERWISE) ARISING IN ANY WAY OUT OF THE U
      +                          SE OF
    92                           ; THIS SOFTWARE, EVEN IF ADVISED OF THE POSSIBILITY OF SUCH DAMAGE.
    93                           ; 
    94                           ; 
    95                           ; Code-generator required, PIC16F1718 Definitions
    96                           ; 
    97                           ; SFR Addresses
    98     0000                     	;# 
    99     0001                     	;# 
   100     0002                     	;# 
   101     0003                     	;# 
   102     0004                     	;# 
   103     0005                     	;# 
   104     0006                     	;# 
   105     0007                     	;# 
   106     0008                     	;# 
   107     0009                     	;# 
   108     000A                     	;# 
   109     000B                     	;# 
   110     000C                     	;# 
   111     000D                     	;# 
   112     000E                     	;# 
   113     0010                     	;# 
   114     0011                     	;# 
   115     0012                     	;# 
   116     0013                     	;# 
   117     0015                     	;# 
   118     0016                     	;# 
   119     0016                     	;# 
   120     0017                     	;# 
   121     0018                     	;# 
   122     0019                     	;# 
   123     001A                     	;# 
   124     001B                     	;# 
   125     001C                     	;# 
   126     008C                     	;# 
   127     008D                     	;# 
   128     008E                     	;# 
   129     0090                     	;# 
   130     0091                     	;# 
   131     0092                     	;# 
   132     0093                     	;# 
   133     0095                     	;# 
   134     0096                     	;# 
   135     0097                     	;# 
   136     0098                     	;# 
   137     0099                     	;# 
   138     009A                     	;# 
   139     009B                     	;# 
   140     009B                     	;# 
   141     009C                     	;# 
   142     009D                     	;# 
   143     009E                     	;# 
   144     009F                     	;# 
   145     010C                     	;# 
   146     010D                     	;# 
   147     010E                     	;# 
   148     0111                     	;# 
   149     0112                     	;# 
   150     0113                     	;# 
   151     0114                     	;# 
   152     0115                     	;# 
   153     0116                     	;# 
   154     0117                     	;# 
   155     0118                     	;# 
   156     0119                     	;# 
   157     011A                     	;# 
   158     011B                     	;# 
   159     011B                     	;# 
   160     011C                     	;# 
   161     018C                     	;# 
   162     018D                     	;# 
   163     018E                     	;# 
   164     0191                     	;# 
   165     0191                     	;# 
   166     0192                     	;# 
   167     0193                     	;# 
   168     0193                     	;# 
   169     0194                     	;# 
   170     0195                     	;# 
   171     0196                     	;# 
   172     0197                     	;# 
   173     0199                     	;# 
   174     0199                     	;# 
   175     0199                     	;# 
   176     019A                     	;# 
   177     019A                     	;# 
   178     019A                     	;# 
   179     019B                     	;# 
   180     019B                     	;# 
   181     019B                     	;# 
   182     019B                     	;# 
   183     019B                     	;# 
   184     019C                     	;# 
   185     019C                     	;# 
   186     019C                     	;# 
   187     019D                     	;# 
   188     019D                     	;# 
   189     019D                     	;# 
   190     019E                     	;# 
   191     019E                     	;# 
   192     019E                     	;# 
   193     019F                     	;# 
   194     019F                     	;# 
   195     019F                     	;# 
   196     019F                     	;# 
   197     019F                     	;# 
   198     020C                     	;# 
   199     020D                     	;# 
   200     020E                     	;# 
   201     0210                     	;# 
   202     0211                     	;# 
   203     0211                     	;# 
   204     0212                     	;# 
   205     0212                     	;# 
   206     0213                     	;# 
   207     0213                     	;# 
   208     0214                     	;# 
   209     0214                     	;# 
   210     0215                     	;# 
   211     0215                     	;# 
   212     0215                     	;# 
   213     0215                     	;# 
   214     0216                     	;# 
   215     0216                     	;# 
   216     0217                     	;# 
   217     0217                     	;# 
   218     028C                     	;# 
   219     028D                     	;# 
   220     028E                     	;# 
   221     0291                     	;# 
   222     0291                     	;# 
   223     0292                     	;# 
   224     0293                     	;# 
   225     0293                     	;# 
   226     0298                     	;# 
   227     0298                     	;# 
   228     0299                     	;# 
   229     029A                     	;# 
   230     029A                     	;# 
   231     029E                     	;# 
   232     030C                     	;# 
   233     030D                     	;# 
   234     030E                     	;# 
   235     038C                     	;# 
   236     038D                     	;# 
   237     038E                     	;# 
   238     0390                     	;# 
   239     0391                     	;# 
   240     0392                     	;# 
   241     0393                     	;# 
   242     0394                     	;# 
   243     0395                     	;# 
   244     0396                     	;# 
   245     0397                     	;# 
   246     0398                     	;# 
   247     0399                     	;# 
   248     039D                     	;# 
   249     039E                     	;# 
   250     039F                     	;# 
   251     0415                     	;# 
   252     0416                     	;# 
   253     0417                     	;# 
   254     041C                     	;# 
   255     041D                     	;# 
   256     041E                     	;# 
   257     0498                     	;# 
   258     0498                     	;# 
   259     0499                     	;# 
   260     049A                     	;# 
   261     049B                     	;# 
   262     049B                     	;# 
   263     049C                     	;# 
   264     049D                     	;# 
   265     049E                     	;# 
   266     049F                     	;# 
   267     0511                     	;# 
   268     0515                     	;# 
   269     0617                     	;# 
   270     0618                     	;# 
   271     0619                     	;# 
   272     0619                     	;# 
   273     061A                     	;# 
   274     061B                     	;# 
   275     061C                     	;# 
   276     061C                     	;# 
   277     0691                     	;# 
   278     0692                     	;# 
   279     0693                     	;# 
   280     0694                     	;# 
   281     0695                     	;# 
   282     0696                     	;# 
   283     0697                     	;# 
   284     0698                     	;# 
   285     0699                     	;# 
   286     069A                     	;# 
   287     069B                     	;# 
   288     069C                     	;# 
   289     069D                     	;# 
   290     069E                     	;# 
   291     069F                     	;# 
   292     0E0F                     	;# 
   293     0E10                     	;# 
   294     0E11                     	;# 
   295     0E12                     	;# 
   296     0E13                     	;# 
   297     0E14                     	;# 
   298     0E15                     	;# 
   299     0E17                     	;# 
   300     0E20                     	;# 
   301     0E21                     	;# 
   302     0E22                     	;# 
   303     0E24                     	;# 
   304     0E25                     	;# 
   305     0E28                     	;# 
   306     0E29                     	;# 
   307     0E2A                     	;# 
   308     0E2B                     	;# 
   309     0E90                     	;# 
   310     0E91                     	;# 
   311     0E92                     	;# 
   312     0E93                     	;# 
   313     0E94                     	;# 
   314     0E95                     	;# 
   315     0E96                     	;# 
   316     0E97                     	;# 
   317     0E98                     	;# 
   318     0E99                     	;# 
   319     0E9A                     	;# 
   320     0E9B                     	;# 
   321     0E9C                     	;# 
   322     0E9D                     	;# 
   323     0E9E                     	;# 
   324     0E9F                     	;# 
   325     0EA0                     	;# 
   326     0EA1                     	;# 
   327     0EA2                     	;# 
   328     0EA3                     	;# 
   329     0EA4                     	;# 
   330     0EA5                     	;# 
   331     0EA6                     	;# 
   332     0EA7                     	;# 
   333     0F0F                     	;# 
   334     0F10                     	;# 
   335     0F11                     	;# 
   336     0F12                     	;# 
   337     0F13                     	;# 
   338     0F14                     	;# 
   339     0F15                     	;# 
   340     0F16                     	;# 
   341     0F17                     	;# 
   342     0F18                     	;# 
   343     0F19                     	;# 
   344     0F1A                     	;# 
   345     0F1B                     	;# 
   346     0F1C                     	;# 
   347     0F1D                     	;# 
   348     0F1E                     	;# 
   349     0F1F                     	;# 
   350     0F20                     	;# 
   351     0F21                     	;# 
   352     0F22                     	;# 
   353     0F23                     	;# 
   354     0F24                     	;# 
   355     0F25                     	;# 
   356     0F26                     	;# 
   357     0F27                     	;# 
   358     0F28                     	;# 
   359     0F29                     	;# 
   360     0F2A                     	;# 
   361     0F2B                     	;# 
   362     0F2C                     	;# 
   363     0F2D                     	;# 
   364     0F2E                     	;# 
   365     0F2F                     	;# 
   366     0F30                     	;# 
   367     0F31                     	;# 
   368     0F32                     	;# 
   369     0F33                     	;# 
   370     0F34                     	;# 
   371     0F35                     	;# 
   372     0F36                     	;# 
   373     0F37                     	;# 
   374     0FE4                     	;# 
   375     0FE5                     	;# 
   376     0FE6                     	;# 
   377     0FE7                     	;# 
   378     0FE8                     	;# 
   379     0FE9                     	;# 
   380     0FEA                     	;# 
   381     0FEB                     	;# 
   382     0FED                     	;# 
   383     0FEE                     	;# 
   384     0FEF                     	;# 
   385     0000                     	;# 
   386     0001                     	;# 
   387     0002                     	;# 
   388     0003                     	;# 
   389     0004                     	;# 
   390     0005                     	;# 
   391     0006                     	;# 
   392     0007                     	;# 
   393     0008                     	;# 
   394     0009                     	;# 
   395     000A                     	;# 
   396     000B                     	;# 
   397     000C                     	;# 
   398     000D                     	;# 
   399     000E                     	;# 
   400     0010                     	;# 
   401     0011                     	;# 
   402     0012                     	;# 
   403     0013                     	;# 
   404     0015                     	;# 
   405     0016                     	;# 
   406     0016                     	;# 
   407     0017                     	;# 
   408     0018                     	;# 
   409     0019                     	;# 
   410     001A                     	;# 
   411     001B                     	;# 
   412     001C                     	;# 
   413     008C                     	;# 
   414     008D                     	;# 
   415     008E                     	;# 
   416     0090                     	;# 
   417     0091                     	;# 
   418     0092                     	;# 
   419     0093                     	;# 
   420     0095                     	;# 
   421     0096                     	;# 
   422     0097                     	;# 
   423     0098                     	;# 
   424     0099                     	;# 
   425     009A                     	;# 
   426     009B                     	;# 
   427     009B                     	;# 
   428     009C                     	;# 
   429     009D                     	;# 
   430     009E                     	;# 
   431     009F                     	;# 
   432     010C                     	;# 
   433     010D                     	;# 
   434     010E                     	;# 
   435     0111                     	;# 
   436     0112                     	;# 
   437     0113                     	;# 
   438     0114                     	;# 
   439     0115                     	;# 
   440     0116                     	;# 
   441     0117                     	;# 
   442     0118                     	;# 
   443     0119                     	;# 
   444     011A                     	;# 
   445     011B                     	;# 
   446     011B                     	;# 
   447     011C                     	;# 
   448     018C                     	;# 
   449     018D                     	;# 
   450     018E                     	;# 
   451     0191                     	;# 
   452     0191                     	;# 
   453     0192                     	;# 
   454     0193                     	;# 
   455     0193                     	;# 
   456     0194                     	;# 
   457     0195                     	;# 
   458     0196                     	;# 
   459     0197                     	;# 
   460     0199                     	;# 
   461     0199                     	;# 
   462     0199                     	;# 
   463     019A                     	;# 
   464     019A                     	;# 
   465     019A                     	;# 
   466     019B                     	;# 
   467     019B                     	;# 
   468     019B                     	;# 
   469     019B                     	;# 
   470     019B                     	;# 
   471     019C                     	;# 
   472     019C                     	;# 
   473     019C                     	;# 
   474     019D                     	;# 
   475     019D                     	;# 
   476     019D                     	;# 
   477     019E                     	;# 
   478     019E                     	;# 
   479     019E                     	;# 
   480     019F                     	;# 
   481     019F                     	;# 
   482     019F                     	;# 
   483     019F                     	;# 
   484     019F                     	;# 
   485     020C                     	;# 
   486     020D                     	;# 
   487     020E                     	;# 
   488     0210                     	;# 
   489     0211                     	;# 
   490     0211                     	;# 
   491     0212                     	;# 
   492     0212                     	;# 
   493     0213                     	;# 
   494     0213                     	;# 
   495     0214                     	;# 
   496     0214                     	;# 
   497     0215                     	;# 
   498     0215                     	;# 
   499     0215                     	;# 
   500     0215                     	;# 
   501     0216                     	;# 
   502     0216                     	;# 
   503     0217                     	;# 
   504     0217                     	;# 
   505     028C                     	;# 
   506     028D                     	;# 
   507     028E                     	;# 
   508     0291                     	;# 
   509     0291                     	;# 
   510     0292                     	;# 
   511     0293                     	;# 
   512     0293                     	;# 
   513     0298                     	;# 
   514     0298                     	;# 
   515     0299                     	;# 
   516     029A                     	;# 
   517     029A                     	;# 
   518     029E                     	;# 
   519     030C                     	;# 
   520     030D                     	;# 
   521     030E                     	;# 
   522     038C                     	;# 
   523     038D                     	;# 
   524     038E                     	;# 
   525     0390                     	;# 
   526     0391                     	;# 
   527     0392                     	;# 
   528     0393                     	;# 
   529     0394                     	;# 
   530     0395                     	;# 
   531     0396                     	;# 
   532     0397                     	;# 
   533     0398                     	;# 
   534     0399                     	;# 
   535     039D                     	;# 
   536     039E                     	;# 
   537     039F                     	;# 
   538     0415                     	;# 
   539     0416                     	;# 
   540     0417                     	;# 
   541     041C                     	;# 
   542     041D                     	;# 
   543     041E                     	;# 
   544     0498                     	;# 
   545     0498                     	;# 
   546     0499                     	;# 
   547     049A                     	;# 
   548     049B                     	;# 
   549     049B                     	;# 
   550     049C                     	;# 
   551     049D                     	;# 
   552     049E                     	;# 
   553     049F                     	;# 
   554     0511                     	;# 
   555     0515                     	;# 
   556     0617                     	;# 
   557     0618                     	;# 
   558     0619                     	;# 
   559     0619                     	;# 
   560     061A                     	;# 
   561     061B                     	;# 
   562     061C                     	;# 
   563     061C                     	;# 
   564     0691                     	;# 
   565     0692                     	;# 
   566     0693                     	;# 
   567     0694                     	;# 
   568     0695                     	;# 
   569     0696                     	;# 
   570     0697                     	;# 
   571     0698                     	;# 
   572     0699                     	;# 
   573     069A                     	;# 
   574     069B                     	;# 
   575     069C                     	;# 
   576     069D                     	;# 
   577     069E                     	;# 
   578     069F                     	;# 
   579     0E0F                     	;# 
   580     0E10                     	;# 
   581     0E11                     	;# 
   582     0E12                     	;# 
   583     0E13                     	;# 
   584     0E14                     	;# 
   585     0E15                     	;# 
   586     0E17                     	;# 
   587     0E20                     	;# 
   588     0E21                     	;# 
   589     0E22                     	;# 
   590     0E24                     	;# 
   591     0E25                     	;# 
   592     0E28                     	;# 
   593     0E29                     	;# 
   594     0E2A                     	;# 
   595     0E2B                     	;# 
   596     0E90                     	;# 
   597     0E91                     	;# 
   598     0E92                     	;# 
   599     0E93                     	;# 
   600     0E94                     	;# 
   601     0E95                     	;# 
   602     0E96                     	;# 
   603     0E97                     	;# 
   604     0E98                     	;# 
   605     0E99                     	;# 
   606     0E9A                     	;# 
   607     0E9B                     	;# 
   608     0E9C                     	;# 
   609     0E9D                     	;# 
   610     0E9E                     	;# 
   611     0E9F                     	;# 
   612     0EA0                     	;# 
   613     0EA1                     	;# 
   614     0EA2                     	;# 
   615     0EA3                     	;# 
   616     0EA4                     	;# 
   617     0EA5                     	;# 
   618     0EA6                     	;# 
   619     0EA7                     	;# 
   620     0F0F                     	;# 
   621     0F10                     	;# 
   622     0F11                     	;# 
   623     0F12                     	;# 
   624     0F13                     	;# 
   625     0F14                     	;# 
   626     0F15                     	;# 
   627     0F16                     	;# 
   628     0F17                     	;# 
   629     0F18                     	;# 
   630     0F19                     	;# 
   631     0F1A                     	;# 
   632     0F1B                     	;# 
   633     0F1C                     	;# 
   634     0F1D                     	;# 
   635     0F1E                     	;# 
   636     0F1F                     	;# 
   637     0F20                     	;# 
   638     0F21                     	;# 
   639     0F22                     	;# 
   640     0F23                     	;# 
   641     0F24                     	;# 
   642     0F25                     	;# 
   643     0F26                     	;# 
   644     0F27                     	;# 
   645     0F28                     	;# 
   646     0F29                     	;# 
   647     0F2A                     	;# 
   648     0F2B                     	;# 
   649     0F2C                     	;# 
   650     0F2D                     	;# 
   651     0F2E                     	;# 
   652     0F2F                     	;# 
   653     0F30                     	;# 
   654     0F31                     	;# 
   655     0F32                     	;# 
   656     0F33                     	;# 
   657     0F34                     	;# 
   658     0F35                     	;# 
   659     0F36                     	;# 
   660     0F37                     	;# 
   661     0FE4                     	;# 
   662     0FE5                     	;# 
   663     0FE6                     	;# 
   664     0FE7                     	;# 
   665     0FE8                     	;# 
   666     0FE9                     	;# 
   667     0FEA                     	;# 
   668     0FEB                     	;# 
   669     0FED                     	;# 
   670     0FEE                     	;# 
   671     0FEF                     	;# 
   672     0000                     	;# 
   673     0001                     	;# 
   674     0002                     	;# 
   675     0003                     	;# 
   676     0004                     	;# 
   677     0005                     	;# 
   678     0006                     	;# 
   679     0007                     	;# 
   680     0008                     	;# 
   681     0009                     	;# 
   682     000A                     	;# 
   683     000B                     	;# 
   684     000C                     	;# 
   685     000D                     	;# 
   686     000E                     	;# 
   687     0010                     	;# 
   688     0011                     	;# 
   689     0012                     	;# 
   690     0013                     	;# 
   691     0015                     	;# 
   692     0016                     	;# 
   693     0016                     	;# 
   694     0017                     	;# 
   695     0018                     	;# 
   696     0019                     	;# 
   697     001A                     	;# 
   698     001B                     	;# 
   699     001C                     	;# 
   700     008C                     	;# 
   701     008D                     	;# 
   702     008E                     	;# 
   703     0090                     	;# 
   704     0091                     	;# 
   705     0092                     	;# 
   706     0093                     	;# 
   707     0095                     	;# 
   708     0096                     	;# 
   709     0097                     	;# 
   710     0098                     	;# 
   711     0099                     	;# 
   712     009A                     	;# 
   713     009B                     	;# 
   714     009B                     	;# 
   715     009C                     	;# 
   716     009D                     	;# 
   717     009E                     	;# 
   718     009F                     	;# 
   719     010C                     	;# 
   720     010D                     	;# 
   721     010E                     	;# 
   722     0111                     	;# 
   723     0112                     	;# 
   724     0113                     	;# 
   725     0114                     	;# 
   726     0115                     	;# 
   727     0116                     	;# 
   728     0117                     	;# 
   729     0118                     	;# 
   730     0119                     	;# 
   731     011A                     	;# 
   732     011B                     	;# 
   733     011B                     	;# 
   734     011C                     	;# 
   735     018C                     	;# 
   736     018D                     	;# 
   737     018E                     	;# 
   738     0191                     	;# 
   739     0191                     	;# 
   740     0192                     	;# 
   741     0193                     	;# 
   742     0193                     	;# 
   743     0194                     	;# 
   744     0195                     	;# 
   745     0196                     	;# 
   746     0197                     	;# 
   747     0199                     	;# 
   748     0199                     	;# 
   749     0199                     	;# 
   750     019A                     	;# 
   751     019A                     	;# 
   752     019A                     	;# 
   753     019B                     	;# 
   754     019B                     	;# 
   755     019B                     	;# 
   756     019B                     	;# 
   757     019B                     	;# 
   758     019C                     	;# 
   759     019C                     	;# 
   760     019C                     	;# 
   761     019D                     	;# 
   762     019D                     	;# 
   763     019D                     	;# 
   764     019E                     	;# 
   765     019E                     	;# 
   766     019E                     	;# 
   767     019F                     	;# 
   768     019F                     	;# 
   769     019F                     	;# 
   770     019F                     	;# 
   771     019F                     	;# 
   772     020C                     	;# 
   773     020D                     	;# 
   774     020E                     	;# 
   775     0210                     	;# 
   776     0211                     	;# 
   777     0211                     	;# 
   778     0212                     	;# 
   779     0212                     	;# 
   780     0213                     	;# 
   781     0213                     	;# 
   782     0214                     	;# 
   783     0214                     	;# 
   784     0215                     	;# 
   785     0215                     	;# 
   786     0215                     	;# 
   787     0215                     	;# 
   788     0216                     	;# 
   789     0216                     	;# 
   790     0217                     	;# 
   791     0217                     	;# 
   792     028C                     	;# 
   793     028D                     	;# 
   794     028E                     	;# 
   795     0291                     	;# 
   796     0291                     	;# 
   797     0292                     	;# 
   798     0293                     	;# 
   799     0293                     	;# 
   800     0298                     	;# 
   801     0298                     	;# 
   802     0299                     	;# 
   803     029A                     	;# 
   804     029A                     	;# 
   805     029E                     	;# 
   806     030C                     	;# 
   807     030D                     	;# 
   808     030E                     	;# 
   809     038C                     	;# 
   810     038D                     	;# 
   811     038E                     	;# 
   812     0390                     	;# 
   813     0391                     	;# 
   814     0392                     	;# 
   815     0393                     	;# 
   816     0394                     	;# 
   817     0395                     	;# 
   818     0396                     	;# 
   819     0397                     	;# 
   820     0398                     	;# 
   821     0399                     	;# 
   822     039D                     	;# 
   823     039E                     	;# 
   824     039F                     	;# 
   825     0415                     	;# 
   826     0416                     	;# 
   827     0417                     	;# 
   828     041C                     	;# 
   829     041D                     	;# 
   830     041E                     	;# 
   831     0498                     	;# 
   832     0498                     	;# 
   833     0499                     	;# 
   834     049A                     	;# 
   835     049B                     	;# 
   836     049B                     	;# 
   837     049C                     	;# 
   838     049D                     	;# 
   839     049E                     	;# 
   840     049F                     	;# 
   841     0511                     	;# 
   842     0515                     	;# 
   843     0617                     	;# 
   844     0618                     	;# 
   845     0619                     	;# 
   846     0619                     	;# 
   847     061A                     	;# 
   848     061B                     	;# 
   849     061C                     	;# 
   850     061C                     	;# 
   851     0691                     	;# 
   852     0692                     	;# 
   853     0693                     	;# 
   854     0694                     	;# 
   855     0695                     	;# 
   856     0696                     	;# 
   857     0697                     	;# 
   858     0698                     	;# 
   859     0699                     	;# 
   860     069A                     	;# 
   861     069B                     	;# 
   862     069C                     	;# 
   863     069D                     	;# 
   864     069E                     	;# 
   865     069F                     	;# 
   866     0E0F                     	;# 
   867     0E10                     	;# 
   868     0E11                     	;# 
   869     0E12                     	;# 
   870     0E13                     	;# 
   871     0E14                     	;# 
   872     0E15                     	;# 
   873     0E17                     	;# 
   874     0E20                     	;# 
   875     0E21                     	;# 
   876     0E22                     	;# 
   877     0E24                     	;# 
   878     0E25                     	;# 
   879     0E28                     	;# 
   880     0E29                     	;# 
   881     0E2A                     	;# 
   882     0E2B                     	;# 
   883     0E90                     	;# 
   884     0E91                     	;# 
   885     0E92                     	;# 
   886     0E93                     	;# 
   887     0E94                     	;# 
   888     0E95                     	;# 
   889     0E96                     	;# 
   890     0E97                     	;# 
   891     0E98                     	;# 
   892     0E99                     	;# 
   893     0E9A                     	;# 
   894     0E9B                     	;# 
   895     0E9C                     	;# 
   896     0E9D                     	;# 
   897     0E9E                     	;# 
   898     0E9F                     	;# 
   899     0EA0                     	;# 
   900     0EA1                     	;# 
   901     0EA2                     	;# 
   902     0EA3                     	;# 
   903     0EA4                     	;# 
   904     0EA5                     	;# 
   905     0EA6                     	;# 
   906     0EA7                     	;# 
   907     0F0F                     	;# 
   908     0F10                     	;# 
   909     0F11                     	;# 
   910     0F12                     	;# 
   911     0F13                     	;# 
   912     0F14                     	;# 
   913     0F15                     	;# 
   914     0F16                     	;# 
   915     0F17                     	;# 
   916     0F18                     	;# 
   917     0F19                     	;# 
   918     0F1A                     	;# 
   919     0F1B                     	;# 
   920     0F1C                     	;# 
   921     0F1D                     	;# 
   922     0F1E                     	;# 
   923     0F1F                     	;# 
   924     0F20                     	;# 
   925     0F21                     	;# 
   926     0F22                     	;# 
   927     0F23                     	;# 
   928     0F24                     	;# 
   929     0F25                     	;# 
   930     0F26                     	;# 
   931     0F27                     	;# 
   932     0F28                     	;# 
   933     0F29                     	;# 
   934     0F2A                     	;# 
   935     0F2B                     	;# 
   936     0F2C                     	;# 
   937     0F2D                     	;# 
   938     0F2E                     	;# 
   939     0F2F                     	;# 
   940     0F30                     	;# 
   941     0F31                     	;# 
   942     0F32                     	;# 
   943     0F33                     	;# 
   944     0F34                     	;# 
   945     0F35                     	;# 
   946     0F36                     	;# 
   947     0F37                     	;# 
   948     0FE4                     	;# 
   949     0FE5                     	;# 
   950     0FE6                     	;# 
   951     0FE7                     	;# 
   952     0FE8                     	;# 
   953     0FE9                     	;# 
   954     0FEA                     	;# 
   955     0FEB                     	;# 
   956     0FED                     	;# 
   957     0FEE                     	;# 
   958     0FEF                     	;# 
   959     0000                     	;# 
   960     0001                     	;# 
   961     0002                     	;# 
   962     0003                     	;# 
   963     0004                     	;# 
   964     0005                     	;# 
   965     0006                     	;# 
   966     0007                     	;# 
   967     0008                     	;# 
   968     0009                     	;# 
   969     000A                     	;# 
   970     000B                     	;# 
   971     000C                     	;# 
   972     000D                     	;# 
   973     000E                     	;# 
   974     0010                     	;# 
   975     0011                     	;# 
   976     0012                     	;# 
   977     0013                     	;# 
   978     0015                     	;# 
   979     0016                     	;# 
   980     0016                     	;# 
   981     0017                     	;# 
   982     0018                     	;# 
   983     0019                     	;# 
   984     001A                     	;# 
   985     001B                     	;# 
   986     001C                     	;# 
   987     008C                     	;# 
   988     008D                     	;# 
   989     008E                     	;# 
   990     0090                     	;# 
   991     0091                     	;# 
   992     0092                     	;# 
   993     0093                     	;# 
   994     0095                     	;# 
   995     0096                     	;# 
   996     0097                     	;# 
   997     0098                     	;# 
   998     0099                     	;# 
   999     009A                     	;# 
  1000     009B                     	;# 
  1001     009B                     	;# 
  1002     009C                     	;# 
  1003     009D                     	;# 
  1004     009E                     	;# 
  1005     009F                     	;# 
  1006     010C                     	;# 
  1007     010D                     	;# 
  1008     010E                     	;# 
  1009     0111                     	;# 
  1010     0112                     	;# 
  1011     0113                     	;# 
  1012     0114                     	;# 
  1013     0115                     	;# 
  1014     0116                     	;# 
  1015     0117                     	;# 
  1016     0118                     	;# 
  1017     0119                     	;# 
  1018     011A                     	;# 
  1019     011B                     	;# 
  1020     011B                     	;# 
  1021     011C                     	;# 
  1022     018C                     	;# 
  1023     018D                     	;# 
  1024     018E                     	;# 
  1025     0191                     	;# 
  1026     0191                     	;# 
  1027     0192                     	;# 
  1028     0193                     	;# 
  1029     0193                     	;# 
  1030     0194                     	;# 
  1031     0195                     	;# 
  1032     0196                     	;# 
  1033     0197                     	;# 
  1034     0199                     	;# 
  1035     0199                     	;# 
  1036     0199                     	;# 
  1037     019A                     	;# 
  1038     019A                     	;# 
  1039     019A                     	;# 
  1040     019B                     	;# 
  1041     019B                     	;# 
  1042     019B                     	;# 
  1043     019B                     	;# 
  1044     019B                     	;# 
  1045     019C                     	;# 
  1046     019C                     	;# 
  1047     019C                     	;# 
  1048     019D                     	;# 
  1049     019D                     	;# 
  1050     019D                     	;# 
  1051     019E                     	;# 
  1052     019E                     	;# 
  1053     019E                     	;# 
  1054     019F                     	;# 
  1055     019F                     	;# 
  1056     019F                     	;# 
  1057     019F                     	;# 
  1058     019F                     	;# 
  1059     020C                     	;# 
  1060     020D                     	;# 
  1061     020E                     	;# 
  1062     0210                     	;# 
  1063     0211                     	;# 
  1064     0211                     	;# 
  1065     0212                     	;# 
  1066     0212                     	;# 
  1067     0213                     	;# 
  1068     0213                     	;# 
  1069     0214                     	;# 
  1070     0214                     	;# 
  1071     0215                     	;# 
  1072     0215                     	;# 
  1073     0215                     	;# 
  1074     0215                     	;# 
  1075     0216                     	;# 
  1076     0216                     	;# 
  1077     0217                     	;# 
  1078     0217                     	;# 
  1079     028C                     	;# 
  1080     028D                     	;# 
  1081     028E                     	;# 
  1082     0291                     	;# 
  1083     0291                     	;# 
  1084     0292                     	;# 
  1085     0293                     	;# 
  1086     0293                     	;# 
  1087     0298                     	;# 
  1088     0298                     	;# 
  1089     0299                     	;# 
  1090     029A                     	;# 
  1091     029A                     	;# 
  1092     029E                     	;# 
  1093     030C                     	;# 
  1094     030D                     	;# 
  1095     030E                     	;# 
  1096     038C                     	;# 
  1097     038D                     	;# 
  1098     038E                     	;# 
  1099     0390                     	;# 
  1100     0391                     	;# 
  1101     0392                     	;# 
  1102     0393                     	;# 
  1103     0394                     	;# 
  1104     0395                     	;# 
  1105     0396                     	;# 
  1106     0397                     	;# 
  1107     0398                     	;# 
  1108     0399                     	;# 
  1109     039D                     	;# 
  1110     039E                     	;# 
  1111     039F                     	;# 
  1112     0415                     	;# 
  1113     0416                     	;# 
  1114     0417                     	;# 
  1115     041C                     	;# 
  1116     041D                     	;# 
  1117     041E                     	;# 
  1118     0498                     	;# 
  1119     0498                     	;# 
  1120     0499                     	;# 
  1121     049A                     	;# 
  1122     049B                     	;# 
  1123     049B                     	;# 
  1124     049C                     	;# 
  1125     049D                     	;# 
  1126     049E                     	;# 
  1127     049F                     	;# 
  1128     0511                     	;# 
  1129     0515                     	;# 
  1130     0617                     	;# 
  1131     0618                     	;# 
  1132     0619                     	;# 
  1133     0619                     	;# 
  1134     061A                     	;# 
  1135     061B                     	;# 
  1136     061C                     	;# 
  1137     061C                     	;# 
  1138     0691                     	;# 
  1139     0692                     	;# 
  1140     0693                     	;# 
  1141     0694                     	;# 
  1142     0695                     	;# 
  1143     0696                     	;# 
  1144     0697                     	;# 
  1145     0698                     	;# 
  1146     0699                     	;# 
  1147     069A                     	;# 
  1148     069B                     	;# 
  1149     069C                     	;# 
  1150     069D                     	;# 
  1151     069E                     	;# 
  1152     069F                     	;# 
  1153     0E0F                     	;# 
  1154     0E10                     	;# 
  1155     0E11                     	;# 
  1156     0E12                     	;# 
  1157     0E13                     	;# 
  1158     0E14                     	;# 
  1159     0E15                     	;# 
  1160     0E17                     	;# 
  1161     0E20                     	;# 
  1162     0E21                     	;# 
  1163     0E22                     	;# 
  1164     0E24                     	;# 
  1165     0E25                     	;# 
  1166     0E28                     	;# 
  1167     0E29                     	;# 
  1168     0E2A                     	;# 
  1169     0E2B                     	;# 
  1170     0E90                     	;# 
  1171     0E91                     	;# 
  1172     0E92                     	;# 
  1173     0E93                     	;# 
  1174     0E94                     	;# 
  1175     0E95                     	;# 
  1176     0E96                     	;# 
  1177     0E97                     	;# 
  1178     0E98                     	;# 
  1179     0E99                     	;# 
  1180     0E9A                     	;# 
  1181     0E9B                     	;# 
  1182     0E9C                     	;# 
  1183     0E9D                     	;# 
  1184     0E9E                     	;# 
  1185     0E9F                     	;# 
  1186     0EA0                     	;# 
  1187     0EA1                     	;# 
  1188     0EA2                     	;# 
  1189     0EA3                     	;# 
  1190     0EA4                     	;# 
  1191     0EA5                     	;# 
  1192     0EA6                     	;# 
  1193     0EA7                     	;# 
  1194     0F0F                     	;# 
  1195     0F10                     	;# 
  1196     0F11                     	;# 
  1197     0F12                     	;# 
  1198     0F13                     	;# 
  1199     0F14                     	;# 
  1200     0F15                     	;# 
  1201     0F16                     	;# 
  1202     0F17                     	;# 
  1203     0F18                     	;# 
  1204     0F19                     	;# 
  1205     0F1A                     	;# 
  1206     0F1B                     	;# 
  1207     0F1C                     	;# 
  1208     0F1D                     	;# 
  1209     0F1E                     	;# 
  1210     0F1F                     	;# 
  1211     0F20                     	;# 
  1212     0F21                     	;# 
  1213     0F22                     	;# 
  1214     0F23                     	;# 
  1215     0F24                     	;# 
  1216     0F25                     	;# 
  1217     0F26                     	;# 
  1218     0F27                     	;# 
  1219     0F28                     	;# 
  1220     0F29                     	;# 
  1221     0F2A                     	;# 
  1222     0F2B                     	;# 
  1223     0F2C                     	;# 
  1224     0F2D                     	;# 
  1225     0F2E                     	;# 
  1226     0F2F                     	;# 
  1227     0F30                     	;# 
  1228     0F31                     	;# 
  1229     0F32                     	;# 
  1230     0F33                     	;# 
  1231     0F34                     	;# 
  1232     0F35                     	;# 
  1233     0F36                     	;# 
  1234     0F37                     	;# 
  1235     0FE4                     	;# 
  1236     0FE5                     	;# 
  1237     0FE6                     	;# 
  1238     0FE7                     	;# 
  1239     0FE8                     	;# 
  1240     0FE9                     	;# 
  1241     0FEA                     	;# 
  1242     0FEB                     	;# 
  1243     0FED                     	;# 
  1244     0FEE                     	;# 
  1245     0FEF                     	;_screen_buffer
  1246                           
  1247                           	psect	stringtext1
  1248     100C                     __pstringtext1:
  1249     100C                     _BatteryIcon:
  1250     100C  34FF               	retlw	255
  1251     100D  3481               	retlw	129
  1252     100E  34BD               	retlw	189
  1253     100F  34BD               	retlw	189
  1254     1010  34BD               	retlw	189
  1255     1011  3481               	retlw	129
  1256     1012  34FF               	retlw	255
  1257     1013  3418               	retlw	24
  1258     1014  3400               	retlw	0
  1259     1015  3400               	retlw	0
  1260     1016                     __end_of_BatteryIcon:
  1261                           
  1262                           	psect	stringtext2
  1263     0800                     __pstringtext2:
  1264     0800                     _OledFont:
  1265     0800  3400               	retlw	0
  1266     0801  3400               	retlw	0
  1267     0802  3400               	retlw	0
  1268     0803  3400               	retlw	0
  1269     0804  3400               	retlw	0
  1270     0805  3400               	retlw	0
  1271     0806  3400               	retlw	0
  1272     0807  3400               	retlw	0
  1273     0808  3400               	retlw	0
  1274     0809  3400               	retlw	0
  1275     080A  345F               	retlw	95
  1276     080B  3400               	retlw	0
  1277     080C  3400               	retlw	0
  1278     080D  3400               	retlw	0
  1279     080E  3400               	retlw	0
  1280     080F  3400               	retlw	0
  1281     0810  3400               	retlw	0
  1282     0811  3400               	retlw	0
  1283     0812  3407               	retlw	7
  1284     0813  3400               	retlw	0
  1285     0814  3407               	retlw	7
  1286     0815  3400               	retlw	0
  1287     0816  3400               	retlw	0
  1288     0817  3400               	retlw	0
  1289     0818  3400               	retlw	0
  1290     0819  3414               	retlw	20
  1291     081A  347F               	retlw	127
  1292     081B  3414               	retlw	20
  1293     081C  347F               	retlw	127
  1294     081D  3414               	retlw	20
  1295     081E  3400               	retlw	0
  1296     081F  3400               	retlw	0
  1297     0820  3400               	retlw	0
  1298     0821  3424               	retlw	36
  1299     0822  342A               	retlw	42
  1300     0823  347F               	retlw	127
  1301     0824  342A               	retlw	42
  1302     0825  3412               	retlw	18
  1303     0826  3400               	retlw	0
  1304     0827  3400               	retlw	0
  1305     0828  3400               	retlw	0
  1306     0829  3423               	retlw	35
  1307     082A  3413               	retlw	19
  1308     082B  3408               	retlw	8
  1309     082C  3464               	retlw	100
  1310     082D  3462               	retlw	98
  1311     082E  3400               	retlw	0
  1312     082F  3400               	retlw	0
  1313     0830  3400               	retlw	0
  1314     0831  3436               	retlw	54
  1315     0832  3449               	retlw	73
  1316     0833  3455               	retlw	85
  1317     0834  3422               	retlw	34
  1318     0835  3450               	retlw	80
  1319     0836  3400               	retlw	0
  1320     0837  3400               	retlw	0
  1321     0838  3400               	retlw	0
  1322     0839  3400               	retlw	0
  1323     083A  3405               	retlw	5
  1324     083B  3403               	retlw	3
  1325     083C  3400               	retlw	0
  1326     083D  3400               	retlw	0
  1327     083E  3400               	retlw	0
  1328     083F  3400               	retlw	0
  1329     0840  3400               	retlw	0
  1330     0841  341C               	retlw	28
  1331     0842  3422               	retlw	34
  1332     0843  3441               	retlw	65
  1333     0844  3400               	retlw	0
  1334     0845  3400               	retlw	0
  1335     0846  3400               	retlw	0
  1336     0847  3400               	retlw	0
  1337     0848  3400               	retlw	0
  1338     0849  3441               	retlw	65
  1339     084A  3422               	retlw	34
  1340     084B  341C               	retlw	28
  1341     084C  3400               	retlw	0
  1342     084D  3400               	retlw	0
  1343     084E  3400               	retlw	0
  1344     084F  3400               	retlw	0
  1345     0850  3400               	retlw	0
  1346     0851  3408               	retlw	8
  1347     0852  342A               	retlw	42
  1348     0853  341C               	retlw	28
  1349     0854  342A               	retlw	42
  1350     0855  3408               	retlw	8
  1351     0856  3400               	retlw	0
  1352     0857  3400               	retlw	0
  1353     0858  3400               	retlw	0
  1354     0859  3408               	retlw	8
  1355     085A  3408               	retlw	8
  1356     085B  343E               	retlw	62
  1357     085C  3408               	retlw	8
  1358     085D  3408               	retlw	8
  1359     085E  3400               	retlw	0
  1360     085F  3400               	retlw	0
  1361     0860  3400               	retlw	0
  1362     0861  34A0               	retlw	160
  1363     0862  3460               	retlw	96
  1364     0863  3400               	retlw	0
  1365     0864  3400               	retlw	0
  1366     0865  3400               	retlw	0
  1367     0866  3400               	retlw	0
  1368     0867  3400               	retlw	0
  1369     0868  3400               	retlw	0
  1370     0869  3408               	retlw	8
  1371     086A  3408               	retlw	8
  1372     086B  3408               	retlw	8
  1373     086C  3408               	retlw	8
  1374     086D  3408               	retlw	8
  1375     086E  3400               	retlw	0
  1376     086F  3400               	retlw	0
  1377     0870  3400               	retlw	0
  1378     0871  3460               	retlw	96
  1379     0872  3460               	retlw	96
  1380     0873  3400               	retlw	0
  1381     0874  3400               	retlw	0
  1382     0875  3400               	retlw	0
  1383     0876  3400               	retlw	0
  1384     0877  3400               	retlw	0
  1385     0878  3400               	retlw	0
  1386     0879  3420               	retlw	32
  1387     087A  3410               	retlw	16
  1388     087B  3408               	retlw	8
  1389     087C  3404               	retlw	4
  1390     087D  3402               	retlw	2
  1391     087E  3400               	retlw	0
  1392     087F  3400               	retlw	0
  1393     0880  3400               	retlw	0
  1394     0881  343E               	retlw	62
  1395     0882  3451               	retlw	81
  1396     0883  3449               	retlw	73
  1397     0884  3445               	retlw	69
  1398     0885  343E               	retlw	62
  1399     0886  3400               	retlw	0
  1400     0887  3400               	retlw	0
  1401     0888  3400               	retlw	0
  1402     0889  3400               	retlw	0
  1403     088A  3442               	retlw	66
  1404     088B  347F               	retlw	127
  1405     088C  3440               	retlw	64
  1406     088D  3400               	retlw	0
  1407     088E  3400               	retlw	0
  1408     088F  3400               	retlw	0
  1409     0890  3400               	retlw	0
  1410     0891  3462               	retlw	98
  1411     0892  3451               	retlw	81
  1412     0893  3449               	retlw	73
  1413     0894  3449               	retlw	73
  1414     0895  3446               	retlw	70
  1415     0896  3400               	retlw	0
  1416     0897  3400               	retlw	0
  1417     0898  3400               	retlw	0
  1418     0899  3422               	retlw	34
  1419     089A  3441               	retlw	65
  1420     089B  3449               	retlw	73
  1421     089C  3449               	retlw	73
  1422     089D  3436               	retlw	54
  1423     089E  3400               	retlw	0
  1424     089F  3400               	retlw	0
  1425     08A0  3400               	retlw	0
  1426     08A1  3418               	retlw	24
  1427     08A2  3414               	retlw	20
  1428     08A3  3412               	retlw	18
  1429     08A4  347F               	retlw	127
  1430     08A5  3410               	retlw	16
  1431     08A6  3400               	retlw	0
  1432     08A7  3400               	retlw	0
  1433     08A8  3400               	retlw	0
  1434     08A9  3427               	retlw	39
  1435     08AA  3445               	retlw	69
  1436     08AB  3445               	retlw	69
  1437     08AC  3445               	retlw	69
  1438     08AD  3439               	retlw	57
  1439     08AE  3400               	retlw	0
  1440     08AF  3400               	retlw	0
  1441     08B0  3400               	retlw	0
  1442     08B1  343C               	retlw	60
  1443     08B2  344A               	retlw	74
  1444     08B3  3449               	retlw	73
  1445     08B4  3449               	retlw	73
  1446     08B5  3430               	retlw	48
  1447     08B6  3400               	retlw	0
  1448     08B7  3400               	retlw	0
  1449     08B8  3400               	retlw	0
  1450     08B9  3401               	retlw	1
  1451     08BA  3471               	retlw	113
  1452     08BB  3409               	retlw	9
  1453     08BC  3405               	retlw	5
  1454     08BD  3403               	retlw	3
  1455     08BE  3400               	retlw	0
  1456     08BF  3400               	retlw	0
  1457     08C0  3400               	retlw	0
  1458     08C1  3436               	retlw	54
  1459     08C2  3449               	retlw	73
  1460     08C3  3449               	retlw	73
  1461     08C4  3449               	retlw	73
  1462     08C5  3436               	retlw	54
  1463     08C6  3400               	retlw	0
  1464     08C7  3400               	retlw	0
  1465     08C8  3400               	retlw	0
  1466     08C9  3406               	retlw	6
  1467     08CA  3449               	retlw	73
  1468     08CB  3449               	retlw	73
  1469     08CC  3429               	retlw	41
  1470     08CD  341E               	retlw	30
  1471     08CE  3400               	retlw	0
  1472     08CF  3400               	retlw	0
  1473     08D0  3400               	retlw	0
  1474     08D1  3400               	retlw	0
  1475     08D2  3436               	retlw	54
  1476     08D3  3436               	retlw	54
  1477     08D4  3400               	retlw	0
  1478     08D5  3400               	retlw	0
  1479     08D6  3400               	retlw	0
  1480     08D7  3400               	retlw	0
  1481     08D8  3400               	retlw	0
  1482     08D9  3400               	retlw	0
  1483     08DA  34AC               	retlw	172
  1484     08DB  346C               	retlw	108
  1485     08DC  3400               	retlw	0
  1486     08DD  3400               	retlw	0
  1487     08DE  3400               	retlw	0
  1488     08DF  3400               	retlw	0
  1489     08E0  3400               	retlw	0
  1490     08E1  3408               	retlw	8
  1491     08E2  3414               	retlw	20
  1492     08E3  3422               	retlw	34
  1493     08E4  3441               	retlw	65
  1494     08E5  3400               	retlw	0
  1495     08E6  3400               	retlw	0
  1496     08E7  3400               	retlw	0
  1497     08E8  3400               	retlw	0
  1498     08E9  3414               	retlw	20
  1499     08EA  3414               	retlw	20
  1500     08EB  3414               	retlw	20
  1501     08EC  3414               	retlw	20
  1502     08ED  3414               	retlw	20
  1503     08EE  3400               	retlw	0
  1504     08EF  3400               	retlw	0
  1505     08F0  3400               	retlw	0
  1506     08F1  3441               	retlw	65
  1507     08F2  3422               	retlw	34
  1508     08F3  3414               	retlw	20
  1509     08F4  3408               	retlw	8
  1510     08F5  3400               	retlw	0
  1511     08F6  3400               	retlw	0
  1512     08F7  3400               	retlw	0
  1513     08F8  3400               	retlw	0
  1514     08F9  3402               	retlw	2
  1515     08FA  3401               	retlw	1
  1516     08FB  3451               	retlw	81
  1517     08FC  3409               	retlw	9
  1518     08FD  3406               	retlw	6
  1519     08FE  3400               	retlw	0
  1520     08FF  3400               	retlw	0
  1521     0900  3400               	retlw	0
  1522     0901  3432               	retlw	50
  1523     0902  3449               	retlw	73
  1524     0903  3479               	retlw	121
  1525     0904  3441               	retlw	65
  1526     0905  343E               	retlw	62
  1527     0906  3400               	retlw	0
  1528     0907  3400               	retlw	0
  1529     0908  3400               	retlw	0
  1530     0909  347E               	retlw	126
  1531     090A  3409               	retlw	9
  1532     090B  3409               	retlw	9
  1533     090C  3409               	retlw	9
  1534     090D  347E               	retlw	126
  1535     090E  3400               	retlw	0
  1536     090F  3400               	retlw	0
  1537     0910  3400               	retlw	0
  1538     0911  347F               	retlw	127
  1539     0912  3449               	retlw	73
  1540     0913  3449               	retlw	73
  1541     0914  3449               	retlw	73
  1542     0915  3436               	retlw	54
  1543     0916  3400               	retlw	0
  1544     0917  3400               	retlw	0
  1545     0918  3400               	retlw	0
  1546     0919  343E               	retlw	62
  1547     091A  3441               	retlw	65
  1548     091B  3441               	retlw	65
  1549     091C  3441               	retlw	65
  1550     091D  3422               	retlw	34
  1551     091E  3400               	retlw	0
  1552     091F  3400               	retlw	0
  1553     0920  3400               	retlw	0
  1554     0921  347F               	retlw	127
  1555     0922  3441               	retlw	65
  1556     0923  3441               	retlw	65
  1557     0924  3422               	retlw	34
  1558     0925  341C               	retlw	28
  1559     0926  3400               	retlw	0
  1560     0927  3400               	retlw	0
  1561     0928  3400               	retlw	0
  1562     0929  347F               	retlw	127
  1563     092A  3449               	retlw	73
  1564     092B  3449               	retlw	73
  1565     092C  3449               	retlw	73
  1566     092D  3441               	retlw	65
  1567     092E  3400               	retlw	0
  1568     092F  3400               	retlw	0
  1569     0930  3400               	retlw	0
  1570     0931  347F               	retlw	127
  1571     0932  3409               	retlw	9
  1572     0933  3409               	retlw	9
  1573     0934  3409               	retlw	9
  1574     0935  3401               	retlw	1
  1575     0936  3400               	retlw	0
  1576     0937  3400               	retlw	0
  1577     0938  3400               	retlw	0
  1578     0939  343E               	retlw	62
  1579     093A  3441               	retlw	65
  1580     093B  3441               	retlw	65
  1581     093C  3451               	retlw	81
  1582     093D  3472               	retlw	114
  1583     093E  3400               	retlw	0
  1584     093F  3400               	retlw	0
  1585     0940  3400               	retlw	0
  1586     0941  347F               	retlw	127
  1587     0942  3408               	retlw	8
  1588     0943  3408               	retlw	8
  1589     0944  3408               	retlw	8
  1590     0945  347F               	retlw	127
  1591     0946  3400               	retlw	0
  1592     0947  3400               	retlw	0
  1593     0948  3400               	retlw	0
  1594     0949  3441               	retlw	65
  1595     094A  347F               	retlw	127
  1596     094B  3441               	retlw	65
  1597     094C  3400               	retlw	0
  1598     094D  3400               	retlw	0
  1599     094E  3400               	retlw	0
  1600     094F  3400               	retlw	0
  1601     0950  3400               	retlw	0
  1602     0951  3420               	retlw	32
  1603     0952  3440               	retlw	64
  1604     0953  3441               	retlw	65
  1605     0954  343F               	retlw	63
  1606     0955  3401               	retlw	1
  1607     0956  3400               	retlw	0
  1608     0957  3400               	retlw	0
  1609     0958  3400               	retlw	0
  1610     0959  347F               	retlw	127
  1611     095A  3408               	retlw	8
  1612     095B  3414               	retlw	20
  1613     095C  3422               	retlw	34
  1614     095D  3441               	retlw	65
  1615     095E  3400               	retlw	0
  1616     095F  3400               	retlw	0
  1617     0960  3400               	retlw	0
  1618     0961  347F               	retlw	127
  1619     0962  3440               	retlw	64
  1620     0963  3440               	retlw	64
  1621     0964  3440               	retlw	64
  1622     0965  3440               	retlw	64
  1623     0966  3400               	retlw	0
  1624     0967  3400               	retlw	0
  1625     0968  3400               	retlw	0
  1626     0969  347F               	retlw	127
  1627     096A  3402               	retlw	2
  1628     096B  340C               	retlw	12
  1629     096C  3402               	retlw	2
  1630     096D  347F               	retlw	127
  1631     096E  3400               	retlw	0
  1632     096F  3400               	retlw	0
  1633     0970  3400               	retlw	0
  1634     0971  347F               	retlw	127
  1635     0972  3404               	retlw	4
  1636     0973  3408               	retlw	8
  1637     0974  3410               	retlw	16
  1638     0975  347F               	retlw	127
  1639     0976  3400               	retlw	0
  1640     0977  3400               	retlw	0
  1641     0978  3400               	retlw	0
  1642     0979  343E               	retlw	62
  1643     097A  3441               	retlw	65
  1644     097B  3441               	retlw	65
  1645     097C  3441               	retlw	65
  1646     097D  343E               	retlw	62
  1647     097E  3400               	retlw	0
  1648     097F  3400               	retlw	0
  1649     0980  3400               	retlw	0
  1650     0981  347F               	retlw	127
  1651     0982  3409               	retlw	9
  1652     0983  3409               	retlw	9
  1653     0984  3409               	retlw	9
  1654     0985  3406               	retlw	6
  1655     0986  3400               	retlw	0
  1656     0987  3400               	retlw	0
  1657     0988  3400               	retlw	0
  1658     0989  343E               	retlw	62
  1659     098A  3441               	retlw	65
  1660     098B  3451               	retlw	81
  1661     098C  3421               	retlw	33
  1662     098D  345E               	retlw	94
  1663     098E  3400               	retlw	0
  1664     098F  3400               	retlw	0
  1665     0990  3400               	retlw	0
  1666     0991  347F               	retlw	127
  1667     0992  3409               	retlw	9
  1668     0993  3419               	retlw	25
  1669     0994  3429               	retlw	41
  1670     0995  3446               	retlw	70
  1671     0996  3400               	retlw	0
  1672     0997  3400               	retlw	0
  1673     0998  3400               	retlw	0
  1674     0999  3426               	retlw	38
  1675     099A  3449               	retlw	73
  1676     099B  3449               	retlw	73
  1677     099C  3449               	retlw	73
  1678     099D  3432               	retlw	50
  1679     099E  3400               	retlw	0
  1680     099F  3400               	retlw	0
  1681     09A0  3400               	retlw	0
  1682     09A1  3401               	retlw	1
  1683     09A2  3401               	retlw	1
  1684     09A3  347F               	retlw	127
  1685     09A4  3401               	retlw	1
  1686     09A5  3401               	retlw	1
  1687     09A6  3400               	retlw	0
  1688     09A7  3400               	retlw	0
  1689     09A8  3400               	retlw	0
  1690     09A9  343F               	retlw	63
  1691     09AA  3440               	retlw	64
  1692     09AB  3440               	retlw	64
  1693     09AC  3440               	retlw	64
  1694     09AD  343F               	retlw	63
  1695     09AE  3400               	retlw	0
  1696     09AF  3400               	retlw	0
  1697     09B0  3400               	retlw	0
  1698     09B1  341F               	retlw	31
  1699     09B2  3420               	retlw	32
  1700     09B3  3440               	retlw	64
  1701     09B4  3420               	retlw	32
  1702     09B5  341F               	retlw	31
  1703     09B6  3400               	retlw	0
  1704     09B7  3400               	retlw	0
  1705     09B8  3400               	retlw	0
  1706     09B9  343F               	retlw	63
  1707     09BA  3440               	retlw	64
  1708     09BB  3438               	retlw	56
  1709     09BC  3440               	retlw	64
  1710     09BD  343F               	retlw	63
  1711     09BE  3400               	retlw	0
  1712     09BF  3400               	retlw	0
  1713     09C0  3400               	retlw	0
  1714     09C1  3463               	retlw	99
  1715     09C2  3414               	retlw	20
  1716     09C3  3408               	retlw	8
  1717     09C4  3414               	retlw	20
  1718     09C5  3463               	retlw	99
  1719     09C6  3400               	retlw	0
  1720     09C7  3400               	retlw	0
  1721     09C8  3400               	retlw	0
  1722     09C9  3403               	retlw	3
  1723     09CA  3404               	retlw	4
  1724     09CB  3478               	retlw	120
  1725     09CC  3404               	retlw	4
  1726     09CD  3403               	retlw	3
  1727     09CE  3400               	retlw	0
  1728     09CF  3400               	retlw	0
  1729     09D0  3400               	retlw	0
  1730     09D1  3461               	retlw	97
  1731     09D2  3451               	retlw	81
  1732     09D3  3449               	retlw	73
  1733     09D4  3445               	retlw	69
  1734     09D5  3443               	retlw	67
  1735     09D6  3400               	retlw	0
  1736     09D7  3400               	retlw	0
  1737     09D8  3400               	retlw	0
  1738     09D9  347F               	retlw	127
  1739     09DA  3441               	retlw	65
  1740     09DB  3441               	retlw	65
  1741     09DC  3400               	retlw	0
  1742     09DD  3400               	retlw	0
  1743     09DE  3400               	retlw	0
  1744     09DF  3400               	retlw	0
  1745     09E0  3400               	retlw	0
  1746     09E1  3402               	retlw	2
  1747     09E2  3404               	retlw	4
  1748     09E3  3408               	retlw	8
  1749     09E4  3410               	retlw	16
  1750     09E5  3420               	retlw	32
  1751     09E6  3400               	retlw	0
  1752     09E7  3400               	retlw	0
  1753     09E8  3400               	retlw	0
  1754     09E9  3441               	retlw	65
  1755     09EA  3441               	retlw	65
  1756     09EB  347F               	retlw	127
  1757     09EC  3400               	retlw	0
  1758     09ED  3400               	retlw	0
  1759     09EE  3400               	retlw	0
  1760     09EF  3400               	retlw	0
  1761     09F0  3400               	retlw	0
  1762     09F1  3404               	retlw	4
  1763     09F2  3402               	retlw	2
  1764     09F3  3401               	retlw	1
  1765     09F4  3402               	retlw	2
  1766     09F5  3404               	retlw	4
  1767     09F6  3400               	retlw	0
  1768     09F7  3400               	retlw	0
  1769     09F8  3400               	retlw	0
  1770     09F9  3480               	retlw	128
  1771     09FA  3480               	retlw	128
  1772     09FB  3480               	retlw	128
  1773     09FC  3480               	retlw	128
  1774     09FD  3480               	retlw	128
  1775     09FE  3400               	retlw	0
  1776     09FF  3400               	retlw	0
  1777     0A00  3400               	retlw	0
  1778     0A01  3401               	retlw	1
  1779     0A02  3402               	retlw	2
  1780     0A03  3404               	retlw	4
  1781     0A04  3400               	retlw	0
  1782     0A05  3400               	retlw	0
  1783     0A06  3400               	retlw	0
  1784     0A07  3400               	retlw	0
  1785     0A08  3400               	retlw	0
  1786     0A09  3420               	retlw	32
  1787     0A0A  3454               	retlw	84
  1788     0A0B  3454               	retlw	84
  1789     0A0C  3454               	retlw	84
  1790     0A0D  3478               	retlw	120
  1791     0A0E  3400               	retlw	0
  1792     0A0F  3400               	retlw	0
  1793     0A10  3400               	retlw	0
  1794     0A11  347F               	retlw	127
  1795     0A12  3448               	retlw	72
  1796     0A13  3444               	retlw	68
  1797     0A14  3444               	retlw	68
  1798     0A15  3438               	retlw	56
  1799     0A16  3400               	retlw	0
  1800     0A17  3400               	retlw	0
  1801     0A18  3400               	retlw	0
  1802     0A19  3438               	retlw	56
  1803     0A1A  3444               	retlw	68
  1804     0A1B  3444               	retlw	68
  1805     0A1C  3428               	retlw	40
  1806     0A1D  3400               	retlw	0
  1807     0A1E  3400               	retlw	0
  1808     0A1F  3400               	retlw	0
  1809     0A20  3400               	retlw	0
  1810     0A21  3438               	retlw	56
  1811     0A22  3444               	retlw	68
  1812     0A23  3444               	retlw	68
  1813     0A24  3448               	retlw	72
  1814     0A25  347F               	retlw	127
  1815     0A26  3400               	retlw	0
  1816     0A27  3400               	retlw	0
  1817     0A28  3400               	retlw	0
  1818     0A29  3438               	retlw	56
  1819     0A2A  3454               	retlw	84
  1820     0A2B  3454               	retlw	84
  1821     0A2C  3454               	retlw	84
  1822     0A2D  3418               	retlw	24
  1823     0A2E  3400               	retlw	0
  1824     0A2F  3400               	retlw	0
  1825     0A30  3400               	retlw	0
  1826     0A31  3408               	retlw	8
  1827     0A32  347E               	retlw	126
  1828     0A33  3409               	retlw	9
  1829     0A34  3402               	retlw	2
  1830     0A35  3400               	retlw	0
  1831     0A36  3400               	retlw	0
  1832     0A37  3400               	retlw	0
  1833     0A38  3400               	retlw	0
  1834     0A39  3418               	retlw	24
  1835     0A3A  34A4               	retlw	164
  1836     0A3B  34A4               	retlw	164
  1837     0A3C  34A4               	retlw	164
  1838     0A3D  347C               	retlw	124
  1839     0A3E  3400               	retlw	0
  1840     0A3F  3400               	retlw	0
  1841     0A40  3400               	retlw	0
  1842     0A41  347F               	retlw	127
  1843     0A42  3408               	retlw	8
  1844     0A43  3404               	retlw	4
  1845     0A44  3404               	retlw	4
  1846     0A45  3478               	retlw	120
  1847     0A46  3400               	retlw	0
  1848     0A47  3400               	retlw	0
  1849     0A48  3400               	retlw	0
  1850     0A49  3400               	retlw	0
  1851     0A4A  347D               	retlw	125
  1852     0A4B  3400               	retlw	0
  1853     0A4C  3400               	retlw	0
  1854     0A4D  3400               	retlw	0
  1855     0A4E  3400               	retlw	0
  1856     0A4F  3400               	retlw	0
  1857     0A50  3400               	retlw	0
  1858     0A51  3480               	retlw	128
  1859     0A52  3484               	retlw	132
  1860     0A53  347D               	retlw	125
  1861     0A54  3400               	retlw	0
  1862     0A55  3400               	retlw	0
  1863     0A56  3400               	retlw	0
  1864     0A57  3400               	retlw	0
  1865     0A58  3400               	retlw	0
  1866     0A59  347F               	retlw	127
  1867     0A5A  3410               	retlw	16
  1868     0A5B  3428               	retlw	40
  1869     0A5C  3444               	retlw	68
  1870     0A5D  3400               	retlw	0
  1871     0A5E  3400               	retlw	0
  1872     0A5F  3400               	retlw	0
  1873     0A60  3400               	retlw	0
  1874     0A61  3441               	retlw	65
  1875     0A62  347F               	retlw	127
  1876     0A63  3440               	retlw	64
  1877     0A64  3400               	retlw	0
  1878     0A65  3400               	retlw	0
  1879     0A66  3400               	retlw	0
  1880     0A67  3400               	retlw	0
  1881     0A68  3400               	retlw	0
  1882     0A69  347C               	retlw	124
  1883     0A6A  3404               	retlw	4
  1884     0A6B  3418               	retlw	24
  1885     0A6C  3404               	retlw	4
  1886     0A6D  3478               	retlw	120
  1887     0A6E  3400               	retlw	0
  1888     0A6F  3400               	retlw	0
  1889     0A70  3400               	retlw	0
  1890     0A71  347C               	retlw	124
  1891     0A72  3408               	retlw	8
  1892     0A73  3404               	retlw	4
  1893     0A74  347C               	retlw	124
  1894     0A75  3400               	retlw	0
  1895     0A76  3400               	retlw	0
  1896     0A77  3400               	retlw	0
  1897     0A78  3400               	retlw	0
  1898     0A79  3438               	retlw	56
  1899     0A7A  3444               	retlw	68
  1900     0A7B  3444               	retlw	68
  1901     0A7C  3438               	retlw	56
  1902     0A7D  3400               	retlw	0
  1903     0A7E  3400               	retlw	0
  1904     0A7F  3400               	retlw	0
  1905     0A80  3400               	retlw	0
  1906     0A81  34FC               	retlw	252
  1907     0A82  3424               	retlw	36
  1908     0A83  3424               	retlw	36
  1909     0A84  3418               	retlw	24
  1910     0A85  3400               	retlw	0
  1911     0A86  3400               	retlw	0
  1912     0A87  3400               	retlw	0
  1913     0A88  3400               	retlw	0
  1914     0A89  3418               	retlw	24
  1915     0A8A  3424               	retlw	36
  1916     0A8B  3424               	retlw	36
  1917     0A8C  34FC               	retlw	252
  1918     0A8D  3400               	retlw	0
  1919     0A8E  3400               	retlw	0
  1920     0A8F  3400               	retlw	0
  1921     0A90  3400               	retlw	0
  1922     0A91  3400               	retlw	0
  1923     0A92  347C               	retlw	124
  1924     0A93  3408               	retlw	8
  1925     0A94  3404               	retlw	4
  1926     0A95  3400               	retlw	0
  1927     0A96  3400               	retlw	0
  1928     0A97  3400               	retlw	0
  1929     0A98  3400               	retlw	0
  1930     0A99  3448               	retlw	72
  1931     0A9A  3454               	retlw	84
  1932     0A9B  3454               	retlw	84
  1933     0A9C  3424               	retlw	36
  1934     0A9D  3400               	retlw	0
  1935     0A9E  3400               	retlw	0
  1936     0A9F  3400               	retlw	0
  1937     0AA0  3400               	retlw	0
  1938     0AA1  3404               	retlw	4
  1939     0AA2  347F               	retlw	127
  1940     0AA3  3444               	retlw	68
  1941     0AA4  3400               	retlw	0
  1942     0AA5  3400               	retlw	0
  1943     0AA6  3400               	retlw	0
  1944     0AA7  3400               	retlw	0
  1945     0AA8  3400               	retlw	0
  1946     0AA9  343C               	retlw	60
  1947     0AAA  3440               	retlw	64
  1948     0AAB  3440               	retlw	64
  1949     0AAC  347C               	retlw	124
  1950     0AAD  3400               	retlw	0
  1951     0AAE  3400               	retlw	0
  1952     0AAF  3400               	retlw	0
  1953     0AB0  3400               	retlw	0
  1954     0AB1  341C               	retlw	28
  1955     0AB2  3420               	retlw	32
  1956     0AB3  3440               	retlw	64
  1957     0AB4  3420               	retlw	32
  1958     0AB5  341C               	retlw	28
  1959     0AB6  3400               	retlw	0
  1960     0AB7  3400               	retlw	0
  1961     0AB8  3400               	retlw	0
  1962     0AB9  343C               	retlw	60
  1963     0ABA  3440               	retlw	64
  1964     0ABB  3430               	retlw	48
  1965     0ABC  3440               	retlw	64
  1966     0ABD  343C               	retlw	60
  1967     0ABE  3400               	retlw	0
  1968     0ABF  3400               	retlw	0
  1969     0AC0  3400               	retlw	0
  1970     0AC1  3444               	retlw	68
  1971     0AC2  3428               	retlw	40
  1972     0AC3  3410               	retlw	16
  1973     0AC4  3428               	retlw	40
  1974     0AC5  3444               	retlw	68
  1975     0AC6  3400               	retlw	0
  1976     0AC7  3400               	retlw	0
  1977     0AC8  3400               	retlw	0
  1978     0AC9  341C               	retlw	28
  1979     0ACA  34A0               	retlw	160
  1980     0ACB  34A0               	retlw	160
  1981     0ACC  347C               	retlw	124
  1982     0ACD  3400               	retlw	0
  1983     0ACE  3400               	retlw	0
  1984     0ACF  3400               	retlw	0
  1985     0AD0  3400               	retlw	0
  1986     0AD1  3444               	retlw	68
  1987     0AD2  3464               	retlw	100
  1988     0AD3  3454               	retlw	84
  1989     0AD4  344C               	retlw	76
  1990     0AD5  3444               	retlw	68
  1991     0AD6  3400               	retlw	0
  1992     0AD7  3400               	retlw	0
  1993     0AD8  3400               	retlw	0
  1994     0AD9  3408               	retlw	8
  1995     0ADA  3436               	retlw	54
  1996     0ADB  3441               	retlw	65
  1997     0ADC  3400               	retlw	0
  1998     0ADD  3400               	retlw	0
  1999     0ADE  3400               	retlw	0
  2000     0ADF  3400               	retlw	0
  2001     0AE0  3400               	retlw	0
  2002     0AE1  3400               	retlw	0
  2003     0AE2  347F               	retlw	127
  2004     0AE3  3400               	retlw	0
  2005     0AE4  3400               	retlw	0
  2006     0AE5  3400               	retlw	0
  2007     0AE6  3400               	retlw	0
  2008     0AE7  3400               	retlw	0
  2009     0AE8  3400               	retlw	0
  2010     0AE9  3441               	retlw	65
  2011     0AEA  3436               	retlw	54
  2012     0AEB  3408               	retlw	8
  2013     0AEC  3400               	retlw	0
  2014     0AED  3400               	retlw	0
  2015     0AEE  3400               	retlw	0
  2016     0AEF  3400               	retlw	0
  2017     0AF0  3400               	retlw	0
  2018     0AF1  3402               	retlw	2
  2019     0AF2  3401               	retlw	1
  2020     0AF3  3401               	retlw	1
  2021     0AF4  3402               	retlw	2
  2022     0AF5  3401               	retlw	1
  2023     0AF6  3400               	retlw	0
  2024     0AF7  3400               	retlw	0
  2025     0AF8  3400               	retlw	0
  2026     0AF9  3402               	retlw	2
  2027     0AFA  3405               	retlw	5
  2028     0AFB  3405               	retlw	5
  2029     0AFC  3402               	retlw	2
  2030     0AFD  3400               	retlw	0
  2031     0AFE  3400               	retlw	0
  2032     0AFF  3400               	retlw	0
  2033     0B00                     __end_of_OledFont:
  2034     0016                     _TMR1	set	22
  2035     0012                     _PIR2bits	set	18
  2036     000D                     _PORTBbits	set	13
  2037     0011                     _PIR1bits	set	17
  2038     0018                     _T1CONbits	set	24
  2039     008D                     _TRISBbits	set	141
  2040     008E                     _TRISCbits	set	142
  2041     04CF                     _SPLLEN	set	1231
  2042     04CE                     _IRCF3	set	1230
  2043     04CD                     _IRCF2	set	1229
  2044     04CC                     _IRCF1	set	1228
  2045     04CB                     _IRCF0	set	1227
  2046     04C9                     _SCS1	set	1225
  2047     04C8                     _SCS0	set	1224
  2048     010E                     _LATCbits	set	270
  2049     018E                     _ANSELCbits	set	398
  2050     018E                     _ANSELC	set	398
  2051     018D                     _ANSELB	set	397
  2052     018C                     _ANSELA	set	396
  2053     0211                     _SSPBUF	set	529
  2054     0216                     _SSPCON2bits	set	534
  2055     0214                     _SSPSTATbits	set	532
  2056     0216                     _SSPCON2	set	534
  2057     0215                     _SSPCON1bits	set	533
  2058     0212                     _SSPADD	set	530
  2059     0215                     _SSPCONbits	set	533
  2060     0E20                     _SSPCLKPPSbits	set	3616
  2061     0E21                     _SSPDATPPSbits	set	3617
  2062     0E24                     _RXPPSbits	set	3620
  2063     0E0F                     _PPSLOCKbits	set	3599
  2064     0E0F                     _PPSLOCK	set	3599
  2065     0EA5                     _RC5PPSbits	set	3749
  2066     0EA4                     _RC4PPSbits	set	3748
  2067     0E9A                     _RB2PPSbits	set	3738
  2068     0B00                     STR_1:
  2069     0B00  3450               	retlw	80	;'P'
  2070     0B01  3449               	retlw	73	;'I'
  2071     0B02  3443               	retlw	67	;'C'
  2072     0B03  3431               	retlw	49	;'1'
  2073     0B04  3436               	retlw	54	;'6'
  2074     0B05  3446               	retlw	70	;'F'
  2075     0B06  3431               	retlw	49	;'1'
  2076     0B07  3437               	retlw	55	;'7'
  2077     0B08  3431               	retlw	49	;'1'
  2078     0B09  3438               	retlw	56	;'8'
  2079     0B0A  3420               	retlw	32	;' '
  2080     0B0B  3448               	retlw	72	;'H'
  2081     0B0C  3443               	retlw	67	;'C'
  2082     0B0D  342D               	retlw	45	;'-'
  2083     0B0E  3453               	retlw	83	;'S'
  2084     0B0F  3452               	retlw	82	;'R'
  2085     0B10  3430               	retlw	48	;'0'
  2086     0B11  3434               	retlw	52	;'4'
  2087     0B12  3400               	retlw	0
  2088                           
  2089                           	psect	stringtext3
  2090     1000                     __pstringtext3:
  2091     1000                     STR_2:
  2092     1000  3444               	retlw	68	;'D'
  2093     1001  3469               	retlw	105	;'i'
  2094     1002  3473               	retlw	115	;'s'
  2095     1003  3474               	retlw	116	;'t'
  2096     1004  343A               	retlw	58	;':'
  2097     1005  3420               	retlw	32	;' '
  2098     1006  3425               	retlw	37	;'%'
  2099     1007  3475               	retlw	117	;'u'
  2100     1008  3420               	retlw	32	;' '
  2101     1009  3463               	retlw	99	;'c'
  2102     100A  346D               	retlw	109	;'m'
  2103     100B  3400               	retlw	0
  2104                           
  2105                           	psect	stringtext4
  2106     1016                     __pstringtext4:
  2107     1016                     STR_3:
  2108     1016  3444               	retlw	68	;'D'
  2109     1017  3469               	retlw	105	;'i'
  2110     1018  3473               	retlw	115	;'s'
  2111     1019  3474               	retlw	116	;'t'
  2112     101A  343A               	retlw	58	;':'
  2113     101B  3420               	retlw	32	;' '
  2114     101C  342D               	retlw	45	;'-'
  2115     101D  342D               	retlw	45	;'-'
  2116     101E  3400               	retlw	0
  2117                           
  2118                           	psect	stringtext5
  2119     0000                     __pstringtext5:
  2120                           
  2121                           	psect	cinit
  2122     07F2                     start_initialization:	
  2123                           ; #config settings
  2124                           
  2125     07F2                     __initialization:	;BIGRAM
  2126                           
  2127                           ; Clear objects allocated to BIGRAM
  2128     07F2  30F0               	movlw	low (0+9456)
  2129     07F3  0084               	movwf	4
  2130     07F4  3024               	movlw	high (0+9456)
  2131     07F5  0085               	movwf	5
  2132     07F6  3000               	movlw	0
  2133     07F7  00FE               	movwf	btemp
  2134     07F8  3003               	movlw	3
  2135     07F9  00FF               	movwf	btemp+1
  2136     07FA  318C  24D2  3187   	fcall	clear_ram0
  2137     07FD                     end_of_initialization:	
  2138                           ;End of C runtime variable initialization code
  2139                           
  2140     07FD                     __end_of__initialization:
  2141     07FD  0020               	movlb	0
  2142     07FE  3180  280D         	ljmp	_main	;jump to C main() function
  2143                           
  2144                           	psect	clrtext
  2145     0CD2                     clear_ram0:	
  2146                           ;	Called with FSR0 containing the base address, and
  2147                           ;	btemp/btemp+1 has the size to clear
  2148                           
  2149     0CD2  0064               	clrwdt	;clear the watchdog before getting into this loop
  2150     0CD3                     clrloop0:
  2151     0CD3  0180               	clrf	0	;clear RAM location pointed to by FSR
  2152     0CD4  3101               	addfsr 0,1
  2153     0CD5  3001               	movlw	1
  2154     0CD6  02FE               	subwf	btemp,f
  2155     0CD7  3000               	movlw	0
  2156     0CD8  3BFF               	subwfb	btemp+1,f
  2157     0CD9  087F               	movf	btemp+1,w
  2158     0CDA  047E               	iorwf	btemp,w
  2159     0CDB  1D03               	skipz
  2160     0CDC  2CD3               	goto	clrloop0	;have we reached the end yet?
  2161     0CDD  3400               	retlw	0	;all done for this memory range, return
  2162                           
  2163                           	psect	cstackBANK1
  2164     00A0                     __pcstackBANK1:
  2165     00A0                     OLED_Printf_Line@temp:
  2166                           
  2167                           ; 6 bytes @ 0x0
  2168     00A0                     	ds	6
  2169     00A6                     OLED_Printf_Line@temp_477:
  2170                           
  2171                           ; 6 bytes @ 0x6
  2172     00A6                     	ds	6
  2173     00AC                     OLED_Printf_Line@temp_480:
  2174                           
  2175                           ; 5 bytes @ 0xC
  2176     00AC                     	ds	5
  2177     00B1                     OLED_Printf_Line@str:
  2178                           
  2179                           ; 1 bytes @ 0x11
  2180     00B1                     	ds	1
  2181     00B2                     OLED_Printf_Line@col:
  2182                           
  2183                           ; 1 bytes @ 0x12
  2184     00B2                     	ds	1
  2185     00B3                     OLED_Printf_Line@p:
  2186                           
  2187                           ; 1 bytes @ 0x13
  2188     00B3                     	ds	1
  2189     00B4                     OLED_Printf_Line@val_470:
  2190                           
  2191                           ; 4 bytes @ 0x14
  2192     00B4                     	ds	4
  2193     00B8                     OLED_Printf_Line@val_476:
  2194                           
  2195                           ; 2 bytes @ 0x18
  2196     00B8                     	ds	2
  2197     00BA                     OLED_Printf_Line@nibble:
  2198                           
  2199                           ; 1 bytes @ 0x1A
  2200     00BA                     	ds	1
  2201     00BB                     OLED_Printf_Line@ch:
  2202                           
  2203                           ; 1 bytes @ 0x1B
  2204     00BB                     	ds	1
  2205     00BC                     OLED_Printf_Line@i:
  2206                           
  2207                           ; 1 bytes @ 0x1C
  2208     00BC                     	ds	1
  2209     00BD                     OLED_Printf_Line@i_472:
  2210                           
  2211                           ; 1 bytes @ 0x1D
  2212     00BD                     	ds	1
  2213     00BE                     OLED_Printf_Line@i_475:
  2214                           
  2215                           ; 1 bytes @ 0x1E
  2216     00BE                     	ds	1
  2217     00BF                     OLED_Printf_Line@i_478:
  2218                           
  2219                           ; 1 bytes @ 0x1F
  2220     00BF                     	ds	1
  2221     00C0                     OLED_Printf_Line@i_481:
  2222                           
  2223                           ; 1 bytes @ 0x20
  2224     00C0                     	ds	1
  2225     00C1                     OLED_Printf_Line@val_473:
  2226                           
  2227                           ; 4 bytes @ 0x21
  2228     00C1                     	ds	4
  2229     00C5                     OLED_Printf_Line@val:
  2230                           
  2231                           ; 2 bytes @ 0x25
  2232     00C5                     	ds	2
  2233     00C7                     OLED_Printf_Line@line:
  2234                           
  2235                           ; 1 bytes @ 0x27
  2236     00C7                     	ds	1
  2237     00C8                     OLED_Printf_Line@ap:
  2238                           
  2239                           ; 1 bytes @ 0x28
  2240     00C8                     	ds	1
  2241     00C9                     OLED_Printf_Line@src:
  2242                           
  2243                           ; 2 bytes @ 0x29
  2244     00C9                     	ds	2
  2245     00CB                     OLED_Printf_Line@dst:
  2246                           
  2247                           ; 1 bytes @ 0x2B
  2248     00CB                     	ds	1
  2249     00CC                     ??_main:
  2250                           
  2251                           ; 1 bytes @ 0x2C
  2252     00CC                     	ds	2
  2253     00CE                     main@dist_cm:
  2254                           
  2255                           ; 2 bytes @ 0x2E
  2256     00CE                     	ds	2
  2257                           
  2258                           	psect	cstackCOMMON
  2259     0070                     __pcstackCOMMON:
  2260     0070                     ?_I2C_Init:
  2261     0070                     ??_I2C_Init:	
  2262                           ; 1 bytes @ 0x0
  2263                           
  2264     0070                     ?_OLED_Init:	
  2265                           ; 1 bytes @ 0x0
  2266                           
  2267     0070                     ?_OLED_SetOrientation:	
  2268                           ; 1 bytes @ 0x0
  2269                           
  2270     0070                     ?_OLED_Clear:	
  2271                           ; 1 bytes @ 0x0
  2272                           
  2273     0070                     ?_I2C_Start:	
  2274                           ; 1 bytes @ 0x0
  2275                           
  2276     0070                     ?_I2C_WriteByte:	
  2277                           ; 1 bytes @ 0x0
  2278                           
  2279     0070                     ?_I2C_Stop:	
  2280                           ; 1 bytes @ 0x0
  2281                           
  2282     0070                     ?_I2C_ClearErrors:	
  2283                           ; 1 bytes @ 0x0
  2284                           
  2285     0070                     ??_I2C_ClearErrors:	
  2286                           ; 1 bytes @ 0x0
  2287                           
  2288     0070                     ?_internal_32:	
  2289                           ; 1 bytes @ 0x0
  2290                           
  2291     0070                     ??_internal_32:	
  2292                           ; 1 bytes @ 0x0
  2293                           
  2294     0070                     ?_Trigger_Pulse_10us:	
  2295                           ; 1 bytes @ 0x0
  2296                           
  2297     0070                     ??_Trigger_Pulse_10us:	
  2298                           ; 1 bytes @ 0x0
  2299                           
  2300     0070                     ?_initMain:	
  2301                           ; 1 bytes @ 0x0
  2302                           
  2303     0070                     ??_initMain:	
  2304                           ; 1 bytes @ 0x0
  2305                           
  2306     0070                     ?_HCSR04_Read_cm:	
  2307                           ; 1 bytes @ 0x0
  2308                           
  2309     0070                     ?_main:	
  2310                           ; 1 bytes @ 0x0
  2311                           
  2312     0070                     ?_SSD1306_CtrlW:	
  2313                           ; 1 bytes @ 0x0
  2314                           
  2315     0070                     ??_SSD1306_CtrlW:	
  2316                           ; 1 bytes @ 0x0
  2317                           
  2318     0070                     ?_OLED_Command:	
  2319                           ; 1 bytes @ 0x0
  2320                           
  2321     0070                     ?_OLED_UpdateLine:	
  2322                           ; 1 bytes @ 0x0
  2323                           
  2324     0070                     ?_I2C_WaitIF:	
  2325                           ; 1 bytes @ 0x0
  2326                           
  2327     0070                     ?_I2C_WaitIdle:	
  2328                           ; 1 bytes @ 0x0
  2329                           
  2330     0070                     ?_memset:	
  2331                           ; 1 bytes @ 0x0
  2332                           
  2333     0070                     ?_strcmp:	
  2334                           ; 2 bytes @ 0x0
  2335                           
  2336     0070                     ?_strcpy:	
  2337                           ; 2 bytes @ 0x0
  2338                           
  2339     0070                     ?_memcpy:	
  2340                           ; 2 bytes @ 0x0
  2341                           
  2342     0070                     ?___awdiv:	
  2343                           ; 2 bytes @ 0x0
  2344                           
  2345     0070                     ?___awmod:	
  2346                           ; 2 bytes @ 0x0
  2347                           
  2348     0070                     ?___lwdiv:	
  2349                           ; 2 bytes @ 0x0
  2350                           
  2351     0070                     ?___lwmod:	
  2352                           ; 2 bytes @ 0x0
  2353                           
  2354     0070                     ?___lldiv:	
  2355                           ; 2 bytes @ 0x0
  2356                           
  2357     0070                     ?___aldiv:	
  2358                           ; 4 bytes @ 0x0
  2359                           
  2360     0070                     ?___almod:	
  2361                           ; 4 bytes @ 0x0
  2362                           
  2363     0070                     ?___llmod:	
  2364                           ; 4 bytes @ 0x0
  2365                           
  2366     0070                     I2C_WaitIF@timeout_ms:	
  2367                           ; 4 bytes @ 0x0
  2368                           
  2369     0070                     I2C_WaitIdle@timeout_ms:	
  2370                           ; 2 bytes @ 0x0
  2371                           
  2372     0070                     ___awdiv@divisor:	
  2373                           ; 2 bytes @ 0x0
  2374                           
  2375     0070                     ___awmod@divisor:	
  2376                           ; 2 bytes @ 0x0
  2377                           
  2378     0070                     ___lwdiv@divisor:	
  2379                           ; 2 bytes @ 0x0
  2380                           
  2381     0070                     ___lwmod@divisor:	
  2382                           ; 2 bytes @ 0x0
  2383                           
  2384     0070                     memcpy@d1:	
  2385                           ; 2 bytes @ 0x0
  2386                           
  2387     0070                     memset@dest:	
  2388                           ; 2 bytes @ 0x0
  2389                           
  2390     0070                     strcmp@r:	
  2391                           ; 2 bytes @ 0x0
  2392                           
  2393     0070                     strcpy@dest:	
  2394                           ; 2 bytes @ 0x0
  2395                           
  2396     0070                     ___lldiv@divisor:	
  2397                           ; 2 bytes @ 0x0
  2398                           
  2399     0070                     ___aldiv@divisor:	
  2400                           ; 4 bytes @ 0x0
  2401                           
  2402     0070                     ___almod@divisor:	
  2403                           ; 4 bytes @ 0x0
  2404                           
  2405     0070                     ___llmod@divisor:	
  2406                           ; 4 bytes @ 0x0
  2407                           
  2408                           
  2409                           ; 4 bytes @ 0x0
  2410     0070                     	ds	2
  2411     0072                     ??_strcmp:
  2412     0072                     ??_I2C_WaitIF:	
  2413                           ; 1 bytes @ 0x2
  2414                           
  2415     0072                     ??_I2C_WaitIdle:	
  2416                           ; 1 bytes @ 0x2
  2417                           
  2418     0072                     strcpy@src:	
  2419                           ; 1 bytes @ 0x2
  2420                           
  2421     0072                     ___awdiv@dividend:	
  2422                           ; 1 bytes @ 0x2
  2423                           
  2424     0072                     ___awmod@dividend:	
  2425                           ; 2 bytes @ 0x2
  2426                           
  2427     0072                     ___lwdiv@dividend:	
  2428                           ; 2 bytes @ 0x2
  2429                           
  2430     0072                     ___lwmod@dividend:	
  2431                           ; 2 bytes @ 0x2
  2432                           
  2433     0072                     memcpy@s1:	
  2434                           ; 2 bytes @ 0x2
  2435                           
  2436     0072                     memset@c:	
  2437                           ; 2 bytes @ 0x2
  2438                           
  2439                           
  2440                           ; 2 bytes @ 0x2
  2441     0072                     	ds	1
  2442     0073                     ??_I2C_Start:
  2443     0073                     ??_I2C_WriteByte:	
  2444                           ; 1 bytes @ 0x3
  2445                           
  2446     0073                     ??_I2C_Stop:	
  2447                           ; 1 bytes @ 0x3
  2448                           
  2449     0073                     ??_strcpy:	
  2450                           ; 1 bytes @ 0x3
  2451                           
  2452     0073                     I2C_Start@st:	
  2453                           ; 1 bytes @ 0x3
  2454                           
  2455     0073                     I2C_Stop@st:	
  2456                           ; 1 bytes @ 0x3
  2457                           
  2458     0073                     I2C_WriteByte@data:	
  2459                           ; 1 bytes @ 0x3
  2460                           
  2461     0073                     strcmp@l:	
  2462                           ; 1 bytes @ 0x3
  2463                           
  2464                           
  2465                           ; 1 bytes @ 0x3
  2466     0073                     	ds	1
  2467     0074                     ??___awdiv:
  2468     0074                     ??___awmod:	
  2469                           ; 1 bytes @ 0x4
  2470                           
  2471     0074                     ??___lwdiv:	
  2472                           ; 1 bytes @ 0x4
  2473                           
  2474     0074                     ??___lwmod:	
  2475                           ; 1 bytes @ 0x4
  2476                           
  2477     0074                     I2C_WriteByte@st:	
  2478                           ; 1 bytes @ 0x4
  2479                           
  2480     0074                     memcpy@n:	
  2481                           ; 1 bytes @ 0x4
  2482                           
  2483     0074                     memset@n:	
  2484                           ; 2 bytes @ 0x4
  2485                           
  2486     0074                     ___lldiv@dividend:	
  2487                           ; 2 bytes @ 0x4
  2488                           
  2489     0074                     ___aldiv@dividend:	
  2490                           ; 4 bytes @ 0x4
  2491                           
  2492     0074                     ___almod@dividend:	
  2493                           ; 4 bytes @ 0x4
  2494                           
  2495     0074                     ___llmod@dividend:	
  2496                           ; 4 bytes @ 0x4
  2497                           
  2498                           
  2499                           ; 4 bytes @ 0x4
  2500     0074                     	ds	1
  2501     0075                     ??_OLED_Command:
  2502     0075                     ?_OLED_WriteData:	
  2503                           ; 1 bytes @ 0x5
  2504                           
  2505     0075                     OLED_Command@cmd:	
  2506                           ; 1 bytes @ 0x5
  2507                           
  2508     0075                     ___awdiv@counter:	
  2509                           ; 1 bytes @ 0x5
  2510                           
  2511     0075                     ___awmod@counter:	
  2512                           ; 1 bytes @ 0x5
  2513                           
  2514     0075                     ___lwmod@counter:	
  2515                           ; 1 bytes @ 0x5
  2516                           
  2517     0075                     OLED_WriteData@data:	
  2518                           ; 1 bytes @ 0x5
  2519                           
  2520     0075                     ___lwdiv@quotient:	
  2521                           ; 2 bytes @ 0x5
  2522                           
  2523     0075                     strcpy@d:	
  2524                           ; 2 bytes @ 0x5
  2525                           
  2526                           
  2527                           ; 2 bytes @ 0x5
  2528     0075                     	ds	1
  2529     0076                     ??_memset:
  2530     0076                     ??_memcpy:	
  2531                           ; 1 bytes @ 0x6
  2532                           
  2533     0076                     OLED_Command@st:	
  2534                           ; 1 bytes @ 0x6
  2535                           
  2536     0076                     ___awdiv@sign:	
  2537                           ; 1 bytes @ 0x6
  2538                           
  2539     0076                     ___awmod@sign:	
  2540                           ; 1 bytes @ 0x6
  2541                           
  2542     0076                     memcpy@d:	
  2543                           ; 1 bytes @ 0x6
  2544                           
  2545     0076                     memset@p:	
  2546                           ; 2 bytes @ 0x6
  2547                           
  2548                           
  2549                           ; 2 bytes @ 0x6
  2550     0076                     	ds	1
  2551     0077                     ??_OLED_SetOrientation:
  2552     0077                     ?_OLED_YX:	
  2553                           ; 1 bytes @ 0x7
  2554                           
  2555     0077                     OLED_YX@col_char:	
  2556                           ; 1 bytes @ 0x7
  2557                           
  2558     0077                     ___lwdiv@counter:	
  2559                           ; 1 bytes @ 0x7
  2560                           
  2561     0077                     OLED_WriteData@len:	
  2562                           ; 1 bytes @ 0x7
  2563                           
  2564     0077                     ___awdiv@quotient:	
  2565                           ; 2 bytes @ 0x7
  2566                           
  2567                           
  2568                           ; 2 bytes @ 0x7
  2569     0077                     	ds	1
  2570     0078                     ??_HCSR04_Read_cm:
  2571     0078                     ??_OLED_YX:	
  2572                           ; 1 bytes @ 0x8
  2573                           
  2574     0078                     ??___lldiv:	
  2575                           ; 1 bytes @ 0x8
  2576                           
  2577     0078                     ??___aldiv:	
  2578                           ; 1 bytes @ 0x8
  2579                           
  2580     0078                     ??___almod:	
  2581                           ; 1 bytes @ 0x8
  2582                           
  2583     0078                     ??___llmod:	
  2584                           ; 1 bytes @ 0x8
  2585                           
  2586     0078                     HCSR04_Read_cm@counts:	
  2587                           ; 1 bytes @ 0x8
  2588                           
  2589     0078                     memcpy@s:	
  2590                           ; 2 bytes @ 0x8
  2591                           
  2592                           
  2593                           ; 2 bytes @ 0x8
  2594     0078                     	ds	1
  2595     0079                     ??_OLED_WriteData:
  2596     0079                     OLED_SetOrientation@o:	
  2597                           ; 1 bytes @ 0x9
  2598                           
  2599     0079                     OLED_YX@page:	
  2600                           ; 1 bytes @ 0x9
  2601                           
  2602     0079                     ___almod@counter:	
  2603                           ; 1 bytes @ 0x9
  2604                           
  2605     0079                     ___llmod@counter:	
  2606                           ; 1 bytes @ 0x9
  2607                           
  2608     0079                     OLED_WriteData@i:	
  2609                           ; 1 bytes @ 0x9
  2610                           
  2611     0079                     ___lldiv@quotient:	
  2612                           ; 2 bytes @ 0x9
  2613                           
  2614                           
  2615                           ; 4 bytes @ 0x9
  2616     0079                     	ds	1
  2617     007A                     HCSR04_Read_cm@cm_out:
  2618     007A                     OLED_YX@col:	
  2619                           ; 1 bytes @ 0xA
  2620                           
  2621     007A                     ___almod@sign:	
  2622                           ; 1 bytes @ 0xA
  2623                           
  2624     007A                     memcpy@tmp:	
  2625                           ; 1 bytes @ 0xA
  2626                           
  2627                           
  2628                           ; 1 bytes @ 0xA
  2629     007A                     	ds	1
  2630     007B                     OLED_WriteData@st:
  2631     007B                     HCSR04_Read_cm@timeout:	
  2632                           ; 1 bytes @ 0xB
  2633                           
  2634                           
  2635                           ; 2 bytes @ 0xB
  2636     007B                     	ds	1
  2637     007C                     OLED_Clear@p:
  2638     007C                     OLED_UpdateLine@page:	
  2639                           ; 1 bytes @ 0xC
  2640                           
  2641                           
  2642                           ; 1 bytes @ 0xC
  2643     007C                     	ds	1
  2644     007D                     ??_OLED_Init:
  2645     007D                     ___lldiv@counter:	
  2646                           ; 1 bytes @ 0xD
  2647                           
  2648                           
  2649                           ; 1 bytes @ 0xD
  2650     007D                     	ds	1
  2651                           
  2652                           	psect	cstackBANK0
  2653     0020                     __pcstackBANK0:
  2654     0020                     ??_OLED_Clear:
  2655     0020                     ??_OLED_UpdateLine:	
  2656                           ; 1 bytes @ 0x0
  2657                           
  2658     0020                     ___aldiv@counter:	
  2659                           ; 1 bytes @ 0x0
  2660                           
  2661                           
  2662                           ; 1 bytes @ 0x0
  2663     0020                     	ds	1
  2664     0021                     ___aldiv@sign:
  2665                           
  2666                           ; 1 bytes @ 0x1
  2667     0021                     	ds	1
  2668     0022                     ___aldiv@quotient:
  2669                           
  2670                           ; 4 bytes @ 0x2
  2671     0022                     	ds	4
  2672     0026                     ?_OLED_Printf_Line:
  2673     0026                     OLED_Printf_Line@fmt:	
  2674                           ; 1 bytes @ 0x6
  2675                           
  2676                           
  2677                           ; 2 bytes @ 0x6
  2678     0026                     	ds	4
  2679     002A                     ??_OLED_Printf_Line:
  2680                           
  2681                           ; 1 bytes @ 0xA
  2682     002A                     	ds	12
  2683     0036                     OLED_Printf_Line@temp_471:
  2684                           
  2685                           ; 11 bytes @ 0x16
  2686     0036                     	ds	11
  2687     0041                     OLED_Printf_Line@temp_474:
  2688                           
  2689                           ; 11 bytes @ 0x21
  2690     0041                     	ds	11
  2691     004C                     OLED_Printf_Line@buf:
  2692                           
  2693                           ; 32 bytes @ 0x2C
  2694     004C                     	ds	32
  2695     006C                     _OLED_Printf_Line$483:
  2696                           
  2697                           ; 2 bytes @ 0x4C
  2698     006C                     	ds	2
  2699     006E                     OLED_Printf_Line@val_479:
  2700                           
  2701                           ; 2 bytes @ 0x4E
  2702     006E                     	ds	2
  2703                           
  2704                           	psect	maintext
  2705     000D                     __pmaintext:	
  2706 ;;
  2707 ;;Main: autosize = 0, tempsize = 2, incstack = 0, save=0
  2708 ;;
  2709 ;; *************** function _main *****************
  2710 ;; Defined at:
  2711 ;;		line 92 in file "main.c"
  2712 ;; Parameters:    Size  Location     Type
  2713 ;;		None
  2714 ;; Auto vars:     Size  Location     Type
  2715 ;;  dist_cm         2   46[BANK1 ] unsigned short 
  2716 ;; Return value:  Size  Location     Type
  2717 ;;                  1    wreg      void 
  2718 ;; Registers used:
  2719 ;;		wreg, fsr0l, fsr0h, fsr1l, fsr1h, status,2, status,0, pclath, cstack
  2720 ;; Tracked objects:
  2721 ;;		On entry : B1F/0
  2722 ;;		On exit  : 0/0
  2723 ;;		Unchanged: 0/0
  2724 ;; Data sizes:     COMMON   BANK0   BANK1   BANK2   BANK3   BANK4   BANK5   BANK6   BANK7   BANK8   BANK9  BANK10  BANK1
      +1  BANK12  BANK13  BANK14  BANK15  BANK16  BANK17  BANK18  BANK19  BANK20  BANK21  BANK22  BANK23  BANK24  BANK25
  2725 ;;      Params:         0       0       0       0       0       0       0       0       0       0       0       0       
      +0       0       0       0       0       0       0       0       0       0       0       0       0       0       0
  2726 ;;      Locals:         0       0       2       0       0       0       0       0       0       0       0       0       
      +0       0       0       0       0       0       0       0       0       0       0       0       0       0       0
  2727 ;;      Temps:          0       0       2       0       0       0       0       0       0       0       0       0       
      +0       0       0       0       0       0       0       0       0       0       0       0       0       0       0
  2728 ;;      Totals:         0       0       4       0       0       0       0       0       0       0       0       0       
      +0       0       0       0       0       0       0       0       0       0       0       0       0       0       0
  2729 ;;Total ram usage:        4 bytes
  2730 ;; Hardware stack levels required when called: 6
  2731 ;; This function calls:
  2732 ;;		_HCSR04_Read_cm
  2733 ;;		_I2C_Init
  2734 ;;		_OLED_Clear
  2735 ;;		_OLED_Init
  2736 ;;		_OLED_Printf_Line
  2737 ;;		_OLED_SetOrientation
  2738 ;;		_initMain
  2739 ;; This function is called by:
  2740 ;;		Startup code after reset
  2741 ;; This function uses a non-reentrant model
  2742 ;;
  2743                           
  2744     000D                     _main:	
  2745                           ;psect for function _main
  2746                           
  2747     000D                     l2890:	
  2748                           ;incstack = 0
  2749                           ; Regs used in _main: [wreg-fsr1h+status,2+status,0+pclath+cstack]
  2750                           
  2751                           
  2752                           ;main.c: 94:     initMain();
  2753     000D  3180  20FC  3180   	fcall	_initMain
  2754                           
  2755                           ;main.c: 96:     I2C_Init();
  2756     0010  318C  24DE  3180   	fcall	_I2C_Init
  2757     0013                     l2892:
  2758                           
  2759                           ;main.c: 97:     OLED_Init();
  2760     0013  3182  225A  3180   	fcall	_OLED_Init
  2761     0016                     l2894:
  2762                           
  2763                           ;main.c: 98:     OLED_SetOrientation(OLED_ORIENT_0);
  2764     0016  3000               	movlw	0
  2765     0017  318F  2728  3180   	fcall	_OLED_SetOrientation
  2766     001A                     l2896:
  2767                           
  2768                           ;main.c: 99:     OLED_Clear();
  2769     001A  318F  27B3  3180   	fcall	_OLED_Clear
  2770     001D                     l2898:
  2771                           
  2772                           ;main.c: 101:     OLED_Printf_Line(0, "PIC16F1718 HC-SR04");
  2773     001D  3000               	movlw	low (STR_1| (0+32768))
  2774     001E  0020               	movlb	0	; select bank0
  2775     001F  00A6               	movwf	OLED_Printf_Line@fmt
  2776     0020  308B               	movlw	high (STR_1| (0+32768))
  2777     0021  00A7               	movwf	OLED_Printf_Line@fmt+1
  2778     0022  3000               	movlw	0
  2779     0023  3183  23D9  3180   	fcall	_OLED_Printf_Line
  2780     0026                     l113:	
  2781                           ;main.c: 103:     uint16_t dist_cm;;main.c: 105:     while (1)
  2782                           
  2783                           
  2784                           ;main.c: 106:     {;main.c: 107:         if (HCSR04_Read_cm(&dist_cm))
  2785     0026  30CE               	movlw	(low (main@dist_cm| 0))& (0+255)
  2786     0027  3180  20AA  3180   	fcall	_HCSR04_Read_cm
  2787     002A  3A00               	xorlw	0
  2788     002B  1903               	skipnz
  2789     002C  282E               	goto	u3051
  2790     002D  282F               	goto	u3050
  2791     002E                     u3051:
  2792     002E  2841               	goto	l2902
  2793     002F                     u3050:
  2794     002F                     l2900:
  2795                           
  2796                           ;main.c: 108:             OLED_Printf_Line(1, "Dist: %u cm", dist_cm);
  2797     002F  3000               	movlw	low (STR_2| (0+32768))
  2798     0030  0020               	movlb	0	; select bank0
  2799     0031  00A6               	movwf	OLED_Printf_Line@fmt
  2800     0032  3090               	movlw	high (STR_2| (0+32768))
  2801     0033  00A7               	movwf	OLED_Printf_Line@fmt+1
  2802     0034  0021               	movlb	1	; select bank1
  2803     0035  084F               	movf	(main@dist_cm+1)^(0+128),w
  2804     0036  0020               	movlb	0	; select bank0
  2805     0037  00A9               	movwf	?_OLED_Printf_Line+3
  2806     0038  0021               	movlb	1	; select bank1
  2807     0039  084E               	movf	main@dist_cm^(0+128),w
  2808     003A  0020               	movlb	0	; select bank0
  2809     003B  00A8               	movwf	?_OLED_Printf_Line+2
  2810     003C  3001               	movlw	1
  2811     003D  3183  23D9  3180   	fcall	_OLED_Printf_Line
  2812     0040  284A               	goto	l2904
  2813     0041                     l2902:
  2814                           
  2815                           ;main.c: 110:             OLED_Printf_Line(1, "Dist: --");
  2816     0041  3016               	movlw	low (STR_3| (0+32768))
  2817     0042  0020               	movlb	0	; select bank0
  2818     0043  00A6               	movwf	OLED_Printf_Line@fmt
  2819     0044  3090               	movlw	high (STR_3| (0+32768))
  2820     0045  00A7               	movwf	OLED_Printf_Line@fmt+1
  2821     0046  3001               	movlw	1
  2822     0047  3183  23D9  3180   	fcall	_OLED_Printf_Line
  2823     004A                     l2904:
  2824                           
  2825                           ;main.c: 112:         _delay((unsigned long)((80)*(32000000/4000.0)));
  2826     004A  3004               	movlw	4
  2827     004B  0021               	movlb	1	; select bank1
  2828     004C  00CD               	movwf	(??_main^(0+128)+1)
  2829     004D  3040               	movlw	64
  2830     004E  00CC               	movwf	??_main^(0+128)
  2831     004F  3026               	movlw	38
  2832     0050                     u3317:
  2833     0050  0B89               	decfsz	9,f
  2834     0051  2850               	goto	u3317
  2835     0052  0BCC               	decfsz	??_main^(0+128),f
  2836     0053  2850               	goto	u3317
  2837     0054  0BCD               	decfsz	(??_main^(0+128)+1),f
  2838     0055  2850               	goto	u3317
  2839     0056  0000               	nop
  2840     0057  2826               	goto	l113
  2841     0058  3180  2802         	ljmp	start
  2842     005A                     __end_of_main:
  2843                           
  2844                           	psect	text1
  2845     00FC                     __ptext1:	
  2846 ;; *************** function _initMain *****************
  2847 ;; Defined at:
  2848 ;;		line 18 in file "main.c"
  2849 ;; Parameters:    Size  Location     Type
  2850 ;;		None
  2851 ;; Auto vars:     Size  Location     Type
  2852 ;;		None
  2853 ;; Return value:  Size  Location     Type
  2854 ;;                  1    wreg      void 
  2855 ;; Registers used:
  2856 ;;		wreg, status,2, status,0, pclath, cstack
  2857 ;; Tracked objects:
  2858 ;;		On entry : 0/0
  2859 ;;		On exit  : 0/0
  2860 ;;		Unchanged: 0/0
  2861 ;; Data sizes:     COMMON   BANK0   BANK1   BANK2   BANK3   BANK4   BANK5   BANK6   BANK7   BANK8   BANK9  BANK10  BANK1
      +1  BANK12  BANK13  BANK14  BANK15  BANK16  BANK17  BANK18  BANK19  BANK20  BANK21  BANK22  BANK23  BANK24  BANK25
  2862 ;;      Params:         0       0       0       0       0       0       0       0       0       0       0       0       
      +0       0       0       0       0       0       0       0       0       0       0       0       0       0       0
  2863 ;;      Locals:         0       0       0       0       0       0       0       0       0       0       0       0       
      +0       0       0       0       0       0       0       0       0       0       0       0       0       0       0
  2864 ;;      Temps:          2       0       0       0       0       0       0       0       0       0       0       0       
      +0       0       0       0       0       0       0       0       0       0       0       0       0       0       0
  2865 ;;      Totals:         2       0       0       0       0       0       0       0       0       0       0       0       
      +0       0       0       0       0       0       0       0       0       0       0       0       0       0       0
  2866 ;;Total ram usage:        2 bytes
  2867 ;; Hardware stack levels used: 1
  2868 ;; Hardware stack levels required when called: 1
  2869 ;; This function calls:
  2870 ;;		_internal_32
  2871 ;; This function is called by:
  2872 ;;		_main
  2873 ;; This function uses a non-reentrant model
  2874 ;;
  2875                           
  2876     00FC                     _initMain:	
  2877                           ;psect for function _initMain
  2878                           
  2879     00FC                     l2474:	
  2880                           ;incstack = 0
  2881                           ; Regs used in _initMain: [wreg+status,2+status,0+pclath+cstack]
  2882                           
  2883                           
  2884                           ;main.c: 20:     internal_32();
  2885     00FC  3180  2004  3180   	fcall	_internal_32
  2886     00FF                     l2476:
  2887                           
  2888                           ;main.c: 21:     _delay((unsigned long)((100)*(32000000/4000.0)));
  2889     00FF  3005               	movlw	5
  2890     0100  00F1               	movwf	??_initMain+1
  2891     0101  300F               	movlw	15
  2892     0102  00F0               	movwf	??_initMain
  2893     0103  30F1               	movlw	241
  2894     0104                     u3327:
  2895     0104  0B89               	decfsz	9,f
  2896     0105  2904               	goto	u3327
  2897     0106  0BF0               	decfsz	??_initMain,f
  2898     0107  2904               	goto	u3327
  2899     0108  0BF1               	decfsz	??_initMain+1,f
  2900     0109  2904               	goto	u3327
  2901     010A  0000               	nop
  2902     010B                     l2478:
  2903                           
  2904                           ;main.c: 24:     ANSELA = 0;
  2905     010B  0023               	movlb	3	; select bank3
  2906     010C  018C               	clrf	12	;volatile
  2907     010D                     l2480:
  2908                           
  2909                           ;main.c: 25:     ANSELB = 0;
  2910     010D  018D               	clrf	13	;volatile
  2911     010E                     l2482:
  2912                           
  2913                           ;main.c: 26:     ANSELC = 0;
  2914     010E  018E               	clrf	14	;volatile
  2915     010F                     l2484:
  2916                           
  2917                           ;main.c: 29:     TRISCbits.TRISC3 = 0;
  2918     010F  0021               	movlb	1	; select bank1
  2919     0110  118E               	bcf	14,3	;volatile
  2920     0111                     l2486:
  2921                           
  2922                           ;main.c: 30:     LATCbits.LATC3 = 0;
  2923     0111  0022               	movlb	2	; select bank2
  2924     0112  118E               	bcf	14,3	;volatile
  2925     0113                     l2488:
  2926                           
  2927                           ;main.c: 33:     TRISBbits.TRISB0 = 1;
  2928     0113  0021               	movlb	1	; select bank1
  2929     0114  140D               	bsf	13,0	;volatile
  2930     0115                     l2490:
  2931                           
  2932                           ;main.c: 36:     ANSELCbits.ANSC4 = 0;
  2933     0115  0023               	movlb	3	; select bank3
  2934     0116  120E               	bcf	14,4	;volatile
  2935     0117                     l2492:
  2936                           
  2937                           ;main.c: 37:     ANSELCbits.ANSC5 = 0;
  2938     0117  128E               	bcf	14,5	;volatile
  2939     0118                     l2494:
  2940                           
  2941                           ;main.c: 38:     TRISCbits.TRISC4 = 1;
  2942     0118  0021               	movlb	1	; select bank1
  2943     0119  160E               	bsf	14,4	;volatile
  2944     011A                     l2496:
  2945                           
  2946                           ;main.c: 39:     TRISCbits.TRISC5 = 1;
  2947     011A  168E               	bsf	14,5	;volatile
  2948     011B                     l2498:
  2949                           
  2950                           ;main.c: 42:     PPSLOCK = 0x55; PPSLOCK = 0xAA; PPSLOCKbits.PPSLOCKED = 0;
  2951     011B  3055               	movlw	85
  2952     011C  003C               	movlb	28	; select bank28
  2953     011D  008F               	movwf	15	;volsfr
  2954     011E                     l2500:
  2955     011E  30AA               	movlw	170
  2956     011F  008F               	movwf	15	;volsfr
  2957     0120                     l2502:
  2958     0120  100F               	bcf	15,0	;volsfr
  2959     0121                     l2504:
  2960                           
  2961                           ;main.c: 44:     RB2PPSbits.RB2PPS = 0x14;
  2962     0121  003D               	movlb	29	; select bank29
  2963     0122  081A               	movf	26,w	;volatile
  2964     0123  39E0               	andlw	-32
  2965     0124  3814               	iorlw	20
  2966     0125  009A               	movwf	26	;volatile
  2967     0126                     l2506:
  2968                           
  2969                           ;main.c: 45:     RXPPSbits.RXPPS = 0x0B;
  2970     0126  003C               	movlb	28	; select bank28
  2971     0127  0824               	movf	36,w	;volatile
  2972     0128  39E0               	andlw	-32
  2973     0129  380B               	iorlw	11
  2974     012A  00A4               	movwf	36	;volatile
  2975     012B                     l2508:
  2976                           
  2977                           ;main.c: 47:     RC4PPSbits.RC4PPS = 0x11;
  2978     012B  003D               	movlb	29	; select bank29
  2979     012C  0824               	movf	36,w	;volatile
  2980     012D  39E0               	andlw	-32
  2981     012E  3811               	iorlw	17
  2982     012F  00A4               	movwf	36	;volatile
  2983     0130                     l2510:
  2984                           
  2985                           ;main.c: 48:     SSPDATPPSbits.SSPDATPPS = 0x14;
  2986     0130  003C               	movlb	28	; select bank28
  2987     0131  0821               	movf	33,w	;volatile
  2988     0132  39E0               	andlw	-32
  2989     0133  3814               	iorlw	20
  2990     0134  00A1               	movwf	33	;volatile
  2991     0135                     l2512:
  2992                           
  2993                           ;main.c: 50:     SSPCLKPPSbits.SSPCLKPPS = 0x15;
  2994     0135  0820               	movf	32,w	;volatile
  2995     0136  39E0               	andlw	-32
  2996     0137  3815               	iorlw	21
  2997     0138  00A0               	movwf	32	;volatile
  2998     0139                     l2514:
  2999                           
  3000                           ;main.c: 51:     RC5PPSbits.RC5PPS = 0x10;
  3001     0139  003D               	movlb	29	; select bank29
  3002     013A  0825               	movf	37,w	;volatile
  3003     013B  39E0               	andlw	-32
  3004     013C  3810               	iorlw	16
  3005     013D  00A5               	movwf	37	;volatile
  3006     013E                     l2516:
  3007                           
  3008                           ;main.c: 53:     PPSLOCK = 0x55; PPSLOCK = 0xAA; PPSLOCKbits.PPSLOCKED = 1;
  3009     013E  3055               	movlw	85
  3010     013F  003C               	movlb	28	; select bank28
  3011     0140  008F               	movwf	15	;volsfr
  3012     0141                     l2518:
  3013     0141  30AA               	movlw	170
  3014     0142  008F               	movwf	15	;volsfr
  3015     0143                     l2520:
  3016     0143  140F               	bsf	15,0	;volsfr
  3017     0144                     l2522:
  3018                           
  3019                           ;main.c: 56:     T1CONbits.TMR1CS = 0;
  3020     0144  303F               	movlw	-193
  3021     0145  0020               	movlb	0	; select bank0
  3022     0146  0598               	andwf	24,f	;volatile
  3023     0147                     l2524:
  3024                           
  3025                           ;main.c: 57:     T1CONbits.T1CKPS = 0b00;
  3026     0147  30CF               	movlw	-49
  3027     0148  0598               	andwf	24,f	;volatile
  3028     0149                     l2526:
  3029                           
  3030                           ;main.c: 58:     T1CONbits.TMR1ON = 0;
  3031     0149  1018               	bcf	24,0	;volatile
  3032     014A                     l2528:
  3033                           
  3034                           ;main.c: 59:     TMR1 = 0;
  3035     014A  0196               	clrf	22	;volatile
  3036     014B  0197               	clrf	23	;volatile
  3037     014C                     l2530:
  3038                           
  3039                           ;main.c: 60:     PIR1bits.TMR1IF = 0;
  3040     014C  1011               	bcf	17,0	;volatile
  3041     014D                     l93:
  3042     014D  0008               	return
  3043     014E                     __end_of_initMain:
  3044                           
  3045                           	psect	text2
  3046     0004                     __ptext2:	
  3047 ;; *************** function _internal_32 *****************
  3048 ;; Defined at:
  3049 ;;		line 36 in file "PIC16F1718_Internal.c"
  3050 ;; Parameters:    Size  Location     Type
  3051 ;;		None
  3052 ;; Auto vars:     Size  Location     Type
  3053 ;;		None
  3054 ;; Return value:  Size  Location     Type
  3055 ;;                  1    wreg      void 
  3056 ;; Registers used:
  3057 ;;		None
  3058 ;; Tracked objects:
  3059 ;;		On entry : 0/0
  3060 ;;		On exit  : 0/0
  3061 ;;		Unchanged: 0/0
  3062 ;; Data sizes:     COMMON   BANK0   BANK1   BANK2   BANK3   BANK4   BANK5   BANK6   BANK7   BANK8   BANK9  BANK10  BANK1
      +1  BANK12  BANK13  BANK14  BANK15  BANK16  BANK17  BANK18  BANK19  BANK20  BANK21  BANK22  BANK23  BANK24  BANK25
  3063 ;;      Params:         0       0       0       0       0       0       0       0       0       0       0       0       
      +0       0       0       0       0       0       0       0       0       0       0       0       0       0       0
  3064 ;;      Locals:         0       0       0       0       0       0       0       0       0       0       0       0       
      +0       0       0       0       0       0       0       0       0       0       0       0       0       0       0
  3065 ;;      Temps:          0       0       0       0       0       0       0       0       0       0       0       0       
      +0       0       0       0       0       0       0       0       0       0       0       0       0       0       0
  3066 ;;      Totals:         0       0       0       0       0       0       0       0       0       0       0       0       
      +0       0       0       0       0       0       0       0       0       0       0       0       0       0       0
  3067 ;;Total ram usage:        0 bytes
  3068 ;; Hardware stack levels used: 1
  3069 ;; This function calls:
  3070 ;;		Nothing
  3071 ;; This function is called by:
  3072 ;;		_initMain
  3073 ;; This function uses a non-reentrant model
  3074 ;;
  3075                           
  3076     0004                     _internal_32:	
  3077                           ;psect for function _internal_32
  3078                           
  3079     0004                     l2166:	
  3080                           ;incstack = 0
  3081                           ; Regs used in _internal_32: []
  3082                           
  3083                           
  3084                           ;PIC16F1718_Internal.c: 38:     SCS0 = 0;
  3085     0004  0021               	movlb	1	; select bank1
  3086     0005  1019               	bcf	25,0	;volatile
  3087                           
  3088                           ;PIC16F1718_Internal.c: 39:     SCS1 = 0;
  3089     0006  1099               	bcf	25,1	;volatile
  3090                           
  3091                           ;PIC16F1718_Internal.c: 42:     IRCF0 = 0;
  3092     0007  1199               	bcf	25,3	;volatile
  3093                           
  3094                           ;PIC16F1718_Internal.c: 43:     IRCF1 = 1;
  3095     0008  1619               	bsf	25,4	;volatile
  3096                           
  3097                           ;PIC16F1718_Internal.c: 44:     IRCF2 = 1;
  3098     0009  1699               	bsf	25,5	;volatile
  3099                           
  3100                           ;PIC16F1718_Internal.c: 45:     IRCF3 = 1;
  3101     000A  1719               	bsf	25,6	;volatile
  3102                           
  3103                           ;PIC16F1718_Internal.c: 48:     SPLLEN = 1;
  3104     000B  1799               	bsf	25,7	;volatile
  3105     000C                     l17:
  3106     000C  0008               	return
  3107     000D                     __end_of_internal_32:
  3108                           
  3109                           	psect	text3
  3110     0F28                     __ptext3:	
  3111 ;; *************** function _OLED_SetOrientation *****************
  3112 ;; Defined at:
  3113 ;;		line 246 in file "OLED_SSD1306.c"
  3114 ;; Parameters:    Size  Location     Type
  3115 ;;  o               1    wreg     enum E6061
  3116 ;; Auto vars:     Size  Location     Type
  3117 ;;  o               1    9[COMMON] enum E6061
  3118 ;; Return value:  Size  Location     Type
  3119 ;;                  1    wreg      void 
  3120 ;; Registers used:
  3121 ;;		wreg, fsr0l, fsr0h, status,2, status,0, pclath, cstack
  3122 ;; Tracked objects:
  3123 ;;		On entry : 0/0
  3124 ;;		On exit  : 0/0
  3125 ;;		Unchanged: 0/0
  3126 ;; Data sizes:     COMMON   BANK0   BANK1   BANK2   BANK3   BANK4   BANK5   BANK6   BANK7   BANK8   BANK9  BANK10  BANK1
      +1  BANK12  BANK13  BANK14  BANK15  BANK16  BANK17  BANK18  BANK19  BANK20  BANK21  BANK22  BANK23  BANK24  BANK25
  3127 ;;      Params:         0       0       0       0       0       0       0       0       0       0       0       0       
      +0       0       0       0       0       0       0       0       0       0       0       0       0       0       0
  3128 ;;      Locals:         1       0       0       0       0       0       0       0       0       0       0       0       
      +0       0       0       0       0       0       0       0       0       0       0       0       0       0       0
  3129 ;;      Temps:          2       0       0       0       0       0       0       0       0       0       0       0       
      +0       0       0       0       0       0       0       0       0       0       0       0       0       0       0
  3130 ;;      Totals:         3       0       0       0       0       0       0       0       0       0       0       0       
      +0       0       0       0       0       0       0       0       0       0       0       0       0       0       0
  3131 ;;Total ram usage:        3 bytes
  3132 ;; Hardware stack levels used: 1
  3133 ;; Hardware stack levels required when called: 3
  3134 ;; This function calls:
  3135 ;;		_OLED_Command
  3136 ;; This function is called by:
  3137 ;;		_main
  3138 ;; This function uses a non-reentrant model
  3139 ;;
  3140                           
  3141     0F28                     _OLED_SetOrientation:	
  3142                           ;psect for function _OLED_SetOrientation
  3143                           
  3144                           
  3145                           ;incstack = 0
  3146                           ; Regs used in _OLED_SetOrientation: [wreg-fsr0h+status,2+status,0+pclath+cstack]
  3147                           ;OLED_SetOrientation@o stored from wreg
  3148     0F28  00F9               	movwf	OLED_SetOrientation@o
  3149     0F29                     l2630:
  3150                           
  3151                           ;OLED_SSD1306.c: 246: void OLED_SetOrientation(oled_orient_t o);OLED_SSD1306.c: 247: {;O
      +                          LED_SSD1306.c: 248:     (void)OLED_Command(0x2E);
  3152     0F29  302E               	movlw	46
  3153     0F2A  318E  2658  318F   	fcall	_OLED_Command
  3154                           
  3155                           ;OLED_SSD1306.c: 250:     switch (o)
  3156     0F2D  2F52               	goto	l2642
  3157     0F2E                     l2632:
  3158                           
  3159                           ;OLED_SSD1306.c: 254:             (void)OLED_Command(0xA0 | 0x01);
  3160     0F2E  30A1               	movlw	161
  3161     0F2F  318E  2658  318F   	fcall	_OLED_Command
  3162                           
  3163                           ;OLED_SSD1306.c: 255:             (void)OLED_Command(0xC8);
  3164     0F32  30C8               	movlw	200
  3165     0F33  318E  2658  318F   	fcall	_OLED_Command
  3166                           
  3167                           ;OLED_SSD1306.c: 256:             break;
  3168     0F36  2F68               	goto	l176
  3169     0F37                     l2634:
  3170                           
  3171                           ;OLED_SSD1306.c: 259:             (void)OLED_Command(0xA0 | 0x00);
  3172     0F37  30A0               	movlw	160
  3173     0F38  318E  2658  318F   	fcall	_OLED_Command
  3174                           
  3175                           ;OLED_SSD1306.c: 260:             (void)OLED_Command(0xC0);
  3176     0F3B  30C0               	movlw	192
  3177     0F3C  318E  2658  318F   	fcall	_OLED_Command
  3178                           
  3179                           ;OLED_SSD1306.c: 261:             break;
  3180     0F3F  2F68               	goto	l176
  3181     0F40                     l2636:
  3182                           
  3183                           ;OLED_SSD1306.c: 264:             (void)OLED_Command(0xA0 | 0x00);
  3184     0F40  30A0               	movlw	160
  3185     0F41  318E  2658  318F   	fcall	_OLED_Command
  3186                           
  3187                           ;OLED_SSD1306.c: 265:             (void)OLED_Command(0xC8);
  3188     0F44  30C8               	movlw	200
  3189     0F45  318E  2658  318F   	fcall	_OLED_Command
  3190                           
  3191                           ;OLED_SSD1306.c: 266:             break;
  3192     0F48  2F68               	goto	l176
  3193     0F49                     l2638:
  3194                           
  3195                           ;OLED_SSD1306.c: 269:             (void)OLED_Command(0xA0 | 0x01);
  3196     0F49  30A1               	movlw	161
  3197     0F4A  318E  2658  318F   	fcall	_OLED_Command
  3198                           
  3199                           ;OLED_SSD1306.c: 270:             (void)OLED_Command(0xC0);
  3200     0F4D  30C0               	movlw	192
  3201     0F4E  318E  2658  318F   	fcall	_OLED_Command
  3202                           
  3203                           ;OLED_SSD1306.c: 271:             break;
  3204     0F51  2F68               	goto	l176
  3205     0F52                     l2642:
  3206     0F52  0879               	movf	OLED_SetOrientation@o,w
  3207     0F53  00F7               	movwf	??_OLED_SetOrientation
  3208     0F54  01F8               	clrf	??_OLED_SetOrientation+1
  3209                           
  3210                           ; Switch on 2 bytes has been partitioned into a top level switch of size 1, and 1 sub-sw
      +                          itches
  3211                           ; Switch size 1, requested type "simple"
  3212                           ; Number of cases is 1, Range of values is 0 to 0
  3213                           ; switch strategies available:
  3214                           ; Name         Instructions Cycles
  3215                           ; simple_byte            4     3 (average)
  3216                           ; direct_byte            8     6 (fixed)
  3217                           ; jumptable            260     6 (fixed)
  3218                           ;	Chosen strategy is simple_byte
  3219     0F55  0878               	movf	??_OLED_SetOrientation+1,w
  3220     0F56  3A00               	xorlw	0	; case 0
  3221     0F57  1903               	skipnz
  3222     0F58  2F5A               	goto	l3034
  3223     0F59  2F2E               	goto	l2632
  3224     0F5A                     l3034:
  3225                           
  3226                           ; Switch size 1, requested type "simple"
  3227                           ; Number of cases is 4, Range of values is 0 to 3
  3228                           ; switch strategies available:
  3229                           ; Name         Instructions Cycles
  3230                           ; simple_byte           13     7 (average)
  3231                           ; direct_byte           14     6 (fixed)
  3232                           ; jumptable            260     6 (fixed)
  3233                           ;	Chosen strategy is simple_byte
  3234     0F5A  0877               	movf	??_OLED_SetOrientation,w
  3235     0F5B  3A00               	xorlw	0	; case 0
  3236     0F5C  1903               	skipnz
  3237     0F5D  2F2E               	goto	l2632
  3238     0F5E  3A01               	xorlw	1	; case 1
  3239     0F5F  1903               	skipnz
  3240     0F60  2F37               	goto	l2634
  3241     0F61  3A03               	xorlw	3	; case 2
  3242     0F62  1903               	skipnz
  3243     0F63  2F40               	goto	l2636
  3244     0F64  3A01               	xorlw	1	; case 3
  3245     0F65  1903               	skipnz
  3246     0F66  2F49               	goto	l2638
  3247     0F67  2F2E               	goto	l2632
  3248     0F68                     l176:
  3249     0F68  0008               	return
  3250     0F69                     __end_of_OLED_SetOrientation:
  3251                           
  3252                           	psect	text4
  3253     03D9                     __ptext4:	
  3254 ;; *************** function _OLED_Printf_Line *****************
  3255 ;; Defined at:
  3256 ;;		line 424 in file "OLED_SSD1306.c"
  3257 ;; Parameters:    Size  Location     Type
  3258 ;;  line            1    wreg     unsigned char 
  3259 ;;  fmt             2    6[BANK0 ] PTR const unsigned char 
  3260 ;;		 -> STR_3(9), STR_2(12), STR_1(19), 
  3261 ;; Auto vars:     Size  Location     Type
  3262 ;;  line            1   39[BANK1 ] unsigned char 
  3263 ;;  nibble          1   26[BANK1 ] unsigned char 
  3264 ;;  temp           11   33[BANK0 ] unsigned char [11]
  3265 ;;  val             4   33[BANK1 ] long 
  3266 ;;  i               1   30[BANK1 ] unsigned char 
  3267 ;;  temp           11   22[BANK0 ] unsigned char [11]
  3268 ;;  val             4   20[BANK1 ] unsigned long 
  3269 ;;  i               1   29[BANK1 ] unsigned char 
  3270 ;;  str             1   17[BANK1 ] PTR const unsigned char 
  3271 ;;		 -> ?_OLED_Printf_Line(1), 
  3272 ;;  temp            5   12[BANK1 ] unsigned char [5]
  3273 ;;  val             2   78[BANK0 ] unsigned short 
  3274 ;;  i               1   32[BANK1 ] unsigned char 
  3275 ;;  temp            6    6[BANK1 ] unsigned char [6]
  3276 ;;  val             2   24[BANK1 ] unsigned short 
  3277 ;;  i               1   31[BANK1 ] unsigned char 
  3278 ;;  temp            6    0[BANK1 ] unsigned char [6]
  3279 ;;  val             2   37[BANK1 ] short 
  3280 ;;  i               1   28[BANK1 ] unsigned char 
  3281 ;;  ch              1   27[BANK1 ] unsigned char 
  3282 ;;  p               1   19[BANK1 ] PTR const unsigned char 
  3283 ;;		 -> OLED_Printf_Line@buf(32), 
  3284 ;;  buf            32   44[BANK0 ] unsigned char [32]
  3285 ;;  src             2   41[BANK1 ] PTR const unsigned char 
  3286 ;;		 -> STR_3(9), STR_2(12), STR_1(19), 
  3287 ;;  dst             1   43[BANK1 ] PTR unsigned char 
  3288 ;;		 -> OLED_Printf_Line@buf(32), 
  3289 ;;  ap              1   40[BANK1 ] PTR void [1]
  3290 ;;		 -> ?_OLED_Printf_Line(1), 
  3291 ;;  col             1   18[BANK1 ] unsigned char 
  3292 ;; Return value:  Size  Location     Type
  3293 ;;                  1    wreg      void 
  3294 ;; Registers used:
  3295 ;;		wreg, fsr0l, fsr0h, fsr1l, fsr1h, status,2, status,0, pclath, cstack
  3296 ;; Tracked objects:
  3297 ;;		On entry : 0/0
  3298 ;;		On exit  : 0/0
  3299 ;;		Unchanged: 0/0
  3300 ;; Data sizes:     COMMON   BANK0   BANK1   BANK2   BANK3   BANK4   BANK5   BANK6   BANK7   BANK8   BANK9  BANK10  BANK1
      +1  BANK12  BANK13  BANK14  BANK15  BANK16  BANK17  BANK18  BANK19  BANK20  BANK21  BANK22  BANK23  BANK24  BANK25
  3301 ;;      Params:         0       4       0       0       0       0       0       0       0       0       0       0       
      +0       0       0       0       0       0       0       0       0       0       0       0       0       0       0
  3302 ;;      Locals:         0      58      44       0       0       0       0       0       0       0       0       0       
      +0       0       0       0       0       0       0       0       0       0       0       0       0       0       0
  3303 ;;      Temps:          0      12       0       0       0       0       0       0       0       0       0       0       
      +0       0       0       0       0       0       0       0       0       0       0       0       0       0       0
  3304 ;;      Totals:         0      74      44       0       0       0       0       0       0       0       0       0       
      +0       0       0       0       0       0       0       0       0       0       0       0       0       0       0
  3305 ;;Total ram usage:      118 bytes
  3306 ;; Hardware stack levels used: 1
  3307 ;; Hardware stack levels required when called: 5
  3308 ;; This function calls:
  3309 ;;		_OLED_UpdateLine
  3310 ;;		___aldiv
  3311 ;;		___almod
  3312 ;;		___awdiv
  3313 ;;		___awmod
  3314 ;;		___lldiv
  3315 ;;		___llmod
  3316 ;;		___lwdiv
  3317 ;;		___lwmod
  3318 ;;		_memcpy
  3319 ;;		_memset
  3320 ;;		_strcmp
  3321 ;;		_strcpy
  3322 ;; This function is called by:
  3323 ;;		_main
  3324 ;; This function uses a non-reentrant model
  3325 ;;
  3326                           
  3327     03D9                     _OLED_Printf_Line:	
  3328                           ;psect for function _OLED_Printf_Line
  3329                           
  3330                           
  3331                           ;incstack = 0
  3332                           ; Regs used in _OLED_Printf_Line: [wreg-fsr1h+status,2+status,0+pclath+cstack]
  3333                           ;OLED_Printf_Line@line stored from wreg
  3334     03D9  0021               	movlb	1	; select bank1
  3335     03DA  00C7               	movwf	OLED_Printf_Line@line^(0+128)
  3336     03DB                     l2648:
  3337                           
  3338                           ;OLED_SSD1306.c: 424: void OLED_Printf_Line(uint8_t line, const char* fmt, ...);OLED_SSD
      +                          1306.c: 425: {;OLED_SSD1306.c: 426:     static char last_text[8][32];;OLED_SSD1306.c: 42
      +                          7:     char buf[32];;OLED_SSD1306.c: 428:     char *dst = buf;
  3339     03DB  304C               	movlw	(low (OLED_Printf_Line@buf| 0))& (0+255)
  3340     03DC  00CB               	movwf	OLED_Printf_Line@dst^(0+128)
  3341                           
  3342                           ;OLED_SSD1306.c: 429:     const char *src = fmt;
  3343     03DD  0020               	movlb	0	; select bank0
  3344     03DE  0827               	movf	OLED_Printf_Line@fmt+1,w
  3345     03DF  0021               	movlb	1	; select bank1
  3346     03E0  00CA               	movwf	(OLED_Printf_Line@src+1)^(0+128)
  3347     03E1  0020               	movlb	0	; select bank0
  3348     03E2  0826               	movf	OLED_Printf_Line@fmt,w
  3349     03E3  0021               	movlb	1	; select bank1
  3350     03E4  00C9               	movwf	OLED_Printf_Line@src^(0+128)
  3351                           
  3352                           ;OLED_SSD1306.c: 431:     if (line >= (32 / 8)) return;
  3353     03E5  3004               	movlw	4
  3354     03E6  0247               	subwf	OLED_Printf_Line@line^(0+128),w
  3355     03E7  1C03               	skipc
  3356     03E8  2BEA               	goto	u2691
  3357     03E9  2BEB               	goto	u2690
  3358     03EA                     u2691:
  3359     03EA  2BEC               	goto	l2652
  3360     03EB                     u2690:
  3361     03EB  2FF1               	goto	l214
  3362     03EC                     l2652:
  3363                           
  3364                           ;OLED_SSD1306.c: 433:     va_list ap;;OLED_SSD1306.c: 434:     *ap = __va_start();
  3365     03EC  3028               	movlw	(low ((?_OLED_Printf_Line| 0+2)))& (0+255)
  3366     03ED  00C8               	movwf	OLED_Printf_Line@ap^(0+128)
  3367                           
  3368                           ;OLED_SSD1306.c: 437:     while (*src && (dst - buf) < 31) {
  3369     03EE  2F01               	goto	l2852
  3370     03EF                     l2654:
  3371                           
  3372                           ;OLED_SSD1306.c: 438:         if (*src == '%') {
  3373     03EF  0849               	movf	OLED_Printf_Line@src^(0+128),w
  3374     03F0  0084               	movwf	4
  3375     03F1  084A               	movf	(OLED_Printf_Line@src+1)^(0+128),w
  3376     03F2  0085               	movwf	5
  3377     03F3  0012               	moviw fsr0++
  3378     03F4  3A25               	xorlw	37
  3379     03F5  1D03               	btfss	3,2
  3380     03F6  2BF8               	goto	u2701
  3381     03F7  2BF9               	goto	u2700
  3382     03F8                     u2701:
  3383     03F8  2EEE               	goto	l2846
  3384     03F9                     u2700:
  3385     03F9                     l2656:
  3386                           
  3387                           ;OLED_SSD1306.c: 439:             src++;
  3388     03F9  3001               	movlw	1
  3389     03FA  07C9               	addwf	OLED_Printf_Line@src^(0+128),f
  3390     03FB  3000               	movlw	0
  3391     03FC  3DCA               	addwfc	(OLED_Printf_Line@src+1)^(0+128),f
  3392                           
  3393                           ;OLED_SSD1306.c: 440:             switch (*src) {
  3394     03FD  2ECE               	goto	l2842
  3395     03FE                     l2658:
  3396                           
  3397                           ;OLED_SSD1306.c: 442:                     int16_t val = (*(int *)__va_arg(*(int **)ap, (
      +                          int)0));
  3398     03FE  0848               	movf	OLED_Printf_Line@ap^(0+128),w
  3399     03FF  0086               	movwf	6
  3400     0400  0187               	clrf	7
  3401     0401  3F40               	moviw [0]fsr1
  3402     0402  00C5               	movwf	OLED_Printf_Line@val^(0+128)
  3403     0403  3F41               	moviw [1]fsr1
  3404     0404  00C6               	movwf	(OLED_Printf_Line@val+1)^(0+128)
  3405     0405                     l2660:
  3406     0405  3002               	movlw	2
  3407     0406  0020               	movlb	0	; select bank0
  3408     0407  00AA               	movwf	??_OLED_Printf_Line
  3409     0408  082A               	movf	??_OLED_Printf_Line,w
  3410     0409  0021               	movlb	1	; select bank1
  3411     040A  07C8               	addwf	OLED_Printf_Line@ap^(0+128),f
  3412     040B                     l2662:
  3413                           
  3414                           ;OLED_SSD1306.c: 443:                     if (val < 0) {
  3415     040B  1FC6               	btfss	(OLED_Printf_Line@val+1)^(0+128),7
  3416     040C  2C0E               	goto	u2711
  3417     040D  2C0F               	goto	u2710
  3418     040E                     u2711:
  3419     040E  2C1F               	goto	l2670
  3420     040F                     u2710:
  3421     040F                     l2664:
  3422                           
  3423                           ;OLED_SSD1306.c: 444:                         *dst++ = '-';
  3424     040F  084B               	movf	OLED_Printf_Line@dst^(0+128),w
  3425     0410  0086               	movwf	6
  3426     0411  0187               	clrf	7
  3427     0412  302D               	movlw	45
  3428     0413  0081               	movwf	1
  3429     0414                     l2666:
  3430     0414  3001               	movlw	1
  3431     0415  0020               	movlb	0	; select bank0
  3432     0416  00AA               	movwf	??_OLED_Printf_Line
  3433     0417  082A               	movf	??_OLED_Printf_Line,w
  3434     0418  0021               	movlb	1	; select bank1
  3435     0419  07CB               	addwf	OLED_Printf_Line@dst^(0+128),f
  3436     041A                     l2668:
  3437                           
  3438                           ;OLED_SSD1306.c: 445:                         val = -val;
  3439     041A  09C5               	comf	OLED_Printf_Line@val^(0+128),f
  3440     041B  09C6               	comf	(OLED_Printf_Line@val+1)^(0+128),f
  3441     041C  0AC5               	incf	OLED_Printf_Line@val^(0+128),f
  3442     041D  1903               	skipnz
  3443     041E  0AC6               	incf	(OLED_Printf_Line@val+1)^(0+128),f
  3444     041F                     l2670:
  3445                           
  3446                           ;OLED_SSD1306.c: 448:                     char temp[6];;OLED_SSD1306.c: 449:            
      +                                   uint8_t i = 0;
  3447     041F  01BC               	clrf	OLED_Printf_Line@i^(0+128)
  3448     0420                     l2672:
  3449                           
  3450                           ;OLED_SSD1306.c: 451:                         temp[i++] = '0' + (val % 10);
  3451     0420  083C               	movf	OLED_Printf_Line@i^(0+128),w
  3452     0421  3EA0               	addlw	(low (OLED_Printf_Line@temp| 0))& (0+255)
  3453     0422  0086               	movwf	6
  3454     0423  0187               	clrf	7
  3455     0424  300A               	movlw	10
  3456     0425  00F0               	movwf	___awmod@divisor
  3457     0426  3000               	movlw	0
  3458     0427  00F1               	movwf	___awmod@divisor+1
  3459     0428  0846               	movf	(OLED_Printf_Line@val+1)^(0+128),w
  3460     0429  00F3               	movwf	___awmod@dividend+1
  3461     042A  0845               	movf	OLED_Printf_Line@val^(0+128),w
  3462     042B  00F2               	movwf	___awmod@dividend
  3463     042C  3181  214E  3183   	fcall	___awmod
  3464     042F  0870               	movf	?___awmod,w
  3465     0430  3E30               	addlw	48
  3466     0431  0081               	movwf	1
  3467     0432                     l2674:
  3468     0432  3001               	movlw	1
  3469     0433  0020               	movlb	0	; select bank0
  3470     0434  00AA               	movwf	??_OLED_Printf_Line
  3471     0435  082A               	movf	??_OLED_Printf_Line,w
  3472     0436  0021               	movlb	1	; select bank1
  3473     0437  07BC               	addwf	OLED_Printf_Line@i^(0+128),f
  3474     0438                     l2676:
  3475                           
  3476                           ;OLED_SSD1306.c: 452:                         val /= 10;
  3477     0438  300A               	movlw	10
  3478     0439  00F0               	movwf	___awdiv@divisor
  3479     043A  3000               	movlw	0
  3480     043B  00F1               	movwf	___awdiv@divisor+1
  3481     043C  0846               	movf	(OLED_Printf_Line@val+1)^(0+128),w
  3482     043D  00F3               	movwf	___awdiv@dividend+1
  3483     043E  0845               	movf	OLED_Printf_Line@val^(0+128),w
  3484     043F  00F2               	movwf	___awdiv@dividend
  3485     0440  3181  21FB  3183   	fcall	___awdiv
  3486     0443  0871               	movf	?___awdiv+1,w
  3487     0444  0021               	movlb	1	; select bank1
  3488     0445  00C6               	movwf	(OLED_Printf_Line@val+1)^(0+128)
  3489     0446  0870               	movf	?___awdiv,w
  3490     0447  00C5               	movwf	OLED_Printf_Line@val^(0+128)
  3491     0448                     l2678:
  3492                           
  3493                           ;OLED_SSD1306.c: 453:                     } while (val && i < 6);
  3494     0448  0845               	movf	OLED_Printf_Line@val^(0+128),w
  3495     0449  0446               	iorwf	(OLED_Printf_Line@val+1)^(0+128),w
  3496     044A  1903               	btfsc	3,2
  3497     044B  2C4D               	goto	u2721
  3498     044C  2C4E               	goto	u2720
  3499     044D                     u2721:
  3500     044D  2C64               	goto	l2686
  3501     044E                     u2720:
  3502     044E                     l2680:
  3503     044E  3006               	movlw	6
  3504     044F  023C               	subwf	OLED_Printf_Line@i^(0+128),w
  3505     0450  1C03               	skipc
  3506     0451  2C53               	goto	u2731
  3507     0452  2C54               	goto	u2730
  3508     0453                     u2731:
  3509     0453  2C20               	goto	l2672
  3510     0454                     u2730:
  3511     0454  2C64               	goto	l2686
  3512     0455                     l2682:
  3513     0455  084B               	movf	OLED_Printf_Line@dst^(0+128),w
  3514     0456  0086               	movwf	6
  3515     0457  0187               	clrf	7
  3516     0458  083C               	movf	OLED_Printf_Line@i^(0+128),w
  3517     0459  3EA0               	addlw	(low (OLED_Printf_Line@temp| 0))& (0+255)
  3518     045A  0084               	movwf	4
  3519     045B  0185               	clrf	5
  3520     045C  0800               	movf	0,w
  3521     045D  0081               	movwf	1
  3522     045E                     l2684:
  3523     045E  3001               	movlw	1
  3524     045F  0020               	movlb	0	; select bank0
  3525     0460  00AA               	movwf	??_OLED_Printf_Line
  3526     0461  082A               	movf	??_OLED_Printf_Line,w
  3527     0462  0021               	movlb	1	; select bank1
  3528     0463  07CB               	addwf	OLED_Printf_Line@dst^(0+128),f
  3529     0464                     l2686:
  3530     0464  3001               	movlw	1
  3531     0465  02BC               	subwf	OLED_Printf_Line@i^(0+128),f
  3532     0466  0A3C               	incf	OLED_Printf_Line@i^(0+128),w
  3533     0467  1D03               	btfss	3,2
  3534     0468  2C6A               	goto	u2741
  3535     0469  2C6B               	goto	u2740
  3536     046A                     u2741:
  3537     046A  2C55               	goto	l2682
  3538     046B                     u2740:
  3539     046B  2EE9               	goto	l2844
  3540     046C                     l2688:
  3541                           
  3542                           ;OLED_SSD1306.c: 458:                     src++;
  3543     046C  3001               	movlw	1
  3544     046D  07C9               	addwf	OLED_Printf_Line@src^(0+128),f
  3545     046E  3000               	movlw	0
  3546     046F  3DCA               	addwfc	(OLED_Printf_Line@src+1)^(0+128),f
  3547     0470                     l2690:
  3548                           
  3549                           ;OLED_SSD1306.c: 459:                     if (*src == 'u') {
  3550     0470  0849               	movf	OLED_Printf_Line@src^(0+128),w
  3551     0471  0084               	movwf	4
  3552     0472  084A               	movf	(OLED_Printf_Line@src+1)^(0+128),w
  3553     0473  0085               	movwf	5
  3554     0474  0012               	moviw fsr0++
  3555     0475  3A75               	xorlw	117
  3556     0476  1D03               	btfss	3,2
  3557     0477  2C79               	goto	u2751
  3558     0478  2C7A               	goto	u2750
  3559     0479                     u2751:
  3560     0479  2CEE               	goto	l2714
  3561     047A                     u2750:
  3562     047A                     l2692:
  3563                           
  3564                           ;OLED_SSD1306.c: 460:                         uint32_t val = (*(uint32_t *)__va_arg(*(ui
      +                          nt32_t **)ap, (uint32_t)0));
  3565     047A  0848               	movf	OLED_Printf_Line@ap^(0+128),w
  3566     047B  0086               	movwf	6
  3567     047C  0187               	clrf	7
  3568     047D  3F40               	moviw [0]fsr1
  3569     047E  00B4               	movwf	OLED_Printf_Line@val_470^(0+128)
  3570     047F  3F41               	moviw [1]fsr1
  3571     0480  00B5               	movwf	(OLED_Printf_Line@val_470+1)^(0+128)
  3572     0481  3F42               	moviw [2]fsr1
  3573     0482  00B6               	movwf	(OLED_Printf_Line@val_470+2)^(0+128)
  3574     0483  3F43               	moviw [3]fsr1
  3575     0484  00B7               	movwf	(OLED_Printf_Line@val_470+3)^(0+128)
  3576     0485                     l2694:
  3577     0485  3004               	movlw	4
  3578     0486  0020               	movlb	0	; select bank0
  3579     0487  00AA               	movwf	??_OLED_Printf_Line
  3580     0488  082A               	movf	??_OLED_Printf_Line,w
  3581     0489  0021               	movlb	1	; select bank1
  3582     048A  07C8               	addwf	OLED_Printf_Line@ap^(0+128),f
  3583     048B                     l2696:
  3584                           
  3585                           ;OLED_SSD1306.c: 461:                         char temp[11];;OLED_SSD1306.c: 462:       
      +                                            uint8_t i = 0;
  3586     048B  01BD               	clrf	OLED_Printf_Line@i_472^(0+128)
  3587     048C                     l2698:
  3588                           
  3589                           ;OLED_SSD1306.c: 464:                             temp[i++] = '0' + (val % 10);
  3590     048C  083D               	movf	OLED_Printf_Line@i_472^(0+128),w
  3591     048D  3E36               	addlw	(low (OLED_Printf_Line@temp_471| 0))& (0+255)
  3592     048E  0086               	movwf	6
  3593     048F  0187               	clrf	7
  3594     0490  3000               	movlw	0
  3595     0491  00F3               	movwf	___llmod@divisor+3
  3596     0492  3000               	movlw	0
  3597     0493  00F2               	movwf	___llmod@divisor+2
  3598     0494  3000               	movlw	0
  3599     0495  00F1               	movwf	___llmod@divisor+1
  3600     0496  300A               	movlw	10
  3601     0497  00F0               	movwf	___llmod@divisor
  3602     0498  0837               	movf	(OLED_Printf_Line@val_470+3)^(0+128),w
  3603     0499  00F7               	movwf	___llmod@dividend+3
  3604     049A  0836               	movf	(OLED_Printf_Line@val_470+2)^(0+128),w
  3605     049B  00F6               	movwf	___llmod@dividend+2
  3606     049C  0835               	movf	(OLED_Printf_Line@val_470+1)^(0+128),w
  3607     049D  00F5               	movwf	___llmod@dividend+1
  3608     049E  0834               	movf	OLED_Printf_Line@val_470^(0+128),w
  3609     049F  00F4               	movwf	___llmod@dividend
  3610     04A0  318F  2769  3183   	fcall	___llmod
  3611     04A3  0870               	movf	?___llmod,w
  3612     04A4  3E30               	addlw	48
  3613     04A5  0081               	movwf	1
  3614     04A6                     l2700:
  3615     04A6  3001               	movlw	1
  3616     04A7  0020               	movlb	0	; select bank0
  3617     04A8  00AA               	movwf	??_OLED_Printf_Line
  3618     04A9  082A               	movf	??_OLED_Printf_Line,w
  3619     04AA  0021               	movlb	1	; select bank1
  3620     04AB  07BD               	addwf	OLED_Printf_Line@i_472^(0+128),f
  3621     04AC                     l2702:
  3622                           
  3623                           ;OLED_SSD1306.c: 465:                             val /= 10;
  3624     04AC  3000               	movlw	0
  3625     04AD  00F3               	movwf	___lldiv@divisor+3
  3626     04AE  3000               	movlw	0
  3627     04AF  00F2               	movwf	___lldiv@divisor+2
  3628     04B0  3000               	movlw	0
  3629     04B1  00F1               	movwf	___lldiv@divisor+1
  3630     04B2  300A               	movlw	10
  3631     04B3  00F0               	movwf	___lldiv@divisor
  3632     04B4  0837               	movf	(OLED_Printf_Line@val_470+3)^(0+128),w
  3633     04B5  00F7               	movwf	___lldiv@dividend+3
  3634     04B6  0836               	movf	(OLED_Printf_Line@val_470+2)^(0+128),w
  3635     04B7  00F6               	movwf	___lldiv@dividend+2
  3636     04B8  0835               	movf	(OLED_Printf_Line@val_470+1)^(0+128),w
  3637     04B9  00F5               	movwf	___lldiv@dividend+1
  3638     04BA  0834               	movf	OLED_Printf_Line@val_470^(0+128),w
  3639     04BB  00F4               	movwf	___lldiv@dividend
  3640     04BC  3181  21A1  3183   	fcall	___lldiv
  3641     04BF  0873               	movf	?___lldiv+3,w
  3642     04C0  0021               	movlb	1	; select bank1
  3643     04C1  00B7               	movwf	(OLED_Printf_Line@val_470+3)^(0+128)
  3644     04C2  0872               	movf	?___lldiv+2,w
  3645     04C3  00B6               	movwf	(OLED_Printf_Line@val_470+2)^(0+128)
  3646     04C4  0871               	movf	?___lldiv+1,w
  3647     04C5  00B5               	movwf	(OLED_Printf_Line@val_470+1)^(0+128)
  3648     04C6  0870               	movf	?___lldiv,w
  3649     04C7  00B4               	movwf	OLED_Printf_Line@val_470^(0+128)
  3650     04C8                     l2704:
  3651                           
  3652                           ;OLED_SSD1306.c: 466:                         } while (val && i < 11);
  3653     04C8  0837               	movf	(OLED_Printf_Line@val_470+3)^(0+128),w
  3654     04C9  0436               	iorwf	(OLED_Printf_Line@val_470+2)^(0+128),w
  3655     04CA  0435               	iorwf	(OLED_Printf_Line@val_470+1)^(0+128),w
  3656     04CB  0434               	iorwf	OLED_Printf_Line@val_470^(0+128),w
  3657     04CC  1903               	skipnz
  3658     04CD  2CCF               	goto	u2761
  3659     04CE  2CD0               	goto	u2760
  3660     04CF                     u2761:
  3661     04CF  2CE6               	goto	l2712
  3662     04D0                     u2760:
  3663     04D0                     l2706:
  3664     04D0  300B               	movlw	11
  3665     04D1  023D               	subwf	OLED_Printf_Line@i_472^(0+128),w
  3666     04D2  1C03               	skipc
  3667     04D3  2CD5               	goto	u2771
  3668     04D4  2CD6               	goto	u2770
  3669     04D5                     u2771:
  3670     04D5  2C8C               	goto	l2698
  3671     04D6                     u2770:
  3672     04D6  2CE6               	goto	l2712
  3673     04D7                     l2708:
  3674     04D7  084B               	movf	OLED_Printf_Line@dst^(0+128),w
  3675     04D8  0086               	movwf	6
  3676     04D9  0187               	clrf	7
  3677     04DA  083D               	movf	OLED_Printf_Line@i_472^(0+128),w
  3678     04DB  3E36               	addlw	(low (OLED_Printf_Line@temp_471| 0))& (0+255)
  3679     04DC  0084               	movwf	4
  3680     04DD  0185               	clrf	5
  3681     04DE  0800               	movf	0,w
  3682     04DF  0081               	movwf	1
  3683     04E0                     l2710:
  3684     04E0  3001               	movlw	1
  3685     04E1  0020               	movlb	0	; select bank0
  3686     04E2  00AA               	movwf	??_OLED_Printf_Line
  3687     04E3  082A               	movf	??_OLED_Printf_Line,w
  3688     04E4  0021               	movlb	1	; select bank1
  3689     04E5  07CB               	addwf	OLED_Printf_Line@dst^(0+128),f
  3690     04E6                     l2712:
  3691     04E6  3001               	movlw	1
  3692     04E7  02BD               	subwf	OLED_Printf_Line@i_472^(0+128),f
  3693     04E8  0A3D               	incf	OLED_Printf_Line@i_472^(0+128),w
  3694     04E9  1D03               	btfss	3,2
  3695     04EA  2CEC               	goto	u2781
  3696     04EB  2CED               	goto	u2780
  3697     04EC                     u2781:
  3698     04EC  2CD7               	goto	l2708
  3699     04ED                     u2780:
  3700     04ED  2DAB               	goto	l2756
  3701     04EE                     l2714:
  3702     04EE  0849               	movf	OLED_Printf_Line@src^(0+128),w
  3703     04EF  0084               	movwf	4
  3704     04F0  084A               	movf	(OLED_Printf_Line@src+1)^(0+128),w
  3705     04F1  0085               	movwf	5
  3706     04F2  0012               	moviw fsr0++
  3707     04F3  3A64               	xorlw	100
  3708     04F4  1D03               	btfss	3,2
  3709     04F5  2CF7               	goto	u2791
  3710     04F6  2CF8               	goto	u2790
  3711     04F7                     u2791:
  3712     04F7  2D86               	goto	l2746
  3713     04F8                     u2790:
  3714     04F8                     l2716:
  3715                           
  3716                           ;OLED_SSD1306.c: 469:                         int32_t val = (*(int32_t *)__va_arg(*(int3
      +                          2_t **)ap, (int32_t)0));
  3717     04F8  0848               	movf	OLED_Printf_Line@ap^(0+128),w
  3718     04F9  0086               	movwf	6
  3719     04FA  0187               	clrf	7
  3720     04FB  3F40               	moviw [0]fsr1
  3721     04FC  00C1               	movwf	OLED_Printf_Line@val_473^(0+128)
  3722     04FD  3F41               	moviw [1]fsr1
  3723     04FE  00C2               	movwf	(OLED_Printf_Line@val_473+1)^(0+128)
  3724     04FF  3F42               	moviw [2]fsr1
  3725     0500  00C3               	movwf	(OLED_Printf_Line@val_473+2)^(0+128)
  3726     0501  3F43               	moviw [3]fsr1
  3727     0502  00C4               	movwf	(OLED_Printf_Line@val_473+3)^(0+128)
  3728     0503                     l2718:
  3729     0503  3004               	movlw	4
  3730     0504  0020               	movlb	0	; select bank0
  3731     0505  00AA               	movwf	??_OLED_Printf_Line
  3732     0506  082A               	movf	??_OLED_Printf_Line,w
  3733     0507  0021               	movlb	1	; select bank1
  3734     0508  07C8               	addwf	OLED_Printf_Line@ap^(0+128),f
  3735     0509                     l2720:
  3736                           
  3737                           ;OLED_SSD1306.c: 470:                         if (val < 0) {
  3738     0509  1FC4               	btfss	(OLED_Printf_Line@val_473+3)^(0+128),7
  3739     050A  2D0C               	goto	u2801
  3740     050B  2D0D               	goto	u2800
  3741     050C                     u2801:
  3742     050C  2D23               	goto	l2728
  3743     050D                     u2800:
  3744     050D                     l2722:
  3745                           
  3746                           ;OLED_SSD1306.c: 471:                             *dst++ = '-';
  3747     050D  084B               	movf	OLED_Printf_Line@dst^(0+128),w
  3748     050E  0086               	movwf	6
  3749     050F  0187               	clrf	7
  3750     0510  302D               	movlw	45
  3751     0511  0081               	movwf	1
  3752     0512                     l2724:
  3753     0512  3001               	movlw	1
  3754     0513  0020               	movlb	0	; select bank0
  3755     0514  00AA               	movwf	??_OLED_Printf_Line
  3756     0515  082A               	movf	??_OLED_Printf_Line,w
  3757     0516  0021               	movlb	1	; select bank1
  3758     0517  07CB               	addwf	OLED_Printf_Line@dst^(0+128),f
  3759     0518                     l2726:
  3760                           
  3761                           ;OLED_SSD1306.c: 472:                             val = -val;
  3762     0518  09C1               	comf	OLED_Printf_Line@val_473^(0+128),f
  3763     0519  09C2               	comf	(OLED_Printf_Line@val_473+1)^(0+128),f
  3764     051A  09C3               	comf	(OLED_Printf_Line@val_473+2)^(0+128),f
  3765     051B  09C4               	comf	(OLED_Printf_Line@val_473+3)^(0+128),f
  3766     051C  0AC1               	incf	OLED_Printf_Line@val_473^(0+128),f
  3767     051D  1903               	skipnz
  3768     051E  0AC2               	incf	(OLED_Printf_Line@val_473+1)^(0+128),f
  3769     051F  1903               	skipnz
  3770     0520  0AC3               	incf	(OLED_Printf_Line@val_473+2)^(0+128),f
  3771     0521  1903               	skipnz
  3772     0522  0AC4               	incf	(OLED_Printf_Line@val_473+3)^(0+128),f
  3773     0523                     l2728:
  3774                           
  3775                           ;OLED_SSD1306.c: 474:                         char temp[11];;OLED_SSD1306.c: 475:       
      +                                            uint8_t i = 0;
  3776     0523  01BE               	clrf	OLED_Printf_Line@i_475^(0+128)
  3777     0524                     l2730:
  3778                           
  3779                           ;OLED_SSD1306.c: 477:                             temp[i++] = '0' + (val % 10);
  3780     0524  083E               	movf	OLED_Printf_Line@i_475^(0+128),w
  3781     0525  3E41               	addlw	(low (OLED_Printf_Line@temp_474| 0))& (0+255)
  3782     0526  0086               	movwf	6
  3783     0527  0187               	clrf	7
  3784     0528  3000               	movlw	0
  3785     0529  00F3               	movwf	___almod@divisor+3
  3786     052A  3000               	movlw	0
  3787     052B  00F2               	movwf	___almod@divisor+2
  3788     052C  3000               	movlw	0
  3789     052D  00F1               	movwf	___almod@divisor+1
  3790     052E  300A               	movlw	10
  3791     052F  00F0               	movwf	___almod@divisor
  3792     0530  0844               	movf	(OLED_Printf_Line@val_473+3)^(0+128),w
  3793     0531  00F7               	movwf	___almod@dividend+3
  3794     0532  0843               	movf	(OLED_Printf_Line@val_473+2)^(0+128),w
  3795     0533  00F6               	movwf	___almod@dividend+2
  3796     0534  0842               	movf	(OLED_Printf_Line@val_473+1)^(0+128),w
  3797     0535  00F5               	movwf	___almod@dividend+1
  3798     0536  0841               	movf	OLED_Printf_Line@val_473^(0+128),w
  3799     0537  00F4               	movwf	___almod@dividend
  3800     0538  3182  22CE  3183   	fcall	___almod
  3801     053B  0870               	movf	?___almod,w
  3802     053C  3E30               	addlw	48
  3803     053D  0081               	movwf	1
  3804     053E                     l2732:
  3805     053E  3001               	movlw	1
  3806     053F  0020               	movlb	0	; select bank0
  3807     0540  00AA               	movwf	??_OLED_Printf_Line
  3808     0541  082A               	movf	??_OLED_Printf_Line,w
  3809     0542  0021               	movlb	1	; select bank1
  3810     0543  07BE               	addwf	OLED_Printf_Line@i_475^(0+128),f
  3811     0544                     l2734:
  3812                           
  3813                           ;OLED_SSD1306.c: 478:                             val /= 10;
  3814     0544  3000               	movlw	0
  3815     0545  00F3               	movwf	___aldiv@divisor+3
  3816     0546  3000               	movlw	0
  3817     0547  00F2               	movwf	___aldiv@divisor+2
  3818     0548  3000               	movlw	0
  3819     0549  00F1               	movwf	___aldiv@divisor+1
  3820     054A  300A               	movlw	10
  3821     054B  00F0               	movwf	___aldiv@divisor
  3822     054C  0844               	movf	(OLED_Printf_Line@val_473+3)^(0+128),w
  3823     054D  00F7               	movwf	___aldiv@dividend+3
  3824     054E  0843               	movf	(OLED_Printf_Line@val_473+2)^(0+128),w
  3825     054F  00F6               	movwf	___aldiv@dividend+2
  3826     0550  0842               	movf	(OLED_Printf_Line@val_473+1)^(0+128),w
  3827     0551  00F5               	movwf	___aldiv@dividend+1
  3828     0552  0841               	movf	OLED_Printf_Line@val_473^(0+128),w
  3829     0553  00F4               	movwf	___aldiv@dividend
  3830     0554  3183  2349  3183   	fcall	___aldiv
  3831     0557  0873               	movf	?___aldiv+3,w
  3832     0558  0021               	movlb	1	; select bank1
  3833     0559  00C4               	movwf	(OLED_Printf_Line@val_473+3)^(0+128)
  3834     055A  0872               	movf	?___aldiv+2,w
  3835     055B  00C3               	movwf	(OLED_Printf_Line@val_473+2)^(0+128)
  3836     055C  0871               	movf	?___aldiv+1,w
  3837     055D  00C2               	movwf	(OLED_Printf_Line@val_473+1)^(0+128)
  3838     055E  0870               	movf	?___aldiv,w
  3839     055F  00C1               	movwf	OLED_Printf_Line@val_473^(0+128)
  3840     0560                     l2736:
  3841                           
  3842                           ;OLED_SSD1306.c: 479:                         } while (val && i < 11);
  3843     0560  0844               	movf	(OLED_Printf_Line@val_473+3)^(0+128),w
  3844     0561  0443               	iorwf	(OLED_Printf_Line@val_473+2)^(0+128),w
  3845     0562  0442               	iorwf	(OLED_Printf_Line@val_473+1)^(0+128),w
  3846     0563  0441               	iorwf	OLED_Printf_Line@val_473^(0+128),w
  3847     0564  1903               	skipnz
  3848     0565  2D67               	goto	u2811
  3849     0566  2D68               	goto	u2810
  3850     0567                     u2811:
  3851     0567  2D7E               	goto	l2744
  3852     0568                     u2810:
  3853     0568                     l2738:
  3854     0568  300B               	movlw	11
  3855     0569  023E               	subwf	OLED_Printf_Line@i_475^(0+128),w
  3856     056A  1C03               	skipc
  3857     056B  2D6D               	goto	u2821
  3858     056C  2D6E               	goto	u2820
  3859     056D                     u2821:
  3860     056D  2D24               	goto	l2730
  3861     056E                     u2820:
  3862     056E  2D7E               	goto	l2744
  3863     056F                     l2740:
  3864     056F  084B               	movf	OLED_Printf_Line@dst^(0+128),w
  3865     0570  0086               	movwf	6
  3866     0571  0187               	clrf	7
  3867     0572  083E               	movf	OLED_Printf_Line@i_475^(0+128),w
  3868     0573  3E41               	addlw	(low (OLED_Printf_Line@temp_474| 0))& (0+255)
  3869     0574  0084               	movwf	4
  3870     0575  0185               	clrf	5
  3871     0576  0800               	movf	0,w
  3872     0577  0081               	movwf	1
  3873     0578                     l2742:
  3874     0578  3001               	movlw	1
  3875     0579  0020               	movlb	0	; select bank0
  3876     057A  00AA               	movwf	??_OLED_Printf_Line
  3877     057B  082A               	movf	??_OLED_Printf_Line,w
  3878     057C  0021               	movlb	1	; select bank1
  3879     057D  07CB               	addwf	OLED_Printf_Line@dst^(0+128),f
  3880     057E                     l2744:
  3881     057E  3001               	movlw	1
  3882     057F  02BE               	subwf	OLED_Printf_Line@i_475^(0+128),f
  3883     0580  0A3E               	incf	OLED_Printf_Line@i_475^(0+128),w
  3884     0581  1D03               	btfss	3,2
  3885     0582  2D84               	goto	u2831
  3886     0583  2D85               	goto	u2830
  3887     0584                     u2831:
  3888     0584  2D6F               	goto	l2740
  3889     0585                     u2830:
  3890     0585  2DAB               	goto	l2756
  3891     0586                     l2746:
  3892                           
  3893                           ;OLED_SSD1306.c: 483:                         *dst++ = '%';
  3894     0586  084B               	movf	OLED_Printf_Line@dst^(0+128),w
  3895     0587  0086               	movwf	6
  3896     0588  0187               	clrf	7
  3897     0589  3025               	movlw	37
  3898     058A  0081               	movwf	1
  3899     058B                     l2748:
  3900     058B  3001               	movlw	1
  3901     058C  0020               	movlb	0	; select bank0
  3902     058D  00AA               	movwf	??_OLED_Printf_Line
  3903     058E  082A               	movf	??_OLED_Printf_Line,w
  3904     058F  0021               	movlb	1	; select bank1
  3905     0590  07CB               	addwf	OLED_Printf_Line@dst^(0+128),f
  3906     0591                     l2750:
  3907                           
  3908                           ;OLED_SSD1306.c: 484:                         *dst++ = 'l';
  3909     0591  084B               	movf	OLED_Printf_Line@dst^(0+128),w
  3910     0592  0086               	movwf	6
  3911     0593  0187               	clrf	7
  3912     0594  306C               	movlw	108
  3913     0595  0081               	movwf	1
  3914     0596  3001               	movlw	1
  3915     0597  0020               	movlb	0	; select bank0
  3916     0598  00AA               	movwf	??_OLED_Printf_Line
  3917     0599  082A               	movf	??_OLED_Printf_Line,w
  3918     059A  0021               	movlb	1	; select bank1
  3919     059B  07CB               	addwf	OLED_Printf_Line@dst^(0+128),f
  3920     059C                     l2752:
  3921                           
  3922                           ;OLED_SSD1306.c: 485:                         *dst++ = *src;
  3923     059C  084B               	movf	OLED_Printf_Line@dst^(0+128),w
  3924     059D  0086               	movwf	6
  3925     059E  0187               	clrf	7
  3926     059F  0849               	movf	OLED_Printf_Line@src^(0+128),w
  3927     05A0  0084               	movwf	4
  3928     05A1  084A               	movf	(OLED_Printf_Line@src+1)^(0+128),w
  3929     05A2  0085               	movwf	5
  3930     05A3  0800               	movf	0,w	;code access
  3931     05A4  0081               	movwf	1
  3932     05A5                     l2754:
  3933     05A5  3001               	movlw	1
  3934     05A6  0020               	movlb	0	; select bank0
  3935     05A7  00AA               	movwf	??_OLED_Printf_Line
  3936     05A8  082A               	movf	??_OLED_Printf_Line,w
  3937     05A9  0021               	movlb	1	; select bank1
  3938     05AA  07CB               	addwf	OLED_Printf_Line@dst^(0+128),f
  3939     05AB                     l2756:
  3940                           
  3941                           ;OLED_SSD1306.c: 487:                     src++;
  3942     05AB  3001               	movlw	1
  3943     05AC  07C9               	addwf	OLED_Printf_Line@src^(0+128),f
  3944     05AD  3000               	movlw	0
  3945     05AE  3DCA               	addwfc	(OLED_Printf_Line@src+1)^(0+128),f
  3946                           
  3947                           ;OLED_SSD1306.c: 488:                     break;
  3948     05AF  2EE9               	goto	l2844
  3949     05B0                     l2758:
  3950                           
  3951                           ;OLED_SSD1306.c: 491:                     uint16_t val = (*(unsigned int *)__va_arg(*(un
      +                          signed int **)ap, (unsigned int)0));
  3952     05B0  0848               	movf	OLED_Printf_Line@ap^(0+128),w
  3953     05B1  0086               	movwf	6
  3954     05B2  0187               	clrf	7
  3955     05B3  3F40               	moviw [0]fsr1
  3956     05B4  00B8               	movwf	OLED_Printf_Line@val_476^(0+128)
  3957     05B5  3F41               	moviw [1]fsr1
  3958     05B6  00B9               	movwf	(OLED_Printf_Line@val_476+1)^(0+128)
  3959     05B7                     l2760:
  3960     05B7  3002               	movlw	2
  3961     05B8  0020               	movlb	0	; select bank0
  3962     05B9  00AA               	movwf	??_OLED_Printf_Line
  3963     05BA  082A               	movf	??_OLED_Printf_Line,w
  3964     05BB  0021               	movlb	1	; select bank1
  3965     05BC  07C8               	addwf	OLED_Printf_Line@ap^(0+128),f
  3966     05BD                     l2762:
  3967                           
  3968                           ;OLED_SSD1306.c: 492:                     char temp[6];;OLED_SSD1306.c: 493:            
      +                                   uint8_t i = 0;
  3969     05BD  01BF               	clrf	OLED_Printf_Line@i_478^(0+128)
  3970     05BE                     l2764:
  3971                           
  3972                           ;OLED_SSD1306.c: 495:                         temp[i++] = '0' + (val % 10);
  3973     05BE  083F               	movf	OLED_Printf_Line@i_478^(0+128),w
  3974     05BF  3EA6               	addlw	(low (OLED_Printf_Line@temp_477| 0))& (0+255)
  3975     05C0  0086               	movwf	6
  3976     05C1  0187               	clrf	7
  3977     05C2  300A               	movlw	10
  3978     05C3  00F0               	movwf	___lwmod@divisor
  3979     05C4  3000               	movlw	0
  3980     05C5  00F1               	movwf	___lwmod@divisor+1
  3981     05C6  0839               	movf	(OLED_Printf_Line@val_476+1)^(0+128),w
  3982     05C7  00F3               	movwf	___lwmod@dividend+1
  3983     05C8  0838               	movf	OLED_Printf_Line@val_476^(0+128),w
  3984     05C9  00F2               	movwf	___lwmod@dividend
  3985     05CA  318E  26B8  3183   	fcall	___lwmod
  3986     05CD  0870               	movf	?___lwmod,w
  3987     05CE  3E30               	addlw	48
  3988     05CF  0081               	movwf	1
  3989     05D0                     l2766:
  3990     05D0  3001               	movlw	1
  3991     05D1  0020               	movlb	0	; select bank0
  3992     05D2  00AA               	movwf	??_OLED_Printf_Line
  3993     05D3  082A               	movf	??_OLED_Printf_Line,w
  3994     05D4  0021               	movlb	1	; select bank1
  3995     05D5  07BF               	addwf	OLED_Printf_Line@i_478^(0+128),f
  3996     05D6                     l2768:
  3997                           
  3998                           ;OLED_SSD1306.c: 496:                         val /= 10;
  3999     05D6  300A               	movlw	10
  4000     05D7  00F0               	movwf	___lwdiv@divisor
  4001     05D8  3000               	movlw	0
  4002     05D9  00F1               	movwf	___lwdiv@divisor+1
  4003     05DA  0839               	movf	(OLED_Printf_Line@val_476+1)^(0+128),w
  4004     05DB  00F3               	movwf	___lwdiv@dividend+1
  4005     05DC  0838               	movf	OLED_Printf_Line@val_476^(0+128),w
  4006     05DD  00F2               	movwf	___lwdiv@dividend
  4007     05DE  318E  26EC  3183   	fcall	___lwdiv
  4008     05E1  0871               	movf	?___lwdiv+1,w
  4009     05E2  0021               	movlb	1	; select bank1
  4010     05E3  00B9               	movwf	(OLED_Printf_Line@val_476+1)^(0+128)
  4011     05E4  0870               	movf	?___lwdiv,w
  4012     05E5  00B8               	movwf	OLED_Printf_Line@val_476^(0+128)
  4013     05E6                     l2770:
  4014                           
  4015                           ;OLED_SSD1306.c: 497:                     } while (val && i < 6);
  4016     05E6  0838               	movf	OLED_Printf_Line@val_476^(0+128),w
  4017     05E7  0439               	iorwf	(OLED_Printf_Line@val_476+1)^(0+128),w
  4018     05E8  1903               	btfsc	3,2
  4019     05E9  2DEB               	goto	u2841
  4020     05EA  2DEC               	goto	u2840
  4021     05EB                     u2841:
  4022     05EB  2E02               	goto	l2778
  4023     05EC                     u2840:
  4024     05EC                     l2772:
  4025     05EC  3006               	movlw	6
  4026     05ED  023F               	subwf	OLED_Printf_Line@i_478^(0+128),w
  4027     05EE  1C03               	skipc
  4028     05EF  2DF1               	goto	u2851
  4029     05F0  2DF2               	goto	u2850
  4030     05F1                     u2851:
  4031     05F1  2DBE               	goto	l2764
  4032     05F2                     u2850:
  4033     05F2  2E02               	goto	l2778
  4034     05F3                     l2774:
  4035     05F3  084B               	movf	OLED_Printf_Line@dst^(0+128),w
  4036     05F4  0086               	movwf	6
  4037     05F5  0187               	clrf	7
  4038     05F6  083F               	movf	OLED_Printf_Line@i_478^(0+128),w
  4039     05F7  3EA6               	addlw	(low (OLED_Printf_Line@temp_477| 0))& (0+255)
  4040     05F8  0084               	movwf	4
  4041     05F9  0185               	clrf	5
  4042     05FA  0800               	movf	0,w
  4043     05FB  0081               	movwf	1
  4044     05FC                     l2776:
  4045     05FC  3001               	movlw	1
  4046     05FD  0020               	movlb	0	; select bank0
  4047     05FE  00AA               	movwf	??_OLED_Printf_Line
  4048     05FF  082A               	movf	??_OLED_Printf_Line,w
  4049     0600  0021               	movlb	1	; select bank1
  4050     0601  07CB               	addwf	OLED_Printf_Line@dst^(0+128),f
  4051     0602                     l2778:
  4052     0602  3001               	movlw	1
  4053     0603  02BF               	subwf	OLED_Printf_Line@i_478^(0+128),f
  4054     0604  0A3F               	incf	OLED_Printf_Line@i_478^(0+128),w
  4055     0605  1D03               	btfss	3,2
  4056     0606  2E08               	goto	u2861
  4057     0607  2E09               	goto	u2860
  4058     0608                     u2861:
  4059     0608  2DF3               	goto	l2774
  4060     0609                     u2860:
  4061     0609  2EE9               	goto	l2844
  4062     060A                     l2780:
  4063                           
  4064                           ;OLED_SSD1306.c: 502:                     uint16_t val = (*(unsigned int *)__va_arg(*(un
      +                          signed int **)ap, (unsigned int)0));
  4065     060A  0848               	movf	OLED_Printf_Line@ap^(0+128),w
  4066     060B  0086               	movwf	6
  4067     060C  0187               	clrf	7
  4068     060D  3F40               	moviw [0]fsr1
  4069     060E  0020               	movlb	0	; select bank0
  4070     060F  00EE               	movwf	OLED_Printf_Line@val_479
  4071     0610  3F41               	moviw [1]fsr1
  4072     0611  00EF               	movwf	OLED_Printf_Line@val_479+1
  4073     0612                     l2782:
  4074     0612  3002               	movlw	2
  4075     0613  00AA               	movwf	??_OLED_Printf_Line
  4076     0614  082A               	movf	??_OLED_Printf_Line,w
  4077     0615  0021               	movlb	1	; select bank1
  4078     0616  07C8               	addwf	OLED_Printf_Line@ap^(0+128),f
  4079     0617                     l2784:
  4080                           
  4081                           ;OLED_SSD1306.c: 503:                     char temp[5];;OLED_SSD1306.c: 504:            
      +                                   uint8_t i = 0;
  4082     0617  01C0               	clrf	OLED_Printf_Line@i_481^(0+128)
  4083     0618                     l2786:
  4084                           
  4085                           ;OLED_SSD1306.c: 506:                         uint8_t nibble = val & 0xF;
  4086     0618  0020               	movlb	0	; select bank0
  4087     0619  086E               	movf	OLED_Printf_Line@val_479,w
  4088     061A  390F               	andlw	15
  4089     061B  0021               	movlb	1	; select bank1
  4090     061C  00BA               	movwf	OLED_Printf_Line@nibble^(0+128)
  4091     061D                     l2788:
  4092                           
  4093                           ;OLED_SSD1306.c: 507:                         temp[i++] = (nibble < 10) ? ('0' + nibble)
      +                           : ('A' + nibble - 10);
  4094     061D  300A               	movlw	10
  4095     061E  023A               	subwf	OLED_Printf_Line@nibble^(0+128),w
  4096     061F  1C03               	skipc
  4097     0620  2E22               	goto	u2871
  4098     0621  2E23               	goto	u2870
  4099     0622                     u2871:
  4100     0622  2E2C               	goto	l2792
  4101     0623                     u2870:
  4102     0623                     l2790:
  4103     0623  083A               	movf	OLED_Printf_Line@nibble^(0+128),w
  4104     0624  3E37               	addlw	55
  4105     0625  0020               	movlb	0	; select bank0
  4106     0626  00EC               	movwf	_OLED_Printf_Line$483
  4107     0627  3000               	movlw	0
  4108     0628  1803               	skipnc
  4109     0629  3001               	movlw	1
  4110     062A  00ED               	movwf	_OLED_Printf_Line$483+1
  4111     062B  2E34               	goto	l2794
  4112     062C                     l2792:
  4113     062C  083A               	movf	OLED_Printf_Line@nibble^(0+128),w
  4114     062D  3E30               	addlw	48
  4115     062E  0020               	movlb	0	; select bank0
  4116     062F  00EC               	movwf	_OLED_Printf_Line$483
  4117     0630  3000               	movlw	0
  4118     0631  1803               	skipnc
  4119     0632  3001               	movlw	1
  4120     0633  00ED               	movwf	_OLED_Printf_Line$483+1
  4121     0634                     l2794:
  4122     0634  0021               	movlb	1	; select bank1
  4123     0635  0840               	movf	OLED_Printf_Line@i_481^(0+128),w
  4124     0636  3EAC               	addlw	(low (OLED_Printf_Line@temp_480| 0))& (0+255)
  4125     0637  0086               	movwf	6
  4126     0638  0187               	clrf	7
  4127     0639  0020               	movlb	0	; select bank0
  4128     063A  086C               	movf	_OLED_Printf_Line$483,w
  4129     063B  0081               	movwf	1
  4130     063C                     l2796:
  4131     063C  3001               	movlw	1
  4132     063D  00AA               	movwf	??_OLED_Printf_Line
  4133     063E  082A               	movf	??_OLED_Printf_Line,w
  4134     063F  0021               	movlb	1	; select bank1
  4135     0640  07C0               	addwf	OLED_Printf_Line@i_481^(0+128),f
  4136     0641                     l2798:
  4137                           
  4138                           ;OLED_SSD1306.c: 508:                         val >>= 4;
  4139     0641  3004               	movlw	4
  4140     0642  0020               	movlb	0	; select bank0
  4141     0643                     u2885:
  4142     0643  36EF               	lsrf	OLED_Printf_Line@val_479+1,f
  4143     0644  0CEE               	rrf	OLED_Printf_Line@val_479,f
  4144     0645  0B89               	decfsz	9,f
  4145     0646  2E43               	goto	u2885
  4146     0647                     l2800:
  4147                           
  4148                           ;OLED_SSD1306.c: 509:                     } while (val && i < 5);
  4149     0647  086E               	movf	OLED_Printf_Line@val_479,w
  4150     0648  046F               	iorwf	OLED_Printf_Line@val_479+1,w
  4151     0649  1903               	btfsc	3,2
  4152     064A  2E4C               	goto	u2891
  4153     064B  2E4D               	goto	u2890
  4154     064C                     u2891:
  4155     064C  2E64               	goto	l2808
  4156     064D                     u2890:
  4157     064D                     l2802:
  4158     064D  3005               	movlw	5
  4159     064E  0021               	movlb	1	; select bank1
  4160     064F  0240               	subwf	OLED_Printf_Line@i_481^(0+128),w
  4161     0650  1C03               	skipc
  4162     0651  2E53               	goto	u2901
  4163     0652  2E54               	goto	u2900
  4164     0653                     u2901:
  4165     0653  2E18               	goto	l2786
  4166     0654                     u2900:
  4167     0654  2E64               	goto	l2808
  4168     0655                     l2804:
  4169     0655  084B               	movf	OLED_Printf_Line@dst^(0+128),w
  4170     0656  0086               	movwf	6
  4171     0657  0187               	clrf	7
  4172     0658  0840               	movf	OLED_Printf_Line@i_481^(0+128),w
  4173     0659  3EAC               	addlw	(low (OLED_Printf_Line@temp_480| 0))& (0+255)
  4174     065A  0084               	movwf	4
  4175     065B  0185               	clrf	5
  4176     065C  0800               	movf	0,w
  4177     065D  0081               	movwf	1
  4178     065E                     l2806:
  4179     065E  3001               	movlw	1
  4180     065F  0020               	movlb	0	; select bank0
  4181     0660  00AA               	movwf	??_OLED_Printf_Line
  4182     0661  082A               	movf	??_OLED_Printf_Line,w
  4183     0662  0021               	movlb	1	; select bank1
  4184     0663  07CB               	addwf	OLED_Printf_Line@dst^(0+128),f
  4185     0664                     l2808:
  4186     0664  3001               	movlw	1
  4187     0665  0021               	movlb	1	; select bank1
  4188     0666  02C0               	subwf	OLED_Printf_Line@i_481^(0+128),f
  4189     0667  0A40               	incf	OLED_Printf_Line@i_481^(0+128),w
  4190     0668  1D03               	btfss	3,2
  4191     0669  2E6B               	goto	u2911
  4192     066A  2E6C               	goto	u2910
  4193     066B                     u2911:
  4194     066B  2E55               	goto	l2804
  4195     066C                     u2910:
  4196     066C  2EE9               	goto	l2844
  4197     066D                     l2810:
  4198                           
  4199                           ;OLED_SSD1306.c: 514:                     const char *str = (*(const char* *)__va_arg(*(
      +                          const char* **)ap, (const char*)0));
  4200     066D  0848               	movf	OLED_Printf_Line@ap^(0+128),w
  4201     066E  0086               	movwf	6
  4202     066F  0187               	clrf	7
  4203     0670  0801               	movf	1,w
  4204     0671  00B1               	movwf	OLED_Printf_Line@str^(0+128)
  4205     0672                     l2812:
  4206     0672  3001               	movlw	1
  4207     0673  0020               	movlb	0	; select bank0
  4208     0674  00AA               	movwf	??_OLED_Printf_Line
  4209     0675  082A               	movf	??_OLED_Printf_Line,w
  4210     0676  0021               	movlb	1	; select bank1
  4211     0677  07C8               	addwf	OLED_Printf_Line@ap^(0+128),f
  4212                           
  4213                           ;OLED_SSD1306.c: 515:                     while (*str && (dst - buf) < 31) {
  4214     0678  2E8D               	goto	l2820
  4215     0679                     l2814:
  4216                           
  4217                           ;OLED_SSD1306.c: 516:                         *dst++ = *str++;
  4218     0679  084B               	movf	OLED_Printf_Line@dst^(0+128),w
  4219     067A  0086               	movwf	6
  4220     067B  0187               	clrf	7
  4221     067C  0831               	movf	OLED_Printf_Line@str^(0+128),w
  4222     067D  0084               	movwf	4
  4223     067E  0185               	clrf	5
  4224     067F  0800               	movf	0,w
  4225     0680  0081               	movwf	1
  4226     0681                     l2816:
  4227     0681  3001               	movlw	1
  4228     0682  0020               	movlb	0	; select bank0
  4229     0683  00AA               	movwf	??_OLED_Printf_Line
  4230     0684  082A               	movf	??_OLED_Printf_Line,w
  4231     0685  0021               	movlb	1	; select bank1
  4232     0686  07B1               	addwf	OLED_Printf_Line@str^(0+128),f
  4233     0687                     l2818:
  4234     0687  3001               	movlw	1
  4235     0688  0020               	movlb	0	; select bank0
  4236     0689  00AA               	movwf	??_OLED_Printf_Line
  4237     068A  082A               	movf	??_OLED_Printf_Line,w
  4238     068B  0021               	movlb	1	; select bank1
  4239     068C  07CB               	addwf	OLED_Printf_Line@dst^(0+128),f
  4240     068D                     l2820:
  4241                           
  4242                           ;OLED_SSD1306.c: 515:                     while (*str && (dst - buf) < 31) {
  4243     068D  0831               	movf	OLED_Printf_Line@str^(0+128),w
  4244     068E  0086               	movwf	6
  4245     068F  0187               	clrf	7
  4246     0690  0801               	movf	1,w
  4247     0691  1903               	btfsc	3,2
  4248     0692  2E94               	goto	u2921
  4249     0693  2E95               	goto	u2920
  4250     0694                     u2921:
  4251     0694  2EE9               	goto	l2844
  4252     0695                     u2920:
  4253     0695                     l2822:
  4254     0695  304C               	movlw	(low OLED_Printf_Line@buf)& (0+255)
  4255     0696  024B               	subwf	OLED_Printf_Line@dst^(0+128),w
  4256     0697  3A80               	xorlw	128
  4257     0698  3E61               	addlw	-159
  4258     0699  1C03               	skipc
  4259     069A  2E9C               	goto	u2931
  4260     069B  2E9D               	goto	u2930
  4261     069C                     u2931:
  4262     069C  2E79               	goto	l2814
  4263     069D                     u2930:
  4264     069D  2EE9               	goto	l2844
  4265     069E                     l2824:
  4266                           
  4267                           ;OLED_SSD1306.c: 521:                     *dst++ = (char)(*(int *)__va_arg(*(int **)ap, 
      +                          (int)0));
  4268     069E  084B               	movf	OLED_Printf_Line@dst^(0+128),w
  4269     069F  0086               	movwf	6
  4270     06A0  0187               	clrf	7
  4271     06A1  0848               	movf	OLED_Printf_Line@ap^(0+128),w
  4272     06A2  0084               	movwf	4
  4273     06A3  0185               	clrf	5
  4274     06A4  0800               	movf	0,w
  4275     06A5  0081               	movwf	1
  4276     06A6                     l2826:
  4277     06A6  3002               	movlw	2
  4278     06A7  0020               	movlb	0	; select bank0
  4279     06A8  00AA               	movwf	??_OLED_Printf_Line
  4280     06A9  082A               	movf	??_OLED_Printf_Line,w
  4281     06AA  0021               	movlb	1	; select bank1
  4282     06AB  07C8               	addwf	OLED_Printf_Line@ap^(0+128),f
  4283     06AC                     l2828:
  4284     06AC  3001               	movlw	1
  4285     06AD  0020               	movlb	0	; select bank0
  4286     06AE  00AA               	movwf	??_OLED_Printf_Line
  4287     06AF  082A               	movf	??_OLED_Printf_Line,w
  4288     06B0  0021               	movlb	1	; select bank1
  4289     06B1  07CB               	addwf	OLED_Printf_Line@dst^(0+128),f
  4290                           
  4291                           ;OLED_SSD1306.c: 522:                     break;
  4292     06B2  2EE9               	goto	l2844
  4293     06B3                     l2830:
  4294                           
  4295                           ;OLED_SSD1306.c: 525:                     *dst++ = '%';
  4296     06B3  084B               	movf	OLED_Printf_Line@dst^(0+128),w
  4297     06B4  0086               	movwf	6
  4298     06B5  0187               	clrf	7
  4299     06B6  3025               	movlw	37
  4300     06B7  0081               	movwf	1
  4301     06B8  2EAC               	goto	l2828
  4302     06B9                     l2834:
  4303                           
  4304                           ;OLED_SSD1306.c: 529:                     *dst++ = '%';
  4305     06B9  084B               	movf	OLED_Printf_Line@dst^(0+128),w
  4306     06BA  0086               	movwf	6
  4307     06BB  0187               	clrf	7
  4308     06BC  3025               	movlw	37
  4309     06BD  0081               	movwf	1
  4310     06BE                     l2836:
  4311     06BE  3001               	movlw	1
  4312     06BF  0020               	movlb	0	; select bank0
  4313     06C0  00AA               	movwf	??_OLED_Printf_Line
  4314     06C1  082A               	movf	??_OLED_Printf_Line,w
  4315     06C2  0021               	movlb	1	; select bank1
  4316     06C3  07CB               	addwf	OLED_Printf_Line@dst^(0+128),f
  4317     06C4                     l2838:
  4318                           
  4319                           ;OLED_SSD1306.c: 530:                     *dst++ = *src;
  4320     06C4  084B               	movf	OLED_Printf_Line@dst^(0+128),w
  4321     06C5  0086               	movwf	6
  4322     06C6  0187               	clrf	7
  4323     06C7  0849               	movf	OLED_Printf_Line@src^(0+128),w
  4324     06C8  0084               	movwf	4
  4325     06C9  084A               	movf	(OLED_Printf_Line@src+1)^(0+128),w
  4326     06CA  0085               	movwf	5
  4327     06CB  0800               	movf	0,w	;code access
  4328     06CC  0081               	movwf	1
  4329     06CD  2EAC               	goto	l2828
  4330     06CE                     l2842:
  4331     06CE  0849               	movf	OLED_Printf_Line@src^(0+128),w
  4332     06CF  0084               	movwf	4
  4333     06D0  084A               	movf	(OLED_Printf_Line@src+1)^(0+128),w
  4334     06D1  0085               	movwf	5
  4335     06D2  0800               	movf	0,w	;code access
  4336                           
  4337                           ; Switch size 1, requested type "simple"
  4338                           ; Number of cases is 7, Range of values is 37 to 120
  4339                           ; switch strategies available:
  4340                           ; Name         Instructions Cycles
  4341                           ; simple_byte           22    12 (average)
  4342                           ; direct_byte          177     9 (fixed)
  4343                           ; jumptable            263     9 (fixed)
  4344                           ;	Chosen strategy is simple_byte
  4345     06D3  3A25               	xorlw	37	; case 37
  4346     06D4  1903               	skipnz
  4347     06D5  2EB3               	goto	l2830
  4348     06D6  3A46               	xorlw	70	; case 99
  4349     06D7  1903               	skipnz
  4350     06D8  2E9E               	goto	l2824
  4351     06D9  3A07               	xorlw	7	; case 100
  4352     06DA  1903               	skipnz
  4353     06DB  2BFE               	goto	l2658
  4354     06DC  3A08               	xorlw	8	; case 108
  4355     06DD  1903               	skipnz
  4356     06DE  2C6C               	goto	l2688
  4357     06DF  3A1F               	xorlw	31	; case 115
  4358     06E0  1903               	skipnz
  4359     06E1  2E6D               	goto	l2810
  4360     06E2  3A06               	xorlw	6	; case 117
  4361     06E3  1903               	skipnz
  4362     06E4  2DB0               	goto	l2758
  4363     06E5  3A0D               	xorlw	13	; case 120
  4364     06E6  1903               	skipnz
  4365     06E7  2E0A               	goto	l2780
  4366     06E8  2EB9               	goto	l2834
  4367     06E9                     l2844:
  4368                           
  4369                           ;OLED_SSD1306.c: 532:             src++;
  4370     06E9  3001               	movlw	1
  4371     06EA  07C9               	addwf	OLED_Printf_Line@src^(0+128),f
  4372     06EB  3000               	movlw	0
  4373     06EC  3DCA               	addwfc	(OLED_Printf_Line@src+1)^(0+128),f
  4374                           
  4375                           ;OLED_SSD1306.c: 533:         } else {
  4376     06ED  2F01               	goto	l2852
  4377     06EE                     l2846:
  4378                           
  4379                           ;OLED_SSD1306.c: 534:             *dst++ = *src++;
  4380     06EE  084B               	movf	OLED_Printf_Line@dst^(0+128),w
  4381     06EF  0086               	movwf	6
  4382     06F0  0187               	clrf	7
  4383     06F1  0849               	movf	OLED_Printf_Line@src^(0+128),w
  4384     06F2  0084               	movwf	4
  4385     06F3  084A               	movf	(OLED_Printf_Line@src+1)^(0+128),w
  4386     06F4  0085               	movwf	5
  4387     06F5  0800               	movf	0,w	;code access
  4388     06F6  0081               	movwf	1
  4389     06F7                     l2848:
  4390     06F7  3001               	movlw	1
  4391     06F8  07C9               	addwf	OLED_Printf_Line@src^(0+128),f
  4392     06F9  3000               	movlw	0
  4393     06FA  3DCA               	addwfc	(OLED_Printf_Line@src+1)^(0+128),f
  4394     06FB                     l2850:
  4395     06FB  3001               	movlw	1
  4396     06FC  0020               	movlb	0	; select bank0
  4397     06FD  00AA               	movwf	??_OLED_Printf_Line
  4398     06FE  082A               	movf	??_OLED_Printf_Line,w
  4399     06FF  0021               	movlb	1	; select bank1
  4400     0700  07CB               	addwf	OLED_Printf_Line@dst^(0+128),f
  4401     0701                     l2852:
  4402                           
  4403                           ;OLED_SSD1306.c: 437:     while (*src && (dst - buf) < 31) {
  4404     0701  0849               	movf	OLED_Printf_Line@src^(0+128),w
  4405     0702  0084               	movwf	4
  4406     0703  084A               	movf	(OLED_Printf_Line@src+1)^(0+128),w
  4407     0704  0085               	movwf	5
  4408     0705  0012               	moviw fsr0++
  4409     0706  1903               	btfsc	3,2
  4410     0707  2F09               	goto	u2941
  4411     0708  2F0A               	goto	u2940
  4412     0709                     u2941:
  4413     0709  2F12               	goto	l2856
  4414     070A                     u2940:
  4415     070A                     l2854:
  4416     070A  304C               	movlw	(low OLED_Printf_Line@buf)& (0+255)
  4417     070B  024B               	subwf	OLED_Printf_Line@dst^(0+128),w
  4418     070C  3A80               	xorlw	128
  4419     070D  3E61               	addlw	-159
  4420     070E  1C03               	skipc
  4421     070F  2F11               	goto	u2951
  4422     0710  2F12               	goto	u2950
  4423     0711                     u2951:
  4424     0711  2BEF               	goto	l2654
  4425     0712                     u2950:
  4426     0712                     l2856:
  4427                           
  4428                           ;OLED_SSD1306.c: 537:     *dst = '\0';
  4429     0712  084B               	movf	OLED_Printf_Line@dst^(0+128),w
  4430     0713  0086               	movwf	6
  4431     0714  0187               	clrf	7
  4432     0715  0181               	clrf	1
  4433     0716                     l2858:
  4434                           
  4435                           ;OLED_SSD1306.c: 541:     if (strcmp(buf, last_text[line]) == 0) return;
  4436     0716  0847               	movf	OLED_Printf_Line@line^(0+128),w
  4437     0717  0020               	movlb	0	; select bank0
  4438     0718  00AA               	movwf	??_OLED_Printf_Line
  4439     0719  01AB               	clrf	??_OLED_Printf_Line+1
  4440     071A  3005               	movlw	5
  4441     071B                     u2965:
  4442     071B  35AA               	lslf	??_OLED_Printf_Line,f
  4443     071C  0DAB               	rlf	??_OLED_Printf_Line+1,f
  4444     071D  0B89               	decfsz	9,f
  4445     071E  2F1B               	goto	u2965
  4446     071F  30F0               	movlw	240
  4447     0720  00AC               	movwf	??_OLED_Printf_Line+2
  4448     0721  3026               	movlw	38
  4449     0722  00AD               	movwf	??_OLED_Printf_Line+3
  4450     0723  082A               	movf	??_OLED_Printf_Line,w
  4451     0724  072C               	addwf	??_OLED_Printf_Line+2,w
  4452     0725  00AE               	movwf	??_OLED_Printf_Line+4
  4453     0726  082B               	movf	??_OLED_Printf_Line+1,w
  4454     0727  3D2D               	addwfc	??_OLED_Printf_Line+3,w
  4455     0728  00AF               	movwf	??_OLED_Printf_Line+5
  4456     0729  082E               	movf	??_OLED_Printf_Line+4,w
  4457     072A  00F0               	movwf	strcmp@r
  4458     072B  082F               	movf	??_OLED_Printf_Line+5,w
  4459     072C  00F1               	movwf	strcmp@r+1
  4460     072D  304C               	movlw	(low (OLED_Printf_Line@buf| 0))& (0+255)
  4461     072E  318E  262B  3183   	fcall	_strcmp
  4462     0731  0870               	movf	?_strcmp,w
  4463     0732  0471               	iorwf	?_strcmp+1,w
  4464     0733  1D03               	btfss	3,2
  4465     0734  2F36               	goto	u2971
  4466     0735  2F37               	goto	u2970
  4467     0736                     u2971:
  4468     0736  2F38               	goto	l2862
  4469     0737                     u2970:
  4470     0737  2FF1               	goto	l214
  4471     0738                     l2862:
  4472                           
  4473                           ;OLED_SSD1306.c: 542:     strcpy(last_text[line], buf);
  4474     0738  0021               	movlb	1	; select bank1
  4475     0739  0847               	movf	OLED_Printf_Line@line^(0+128),w
  4476     073A  0020               	movlb	0	; select bank0
  4477     073B  00AA               	movwf	??_OLED_Printf_Line
  4478     073C  01AB               	clrf	??_OLED_Printf_Line+1
  4479     073D  3005               	movlw	5
  4480     073E                     u2985:
  4481     073E  35AA               	lslf	??_OLED_Printf_Line,f
  4482     073F  0DAB               	rlf	??_OLED_Printf_Line+1,f
  4483     0740  0B89               	decfsz	9,f
  4484     0741  2F3E               	goto	u2985
  4485     0742  30F0               	movlw	240
  4486     0743  00AC               	movwf	??_OLED_Printf_Line+2
  4487     0744  3026               	movlw	38
  4488     0745  00AD               	movwf	??_OLED_Printf_Line+3
  4489     0746  082A               	movf	??_OLED_Printf_Line,w
  4490     0747  072C               	addwf	??_OLED_Printf_Line+2,w
  4491     0748  00F0               	movwf	strcpy@dest
  4492     0749  082B               	movf	??_OLED_Printf_Line+1,w
  4493     074A  3D2D               	addwfc	??_OLED_Printf_Line+3,w
  4494     074B  00F1               	movwf	strcpy@dest+1
  4495     074C  304C               	movlw	(low (OLED_Printf_Line@buf| 0))& (0+255)
  4496     074D  00F2               	movwf	strcpy@src
  4497     074E  318C  24F2  3183   	fcall	_strcpy
  4498     0751                     l2864:
  4499                           
  4500                           ;OLED_SSD1306.c: 545:     memset(screen_buffer[line], 0, 128);
  4501     0751  0021               	movlb	1	; select bank1
  4502     0752  0847               	movf	OLED_Printf_Line@line^(0+128),w
  4503     0753  0020               	movlb	0	; select bank0
  4504     0754  00AA               	movwf	??_OLED_Printf_Line
  4505     0755  01AB               	clrf	??_OLED_Printf_Line+1
  4506     0756  3007               	movlw	7
  4507     0757                     u2995:
  4508     0757  35AA               	lslf	??_OLED_Printf_Line,f
  4509     0758  0DAB               	rlf	??_OLED_Printf_Line+1,f
  4510     0759  0B89               	decfsz	9,f
  4511     075A  2F57               	goto	u2995
  4512     075B  30F0               	movlw	240
  4513     075C  00AC               	movwf	??_OLED_Printf_Line+2
  4514     075D  3024               	movlw	36
  4515     075E  00AD               	movwf	??_OLED_Printf_Line+3
  4516     075F  082A               	movf	??_OLED_Printf_Line,w
  4517     0760  072C               	addwf	??_OLED_Printf_Line+2,w
  4518     0761  00F0               	movwf	memset@dest
  4519     0762  082B               	movf	??_OLED_Printf_Line+1,w
  4520     0763  3D2D               	addwfc	??_OLED_Printf_Line+3,w
  4521     0764  00F1               	movwf	memset@dest+1
  4522     0765  3000               	movlw	0
  4523     0766  00F2               	movwf	memset@c
  4524     0767  00F3               	movwf	memset@c+1
  4525     0768  3080               	movlw	128
  4526     0769  00F4               	movwf	memset@n
  4527     076A  3000               	movlw	0
  4528     076B  00F5               	movwf	memset@n+1
  4529     076C  318D  250D  3183   	fcall	_memset
  4530     076F                     l2866:
  4531                           
  4532                           ;OLED_SSD1306.c: 548:     uint8_t col = 0;
  4533     076F  0021               	movlb	1	; select bank1
  4534     0770  01B2               	clrf	OLED_Printf_Line@col^(0+128)
  4535     0771                     l2868:
  4536                           
  4537                           ;OLED_SSD1306.c: 549:     for (const char* p = buf; *p && (col + 8) <= 128; ++p)
  4538     0771  304C               	movlw	(low (OLED_Printf_Line@buf| 0))& (0+255)
  4539     0772  00B3               	movwf	OLED_Printf_Line@p^(0+128)
  4540     0773  2FCF               	goto	l2884
  4541     0774                     l2870:
  4542                           
  4543                           ;OLED_SSD1306.c: 550:     {;OLED_SSD1306.c: 551:         char ch = *p;
  4544     0774  0021               	movlb	1	; select bank1
  4545     0775  0833               	movf	OLED_Printf_Line@p^(0+128),w
  4546     0776  0086               	movwf	6
  4547     0777  0187               	clrf	7
  4548     0778  0801               	movf	1,w
  4549     0779  00BB               	movwf	OLED_Printf_Line@ch^(0+128)
  4550     077A                     l2872:
  4551                           
  4552                           ;OLED_SSD1306.c: 552:         if (ch < 32 || ch > 127) ch = ' ';
  4553     077A  3020               	movlw	32
  4554     077B  023B               	subwf	OLED_Printf_Line@ch^(0+128),w
  4555     077C  1C03               	skipc
  4556     077D  2F7F               	goto	u3001
  4557     077E  2F80               	goto	u3000
  4558     077F                     u3001:
  4559     077F  2F86               	goto	l2876
  4560     0780                     u3000:
  4561     0780                     l2874:
  4562     0780  3080               	movlw	128
  4563     0781  023B               	subwf	OLED_Printf_Line@ch^(0+128),w
  4564     0782  1C03               	skipc
  4565     0783  2F85               	goto	u3011
  4566     0784  2F86               	goto	u3010
  4567     0785                     u3011:
  4568     0785  2F88               	goto	l2878
  4569     0786                     u3010:
  4570     0786                     l2876:
  4571     0786  3020               	movlw	32
  4572     0787  00BB               	movwf	OLED_Printf_Line@ch^(0+128)
  4573     0788                     l2878:
  4574                           
  4575                           ;OLED_SSD1306.c: 554:         memcpy(&screen_buffer[line][col], &OledFont[(uint8_t)(ch -
      +                           32)][0], 8);
  4576     0788  0832               	movf	OLED_Printf_Line@col^(0+128),w
  4577     0789  0020               	movlb	0	; select bank0
  4578     078A  00AA               	movwf	??_OLED_Printf_Line
  4579     078B  01AB               	clrf	??_OLED_Printf_Line+1
  4580     078C  0021               	movlb	1	; select bank1
  4581     078D  0847               	movf	OLED_Printf_Line@line^(0+128),w
  4582     078E  0020               	movlb	0	; select bank0
  4583     078F  00AC               	movwf	??_OLED_Printf_Line+2
  4584     0790  01AD               	clrf	??_OLED_Printf_Line+3
  4585     0791  3007               	movlw	7
  4586     0792                     u3025:
  4587     0792  35AC               	lslf	??_OLED_Printf_Line+2,f
  4588     0793  0DAD               	rlf	??_OLED_Printf_Line+3,f
  4589     0794  0B89               	decfsz	9,f
  4590     0795  2F92               	goto	u3025
  4591     0796  30F0               	movlw	240
  4592     0797  00AE               	movwf	??_OLED_Printf_Line+4
  4593     0798  3024               	movlw	36
  4594     0799  00AF               	movwf	??_OLED_Printf_Line+5
  4595     079A  082C               	movf	??_OLED_Printf_Line+2,w
  4596     079B  072E               	addwf	??_OLED_Printf_Line+4,w
  4597     079C  00B0               	movwf	??_OLED_Printf_Line+6
  4598     079D  082D               	movf	??_OLED_Printf_Line+3,w
  4599     079E  3D2F               	addwfc	??_OLED_Printf_Line+5,w
  4600     079F  00B1               	movwf	??_OLED_Printf_Line+7
  4601     07A0  082A               	movf	??_OLED_Printf_Line,w
  4602     07A1  0730               	addwf	??_OLED_Printf_Line+6,w
  4603     07A2  00F0               	movwf	memcpy@d1
  4604     07A3  082B               	movf	??_OLED_Printf_Line+1,w
  4605     07A4  3D31               	addwfc	??_OLED_Printf_Line+7,w
  4606     07A5  00F1               	movwf	memcpy@d1+1
  4607     07A6  0021               	movlb	1	; select bank1
  4608     07A7  083B               	movf	OLED_Printf_Line@ch^(0+128),w
  4609     07A8  3EE0               	addlw	224
  4610     07A9  0020               	movlb	0	; select bank0
  4611     07AA  00B2               	movwf	??_OLED_Printf_Line+8
  4612     07AB  01B3               	clrf	??_OLED_Printf_Line+9
  4613     07AC  35B2               	lslf	??_OLED_Printf_Line+8,f
  4614     07AD  0DB3               	rlf	??_OLED_Printf_Line+9,f
  4615     07AE  35B2               	lslf	??_OLED_Printf_Line+8,f
  4616     07AF  0DB3               	rlf	??_OLED_Printf_Line+9,f
  4617     07B0  35B2               	lslf	??_OLED_Printf_Line+8,f
  4618     07B1  0DB3               	rlf	??_OLED_Printf_Line+9,f
  4619     07B2  3000               	movlw	low (_OledFont| (0+32768))
  4620     07B3  00B4               	movwf	??_OLED_Printf_Line+10
  4621     07B4  3088               	movlw	high (_OledFont| (0+32768))
  4622     07B5  00B5               	movwf	??_OLED_Printf_Line+11
  4623     07B6  0832               	movf	??_OLED_Printf_Line+8,w
  4624     07B7  0734               	addwf	??_OLED_Printf_Line+10,w
  4625     07B8  00F2               	movwf	memcpy@s1
  4626     07B9  0833               	movf	??_OLED_Printf_Line+9,w
  4627     07BA  3D35               	addwfc	??_OLED_Printf_Line+11,w
  4628     07BB  00F3               	movwf	memcpy@s1+1
  4629     07BC  3008               	movlw	8
  4630     07BD  00F4               	movwf	memcpy@n
  4631     07BE  3000               	movlw	0
  4632     07BF  00F5               	movwf	memcpy@n+1
  4633     07C0  318D  25D5  3183   	fcall	_memcpy
  4634     07C3                     l2880:
  4635                           
  4636                           ;OLED_SSD1306.c: 555:         col += 8;
  4637     07C3  3008               	movlw	8
  4638     07C4  0020               	movlb	0	; select bank0
  4639     07C5  00AA               	movwf	??_OLED_Printf_Line
  4640     07C6  082A               	movf	??_OLED_Printf_Line,w
  4641     07C7  0021               	movlb	1	; select bank1
  4642     07C8  07B2               	addwf	OLED_Printf_Line@col^(0+128),f
  4643     07C9                     l2882:
  4644                           
  4645                           ;OLED_SSD1306.c: 556:     }
  4646     07C9  3001               	movlw	1
  4647     07CA  0020               	movlb	0	; select bank0
  4648     07CB  00AA               	movwf	??_OLED_Printf_Line
  4649     07CC  082A               	movf	??_OLED_Printf_Line,w
  4650     07CD  0021               	movlb	1	; select bank1
  4651     07CE  07B3               	addwf	OLED_Printf_Line@p^(0+128),f
  4652     07CF                     l2884:
  4653     07CF  0833               	movf	OLED_Printf_Line@p^(0+128),w
  4654     07D0  0086               	movwf	6
  4655     07D1  0187               	clrf	7
  4656     07D2  0801               	movf	1,w
  4657     07D3  1903               	btfsc	3,2
  4658     07D4  2FD6               	goto	u3031
  4659     07D5  2FD7               	goto	u3030
  4660     07D6                     u3031:
  4661     07D6  2FEC               	goto	l2888
  4662     07D7                     u3030:
  4663     07D7                     l2886:
  4664     07D7  0832               	movf	OLED_Printf_Line@col^(0+128),w
  4665     07D8  3E08               	addlw	8
  4666     07D9  0020               	movlb	0	; select bank0
  4667     07DA  00AA               	movwf	??_OLED_Printf_Line
  4668     07DB  3000               	movlw	0
  4669     07DC  1803               	skipnc
  4670     07DD  3001               	movlw	1
  4671     07DE  00AB               	movwf	??_OLED_Printf_Line+1
  4672     07DF  082B               	movf	??_OLED_Printf_Line+1,w
  4673     07E0  3A80               	xorlw	128
  4674     07E1  00AC               	movwf	??_OLED_Printf_Line+2
  4675     07E2  3080               	movlw	128
  4676     07E3  022C               	subwf	??_OLED_Printf_Line+2,w
  4677     07E4  1D03               	skipz
  4678     07E5  2FE8               	goto	u3045
  4679     07E6  3081               	movlw	129
  4680     07E7  022A               	subwf	??_OLED_Printf_Line,w
  4681     07E8                     u3045:
  4682     07E8  1C03               	skipc
  4683     07E9  2FEB               	goto	u3041
  4684     07EA  2FEC               	goto	u3040
  4685     07EB                     u3041:
  4686     07EB  2F74               	goto	l2870
  4687     07EC                     u3040:
  4688     07EC                     l2888:
  4689                           
  4690                           ;OLED_SSD1306.c: 558:     OLED_UpdateLine(line);
  4691     07EC  0021               	movlb	1	; select bank1
  4692     07ED  0847               	movf	OLED_Printf_Line@line^(0+128),w
  4693     07EE  318D  25FF  3183   	fcall	_OLED_UpdateLine
  4694     07F1                     l214:
  4695     07F1  0008               	return
  4696     07F2                     __end_of_OLED_Printf_Line:
  4697                           
  4698                           	psect	text5
  4699     0CF2                     __ptext5:	
  4700 ;; *************** function _strcpy *****************
  4701 ;; Defined at:
  4702 ;;		line 3 in file "C:\Program Files\Microchip\xc8\v2.46\pic\sources\c99\common\strcpy.c"
  4703 ;; Parameters:    Size  Location     Type
  4704 ;;  dest            2    0[COMMON] PTR unsigned char 
  4705 ;;		 -> OLED_Printf_Line@last_text(256), 
  4706 ;;  src             1    2[COMMON] PTR const unsigned char 
  4707 ;;		 -> OLED_Printf_Line@buf(32), 
  4708 ;; Auto vars:     Size  Location     Type
  4709 ;;  d               2    5[COMMON] PTR unsigned char 
  4710 ;;		 -> OLED_Printf_Line@last_text(256), 
  4711 ;; Return value:  Size  Location     Type
  4712 ;;                  2    0[COMMON] PTR unsigned char 
  4713 ;; Registers used:
  4714 ;;		wreg, fsr0l, fsr0h, fsr1l, fsr1h, status,2, status,0
  4715 ;; Tracked objects:
  4716 ;;		On entry : 0/0
  4717 ;;		On exit  : 0/0
  4718 ;;		Unchanged: 0/0
  4719 ;; Data sizes:     COMMON   BANK0   BANK1   BANK2   BANK3   BANK4   BANK5   BANK6   BANK7   BANK8   BANK9  BANK10  BANK1
      +1  BANK12  BANK13  BANK14  BANK15  BANK16  BANK17  BANK18  BANK19  BANK20  BANK21  BANK22  BANK23  BANK24  BANK25
  4720 ;;      Params:         3       0       0       0       0       0       0       0       0       0       0       0       
      +0       0       0       0       0       0       0       0       0       0       0       0       0       0       0
  4721 ;;      Locals:         2       0       0       0       0       0       0       0       0       0       0       0       
      +0       0       0       0       0       0       0       0       0       0       0       0       0       0       0
  4722 ;;      Temps:          2       0       0       0       0       0       0       0       0       0       0       0       
      +0       0       0       0       0       0       0       0       0       0       0       0       0       0       0
  4723 ;;      Totals:         7       0       0       0       0       0       0       0       0       0       0       0       
      +0       0       0       0       0       0       0       0       0       0       0       0       0       0       0
  4724 ;;Total ram usage:        7 bytes
  4725 ;; Hardware stack levels used: 1
  4726 ;; This function calls:
  4727 ;;		Nothing
  4728 ;; This function is called by:
  4729 ;;		_OLED_Printf_Line
  4730 ;; This function uses a non-reentrant model
  4731 ;;
  4732                           
  4733     0CF2                     _strcpy:	
  4734                           ;psect for function _strcpy
  4735                           
  4736     0CF2                     l2210:	
  4737                           ;incstack = 0
  4738                           ; Regs used in _strcpy: [wreg-fsr1h+status,2+status,0]
  4739                           
  4740     0CF2  0871               	movf	strcpy@dest+1,w
  4741     0CF3  00F6               	movwf	strcpy@d+1
  4742     0CF4  0870               	movf	strcpy@dest,w
  4743     0CF5  00F5               	movwf	strcpy@d
  4744     0CF6                     l2212:
  4745     0CF6  0876               	movf	strcpy@d+1,w
  4746     0CF7  00F4               	movwf	??_strcpy+1
  4747     0CF8  0875               	movf	strcpy@d,w
  4748     0CF9  00F3               	movwf	??_strcpy
  4749     0CFA  0AF5               	incf	strcpy@d,f
  4750     0CFB  1903               	skipnz
  4751     0CFC  0AF6               	incf	strcpy@d+1,f
  4752     0CFD  0873               	movf	??_strcpy,w
  4753     0CFE  0086               	movwf	6
  4754     0CFF  0874               	movf	??_strcpy+1,w
  4755     0D00  0087               	movwf	7
  4756     0D01  0872               	movf	strcpy@src,w
  4757     0D02  0084               	movwf	4
  4758     0D03  0185               	clrf	5
  4759     0D04  0AF2               	incf	strcpy@src,f
  4760     0D05  0800               	movf	0,w
  4761     0D06  3FC0               	movwi [0]fsr1
  4762     0D07  0889               	movf	9,f
  4763     0D08  1D03               	btfss	3,2
  4764     0D09  2D0B               	goto	u1971
  4765     0D0A  2D0C               	goto	u1970
  4766     0D0B                     u1971:
  4767     0D0B  2CF6               	goto	l2212
  4768     0D0C                     u1970:
  4769     0D0C                     l924:
  4770     0D0C  0008               	return
  4771     0D0D                     __end_of_strcpy:
  4772                           
  4773                           	psect	text6
  4774     0E2B                     __ptext6:	
  4775 ;; *************** function _strcmp *****************
  4776 ;; Defined at:
  4777 ;;		line 3 in file "C:\Program Files\Microchip\xc8\v2.46\pic\sources\c99\common\strcmp.c"
  4778 ;; Parameters:    Size  Location     Type
  4779 ;;  l               1    wreg     PTR const unsigned char 
  4780 ;;		 -> OLED_Printf_Line@buf(32), 
  4781 ;;  r               2    0[COMMON] PTR const unsigned char 
  4782 ;;		 -> OLED_Printf_Line@last_text(256), 
  4783 ;; Auto vars:     Size  Location     Type
  4784 ;;  l               1    3[COMMON] PTR const unsigned char 
  4785 ;;		 -> OLED_Printf_Line@buf(32), 
  4786 ;; Return value:  Size  Location     Type
  4787 ;;                  2    0[COMMON] int 
  4788 ;; Registers used:
  4789 ;;		wreg, fsr0l, fsr0h, fsr1l, fsr1h, status,2, status,0
  4790 ;; Tracked objects:
  4791 ;;		On entry : 0/0
  4792 ;;		On exit  : 0/0
  4793 ;;		Unchanged: 0/0
  4794 ;; Data sizes:     COMMON   BANK0   BANK1   BANK2   BANK3   BANK4   BANK5   BANK6   BANK7   BANK8   BANK9  BANK10  BANK1
      +1  BANK12  BANK13  BANK14  BANK15  BANK16  BANK17  BANK18  BANK19  BANK20  BANK21  BANK22  BANK23  BANK24  BANK25
  4795 ;;      Params:         2       0       0       0       0       0       0       0       0       0       0       0       
      +0       0       0       0       0       0       0       0       0       0       0       0       0       0       0
  4796 ;;      Locals:         1       0       0       0       0       0       0       0       0       0       0       0       
      +0       0       0       0       0       0       0       0       0       0       0       0       0       0       0
  4797 ;;      Temps:          1       0       0       0       0       0       0       0       0       0       0       0       
      +0       0       0       0       0       0       0       0       0       0       0       0       0       0       0
  4798 ;;      Totals:         4       0       0       0       0       0       0       0       0       0       0       0       
      +0       0       0       0       0       0       0       0       0       0       0       0       0       0       0
  4799 ;;Total ram usage:        4 bytes
  4800 ;; Hardware stack levels used: 1
  4801 ;; This function calls:
  4802 ;;		Nothing
  4803 ;; This function is called by:
  4804 ;;		_OLED_Printf_Line
  4805 ;; This function uses a non-reentrant model
  4806 ;;
  4807                           
  4808     0E2B                     _strcmp:	
  4809                           ;psect for function _strcmp
  4810                           
  4811                           
  4812                           ;incstack = 0
  4813                           ; Regs used in _strcmp: [wreg-fsr1h+status,2+status,0]
  4814                           ;strcmp@l stored from wreg
  4815     0E2B  00F3               	movwf	strcmp@l
  4816     0E2C                     l2198:
  4817     0E2C  2E35               	goto	l2202
  4818     0E2D                     l2200:
  4819     0E2D  3001               	movlw	1
  4820     0E2E  00F2               	movwf	??_strcmp
  4821     0E2F  0872               	movf	??_strcmp,w
  4822     0E30  07F3               	addwf	strcmp@l,f
  4823     0E31  3001               	movlw	1
  4824     0E32  07F0               	addwf	strcmp@r,f
  4825     0E33  3000               	movlw	0
  4826     0E34  3DF1               	addwfc	strcmp@r+1,f
  4827     0E35                     l2202:
  4828     0E35  0870               	movf	strcmp@r,w
  4829     0E36  0086               	movwf	6
  4830     0E37  0871               	movf	strcmp@r+1,w
  4831     0E38  0087               	movwf	7
  4832     0E39  0873               	movf	strcmp@l,w
  4833     0E3A  0084               	movwf	4
  4834     0E3B  0185               	clrf	5
  4835     0E3C  0800               	movf	0,w
  4836     0E3D  0601               	xorwf	1,w
  4837     0E3E  1D03               	skipz
  4838     0E3F  2E41               	goto	u1951
  4839     0E40  2E42               	goto	u1950
  4840     0E41                     u1951:
  4841     0E41  2E4A               	goto	l2206
  4842     0E42                     u1950:
  4843     0E42                     l2204:
  4844     0E42  0873               	movf	strcmp@l,w
  4845     0E43  0086               	movwf	6
  4846     0E44  0187               	clrf	7
  4847     0E45  0801               	movf	1,w
  4848     0E46  1D03               	btfss	3,2
  4849     0E47  2E49               	goto	u1961
  4850     0E48  2E4A               	goto	u1960
  4851     0E49                     u1961:
  4852     0E49  2E2D               	goto	l2200
  4853     0E4A                     u1960:
  4854     0E4A                     l2206:
  4855     0E4A  0873               	movf	strcmp@l,w
  4856     0E4B  0086               	movwf	6
  4857     0E4C  0187               	clrf	7
  4858     0E4D  0870               	movf	strcmp@r,w
  4859     0E4E  0084               	movwf	4
  4860     0E4F  0871               	movf	strcmp@r+1,w
  4861     0E50  0085               	movwf	5
  4862     0E51  0800               	movf	0,w
  4863     0E52  0201               	subwf	1,w
  4864     0E53  00F0               	movwf	?_strcmp
  4865     0E54  01F1               	clrf	?_strcmp+1
  4866     0E55  1C03               	skipc
  4867     0E56  03F1               	decf	?_strcmp+1,f
  4868     0E57                     l918:
  4869     0E57  0008               	return
  4870     0E58                     __end_of_strcmp:
  4871                           
  4872                           	psect	text7
  4873     0DD5                     __ptext7:	
  4874 ;; *************** function _memcpy *****************
  4875 ;; Defined at:
  4876 ;;		line 4 in file "C:\Program Files\Microchip\xc8\v2.46\pic\sources\c99\common\memcpy.c"
  4877 ;; Parameters:    Size  Location     Type
  4878 ;;  d1              2    0[COMMON] PTR void 
  4879 ;;		 -> screen_buffer(512), 
  4880 ;;  s1              2    2[COMMON] PTR const void 
  4881 ;;		 -> OledFont(768), 
  4882 ;;  n               2    4[COMMON] unsigned int 
  4883 ;; Auto vars:     Size  Location     Type
  4884 ;;  s               2    8[COMMON] PTR const unsigned char 
  4885 ;;		 -> OledFont(768), 
  4886 ;;  d               2    6[COMMON] PTR unsigned char 
  4887 ;;		 -> screen_buffer(512), 
  4888 ;;  tmp             1   10[COMMON] unsigned char 
  4889 ;; Return value:  Size  Location     Type
  4890 ;;                  2    0[COMMON] PTR void 
  4891 ;; Registers used:
  4892 ;;		wreg, fsr0l, fsr0h, fsr1l, fsr1h, status,2, status,0, pclath
  4893 ;; Tracked objects:
  4894 ;;		On entry : 0/0
  4895 ;;		On exit  : 0/0
  4896 ;;		Unchanged: 0/0
  4897 ;; Data sizes:     COMMON   BANK0   BANK1   BANK2   BANK3   BANK4   BANK5   BANK6   BANK7   BANK8   BANK9  BANK10  BANK1
      +1  BANK12  BANK13  BANK14  BANK15  BANK16  BANK17  BANK18  BANK19  BANK20  BANK21  BANK22  BANK23  BANK24  BANK25
  4898 ;;      Params:         6       0       0       0       0       0       0       0       0       0       0       0       
      +0       0       0       0       0       0       0       0       0       0       0       0       0       0       0
  4899 ;;      Locals:         5       0       0       0       0       0       0       0       0       0       0       0       
      +0       0       0       0       0       0       0       0       0       0       0       0       0       0       0
  4900 ;;      Temps:          0       0       0       0       0       0       0       0       0       0       0       0       
      +0       0       0       0       0       0       0       0       0       0       0       0       0       0       0
  4901 ;;      Totals:        11       0       0       0       0       0       0       0       0       0       0       0       
      +0       0       0       0       0       0       0       0       0       0       0       0       0       0       0
  4902 ;;Total ram usage:       11 bytes
  4903 ;; Hardware stack levels used: 1
  4904 ;; This function calls:
  4905 ;;		Nothing
  4906 ;; This function is called by:
  4907 ;;		_OLED_Printf_Line
  4908 ;; This function uses a non-reentrant model
  4909 ;;
  4910                           
  4911     0DD5                     _memcpy:	
  4912                           ;psect for function _memcpy
  4913                           
  4914     0DD5                     l2214:	
  4915                           ;incstack = 0
  4916                           ; Regs used in _memcpy: [wreg-fsr1h+status,2+status,0+pclath]
  4917                           
  4918     0DD5  0873               	movf	memcpy@s1+1,w
  4919     0DD6  00F9               	movwf	memcpy@s+1
  4920     0DD7  0872               	movf	memcpy@s1,w
  4921     0DD8  00F8               	movwf	memcpy@s
  4922     0DD9  0871               	movf	memcpy@d1+1,w
  4923     0DDA  00F7               	movwf	memcpy@d+1
  4924     0DDB  0870               	movf	memcpy@d1,w
  4925     0DDC  00F6               	movwf	memcpy@d
  4926     0DDD  2DF2               	goto	l2224
  4927     0DDE                     l2216:
  4928     0DDE  0878               	movf	memcpy@s,w
  4929     0DDF  0084               	movwf	4
  4930     0DE0  0879               	movf	memcpy@s+1,w
  4931     0DE1  0085               	movwf	5
  4932     0DE2  0800               	movf	0,w	;code access
  4933     0DE3  00FA               	movwf	memcpy@tmp
  4934     0DE4                     l2218:
  4935     0DE4  3001               	movlw	1
  4936     0DE5  07F8               	addwf	memcpy@s,f
  4937     0DE6  3000               	movlw	0
  4938     0DE7  3DF9               	addwfc	memcpy@s+1,f
  4939     0DE8                     l2220:
  4940     0DE8  0876               	movf	memcpy@d,w
  4941     0DE9  0086               	movwf	6
  4942     0DEA  0877               	movf	memcpy@d+1,w
  4943     0DEB  0087               	movwf	7
  4944     0DEC  087A               	movf	memcpy@tmp,w
  4945     0DED  0081               	movwf	1
  4946     0DEE                     l2222:
  4947     0DEE  3001               	movlw	1
  4948     0DEF  07F6               	addwf	memcpy@d,f
  4949     0DF0  3000               	movlw	0
  4950     0DF1  3DF7               	addwfc	memcpy@d+1,f
  4951     0DF2                     l2224:
  4952     0DF2  3001               	movlw	1
  4953     0DF3  02F4               	subwf	memcpy@n,f
  4954     0DF4  3000               	movlw	0
  4955     0DF5  3BF5               	subwfb	memcpy@n+1,f
  4956     0DF6  0A74               	incf	memcpy@n,w
  4957     0DF7  1D03               	skipz
  4958     0DF8  2DFD               	goto	u1981
  4959     0DF9  0A75               	incf	memcpy@n+1,w
  4960     0DFA  1D03               	btfss	3,2
  4961     0DFB  2DFD               	goto	u1981
  4962     0DFC  2DFE               	goto	u1980
  4963     0DFD                     u1981:
  4964     0DFD  2DDE               	goto	l2216
  4965     0DFE                     u1980:
  4966     0DFE                     l904:
  4967     0DFE  0008               	return
  4968     0DFF                     __end_of_memcpy:
  4969                           
  4970                           	psect	text8
  4971     0EB8                     __ptext8:	
  4972 ;; *************** function ___lwmod *****************
  4973 ;; Defined at:
  4974 ;;		line 5 in file "C:\Program Files\Microchip\xc8\v2.46\pic\sources\c99\common\lwmod.c"
  4975 ;; Parameters:    Size  Location     Type
  4976 ;;  divisor         2    0[COMMON] unsigned int 
  4977 ;;  dividend        2    2[COMMON] unsigned int 
  4978 ;; Auto vars:     Size  Location     Type
  4979 ;;  counter         1    5[COMMON] unsigned char 
  4980 ;; Return value:  Size  Location     Type
  4981 ;;                  2    0[COMMON] unsigned int 
  4982 ;; Registers used:
  4983 ;;		wreg, status,2, status,0
  4984 ;; Tracked objects:
  4985 ;;		On entry : 0/0
  4986 ;;		On exit  : 0/0
  4987 ;;		Unchanged: 0/0
  4988 ;; Data sizes:     COMMON   BANK0   BANK1   BANK2   BANK3   BANK4   BANK5   BANK6   BANK7   BANK8   BANK9  BANK10  BANK1
      +1  BANK12  BANK13  BANK14  BANK15  BANK16  BANK17  BANK18  BANK19  BANK20  BANK21  BANK22  BANK23  BANK24  BANK25
  4989 ;;      Params:         4       0       0       0       0       0       0       0       0       0       0       0       
      +0       0       0       0       0       0       0       0       0       0       0       0       0       0       0
  4990 ;;      Locals:         1       0       0       0       0       0       0       0       0       0       0       0       
      +0       0       0       0       0       0       0       0       0       0       0       0       0       0       0
  4991 ;;      Temps:          1       0       0       0       0       0       0       0       0       0       0       0       
      +0       0       0       0       0       0       0       0       0       0       0       0       0       0       0
  4992 ;;      Totals:         6       0       0       0       0       0       0       0       0       0       0       0       
      +0       0       0       0       0       0       0       0       0       0       0       0       0       0       0
  4993 ;;Total ram usage:        6 bytes
  4994 ;; Hardware stack levels used: 1
  4995 ;; This function calls:
  4996 ;;		Nothing
  4997 ;; This function is called by:
  4998 ;;		_OLED_Printf_Line
  4999 ;; This function uses a non-reentrant model
  5000 ;;
  5001                           
  5002     0EB8                     ___lwmod:	
  5003                           ;psect for function ___lwmod
  5004                           
  5005     0EB8                     l2452:	
  5006                           ;incstack = 0
  5007                           ; Regs used in ___lwmod: [wreg+status,2+status,0]
  5008                           
  5009     0EB8  0870               	movf	___lwmod@divisor,w
  5010     0EB9  0471               	iorwf	___lwmod@divisor+1,w
  5011     0EBA  1903               	btfsc	3,2
  5012     0EBB  2EBD               	goto	u2571
  5013     0EBC  2EBE               	goto	u2570
  5014     0EBD                     u2571:
  5015     0EBD  2EE7               	goto	l2470
  5016     0EBE                     u2570:
  5017     0EBE                     l2454:
  5018     0EBE  01F5               	clrf	___lwmod@counter
  5019     0EBF  0AF5               	incf	___lwmod@counter,f
  5020     0EC0  2ECA               	goto	l2460
  5021     0EC1                     l2456:
  5022     0EC1  3001               	movlw	1
  5023     0EC2                     u2585:
  5024     0EC2  35F0               	lslf	___lwmod@divisor,f
  5025     0EC3  0DF1               	rlf	___lwmod@divisor+1,f
  5026     0EC4  0B89               	decfsz	9,f
  5027     0EC5  2EC2               	goto	u2585
  5028     0EC6                     l2458:
  5029     0EC6  3001               	movlw	1
  5030     0EC7  00F4               	movwf	??___lwmod
  5031     0EC8  0874               	movf	??___lwmod,w
  5032     0EC9  07F5               	addwf	___lwmod@counter,f
  5033     0ECA                     l2460:
  5034     0ECA  1FF1               	btfss	___lwmod@divisor+1,7
  5035     0ECB  2ECD               	goto	u2591
  5036     0ECC  2ECE               	goto	u2590
  5037     0ECD                     u2591:
  5038     0ECD  2EC1               	goto	l2456
  5039     0ECE                     u2590:
  5040     0ECE                     l2462:
  5041     0ECE  0871               	movf	___lwmod@divisor+1,w
  5042     0ECF  0273               	subwf	___lwmod@dividend+1,w
  5043     0ED0  1D03               	skipz
  5044     0ED1  2ED4               	goto	u2605
  5045     0ED2  0870               	movf	___lwmod@divisor,w
  5046     0ED3  0272               	subwf	___lwmod@dividend,w
  5047     0ED4                     u2605:
  5048     0ED4  1C03               	skipc
  5049     0ED5  2ED7               	goto	u2601
  5050     0ED6  2ED8               	goto	u2600
  5051     0ED7                     u2601:
  5052     0ED7  2EDC               	goto	l2466
  5053     0ED8                     u2600:
  5054     0ED8                     l2464:
  5055     0ED8  0870               	movf	___lwmod@divisor,w
  5056     0ED9  02F2               	subwf	___lwmod@dividend,f
  5057     0EDA  0871               	movf	___lwmod@divisor+1,w
  5058     0EDB  3BF3               	subwfb	___lwmod@dividend+1,f
  5059     0EDC                     l2466:
  5060     0EDC  3001               	movlw	1
  5061     0EDD                     u2615:
  5062     0EDD  36F1               	lsrf	___lwmod@divisor+1,f
  5063     0EDE  0CF0               	rrf	___lwmod@divisor,f
  5064     0EDF  0B89               	decfsz	9,f
  5065     0EE0  2EDD               	goto	u2615
  5066     0EE1                     l2468:
  5067     0EE1  3001               	movlw	1
  5068     0EE2  02F5               	subwf	___lwmod@counter,f
  5069     0EE3  1D03               	btfss	3,2
  5070     0EE4  2EE6               	goto	u2621
  5071     0EE5  2EE7               	goto	u2620
  5072     0EE6                     u2621:
  5073     0EE6  2ECE               	goto	l2462
  5074     0EE7                     u2620:
  5075     0EE7                     l2470:
  5076     0EE7  0873               	movf	___lwmod@dividend+1,w
  5077     0EE8  00F1               	movwf	?___lwmod+1
  5078     0EE9  0872               	movf	___lwmod@dividend,w
  5079     0EEA  00F0               	movwf	?___lwmod
  5080     0EEB                     l732:
  5081     0EEB  0008               	return
  5082     0EEC                     __end_of___lwmod:
  5083                           
  5084                           	psect	text9
  5085     0F69                     __ptext9:	
  5086 ;; *************** function ___llmod *****************
  5087 ;; Defined at:
  5088 ;;		line 5 in file "C:\Program Files\Microchip\xc8\v2.46\pic\sources\c99\common\llmod.c"
  5089 ;; Parameters:    Size  Location     Type
  5090 ;;  divisor         4    0[COMMON] unsigned long 
  5091 ;;  dividend        4    4[COMMON] unsigned long 
  5092 ;; Auto vars:     Size  Location     Type
  5093 ;;  counter         1    9[COMMON] unsigned char 
  5094 ;; Return value:  Size  Location     Type
  5095 ;;                  4    0[COMMON] unsigned long 
  5096 ;; Registers used:
  5097 ;;		wreg, status,2, status,0
  5098 ;; Tracked objects:
  5099 ;;		On entry : 0/0
  5100 ;;		On exit  : 0/0
  5101 ;;		Unchanged: 0/0
  5102 ;; Data sizes:     COMMON   BANK0   BANK1   BANK2   BANK3   BANK4   BANK5   BANK6   BANK7   BANK8   BANK9  BANK10  BANK1
      +1  BANK12  BANK13  BANK14  BANK15  BANK16  BANK17  BANK18  BANK19  BANK20  BANK21  BANK22  BANK23  BANK24  BANK25
  5103 ;;      Params:         8       0       0       0       0       0       0       0       0       0       0       0       
      +0       0       0       0       0       0       0       0       0       0       0       0       0       0       0
  5104 ;;      Locals:         1       0       0       0       0       0       0       0       0       0       0       0       
      +0       0       0       0       0       0       0       0       0       0       0       0       0       0       0
  5105 ;;      Temps:          1       0       0       0       0       0       0       0       0       0       0       0       
      +0       0       0       0       0       0       0       0       0       0       0       0       0       0       0
  5106 ;;      Totals:        10       0       0       0       0       0       0       0       0       0       0       0       
      +0       0       0       0       0       0       0       0       0       0       0       0       0       0       0
  5107 ;;Total ram usage:       10 bytes
  5108 ;; Hardware stack levels used: 1
  5109 ;; This function calls:
  5110 ;;		Nothing
  5111 ;; This function is called by:
  5112 ;;		_OLED_Printf_Line
  5113 ;; This function uses a non-reentrant model
  5114 ;;
  5115                           
  5116     0F69                     ___llmod:	
  5117                           ;psect for function ___llmod
  5118                           
  5119     0F69                     l2406:	
  5120                           ;incstack = 0
  5121                           ; Regs used in ___llmod: [wreg+status,2+status,0]
  5122                           
  5123     0F69  0873               	movf	___llmod@divisor+3,w
  5124     0F6A  0472               	iorwf	___llmod@divisor+2,w
  5125     0F6B  0471               	iorwf	___llmod@divisor+1,w
  5126     0F6C  0470               	iorwf	___llmod@divisor,w
  5127     0F6D  1903               	skipnz
  5128     0F6E  2F70               	goto	u2441
  5129     0F6F  2F71               	goto	u2440
  5130     0F70                     u2441:
  5131     0F70  2FAA               	goto	l2422
  5132     0F71                     u2440:
  5133     0F71                     l2408:
  5134     0F71  01F9               	clrf	___llmod@counter
  5135     0F72  0AF9               	incf	___llmod@counter,f
  5136     0F73  2F7F               	goto	l2412
  5137     0F74                     l2410:
  5138     0F74  3001               	movlw	1
  5139     0F75                     u2455:
  5140     0F75  35F0               	lslf	___llmod@divisor,f
  5141     0F76  0DF1               	rlf	___llmod@divisor+1,f
  5142     0F77  0DF2               	rlf	___llmod@divisor+2,f
  5143     0F78  0DF3               	rlf	___llmod@divisor+3,f
  5144     0F79  0B89               	decfsz	9,f
  5145     0F7A  2F75               	goto	u2455
  5146     0F7B  3001               	movlw	1
  5147     0F7C  00F8               	movwf	??___llmod
  5148     0F7D  0878               	movf	??___llmod,w
  5149     0F7E  07F9               	addwf	___llmod@counter,f
  5150     0F7F                     l2412:
  5151     0F7F  1FF3               	btfss	___llmod@divisor+3,7
  5152     0F80  2F82               	goto	u2461
  5153     0F81  2F83               	goto	u2460
  5154     0F82                     u2461:
  5155     0F82  2F74               	goto	l2410
  5156     0F83                     u2460:
  5157     0F83                     l2414:
  5158     0F83  0873               	movf	___llmod@divisor+3,w
  5159     0F84  0277               	subwf	___llmod@dividend+3,w
  5160     0F85  1D03               	skipz
  5161     0F86  2F91               	goto	u2475
  5162     0F87  0872               	movf	___llmod@divisor+2,w
  5163     0F88  0276               	subwf	___llmod@dividend+2,w
  5164     0F89  1D03               	skipz
  5165     0F8A  2F91               	goto	u2475
  5166     0F8B  0871               	movf	___llmod@divisor+1,w
  5167     0F8C  0275               	subwf	___llmod@dividend+1,w
  5168     0F8D  1D03               	skipz
  5169     0F8E  2F91               	goto	u2475
  5170     0F8F  0870               	movf	___llmod@divisor,w
  5171     0F90  0274               	subwf	___llmod@dividend,w
  5172     0F91                     u2475:
  5173     0F91  1C03               	skipc
  5174     0F92  2F94               	goto	u2471
  5175     0F93  2F95               	goto	u2470
  5176     0F94                     u2471:
  5177     0F94  2F9D               	goto	l2418
  5178     0F95                     u2470:
  5179     0F95                     l2416:
  5180     0F95  0870               	movf	___llmod@divisor,w
  5181     0F96  02F4               	subwf	___llmod@dividend,f
  5182     0F97  0871               	movf	___llmod@divisor+1,w
  5183     0F98  3BF5               	subwfb	___llmod@dividend+1,f
  5184     0F99  0872               	movf	___llmod@divisor+2,w
  5185     0F9A  3BF6               	subwfb	___llmod@dividend+2,f
  5186     0F9B  0873               	movf	___llmod@divisor+3,w
  5187     0F9C  3BF7               	subwfb	___llmod@dividend+3,f
  5188     0F9D                     l2418:
  5189     0F9D  3001               	movlw	1
  5190     0F9E                     u2485:
  5191     0F9E  36F3               	lsrf	___llmod@divisor+3,f
  5192     0F9F  0CF2               	rrf	___llmod@divisor+2,f
  5193     0FA0  0CF1               	rrf	___llmod@divisor+1,f
  5194     0FA1  0CF0               	rrf	___llmod@divisor,f
  5195     0FA2  0B89               	decfsz	9,f
  5196     0FA3  2F9E               	goto	u2485
  5197     0FA4                     l2420:
  5198     0FA4  3001               	movlw	1
  5199     0FA5  02F9               	subwf	___llmod@counter,f
  5200     0FA6  1D03               	btfss	3,2
  5201     0FA7  2FA9               	goto	u2491
  5202     0FA8  2FAA               	goto	u2490
  5203     0FA9                     u2491:
  5204     0FA9  2F83               	goto	l2414
  5205     0FAA                     u2490:
  5206     0FAA                     l2422:
  5207     0FAA  0877               	movf	___llmod@dividend+3,w
  5208     0FAB  00F3               	movwf	?___llmod+3
  5209     0FAC  0876               	movf	___llmod@dividend+2,w
  5210     0FAD  00F2               	movwf	?___llmod+2
  5211     0FAE  0875               	movf	___llmod@dividend+1,w
  5212     0FAF  00F1               	movwf	?___llmod+1
  5213     0FB0  0874               	movf	___llmod@dividend,w
  5214     0FB1  00F0               	movwf	?___llmod
  5215     0FB2                     l672:
  5216     0FB2  0008               	return
  5217     0FB3                     __end_of___llmod:
  5218                           
  5219                           	psect	text10
  5220     01A1                     __ptext10:	
  5221 ;; *************** function ___lldiv *****************
  5222 ;; Defined at:
  5223 ;;		line 5 in file "C:\Program Files\Microchip\xc8\v2.46\pic\sources\c99\common\__lldiv.c"
  5224 ;; Parameters:    Size  Location     Type
  5225 ;;  divisor         4    0[COMMON] unsigned long 
  5226 ;;  dividend        4    4[COMMON] unsigned long 
  5227 ;; Auto vars:     Size  Location     Type
  5228 ;;  quotient        4    9[COMMON] unsigned long 
  5229 ;;  counter         1   13[COMMON] unsigned char 
  5230 ;; Return value:  Size  Location     Type
  5231 ;;                  4    0[COMMON] unsigned long 
  5232 ;; Registers used:
  5233 ;;		wreg, status,2, status,0
  5234 ;; Tracked objects:
  5235 ;;		On entry : 0/0
  5236 ;;		On exit  : 0/0
  5237 ;;		Unchanged: 0/0
  5238 ;; Data sizes:     COMMON   BANK0   BANK1   BANK2   BANK3   BANK4   BANK5   BANK6   BANK7   BANK8   BANK9  BANK10  BANK1
      +1  BANK12  BANK13  BANK14  BANK15  BANK16  BANK17  BANK18  BANK19  BANK20  BANK21  BANK22  BANK23  BANK24  BANK25
  5239 ;;      Params:         8       0       0       0       0       0       0       0       0       0       0       0       
      +0       0       0       0       0       0       0       0       0       0       0       0       0       0       0
  5240 ;;      Locals:         5       0       0       0       0       0       0       0       0       0       0       0       
      +0       0       0       0       0       0       0       0       0       0       0       0       0       0       0
  5241 ;;      Temps:          1       0       0       0       0       0       0       0       0       0       0       0       
      +0       0       0       0       0       0       0       0       0       0       0       0       0       0       0
  5242 ;;      Totals:        14       0       0       0       0       0       0       0       0       0       0       0       
      +0       0       0       0       0       0       0       0       0       0       0       0       0       0       0
  5243 ;;Total ram usage:       14 bytes
  5244 ;; Hardware stack levels used: 1
  5245 ;; This function calls:
  5246 ;;		Nothing
  5247 ;; This function is called by:
  5248 ;;		_OLED_Printf_Line
  5249 ;; This function uses a non-reentrant model
  5250 ;;
  5251                           
  5252     01A1                     ___lldiv:	
  5253                           ;psect for function ___lldiv
  5254                           
  5255     01A1                     l2228:	
  5256                           ;incstack = 0
  5257                           ; Regs used in ___lldiv: [wreg+status,2+status,0]
  5258                           
  5259     01A1  3000               	movlw	0
  5260     01A2  00FC               	movwf	___lldiv@quotient+3
  5261     01A3  3000               	movlw	0
  5262     01A4  00FB               	movwf	___lldiv@quotient+2
  5263     01A5  3000               	movlw	0
  5264     01A6  00FA               	movwf	___lldiv@quotient+1
  5265     01A7  3000               	movlw	0
  5266     01A8  00F9               	movwf	___lldiv@quotient
  5267     01A9  0873               	movf	___lldiv@divisor+3,w
  5268     01AA  0472               	iorwf	___lldiv@divisor+2,w
  5269     01AB  0471               	iorwf	___lldiv@divisor+1,w
  5270     01AC  0470               	iorwf	___lldiv@divisor,w
  5271     01AD  1903               	skipnz
  5272     01AE  29B0               	goto	u1991
  5273     01AF  29B1               	goto	u1990
  5274     01B0                     u1991:
  5275     01B0  29F2               	goto	l2248
  5276     01B1                     u1990:
  5277     01B1                     l2230:
  5278     01B1  01FD               	clrf	___lldiv@counter
  5279     01B2  0AFD               	incf	___lldiv@counter,f
  5280     01B3  29BF               	goto	l2234
  5281     01B4                     l2232:
  5282     01B4  3001               	movlw	1
  5283     01B5                     u2005:
  5284     01B5  35F0               	lslf	___lldiv@divisor,f
  5285     01B6  0DF1               	rlf	___lldiv@divisor+1,f
  5286     01B7  0DF2               	rlf	___lldiv@divisor+2,f
  5287     01B8  0DF3               	rlf	___lldiv@divisor+3,f
  5288     01B9  0B89               	decfsz	9,f
  5289     01BA  29B5               	goto	u2005
  5290     01BB  3001               	movlw	1
  5291     01BC  00F8               	movwf	??___lldiv
  5292     01BD  0878               	movf	??___lldiv,w
  5293     01BE  07FD               	addwf	___lldiv@counter,f
  5294     01BF                     l2234:
  5295     01BF  1FF3               	btfss	___lldiv@divisor+3,7
  5296     01C0  29C2               	goto	u2011
  5297     01C1  29C3               	goto	u2010
  5298     01C2                     u2011:
  5299     01C2  29B4               	goto	l2232
  5300     01C3                     u2010:
  5301     01C3                     l2236:
  5302     01C3  3001               	movlw	1
  5303     01C4                     u2025:
  5304     01C4  35F9               	lslf	___lldiv@quotient,f
  5305     01C5  0DFA               	rlf	___lldiv@quotient+1,f
  5306     01C6  0DFB               	rlf	___lldiv@quotient+2,f
  5307     01C7  0DFC               	rlf	___lldiv@quotient+3,f
  5308     01C8  0B89               	decfsz	9,f
  5309     01C9  29C4               	goto	u2025
  5310     01CA                     l2238:
  5311     01CA  0873               	movf	___lldiv@divisor+3,w
  5312     01CB  0277               	subwf	___lldiv@dividend+3,w
  5313     01CC  1D03               	skipz
  5314     01CD  29D8               	goto	u2035
  5315     01CE  0872               	movf	___lldiv@divisor+2,w
  5316     01CF  0276               	subwf	___lldiv@dividend+2,w
  5317     01D0  1D03               	skipz
  5318     01D1  29D8               	goto	u2035
  5319     01D2  0871               	movf	___lldiv@divisor+1,w
  5320     01D3  0275               	subwf	___lldiv@dividend+1,w
  5321     01D4  1D03               	skipz
  5322     01D5  29D8               	goto	u2035
  5323     01D6  0870               	movf	___lldiv@divisor,w
  5324     01D7  0274               	subwf	___lldiv@dividend,w
  5325     01D8                     u2035:
  5326     01D8  1C03               	skipc
  5327     01D9  29DB               	goto	u2031
  5328     01DA  29DC               	goto	u2030
  5329     01DB                     u2031:
  5330     01DB  29E5               	goto	l2244
  5331     01DC                     u2030:
  5332     01DC                     l2240:
  5333     01DC  0870               	movf	___lldiv@divisor,w
  5334     01DD  02F4               	subwf	___lldiv@dividend,f
  5335     01DE  0871               	movf	___lldiv@divisor+1,w
  5336     01DF  3BF5               	subwfb	___lldiv@dividend+1,f
  5337     01E0  0872               	movf	___lldiv@divisor+2,w
  5338     01E1  3BF6               	subwfb	___lldiv@dividend+2,f
  5339     01E2  0873               	movf	___lldiv@divisor+3,w
  5340     01E3  3BF7               	subwfb	___lldiv@dividend+3,f
  5341     01E4                     l2242:
  5342     01E4  1479               	bsf	___lldiv@quotient,0
  5343     01E5                     l2244:
  5344     01E5  3001               	movlw	1
  5345     01E6                     u2045:
  5346     01E6  36F3               	lsrf	___lldiv@divisor+3,f
  5347     01E7  0CF2               	rrf	___lldiv@divisor+2,f
  5348     01E8  0CF1               	rrf	___lldiv@divisor+1,f
  5349     01E9  0CF0               	rrf	___lldiv@divisor,f
  5350     01EA  0B89               	decfsz	9,f
  5351     01EB  29E6               	goto	u2045
  5352     01EC                     l2246:
  5353     01EC  3001               	movlw	1
  5354     01ED  02FD               	subwf	___lldiv@counter,f
  5355     01EE  1D03               	btfss	3,2
  5356     01EF  29F1               	goto	u2051
  5357     01F0  29F2               	goto	u2050
  5358     01F1                     u2051:
  5359     01F1  29C3               	goto	l2236
  5360     01F2                     u2050:
  5361     01F2                     l2248:
  5362     01F2  087C               	movf	___lldiv@quotient+3,w
  5363     01F3  00F3               	movwf	?___lldiv+3
  5364     01F4  087B               	movf	___lldiv@quotient+2,w
  5365     01F5  00F2               	movwf	?___lldiv+2
  5366     01F6  087A               	movf	___lldiv@quotient+1,w
  5367     01F7  00F1               	movwf	?___lldiv+1
  5368     01F8  0879               	movf	___lldiv@quotient,w
  5369     01F9  00F0               	movwf	?___lldiv
  5370     01FA                     l478:
  5371     01FA  0008               	return
  5372     01FB                     __end_of___lldiv:
  5373                           
  5374                           	psect	text11
  5375     014E                     __ptext11:	
  5376 ;; *************** function ___awmod *****************
  5377 ;; Defined at:
  5378 ;;		line 5 in file "C:\Program Files\Microchip\xc8\v2.46\pic\sources\c99\common\awmod.c"
  5379 ;; Parameters:    Size  Location     Type
  5380 ;;  divisor         2    0[COMMON] int 
  5381 ;;  dividend        2    2[COMMON] int 
  5382 ;; Auto vars:     Size  Location     Type
  5383 ;;  sign            1    6[COMMON] unsigned char 
  5384 ;;  counter         1    5[COMMON] unsigned char 
  5385 ;; Return value:  Size  Location     Type
  5386 ;;                  2    0[COMMON] int 
  5387 ;; Registers used:
  5388 ;;		wreg, status,2, status,0
  5389 ;; Tracked objects:
  5390 ;;		On entry : 0/0
  5391 ;;		On exit  : 0/0
  5392 ;;		Unchanged: 0/0
  5393 ;; Data sizes:     COMMON   BANK0   BANK1   BANK2   BANK3   BANK4   BANK5   BANK6   BANK7   BANK8   BANK9  BANK10  BANK1
      +1  BANK12  BANK13  BANK14  BANK15  BANK16  BANK17  BANK18  BANK19  BANK20  BANK21  BANK22  BANK23  BANK24  BANK25
  5394 ;;      Params:         4       0       0       0       0       0       0       0       0       0       0       0       
      +0       0       0       0       0       0       0       0       0       0       0       0       0       0       0
  5395 ;;      Locals:         2       0       0       0       0       0       0       0       0       0       0       0       
      +0       0       0       0       0       0       0       0       0       0       0       0       0       0       0
  5396 ;;      Temps:          1       0       0       0       0       0       0       0       0       0       0       0       
      +0       0       0       0       0       0       0       0       0       0       0       0       0       0       0
  5397 ;;      Totals:         7       0       0       0       0       0       0       0       0       0       0       0       
      +0       0       0       0       0       0       0       0       0       0       0       0       0       0       0
  5398 ;;Total ram usage:        7 bytes
  5399 ;; Hardware stack levels used: 1
  5400 ;; This function calls:
  5401 ;;		Nothing
  5402 ;; This function is called by:
  5403 ;;		_OLED_Printf_Line
  5404 ;; This function uses a non-reentrant model
  5405 ;;
  5406                           
  5407     014E                     ___awmod:	
  5408                           ;psect for function ___awmod
  5409                           
  5410     014E                     l2368:	
  5411                           ;incstack = 0
  5412                           ; Regs used in ___awmod: [wreg+status,2+status,0]
  5413                           
  5414     014E  01F6               	clrf	___awmod@sign
  5415     014F                     l2370:
  5416     014F  1FF3               	btfss	___awmod@dividend+1,7
  5417     0150  2952               	goto	u2351
  5418     0151  2953               	goto	u2350
  5419     0152                     u2351:
  5420     0152  295A               	goto	l2376
  5421     0153                     u2350:
  5422     0153                     l2372:
  5423     0153  09F2               	comf	___awmod@dividend,f
  5424     0154  09F3               	comf	___awmod@dividend+1,f
  5425     0155  0AF2               	incf	___awmod@dividend,f
  5426     0156  1903               	skipnz
  5427     0157  0AF3               	incf	___awmod@dividend+1,f
  5428     0158                     l2374:
  5429     0158  01F6               	clrf	___awmod@sign
  5430     0159  0AF6               	incf	___awmod@sign,f
  5431     015A                     l2376:
  5432     015A  1FF1               	btfss	___awmod@divisor+1,7
  5433     015B  295D               	goto	u2361
  5434     015C  295E               	goto	u2360
  5435     015D                     u2361:
  5436     015D  2963               	goto	l2380
  5437     015E                     u2360:
  5438     015E                     l2378:
  5439     015E  09F0               	comf	___awmod@divisor,f
  5440     015F  09F1               	comf	___awmod@divisor+1,f
  5441     0160  0AF0               	incf	___awmod@divisor,f
  5442     0161  1903               	skipnz
  5443     0162  0AF1               	incf	___awmod@divisor+1,f
  5444     0163                     l2380:
  5445     0163  0870               	movf	___awmod@divisor,w
  5446     0164  0471               	iorwf	___awmod@divisor+1,w
  5447     0165  1903               	btfsc	3,2
  5448     0166  2968               	goto	u2371
  5449     0167  2969               	goto	u2370
  5450     0168                     u2371:
  5451     0168  2992               	goto	l2398
  5452     0169                     u2370:
  5453     0169                     l2382:
  5454     0169  01F5               	clrf	___awmod@counter
  5455     016A  0AF5               	incf	___awmod@counter,f
  5456     016B  2975               	goto	l2388
  5457     016C                     l2384:
  5458     016C  3001               	movlw	1
  5459     016D                     u2385:
  5460     016D  35F0               	lslf	___awmod@divisor,f
  5461     016E  0DF1               	rlf	___awmod@divisor+1,f
  5462     016F  0B89               	decfsz	9,f
  5463     0170  296D               	goto	u2385
  5464     0171                     l2386:
  5465     0171  3001               	movlw	1
  5466     0172  00F4               	movwf	??___awmod
  5467     0173  0874               	movf	??___awmod,w
  5468     0174  07F5               	addwf	___awmod@counter,f
  5469     0175                     l2388:
  5470     0175  1FF1               	btfss	___awmod@divisor+1,7
  5471     0176  2978               	goto	u2391
  5472     0177  2979               	goto	u2390
  5473     0178                     u2391:
  5474     0178  296C               	goto	l2384
  5475     0179                     u2390:
  5476     0179                     l2390:
  5477     0179  0871               	movf	___awmod@divisor+1,w
  5478     017A  0273               	subwf	___awmod@dividend+1,w
  5479     017B  1D03               	skipz
  5480     017C  297F               	goto	u2405
  5481     017D  0870               	movf	___awmod@divisor,w
  5482     017E  0272               	subwf	___awmod@dividend,w
  5483     017F                     u2405:
  5484     017F  1C03               	skipc
  5485     0180  2982               	goto	u2401
  5486     0181  2983               	goto	u2400
  5487     0182                     u2401:
  5488     0182  2987               	goto	l2394
  5489     0183                     u2400:
  5490     0183                     l2392:
  5491     0183  0870               	movf	___awmod@divisor,w
  5492     0184  02F2               	subwf	___awmod@dividend,f
  5493     0185  0871               	movf	___awmod@divisor+1,w
  5494     0186  3BF3               	subwfb	___awmod@dividend+1,f
  5495     0187                     l2394:
  5496     0187  3001               	movlw	1
  5497     0188                     u2415:
  5498     0188  36F1               	lsrf	___awmod@divisor+1,f
  5499     0189  0CF0               	rrf	___awmod@divisor,f
  5500     018A  0B89               	decfsz	9,f
  5501     018B  2988               	goto	u2415
  5502     018C                     l2396:
  5503     018C  3001               	movlw	1
  5504     018D  02F5               	subwf	___awmod@counter,f
  5505     018E  1D03               	btfss	3,2
  5506     018F  2991               	goto	u2421
  5507     0190  2992               	goto	u2420
  5508     0191                     u2421:
  5509     0191  2979               	goto	l2390
  5510     0192                     u2420:
  5511     0192                     l2398:
  5512     0192  0876               	movf	___awmod@sign,w
  5513     0193  1903               	btfsc	3,2
  5514     0194  2996               	goto	u2431
  5515     0195  2997               	goto	u2430
  5516     0196                     u2431:
  5517     0196  299C               	goto	l2402
  5518     0197                     u2430:
  5519     0197                     l2400:
  5520     0197  09F2               	comf	___awmod@dividend,f
  5521     0198  09F3               	comf	___awmod@dividend+1,f
  5522     0199  0AF2               	incf	___awmod@dividend,f
  5523     019A  1903               	skipnz
  5524     019B  0AF3               	incf	___awmod@dividend+1,f
  5525     019C                     l2402:
  5526     019C  0873               	movf	___awmod@dividend+1,w
  5527     019D  00F1               	movwf	?___awmod+1
  5528     019E  0872               	movf	___awmod@dividend,w
  5529     019F  00F0               	movwf	?___awmod
  5530     01A0                     l608:
  5531     01A0  0008               	return
  5532     01A1                     __end_of___awmod:
  5533                           
  5534                           	psect	text12
  5535     01FB                     __ptext12:	
  5536 ;; *************** function ___awdiv *****************
  5537 ;; Defined at:
  5538 ;;		line 5 in file "C:\Program Files\Microchip\xc8\v2.46\pic\sources\c99\common\awdiv.c"
  5539 ;; Parameters:    Size  Location     Type
  5540 ;;  divisor         2    0[COMMON] int 
  5541 ;;  dividend        2    2[COMMON] int 
  5542 ;; Auto vars:     Size  Location     Type
  5543 ;;  quotient        2    7[COMMON] int 
  5544 ;;  sign            1    6[COMMON] unsigned char 
  5545 ;;  counter         1    5[COMMON] unsigned char 
  5546 ;; Return value:  Size  Location     Type
  5547 ;;                  2    0[COMMON] int 
  5548 ;; Registers used:
  5549 ;;		wreg, status,2, status,0
  5550 ;; Tracked objects:
  5551 ;;		On entry : 0/0
  5552 ;;		On exit  : 0/0
  5553 ;;		Unchanged: 0/0
  5554 ;; Data sizes:     COMMON   BANK0   BANK1   BANK2   BANK3   BANK4   BANK5   BANK6   BANK7   BANK8   BANK9  BANK10  BANK1
      +1  BANK12  BANK13  BANK14  BANK15  BANK16  BANK17  BANK18  BANK19  BANK20  BANK21  BANK22  BANK23  BANK24  BANK25
  5555 ;;      Params:         4       0       0       0       0       0       0       0       0       0       0       0       
      +0       0       0       0       0       0       0       0       0       0       0       0       0       0       0
  5556 ;;      Locals:         4       0       0       0       0       0       0       0       0       0       0       0       
      +0       0       0       0       0       0       0       0       0       0       0       0       0       0       0
  5557 ;;      Temps:          1       0       0       0       0       0       0       0       0       0       0       0       
      +0       0       0       0       0       0       0       0       0       0       0       0       0       0       0
  5558 ;;      Totals:         9       0       0       0       0       0       0       0       0       0       0       0       
      +0       0       0       0       0       0       0       0       0       0       0       0       0       0       0
  5559 ;;Total ram usage:        9 bytes
  5560 ;; Hardware stack levels used: 1
  5561 ;; This function calls:
  5562 ;;		Nothing
  5563 ;; This function is called by:
  5564 ;;		_OLED_Printf_Line
  5565 ;;		_OLED_DrawBattery
  5566 ;; This function uses a non-reentrant model
  5567 ;;
  5568                           
  5569     01FB                     ___awdiv:	
  5570                           ;psect for function ___awdiv
  5571                           
  5572     01FB                     l2324:	
  5573                           ;incstack = 0
  5574                           ; Regs used in ___awdiv: [wreg+status,2+status,0]
  5575                           
  5576     01FB  01F6               	clrf	___awdiv@sign
  5577     01FC                     l2326:
  5578     01FC  1FF1               	btfss	___awdiv@divisor+1,7
  5579     01FD  29FF               	goto	u2251
  5580     01FE  2A00               	goto	u2250
  5581     01FF                     u2251:
  5582     01FF  2A07               	goto	l2332
  5583     0200                     u2250:
  5584     0200                     l2328:
  5585     0200  09F0               	comf	___awdiv@divisor,f
  5586     0201  09F1               	comf	___awdiv@divisor+1,f
  5587     0202  0AF0               	incf	___awdiv@divisor,f
  5588     0203  1903               	skipnz
  5589     0204  0AF1               	incf	___awdiv@divisor+1,f
  5590     0205                     l2330:
  5591     0205  01F6               	clrf	___awdiv@sign
  5592     0206  0AF6               	incf	___awdiv@sign,f
  5593     0207                     l2332:
  5594     0207  1FF3               	btfss	___awdiv@dividend+1,7
  5595     0208  2A0A               	goto	u2261
  5596     0209  2A0B               	goto	u2260
  5597     020A                     u2261:
  5598     020A  2A14               	goto	l2338
  5599     020B                     u2260:
  5600     020B                     l2334:
  5601     020B  09F2               	comf	___awdiv@dividend,f
  5602     020C  09F3               	comf	___awdiv@dividend+1,f
  5603     020D  0AF2               	incf	___awdiv@dividend,f
  5604     020E  1903               	skipnz
  5605     020F  0AF3               	incf	___awdiv@dividend+1,f
  5606     0210                     l2336:
  5607     0210  3001               	movlw	1
  5608     0211  00F4               	movwf	??___awdiv
  5609     0212  0874               	movf	??___awdiv,w
  5610     0213  06F6               	xorwf	___awdiv@sign,f
  5611     0214                     l2338:
  5612     0214  01F7               	clrf	___awdiv@quotient
  5613     0215  01F8               	clrf	___awdiv@quotient+1
  5614     0216                     l2340:
  5615     0216  0870               	movf	___awdiv@divisor,w
  5616     0217  0471               	iorwf	___awdiv@divisor+1,w
  5617     0218  1903               	btfsc	3,2
  5618     0219  2A1B               	goto	u2271
  5619     021A  2A1C               	goto	u2270
  5620     021B                     u2271:
  5621     021B  2A4B               	goto	l2360
  5622     021C                     u2270:
  5623     021C                     l2342:
  5624     021C  01F5               	clrf	___awdiv@counter
  5625     021D  0AF5               	incf	___awdiv@counter,f
  5626     021E  2A28               	goto	l2348
  5627     021F                     l2344:
  5628     021F  3001               	movlw	1
  5629     0220                     u2285:
  5630     0220  35F0               	lslf	___awdiv@divisor,f
  5631     0221  0DF1               	rlf	___awdiv@divisor+1,f
  5632     0222  0B89               	decfsz	9,f
  5633     0223  2A20               	goto	u2285
  5634     0224                     l2346:
  5635     0224  3001               	movlw	1
  5636     0225  00F4               	movwf	??___awdiv
  5637     0226  0874               	movf	??___awdiv,w
  5638     0227  07F5               	addwf	___awdiv@counter,f
  5639     0228                     l2348:
  5640     0228  1FF1               	btfss	___awdiv@divisor+1,7
  5641     0229  2A2B               	goto	u2291
  5642     022A  2A2C               	goto	u2290
  5643     022B                     u2291:
  5644     022B  2A1F               	goto	l2344
  5645     022C                     u2290:
  5646     022C                     l2350:
  5647     022C  3001               	movlw	1
  5648     022D                     u2305:
  5649     022D  35F7               	lslf	___awdiv@quotient,f
  5650     022E  0DF8               	rlf	___awdiv@quotient+1,f
  5651     022F  0B89               	decfsz	9,f
  5652     0230  2A2D               	goto	u2305
  5653     0231  0871               	movf	___awdiv@divisor+1,w
  5654     0232  0273               	subwf	___awdiv@dividend+1,w
  5655     0233  1D03               	skipz
  5656     0234  2A37               	goto	u2315
  5657     0235  0870               	movf	___awdiv@divisor,w
  5658     0236  0272               	subwf	___awdiv@dividend,w
  5659     0237                     u2315:
  5660     0237  1C03               	skipc
  5661     0238  2A3A               	goto	u2311
  5662     0239  2A3B               	goto	u2310
  5663     023A                     u2311:
  5664     023A  2A40               	goto	l2356
  5665     023B                     u2310:
  5666     023B                     l2352:
  5667     023B  0870               	movf	___awdiv@divisor,w
  5668     023C  02F2               	subwf	___awdiv@dividend,f
  5669     023D  0871               	movf	___awdiv@divisor+1,w
  5670     023E  3BF3               	subwfb	___awdiv@dividend+1,f
  5671     023F                     l2354:
  5672     023F  1477               	bsf	___awdiv@quotient,0
  5673     0240                     l2356:
  5674     0240  3001               	movlw	1
  5675     0241                     u2325:
  5676     0241  36F1               	lsrf	___awdiv@divisor+1,f
  5677     0242  0CF0               	rrf	___awdiv@divisor,f
  5678     0243  0B89               	decfsz	9,f
  5679     0244  2A41               	goto	u2325
  5680     0245                     l2358:
  5681     0245  3001               	movlw	1
  5682     0246  02F5               	subwf	___awdiv@counter,f
  5683     0247  1D03               	btfss	3,2
  5684     0248  2A4A               	goto	u2331
  5685     0249  2A4B               	goto	u2330
  5686     024A                     u2331:
  5687     024A  2A2C               	goto	l2350
  5688     024B                     u2330:
  5689     024B                     l2360:
  5690     024B  0876               	movf	___awdiv@sign,w
  5691     024C  1903               	btfsc	3,2
  5692     024D  2A4F               	goto	u2341
  5693     024E  2A50               	goto	u2340
  5694     024F                     u2341:
  5695     024F  2A55               	goto	l2364
  5696     0250                     u2340:
  5697     0250                     l2362:
  5698     0250  09F7               	comf	___awdiv@quotient,f
  5699     0251  09F8               	comf	___awdiv@quotient+1,f
  5700     0252  0AF7               	incf	___awdiv@quotient,f
  5701     0253  1903               	skipnz
  5702     0254  0AF8               	incf	___awdiv@quotient+1,f
  5703     0255                     l2364:
  5704     0255  0878               	movf	___awdiv@quotient+1,w
  5705     0256  00F1               	movwf	?___awdiv+1
  5706     0257  0877               	movf	___awdiv@quotient,w
  5707     0258  00F0               	movwf	?___awdiv
  5708     0259                     l595:
  5709     0259  0008               	return
  5710     025A                     __end_of___awdiv:
  5711                           
  5712                           	psect	text13
  5713     02CE                     __ptext13:	
  5714 ;; *************** function ___almod *****************
  5715 ;; Defined at:
  5716 ;;		line 5 in file "C:\Program Files\Microchip\xc8\v2.46\pic\sources\c99\common\almod.c"
  5717 ;; Parameters:    Size  Location     Type
  5718 ;;  divisor         4    0[COMMON] long 
  5719 ;;  dividend        4    4[COMMON] long 
  5720 ;; Auto vars:     Size  Location     Type
  5721 ;;  sign            1   10[COMMON] unsigned char 
  5722 ;;  counter         1    9[COMMON] unsigned char 
  5723 ;; Return value:  Size  Location     Type
  5724 ;;                  4    0[COMMON] long 
  5725 ;; Registers used:
  5726 ;;		wreg, status,2, status,0
  5727 ;; Tracked objects:
  5728 ;;		On entry : 0/0
  5729 ;;		On exit  : 0/0
  5730 ;;		Unchanged: 0/0
  5731 ;; Data sizes:     COMMON   BANK0   BANK1   BANK2   BANK3   BANK4   BANK5   BANK6   BANK7   BANK8   BANK9  BANK10  BANK1
      +1  BANK12  BANK13  BANK14  BANK15  BANK16  BANK17  BANK18  BANK19  BANK20  BANK21  BANK22  BANK23  BANK24  BANK25
  5732 ;;      Params:         8       0       0       0       0       0       0       0       0       0       0       0       
      +0       0       0       0       0       0       0       0       0       0       0       0       0       0       0
  5733 ;;      Locals:         2       0       0       0       0       0       0       0       0       0       0       0       
      +0       0       0       0       0       0       0       0       0       0       0       0       0       0       0
  5734 ;;      Temps:          1       0       0       0       0       0       0       0       0       0       0       0       
      +0       0       0       0       0       0       0       0       0       0       0       0       0       0       0
  5735 ;;      Totals:        11       0       0       0       0       0       0       0       0       0       0       0       
      +0       0       0       0       0       0       0       0       0       0       0       0       0       0       0
  5736 ;;Total ram usage:       11 bytes
  5737 ;; Hardware stack levels used: 1
  5738 ;; This function calls:
  5739 ;;		Nothing
  5740 ;; This function is called by:
  5741 ;;		_OLED_Printf_Line
  5742 ;; This function uses a non-reentrant model
  5743 ;;
  5744                           
  5745     02CE                     ___almod:	
  5746                           ;psect for function ___almod
  5747                           
  5748     02CE                     l2292:	
  5749                           ;incstack = 0
  5750                           ; Regs used in ___almod: [wreg+status,2+status,0]
  5751                           
  5752     02CE  01FA               	clrf	___almod@sign
  5753     02CF                     l2294:
  5754     02CF  1FF7               	btfss	___almod@dividend+3,7
  5755     02D0  2AD2               	goto	u2161
  5756     02D1  2AD3               	goto	u2160
  5757     02D2                     u2161:
  5758     02D2  2AE0               	goto	l520
  5759     02D3                     u2160:
  5760     02D3                     l2296:
  5761     02D3  09F4               	comf	___almod@dividend,f
  5762     02D4  09F5               	comf	___almod@dividend+1,f
  5763     02D5  09F6               	comf	___almod@dividend+2,f
  5764     02D6  09F7               	comf	___almod@dividend+3,f
  5765     02D7  0AF4               	incf	___almod@dividend,f
  5766     02D8  1903               	skipnz
  5767     02D9  0AF5               	incf	___almod@dividend+1,f
  5768     02DA  1903               	skipnz
  5769     02DB  0AF6               	incf	___almod@dividend+2,f
  5770     02DC  1903               	skipnz
  5771     02DD  0AF7               	incf	___almod@dividend+3,f
  5772     02DE  01FA               	clrf	___almod@sign
  5773     02DF  0AFA               	incf	___almod@sign,f
  5774     02E0                     l520:
  5775     02E0  1FF3               	btfss	___almod@divisor+3,7
  5776     02E1  2AE3               	goto	u2171
  5777     02E2  2AE4               	goto	u2170
  5778     02E3                     u2171:
  5779     02E3  2AEF               	goto	l2300
  5780     02E4                     u2170:
  5781     02E4                     l2298:
  5782     02E4  09F0               	comf	___almod@divisor,f
  5783     02E5  09F1               	comf	___almod@divisor+1,f
  5784     02E6  09F2               	comf	___almod@divisor+2,f
  5785     02E7  09F3               	comf	___almod@divisor+3,f
  5786     02E8  0AF0               	incf	___almod@divisor,f
  5787     02E9  1903               	skipnz
  5788     02EA  0AF1               	incf	___almod@divisor+1,f
  5789     02EB  1903               	skipnz
  5790     02EC  0AF2               	incf	___almod@divisor+2,f
  5791     02ED  1903               	skipnz
  5792     02EE  0AF3               	incf	___almod@divisor+3,f
  5793     02EF                     l2300:
  5794     02EF  0873               	movf	___almod@divisor+3,w
  5795     02F0  0472               	iorwf	___almod@divisor+2,w
  5796     02F1  0471               	iorwf	___almod@divisor+1,w
  5797     02F2  0470               	iorwf	___almod@divisor,w
  5798     02F3  1903               	skipnz
  5799     02F4  2AF6               	goto	u2181
  5800     02F5  2AF7               	goto	u2180
  5801     02F6                     u2181:
  5802     02F6  2B30               	goto	l2316
  5803     02F7                     u2180:
  5804     02F7                     l2302:
  5805     02F7  01F9               	clrf	___almod@counter
  5806     02F8  0AF9               	incf	___almod@counter,f
  5807     02F9  2B05               	goto	l2306
  5808     02FA                     l2304:
  5809     02FA  3001               	movlw	1
  5810     02FB                     u2195:
  5811     02FB  35F0               	lslf	___almod@divisor,f
  5812     02FC  0DF1               	rlf	___almod@divisor+1,f
  5813     02FD  0DF2               	rlf	___almod@divisor+2,f
  5814     02FE  0DF3               	rlf	___almod@divisor+3,f
  5815     02FF  0B89               	decfsz	9,f
  5816     0300  2AFB               	goto	u2195
  5817     0301  3001               	movlw	1
  5818     0302  00F8               	movwf	??___almod
  5819     0303  0878               	movf	??___almod,w
  5820     0304  07F9               	addwf	___almod@counter,f
  5821     0305                     l2306:
  5822     0305  1FF3               	btfss	___almod@divisor+3,7
  5823     0306  2B08               	goto	u2201
  5824     0307  2B09               	goto	u2200
  5825     0308                     u2201:
  5826     0308  2AFA               	goto	l2304
  5827     0309                     u2200:
  5828     0309                     l2308:
  5829     0309  0873               	movf	___almod@divisor+3,w
  5830     030A  0277               	subwf	___almod@dividend+3,w
  5831     030B  1D03               	skipz
  5832     030C  2B17               	goto	u2215
  5833     030D  0872               	movf	___almod@divisor+2,w
  5834     030E  0276               	subwf	___almod@dividend+2,w
  5835     030F  1D03               	skipz
  5836     0310  2B17               	goto	u2215
  5837     0311  0871               	movf	___almod@divisor+1,w
  5838     0312  0275               	subwf	___almod@dividend+1,w
  5839     0313  1D03               	skipz
  5840     0314  2B17               	goto	u2215
  5841     0315  0870               	movf	___almod@divisor,w
  5842     0316  0274               	subwf	___almod@dividend,w
  5843     0317                     u2215:
  5844     0317  1C03               	skipc
  5845     0318  2B1A               	goto	u2211
  5846     0319  2B1B               	goto	u2210
  5847     031A                     u2211:
  5848     031A  2B23               	goto	l2312
  5849     031B                     u2210:
  5850     031B                     l2310:
  5851     031B  0870               	movf	___almod@divisor,w
  5852     031C  02F4               	subwf	___almod@dividend,f
  5853     031D  0871               	movf	___almod@divisor+1,w
  5854     031E  3BF5               	subwfb	___almod@dividend+1,f
  5855     031F  0872               	movf	___almod@divisor+2,w
  5856     0320  3BF6               	subwfb	___almod@dividend+2,f
  5857     0321  0873               	movf	___almod@divisor+3,w
  5858     0322  3BF7               	subwfb	___almod@dividend+3,f
  5859     0323                     l2312:
  5860     0323  3001               	movlw	1
  5861     0324                     u2225:
  5862     0324  36F3               	lsrf	___almod@divisor+3,f
  5863     0325  0CF2               	rrf	___almod@divisor+2,f
  5864     0326  0CF1               	rrf	___almod@divisor+1,f
  5865     0327  0CF0               	rrf	___almod@divisor,f
  5866     0328  0B89               	decfsz	9,f
  5867     0329  2B24               	goto	u2225
  5868     032A                     l2314:
  5869     032A  3001               	movlw	1
  5870     032B  02F9               	subwf	___almod@counter,f
  5871     032C  1D03               	btfss	3,2
  5872     032D  2B2F               	goto	u2231
  5873     032E  2B30               	goto	u2230
  5874     032F                     u2231:
  5875     032F  2B09               	goto	l2308
  5876     0330                     u2230:
  5877     0330                     l2316:
  5878     0330  087A               	movf	___almod@sign,w
  5879     0331  1903               	btfsc	3,2
  5880     0332  2B34               	goto	u2241
  5881     0333  2B35               	goto	u2240
  5882     0334                     u2241:
  5883     0334  2B40               	goto	l2320
  5884     0335                     u2240:
  5885     0335                     l2318:
  5886     0335  09F4               	comf	___almod@dividend,f
  5887     0336  09F5               	comf	___almod@dividend+1,f
  5888     0337  09F6               	comf	___almod@dividend+2,f
  5889     0338  09F7               	comf	___almod@dividend+3,f
  5890     0339  0AF4               	incf	___almod@dividend,f
  5891     033A  1903               	skipnz
  5892     033B  0AF5               	incf	___almod@dividend+1,f
  5893     033C  1903               	skipnz
  5894     033D  0AF6               	incf	___almod@dividend+2,f
  5895     033E  1903               	skipnz
  5896     033F  0AF7               	incf	___almod@dividend+3,f
  5897     0340                     l2320:
  5898     0340  0877               	movf	___almod@dividend+3,w
  5899     0341  00F3               	movwf	?___almod+3
  5900     0342  0876               	movf	___almod@dividend+2,w
  5901     0343  00F2               	movwf	?___almod+2
  5902     0344  0875               	movf	___almod@dividend+1,w
  5903     0345  00F1               	movwf	?___almod+1
  5904     0346  0874               	movf	___almod@dividend,w
  5905     0347  00F0               	movwf	?___almod
  5906     0348                     l530:
  5907     0348  0008               	return
  5908     0349                     __end_of___almod:
  5909                           
  5910                           	psect	text14
  5911     0349                     __ptext14:	
  5912 ;; *************** function ___aldiv *****************
  5913 ;; Defined at:
  5914 ;;		line 5 in file "C:\Program Files\Microchip\xc8\v2.46\pic\sources\c99\common\aldiv.c"
  5915 ;; Parameters:    Size  Location     Type
  5916 ;;  divisor         4    0[COMMON] long 
  5917 ;;  dividend        4    4[COMMON] long 
  5918 ;; Auto vars:     Size  Location     Type
  5919 ;;  quotient        4    2[BANK0 ] long 
  5920 ;;  sign            1    1[BANK0 ] unsigned char 
  5921 ;;  counter         1    0[BANK0 ] unsigned char 
  5922 ;; Return value:  Size  Location     Type
  5923 ;;                  4    0[COMMON] long 
  5924 ;; Registers used:
  5925 ;;		wreg, status,2, status,0
  5926 ;; Tracked objects:
  5927 ;;		On entry : 0/0
  5928 ;;		On exit  : 0/0
  5929 ;;		Unchanged: 0/0
  5930 ;; Data sizes:     COMMON   BANK0   BANK1   BANK2   BANK3   BANK4   BANK5   BANK6   BANK7   BANK8   BANK9  BANK10  BANK1
      +1  BANK12  BANK13  BANK14  BANK15  BANK16  BANK17  BANK18  BANK19  BANK20  BANK21  BANK22  BANK23  BANK24  BANK25
  5931 ;;      Params:         8       0       0       0       0       0       0       0       0       0       0       0       
      +0       0       0       0       0       0       0       0       0       0       0       0       0       0       0
  5932 ;;      Locals:         0       6       0       0       0       0       0       0       0       0       0       0       
      +0       0       0       0       0       0       0       0       0       0       0       0       0       0       0
  5933 ;;      Temps:          1       0       0       0       0       0       0       0       0       0       0       0       
      +0       0       0       0       0       0       0       0       0       0       0       0       0       0       0
  5934 ;;      Totals:         9       6       0       0       0       0       0       0       0       0       0       0       
      +0       0       0       0       0       0       0       0       0       0       0       0       0       0       0
  5935 ;;Total ram usage:       15 bytes
  5936 ;; Hardware stack levels used: 1
  5937 ;; This function calls:
  5938 ;;		Nothing
  5939 ;; This function is called by:
  5940 ;;		_OLED_Printf_Line
  5941 ;; This function uses a non-reentrant model
  5942 ;;
  5943                           
  5944     0349                     ___aldiv:	
  5945                           ;psect for function ___aldiv
  5946                           
  5947     0349                     l2252:	
  5948                           ;incstack = 0
  5949                           ; Regs used in ___aldiv: [wreg+status,2+status,0]
  5950                           
  5951     0349  0020               	movlb	0	; select bank0
  5952     034A  01A1               	clrf	___aldiv@sign
  5953     034B                     l2254:
  5954     034B  1FF3               	btfss	___aldiv@divisor+3,7
  5955     034C  2B4E               	goto	u2061
  5956     034D  2B4F               	goto	u2060
  5957     034E                     u2061:
  5958     034E  2B5C               	goto	l507
  5959     034F                     u2060:
  5960     034F                     l2256:
  5961     034F  09F0               	comf	___aldiv@divisor,f
  5962     0350  09F1               	comf	___aldiv@divisor+1,f
  5963     0351  09F2               	comf	___aldiv@divisor+2,f
  5964     0352  09F3               	comf	___aldiv@divisor+3,f
  5965     0353  0AF0               	incf	___aldiv@divisor,f
  5966     0354  1903               	skipnz
  5967     0355  0AF1               	incf	___aldiv@divisor+1,f
  5968     0356  1903               	skipnz
  5969     0357  0AF2               	incf	___aldiv@divisor+2,f
  5970     0358  1903               	skipnz
  5971     0359  0AF3               	incf	___aldiv@divisor+3,f
  5972     035A  01A1               	clrf	___aldiv@sign
  5973     035B  0AA1               	incf	___aldiv@sign,f
  5974     035C                     l507:
  5975     035C  1FF7               	btfss	___aldiv@dividend+3,7
  5976     035D  2B5F               	goto	u2071
  5977     035E  2B60               	goto	u2070
  5978     035F                     u2071:
  5979     035F  2B6F               	goto	l2262
  5980     0360                     u2070:
  5981     0360                     l2258:
  5982     0360  09F4               	comf	___aldiv@dividend,f
  5983     0361  09F5               	comf	___aldiv@dividend+1,f
  5984     0362  09F6               	comf	___aldiv@dividend+2,f
  5985     0363  09F7               	comf	___aldiv@dividend+3,f
  5986     0364  0AF4               	incf	___aldiv@dividend,f
  5987     0365  1903               	skipnz
  5988     0366  0AF5               	incf	___aldiv@dividend+1,f
  5989     0367  1903               	skipnz
  5990     0368  0AF6               	incf	___aldiv@dividend+2,f
  5991     0369  1903               	skipnz
  5992     036A  0AF7               	incf	___aldiv@dividend+3,f
  5993     036B                     l2260:
  5994     036B  3001               	movlw	1
  5995     036C  00F8               	movwf	??___aldiv
  5996     036D  0878               	movf	??___aldiv,w
  5997     036E  06A1               	xorwf	___aldiv@sign,f
  5998     036F                     l2262:
  5999     036F  3000               	movlw	0
  6000     0370  00A5               	movwf	___aldiv@quotient+3
  6001     0371  3000               	movlw	0
  6002     0372  00A4               	movwf	___aldiv@quotient+2
  6003     0373  3000               	movlw	0
  6004     0374  00A3               	movwf	___aldiv@quotient+1
  6005     0375  3000               	movlw	0
  6006     0376  00A2               	movwf	___aldiv@quotient
  6007     0377                     l2264:
  6008     0377  0873               	movf	___aldiv@divisor+3,w
  6009     0378  0472               	iorwf	___aldiv@divisor+2,w
  6010     0379  0471               	iorwf	___aldiv@divisor+1,w
  6011     037A  0470               	iorwf	___aldiv@divisor,w
  6012     037B  1903               	skipnz
  6013     037C  2B7E               	goto	u2081
  6014     037D  2B7F               	goto	u2080
  6015     037E                     u2081:
  6016     037E  2BC0               	goto	l2284
  6017     037F                     u2080:
  6018     037F                     l2266:
  6019     037F  01A0               	clrf	___aldiv@counter
  6020     0380  0AA0               	incf	___aldiv@counter,f
  6021     0381  2B8D               	goto	l2270
  6022     0382                     l2268:
  6023     0382  3001               	movlw	1
  6024     0383                     u2095:
  6025     0383  35F0               	lslf	___aldiv@divisor,f
  6026     0384  0DF1               	rlf	___aldiv@divisor+1,f
  6027     0385  0DF2               	rlf	___aldiv@divisor+2,f
  6028     0386  0DF3               	rlf	___aldiv@divisor+3,f
  6029     0387  0B89               	decfsz	9,f
  6030     0388  2B83               	goto	u2095
  6031     0389  3001               	movlw	1
  6032     038A  00F8               	movwf	??___aldiv
  6033     038B  0878               	movf	??___aldiv,w
  6034     038C  07A0               	addwf	___aldiv@counter,f
  6035     038D                     l2270:
  6036     038D  1FF3               	btfss	___aldiv@divisor+3,7
  6037     038E  2B90               	goto	u2101
  6038     038F  2B91               	goto	u2100
  6039     0390                     u2101:
  6040     0390  2B82               	goto	l2268
  6041     0391                     u2100:
  6042     0391                     l2272:
  6043     0391  3001               	movlw	1
  6044     0392                     u2115:
  6045     0392  35A2               	lslf	___aldiv@quotient,f
  6046     0393  0DA3               	rlf	___aldiv@quotient+1,f
  6047     0394  0DA4               	rlf	___aldiv@quotient+2,f
  6048     0395  0DA5               	rlf	___aldiv@quotient+3,f
  6049     0396  0B89               	decfsz	9,f
  6050     0397  2B92               	goto	u2115
  6051     0398                     l2274:
  6052     0398  0873               	movf	___aldiv@divisor+3,w
  6053     0399  0277               	subwf	___aldiv@dividend+3,w
  6054     039A  1D03               	skipz
  6055     039B  2BA6               	goto	u2125
  6056     039C  0872               	movf	___aldiv@divisor+2,w
  6057     039D  0276               	subwf	___aldiv@dividend+2,w
  6058     039E  1D03               	skipz
  6059     039F  2BA6               	goto	u2125
  6060     03A0  0871               	movf	___aldiv@divisor+1,w
  6061     03A1  0275               	subwf	___aldiv@dividend+1,w
  6062     03A2  1D03               	skipz
  6063     03A3  2BA6               	goto	u2125
  6064     03A4  0870               	movf	___aldiv@divisor,w
  6065     03A5  0274               	subwf	___aldiv@dividend,w
  6066     03A6                     u2125:
  6067     03A6  1C03               	skipc
  6068     03A7  2BA9               	goto	u2121
  6069     03A8  2BAA               	goto	u2120
  6070     03A9                     u2121:
  6071     03A9  2BB3               	goto	l2280
  6072     03AA                     u2120:
  6073     03AA                     l2276:
  6074     03AA  0870               	movf	___aldiv@divisor,w
  6075     03AB  02F4               	subwf	___aldiv@dividend,f
  6076     03AC  0871               	movf	___aldiv@divisor+1,w
  6077     03AD  3BF5               	subwfb	___aldiv@dividend+1,f
  6078     03AE  0872               	movf	___aldiv@divisor+2,w
  6079     03AF  3BF6               	subwfb	___aldiv@dividend+2,f
  6080     03B0  0873               	movf	___aldiv@divisor+3,w
  6081     03B1  3BF7               	subwfb	___aldiv@dividend+3,f
  6082     03B2                     l2278:
  6083     03B2  1422               	bsf	___aldiv@quotient,0
  6084     03B3                     l2280:
  6085     03B3  3001               	movlw	1
  6086     03B4                     u2135:
  6087     03B4  36F3               	lsrf	___aldiv@divisor+3,f
  6088     03B5  0CF2               	rrf	___aldiv@divisor+2,f
  6089     03B6  0CF1               	rrf	___aldiv@divisor+1,f
  6090     03B7  0CF0               	rrf	___aldiv@divisor,f
  6091     03B8  0B89               	decfsz	9,f
  6092     03B9  2BB4               	goto	u2135
  6093     03BA                     l2282:
  6094     03BA  3001               	movlw	1
  6095     03BB  02A0               	subwf	___aldiv@counter,f
  6096     03BC  1D03               	btfss	3,2
  6097     03BD  2BBF               	goto	u2141
  6098     03BE  2BC0               	goto	u2140
  6099     03BF                     u2141:
  6100     03BF  2B91               	goto	l2272
  6101     03C0                     u2140:
  6102     03C0                     l2284:
  6103     03C0  0821               	movf	___aldiv@sign,w
  6104     03C1  1903               	btfsc	3,2
  6105     03C2  2BC4               	goto	u2151
  6106     03C3  2BC5               	goto	u2150
  6107     03C4                     u2151:
  6108     03C4  2BD0               	goto	l2288
  6109     03C5                     u2150:
  6110     03C5                     l2286:
  6111     03C5  09A2               	comf	___aldiv@quotient,f
  6112     03C6  09A3               	comf	___aldiv@quotient+1,f
  6113     03C7  09A4               	comf	___aldiv@quotient+2,f
  6114     03C8  09A5               	comf	___aldiv@quotient+3,f
  6115     03C9  0AA2               	incf	___aldiv@quotient,f
  6116     03CA  1903               	skipnz
  6117     03CB  0AA3               	incf	___aldiv@quotient+1,f
  6118     03CC  1903               	skipnz
  6119     03CD  0AA4               	incf	___aldiv@quotient+2,f
  6120     03CE  1903               	skipnz
  6121     03CF  0AA5               	incf	___aldiv@quotient+3,f
  6122     03D0                     l2288:
  6123     03D0  0825               	movf	___aldiv@quotient+3,w
  6124     03D1  00F3               	movwf	?___aldiv+3
  6125     03D2  0824               	movf	___aldiv@quotient+2,w
  6126     03D3  00F2               	movwf	?___aldiv+2
  6127     03D4  0823               	movf	___aldiv@quotient+1,w
  6128     03D5  00F1               	movwf	?___aldiv+1
  6129     03D6  0822               	movf	___aldiv@quotient,w
  6130     03D7  00F0               	movwf	?___aldiv
  6131     03D8                     l517:
  6132     03D8  0008               	return
  6133     03D9                     __end_of___aldiv:
  6134                           
  6135                           	psect	text15
  6136     0DFF                     __ptext15:	
  6137 ;; *************** function _OLED_UpdateLine *****************
  6138 ;; Defined at:
  6139 ;;		line 370 in file "OLED_SSD1306.c"
  6140 ;; Parameters:    Size  Location     Type
  6141 ;;  page            1    wreg     unsigned char 
  6142 ;; Auto vars:     Size  Location     Type
  6143 ;;  page            1   12[COMMON] unsigned char 
  6144 ;; Return value:  Size  Location     Type
  6145 ;;                  1    wreg      void 
  6146 ;; Registers used:
  6147 ;;		wreg, fsr0l, fsr0h, status,2, status,0, pclath, cstack
  6148 ;; Tracked objects:
  6149 ;;		On entry : 0/0
  6150 ;;		On exit  : 0/0
  6151 ;;		Unchanged: 0/0
  6152 ;; Data sizes:     COMMON   BANK0   BANK1   BANK2   BANK3   BANK4   BANK5   BANK6   BANK7   BANK8   BANK9  BANK10  BANK1
      +1  BANK12  BANK13  BANK14  BANK15  BANK16  BANK17  BANK18  BANK19  BANK20  BANK21  BANK22  BANK23  BANK24  BANK25
  6153 ;;      Params:         0       0       0       0       0       0       0       0       0       0       0       0       
      +0       0       0       0       0       0       0       0       0       0       0       0       0       0       0
  6154 ;;      Locals:         1       0       0       0       0       0       0       0       0       0       0       0       
      +0       0       0       0       0       0       0       0       0       0       0       0       0       0       0
  6155 ;;      Temps:          0       6       0       0       0       0       0       0       0       0       0       0       
      +0       0       0       0       0       0       0       0       0       0       0       0       0       0       0
  6156 ;;      Totals:         1       6       0       0       0       0       0       0       0       0       0       0       
      +0       0       0       0       0       0       0       0       0       0       0       0       0       0       0
  6157 ;;Total ram usage:        7 bytes
  6158 ;; Hardware stack levels used: 1
  6159 ;; Hardware stack levels required when called: 4
  6160 ;; This function calls:
  6161 ;;		_OLED_WriteData
  6162 ;;		_OLED_YX
  6163 ;; This function is called by:
  6164 ;;		_OLED_Printf_Line
  6165 ;; This function uses a non-reentrant model
  6166 ;;
  6167                           
  6168     0DFF                     _OLED_UpdateLine:	
  6169                           ;psect for function _OLED_UpdateLine
  6170                           
  6171                           
  6172                           ;incstack = 0
  6173                           ; Regs used in _OLED_UpdateLine: [wreg-fsr0h+status,2+status,0+pclath+cstack]
  6174                           ;OLED_UpdateLine@page stored from wreg
  6175     0DFF  00FC               	movwf	OLED_UpdateLine@page
  6176     0E00                     l2190:
  6177                           
  6178                           ;OLED_SSD1306.c: 370: void OLED_UpdateLine(uint8_t page);OLED_SSD1306.c: 371: {;OLED_SSD
      +                          1306.c: 372:     if (page >= (32 / 8)) return;
  6179     0E00  3004               	movlw	4
  6180     0E01  027C               	subwf	OLED_UpdateLine@page,w
  6181     0E02  1C03               	skipc
  6182     0E03  2E05               	goto	u1931
  6183     0E04  2E06               	goto	u1930
  6184     0E05                     u1931:
  6185     0E05  2E07               	goto	l2194
  6186     0E06                     u1930:
  6187     0E06  2E2A               	goto	l191
  6188     0E07                     l2194:
  6189                           
  6190                           ;OLED_SSD1306.c: 374:     OLED_YX(page, 0);
  6191     0E07  01F7               	clrf	OLED_YX@col_char
  6192     0E08  087C               	movf	OLED_UpdateLine@page,w
  6193     0E09  318D  2547  318D   	fcall	_OLED_YX
  6194     0E0C                     l2196:
  6195                           
  6196                           ;OLED_SSD1306.c: 375:     (void)OLED_WriteData(screen_buffer[page], 128);
  6197     0E0C  087C               	movf	OLED_UpdateLine@page,w
  6198     0E0D  0020               	movlb	0	; select bank0
  6199     0E0E  00A0               	movwf	??_OLED_UpdateLine
  6200     0E0F  01A1               	clrf	??_OLED_UpdateLine+1
  6201     0E10  3007               	movlw	7
  6202     0E11                     u1945:
  6203     0E11  35A0               	lslf	??_OLED_UpdateLine,f
  6204     0E12  0DA1               	rlf	??_OLED_UpdateLine+1,f
  6205     0E13  0B89               	decfsz	9,f
  6206     0E14  2E11               	goto	u1945
  6207     0E15  30F0               	movlw	240
  6208     0E16  00A2               	movwf	??_OLED_UpdateLine+2
  6209     0E17  3024               	movlw	36
  6210     0E18  00A3               	movwf	??_OLED_UpdateLine+3
  6211     0E19  0820               	movf	??_OLED_UpdateLine,w
  6212     0E1A  0722               	addwf	??_OLED_UpdateLine+2,w
  6213     0E1B  00A4               	movwf	??_OLED_UpdateLine+4
  6214     0E1C  0821               	movf	??_OLED_UpdateLine+1,w
  6215     0E1D  3D23               	addwfc	??_OLED_UpdateLine+3,w
  6216     0E1E  00A5               	movwf	??_OLED_UpdateLine+5
  6217     0E1F  0824               	movf	??_OLED_UpdateLine+4,w
  6218     0E20  00F5               	movwf	OLED_WriteData@data
  6219     0E21  0825               	movf	??_OLED_UpdateLine+5,w
  6220     0E22  00F6               	movwf	OLED_WriteData@data+1
  6221     0E23  3080               	movlw	128
  6222     0E24  00F7               	movwf	OLED_WriteData@len
  6223     0E25  3000               	movlw	0
  6224     0E26  00F8               	movwf	OLED_WriteData@len+1
  6225     0E27  3180  205A  318D   	fcall	_OLED_WriteData
  6226     0E2A                     l191:
  6227     0E2A  0008               	return
  6228     0E2B                     __end_of_OLED_UpdateLine:
  6229                           
  6230                           	psect	text16
  6231     025A                     __ptext16:	
  6232 ;; *************** function _OLED_Init *****************
  6233 ;; Defined at:
  6234 ;;		line 298 in file "OLED_SSD1306.c"
  6235 ;; Parameters:    Size  Location     Type
  6236 ;;		None
  6237 ;; Auto vars:     Size  Location     Type
  6238 ;;		None
  6239 ;; Return value:  Size  Location     Type
  6240 ;;                  1    wreg      void 
  6241 ;; Registers used:
  6242 ;;		wreg, fsr0l, fsr0h, fsr1l, fsr1h, status,2, status,0, pclath, cstack
  6243 ;; Tracked objects:
  6244 ;;		On entry : 0/0
  6245 ;;		On exit  : 0/0
  6246 ;;		Unchanged: 0/0
  6247 ;; Data sizes:     COMMON   BANK0   BANK1   BANK2   BANK3   BANK4   BANK5   BANK6   BANK7   BANK8   BANK9  BANK10  BANK1
      +1  BANK12  BANK13  BANK14  BANK15  BANK16  BANK17  BANK18  BANK19  BANK20  BANK21  BANK22  BANK23  BANK24  BANK25
  6248 ;;      Params:         0       0       0       0       0       0       0       0       0       0       0       0       
      +0       0       0       0       0       0       0       0       0       0       0       0       0       0       0
  6249 ;;      Locals:         0       0       0       0       0       0       0       0       0       0       0       0       
      +0       0       0       0       0       0       0       0       0       0       0       0       0       0       0
  6250 ;;      Temps:          1       0       0       0       0       0       0       0       0       0       0       0       
      +0       0       0       0       0       0       0       0       0       0       0       0       0       0       0
  6251 ;;      Totals:         1       0       0       0       0       0       0       0       0       0       0       0       
      +0       0       0       0       0       0       0       0       0       0       0       0       0       0       0
  6252 ;;Total ram usage:        1 bytes
  6253 ;; Hardware stack levels used: 1
  6254 ;; Hardware stack levels required when called: 5
  6255 ;; This function calls:
  6256 ;;		_OLED_Clear
  6257 ;;		_OLED_Command
  6258 ;; This function is called by:
  6259 ;;		_main
  6260 ;; This function uses a non-reentrant model
  6261 ;;
  6262                           
  6263     025A                     _OLED_Init:	
  6264                           ;psect for function _OLED_Init
  6265                           
  6266     025A                     l2574:	
  6267                           ;incstack = 0
  6268                           ; Regs used in _OLED_Init: [wreg-fsr1h+status,2+status,0+pclath+cstack]
  6269                           
  6270                           
  6271                           ;OLED_SSD1306.c: 300:     _delay((unsigned long)((10)*(32000000/4000.0)));
  6272     025A  3068               	movlw	104
  6273     025B  00FD               	movwf	??_OLED_Init
  6274     025C  30E4               	movlw	228
  6275     025D                     u3337:
  6276     025D  0B89               	decfsz	9,f
  6277     025E  2A5D               	goto	u3337
  6278     025F  0BFD               	decfsz	??_OLED_Init,f
  6279     0260  2A5D               	goto	u3337
  6280     0261  3200               	nop2
  6281     0262                     l2576:
  6282                           
  6283                           ;OLED_SSD1306.c: 302:     (void)OLED_Command(0xAE);
  6284     0262  30AE               	movlw	174
  6285     0263  318E  2658  3182   	fcall	_OLED_Command
  6286     0266                     l2578:
  6287                           
  6288                           ;OLED_SSD1306.c: 303:     (void)OLED_Command(0x2E);
  6289     0266  302E               	movlw	46
  6290     0267  318E  2658  3182   	fcall	_OLED_Command
  6291     026A                     l2580:
  6292                           
  6293                           ;OLED_SSD1306.c: 305:     (void)OLED_Command(0xD5);
  6294     026A  30D5               	movlw	213
  6295     026B  318E  2658  3182   	fcall	_OLED_Command
  6296     026E                     l2582:
  6297                           
  6298                           ;OLED_SSD1306.c: 306:     (void)OLED_Command(0x80);
  6299     026E  3080               	movlw	128
  6300     026F  318E  2658  3182   	fcall	_OLED_Command
  6301     0272                     l2584:
  6302                           
  6303                           ;OLED_SSD1306.c: 308:     (void)OLED_Command(0xA8);
  6304     0272  30A8               	movlw	168
  6305     0273  318E  2658  3182   	fcall	_OLED_Command
  6306     0276                     l2586:
  6307                           
  6308                           ;OLED_SSD1306.c: 312:     (void)OLED_Command(0x1F);
  6309     0276  301F               	movlw	31
  6310     0277  318E  2658  3182   	fcall	_OLED_Command
  6311     027A                     l2588:
  6312                           
  6313                           ;OLED_SSD1306.c: 315:     (void)OLED_Command(0xD3);
  6314     027A  30D3               	movlw	211
  6315     027B  318E  2658  3182   	fcall	_OLED_Command
  6316     027E                     l2590:
  6317                           
  6318                           ;OLED_SSD1306.c: 316:     (void)OLED_Command(0x00);
  6319     027E  3000               	movlw	0
  6320     027F  318E  2658  3182   	fcall	_OLED_Command
  6321     0282                     l2592:
  6322                           
  6323                           ;OLED_SSD1306.c: 318:     (void)OLED_Command(0x40 | 0x00);
  6324     0282  3040               	movlw	64
  6325     0283  318E  2658  3182   	fcall	_OLED_Command
  6326     0286                     l2594:
  6327                           
  6328                           ;OLED_SSD1306.c: 320:     (void)OLED_Command(0x8D);
  6329     0286  308D               	movlw	141
  6330     0287  318E  2658  3182   	fcall	_OLED_Command
  6331     028A                     l2596:
  6332                           
  6333                           ;OLED_SSD1306.c: 321:     (void)OLED_Command(0x14);
  6334     028A  3014               	movlw	20
  6335     028B  318E  2658  3182   	fcall	_OLED_Command
  6336     028E                     l2598:
  6337                           
  6338                           ;OLED_SSD1306.c: 323:     (void)OLED_Command(0x20);
  6339     028E  3020               	movlw	32
  6340     028F  318E  2658  3182   	fcall	_OLED_Command
  6341     0292                     l2600:
  6342                           
  6343                           ;OLED_SSD1306.c: 324:     (void)OLED_Command(0x02);
  6344     0292  3002               	movlw	2
  6345     0293  318E  2658  3182   	fcall	_OLED_Command
  6346     0296                     l2602:
  6347                           
  6348                           ;OLED_SSD1306.c: 326:     (void)OLED_Command(0xA0 | 0x01);
  6349     0296  30A1               	movlw	161
  6350     0297  318E  2658  3182   	fcall	_OLED_Command
  6351     029A                     l2604:
  6352                           
  6353                           ;OLED_SSD1306.c: 327:     (void)OLED_Command(0xC8);
  6354     029A  30C8               	movlw	200
  6355     029B  318E  2658  3182   	fcall	_OLED_Command
  6356     029E                     l2606:
  6357                           
  6358                           ;OLED_SSD1306.c: 329:     (void)OLED_Command(0xDA);
  6359     029E  30DA               	movlw	218
  6360     029F  318E  2658  3182   	fcall	_OLED_Command
  6361     02A2                     l2608:
  6362                           
  6363                           ;OLED_SSD1306.c: 333:     (void)OLED_Command(0x02);
  6364     02A2  3002               	movlw	2
  6365     02A3  318E  2658  3182   	fcall	_OLED_Command
  6366     02A6                     l2610:
  6367                           
  6368                           ;OLED_SSD1306.c: 336:     (void)OLED_Command(0x81);
  6369     02A6  3081               	movlw	129
  6370     02A7  318E  2658  3182   	fcall	_OLED_Command
  6371     02AA                     l2612:
  6372                           
  6373                           ;OLED_SSD1306.c: 337:     (void)OLED_Command(0x8F);
  6374     02AA  308F               	movlw	143
  6375     02AB  318E  2658  3182   	fcall	_OLED_Command
  6376     02AE                     l2614:
  6377                           
  6378                           ;OLED_SSD1306.c: 339:     (void)OLED_Command(0xD9);
  6379     02AE  30D9               	movlw	217
  6380     02AF  318E  2658  3182   	fcall	_OLED_Command
  6381     02B2                     l2616:
  6382                           
  6383                           ;OLED_SSD1306.c: 340:     (void)OLED_Command(0xF1);
  6384     02B2  30F1               	movlw	241
  6385     02B3  318E  2658  3182   	fcall	_OLED_Command
  6386     02B6                     l2618:
  6387                           
  6388                           ;OLED_SSD1306.c: 342:     (void)OLED_Command(0xDB);
  6389     02B6  30DB               	movlw	219
  6390     02B7  318E  2658  3182   	fcall	_OLED_Command
  6391     02BA                     l2620:
  6392                           
  6393                           ;OLED_SSD1306.c: 343:     (void)OLED_Command(0x40);
  6394     02BA  3040               	movlw	64
  6395     02BB  318E  2658  3182   	fcall	_OLED_Command
  6396     02BE                     l2622:
  6397                           
  6398                           ;OLED_SSD1306.c: 345:     (void)OLED_Command(0xA4);
  6399     02BE  30A4               	movlw	164
  6400     02BF  318E  2658  3182   	fcall	_OLED_Command
  6401     02C2                     l2624:
  6402                           
  6403                           ;OLED_SSD1306.c: 346:     (void)OLED_Command(0xA6);
  6404     02C2  30A6               	movlw	166
  6405     02C3  318E  2658  3182   	fcall	_OLED_Command
  6406     02C6                     l2626:
  6407                           
  6408                           ;OLED_SSD1306.c: 347:     (void)OLED_Command(0xAF);
  6409     02C6  30AF               	movlw	175
  6410     02C7  318E  2658  3182   	fcall	_OLED_Command
  6411     02CA                     l2628:
  6412                           
  6413                           ;OLED_SSD1306.c: 350:     OLED_Clear();
  6414     02CA  318F  27B3  3182   	fcall	_OLED_Clear
  6415     02CD                     l182:
  6416     02CD  0008               	return
  6417     02CE                     __end_of_OLED_Init:
  6418                           
  6419                           	psect	text17
  6420     0FB3                     __ptext17:	
  6421 ;; *************** function _OLED_Clear *****************
  6422 ;; Defined at:
  6423 ;;		line 356 in file "OLED_SSD1306.c"
  6424 ;; Parameters:    Size  Location     Type
  6425 ;;		None
  6426 ;; Auto vars:     Size  Location     Type
  6427 ;;  p               1   12[COMMON] unsigned char 
  6428 ;; Return value:  Size  Location     Type
  6429 ;;                  1    wreg      void 
  6430 ;; Registers used:
  6431 ;;		wreg, fsr0l, fsr0h, fsr1l, fsr1h, status,2, status,0, pclath, cstack
  6432 ;; Tracked objects:
  6433 ;;		On entry : 0/0
  6434 ;;		On exit  : 0/0
  6435 ;;		Unchanged: 0/0
  6436 ;; Data sizes:     COMMON   BANK0   BANK1   BANK2   BANK3   BANK4   BANK5   BANK6   BANK7   BANK8   BANK9  BANK10  BANK1
      +1  BANK12  BANK13  BANK14  BANK15  BANK16  BANK17  BANK18  BANK19  BANK20  BANK21  BANK22  BANK23  BANK24  BANK25
  6437 ;;      Params:         0       0       0       0       0       0       0       0       0       0       0       0       
      +0       0       0       0       0       0       0       0       0       0       0       0       0       0       0
  6438 ;;      Locals:         1       0       0       0       0       0       0       0       0       0       0       0       
      +0       0       0       0       0       0       0       0       0       0       0       0       0       0       0
  6439 ;;      Temps:          0       6       0       0       0       0       0       0       0       0       0       0       
      +0       0       0       0       0       0       0       0       0       0       0       0       0       0       0
  6440 ;;      Totals:         1       6       0       0       0       0       0       0       0       0       0       0       
      +0       0       0       0       0       0       0       0       0       0       0       0       0       0       0
  6441 ;;Total ram usage:        7 bytes
  6442 ;; Hardware stack levels used: 1
  6443 ;; Hardware stack levels required when called: 4
  6444 ;; This function calls:
  6445 ;;		_OLED_WriteData
  6446 ;;		_OLED_YX
  6447 ;;		_memset
  6448 ;; This function is called by:
  6449 ;;		_main
  6450 ;;		_OLED_Init
  6451 ;; This function uses a non-reentrant model
  6452 ;;
  6453                           
  6454     0FB3                     _OLED_Clear:	
  6455                           ;psect for function _OLED_Clear
  6456                           
  6457     0FB3                     l2174:	
  6458                           ;incstack = 0
  6459                           ; Regs used in _OLED_Clear: [wreg-fsr1h+status,2+status,0+pclath+cstack]
  6460                           
  6461                           
  6462                           ;OLED_SSD1306.c: 358:     for (uint8_t p = 0; p < (32 / 8); p++)
  6463     0FB3  01FC               	clrf	OLED_Clear@p
  6464     0FB4                     l2180:
  6465                           
  6466                           ;OLED_SSD1306.c: 359:     {;OLED_SSD1306.c: 360:         memset(screen_buffer[p], 0, 128
      +                          );
  6467     0FB4  087C               	movf	OLED_Clear@p,w
  6468     0FB5  0020               	movlb	0	; select bank0
  6469     0FB6  00A0               	movwf	??_OLED_Clear
  6470     0FB7  01A1               	clrf	??_OLED_Clear+1
  6471     0FB8  3007               	movlw	7
  6472     0FB9                     u1905:
  6473     0FB9  35A0               	lslf	??_OLED_Clear,f
  6474     0FBA  0DA1               	rlf	??_OLED_Clear+1,f
  6475     0FBB  0B89               	decfsz	9,f
  6476     0FBC  2FB9               	goto	u1905
  6477     0FBD  30F0               	movlw	240
  6478     0FBE  00A2               	movwf	??_OLED_Clear+2
  6479     0FBF  3024               	movlw	36
  6480     0FC0  00A3               	movwf	??_OLED_Clear+3
  6481     0FC1  0820               	movf	??_OLED_Clear,w
  6482     0FC2  0722               	addwf	??_OLED_Clear+2,w
  6483     0FC3  00F0               	movwf	memset@dest
  6484     0FC4  0821               	movf	??_OLED_Clear+1,w
  6485     0FC5  3D23               	addwfc	??_OLED_Clear+3,w
  6486     0FC6  00F1               	movwf	memset@dest+1
  6487     0FC7  3000               	movlw	0
  6488     0FC8  00F2               	movwf	memset@c
  6489     0FC9  00F3               	movwf	memset@c+1
  6490     0FCA  3080               	movlw	128
  6491     0FCB  00F4               	movwf	memset@n
  6492     0FCC  3000               	movlw	0
  6493     0FCD  00F5               	movwf	memset@n+1
  6494     0FCE  318D  250D  318F   	fcall	_memset
  6495     0FD1                     l2182:
  6496                           
  6497                           ;OLED_SSD1306.c: 362:         OLED_YX(p, 0);
  6498     0FD1  01F7               	clrf	OLED_YX@col_char
  6499     0FD2  087C               	movf	OLED_Clear@p,w
  6500     0FD3  318D  2547  318F   	fcall	_OLED_YX
  6501     0FD6                     l2184:
  6502                           
  6503                           ;OLED_SSD1306.c: 363:         (void)OLED_WriteData(screen_buffer[p], 128);
  6504     0FD6  087C               	movf	OLED_Clear@p,w
  6505     0FD7  0020               	movlb	0	; select bank0
  6506     0FD8  00A0               	movwf	??_OLED_Clear
  6507     0FD9  01A1               	clrf	??_OLED_Clear+1
  6508     0FDA  3007               	movlw	7
  6509     0FDB                     u1915:
  6510     0FDB  35A0               	lslf	??_OLED_Clear,f
  6511     0FDC  0DA1               	rlf	??_OLED_Clear+1,f
  6512     0FDD  0B89               	decfsz	9,f
  6513     0FDE  2FDB               	goto	u1915
  6514     0FDF  30F0               	movlw	240
  6515     0FE0  00A2               	movwf	??_OLED_Clear+2
  6516     0FE1  3024               	movlw	36
  6517     0FE2  00A3               	movwf	??_OLED_Clear+3
  6518     0FE3  0820               	movf	??_OLED_Clear,w
  6519     0FE4  0722               	addwf	??_OLED_Clear+2,w
  6520     0FE5  00A4               	movwf	??_OLED_Clear+4
  6521     0FE6  0821               	movf	??_OLED_Clear+1,w
  6522     0FE7  3D23               	addwfc	??_OLED_Clear+3,w
  6523     0FE8  00A5               	movwf	??_OLED_Clear+5
  6524     0FE9  0824               	movf	??_OLED_Clear+4,w
  6525     0FEA  00F5               	movwf	OLED_WriteData@data
  6526     0FEB  0825               	movf	??_OLED_Clear+5,w
  6527     0FEC  00F6               	movwf	OLED_WriteData@data+1
  6528     0FED  3080               	movlw	128
  6529     0FEE  00F7               	movwf	OLED_WriteData@len
  6530     0FEF  3000               	movlw	0
  6531     0FF0  00F8               	movwf	OLED_WriteData@len+1
  6532     0FF1  3180  205A  318F   	fcall	_OLED_WriteData
  6533     0FF4                     l2186:
  6534                           
  6535                           ;OLED_SSD1306.c: 364:     }
  6536     0FF4  3001               	movlw	1
  6537     0FF5  0020               	movlb	0	; select bank0
  6538     0FF6  00A0               	movwf	??_OLED_Clear
  6539     0FF7  0820               	movf	??_OLED_Clear,w
  6540     0FF8  07FC               	addwf	OLED_Clear@p,f
  6541     0FF9                     l2188:
  6542     0FF9  3004               	movlw	4
  6543     0FFA  027C               	subwf	OLED_Clear@p,w
  6544     0FFB  1C03               	skipc
  6545     0FFC  2FFE               	goto	u1921
  6546     0FFD  2FFF               	goto	u1920
  6547     0FFE                     u1921:
  6548     0FFE  2FB4               	goto	l2180
  6549     0FFF                     u1920:
  6550     0FFF                     l187:
  6551     0FFF  0008               	return
  6552     1000                     __end_of_OLED_Clear:
  6553                           
  6554                           	psect	text18
  6555     0D0D                     __ptext18:	
  6556 ;; *************** function _memset *****************
  6557 ;; Defined at:
  6558 ;;		line 3 in file "C:\Program Files\Microchip\xc8\v2.46\pic\sources\c99\common\memset.c"
  6559 ;; Parameters:    Size  Location     Type
  6560 ;;  dest            2    0[COMMON] PTR void 
  6561 ;;		 -> screen_buffer(512), 
  6562 ;;  c               2    2[COMMON] int 
  6563 ;;  n               2    4[COMMON] unsigned int 
  6564 ;; Auto vars:     Size  Location     Type
  6565 ;;  p               2    6[COMMON] PTR unsigned char 
  6566 ;;		 -> screen_buffer(512), 
  6567 ;; Return value:  Size  Location     Type
  6568 ;;                  2    0[COMMON] PTR void 
  6569 ;; Registers used:
  6570 ;;		wreg, fsr1l, fsr1h, status,2, status,0
  6571 ;; Tracked objects:
  6572 ;;		On entry : 0/0
  6573 ;;		On exit  : 0/0
  6574 ;;		Unchanged: 0/0
  6575 ;; Data sizes:     COMMON   BANK0   BANK1   BANK2   BANK3   BANK4   BANK5   BANK6   BANK7   BANK8   BANK9  BANK10  BANK1
      +1  BANK12  BANK13  BANK14  BANK15  BANK16  BANK17  BANK18  BANK19  BANK20  BANK21  BANK22  BANK23  BANK24  BANK25
  6576 ;;      Params:         6       0       0       0       0       0       0       0       0       0       0       0       
      +0       0       0       0       0       0       0       0       0       0       0       0       0       0       0
  6577 ;;      Locals:         2       0       0       0       0       0       0       0       0       0       0       0       
      +0       0       0       0       0       0       0       0       0       0       0       0       0       0       0
  6578 ;;      Temps:          0       0       0       0       0       0       0       0       0       0       0       0       
      +0       0       0       0       0       0       0       0       0       0       0       0       0       0       0
  6579 ;;      Totals:         8       0       0       0       0       0       0       0       0       0       0       0       
      +0       0       0       0       0       0       0       0       0       0       0       0       0       0       0
  6580 ;;Total ram usage:        8 bytes
  6581 ;; Hardware stack levels used: 1
  6582 ;; This function calls:
  6583 ;;		Nothing
  6584 ;; This function is called by:
  6585 ;;		_OLED_Clear
  6586 ;;		_OLED_Printf_Line
  6587 ;; This function uses a non-reentrant model
  6588 ;;
  6589                           
  6590     0D0D                     _memset:	
  6591                           ;psect for function _memset
  6592                           
  6593     0D0D                     l2158:	
  6594                           ;incstack = 0
  6595                           ; Regs used in _memset: [wreg+fsr1l+fsr1h+status,2+status,0]
  6596                           
  6597     0D0D  0871               	movf	memset@dest+1,w
  6598     0D0E  00F7               	movwf	memset@p+1
  6599     0D0F  0870               	movf	memset@dest,w
  6600     0D10  00F6               	movwf	memset@p
  6601     0D11  2D1C               	goto	l2164
  6602     0D12                     l2160:
  6603     0D12  0876               	movf	memset@p,w
  6604     0D13  0086               	movwf	6
  6605     0D14  0877               	movf	memset@p+1,w
  6606     0D15  0087               	movwf	7
  6607     0D16  0872               	movf	memset@c,w
  6608     0D17  0081               	movwf	1
  6609     0D18                     l2162:
  6610     0D18  3001               	movlw	1
  6611     0D19  07F6               	addwf	memset@p,f
  6612     0D1A  3000               	movlw	0
  6613     0D1B  3DF7               	addwfc	memset@p+1,f
  6614     0D1C                     l2164:
  6615     0D1C  3001               	movlw	1
  6616     0D1D  02F4               	subwf	memset@n,f
  6617     0D1E  3000               	movlw	0
  6618     0D1F  3BF5               	subwfb	memset@n+1,f
  6619     0D20  0A74               	incf	memset@n,w
  6620     0D21  1D03               	skipz
  6621     0D22  2D27               	goto	u1891
  6622     0D23  0A75               	incf	memset@n+1,w
  6623     0D24  1D03               	btfss	3,2
  6624     0D25  2D27               	goto	u1891
  6625     0D26  2D28               	goto	u1890
  6626     0D27                     u1891:
  6627     0D27  2D12               	goto	l2160
  6628     0D28                     u1890:
  6629     0D28                     l910:
  6630     0D28  0008               	return
  6631     0D29                     __end_of_memset:
  6632                           
  6633                           	psect	text19
  6634     0D47                     __ptext19:	
  6635 ;; *************** function _OLED_YX *****************
  6636 ;; Defined at:
  6637 ;;		line 283 in file "OLED_SSD1306.c"
  6638 ;; Parameters:    Size  Location     Type
  6639 ;;  page            1    wreg     unsigned char 
  6640 ;;  col_char        1    7[COMMON] unsigned char 
  6641 ;; Auto vars:     Size  Location     Type
  6642 ;;  page            1    9[COMMON] unsigned char 
  6643 ;;  col             1   10[COMMON] unsigned char 
  6644 ;; Return value:  Size  Location     Type
  6645 ;;                  1    wreg      void 
  6646 ;; Registers used:
  6647 ;;		wreg, status,2, status,0, pclath, cstack
  6648 ;; Tracked objects:
  6649 ;;		On entry : 0/0
  6650 ;;		On exit  : 0/0
  6651 ;;		Unchanged: 0/0
  6652 ;; Data sizes:     COMMON   BANK0   BANK1   BANK2   BANK3   BANK4   BANK5   BANK6   BANK7   BANK8   BANK9  BANK10  BANK1
      +1  BANK12  BANK13  BANK14  BANK15  BANK16  BANK17  BANK18  BANK19  BANK20  BANK21  BANK22  BANK23  BANK24  BANK25
  6653 ;;      Params:         1       0       0       0       0       0       0       0       0       0       0       0       
      +0       0       0       0       0       0       0       0       0       0       0       0       0       0       0
  6654 ;;      Locals:         2       0       0       0       0       0       0       0       0       0       0       0       
      +0       0       0       0       0       0       0       0       0       0       0       0       0       0       0
  6655 ;;      Temps:          1       0       0       0       0       0       0       0       0       0       0       0       
      +0       0       0       0       0       0       0       0       0       0       0       0       0       0       0
  6656 ;;      Totals:         4       0       0       0       0       0       0       0       0       0       0       0       
      +0       0       0       0       0       0       0       0       0       0       0       0       0       0       0
  6657 ;;Total ram usage:        4 bytes
  6658 ;; Hardware stack levels used: 1
  6659 ;; Hardware stack levels required when called: 3
  6660 ;; This function calls:
  6661 ;;		_OLED_Command
  6662 ;; This function is called by:
  6663 ;;		_OLED_Clear
  6664 ;;		_OLED_UpdateLine
  6665 ;;		_OLED_WriteString
  6666 ;; This function uses a non-reentrant model
  6667 ;;
  6668                           
  6669     0D47                     _OLED_YX:	
  6670                           ;psect for function _OLED_YX
  6671                           
  6672                           
  6673                           ;incstack = 0
  6674                           ; Regs used in _OLED_YX: [wreg+status,2+status,0+pclath+cstack]
  6675                           ;OLED_YX@page stored from wreg
  6676     0D47  00F9               	movwf	OLED_YX@page
  6677     0D48                     l2150:
  6678                           
  6679                           ;OLED_SSD1306.c: 283: void OLED_YX(uint8_t page, uint8_t col_char);OLED_SSD1306.c: 284: 
      +                          {;OLED_SSD1306.c: 285:     uint8_t col = (uint8_t)(col_char * 8);
  6680     0D48  0877               	movf	OLED_YX@col_char,w
  6681     0D49  00F8               	movwf	??_OLED_YX
  6682     0D4A  3002               	movlw	2
  6683     0D4B                     u1875:
  6684     0D4B  35F8               	lslf	??_OLED_YX,f
  6685     0D4C  3EFF               	addlw	-1
  6686     0D4D  1D03               	skipz
  6687     0D4E  2D4B               	goto	u1875
  6688     0D4F  3578               	lslf	??_OLED_YX,w
  6689     0D50  00FA               	movwf	OLED_YX@col
  6690     0D51                     l2152:
  6691                           
  6692                           ;OLED_SSD1306.c: 287:     (void)OLED_Command(0xB0 | (page & 0x07));
  6693     0D51  0879               	movf	OLED_YX@page,w
  6694     0D52  3907               	andlw	7
  6695     0D53  38B0               	iorlw	176
  6696     0D54  318E  2658  318D   	fcall	_OLED_Command
  6697     0D57                     l2154:
  6698                           
  6699                           ;OLED_SSD1306.c: 288:     (void)OLED_Command(0x00 | (col & 0x0F));
  6700     0D57  087A               	movf	OLED_YX@col,w
  6701     0D58  390F               	andlw	15
  6702     0D59  318E  2658  318D   	fcall	_OLED_Command
  6703     0D5C                     l2156:
  6704                           
  6705                           ;OLED_SSD1306.c: 289:     (void)OLED_Command(0x10 | ((col >> 4) & 0x0F));
  6706     0D5C  087A               	movf	OLED_YX@col,w
  6707     0D5D  00F8               	movwf	??_OLED_YX
  6708     0D5E  3004               	movlw	4
  6709     0D5F                     u1885:
  6710     0D5F  36F8               	lsrf	??_OLED_YX,f
  6711     0D60  0B89               	decfsz	9,f
  6712     0D61  2D5F               	goto	u1885
  6713     0D62  0878               	movf	??_OLED_YX,w
  6714     0D63  390F               	andlw	15
  6715     0D64  3810               	iorlw	16
  6716     0D65  318E  2658  318D   	fcall	_OLED_Command
  6717     0D68                     l179:
  6718     0D68  0008               	return
  6719     0D69                     __end_of_OLED_YX:
  6720                           
  6721                           	psect	text20
  6722     0E58                     __ptext20:	
  6723 ;; *************** function _OLED_Command *****************
  6724 ;; Defined at:
  6725 ;;		line 190 in file "OLED_SSD1306.c"
  6726 ;; Parameters:    Size  Location     Type
  6727 ;;  cmd             1    wreg     unsigned char 
  6728 ;; Auto vars:     Size  Location     Type
  6729 ;;  cmd             1    5[COMMON] unsigned char 
  6730 ;;  st              1    6[COMMON] enum E6043
  6731 ;; Return value:  Size  Location     Type
  6732 ;;                  1    wreg      enum E6043
  6733 ;; Registers used:
  6734 ;;		wreg, status,2, status,0, pclath, cstack
  6735 ;; Tracked objects:
  6736 ;;		On entry : 0/0
  6737 ;;		On exit  : 0/0
  6738 ;;		Unchanged: 0/0
  6739 ;; Data sizes:     COMMON   BANK0   BANK1   BANK2   BANK3   BANK4   BANK5   BANK6   BANK7   BANK8   BANK9  BANK10  BANK1
      +1  BANK12  BANK13  BANK14  BANK15  BANK16  BANK17  BANK18  BANK19  BANK20  BANK21  BANK22  BANK23  BANK24  BANK25
  6740 ;;      Params:         0       0       0       0       0       0       0       0       0       0       0       0       
      +0       0       0       0       0       0       0       0       0       0       0       0       0       0       0
  6741 ;;      Locals:         2       0       0       0       0       0       0       0       0       0       0       0       
      +0       0       0       0       0       0       0       0       0       0       0       0       0       0       0
  6742 ;;      Temps:          0       0       0       0       0       0       0       0       0       0       0       0       
      +0       0       0       0       0       0       0       0       0       0       0       0       0       0       0
  6743 ;;      Totals:         2       0       0       0       0       0       0       0       0       0       0       0       
      +0       0       0       0       0       0       0       0       0       0       0       0       0       0       0
  6744 ;;Total ram usage:        2 bytes
  6745 ;; Hardware stack levels used: 1
  6746 ;; Hardware stack levels required when called: 2
  6747 ;; This function calls:
  6748 ;;		_I2C_Start
  6749 ;;		_I2C_Stop
  6750 ;;		_I2C_WriteByte
  6751 ;;		_SSD1306_CtrlW
  6752 ;; This function is called by:
  6753 ;;		_OLED_SetOrientation
  6754 ;;		_OLED_YX
  6755 ;;		_OLED_Init
  6756 ;;		_OLED_UpdatePartialLine
  6757 ;; This function uses a non-reentrant model
  6758 ;;
  6759                           
  6760     0E58                     _OLED_Command:	
  6761                           ;psect for function _OLED_Command
  6762                           
  6763                           
  6764                           ;incstack = 0
  6765                           ; Regs used in _OLED_Command: [wreg+status,2+status,0+pclath+cstack]
  6766                           ;OLED_Command@cmd stored from wreg
  6767     0E58  00F5               	movwf	OLED_Command@cmd
  6768     0E59                     l2082:
  6769                           
  6770                           ;OLED_SSD1306.c: 190: static I2C_Status_t OLED_Command(uint8_t cmd);OLED_SSD1306.c: 191:
      +                           {;OLED_SSD1306.c: 192:     I2C_Status_t st;;OLED_SSD1306.c: 194:     st = I2C_Start();
  6771     0E59  318D  25B0  318E   	fcall	_I2C_Start
  6772     0E5C  00F6               	movwf	OLED_Command@st
  6773     0E5D                     l2084:
  6774                           
  6775                           ;OLED_SSD1306.c: 195:     if (st != I2C_OK) return st;
  6776     0E5D  0876               	movf	OLED_Command@st,w
  6777     0E5E  1903               	btfsc	3,2
  6778     0E5F  2E61               	goto	u1781
  6779     0E60  2E62               	goto	u1780
  6780     0E61                     u1781:
  6781     0E61  2E63               	goto	l2088
  6782     0E62                     u1780:
  6783     0E62  2E85               	goto	l153
  6784     0E63                     l2088:
  6785                           
  6786                           ;OLED_SSD1306.c: 197:     st = I2C_WriteByte(SSD1306_CtrlW());
  6787     0E63  318C  24C0  318E   	fcall	_SSD1306_CtrlW
  6788     0E66  318E  2686  318E   	fcall	_I2C_WriteByte
  6789     0E69  00F6               	movwf	OLED_Command@st
  6790     0E6A                     l2090:
  6791                           
  6792                           ;OLED_SSD1306.c: 198:     if (st != I2C_OK) { I2C_Stop(); return st; }
  6793     0E6A  0876               	movf	OLED_Command@st,w
  6794     0E6B  1903               	btfsc	3,2
  6795     0E6C  2E6E               	goto	u1791
  6796     0E6D  2E6F               	goto	u1790
  6797     0E6E                     u1791:
  6798     0E6E  2E73               	goto	l2096
  6799     0E6F                     u1790:
  6800     0E6F                     l2092:
  6801     0E6F  318D  2569  318E   	fcall	_I2C_Stop
  6802     0E72  2E85               	goto	l153
  6803     0E73                     l2096:
  6804                           
  6805                           ;OLED_SSD1306.c: 200:     st = I2C_WriteByte(0x00);
  6806     0E73  3000               	movlw	0
  6807     0E74  318E  2686  318E   	fcall	_I2C_WriteByte
  6808     0E77  00F6               	movwf	OLED_Command@st
  6809     0E78                     l2098:
  6810                           
  6811                           ;OLED_SSD1306.c: 201:     if (st != I2C_OK) { I2C_Stop(); return st; }
  6812     0E78  0876               	movf	OLED_Command@st,w
  6813     0E79  1903               	btfsc	3,2
  6814     0E7A  2E7C               	goto	u1801
  6815     0E7B  2E7D               	goto	u1800
  6816     0E7C                     u1801:
  6817     0E7C  2E7E               	goto	l2104
  6818     0E7D                     u1800:
  6819     0E7D  2E6F               	goto	l2092
  6820     0E7E                     l2104:
  6821     0E7E  0875               	movf	OLED_Command@cmd,w
  6822     0E7F  318E  2686  318E   	fcall	_I2C_WriteByte
  6823                           
  6824                           ;OLED_SSD1306.c: 204:     I2C_Stop();
  6825     0E82  318D  2569  318E   	fcall	_I2C_Stop
  6826     0E85                     l153:
  6827     0E85  0008               	return
  6828     0E86                     __end_of_OLED_Command:
  6829                           
  6830                           	psect	text21
  6831     005A                     __ptext21:	
  6832 ;; *************** function _OLED_WriteData *****************
  6833 ;; Defined at:
  6834 ;;		line 215 in file "OLED_SSD1306.c"
  6835 ;; Parameters:    Size  Location     Type
  6836 ;;  data            2    5[COMMON] PTR const unsigned char 
  6837 ;;		 -> OledFont(768), screen_buffer(512), 
  6838 ;;  len             2    7[COMMON] unsigned short 
  6839 ;; Auto vars:     Size  Location     Type
  6840 ;;  i               2    9[COMMON] unsigned short 
  6841 ;;  st              1   11[COMMON] enum E6043
  6842 ;; Return value:  Size  Location     Type
  6843 ;;                  1    wreg      enum E6043
  6844 ;; Registers used:
  6845 ;;		wreg, fsr0l, fsr0h, status,2, status,0, pclath, cstack
  6846 ;; Tracked objects:
  6847 ;;		On entry : 0/0
  6848 ;;		On exit  : 0/0
  6849 ;;		Unchanged: 0/0
  6850 ;; Data sizes:     COMMON   BANK0   BANK1   BANK2   BANK3   BANK4   BANK5   BANK6   BANK7   BANK8   BANK9  BANK10  BANK1
      +1  BANK12  BANK13  BANK14  BANK15  BANK16  BANK17  BANK18  BANK19  BANK20  BANK21  BANK22  BANK23  BANK24  BANK25
  6851 ;;      Params:         4       0       0       0       0       0       0       0       0       0       0       0       
      +0       0       0       0       0       0       0       0       0       0       0       0       0       0       0
  6852 ;;      Locals:         3       0       0       0       0       0       0       0       0       0       0       0       
      +0       0       0       0       0       0       0       0       0       0       0       0       0       0       0
  6853 ;;      Temps:          0       0       0       0       0       0       0       0       0       0       0       0       
      +0       0       0       0       0       0       0       0       0       0       0       0       0       0       0
  6854 ;;      Totals:         7       0       0       0       0       0       0       0       0       0       0       0       
      +0       0       0       0       0       0       0       0       0       0       0       0       0       0       0
  6855 ;;Total ram usage:        7 bytes
  6856 ;; Hardware stack levels used: 1
  6857 ;; Hardware stack levels required when called: 2
  6858 ;; This function calls:
  6859 ;;		_I2C_Start
  6860 ;;		_I2C_Stop
  6861 ;;		_I2C_WriteByte
  6862 ;;		_SSD1306_CtrlW
  6863 ;; This function is called by:
  6864 ;;		_OLED_Clear
  6865 ;;		_OLED_UpdateLine
  6866 ;;		_OLED_UpdatePartialLine
  6867 ;;		_OLED_WriteString
  6868 ;; This function uses a non-reentrant model
  6869 ;;
  6870                           
  6871     005A                     _OLED_WriteData:	
  6872                           ;psect for function _OLED_WriteData
  6873                           
  6874     005A                     l2108:	
  6875                           ;incstack = 0
  6876                           ; Regs used in _OLED_WriteData: [wreg-fsr0h+status,2+status,0+pclath+cstack]
  6877                           
  6878                           
  6879                           ;OLED_SSD1306.c: 215: static I2C_Status_t OLED_WriteData(const uint8_t* data, uint16_t l
      +                          en);OLED_SSD1306.c: 216: {;OLED_SSD1306.c: 217:     I2C_Status_t st;;OLED_SSD1306.c: 219
      +                          :     if (data == ((void*)0)) return I2C_TIMEOUT;
  6880     005A  0875               	movf	OLED_WriteData@data,w
  6881     005B  0476               	iorwf	OLED_WriteData@data+1,w
  6882     005C  1D03               	btfss	3,2
  6883     005D  285F               	goto	u1811
  6884     005E  2860               	goto	u1810
  6885     005F                     u1811:
  6886     005F  2861               	goto	l2112
  6887     0060                     u1810:
  6888     0060  28A9               	goto	l159
  6889     0061                     l2112:
  6890                           
  6891                           ;OLED_SSD1306.c: 221:     st = I2C_Start();
  6892     0061  318D  25B0  3180   	fcall	_I2C_Start
  6893     0064  00FB               	movwf	OLED_WriteData@st
  6894     0065                     l2114:
  6895                           
  6896                           ;OLED_SSD1306.c: 222:     if (st != I2C_OK) return st;
  6897     0065  087B               	movf	OLED_WriteData@st,w
  6898     0066  1903               	btfsc	3,2
  6899     0067  2869               	goto	u1821
  6900     0068  286A               	goto	u1820
  6901     0069                     u1821:
  6902     0069  286B               	goto	l2118
  6903     006A                     u1820:
  6904     006A  28A9               	goto	l159
  6905     006B                     l2118:
  6906                           
  6907                           ;OLED_SSD1306.c: 224:     st = I2C_WriteByte(SSD1306_CtrlW());
  6908     006B  318C  24C0  3180   	fcall	_SSD1306_CtrlW
  6909     006E  318E  2686  3180   	fcall	_I2C_WriteByte
  6910     0071  00FB               	movwf	OLED_WriteData@st
  6911     0072                     l2120:
  6912                           
  6913                           ;OLED_SSD1306.c: 225:     if (st != I2C_OK) { I2C_Stop(); return st; }
  6914     0072  087B               	movf	OLED_WriteData@st,w
  6915     0073  1903               	btfsc	3,2
  6916     0074  2876               	goto	u1831
  6917     0075  2877               	goto	u1830
  6918     0076                     u1831:
  6919     0076  287B               	goto	l2126
  6920     0077                     u1830:
  6921     0077                     l2122:
  6922     0077  318D  2569  3180   	fcall	_I2C_Stop
  6923     007A  28A9               	goto	l159
  6924     007B                     l2126:
  6925                           
  6926                           ;OLED_SSD1306.c: 227:     st = I2C_WriteByte(0x40);
  6927     007B  3040               	movlw	64
  6928     007C  318E  2686  3180   	fcall	_I2C_WriteByte
  6929     007F  00FB               	movwf	OLED_WriteData@st
  6930     0080                     l2128:
  6931                           
  6932                           ;OLED_SSD1306.c: 228:     if (st != I2C_OK) { I2C_Stop(); return st; }
  6933     0080  087B               	movf	OLED_WriteData@st,w
  6934     0081  1903               	btfsc	3,2
  6935     0082  2884               	goto	u1841
  6936     0083  2885               	goto	u1840
  6937     0084                     u1841:
  6938     0084  2886               	goto	l2134
  6939     0085                     u1840:
  6940     0085  2877               	goto	l2122
  6941     0086                     l2134:
  6942                           
  6943                           ;OLED_SSD1306.c: 230:     for (uint16_t i = 0; i < len; i++)
  6944     0086  01F9               	clrf	OLED_WriteData@i
  6945     0087  01FA               	clrf	OLED_WriteData@i+1
  6946     0088  289E               	goto	l163
  6947     0089                     l2136:
  6948                           
  6949                           ;OLED_SSD1306.c: 231:     {;OLED_SSD1306.c: 232:         st = I2C_WriteByte(data[i]);
  6950     0089  0875               	movf	OLED_WriteData@data,w
  6951     008A  0779               	addwf	OLED_WriteData@i,w
  6952     008B  0084               	movwf	4
  6953     008C  0876               	movf	OLED_WriteData@data+1,w
  6954     008D  3D7A               	addwfc	OLED_WriteData@i+1,w
  6955     008E  0085               	movwf	5
  6956     008F  0800               	movf	0,w	;code access
  6957     0090  318E  2686  3180   	fcall	_I2C_WriteByte
  6958     0093  00FB               	movwf	OLED_WriteData@st
  6959     0094                     l2138:
  6960                           
  6961                           ;OLED_SSD1306.c: 233:         if (st != I2C_OK) { I2C_Stop(); return st; }
  6962     0094  087B               	movf	OLED_WriteData@st,w
  6963     0095  1903               	btfsc	3,2
  6964     0096  2898               	goto	u1851
  6965     0097  2899               	goto	u1850
  6966     0098                     u1851:
  6967     0098  289A               	goto	l2144
  6968     0099                     u1850:
  6969     0099  2877               	goto	l2122
  6970     009A                     l2144:
  6971                           
  6972                           ;OLED_SSD1306.c: 234:     }
  6973     009A  3001               	movlw	1
  6974     009B  07F9               	addwf	OLED_WriteData@i,f
  6975     009C  3000               	movlw	0
  6976     009D  3DFA               	addwfc	OLED_WriteData@i+1,f
  6977     009E                     l163:
  6978     009E  0878               	movf	OLED_WriteData@len+1,w
  6979     009F  027A               	subwf	OLED_WriteData@i+1,w
  6980     00A0  1D03               	skipz
  6981     00A1  28A4               	goto	u1865
  6982     00A2  0877               	movf	OLED_WriteData@len,w
  6983     00A3  0279               	subwf	OLED_WriteData@i,w
  6984     00A4                     u1865:
  6985     00A4  1C03               	skipc
  6986     00A5  28A7               	goto	u1861
  6987     00A6  28A8               	goto	u1860
  6988     00A7                     u1861:
  6989     00A7  2889               	goto	l2136
  6990     00A8                     u1860:
  6991     00A8  2877               	goto	l2122
  6992     00A9                     l159:
  6993     00A9  0008               	return
  6994     00AA                     __end_of_OLED_WriteData:
  6995                           
  6996                           	psect	text22
  6997     0CC0                     __ptext22:	
  6998 ;; *************** function _SSD1306_CtrlW *****************
  6999 ;; Defined at:
  7000 ;;		line 182 in file "OLED_SSD1306.c"
  7001 ;; Parameters:    Size  Location     Type
  7002 ;;		None
  7003 ;; Auto vars:     Size  Location     Type
  7004 ;;		None
  7005 ;; Return value:  Size  Location     Type
  7006 ;;                  1    wreg      unsigned char 
  7007 ;; Registers used:
  7008 ;;		wreg
  7009 ;; Tracked objects:
  7010 ;;		On entry : 0/0
  7011 ;;		On exit  : 0/0
  7012 ;;		Unchanged: 0/0
  7013 ;; Data sizes:     COMMON   BANK0   BANK1   BANK2   BANK3   BANK4   BANK5   BANK6   BANK7   BANK8   BANK9  BANK10  BANK1
      +1  BANK12  BANK13  BANK14  BANK15  BANK16  BANK17  BANK18  BANK19  BANK20  BANK21  BANK22  BANK23  BANK24  BANK25
  7014 ;;      Params:         0       0       0       0       0       0       0       0       0       0       0       0       
      +0       0       0       0       0       0       0       0       0       0       0       0       0       0       0
  7015 ;;      Locals:         0       0       0       0       0       0       0       0       0       0       0       0       
      +0       0       0       0       0       0       0       0       0       0       0       0       0       0       0
  7016 ;;      Temps:          0       0       0       0       0       0       0       0       0       0       0       0       
      +0       0       0       0       0       0       0       0       0       0       0       0       0       0       0
  7017 ;;      Totals:         0       0       0       0       0       0       0       0       0       0       0       0       
      +0       0       0       0       0       0       0       0       0       0       0       0       0       0       0
  7018 ;;Total ram usage:        0 bytes
  7019 ;; Hardware stack levels used: 1
  7020 ;; This function calls:
  7021 ;;		Nothing
  7022 ;; This function is called by:
  7023 ;;		_OLED_Command
  7024 ;;		_OLED_WriteData
  7025 ;; This function uses a non-reentrant model
  7026 ;;
  7027                           
  7028     0CC0                     _SSD1306_CtrlW:	
  7029                           ;psect for function _SSD1306_CtrlW
  7030                           
  7031     0CC0                     l2018:	
  7032                           ;incstack = 0
  7033                           ; Regs used in _SSD1306_CtrlW: [wreg]
  7034                           
  7035     0CC0  3078               	movlw	120
  7036     0CC1                     l149:
  7037     0CC1  0008               	return
  7038     0CC2                     __end_of_SSD1306_CtrlW:
  7039                           
  7040                           	psect	text23
  7041     0E86                     __ptext23:	
  7042 ;; *************** function _I2C_WriteByte *****************
  7043 ;; Defined at:
  7044 ;;		line 161 in file "I2C.c"
  7045 ;; Parameters:    Size  Location     Type
  7046 ;;  data            1    wreg     unsigned char 
  7047 ;; Auto vars:     Size  Location     Type
  7048 ;;  data            1    3[COMMON] unsigned char 
  7049 ;;  st              1    4[COMMON] enum E6036
  7050 ;; Return value:  Size  Location     Type
  7051 ;;                  1    wreg      enum E6043
  7052 ;; Registers used:
  7053 ;;		wreg, status,2, status,0, pclath, cstack
  7054 ;; Tracked objects:
  7055 ;;		On entry : 0/0
  7056 ;;		On exit  : 0/0
  7057 ;;		Unchanged: 0/0
  7058 ;; Data sizes:     COMMON   BANK0   BANK1   BANK2   BANK3   BANK4   BANK5   BANK6   BANK7   BANK8   BANK9  BANK10  BANK1
      +1  BANK12  BANK13  BANK14  BANK15  BANK16  BANK17  BANK18  BANK19  BANK20  BANK21  BANK22  BANK23  BANK24  BANK25
  7059 ;;      Params:         0       0       0       0       0       0       0       0       0       0       0       0       
      +0       0       0       0       0       0       0       0       0       0       0       0       0       0       0
  7060 ;;      Locals:         2       0       0       0       0       0       0       0       0       0       0       0       
      +0       0       0       0       0       0       0       0       0       0       0       0       0       0       0
  7061 ;;      Temps:          0       0       0       0       0       0       0       0       0       0       0       0       
      +0       0       0       0       0       0       0       0       0       0       0       0       0       0       0
  7062 ;;      Totals:         2       0       0       0       0       0       0       0       0       0       0       0       
      +0       0       0       0       0       0       0       0       0       0       0       0       0       0       0
  7063 ;;Total ram usage:        2 bytes
  7064 ;; Hardware stack levels used: 1
  7065 ;; Hardware stack levels required when called: 1
  7066 ;; This function calls:
  7067 ;;		_I2C_WaitIF
  7068 ;;		_I2C_WaitIdle
  7069 ;; This function is called by:
  7070 ;;		_OLED_Command
  7071 ;;		_OLED_WriteData
  7072 ;; This function uses a non-reentrant model
  7073 ;;
  7074                           
  7075     0E86                     _I2C_WriteByte:	
  7076                           ;psect for function _I2C_WriteByte
  7077                           
  7078                           
  7079                           ;incstack = 0
  7080                           ; Regs used in _I2C_WriteByte: [wreg+status,2+status,0+pclath+cstack]
  7081                           ;I2C_WriteByte@data stored from wreg
  7082     0E86  00F3               	movwf	I2C_WriteByte@data
  7083     0E87                     l2042:
  7084                           
  7085                           ;I2C.c: 161: I2C_Status_t I2C_WriteByte(uint8_t data);I2C.c: 162: {;I2C.c: 163:     I2C_
      +                          Status_t st;;I2C.c: 165:     st = I2C_WaitIdle(50);
  7086     0E87  3032               	movlw	50
  7087     0E88  00F0               	movwf	I2C_WaitIdle@timeout_ms
  7088     0E89  3000               	movlw	0
  7089     0E8A  00F1               	movwf	I2C_WaitIdle@timeout_ms+1
  7090     0E8B  318D  258C  318E   	fcall	_I2C_WaitIdle
  7091     0E8E  00F4               	movwf	I2C_WriteByte@st
  7092     0E8F                     l2044:
  7093                           
  7094                           ;I2C.c: 166:     if (st != I2C_OK) return st;
  7095     0E8F  0874               	movf	I2C_WriteByte@st,w
  7096     0E90  1903               	btfsc	3,2
  7097     0E91  2E93               	goto	u1731
  7098     0E92  2E94               	goto	u1730
  7099     0E93                     u1731:
  7100     0E93  2E96               	goto	l364
  7101     0E94                     u1730:
  7102     0E94                     l2046:
  7103     0E94  0874               	movf	I2C_WriteByte@st,w
  7104     0E95  2EB7               	goto	l365
  7105     0E96                     l364:
  7106                           
  7107                           ;I2C.c: 168:     PIR1bits.SSP1IF = 0;
  7108     0E96  0020               	movlb	0	; select bank0
  7109     0E97  1191               	bcf	17,3	;volatile
  7110     0E98                     l2050:
  7111                           
  7112                           ;I2C.c: 169:     SSPBUF = data;
  7113     0E98  0873               	movf	I2C_WriteByte@data,w
  7114     0E99  0024               	movlb	4	; select bank4
  7115     0E9A  0091               	movwf	17	;volatile
  7116     0E9B                     l2052:
  7117                           
  7118                           ;I2C.c: 171:     st = I2C_WaitIF(50);
  7119     0E9B  3032               	movlw	50
  7120     0E9C  00F0               	movwf	I2C_WaitIF@timeout_ms
  7121     0E9D  3000               	movlw	0
  7122     0E9E  00F1               	movwf	I2C_WaitIF@timeout_ms+1
  7123     0E9F  318D  2529  318E   	fcall	_I2C_WaitIF
  7124     0EA2  00F4               	movwf	I2C_WriteByte@st
  7125     0EA3                     l2054:
  7126                           
  7127                           ;I2C.c: 172:     if (st != I2C_OK) return st;
  7128     0EA3  0874               	movf	I2C_WriteByte@st,w
  7129     0EA4  1903               	btfsc	3,2
  7130     0EA5  2EA7               	goto	u1741
  7131     0EA6  2EA8               	goto	u1740
  7132     0EA7                     u1741:
  7133     0EA7  2EA9               	goto	l366
  7134     0EA8                     u1740:
  7135     0EA8  2E94               	goto	l2046
  7136     0EA9                     l366:
  7137                           
  7138                           ;I2C.c: 175:     if (PIR2bits.BCL1IF)
  7139     0EA9  0020               	movlb	0	; select bank0
  7140     0EAA  1D92               	btfss	18,3	;volatile
  7141     0EAB  2EAD               	goto	u1751
  7142     0EAC  2EAE               	goto	u1750
  7143     0EAD                     u1751:
  7144     0EAD  2EB1               	goto	l367
  7145     0EAE                     u1750:
  7146     0EAE                     l2060:
  7147                           
  7148                           ;I2C.c: 176:     {;I2C.c: 177:         PIR2bits.BCL1IF = 0;
  7149     0EAE  1192               	bcf	18,3	;volatile
  7150     0EAF                     l2062:
  7151                           
  7152                           ;I2C.c: 178:         return I2C_BUS_COLLISION;
  7153     0EAF  3003               	movlw	3
  7154     0EB0  2EB7               	goto	l365
  7155     0EB1                     l367:	
  7156                           ;I2C.c: 179:     }
  7157                           
  7158                           
  7159                           ;I2C.c: 182:     PIR1bits.SSP1IF = 0;
  7160     0EB1  1191               	bcf	17,3	;volatile
  7161     0EB2                     l2066:
  7162                           
  7163                           ;I2C.c: 183:     return (SSPCON2bits.ACKSTAT == 0) ? I2C_OK : I2C_NAK;
  7164     0EB2  0024               	movlb	4	; select bank4
  7165     0EB3  0E16               	swapf	22,w	;volatile
  7166     0EB4  0C89               	rrf	9,f
  7167     0EB5  0C89               	rrf	9,f
  7168     0EB6  3901               	andlw	1
  7169     0EB7                     l365:
  7170     0EB7  0008               	return
  7171     0EB8                     __end_of_I2C_WriteByte:
  7172                           
  7173                           	psect	text24
  7174     0D69                     __ptext24:	
  7175 ;; *************** function _I2C_Stop *****************
  7176 ;; Defined at:
  7177 ;;		line 138 in file "I2C.c"
  7178 ;; Parameters:    Size  Location     Type
  7179 ;;		None
  7180 ;; Auto vars:     Size  Location     Type
  7181 ;;  st              1    3[COMMON] enum E6036
  7182 ;; Return value:  Size  Location     Type
  7183 ;;                  1    wreg      enum E6043
  7184 ;; Registers used:
  7185 ;;		wreg, status,2, status,0, pclath, cstack
  7186 ;; Tracked objects:
  7187 ;;		On entry : 0/0
  7188 ;;		On exit  : 0/0
  7189 ;;		Unchanged: 0/0
  7190 ;; Data sizes:     COMMON   BANK0   BANK1   BANK2   BANK3   BANK4   BANK5   BANK6   BANK7   BANK8   BANK9  BANK10  BANK1
      +1  BANK12  BANK13  BANK14  BANK15  BANK16  BANK17  BANK18  BANK19  BANK20  BANK21  BANK22  BANK23  BANK24  BANK25
  7191 ;;      Params:         0       0       0       0       0       0       0       0       0       0       0       0       
      +0       0       0       0       0       0       0       0       0       0       0       0       0       0       0
  7192 ;;      Locals:         1       0       0       0       0       0       0       0       0       0       0       0       
      +0       0       0       0       0       0       0       0       0       0       0       0       0       0       0
  7193 ;;      Temps:          0       0       0       0       0       0       0       0       0       0       0       0       
      +0       0       0       0       0       0       0       0       0       0       0       0       0       0       0
  7194 ;;      Totals:         1       0       0       0       0       0       0       0       0       0       0       0       
      +0       0       0       0       0       0       0       0       0       0       0       0       0       0       0
  7195 ;;Total ram usage:        1 bytes
  7196 ;; Hardware stack levels used: 1
  7197 ;; Hardware stack levels required when called: 1
  7198 ;; This function calls:
  7199 ;;		_I2C_WaitIF
  7200 ;;		_I2C_WaitIdle
  7201 ;; This function is called by:
  7202 ;;		_OLED_Command
  7203 ;;		_OLED_WriteData
  7204 ;; This function uses a non-reentrant model
  7205 ;;
  7206                           
  7207     0D69                     _I2C_Stop:	
  7208                           ;psect for function _I2C_Stop
  7209                           
  7210     0D69                     l2070:	
  7211                           ;incstack = 0
  7212                           ; Regs used in _I2C_Stop: [wreg+status,2+status,0+pclath+cstack]
  7213                           
  7214                           
  7215                           ;I2C.c: 140:     I2C_Status_t st;;I2C.c: 142:     st = I2C_WaitIdle(50);
  7216     0D69  3032               	movlw	50
  7217     0D6A  00F0               	movwf	I2C_WaitIdle@timeout_ms
  7218     0D6B  3000               	movlw	0
  7219     0D6C  00F1               	movwf	I2C_WaitIdle@timeout_ms+1
  7220     0D6D  318D  258C  318D   	fcall	_I2C_WaitIdle
  7221     0D70  00F3               	movwf	I2C_Stop@st
  7222     0D71                     l2072:
  7223                           
  7224                           ;I2C.c: 143:     if (st != I2C_OK) return st;
  7225     0D71  0873               	movf	I2C_Stop@st,w
  7226     0D72  1903               	btfsc	3,2
  7227     0D73  2D75               	goto	u1761
  7228     0D74  2D76               	goto	u1760
  7229     0D75                     u1761:
  7230     0D75  2D77               	goto	l359
  7231     0D76                     u1760:
  7232     0D76  2D8B               	goto	l360
  7233     0D77                     l359:
  7234                           
  7235                           ;I2C.c: 145:     PIR1bits.SSP1IF = 0;
  7236     0D77  0020               	movlb	0	; select bank0
  7237     0D78  1191               	bcf	17,3	;volatile
  7238                           
  7239                           ;I2C.c: 146:     SSPCON2bits.PEN = 1;
  7240     0D79  0024               	movlb	4	; select bank4
  7241     0D7A  1516               	bsf	22,2	;volatile
  7242     0D7B                     l2076:
  7243                           
  7244                           ;I2C.c: 148:     st = I2C_WaitIF(50);
  7245     0D7B  3032               	movlw	50
  7246     0D7C  00F0               	movwf	I2C_WaitIF@timeout_ms
  7247     0D7D  3000               	movlw	0
  7248     0D7E  00F1               	movwf	I2C_WaitIF@timeout_ms+1
  7249     0D7F  318D  2529  318D   	fcall	_I2C_WaitIF
  7250     0D82  00F3               	movwf	I2C_Stop@st
  7251     0D83                     l2078:
  7252                           
  7253                           ;I2C.c: 149:     if (st != I2C_OK) return st;
  7254     0D83  0873               	movf	I2C_Stop@st,w
  7255     0D84  1903               	btfsc	3,2
  7256     0D85  2D87               	goto	u1771
  7257     0D86  2D88               	goto	u1770
  7258     0D87                     u1771:
  7259     0D87  2D89               	goto	l361
  7260     0D88                     u1770:
  7261     0D88  2D8B               	goto	l360
  7262     0D89                     l361:
  7263                           
  7264                           ;I2C.c: 151:     PIR1bits.SSP1IF = 0;
  7265     0D89  0020               	movlb	0	; select bank0
  7266     0D8A  1191               	bcf	17,3	;volatile
  7267     0D8B                     l360:	
  7268                           ;I2C.c: 152:     return I2C_OK;;	Return value of _I2C_Stop is never used
  7269                           
  7270     0D8B  0008               	return
  7271     0D8C                     __end_of_I2C_Stop:
  7272                           
  7273                           	psect	text25
  7274     0DB0                     __ptext25:	
  7275 ;; *************** function _I2C_Start *****************
  7276 ;; Defined at:
  7277 ;;		line 98 in file "I2C.c"
  7278 ;; Parameters:    Size  Location     Type
  7279 ;;		None
  7280 ;; Auto vars:     Size  Location     Type
  7281 ;;  st              1    3[COMMON] enum E6036
  7282 ;; Return value:  Size  Location     Type
  7283 ;;                  1    wreg      enum E6043
  7284 ;; Registers used:
  7285 ;;		wreg, status,2, status,0, pclath, cstack
  7286 ;; Tracked objects:
  7287 ;;		On entry : 0/0
  7288 ;;		On exit  : 0/0
  7289 ;;		Unchanged: 0/0
  7290 ;; Data sizes:     COMMON   BANK0   BANK1   BANK2   BANK3   BANK4   BANK5   BANK6   BANK7   BANK8   BANK9  BANK10  BANK1
      +1  BANK12  BANK13  BANK14  BANK15  BANK16  BANK17  BANK18  BANK19  BANK20  BANK21  BANK22  BANK23  BANK24  BANK25
  7291 ;;      Params:         0       0       0       0       0       0       0       0       0       0       0       0       
      +0       0       0       0       0       0       0       0       0       0       0       0       0       0       0
  7292 ;;      Locals:         1       0       0       0       0       0       0       0       0       0       0       0       
      +0       0       0       0       0       0       0       0       0       0       0       0       0       0       0
  7293 ;;      Temps:          0       0       0       0       0       0       0       0       0       0       0       0       
      +0       0       0       0       0       0       0       0       0       0       0       0       0       0       0
  7294 ;;      Totals:         1       0       0       0       0       0       0       0       0       0       0       0       
      +0       0       0       0       0       0       0       0       0       0       0       0       0       0       0
  7295 ;;Total ram usage:        1 bytes
  7296 ;; Hardware stack levels used: 1
  7297 ;; Hardware stack levels required when called: 1
  7298 ;; This function calls:
  7299 ;;		_I2C_WaitIF
  7300 ;;		_I2C_WaitIdle
  7301 ;; This function is called by:
  7302 ;;		_OLED_Command
  7303 ;;		_OLED_WriteData
  7304 ;; This function uses a non-reentrant model
  7305 ;;
  7306                           
  7307     0DB0                     _I2C_Start:	
  7308                           ;psect for function _I2C_Start
  7309                           
  7310     0DB0                     l2022:	
  7311                           ;incstack = 0
  7312                           ; Regs used in _I2C_Start: [wreg+status,2+status,0+pclath+cstack]
  7313                           
  7314                           
  7315                           ;I2C.c: 100:     I2C_Status_t st;;I2C.c: 102:     st = I2C_WaitIdle(50);
  7316     0DB0  3032               	movlw	50
  7317     0DB1  00F0               	movwf	I2C_WaitIdle@timeout_ms
  7318     0DB2  3000               	movlw	0
  7319     0DB3  00F1               	movwf	I2C_WaitIdle@timeout_ms+1
  7320     0DB4  318D  258C  318D   	fcall	_I2C_WaitIdle
  7321     0DB7  00F3               	movwf	I2C_Start@st
  7322     0DB8                     l2024:
  7323                           
  7324                           ;I2C.c: 103:     if (st != I2C_OK) return st;
  7325     0DB8  0873               	movf	I2C_Start@st,w
  7326     0DB9  1903               	btfsc	3,2
  7327     0DBA  2DBC               	goto	u1711
  7328     0DBB  2DBD               	goto	u1710
  7329     0DBC                     u1711:
  7330     0DBC  2DBF               	goto	l349
  7331     0DBD                     u1710:
  7332     0DBD                     l2026:
  7333     0DBD  0873               	movf	I2C_Start@st,w
  7334     0DBE  2DD4               	goto	l350
  7335     0DBF                     l349:
  7336                           
  7337                           ;I2C.c: 105:     PIR1bits.SSP1IF = 0;
  7338     0DBF  0020               	movlb	0	; select bank0
  7339     0DC0  1191               	bcf	17,3	;volatile
  7340                           
  7341                           ;I2C.c: 106:     SSPCON2bits.SEN = 1;
  7342     0DC1  0024               	movlb	4	; select bank4
  7343     0DC2  1416               	bsf	22,0	;volatile
  7344     0DC3                     l2030:
  7345                           
  7346                           ;I2C.c: 108:     st = I2C_WaitIF(50);
  7347     0DC3  3032               	movlw	50
  7348     0DC4  00F0               	movwf	I2C_WaitIF@timeout_ms
  7349     0DC5  3000               	movlw	0
  7350     0DC6  00F1               	movwf	I2C_WaitIF@timeout_ms+1
  7351     0DC7  318D  2529  318D   	fcall	_I2C_WaitIF
  7352     0DCA  00F3               	movwf	I2C_Start@st
  7353     0DCB                     l2032:
  7354                           
  7355                           ;I2C.c: 109:     if (st != I2C_OK) return st;
  7356     0DCB  0873               	movf	I2C_Start@st,w
  7357     0DCC  1903               	btfsc	3,2
  7358     0DCD  2DCF               	goto	u1721
  7359     0DCE  2DD0               	goto	u1720
  7360     0DCF                     u1721:
  7361     0DCF  2DD1               	goto	l351
  7362     0DD0                     u1720:
  7363     0DD0  2DBD               	goto	l2026
  7364     0DD1                     l351:
  7365                           
  7366                           ;I2C.c: 111:     PIR1bits.SSP1IF = 0;
  7367     0DD1  0020               	movlb	0	; select bank0
  7368     0DD2  1191               	bcf	17,3	;volatile
  7369     0DD3                     l2038:
  7370                           
  7371                           ;I2C.c: 112:     return I2C_OK;
  7372     0DD3  3000               	movlw	0
  7373     0DD4                     l350:
  7374     0DD4  0008               	return
  7375     0DD5                     __end_of_I2C_Start:
  7376                           
  7377                           	psect	text26
  7378     0D8C                     __ptext26:	
  7379 ;; *************** function _I2C_WaitIdle *****************
  7380 ;; Defined at:
  7381 ;;		line 81 in file "I2C.c"
  7382 ;; Parameters:    Size  Location     Type
  7383 ;;  timeout_ms      2    0[COMMON] unsigned short 
  7384 ;; Auto vars:     Size  Location     Type
  7385 ;;		None
  7386 ;; Return value:  Size  Location     Type
  7387 ;;                  1    wreg      enum E6036
  7388 ;; Registers used:
  7389 ;;		wreg, status,2, status,0
  7390 ;; Tracked objects:
  7391 ;;		On entry : 0/0
  7392 ;;		On exit  : 0/0
  7393 ;;		Unchanged: 0/0
  7394 ;; Data sizes:     COMMON   BANK0   BANK1   BANK2   BANK3   BANK4   BANK5   BANK6   BANK7   BANK8   BANK9  BANK10  BANK1
      +1  BANK12  BANK13  BANK14  BANK15  BANK16  BANK17  BANK18  BANK19  BANK20  BANK21  BANK22  BANK23  BANK24  BANK25
  7395 ;;      Params:         2       0       0       0       0       0       0       0       0       0       0       0       
      +0       0       0       0       0       0       0       0       0       0       0       0       0       0       0
  7396 ;;      Locals:         0       0       0       0       0       0       0       0       0       0       0       0       
      +0       0       0       0       0       0       0       0       0       0       0       0       0       0       0
  7397 ;;      Temps:          1       0       0       0       0       0       0       0       0       0       0       0       
      +0       0       0       0       0       0       0       0       0       0       0       0       0       0       0
  7398 ;;      Totals:         3       0       0       0       0       0       0       0       0       0       0       0       
      +0       0       0       0       0       0       0       0       0       0       0       0       0       0       0
  7399 ;;Total ram usage:        3 bytes
  7400 ;; Hardware stack levels used: 1
  7401 ;; This function calls:
  7402 ;;		Nothing
  7403 ;; This function is called by:
  7404 ;;		_I2C_Start
  7405 ;;		_I2C_Stop
  7406 ;;		_I2C_WriteByte
  7407 ;;		_I2C_RepeatedStart
  7408 ;;		_I2C_ReadByte
  7409 ;; This function uses a non-reentrant model
  7410 ;;
  7411                           
  7412     0D8C                     _I2C_WaitIdle:	
  7413                           ;psect for function _I2C_WaitIdle
  7414                           
  7415     0D8C                     l2000:	
  7416                           ;incstack = 0
  7417                           ; Regs used in _I2C_WaitIdle: [wreg+status,2+status,0]
  7418                           
  7419                           
  7420                           ;I2C.c: 81: I2C_Status_t I2C_WaitIdle(uint16_t timeout_ms);I2C.c: 82: {;I2C.c: 83:     w
      +                          hile (timeout_ms--)
  7421     0D8C  2DA2               	goto	l2012
  7422     0D8D                     l2002:
  7423                           
  7424                           ;I2C.c: 84:     {;I2C.c: 87:         if ((SSPCON2 & 0x1F) == 0 && SSPSTATbits.R_nW == 0)
  7425     0D8D  0024               	movlb	4	; select bank4
  7426     0D8E  0816               	movf	22,w	;volatile
  7427     0D8F  391F               	andlw	31
  7428     0D90  1D03               	btfss	3,2
  7429     0D91  2D93               	goto	u1681
  7430     0D92  2D94               	goto	u1680
  7431     0D93                     u1681:
  7432     0D93  2D9A               	goto	l2010
  7433     0D94                     u1680:
  7434     0D94                     l2004:
  7435     0D94  1914               	btfsc	20,2	;volatile
  7436     0D95  2D97               	goto	u1691
  7437     0D96  2D98               	goto	u1690
  7438     0D97                     u1691:
  7439     0D97  2D9A               	goto	l2010
  7440     0D98                     u1690:
  7441     0D98                     l2006:
  7442                           
  7443                           ;I2C.c: 88:             return I2C_OK;
  7444     0D98  3000               	movlw	0
  7445     0D99  2DAF               	goto	l345
  7446     0D9A                     l2010:
  7447                           
  7448                           ;I2C.c: 90:         _delay((unsigned long)((1)*(32000000/4000.0)));
  7449     0D9A  300B               	movlw	11
  7450     0D9B  00F2               	movwf	??_I2C_WaitIdle
  7451     0D9C  3062               	movlw	98
  7452     0D9D                     u3347:
  7453     0D9D  0B89               	decfsz	9,f
  7454     0D9E  2D9D               	goto	u3347
  7455     0D9F  0BF2               	decfsz	??_I2C_WaitIdle,f
  7456     0DA0  2D9D               	goto	u3347
  7457     0DA1  3200               	nop2
  7458     0DA2                     l2012:
  7459                           
  7460                           ;I2C.c: 83:     while (timeout_ms--)
  7461     0DA2  3001               	movlw	1
  7462     0DA3  02F0               	subwf	I2C_WaitIdle@timeout_ms,f
  7463     0DA4  3000               	movlw	0
  7464     0DA5  3BF1               	subwfb	I2C_WaitIdle@timeout_ms+1,f
  7465     0DA6  0A70               	incf	I2C_WaitIdle@timeout_ms,w
  7466     0DA7  1D03               	skipz
  7467     0DA8  2DAD               	goto	u1701
  7468     0DA9  0A71               	incf	I2C_WaitIdle@timeout_ms+1,w
  7469     0DAA  1D03               	btfss	3,2
  7470     0DAB  2DAD               	goto	u1701
  7471     0DAC  2DAE               	goto	u1700
  7472     0DAD                     u1701:
  7473     0DAD  2D8D               	goto	l2002
  7474     0DAE                     u1700:
  7475     0DAE                     l2014:
  7476                           
  7477                           ;I2C.c: 92:     return I2C_TIMEOUT;
  7478     0DAE  3002               	movlw	2
  7479     0DAF                     l345:
  7480     0DAF  0008               	return
  7481     0DB0                     __end_of_I2C_WaitIdle:
  7482                           
  7483                           	psect	text27
  7484     0D29                     __ptext27:	
  7485 ;; *************** function _I2C_WaitIF *****************
  7486 ;; Defined at:
  7487 ;;		line 23 in file "I2C.c"
  7488 ;; Parameters:    Size  Location     Type
  7489 ;;  timeout_ms      2    0[COMMON] unsigned short 
  7490 ;; Auto vars:     Size  Location     Type
  7491 ;;		None
  7492 ;; Return value:  Size  Location     Type
  7493 ;;                  1    wreg      enum E6036
  7494 ;; Registers used:
  7495 ;;		wreg, status,2, status,0
  7496 ;; Tracked objects:
  7497 ;;		On entry : 0/0
  7498 ;;		On exit  : 0/0
  7499 ;;		Unchanged: 0/0
  7500 ;; Data sizes:     COMMON   BANK0   BANK1   BANK2   BANK3   BANK4   BANK5   BANK6   BANK7   BANK8   BANK9  BANK10  BANK1
      +1  BANK12  BANK13  BANK14  BANK15  BANK16  BANK17  BANK18  BANK19  BANK20  BANK21  BANK22  BANK23  BANK24  BANK25
  7501 ;;      Params:         2       0       0       0       0       0       0       0       0       0       0       0       
      +0       0       0       0       0       0       0       0       0       0       0       0       0       0       0
  7502 ;;      Locals:         0       0       0       0       0       0       0       0       0       0       0       0       
      +0       0       0       0       0       0       0       0       0       0       0       0       0       0       0
  7503 ;;      Temps:          1       0       0       0       0       0       0       0       0       0       0       0       
      +0       0       0       0       0       0       0       0       0       0       0       0       0       0       0
  7504 ;;      Totals:         3       0       0       0       0       0       0       0       0       0       0       0       
      +0       0       0       0       0       0       0       0       0       0       0       0       0       0       0
  7505 ;;Total ram usage:        3 bytes
  7506 ;; Hardware stack levels used: 1
  7507 ;; This function calls:
  7508 ;;		Nothing
  7509 ;; This function is called by:
  7510 ;;		_I2C_Start
  7511 ;;		_I2C_Stop
  7512 ;;		_I2C_WriteByte
  7513 ;;		_I2C_RepeatedStart
  7514 ;;		_I2C_ReadByte
  7515 ;; This function uses a non-reentrant model
  7516 ;;
  7517                           
  7518     0D29                     _I2C_WaitIF:	
  7519                           ;psect for function _I2C_WaitIF
  7520                           
  7521     0D29                     l1986:	
  7522                           ;incstack = 0
  7523                           ; Regs used in _I2C_WaitIF: [wreg+status,2+status,0]
  7524                           
  7525                           
  7526                           ;I2C.c: 23: static I2C_Status_t I2C_WaitIF(uint16_t timeout_ms);I2C.c: 24: {;I2C.c: 25: 
      +                              while (timeout_ms--)
  7527     0D29  2D39               	goto	l1994
  7528     0D2A                     l330:
  7529                           
  7530                           ;I2C.c: 26:     {;I2C.c: 27:         if (PIR1bits.SSP1IF)
  7531     0D2A  0020               	movlb	0	; select bank0
  7532     0D2B  1D91               	btfss	17,3	;volatile
  7533     0D2C  2D2E               	goto	u1661
  7534     0D2D  2D2F               	goto	u1660
  7535     0D2E                     u1661:
  7536     0D2E  2D31               	goto	l1992
  7537     0D2F                     u1660:
  7538     0D2F                     l1988:
  7539                           
  7540                           ;I2C.c: 28:             return I2C_OK;
  7541     0D2F  3000               	movlw	0
  7542     0D30  2D46               	goto	l332
  7543     0D31                     l1992:
  7544                           
  7545                           ;I2C.c: 30:         _delay((unsigned long)((1)*(32000000/4000.0)));
  7546     0D31  300B               	movlw	11
  7547     0D32  00F2               	movwf	??_I2C_WaitIF
  7548     0D33  3062               	movlw	98
  7549     0D34                     u3357:
  7550     0D34  0B89               	decfsz	9,f
  7551     0D35  2D34               	goto	u3357
  7552     0D36  0BF2               	decfsz	??_I2C_WaitIF,f
  7553     0D37  2D34               	goto	u3357
  7554     0D38  3200               	nop2
  7555     0D39                     l1994:
  7556                           
  7557                           ;I2C.c: 25:     while (timeout_ms--)
  7558     0D39  3001               	movlw	1
  7559     0D3A  02F0               	subwf	I2C_WaitIF@timeout_ms,f
  7560     0D3B  3000               	movlw	0
  7561     0D3C  3BF1               	subwfb	I2C_WaitIF@timeout_ms+1,f
  7562     0D3D  0A70               	incf	I2C_WaitIF@timeout_ms,w
  7563     0D3E  1D03               	skipz
  7564     0D3F  2D44               	goto	u1671
  7565     0D40  0A71               	incf	I2C_WaitIF@timeout_ms+1,w
  7566     0D41  1D03               	btfss	3,2
  7567     0D42  2D44               	goto	u1671
  7568     0D43  2D45               	goto	u1670
  7569     0D44                     u1671:
  7570     0D44  2D2A               	goto	l330
  7571     0D45                     u1670:
  7572     0D45                     l1996:
  7573                           
  7574                           ;I2C.c: 32:     return I2C_TIMEOUT;
  7575     0D45  3002               	movlw	2
  7576     0D46                     l332:
  7577     0D46  0008               	return
  7578     0D47                     __end_of_I2C_WaitIF:
  7579                           
  7580                           	psect	text28
  7581     0CDE                     __ptext28:	
  7582 ;; *************** function _I2C_Init *****************
  7583 ;; Defined at:
  7584 ;;		line 41 in file "I2C.c"
  7585 ;; Parameters:    Size  Location     Type
  7586 ;;		None
  7587 ;; Auto vars:     Size  Location     Type
  7588 ;;		None
  7589 ;; Return value:  Size  Location     Type
  7590 ;;                  1    wreg      void 
  7591 ;; Registers used:
  7592 ;;		wreg, status,2, status,0, pclath, cstack
  7593 ;; Tracked objects:
  7594 ;;		On entry : 0/0
  7595 ;;		On exit  : 0/0
  7596 ;;		Unchanged: 0/0
  7597 ;; Data sizes:     COMMON   BANK0   BANK1   BANK2   BANK3   BANK4   BANK5   BANK6   BANK7   BANK8   BANK9  BANK10  BANK1
      +1  BANK12  BANK13  BANK14  BANK15  BANK16  BANK17  BANK18  BANK19  BANK20  BANK21  BANK22  BANK23  BANK24  BANK25
  7598 ;;      Params:         0       0       0       0       0       0       0       0       0       0       0       0       
      +0       0       0       0       0       0       0       0       0       0       0       0       0       0       0
  7599 ;;      Locals:         0       0       0       0       0       0       0       0       0       0       0       0       
      +0       0       0       0       0       0       0       0       0       0       0       0       0       0       0
  7600 ;;      Temps:          1       0       0       0       0       0       0       0       0       0       0       0       
      +0       0       0       0       0       0       0       0       0       0       0       0       0       0       0
  7601 ;;      Totals:         1       0       0       0       0       0       0       0       0       0       0       0       
      +0       0       0       0       0       0       0       0       0       0       0       0       0       0       0
  7602 ;;Total ram usage:        1 bytes
  7603 ;; Hardware stack levels used: 1
  7604 ;; Hardware stack levels required when called: 1
  7605 ;; This function calls:
  7606 ;;		_I2C_ClearErrors
  7607 ;; This function is called by:
  7608 ;;		_main
  7609 ;; This function uses a non-reentrant model
  7610 ;;
  7611                           
  7612     0CDE                     _I2C_Init:	
  7613                           ;psect for function _I2C_Init
  7614                           
  7615     0CDE                     l2564:	
  7616                           ;incstack = 0
  7617                           ; Regs used in _I2C_Init: [wreg+status,2+status,0+pclath+cstack]
  7618                           
  7619                           
  7620                           ;I2C.c: 44:     SSPCONbits.SSPM = 0x08;
  7621     0CDE  0024               	movlb	4	; select bank4
  7622     0CDF  0815               	movf	21,w	;volatile
  7623     0CE0  39F0               	andlw	-16
  7624     0CE1  3808               	iorlw	8
  7625     0CE2  0095               	movwf	21	;volatile
  7626     0CE3                     l2566:
  7627                           
  7628                           ;I2C.c: 47:     SSPCONbits.SSPEN = 1;
  7629     0CE3  1695               	bsf	21,5	;volatile
  7630     0CE4                     l2568:
  7631                           
  7632                           ;I2C.c: 50:     SSPADD = 79;
  7633     0CE4  304F               	movlw	79
  7634     0CE5  0092               	movwf	18	;volatile
  7635     0CE6                     l2570:
  7636                           
  7637                           ;I2C.c: 52:     I2C_ClearErrors();
  7638     0CE6  318C  24C2  318C   	fcall	_I2C_ClearErrors
  7639     0CE9                     l2572:
  7640                           
  7641                           ;I2C.c: 53:     _delay((unsigned long)((10)*(32000000/4000.0)));
  7642     0CE9  3068               	movlw	104
  7643     0CEA  00F0               	movwf	??_I2C_Init
  7644     0CEB  30E4               	movlw	228
  7645     0CEC                     u3367:
  7646     0CEC  0B89               	decfsz	9,f
  7647     0CED  2CEC               	goto	u3367
  7648     0CEE  0BF0               	decfsz	??_I2C_Init,f
  7649     0CEF  2CEC               	goto	u3367
  7650     0CF0  3200               	nop2
  7651     0CF1                     l336:
  7652     0CF1  0008               	return
  7653     0CF2                     __end_of_I2C_Init:
  7654                           
  7655                           	psect	text29
  7656     0CC2                     __ptext29:	
  7657 ;; *************** function _I2C_ClearErrors *****************
  7658 ;; Defined at:
  7659 ;;		line 62 in file "I2C.c"
  7660 ;; Parameters:    Size  Location     Type
  7661 ;;		None
  7662 ;; Auto vars:     Size  Location     Type
  7663 ;;		None
  7664 ;; Return value:  Size  Location     Type
  7665 ;;                  1    wreg      void 
  7666 ;; Registers used:
  7667 ;;		None
  7668 ;; Tracked objects:
  7669 ;;		On entry : 0/0
  7670 ;;		On exit  : 0/0
  7671 ;;		Unchanged: 0/0
  7672 ;; Data sizes:     COMMON   BANK0   BANK1   BANK2   BANK3   BANK4   BANK5   BANK6   BANK7   BANK8   BANK9  BANK10  BANK1
      +1  BANK12  BANK13  BANK14  BANK15  BANK16  BANK17  BANK18  BANK19  BANK20  BANK21  BANK22  BANK23  BANK24  BANK25
  7673 ;;      Params:         0       0       0       0       0       0       0       0       0       0       0       0       
      +0       0       0       0       0       0       0       0       0       0       0       0       0       0       0
  7674 ;;      Locals:         0       0       0       0       0       0       0       0       0       0       0       0       
      +0       0       0       0       0       0       0       0       0       0       0       0       0       0       0
  7675 ;;      Temps:          0       0       0       0       0       0       0       0       0       0       0       0       
      +0       0       0       0       0       0       0       0       0       0       0       0       0       0       0
  7676 ;;      Totals:         0       0       0       0       0       0       0       0       0       0       0       0       
      +0       0       0       0       0       0       0       0       0       0       0       0       0       0       0
  7677 ;;Total ram usage:        0 bytes
  7678 ;; Hardware stack levels used: 1
  7679 ;; This function calls:
  7680 ;;		Nothing
  7681 ;; This function is called by:
  7682 ;;		_I2C_Init
  7683 ;; This function uses a non-reentrant model
  7684 ;;
  7685                           
  7686     0CC2                     _I2C_ClearErrors:	
  7687                           ;psect for function _I2C_ClearErrors
  7688                           
  7689     0CC2                     l2226:	
  7690                           ;incstack = 0
  7691                           ; Regs used in _I2C_ClearErrors: []
  7692                           
  7693                           
  7694                           ;I2C.c: 65:     SSPCON1bits.SSPOV = 0;
  7695     0CC2  0024               	movlb	4	; select bank4
  7696     0CC3  1315               	bcf	21,6	;volatile
  7697                           
  7698                           ;I2C.c: 66:     SSPCON1bits.WCOL = 0;
  7699     0CC4  1395               	bcf	21,7	;volatile
  7700                           
  7701                           ;I2C.c: 69:     PIR2bits.BCL1IF = 0;
  7702     0CC5  0020               	movlb	0	; select bank0
  7703     0CC6  1192               	bcf	18,3	;volatile
  7704                           
  7705                           ;I2C.c: 72:     PIR1bits.SSP1IF = 0;
  7706     0CC7  1191               	bcf	17,3	;volatile
  7707     0CC8                     l339:
  7708     0CC8  0008               	return
  7709     0CC9                     __end_of_I2C_ClearErrors:
  7710                           
  7711                           	psect	text30
  7712     00AA                     __ptext30:	
  7713 ;; *************** function _HCSR04_Read_cm *****************
  7714 ;; Defined at:
  7715 ;;		line 64 in file "main.c"
  7716 ;; Parameters:    Size  Location     Type
  7717 ;;  cm_out          1    wreg     PTR unsigned short 
  7718 ;;		 -> main@dist_cm(2), 
  7719 ;; Auto vars:     Size  Location     Type
  7720 ;;  cm_out          1   10[COMMON] PTR unsigned short 
  7721 ;;		 -> main@dist_cm(2), 
  7722 ;;  timeout         2   11[COMMON] unsigned short 
  7723 ;;  counts          2    8[COMMON] unsigned short 
  7724 ;; Return value:  Size  Location     Type
  7725 ;;                  1    wreg      unsigned char 
  7726 ;; Registers used:
  7727 ;;		wreg, fsr1l, fsr1h, status,2, status,0, pclath, cstack
  7728 ;; Tracked objects:
  7729 ;;		On entry : 0/0
  7730 ;;		On exit  : 0/0
  7731 ;;		Unchanged: 0/0
  7732 ;; Data sizes:     COMMON   BANK0   BANK1   BANK2   BANK3   BANK4   BANK5   BANK6   BANK7   BANK8   BANK9  BANK10  BANK1
      +1  BANK12  BANK13  BANK14  BANK15  BANK16  BANK17  BANK18  BANK19  BANK20  BANK21  BANK22  BANK23  BANK24  BANK25
  7733 ;;      Params:         0       0       0       0       0       0       0       0       0       0       0       0       
      +0       0       0       0       0       0       0       0       0       0       0       0       0       0       0
  7734 ;;      Locals:         5       0       0       0       0       0       0       0       0       0       0       0       
      +0       0       0       0       0       0       0       0       0       0       0       0       0       0       0
  7735 ;;      Temps:          0       0       0       0       0       0       0       0       0       0       0       0       
      +0       0       0       0       0       0       0       0       0       0       0       0       0       0       0
  7736 ;;      Totals:         5       0       0       0       0       0       0       0       0       0       0       0       
      +0       0       0       0       0       0       0       0       0       0       0       0       0       0       0
  7737 ;;Total ram usage:        5 bytes
  7738 ;; Hardware stack levels used: 1
  7739 ;; Hardware stack levels required when called: 1
  7740 ;; This function calls:
  7741 ;;		_Trigger_Pulse_10us
  7742 ;;		___lwdiv
  7743 ;; This function is called by:
  7744 ;;		_main
  7745 ;; This function uses a non-reentrant model
  7746 ;;
  7747                           
  7748     00AA                     _HCSR04_Read_cm:	
  7749                           ;psect for function _HCSR04_Read_cm
  7750                           
  7751                           
  7752                           ;incstack = 0
  7753                           ; Regs used in _HCSR04_Read_cm: [wreg+fsr1l+fsr1h+status,2+status,0+pclath+cstack]
  7754                           ;HCSR04_Read_cm@cm_out stored from wreg
  7755     00AA  00FA               	movwf	HCSR04_Read_cm@cm_out
  7756     00AB                     l2532:
  7757                           
  7758                           ;main.c: 64: static uint8_t HCSR04_Read_cm(uint16_t *cm_out);main.c: 65: {;main.c: 66:  
      +                             Trigger_Pulse_10us();
  7759     00AB  318C  24C9  3180   	fcall	_Trigger_Pulse_10us
  7760     00AE                     l2534:
  7761                           
  7762                           ;main.c: 69:     uint16_t timeout = 30000;
  7763     00AE  3030               	movlw	48
  7764     00AF  00FB               	movwf	HCSR04_Read_cm@timeout
  7765     00B0  3075               	movlw	117
  7766     00B1  00FC               	movwf	HCSR04_Read_cm@timeout+1
  7767                           
  7768                           ;main.c: 70:     while (PORTBbits.RB0 == 0 && timeout--) _delay((unsigned long)((1)*(320
      +                          00000/4000000.0)));
  7769     00B2  28B7               	goto	l96
  7770     00B3                     l97:
  7771     00B3  3200               	nop2	;2 cycle nop
  7772     00B4  3200               	nop2	;2 cycle nop
  7773     00B5  3200               	nop2	;2 cycle nop
  7774     00B6  3200               	nop2	;2 cycle nop
  7775     00B7                     l96:
  7776     00B7  0020               	movlb	0	; select bank0
  7777     00B8  180D               	btfsc	13,0	;volatile
  7778     00B9  28BB               	goto	u2631
  7779     00BA  28BC               	goto	u2630
  7780     00BB                     u2631:
  7781     00BB  28C8               	goto	l2538
  7782     00BC                     u2630:
  7783     00BC                     l2536:
  7784     00BC  3001               	movlw	1
  7785     00BD  02FB               	subwf	HCSR04_Read_cm@timeout,f
  7786     00BE  3000               	movlw	0
  7787     00BF  3BFC               	subwfb	HCSR04_Read_cm@timeout+1,f
  7788     00C0  0A7B               	incf	HCSR04_Read_cm@timeout,w
  7789     00C1  1D03               	skipz
  7790     00C2  28C7               	goto	u2641
  7791     00C3  0A7C               	incf	HCSR04_Read_cm@timeout+1,w
  7792     00C4  1D03               	btfss	3,2
  7793     00C5  28C7               	goto	u2641
  7794     00C6  28C8               	goto	u2640
  7795     00C7                     u2641:
  7796     00C7  28B3               	goto	l97
  7797     00C8                     u2640:
  7798     00C8                     l2538:
  7799                           
  7800                           ;main.c: 71:     if (timeout == 0) return 0;
  7801     00C8  087B               	movf	HCSR04_Read_cm@timeout,w
  7802     00C9  047C               	iorwf	HCSR04_Read_cm@timeout+1,w
  7803     00CA  1D03               	btfss	3,2
  7804     00CB  28CD               	goto	u2651
  7805     00CC  28CE               	goto	u2650
  7806     00CD                     u2651:
  7807     00CD  28D0               	goto	l2544
  7808     00CE                     u2650:
  7809     00CE                     l2540:
  7810     00CE  3000               	movlw	0
  7811     00CF  28FB               	goto	l102
  7812     00D0                     l2544:
  7813                           
  7814                           ;main.c: 74:     TMR1 = 0;
  7815     00D0  0196               	clrf	22	;volatile
  7816     00D1  0197               	clrf	23	;volatile
  7817     00D2                     l2546:
  7818                           
  7819                           ;main.c: 75:     PIR1bits.TMR1IF = 0;
  7820     00D2  1011               	bcf	17,0	;volatile
  7821     00D3                     l2548:
  7822                           
  7823                           ;main.c: 76:     T1CONbits.TMR1ON = 1;
  7824     00D3  1418               	bsf	24,0	;volatile
  7825     00D4                     l103:	
  7826                           ;main.c: 78:     while (PORTBbits.RB0 == 1 && !PIR1bits.TMR1IF) { }
  7827                           
  7828     00D4  1C0D               	btfss	13,0	;volatile
  7829     00D5  28D7               	goto	u2661
  7830     00D6  28D8               	goto	u2660
  7831     00D7                     u2661:
  7832     00D7  28DC               	goto	l107
  7833     00D8                     u2660:
  7834     00D8                     l2550:
  7835     00D8  1C11               	btfss	17,0	;volatile
  7836     00D9  28DB               	goto	u2671
  7837     00DA  28DC               	goto	u2670
  7838     00DB                     u2671:
  7839     00DB  28D4               	goto	l103
  7840     00DC                     u2670:
  7841     00DC                     l107:
  7842                           
  7843                           ;main.c: 80:     T1CONbits.TMR1ON = 0;
  7844     00DC  1018               	bcf	24,0	;volatile
  7845                           
  7846                           ;main.c: 82:     if (PIR1bits.TMR1IF) return 0;
  7847     00DD  1C11               	btfss	17,0	;volatile
  7848     00DE  28E0               	goto	u2681
  7849     00DF  28E1               	goto	u2680
  7850     00E0                     u2681:
  7851     00E0  28E2               	goto	l2556
  7852     00E1                     u2680:
  7853     00E1  28CE               	goto	l2540
  7854     00E2                     l2556:
  7855                           
  7856                           ;main.c: 84:     uint16_t counts = TMR1;
  7857     00E2  0817               	movf	23,w	;volatile
  7858     00E3  00F9               	movwf	HCSR04_Read_cm@counts+1
  7859     00E4  0816               	movf	22,w	;volatile
  7860     00E5  00F8               	movwf	HCSR04_Read_cm@counts
  7861     00E6                     l2558:
  7862                           
  7863                           ;main.c: 87:     *cm_out = (uint16_t)((counts + 232) / 464);
  7864     00E6  30D0               	movlw	208
  7865     00E7  00F0               	movwf	___lwdiv@divisor
  7866     00E8  3001               	movlw	1
  7867     00E9  00F1               	movwf	___lwdiv@divisor+1
  7868     00EA  0878               	movf	HCSR04_Read_cm@counts,w
  7869     00EB  3EE8               	addlw	232
  7870     00EC  00F2               	movwf	___lwdiv@dividend
  7871     00ED  3000               	movlw	0
  7872     00EE  3D79               	addwfc	HCSR04_Read_cm@counts+1,w
  7873     00EF  00F3               	movwf	___lwdiv@dividend+1
  7874     00F0  318E  26EC  3180   	fcall	___lwdiv
  7875     00F3  087A               	movf	HCSR04_Read_cm@cm_out,w
  7876     00F4  0086               	movwf	6
  7877     00F5  0187               	clrf	7
  7878     00F6  0870               	movf	?___lwdiv,w
  7879     00F7  3FC0               	movwi [0]fsr1
  7880     00F8  0871               	movf	?___lwdiv+1,w
  7881     00F9  3FC1               	movwi [1]fsr1
  7882     00FA                     l2560:
  7883                           
  7884                           ;main.c: 89:     return 1;
  7885     00FA  3001               	movlw	1
  7886     00FB                     l102:
  7887     00FB  0008               	return
  7888     00FC                     __end_of_HCSR04_Read_cm:
  7889                           
  7890                           	psect	text31
  7891     0EEC                     __ptext31:	
  7892 ;; *************** function ___lwdiv *****************
  7893 ;; Defined at:
  7894 ;;		line 5 in file "C:\Program Files\Microchip\xc8\v2.46\pic\sources\c99\common\lwdiv.c"
  7895 ;; Parameters:    Size  Location     Type
  7896 ;;  divisor         2    0[COMMON] unsigned int 
  7897 ;;  dividend        2    2[COMMON] unsigned int 
  7898 ;; Auto vars:     Size  Location     Type
  7899 ;;  quotient        2    5[COMMON] unsigned int 
  7900 ;;  counter         1    7[COMMON] unsigned char 
  7901 ;; Return value:  Size  Location     Type
  7902 ;;                  2    0[COMMON] unsigned int 
  7903 ;; Registers used:
  7904 ;;		wreg, status,2, status,0
  7905 ;; Tracked objects:
  7906 ;;		On entry : 0/0
  7907 ;;		On exit  : 0/0
  7908 ;;		Unchanged: 0/0
  7909 ;; Data sizes:     COMMON   BANK0   BANK1   BANK2   BANK3   BANK4   BANK5   BANK6   BANK7   BANK8   BANK9  BANK10  BANK1
      +1  BANK12  BANK13  BANK14  BANK15  BANK16  BANK17  BANK18  BANK19  BANK20  BANK21  BANK22  BANK23  BANK24  BANK25
  7910 ;;      Params:         4       0       0       0       0       0       0       0       0       0       0       0       
      +0       0       0       0       0       0       0       0       0       0       0       0       0       0       0
  7911 ;;      Locals:         3       0       0       0       0       0       0       0       0       0       0       0       
      +0       0       0       0       0       0       0       0       0       0       0       0       0       0       0
  7912 ;;      Temps:          1       0       0       0       0       0       0       0       0       0       0       0       
      +0       0       0       0       0       0       0       0       0       0       0       0       0       0       0
  7913 ;;      Totals:         8       0       0       0       0       0       0       0       0       0       0       0       
      +0       0       0       0       0       0       0       0       0       0       0       0       0       0       0
  7914 ;;Total ram usage:        8 bytes
  7915 ;; Hardware stack levels used: 1
  7916 ;; This function calls:
  7917 ;;		Nothing
  7918 ;; This function is called by:
  7919 ;;		_HCSR04_Read_cm
  7920 ;;		_OLED_Printf_Line
  7921 ;; This function uses a non-reentrant model
  7922 ;;
  7923                           
  7924     0EEC                     ___lwdiv:	
  7925                           ;psect for function ___lwdiv
  7926                           
  7927     0EEC                     l2426:	
  7928                           ;incstack = 0
  7929                           ; Regs used in ___lwdiv: [wreg+status,2+status,0]
  7930                           
  7931     0EEC  01F5               	clrf	___lwdiv@quotient
  7932     0EED  01F6               	clrf	___lwdiv@quotient+1
  7933     0EEE                     l2428:
  7934     0EEE  0870               	movf	___lwdiv@divisor,w
  7935     0EEF  0471               	iorwf	___lwdiv@divisor+1,w
  7936     0EF0  1903               	btfsc	3,2
  7937     0EF1  2EF3               	goto	u2501
  7938     0EF2  2EF4               	goto	u2500
  7939     0EF3                     u2501:
  7940     0EF3  2F23               	goto	l2448
  7941     0EF4                     u2500:
  7942     0EF4                     l2430:
  7943     0EF4  01F7               	clrf	___lwdiv@counter
  7944     0EF5  0AF7               	incf	___lwdiv@counter,f
  7945     0EF6  2F00               	goto	l2436
  7946     0EF7                     l2432:
  7947     0EF7  3001               	movlw	1
  7948     0EF8                     u2515:
  7949     0EF8  35F0               	lslf	___lwdiv@divisor,f
  7950     0EF9  0DF1               	rlf	___lwdiv@divisor+1,f
  7951     0EFA  0B89               	decfsz	9,f
  7952     0EFB  2EF8               	goto	u2515
  7953     0EFC                     l2434:
  7954     0EFC  3001               	movlw	1
  7955     0EFD  00F4               	movwf	??___lwdiv
  7956     0EFE  0874               	movf	??___lwdiv,w
  7957     0EFF  07F7               	addwf	___lwdiv@counter,f
  7958     0F00                     l2436:
  7959     0F00  1FF1               	btfss	___lwdiv@divisor+1,7
  7960     0F01  2F03               	goto	u2521
  7961     0F02  2F04               	goto	u2520
  7962     0F03                     u2521:
  7963     0F03  2EF7               	goto	l2432
  7964     0F04                     u2520:
  7965     0F04                     l2438:
  7966     0F04  3001               	movlw	1
  7967     0F05                     u2535:
  7968     0F05  35F5               	lslf	___lwdiv@quotient,f
  7969     0F06  0DF6               	rlf	___lwdiv@quotient+1,f
  7970     0F07  0B89               	decfsz	9,f
  7971     0F08  2F05               	goto	u2535
  7972     0F09  0871               	movf	___lwdiv@divisor+1,w
  7973     0F0A  0273               	subwf	___lwdiv@dividend+1,w
  7974     0F0B  1D03               	skipz
  7975     0F0C  2F0F               	goto	u2545
  7976     0F0D  0870               	movf	___lwdiv@divisor,w
  7977     0F0E  0272               	subwf	___lwdiv@dividend,w
  7978     0F0F                     u2545:
  7979     0F0F  1C03               	skipc
  7980     0F10  2F12               	goto	u2541
  7981     0F11  2F13               	goto	u2540
  7982     0F12                     u2541:
  7983     0F12  2F18               	goto	l2444
  7984     0F13                     u2540:
  7985     0F13                     l2440:
  7986     0F13  0870               	movf	___lwdiv@divisor,w
  7987     0F14  02F2               	subwf	___lwdiv@dividend,f
  7988     0F15  0871               	movf	___lwdiv@divisor+1,w
  7989     0F16  3BF3               	subwfb	___lwdiv@dividend+1,f
  7990     0F17                     l2442:
  7991     0F17  1475               	bsf	___lwdiv@quotient,0
  7992     0F18                     l2444:
  7993     0F18  3001               	movlw	1
  7994     0F19                     u2555:
  7995     0F19  36F1               	lsrf	___lwdiv@divisor+1,f
  7996     0F1A  0CF0               	rrf	___lwdiv@divisor,f
  7997     0F1B  0B89               	decfsz	9,f
  7998     0F1C  2F19               	goto	u2555
  7999     0F1D                     l2446:
  8000     0F1D  3001               	movlw	1
  8001     0F1E  02F7               	subwf	___lwdiv@counter,f
  8002     0F1F  1D03               	btfss	3,2
  8003     0F20  2F22               	goto	u2561
  8004     0F21  2F23               	goto	u2560
  8005     0F22                     u2561:
  8006     0F22  2F04               	goto	l2438
  8007     0F23                     u2560:
  8008     0F23                     l2448:
  8009     0F23  0876               	movf	___lwdiv@quotient+1,w
  8010     0F24  00F1               	movwf	?___lwdiv+1
  8011     0F25  0875               	movf	___lwdiv@quotient,w
  8012     0F26  00F0               	movwf	?___lwdiv
  8013     0F27                     l722:
  8014     0F27  0008               	return
  8015     0F28                     __end_of___lwdiv:
  8016                           
  8017                           	psect	text32
  8018     0CC9                     __ptext32:	
  8019 ;; *************** function _Trigger_Pulse_10us *****************
  8020 ;; Defined at:
  8021 ;;		line 11 in file "main.c"
  8022 ;; Parameters:    Size  Location     Type
  8023 ;;		None
  8024 ;; Auto vars:     Size  Location     Type
  8025 ;;		None
  8026 ;; Return value:  Size  Location     Type
  8027 ;;                  1    wreg      void 
  8028 ;; Registers used:
  8029 ;;		wreg
  8030 ;; Tracked objects:
  8031 ;;		On entry : 0/0
  8032 ;;		On exit  : 0/0
  8033 ;;		Unchanged: 0/0
  8034 ;; Data sizes:     COMMON   BANK0   BANK1   BANK2   BANK3   BANK4   BANK5   BANK6   BANK7   BANK8   BANK9  BANK10  BANK1
      +1  BANK12  BANK13  BANK14  BANK15  BANK16  BANK17  BANK18  BANK19  BANK20  BANK21  BANK22  BANK23  BANK24  BANK25
  8035 ;;      Params:         0       0       0       0       0       0       0       0       0       0       0       0       
      +0       0       0       0       0       0       0       0       0       0       0       0       0       0       0
  8036 ;;      Locals:         0       0       0       0       0       0       0       0       0       0       0       0       
      +0       0       0       0       0       0       0       0       0       0       0       0       0       0       0
  8037 ;;      Temps:          0       0       0       0       0       0       0       0       0       0       0       0       
      +0       0       0       0       0       0       0       0       0       0       0       0       0       0       0
  8038 ;;      Totals:         0       0       0       0       0       0       0       0       0       0       0       0       
      +0       0       0       0       0       0       0       0       0       0       0       0       0       0       0
  8039 ;;Total ram usage:        0 bytes
  8040 ;; Hardware stack levels used: 1
  8041 ;; This function calls:
  8042 ;;		Nothing
  8043 ;; This function is called by:
  8044 ;;		_HCSR04_Read_cm
  8045 ;; This function uses a non-reentrant model
  8046 ;;
  8047                           
  8048     0CC9                     _Trigger_Pulse_10us:	
  8049                           ;psect for function _Trigger_Pulse_10us
  8050                           
  8051     0CC9                     l2168:	
  8052                           ;incstack = 0
  8053                           ; Regs used in _Trigger_Pulse_10us: [wreg]
  8054                           
  8055                           
  8056                           ;main.c: 13:     LATCbits.LATC3 = 1;
  8057     0CC9  0022               	movlb	2	; select bank2
  8058     0CCA  158E               	bsf	14,3	;volatile
  8059     0CCB                     l2170:
  8060                           
  8061                           ;main.c: 14:     _delay((unsigned long)((10)*(32000000/4000000.0)));
  8062     0CCB  301A               	movlw	26
  8063     0CCC                     u3377:
  8064     0CCC  0B89               	decfsz	9,f
  8065     0CCD  2CCC               	goto	u3377
  8066     0CCE  3200               	nop2
  8067     0CCF                     l2172:
  8068                           
  8069                           ;main.c: 15:     LATCbits.LATC3 = 0;
  8070     0CCF  0022               	movlb	2	; select bank2
  8071     0CD0  118E               	bcf	14,3	;volatile
  8072     0CD1                     l90:
  8073     0CD1  0008               	return
  8074     0CD2                     __end_of_Trigger_Pulse_10us:
  8075     007E                     btemp	set	126	;btemp
  8076     007E                     wtemp0	set	126
  8077     24F0                     
  8078                           	psect	config
  8079                           
  8080                           ;Config register CONFIG1 @ 0x8007
  8081                           ;	Oscillator Selection Bits
  8082                           ;	FOSC = INTOSC, INTOSC oscillator: I/O function on CLKIN pin
  8083                           ;	Watchdog Timer Enable
  8084                           ;	WDTE = OFF, WDT disabled
  8085                           ;	Power-up Timer Enable
  8086                           ;	PWRTE = OFF, PWRT disabled
  8087                           ;	MCLR Pin Function Select
  8088                           ;	MCLRE = OFF, MCLR/VPP pin function is digital input if LVP bit is also 0.
  8089                           ;	Flash Program Memory Code Protection
  8090                           ;	CP = OFF, Program memory code protection is disabled
  8091                           ;	Brown-out Reset Enable
  8092                           ;	BOREN = OFF, Brown-out Reset disabled
  8093                           ;	Clock Out Enable
  8094                           ;	CLKOUTEN = OFF, CLKOUT function is disabled. I/O or oscillator function on the CLKOUT 
      +                          pin
  8095                           ;	Internal/External Switchover Mode
  8096                           ;	IESO = ON, Internal/External Switchover Mode is enabled
  8097                           ;	Fail-Safe Clock Monitor Enable
  8098                           ;	FCMEN = OFF, Fail-Safe Clock Monitor is disabled
  8099     8007                     	org	32775
  8100     8007  19A4               	dw	6564
  8101                           
  8102                           ;Config register CONFIG2 @ 0x8008
  8103                           ;	Flash Memory Self-Write Protection
  8104                           ;	WRT = OFF, Write protection off
  8105                           ;	Peripheral Pin Select one-way control
  8106                           ;	PPS1WAY = ON, The PPSLOCK bit cannot be cleared once it is set by software
  8107                           ;	Zero-cross detect disable
  8108                           ;	ZCDDIS = ON, ZCD disabled. ZCD can be enabled by setting the ZCDSEN bit of ZCDCON
  8109                           ;	Phase Lock Loop enable
  8110                           ;	PLLEN = OFF, 4x PLL is disabled
  8111                           ;	Stack Overflow/Underflow Reset Enable
  8112                           ;	STVREN = ON, Stack Overflow or Underflow will cause a Reset
  8113                           ;	Brown-out Reset Voltage Selection
  8114                           ;	BORV = LO, Brown-out Reset Voltage (Vbor), low trip point selected.
  8115                           ;	Low-Power Brown Out Reset
  8116                           ;	LPBOR = OFF, Low-Power BOR is disabled
  8117                           ;	In-Circuit Debugger Mode
  8118                           ;	DEBUG = 0x1, unprogrammed default
  8119                           ;	Low-Voltage Programming Enable
  8120                           ;	LVP = OFF, High-voltage on MCLR/VPP must be used for programming
  8121     8008                     	org	32776
  8122     8008  1EFF               	dw	7935

Data Sizes:
    Strings     40
    Constant    778
    Data        0
    BSS         0
    Persistent  32
    Stack       0

Auto Spaces:
    Space          Size  Autos    Used
    COMMON           14     14      14
    BANK0            80     80      80
    BANK1            80     48      48
    BANK2            80      0       0
    BANK3            80      0       0
    BANK4            80      0       0
    BANK5            80      0       0
    BANK6            80      0       0
    BANK7            80      0       0
    BANK8            80      0       0
    BANK9            80      0       0
    BANK10           80      0       0
    BANK11           80      0       0
    BANK12           80      0       0
    BANK13           80      0       0
    BANK14           80      0       0
    BANK15           64      0       0
    BANK16            0      0       0
    BANK17            0      0       0
    BANK18            0      0       0
    BANK19            0      0       0
    BANK20            0      0       0
    BANK21            0      0       0
    BANK22            0      0       0
    BANK23            0      0       0
    BANK24            0      0       0
    BANK25            0      0       0

Pointer List with Targets:

    HCSR04_Read_cm@cm_out	PTR unsigned short  size(1) Largest target is 2
		 -> main@dist_cm(BANK1[2]), 

    memcpy@d	PTR unsigned char  size(2) Largest target is 512
		 -> screen_buffer(BIGRAM[512]), 

    memcpy@d1	PTR void  size(2) Largest target is 512
		 -> screen_buffer(BIGRAM[512]), 

    memcpy@s	PTR const unsigned char  size(2) Largest target is 768
		 -> OledFont(CODE[768]), 

    memcpy@s1	PTR const void  size(2) Largest target is 768
		 -> OledFont(CODE[768]), 

    memset@dest	PTR void  size(2) Largest target is 512
		 -> screen_buffer(BIGRAM[512]), 

    memset@p	PTR unsigned char  size(2) Largest target is 512
		 -> screen_buffer(BIGRAM[512]), 

    OLED_Printf_Line@ap	PTR void [1] size(1) Largest target is 1
		 -> ?_OLED_Printf_Line(BANK0[1]), 

    OLED_Printf_Line@dst	PTR unsigned char  size(1) Largest target is 32
		 -> OLED_Printf_Line@buf(BANK0[32]), 

    OLED_Printf_Line@fmt	PTR const unsigned char  size(2) Largest target is 19
		 -> STR_1(CODE[19]), STR_2(CODE[12]), STR_3(CODE[9]), 

    OLED_Printf_Line@p	PTR const unsigned char  size(1) Largest target is 32
		 -> OLED_Printf_Line@buf(BANK0[32]), 

    OLED_Printf_Line@src	PTR const unsigned char  size(2) Largest target is 19
		 -> STR_1(CODE[19]), STR_2(CODE[12]), STR_3(CODE[9]), 

    OLED_Printf_Line@str	PTR const unsigned char  size(1) Largest target is 1
		 -> ?_OLED_Printf_Line(BANK0[1]), 

    OLED_WriteData@data	PTR const unsigned char  size(2) Largest target is 768
		 -> OledFont(CODE[768]), screen_buffer(BIGRAM[512]), 

    sp__memcpy	PTR void  size(2) Largest target is 512
		 -> screen_buffer(BIGRAM[512]), 

    sp__memset	PTR void  size(2) Largest target is 512
		 -> screen_buffer(BIGRAM[512]), 

    sp__strcpy	PTR unsigned char  size(2) Largest target is 256
		 -> OLED_Printf_Line@last_text(BIGRAM[256]), 

    strcmp@l	PTR const unsigned char  size(1) Largest target is 32
		 -> OLED_Printf_Line@buf(BANK0[32]), 

    strcmp@r	PTR const unsigned char  size(2) Largest target is 256
		 -> OLED_Printf_Line@last_text(BIGRAM[256]), 

    strcpy@d	PTR unsigned char  size(2) Largest target is 256
		 -> OLED_Printf_Line@last_text(BIGRAM[256]), 

    strcpy@dest	PTR unsigned char  size(2) Largest target is 256
		 -> OLED_Printf_Line@last_text(BIGRAM[256]), 

    strcpy@src	PTR const unsigned char  size(1) Largest target is 32
		 -> OLED_Printf_Line@buf(BANK0[32]), 


Critical Paths under _main in COMMON

    _main->_OLED_Init
    _OLED_SetOrientation->_OLED_Command
    _OLED_Printf_Line->___lldiv
    _OLED_UpdateLine->_OLED_WriteData
    _OLED_Init->_OLED_Clear
    _OLED_Clear->_OLED_WriteData
    _OLED_YX->_OLED_Command
    _OLED_Command->_I2C_WriteByte
    _OLED_WriteData->_I2C_WriteByte
    _I2C_WriteByte->_I2C_WaitIF
    _I2C_WriteByte->_I2C_WaitIdle
    _I2C_Stop->_I2C_WaitIF
    _I2C_Stop->_I2C_WaitIdle
    _I2C_Start->_I2C_WaitIF
    _I2C_Start->_I2C_WaitIdle
    _HCSR04_Read_cm->___lwdiv

Critical Paths under _main in BANK0

    _main->_OLED_Printf_Line
    _OLED_Printf_Line->_OLED_UpdateLine
    _OLED_Printf_Line->___aldiv
    _OLED_Init->_OLED_Clear

Critical Paths under _main in BANK1

    _main->_OLED_Printf_Line

Critical Paths under _main in BANK2

    None.

Critical Paths under _main in BANK3

    None.

Critical Paths under _main in BANK4

    None.

Critical Paths under _main in BANK5

    None.

Critical Paths under _main in BANK6

    None.

Critical Paths under _main in BANK7

    None.

Critical Paths under _main in BANK8

    None.

Critical Paths under _main in BANK9

    None.

Critical Paths under _main in BANK10

    None.

Critical Paths under _main in BANK11

    None.

Critical Paths under _main in BANK12

    None.

Critical Paths under _main in BANK13

    None.

Critical Paths under _main in BANK14

    None.

Critical Paths under _main in BANK15

    None.

Critical Paths under _main in BANK16

    None.

Critical Paths under _main in BANK17

    None.

Critical Paths under _main in BANK18

    None.

Critical Paths under _main in BANK19

    None.

Critical Paths under _main in BANK20

    None.

Critical Paths under _main in BANK21

    None.

Critical Paths under _main in BANK22

    None.

Critical Paths under _main in BANK23

    None.

Critical Paths under _main in BANK24

    None.

Critical Paths under _main in BANK25

    None.

Call Graph Tables:

 ---------------------------------------------------------------------------------
 (Depth) Function   	        Calls       Base Space   Used Autos Params    Refs
 ---------------------------------------------------------------------------------
 (0) _main                                                 4     4      0   36736
                                             44 BANK1      4     4      0
                     _HCSR04_Read_cm
                           _I2C_Init
                         _OLED_Clear
                          _OLED_Init
                   _OLED_Printf_Line
                _OLED_SetOrientation
                           _initMain
 ---------------------------------------------------------------------------------
 (1) _initMain                                             2     2      0       0
                                              0 COMMON     2     2      0
                        _internal_32
 ---------------------------------------------------------------------------------
 (2) _internal_32                                          0     0      0       0
 ---------------------------------------------------------------------------------
 (1) _OLED_SetOrientation                                  3     3      0    3038
                                              7 COMMON     3     3      0
                       _OLED_Command
 ---------------------------------------------------------------------------------
 (1) _OLED_Printf_Line                                   118   114      4   14581
                                              6 BANK0     74    70      4
                                              0 BANK1     44    44      0
                    _OLED_UpdateLine
                            ___aldiv
                            ___almod
                            ___awdiv
                            ___awmod
                            ___lldiv
                            ___llmod
                            ___lwdiv
                            ___lwmod
                             _memcpy
                             _memset
                             _strcmp
                             _strcpy
 ---------------------------------------------------------------------------------
 (2) _strcpy                                               7     4      3     225
                                              0 COMMON     7     4      3
 ---------------------------------------------------------------------------------
 (2) _strcmp                                               4     2      2     221
                                              0 COMMON     4     2      2
 ---------------------------------------------------------------------------------
 (2) _memcpy                                              11     5      6     371
                                              0 COMMON    11     5      6
 ---------------------------------------------------------------------------------
 (2) ___lwmod                                              6     2      4     311
                                              0 COMMON     6     2      4
 ---------------------------------------------------------------------------------
 (2) ___llmod                                             10     2      8     311
                                              0 COMMON    10     2      8
 ---------------------------------------------------------------------------------
 (2) ___lldiv                                             14     6      8     314
                                              0 COMMON    14     6      8
 ---------------------------------------------------------------------------------
 (2) ___awmod                                              7     3      4     448
                                              0 COMMON     7     3      4
 ---------------------------------------------------------------------------------
 (2) ___awdiv                                              9     5      4     604
                                              0 COMMON     9     5      4
 ---------------------------------------------------------------------------------
 (2) ___almod                                             11     3      8     448
                                              0 COMMON    11     3      8
 ---------------------------------------------------------------------------------
 (2) ___aldiv                                             15     7      8     452
                                              0 COMMON     9     1      8
                                              0 BANK0      6     6      0
 ---------------------------------------------------------------------------------
 (2) _OLED_UpdateLine                                      7     7      0    7135
                                             12 COMMON     1     1      0
                                              0 BANK0      6     6      0
                     _OLED_WriteData
                            _OLED_YX
 ---------------------------------------------------------------------------------
 (1) _OLED_Init                                            1     1      0   10749
                                             13 COMMON     1     1      0
                         _OLED_Clear
                       _OLED_Command
 ---------------------------------------------------------------------------------
 (2) _OLED_Clear                                           7     7      0    7733
                                             12 COMMON     1     1      0
                                              0 BANK0      6     6      0
                     _OLED_WriteData
                            _OLED_YX
                             _memset
 ---------------------------------------------------------------------------------
 (2) _memset                                               8     2      6     552
                                              0 COMMON     8     2      6
 ---------------------------------------------------------------------------------
 (3) _OLED_YX                                              4     3      1    3333
                                              7 COMMON     4     3      1
                       _OLED_Command
 ---------------------------------------------------------------------------------
 (2) _OLED_Command                                         2     2      0    3016
                                              5 COMMON     2     2      0
                          _I2C_Start
                           _I2C_Stop
                      _I2C_WriteByte
                      _SSD1306_CtrlW
 ---------------------------------------------------------------------------------
 (3) _OLED_WriteData                                       7     3      4    3736
                                              5 COMMON     7     3      4
                          _I2C_Start
                           _I2C_Stop
                      _I2C_WriteByte
                      _SSD1306_CtrlW
 ---------------------------------------------------------------------------------
 (3) _SSD1306_CtrlW                                        0     0      0       0
 ---------------------------------------------------------------------------------
 (3) _I2C_WriteByte                                        2     2      0     992
                                              3 COMMON     2     2      0
                         _I2C_WaitIF
                       _I2C_WaitIdle
 ---------------------------------------------------------------------------------
 (3) _I2C_Stop                                             1     1      0     938
                                              3 COMMON     1     1      0
                         _I2C_WaitIF
                       _I2C_WaitIdle
 ---------------------------------------------------------------------------------
 (3) _I2C_Start                                            1     1      0     970
                                              3 COMMON     1     1      0
                         _I2C_WaitIF
                       _I2C_WaitIdle
 ---------------------------------------------------------------------------------
 (4) _I2C_WaitIdle                                         3     1      2     402
                                              0 COMMON     3     1      2
 ---------------------------------------------------------------------------------
 (4) _I2C_WaitIF                                           3     1      2     478
                                              0 COMMON     3     1      2
 ---------------------------------------------------------------------------------
 (1) _I2C_Init                                             1     1      0       0
                                              0 COMMON     1     1      0
                    _I2C_ClearErrors
 ---------------------------------------------------------------------------------
 (2) _I2C_ClearErrors                                      0     0      0       0
 ---------------------------------------------------------------------------------
 (1) _HCSR04_Read_cm                                       5     5      0     589
                                              8 COMMON     5     5      0
                 _Trigger_Pulse_10us
                            ___lwdiv
 ---------------------------------------------------------------------------------
 (2) ___lwdiv                                              8     4      4     466
                                              0 COMMON     8     4      4
 ---------------------------------------------------------------------------------
 (2) _Trigger_Pulse_10us                                   0     0      0       0
 ---------------------------------------------------------------------------------
 Estimated maximum stack depth 4
 ---------------------------------------------------------------------------------

 Call Graph Graphs:

 _main (ROOT)
   _HCSR04_Read_cm
     _Trigger_Pulse_10us
     ___lwdiv
   _I2C_Init
     _I2C_ClearErrors
   _OLED_Clear
     _OLED_WriteData
       _I2C_Start
         _I2C_WaitIF
         _I2C_WaitIdle
       _I2C_Stop
         _I2C_WaitIF
         _I2C_WaitIdle
       _I2C_WriteByte
         _I2C_WaitIF
         _I2C_WaitIdle
       _SSD1306_CtrlW
     _OLED_YX
       _OLED_Command
         _I2C_Start
         _I2C_Stop
         _I2C_WriteByte
         _SSD1306_CtrlW
     _memset
   _OLED_Init
     _OLED_Clear
     _OLED_Command
   _OLED_Printf_Line
     _OLED_UpdateLine
       _OLED_WriteData
       _OLED_YX
     ___aldiv
     ___almod
     ___awdiv
     ___awmod
     ___lldiv
     ___llmod
     ___lwdiv
     ___lwmod
     _memcpy
     _memset
     _strcmp
     _strcpy
   _OLED_SetOrientation
     _OLED_Command
   _initMain
     _internal_32

 Address spaces:
Name               Size   Autos  Total    Cost      Usage
BIGRAM             7F0      0       0       0        0.0%
NULL                 0      0       0       0        0.0%
CODE                 0      0       0       0        0.0%
BITCOMMON            E      0       0       1        0.0%
BITSFR0              0      0       0       1        0.0%
SFR0                 0      0       0       1        0.0%
COMMON               E      E       E       2      100.0%
BITSFR1              0      0       0       2        0.0%
SFR1                 0      0       0       2        0.0%
BITSFR2              0      0       0       3        0.0%
SFR2                 0      0       0       3        0.0%
STACK                0      0       0       3        0.0%
BITBANK0            50      0       0       4        0.0%
BITSFR3              0      0       0       4        0.0%
SFR3                 0      0       0       4        0.0%
BANK0               50     50      50       5      100.0%
BITSFR4              0      0       0       5        0.0%
SFR4                 0      0       0       5        0.0%
BITBANK1            50      0       0       6        0.0%
BITSFR5              0      0       0       6        0.0%
SFR5                 0      0       0       6        0.0%
BANK1               50     30      30       7       60.0%
BITSFR6              0      0       0       7        0.0%
SFR6                 0      0       0       7        0.0%
BITBANK2            50      0       0       8        0.0%
BITSFR7              0      0       0       8        0.0%
SFR7                 0      0       0       8        0.0%
BANK2               50      0       0       9        0.0%
BITSFR8              0      0       0       9        0.0%
SFR8                 0      0       0       9        0.0%
BITBANK3            50      0       0      10        0.0%
BITSFR9              0      0       0      10        0.0%
SFR9                 0      0       0      10        0.0%
BANK3               50      0       0      11        0.0%
BITSFR10             0      0       0      11        0.0%
SFR10                0      0       0      11        0.0%
BITBANK4            50      0       0      12        0.0%
BITSFR11             0      0       0      12        0.0%
SFR11                0      0       0      12        0.0%
BANK4               50      0       0      13        0.0%
BITSFR12             0      0       0      13        0.0%
SFR12                0      0       0      13        0.0%
BITSFR13             0      0       0      14        0.0%
SFR13                0      0       0      14        0.0%
ABS                  0      0       0      14        0.0%
BITBANK5            50      0       0      15        0.0%
BITSFR14             0      0       0      15        0.0%
SFR14                0      0       0      15        0.0%
BANK5               50      0       0      16        0.0%
BITSFR15             0      0       0      16        0.0%
SFR15                0      0       0      16        0.0%
BITBANK6            50      0       0      17        0.0%
BITSFR16             0      0       0      17        0.0%
SFR16                0      0       0      17        0.0%
BANK6               50      0       0      18        0.0%
BITSFR17             0      0       0      18        0.0%
SFR17                0      0       0      18        0.0%
BITBANK7            50      0       0      19        0.0%
BITSFR18             0      0       0      19        0.0%
SFR18                0      0       0      19        0.0%
BANK7               50      0       0      20        0.0%
BITSFR19             0      0       0      20        0.0%
SFR19                0      0       0      20        0.0%
BITBANK8            50      0       0      21        0.0%
BITSFR20             0      0       0      21        0.0%
SFR20                0      0       0      21        0.0%
BANK8               50      0       0      22        0.0%
BITSFR21             0      0       0      22        0.0%
SFR21                0      0       0      22        0.0%
BITBANK9            50      0       0      23        0.0%
BITSFR22             0      0       0      23        0.0%
SFR22                0      0       0      23        0.0%
BANK9               50      0       0      24        0.0%
BITSFR23             0      0       0      24        0.0%
SFR23                0      0       0      24        0.0%
BITBANK10           50      0       0      25        0.0%
BITSFR24             0      0       0      25        0.0%
SFR24                0      0       0      25        0.0%
BANK10              50      0       0      26        0.0%
BITSFR25             0      0       0      26        0.0%
SFR25                0      0       0      26        0.0%
BITBANK11           50      0       0      27        0.0%
BITSFR26             0      0       0      27        0.0%
SFR26                0      0       0      27        0.0%
BITSFR27             0      0       0      28        0.0%
SFR27                0      0       0      28        0.0%
DATA                 0      0       0      28        0.0%
BANK11              50      0       0      29        0.0%
BITSFR28             0      0       0      29        0.0%
SFR28                0      0       0      29        0.0%
BITBANK12           50      0       0      30        0.0%
BITSFR29             0      0       0      30        0.0%
SFR29                0      0       0      30        0.0%
BANK12              50      0       0      31        0.0%
BITSFR30             0      0       0      31        0.0%
SFR30                0      0       0      31        0.0%
BITBANK13           50      0       0      32        0.0%
BITSFR31             0      0       0      32        0.0%
SFR31                0      0       0      32        0.0%
BANK13              50      0       0      33        0.0%
BITBANK14           50      0       0      34        0.0%
BANK14              50      0       0      35        0.0%
BITBANK15           50      0       0      36        0.0%
BANK15              40      0       0      37        0.0%
BITBANK16           50      0       0      38        0.0%
BANK16               0      0       0      39        0.0%
BITBANK17           50      0       0      40        0.0%
BANK17               0      0       0      41        0.0%
BITBANK18           50      0       0      42        0.0%
BANK18               0      0       0      43        0.0%
BITBANK19           50      0       0      44        0.0%
BANK19               0      0       0      45        0.0%
BITBANK20           50      0       0      46        0.0%
BANK20               0      0       0      47        0.0%
BITBANK21           50      0       0      48        0.0%
BANK21               0      0       0      49        0.0%
BITBANK22           50      0       0      50        0.0%
BANK22               0      0       0      51        0.0%
BITBANK23           50      0       0      52        0.0%
BANK23               0      0       0      53        0.0%
BITBANK24           50      0       0      54        0.0%
BANK24               0      0       0      55        0.0%
BITBANK25           20      0       0      56        0.0%
BANK25               0      0       0      57        0.0%


Microchip Technology PIC Macro Assembler V2.46 build 20240104201356 
Symbol Table                                                                                   Fri Dec 26 04:41:52 2025

                _SSPSTATbits 0214                           l17 000C                           l90 0CD1  
                         l93 014D                           l96 00B7                           l97 00B3  
               ___awdiv@sign 0076    OLED_Printf_Line@last_text 26F0                          l102 00FB  
                        l103 00D4                          l113 0026                          l107 00DC  
                        l214 07F1                          l153 0E85                          l330 0D2A  
                        l163 009E                          l332 0D46                          l149 0CC1  
                        l350 0DD4                          l182 02CD                          l351 0DD1  
                        l159 00A9                          l191 0E2A                          l336 0CF1  
                        l360 0D8B                          l520 02E0                          l176 0F68  
                        l345 0DAF                          l361 0D89                          l530 0348  
                        l339 0CC8                          l179 0D68                          l187 0FFF  
                        l507 035C                          l364 0E96                          l349 0DBF  
                        l365 0EB7                          l517 03D8                          l366 0EA9  
                        l359 0D77                          l367 0EB1                          l608 01A0  
                        l722 0F27                          l732 0EEB                          l910 0D28  
                        l478 01FA                          l672 0FB2                          l904 0DFE  
                        l595 0259                          l924 0D0C                          l918 0E57  
               ___awmod@sign 0076                          wreg 0009                  main@dist_cm 00CE  
                       l2000 0D8C                         l2010 0D9A                         l2002 0D8D  
                       l2004 0D94                         l2012 0DA2                         l2014 0DAE  
                       l2006 0D98                         l2030 0DC3                         l2022 0DB0  
                       l2032 0DCB                         l2024 0DB8                         l2120 0072  
                       l2112 0061                         l2104 0E7E                         l2200 0E2D  
                       l2026 0DBD                         l2050 0E98                         l2042 0E87  
                       l2018 0CC0                         l2122 0077                         l2114 0065  
                       l2202 0E35                         l2210 0CF2                         l2060 0EAE  
                       l2052 0E9B                         l2044 0E8F                         l2108 005A  
                       l2300 02EF                         l2220 0DE8                         l2204 0E42  
                       l2212 0CF6                         l2038 0DD3                         l2070 0D69  
                       l2062 0EAF                         l2054 0EA3                         l2046 0E94  
                       l2134 0086                         l2126 007B                         l2118 006B  
                       l2150 0D48                         l2310 031B                         l2302 02F7  
                       l2230 01B1                         l2222 0DEE                         l2214 0DD5  
                       l2206 0E4A                         l2072 0D71                         l2144 009A  
                       l2136 0089                         l2128 0080                         l2152 0D51  
                       l2160 0D12                         l2320 0340                         l2312 0323  
                       l2304 02FA                         l2400 0197                         l2240 01DC  
                       l2232 01B4                         l2216 0DDE                         l2224 0DF2  
                       l2170 0CCB                         l2226 0CC2                         l2066 0EB2  
                       l2138 0094                         l2090 0E6A                         l2082 0E59  
                       l2154 0D57                         l2162 0D18                         l2314 032A  
                       l2306 0305                         l2330 0205                         l2402 019C  
                       l2242 01E4                         l2234 01BF                         l2410 0F74  
                       l2218 0DE4                         l3034 0F5A                         l2172 0CCF  
                       l2076 0D7B                         l2092 0E6F                         l2084 0E5D  
                       l2156 0D5C                         l2164 0D1C                         l2180 0FB4  
                       l2260 036B                         l2252 0349                         l2308 0309  
                       l2316 0330                         l2340 0216                         l2332 0207  
                       l2324 01FB                         l2244 01E5                         l2236 01C3  
                       l2228 01A1                         l2420 0FA4                         l2412 0F7F  
                       l2500 011E                         l2430 0EF4                         l2078 0D83  
                       l2158 0D0D                         l2182 0FD1                         l2174 0FB3  
                       l2190 0E00                         l2270 038D                         l2262 036F  
                       l2254 034B                         l2318 0335                         l2350 022C  
                       l2342 021C                         l2334 020B                         l2326 01FC  
                       l2246 01EC                         l2238 01CA                         l2414 0F83  
                       l2422 0FAA                         l2406 0F69                         l2166 0004  
                       l2510 0130                         l2502 0120                         l2168 0CC9  
                       l2440 0F13                         l2432 0EF7                         l2096 0E73  
                       l2088 0E63                         l2184 0FD6                         l2600 0292  
                       l2280 03B3                         l2272 0391                         l2264 0377  
                       l2256 034F                         l2352 023B                         l2344 021F  
                       l2360 024B                         l2336 0210                         l2328 0200  
                       l2248 01F2                         l2416 0F95                         l2408 0F71  
                       l2520 0143                         l2512 0135                         l2504 0121  
                       l2442 0F17                         l2434 0EFC                         l2426 0EEC  
                       l2098 0E78                         l2186 0FF4                         l2610 02A6  
                       l2602 0296                         l2194 0E07                         l2282 03BA  
                       l2274 0398                         l2266 037F                         l2258 0360  
                       l2362 0250                         l2354 023F                         l2346 0224  
                       l2338 0214                         l2370 014F                         l2418 0F9D  
                       l2530 014C                         l2522 0144                         l2514 0139  
                       l2506 0126                         l2444 0F18                         l2436 0F00  
                       l2428 0EEE                         l2540 00CE                         l2532 00AB  
                       l2188 0FF9                         l2620 02BA                         l2612 02AA  
                       l2604 029A                         l2196 0E0C                         l2276 03AA  
                       l2268 0382                         l2284 03C0                         l2292 02CE  
                       l2364 0255                         l2356 0240                         l2348 0228  
                       l2380 0163                         l2372 0153                         l2460 0ECA  
                       l2452 0EB8                         l2700 04A6                         l2524 0147  
                       l2516 013E                         l2508 012B                         l2446 0F1D  
                       l2438 0F04                         l2550 00D8                         l2534 00AE  
                       l2622 02BE                         l2614 02AE                         l2606 029E  
                       l2286 03C5                         l2278 03B2                         l2294 02CF  
                       l2358 0245                         l2390 0179                         l2382 0169  
                       l2374 0158                         l2462 0ECE                         l2454 0EBE  
                       l2470 0EE7                         l2198 0E2C                         l2710 04E0  
                       l2702 04AC                         l2630 0F29                         l2526 0149  
                       l2518 0141                         l2448 0F23                         l2560 00FA  
                       l2544 00D0                         l2536 00BC                         l2624 02C2  
                       l2616 02B2                         l2608 02A2                         l2288 03D0  
                       l2296 02D3                         l2392 0183                         l2384 016C  
                       l2376 015A                         l2368 014E                         l2464 0ED8  
                       l2456 0EC1                         l2800 0647                         l2720 0509  
                       l2712 04E6                         l2704 04C8                         l2632 0F2E  
                       l2528 014A                         l2480 010D                         l2546 00D2  
                       l2538 00C8                         l2570 0CE6                         l2626 02C6  
                       l2618 02B6                         l2298 02E4                         l2394 0187  
                       l2386 0171                         l2378 015E                         l2466 0EDC  
                       l2458 0EC6                         l2810 066D                         l2802 064D  
                       l2730 0524                         l2722 050D                         l2706 04D0  
                       l2714 04EE                         l2634 0F37                         l2642 0F52  
                       l2490 0115                         l2482 010E                         l2474 00FC  
                       l2556 00E2                         l2548 00D3                         l2572 0CE9  
                       l2564 0CDE                         l2628 02CA                         l2580 026A  
                       l2396 018C                         l2388 0175                         l2468 0EE1  
                       l2820 068D                         l2812 0672                         l2804 0655  
                       l2740 056F                         l2732 053E                         l2724 0512  
                       l2716 04F8                         l2708 04D7                         l2660 0405  
                       l2652 03EC                         l2636 0F40                         l2492 0117  
                       l2484 010F                         l2476 00FF                         l2900 002F  
                       l2558 00E6                         l2566 0CE3                         l2590 027E  
                       l2582 026E                         l2574 025A                         l2398 0192  
                       l2830 06B3                         l2822 0695                         l2814 0679  
                       l2806 065E                         l2750 0591                         l2742 0578  
                       l2734 0544                         l2726 0518                         l2718 0503  
                       l2670 041F                         l2662 040B                         l2654 03EF  
                       l2638 0F49                         l2494 0118                         l2486 0111  
                       l2478 010B                         l2902 0041                         l2568 0CE4  
                       l2592 0282                         l2584 0272                         l2576 0262  
                       l2824 069E                         l2816 0681                         l2808 0664  
                       l2760 05B7                         l2752 059C                         l2744 057E  
                       l2736 0560                         l2728 0523                         l2680 044E  
                       l2672 0420                         l2664 040F                         l2656 03F9  
                       l2648 03DB                         l2496 011A                         l2488 0113  
                       l2904 004A                         l2594 0286                         l2586 0276  
                       l2578 0266                         l2850 06FB                         l2834 06B9  
                       l2826 06A6                         l2818 0687                         l2770 05E6  
                       l2762 05BD                         l2754 05A5                         l2738 0568  
                       l2746 0586                         l2690 0470                         l2682 0455  
                       l2674 0432                         l2666 0414                         l2658 03FE  
                       l2842 06CE                         l2498 011B                         l2596 028A  
                       l2588 027A                         l2836 06BE                         l2828 06AC  
                       l2780 060A                         l2772 05EC                         l2764 05BE  
                       l2748 058B                         l2756 05AB                         l2692 047A  
                       l2844 06E9                         l2684 045E                         l2676 0438  
                       l2668 041A                         l2852 0701                         l2598 028E  
                       l2870 0774                         l2862 0738                         l2854 070A  
                       l2838 06C4                         l2790 0623                         l2782 0612  
                       l2774 05F3                         l2766 05D0                         l2758 05B0  
                       l2694 0485                         l2686 0464                         l2678 0448  
                       l2846 06EE                         l1992 0D31                         l2880 07C3  
                       l2872 077A                         l2864 0751                         l2856 0712  
                       l2848 06F7                         l2792 062C                         l2784 0617  
                       l2776 05FC                         l2768 05D6                         l2696 048B  
                       l2688 046C                         l1994 0D39                         l1986 0D29  
                       l2882 07C9                         l2874 0780                         l2866 076F  
                       l2858 0716                         l2794 0634                         l2786 0618  
                       l2778 0602                         l2698 048C                         l2890 000D  
                       l1996 0D45                         l1988 0D2F                         l2876 0786  
                       l2884 07CF                         l2868 0771                         l2796 063C  
                       l2788 061D                         l2892 0013                         l2886 07D7  
                       l2878 0788                         l2798 0641                         l2894 0016  
                       l2888 07EC                         l2896 001A                         l2898 001D  
                       STR_1 0B00                         STR_2 1000                         STR_3 1016  
            __end_of_OLED_YX 0D69                         u2010 01C3                         u2011 01C2  
                       u2100 0391                         u2101 0390                         u2005 01B5  
                       u2030 01DC                         u2031 01DB                  ?_OLED_Clear 0070  
                       u2120 03AA                         u2200 0309                         u3000 0780  
                       u2121 03A9                         u2201 0308                         u2025 01C4  
                       u3001 077F                         u2210 031B                         u2050 01F2  
                       u3010 0786                         u2115 0392                         u2211 031A  
                       u2051 01F1                         u2035 01D8                         u3011 0785  
                       u2140 03C0                         u2060 034F                         u2141 03BF  
                       u2125 03A6                         u2061 034E                         u2045 01E6  
                       u2150 03C5                         u2070 0360                         u2230 0330  
                       u2310 023B                         u3030 07D7                         u2151 03C4  
                       u2135 03B4                         u2071 035F                         u2231 032F  
                       u2215 0317                         u2311 023A                         u3031 07D6  
                       u2080 037F                         u2240 0335                         u2160 02D3  
                       u2400 0183                         u3040 07EC                         u2081 037E  
                       u2241 0334                         u2225 0324                         u2161 02D2  
                       u2305 022D                         u2401 0182                         u3041 07EB  
                       u3025 0792                         u2170 02E4                         u2330 024B  
                       u2250 0200                         u3050 002F                         u2171 02E3  
                       u2331 024A                         u2315 0237                         u2251 01FF  
                       u3051 002E                         u2500 0EF4                         u1700 0DAE  
                       u2180 02F7                         u2340 0250                         u2260 020B  
                       u2420 0192                         u2501 0EF3                         u1701 0DAD  
                       u2181 02F6                         u2341 024F                         u2325 0241  
                       u2261 020A                         u2421 0191                         u2405 017F  
                       u3045 07E8                         u1710 0DBD                         u2270 021C  
                       u2430 0197                         u2350 0153                         u1711 0DBC  
                       u2095 0383                         u2271 021B                         u2431 0196  
                       u2415 0188                         u2351 0152                         u2520 0F04  
                       u1720 0DD0                         u1800 0E7D                         u2360 015E  
                       u2440 0F71                         u2600 0ED8                         u2521 0F03  
                       u1721 0DCF                         u1801 0E7C                         u2361 015D  
                       u2441 0F70                         u2601 0ED7                         u1730 0E94  
                       u1810 0060                         u2290 022C                         u2370 0169  
                       u2515 0EF8                         u1731 0E93                         u1811 005F  
                       u2195 02FB                         u2291 022B                         u2371 0168  
                       u2540 0F13                         u1660 0D2F                         u1740 0EA8  
                       u1820 006A                         u2460 0F83                         u2620 0EE7  
                       u2700 03F9                         u2541 0F12                         u1661 0D2E  
                       u1741 0EA7                         u1821 0069                         u2285 0220  
                       u2461 0F82                         u2621 0EE6                         u2605 0ED4  
                       u2701 03F8                         u3317 0050                         u2630 00BC  
                       u1670 0D45                         u1750 0EAE                         u1830 0077  
                       u2390 0179                         u2470 0F95                         u2710 040F  
                       u2535 0F05                         u2631 00BB                         u1671 0D44  
                       u1751 0EAD                         u1831 0076                         u2391 0178  
                       u2471 0F94                         u2455 0F75                         u2615 0EDD  
                       u2711 040E                         u3327 0104                         u2560 0F23  
                       u2640 00C8                         u1680 0D94                         u1760 0D76  
                       u1840 0085                         u1920 0FFF                         u2800 050D  
                       u2720 044E                         u2561 0F22                         u2545 0F0F  
                       u2641 00C7                         u1681 0D93                         u1761 0D75  
                       u1841 0084                         u1921 0FFE                         u1905 0FB9  
                       u3337 025D                         u2385 016D                         u2801 050C  
                       u2721 044D                         u2650 00CE                         u1690 0D98  
                       u1770 0D88                         u1850 0099                         u1930 0E06  
                       u2490 0FAA                         u2570 0EBE                         u2810 0568  
                       u2730 0454                         u2555 0F19                         u2651 00CD  
                       u3347 0D9D                         u1691 0D97                         u1771 0D87  
                       u1851 0098                         u1915 0FDB                         u1931 0E05  
                       u2491 0FA9                         u2475 0F91                         u2571 0EBD  
                       u2811 0567                         u2731 0453                         u2660 00D8  
                       u1860 00A8                         u1780 0E62                         u2900 0654  
                       u2820 056E                         u2740 046B                         u2661 00D7  
                       u3357 0D34                         u1861 00A7                         u1781 0E61  
                       u2485 0F9E                         u2901 0653                         u2821 056D  
                       u2741 046A                         u2670 00DC                         u1790 0E6F  
                       u2590 0ECE                         u1950 0E42                         u2910 066C  
                       u2830 0585                         u2750 047A                         u2671 00DB  
                       u3367 0CEC                         u1791 0E6E                         u2591 0ECD  
                       u1951 0E41                         u2911 066B                         u2831 0584  
                       u2751 0479                         u2680 00E1                         u1960 0E4A  
                       u2920 0695                         u2840 05EC                         u2760 04D0  
                       u3377 0CCC                         u2681 00E0                         u1865 00A4  
                       u1945 0E11                         u2585 0EC2                         u1961 0E49  
                       u2921 0694                         u2841 05EB                         u2761 04CF  
                       u1890 0D28                         u1970 0D0C                         u2930 069D  
                       u2850 05F2                         u2770 04D6                         u2690 03EB  
                       u1875 0D4B                         u1891 0D27                         u1971 0D0B  
                       u2931 069C                         u2851 05F1                         u2771 04D5  
                       u2691 03EA                         u1980 0DFE                         u2940 070A  
                       u2860 0609                         u2780 04ED                         u1885 0D5F  
                       u1981 0DFD                         u2941 0709                         u2861 0608  
                       u2781 04EC                         u1990 01B1                         u2950 0712  
                       u2870 0623                         u2790 04F8                         u1991 01B0  
                       u2951 0711                         u2871 0622                         u2791 04F7  
                       u2970 0737                         u2890 064D                         u2971 0736  
                       u2891 064C                         u2965 071B                         u2885 0643  
                       u2985 073E                         _SCS0 04C8                         u2995 0757  
                       _SCS1 04C9                         _TMR1 0016            OLED_Printf_Line@i 00BC  
          OLED_Printf_Line@p 00B3                         _main 000D        HCSR04_Read_cm@timeout 007B  
           __end_of_I2C_Init 0CF2                         fsr0h 0005                         fsr1h 0007  
                       indf0 0000                         fsr0l 0004                         indf1 0001  
                       fsr1l 0006                         btemp 007E             __end_of_I2C_Stop 0D8C  
                       start 0002             ??_OLED_WriteData 0079              __end_of___aldiv 03D9  
            __end_of___almod 0349                        ?_main 0070              __end_of___awdiv 025A  
            __end_of___awmod 01A1              __end_of___lldiv 01FB              ___awdiv@divisor 0070  
            __end_of___llmod 0FB3                        _IRCF0 04CB                        _IRCF1 04CC  
                      _IRCF2 04CD                        _IRCF3 04CE              __end_of___lwdiv 0F28  
            __end_of___lwmod 0EEC              ___awdiv@counter 0075           OLED_Printf_Line@ch 00BB  
         OLED_Printf_Line@ap 00C8            ??_OLED_UpdateLine 0020            __end_of_I2C_Start 0DD5  
                _BatteryIcon 100C                 _I2C_WaitIdle 0D8C         I2C_WaitIF@timeout_ms 0070  
                      status 0003         OLED_SetOrientation@o 0079                        wtemp0 007E  
               ?_internal_32 0070              __initialization 07F2                 __end_of_main 005A  
           __end_of_OledFont 0B00                       ??_main 00CC                    ??_OLED_YX 0078  
           ___llmod@dividend 0074             ___awdiv@dividend 0072                       _ANSELA 018C  
                     _ANSELB 018D                       _ANSELC 018E                 ??_I2C_WaitIF 0072  
          __end_of_OLED_Init 02CE                ?_OLED_Command 0070                       _SPLLEN 04CF  
                     _SSPADD 0212                       _SSPBUF 0211            ?_OLED_Printf_Line 0026  
         ??_OLED_Printf_Line 002A                    ??___aldiv 0078                    ??___almod 0078  
                  ??___awdiv 0074                    ??___awmod 0074                    ??___lldiv 0078  
                  ??___llmod 0078          OLED_Printf_Line@col 00B2          OLED_Printf_Line@buf 004C  
                  ??___lwdiv 0074          OLED_Printf_Line@fmt 0026          OLED_Printf_Line@dst 00CB  
                  ??___lwmod 0074          OLED_Printf_Line@val 00C5          OLED_Printf_Line@src 00C9  
           __end_of_initMain 014E          OLED_Printf_Line@str 00B1                       _memcpy 0DD5  
                     _memset 0D0D                  OLED_Clear@p 007C             ___awdiv@quotient 0077  
            ___awmod@divisor 0070              ___awmod@counter 0075                  OLED_YX@page 0079  
         __end_of_I2C_WaitIF 0D47                       _strcmp 0E2B                       _strcpy 0CF2  
                  ?_I2C_Init 0070                    ?_I2C_Stop 0070               _HCSR04_Read_cm 00AA  
             ??_OLED_Command 0075              I2C_WriteByte@st 0074      __end_of__initialization 07FD  
             __pcstackCOMMON 0070                _I2C_WriteByte 0E86       __end_of_HCSR04_Read_cm 00FC  
                 ??_I2C_Init 0070                   ??_I2C_Stop 0073  __end_of_OLED_SetOrientation 0F69  
               ??_OLED_Clear 0020                _SSD1306_CtrlW 0CC0                   __pmaintext 000D  
             ?_I2C_WriteByte 0070                      ?_memcpy 0070                      ?_memset 0070  
                 I2C_Stop@st 0073              _OLED_UpdateLine 0DFF           __end_of_OLED_Clear 1000  
                    ?_strcmp 0070                      ?_strcpy 0070      OLED_Printf_Line@val_470 00B4  
    OLED_Printf_Line@val_473 00C1      OLED_Printf_Line@val_476 00B8      OLED_Printf_Line@val_479 006E  
            ?_HCSR04_Read_cm 0070                      _OLED_YX 0D47                      _PPSLOCK 0E0F  
                    _SSPCON2 0216       I2C_WaitIdle@timeout_ms 0070                    ?_initMain 0070  
                  _I2C_Start 0DB0               ?_SSD1306_CtrlW 0070                      ___aldiv 0349  
                    ___almod 02CE                      ___awdiv 01FB                      ___awmod 014E  
                    ___lldiv 01A1                      ___llmod 0F69            ??_I2C_ClearErrors 0070  
                    ___lwdiv 0EEC                      ___lwmod 0EB8         __end_of_OLED_Command 0E86  
                    __ptext1 00FC                      __ptext2 0004                      __ptext3 0F28  
                    __ptext4 03D9                      __ptext5 0CF2                      __ptext6 0E2B  
                    __ptext7 0DD5                      __ptext8 0EB8                      __ptext9 0F69  
       OLED_Printf_Line@line 00C7         OLED_Printf_Line@temp 00A0                    _T1CONbits 0018  
           ___awmod@dividend 0072             ___aldiv@dividend 0074                      clrloop0 0CD3  
       end_of_initialization 07FD                      memcpy@d 0076                      memcpy@n 0074  
                    memcpy@s 0078                   ??_initMain 0070                      memset@c 0072  
                    memset@n 0074                      memset@p 0076                    _OLED_Init 025A  
                 ?_I2C_Start 0070            OLED_WriteData@len 0077              ??_I2C_WriteByte 0073  
            ___lldiv@divisor 0070              ___lldiv@counter 007D      __end_of_OLED_UpdateLine 0E2B  
           ___aldiv@quotient 0022                      strcmp@l 0073                      strcmp@r 0070  
                    strcpy@d 0075          OLED_UpdateLine@page 007C                    _PORTBbits 000D  
                  _TRISBbits 008D                    _TRISCbits 008E              OLED_YX@col_char 0077  
                  _RXPPSbits 0E24              OLED_Command@cmd 0075         HCSR04_Read_cm@cm_out 007A  
       HCSR04_Read_cm@counts 0078              ??_SSD1306_CtrlW 0070                   ?_OLED_Init 0070  
 __end_of_Trigger_Pulse_10us 0CD2               __end_of_memcpy 0DFF               __end_of_memset 0D29  
             __end_of_strcmp 0E58               __end_of_strcpy 0D0D          start_initialization 07F2  
            ___llmod@divisor 0070                  ??_I2C_Start 0073              ___llmod@counter 0079  
           ?_OLED_UpdateLine 0070                   OLED_YX@col 007A             ??_HCSR04_Read_cm 0078  
                   ??_memcpy 0076                     ??_memset 0076                   memset@dest 0070  
                   ??_strcmp 0072                     ??_strcpy 0073                  __pbssBIGRAM 24F0  
                  ___latbits 0003                     ?_OLED_YX 0077                __pcstackBANK0 0020  
              __pcstackBANK1 00A0                ?_I2C_WaitIdle 0070                 _OLED_Command 0E58  
            _I2C_ClearErrors 0CC2                ??_internal_32 0070                  ??_OLED_Init 007D  
              _screen_buffer 24F0             ___lwdiv@dividend 0072                     ?___aldiv 0070  
                   ?___almod 0070                     ?___awdiv 0070                     ?___awmod 0070  
                   ?___lldiv 0070                     ?___llmod 0070                     ?___lwdiv 0070  
                   ?___lwmod 0070       OLED_Printf_Line@nibble 00BA             _OLED_Printf_Line 03D9  
           ___almod@dividend 0074                  I2C_Start@st 0073                     _I2C_Init 0CDE  
                   _I2C_Stop 0D69               _OLED_WriteData 005A             ___lwdiv@quotient 0075  
             ??_I2C_WaitIdle 0072              ___aldiv@divisor 0070              ___aldiv@counter 0020  
                   _LATCbits 010E                    clear_ram0 0CD2     OLED_Printf_Line@temp_471 0036  
   OLED_Printf_Line@temp_480 00AC     OLED_Printf_Line@temp_474 0041     OLED_Printf_Line@temp_477 00A6  
           OLED_WriteData@st 007B                     _PIR1bits 0011                     _PIR2bits 0012  
        __end_of_internal_32 000D       __end_of_OLED_WriteData 00AA               OLED_Command@st 0076  
    __end_of_I2C_ClearErrors 0CC9                   _I2C_WaitIF 0D29                     _OledFont 0800  
                  memcpy@tmp 007A        __end_of_I2C_WriteByte 0EB8                   _ANSELCbits 018E  
            ?_OLED_WriteData 0075        OLED_Printf_Line@i_472 00BD        OLED_Printf_Line@i_481 00C0  
      OLED_Printf_Line@i_475 00BE        OLED_Printf_Line@i_478 00BF              ___lwdiv@divisor 0070  
         _Trigger_Pulse_10us 0CC9              ___lwdiv@counter 0077                     __ptext10 01A1  
                   __ptext11 014E                     __ptext20 0E58                     __ptext12 01FB  
                   __ptext21 005A                     __ptext13 02CE                     __ptext30 00AA  
                   __ptext22 0CC0                     __ptext14 0349                     __ptext31 0EEC  
                   __ptext23 0E86                     __ptext15 0DFF                     __ptext32 0CC9  
                   __ptext24 0D69                     __ptext16 025A                     __ptext25 0DB0  
                   __ptext17 0FB3                     __ptext26 0D8C                     __ptext18 0D0D  
                   __ptext27 0D29                     __ptext19 0D47                     __ptext28 0CDE  
                   __ptext29 0CC2              ___almod@divisor 0070              ___almod@counter 0079  
                 strcpy@dest 0070          ?_Trigger_Pulse_10us 0070                     _initMain 00FC  
              _SSPDATPPSbits 0E21                  _internal_32 0004        __end_of_SSD1306_CtrlW 0CC2  
                 _RB2PPSbits 0E9A              OLED_WriteData@i 0079                   _RC4PPSbits 0EA4  
              _SSPCLKPPSbits 0E20                   _RC5PPSbits 0EA5         __end_of_I2C_WaitIdle 0DB0  
       ??_Trigger_Pulse_10us 0070          _OLED_SetOrientation 0F28                     memcpy@d1 0070  
                   memcpy@s1 0072             ?_I2C_ClearErrors 0070                  ?_I2C_WaitIF 0070  
                 _OLED_Clear 0FB3         _OLED_Printf_Line$483 006C           OLED_WriteData@data 0075  
   __end_of_OLED_Printf_Line 07F2             ___lwmod@dividend 0072         ?_OLED_SetOrientation 0070  
           ___lldiv@dividend 0074                    strcpy@src 0072                  _PPSLOCKbits 0E0F  
              __pstringtext1 100C                __pstringtext2 0800                __pstringtext3 1000  
              __pstringtext4 1016                __pstringtext5 0000             ___lldiv@quotient 0079  
            ___lwmod@divisor 0070              ___lwmod@counter 0075                 ___aldiv@sign 0021  
                _SSPCON1bits 0215                  _SSPCON2bits 0216                 ___almod@sign 007A  
      ??_OLED_SetOrientation 0077            I2C_WriteByte@data 0073                   _SSPCONbits 0215  
        __end_of_BatteryIcon 1016  
