

Microchip Technology PIC LITE Macro Assembler V1.41 build -162212810 
                                                                                               Tue Apr 18 11:20:10 2017

Microchip Technology Omniscient Code Generator v1.41 (Free mode) build 201701250102
     1                           	processor	16F1717
     2                           	opt	pw 120
     3                           	opt	lm
     4                           	psect	stringtext,global,class=STRCODE,delta=2
     5                           	psect	cinit,global,class=CODE,merge=1,delta=2
     6                           	psect	cstackCOMMON,global,class=COMMON,space=1,delta=1
     7                           	psect	cstackBANK0,global,class=BANK0,space=1,delta=1
     8                           	psect	maintext,global,class=CODE,merge=1,split=1,delta=2
     9                           	psect	text1,local,class=CODE,merge=1,delta=2
    10                           	psect	text2,local,class=CODE,merge=1,delta=2
    11                           	psect	text3,local,class=CODE,merge=1,delta=2
    12                           	psect	text4,local,class=CODE,merge=1,delta=2
    13                           	psect	text5,local,class=CODE,merge=1,delta=2
    14                           	psect	text6,local,class=CODE,merge=1,delta=2,group=1
    15                           	dabs	1,0x7E,2
    16  0000                     
    17                           ; Version 1.41
    18                           ; Generated 25/01/2017 GMT
    19                           ; 
    20                           ; Copyright © 2017, Microchip Technology Inc. and its subsidiaries ("Microchip")
    21                           ; All rights reserved.
    22                           ; 
    23                           ; This software is developed by Microchip Technology Inc. and its subsidiaries ("Microch
      +                          ip").
    24                           ; 
    25                           ; Redistribution and use in source and binary forms, with or without modification, are
    26                           ; permitted provided that the following conditions are met:
    27                           ; 
    28                           ;     1. Redistributions of source code must retain the above copyright notice, this lis
      +                          t of
    29                           ;        conditions and the following disclaimer.
    30                           ; 
    31                           ;     2. Redistributions in binary form must reproduce the above copyright notice, this 
      +                          list
    32                           ;        of conditions and the following disclaimer in the documentation and/or other
    33                           ;        materials provided with the distribution.
    34                           ; 
    35                           ;     3. Microchip's name may not be used to endorse or promote products derived from th
      +                          is
    36                           ;        software without specific prior written permission.
    37                           ; 
    38                           ; THIS SOFTWARE IS PROVIDED BY MICROCHIP "AS IS" AND ANY EXPRESS OR IMPLIED WARRANTIES,
    39                           ; INCLUDING, BUT NOT LIMITED TO, THE IMPLIED WARRANTIES OF MERCHANTABILITY AND FITNESS F
      +                          OR
    40                           ; PURPOSE ARE DISCLAIMED.  IN NO EVENT SHALL MICROCHIP BE LIABLE FOR ANY DIRECT, INDIREC
      +                          T,
    41                           ; INCIDENTAL, SPECIAL, EXEMPLARY, OR CONSEQUENTIAL DAMAGES (INCLUDING BUT NOT LIMITED TO
    42                           ; PROCUREMENT OF SUBSTITUTE GOODS OR SERVICES; LOSS OF USE, DATA OR PROFITS; OR BUSINESS
    43                           ; INTERRUPTION) HOWSOEVER CAUSED AND ON ANY THEORY OF LIABILITY, WHETHER IN CONTRACT, ST
      +                          RICT
    44                           ; LIABILITY, OR TORT (INCLUDING NEGLIGENCE OR OTHERWISE) ARISING IN ANY WAY OUT OF THE U
      +                          SE OF
    45                           ; THIS SOFTWARE, EVEN IF ADVISED OF THE POSSIBILITY OF SUCH DAMAGE.
    46                           ; 
    47                           ; 
    48                           ; Code-generator required, PIC16F1717 Definitions
    49                           ; 
    50                           ; SFR Addresses
    51  0000                     	;# 
    52  0001                     	;# 
    53  0002                     	;# 
    54  0003                     	;# 
    55  0004                     	;# 
    56  0005                     	;# 
    57  0006                     	;# 
    58  0007                     	;# 
    59  0008                     	;# 
    60  0009                     	;# 
    61  000A                     	;# 
    62  000B                     	;# 
    63  000C                     	;# 
    64  000D                     	;# 
    65  000E                     	;# 
    66  000F                     	;# 
    67  0010                     	;# 
    68  0011                     	;# 
    69  0012                     	;# 
    70  0013                     	;# 
    71  0015                     	;# 
    72  0016                     	;# 
    73  0016                     	;# 
    74  0017                     	;# 
    75  0018                     	;# 
    76  0019                     	;# 
    77  001A                     	;# 
    78  001B                     	;# 
    79  001C                     	;# 
    80  008C                     	;# 
    81  008D                     	;# 
    82  008E                     	;# 
    83  008F                     	;# 
    84  0090                     	;# 
    85  0091                     	;# 
    86  0092                     	;# 
    87  0093                     	;# 
    88  0095                     	;# 
    89  0096                     	;# 
    90  0097                     	;# 
    91  0098                     	;# 
    92  0099                     	;# 
    93  009A                     	;# 
    94  009B                     	;# 
    95  009B                     	;# 
    96  009C                     	;# 
    97  009D                     	;# 
    98  009E                     	;# 
    99  009F                     	;# 
   100  010C                     	;# 
   101  010D                     	;# 
   102  010E                     	;# 
   103  010F                     	;# 
   104  0110                     	;# 
   105  0111                     	;# 
   106  0112                     	;# 
   107  0113                     	;# 
   108  0114                     	;# 
   109  0115                     	;# 
   110  0116                     	;# 
   111  0117                     	;# 
   112  0118                     	;# 
   113  0119                     	;# 
   114  011A                     	;# 
   115  011B                     	;# 
   116  011B                     	;# 
   117  011C                     	;# 
   118  018C                     	;# 
   119  018D                     	;# 
   120  018E                     	;# 
   121  018F                     	;# 
   122  0190                     	;# 
   123  0191                     	;# 
   124  0191                     	;# 
   125  0192                     	;# 
   126  0193                     	;# 
   127  0193                     	;# 
   128  0194                     	;# 
   129  0195                     	;# 
   130  0196                     	;# 
   131  0197                     	;# 
   132  0199                     	;# 
   133  0199                     	;# 
   134  0199                     	;# 
   135  019A                     	;# 
   136  019A                     	;# 
   137  019A                     	;# 
   138  019B                     	;# 
   139  019B                     	;# 
   140  019B                     	;# 
   141  019B                     	;# 
   142  019B                     	;# 
   143  019C                     	;# 
   144  019C                     	;# 
   145  019C                     	;# 
   146  019D                     	;# 
   147  019D                     	;# 
   148  019D                     	;# 
   149  019E                     	;# 
   150  019E                     	;# 
   151  019E                     	;# 
   152  019F                     	;# 
   153  019F                     	;# 
   154  019F                     	;# 
   155  019F                     	;# 
   156  019F                     	;# 
   157  020C                     	;# 
   158  020D                     	;# 
   159  020E                     	;# 
   160  020F                     	;# 
   161  0210                     	;# 
   162  0211                     	;# 
   163  0211                     	;# 
   164  0212                     	;# 
   165  0212                     	;# 
   166  0213                     	;# 
   167  0213                     	;# 
   168  0214                     	;# 
   169  0214                     	;# 
   170  0215                     	;# 
   171  0215                     	;# 
   172  0215                     	;# 
   173  0215                     	;# 
   174  0216                     	;# 
   175  0216                     	;# 
   176  0217                     	;# 
   177  0217                     	;# 
   178  028C                     	;# 
   179  028D                     	;# 
   180  028E                     	;# 
   181  028F                     	;# 
   182  0290                     	;# 
   183  0291                     	;# 
   184  0291                     	;# 
   185  0292                     	;# 
   186  0293                     	;# 
   187  0293                     	;# 
   188  0298                     	;# 
   189  0298                     	;# 
   190  0299                     	;# 
   191  029A                     	;# 
   192  029A                     	;# 
   193  029E                     	;# 
   194  030C                     	;# 
   195  030D                     	;# 
   196  030E                     	;# 
   197  030F                     	;# 
   198  0310                     	;# 
   199  038C                     	;# 
   200  038D                     	;# 
   201  038E                     	;# 
   202  038F                     	;# 
   203  0390                     	;# 
   204  0391                     	;# 
   205  0392                     	;# 
   206  0393                     	;# 
   207  0394                     	;# 
   208  0395                     	;# 
   209  0396                     	;# 
   210  0397                     	;# 
   211  0398                     	;# 
   212  0399                     	;# 
   213  039D                     	;# 
   214  039E                     	;# 
   215  039F                     	;# 
   216  0415                     	;# 
   217  0416                     	;# 
   218  0417                     	;# 
   219  041C                     	;# 
   220  041D                     	;# 
   221  041E                     	;# 
   222  0498                     	;# 
   223  0498                     	;# 
   224  0499                     	;# 
   225  049A                     	;# 
   226  049B                     	;# 
   227  049B                     	;# 
   228  049C                     	;# 
   229  049D                     	;# 
   230  049E                     	;# 
   231  049F                     	;# 
   232  0511                     	;# 
   233  0515                     	;# 
   234  0617                     	;# 
   235  0618                     	;# 
   236  0619                     	;# 
   237  0619                     	;# 
   238  061A                     	;# 
   239  061B                     	;# 
   240  061C                     	;# 
   241  061C                     	;# 
   242  0691                     	;# 
   243  0692                     	;# 
   244  0693                     	;# 
   245  0694                     	;# 
   246  0695                     	;# 
   247  0696                     	;# 
   248  0697                     	;# 
   249  0698                     	;# 
   250  0699                     	;# 
   251  069A                     	;# 
   252  069B                     	;# 
   253  069C                     	;# 
   254  069D                     	;# 
   255  069E                     	;# 
   256  069F                     	;# 
   257  0E0F                     	;# 
   258  0E10                     	;# 
   259  0E11                     	;# 
   260  0E12                     	;# 
   261  0E13                     	;# 
   262  0E14                     	;# 
   263  0E15                     	;# 
   264  0E17                     	;# 
   265  0E20                     	;# 
   266  0E21                     	;# 
   267  0E22                     	;# 
   268  0E24                     	;# 
   269  0E25                     	;# 
   270  0E28                     	;# 
   271  0E29                     	;# 
   272  0E2A                     	;# 
   273  0E2B                     	;# 
   274  0E90                     	;# 
   275  0E91                     	;# 
   276  0E92                     	;# 
   277  0E93                     	;# 
   278  0E94                     	;# 
   279  0E95                     	;# 
   280  0E96                     	;# 
   281  0E97                     	;# 
   282  0E98                     	;# 
   283  0E99                     	;# 
   284  0E9A                     	;# 
   285  0E9B                     	;# 
   286  0E9C                     	;# 
   287  0E9D                     	;# 
   288  0E9E                     	;# 
   289  0E9F                     	;# 
   290  0EA0                     	;# 
   291  0EA1                     	;# 
   292  0EA2                     	;# 
   293  0EA3                     	;# 
   294  0EA4                     	;# 
   295  0EA5                     	;# 
   296  0EA6                     	;# 
   297  0EA7                     	;# 
   298  0EA8                     	;# 
   299  0EA9                     	;# 
   300  0EAA                     	;# 
   301  0EAB                     	;# 
   302  0EAC                     	;# 
   303  0EAD                     	;# 
   304  0EAE                     	;# 
   305  0EAF                     	;# 
   306  0EB0                     	;# 
   307  0EB1                     	;# 
   308  0EB2                     	;# 
   309  0F0F                     	;# 
   310  0F10                     	;# 
   311  0F11                     	;# 
   312  0F12                     	;# 
   313  0F13                     	;# 
   314  0F14                     	;# 
   315  0F15                     	;# 
   316  0F16                     	;# 
   317  0F17                     	;# 
   318  0F18                     	;# 
   319  0F19                     	;# 
   320  0F1A                     	;# 
   321  0F1B                     	;# 
   322  0F1C                     	;# 
   323  0F1D                     	;# 
   324  0F1E                     	;# 
   325  0F1F                     	;# 
   326  0F20                     	;# 
   327  0F21                     	;# 
   328  0F22                     	;# 
   329  0F23                     	;# 
   330  0F24                     	;# 
   331  0F25                     	;# 
   332  0F26                     	;# 
   333  0F27                     	;# 
   334  0F28                     	;# 
   335  0F29                     	;# 
   336  0F2A                     	;# 
   337  0F2B                     	;# 
   338  0F2C                     	;# 
   339  0F2D                     	;# 
   340  0F2E                     	;# 
   341  0F2F                     	;# 
   342  0F30                     	;# 
   343  0F31                     	;# 
   344  0F32                     	;# 
   345  0F33                     	;# 
   346  0F34                     	;# 
   347  0F35                     	;# 
   348  0F36                     	;# 
   349  0F37                     	;# 
   350  0FE4                     	;# 
   351  0FE5                     	;# 
   352  0FE6                     	;# 
   353  0FE7                     	;# 
   354  0FE8                     	;# 
   355  0FE9                     	;# 
   356  0FEA                     	;# 
   357  0FEB                     	;# 
   358  0FED                     	;# 
   359  0FEE                     	;# 
   360  0FEF                     	;# 
   361  0000                     	;# 
   362  0001                     	;# 
   363  0002                     	;# 
   364  0003                     	;# 
   365  0004                     	;# 
   366  0005                     	;# 
   367  0006                     	;# 
   368  0007                     	;# 
   369  0008                     	;# 
   370  0009                     	;# 
   371  000A                     	;# 
   372  000B                     	;# 
   373  000C                     	;# 
   374  000D                     	;# 
   375  000E                     	;# 
   376  000F                     	;# 
   377  0010                     	;# 
   378  0011                     	;# 
   379  0012                     	;# 
   380  0013                     	;# 
   381  0015                     	;# 
   382  0016                     	;# 
   383  0016                     	;# 
   384  0017                     	;# 
   385  0018                     	;# 
   386  0019                     	;# 
   387  001A                     	;# 
   388  001B                     	;# 
   389  001C                     	;# 
   390  008C                     	;# 
   391  008D                     	;# 
   392  008E                     	;# 
   393  008F                     	;# 
   394  0090                     	;# 
   395  0091                     	;# 
   396  0092                     	;# 
   397  0093                     	;# 
   398  0095                     	;# 
   399  0096                     	;# 
   400  0097                     	;# 
   401  0098                     	;# 
   402  0099                     	;# 
   403  009A                     	;# 
   404  009B                     	;# 
   405  009B                     	;# 
   406  009C                     	;# 
   407  009D                     	;# 
   408  009E                     	;# 
   409  009F                     	;# 
   410  010C                     	;# 
   411  010D                     	;# 
   412  010E                     	;# 
   413  010F                     	;# 
   414  0110                     	;# 
   415  0111                     	;# 
   416  0112                     	;# 
   417  0113                     	;# 
   418  0114                     	;# 
   419  0115                     	;# 
   420  0116                     	;# 
   421  0117                     	;# 
   422  0118                     	;# 
   423  0119                     	;# 
   424  011A                     	;# 
   425  011B                     	;# 
   426  011B                     	;# 
   427  011C                     	;# 
   428  018C                     	;# 
   429  018D                     	;# 
   430  018E                     	;# 
   431  018F                     	;# 
   432  0190                     	;# 
   433  0191                     	;# 
   434  0191                     	;# 
   435  0192                     	;# 
   436  0193                     	;# 
   437  0193                     	;# 
   438  0194                     	;# 
   439  0195                     	;# 
   440  0196                     	;# 
   441  0197                     	;# 
   442  0199                     	;# 
   443  0199                     	;# 
   444  0199                     	;# 
   445  019A                     	;# 
   446  019A                     	;# 
   447  019A                     	;# 
   448  019B                     	;# 
   449  019B                     	;# 
   450  019B                     	;# 
   451  019B                     	;# 
   452  019B                     	;# 
   453  019C                     	;# 
   454  019C                     	;# 
   455  019C                     	;# 
   456  019D                     	;# 
   457  019D                     	;# 
   458  019D                     	;# 
   459  019E                     	;# 
   460  019E                     	;# 
   461  019E                     	;# 
   462  019F                     	;# 
   463  019F                     	;# 
   464  019F                     	;# 
   465  019F                     	;# 
   466  019F                     	;# 
   467  020C                     	;# 
   468  020D                     	;# 
   469  020E                     	;# 
   470  020F                     	;# 
   471  0210                     	;# 
   472  0211                     	;# 
   473  0211                     	;# 
   474  0212                     	;# 
   475  0212                     	;# 
   476  0213                     	;# 
   477  0213                     	;# 
   478  0214                     	;# 
   479  0214                     	;# 
   480  0215                     	;# 
   481  0215                     	;# 
   482  0215                     	;# 
   483  0215                     	;# 
   484  0216                     	;# 
   485  0216                     	;# 
   486  0217                     	;# 
   487  0217                     	;# 
   488  028C                     	;# 
   489  028D                     	;# 
   490  028E                     	;# 
   491  028F                     	;# 
   492  0290                     	;# 
   493  0291                     	;# 
   494  0291                     	;# 
   495  0292                     	;# 
   496  0293                     	;# 
   497  0293                     	;# 
   498  0298                     	;# 
   499  0298                     	;# 
   500  0299                     	;# 
   501  029A                     	;# 
   502  029A                     	;# 
   503  029E                     	;# 
   504  030C                     	;# 
   505  030D                     	;# 
   506  030E                     	;# 
   507  030F                     	;# 
   508  0310                     	;# 
   509  038C                     	;# 
   510  038D                     	;# 
   511  038E                     	;# 
   512  038F                     	;# 
   513  0390                     	;# 
   514  0391                     	;# 
   515  0392                     	;# 
   516  0393                     	;# 
   517  0394                     	;# 
   518  0395                     	;# 
   519  0396                     	;# 
   520  0397                     	;# 
   521  0398                     	;# 
   522  0399                     	;# 
   523  039D                     	;# 
   524  039E                     	;# 
   525  039F                     	;# 
   526  0415                     	;# 
   527  0416                     	;# 
   528  0417                     	;# 
   529  041C                     	;# 
   530  041D                     	;# 
   531  041E                     	;# 
   532  0498                     	;# 
   533  0498                     	;# 
   534  0499                     	;# 
   535  049A                     	;# 
   536  049B                     	;# 
   537  049B                     	;# 
   538  049C                     	;# 
   539  049D                     	;# 
   540  049E                     	;# 
   541  049F                     	;# 
   542  0511                     	;# 
   543  0515                     	;# 
   544  0617                     	;# 
   545  0618                     	;# 
   546  0619                     	;# 
   547  0619                     	;# 
   548  061A                     	;# 
   549  061B                     	;# 
   550  061C                     	;# 
   551  061C                     	;# 
   552  0691                     	;# 
   553  0692                     	;# 
   554  0693                     	;# 
   555  0694                     	;# 
   556  0695                     	;# 
   557  0696                     	;# 
   558  0697                     	;# 
   559  0698                     	;# 
   560  0699                     	;# 
   561  069A                     	;# 
   562  069B                     	;# 
   563  069C                     	;# 
   564  069D                     	;# 
   565  069E                     	;# 
   566  069F                     	;# 
   567  0E0F                     	;# 
   568  0E10                     	;# 
   569  0E11                     	;# 
   570  0E12                     	;# 
   571  0E13                     	;# 
   572  0E14                     	;# 
   573  0E15                     	;# 
   574  0E17                     	;# 
   575  0E20                     	;# 
   576  0E21                     	;# 
   577  0E22                     	;# 
   578  0E24                     	;# 
   579  0E25                     	;# 
   580  0E28                     	;# 
   581  0E29                     	;# 
   582  0E2A                     	;# 
   583  0E2B                     	;# 
   584  0E90                     	;# 
   585  0E91                     	;# 
   586  0E92                     	;# 
   587  0E93                     	;# 
   588  0E94                     	;# 
   589  0E95                     	;# 
   590  0E96                     	;# 
   591  0E97                     	;# 
   592  0E98                     	;# 
   593  0E99                     	;# 
   594  0E9A                     	;# 
   595  0E9B                     	;# 
   596  0E9C                     	;# 
   597  0E9D                     	;# 
   598  0E9E                     	;# 
   599  0E9F                     	;# 
   600  0EA0                     	;# 
   601  0EA1                     	;# 
   602  0EA2                     	;# 
   603  0EA3                     	;# 
   604  0EA4                     	;# 
   605  0EA5                     	;# 
   606  0EA6                     	;# 
   607  0EA7                     	;# 
   608  0EA8                     	;# 
   609  0EA9                     	;# 
   610  0EAA                     	;# 
   611  0EAB                     	;# 
   612  0EAC                     	;# 
   613  0EAD                     	;# 
   614  0EAE                     	;# 
   615  0EAF                     	;# 
   616  0EB0                     	;# 
   617  0EB1                     	;# 
   618  0EB2                     	;# 
   619  0F0F                     	;# 
   620  0F10                     	;# 
   621  0F11                     	;# 
   622  0F12                     	;# 
   623  0F13                     	;# 
   624  0F14                     	;# 
   625  0F15                     	;# 
   626  0F16                     	;# 
   627  0F17                     	;# 
   628  0F18                     	;# 
   629  0F19                     	;# 
   630  0F1A                     	;# 
   631  0F1B                     	;# 
   632  0F1C                     	;# 
   633  0F1D                     	;# 
   634  0F1E                     	;# 
   635  0F1F                     	;# 
   636  0F20                     	;# 
   637  0F21                     	;# 
   638  0F22                     	;# 
   639  0F23                     	;# 
   640  0F24                     	;# 
   641  0F25                     	;# 
   642  0F26                     	;# 
   643  0F27                     	;# 
   644  0F28                     	;# 
   645  0F29                     	;# 
   646  0F2A                     	;# 
   647  0F2B                     	;# 
   648  0F2C                     	;# 
   649  0F2D                     	;# 
   650  0F2E                     	;# 
   651  0F2F                     	;# 
   652  0F30                     	;# 
   653  0F31                     	;# 
   654  0F32                     	;# 
   655  0F33                     	;# 
   656  0F34                     	;# 
   657  0F35                     	;# 
   658  0F36                     	;# 
   659  0F37                     	;# 
   660  0FE4                     	;# 
   661  0FE5                     	;# 
   662  0FE6                     	;# 
   663  0FE7                     	;# 
   664  0FE8                     	;# 
   665  0FE9                     	;# 
   666  0FEA                     	;# 
   667  0FEB                     	;# 
   668  0FED                     	;# 
   669  0FEE                     	;# 
   670  0FEF                     	;# 
   671  0000                     	;# 
   672  0001                     	;# 
   673  0002                     	;# 
   674  0003                     	;# 
   675  0004                     	;# 
   676  0005                     	;# 
   677  0006                     	;# 
   678  0007                     	;# 
   679  0008                     	;# 
   680  0009                     	;# 
   681  000A                     	;# 
   682  000B                     	;# 
   683  000C                     	;# 
   684  000D                     	;# 
   685  000E                     	;# 
   686  000F                     	;# 
   687  0010                     	;# 
   688  0011                     	;# 
   689  0012                     	;# 
   690  0013                     	;# 
   691  0015                     	;# 
   692  0016                     	;# 
   693  0016                     	;# 
   694  0017                     	;# 
   695  0018                     	;# 
   696  0019                     	;# 
   697  001A                     	;# 
   698  001B                     	;# 
   699  001C                     	;# 
   700  008C                     	;# 
   701  008D                     	;# 
   702  008E                     	;# 
   703  008F                     	;# 
   704  0090                     	;# 
   705  0091                     	;# 
   706  0092                     	;# 
   707  0093                     	;# 
   708  0095                     	;# 
   709  0096                     	;# 
   710  0097                     	;# 
   711  0098                     	;# 
   712  0099                     	;# 
   713  009A                     	;# 
   714  009B                     	;# 
   715  009B                     	;# 
   716  009C                     	;# 
   717  009D                     	;# 
   718  009E                     	;# 
   719  009F                     	;# 
   720  010C                     	;# 
   721  010D                     	;# 
   722  010E                     	;# 
   723  010F                     	;# 
   724  0110                     	;# 
   725  0111                     	;# 
   726  0112                     	;# 
   727  0113                     	;# 
   728  0114                     	;# 
   729  0115                     	;# 
   730  0116                     	;# 
   731  0117                     	;# 
   732  0118                     	;# 
   733  0119                     	;# 
   734  011A                     	;# 
   735  011B                     	;# 
   736  011B                     	;# 
   737  011C                     	;# 
   738  018C                     	;# 
   739  018D                     	;# 
   740  018E                     	;# 
   741  018F                     	;# 
   742  0190                     	;# 
   743  0191                     	;# 
   744  0191                     	;# 
   745  0192                     	;# 
   746  0193                     	;# 
   747  0193                     	;# 
   748  0194                     	;# 
   749  0195                     	;# 
   750  0196                     	;# 
   751  0197                     	;# 
   752  0199                     	;# 
   753  0199                     	;# 
   754  0199                     	;# 
   755  019A                     	;# 
   756  019A                     	;# 
   757  019A                     	;# 
   758  019B                     	;# 
   759  019B                     	;# 
   760  019B                     	;# 
   761  019B                     	;# 
   762  019B                     	;# 
   763  019C                     	;# 
   764  019C                     	;# 
   765  019C                     	;# 
   766  019D                     	;# 
   767  019D                     	;# 
   768  019D                     	;# 
   769  019E                     	;# 
   770  019E                     	;# 
   771  019E                     	;# 
   772  019F                     	;# 
   773  019F                     	;# 
   774  019F                     	;# 
   775  019F                     	;# 
   776  019F                     	;# 
   777  020C                     	;# 
   778  020D                     	;# 
   779  020E                     	;# 
   780  020F                     	;# 
   781  0210                     	;# 
   782  0211                     	;# 
   783  0211                     	;# 
   784  0212                     	;# 
   785  0212                     	;# 
   786  0213                     	;# 
   787  0213                     	;# 
   788  0214                     	;# 
   789  0214                     	;# 
   790  0215                     	;# 
   791  0215                     	;# 
   792  0215                     	;# 
   793  0215                     	;# 
   794  0216                     	;# 
   795  0216                     	;# 
   796  0217                     	;# 
   797  0217                     	;# 
   798  028C                     	;# 
   799  028D                     	;# 
   800  028E                     	;# 
   801  028F                     	;# 
   802  0290                     	;# 
   803  0291                     	;# 
   804  0291                     	;# 
   805  0292                     	;# 
   806  0293                     	;# 
   807  0293                     	;# 
   808  0298                     	;# 
   809  0298                     	;# 
   810  0299                     	;# 
   811  029A                     	;# 
   812  029A                     	;# 
   813  029E                     	;# 
   814  030C                     	;# 
   815  030D                     	;# 
   816  030E                     	;# 
   817  030F                     	;# 
   818  0310                     	;# 
   819  038C                     	;# 
   820  038D                     	;# 
   821  038E                     	;# 
   822  038F                     	;# 
   823  0390                     	;# 
   824  0391                     	;# 
   825  0392                     	;# 
   826  0393                     	;# 
   827  0394                     	;# 
   828  0395                     	;# 
   829  0396                     	;# 
   830  0397                     	;# 
   831  0398                     	;# 
   832  0399                     	;# 
   833  039D                     	;# 
   834  039E                     	;# 
   835  039F                     	;# 
   836  0415                     	;# 
   837  0416                     	;# 
   838  0417                     	;# 
   839  041C                     	;# 
   840  041D                     	;# 
   841  041E                     	;# 
   842  0498                     	;# 
   843  0498                     	;# 
   844  0499                     	;# 
   845  049A                     	;# 
   846  049B                     	;# 
   847  049B                     	;# 
   848  049C                     	;# 
   849  049D                     	;# 
   850  049E                     	;# 
   851  049F                     	;# 
   852  0511                     	;# 
   853  0515                     	;# 
   854  0617                     	;# 
   855  0618                     	;# 
   856  0619                     	;# 
   857  0619                     	;# 
   858  061A                     	;# 
   859  061B                     	;# 
   860  061C                     	;# 
   861  061C                     	;# 
   862  0691                     	;# 
   863  0692                     	;# 
   864  0693                     	;# 
   865  0694                     	;# 
   866  0695                     	;# 
   867  0696                     	;# 
   868  0697                     	;# 
   869  0698                     	;# 
   870  0699                     	;# 
   871  069A                     	;# 
   872  069B                     	;# 
   873  069C                     	;# 
   874  069D                     	;# 
   875  069E                     	;# 
   876  069F                     	;# 
   877  0E0F                     	;# 
   878  0E10                     	;# 
   879  0E11                     	;# 
   880  0E12                     	;# 
   881  0E13                     	;# 
   882  0E14                     	;# 
   883  0E15                     	;# 
   884  0E17                     	;# 
   885  0E20                     	;# 
   886  0E21                     	;# 
   887  0E22                     	;# 
   888  0E24                     	;# 
   889  0E25                     	;# 
   890  0E28                     	;# 
   891  0E29                     	;# 
   892  0E2A                     	;# 
   893  0E2B                     	;# 
   894  0E90                     	;# 
   895  0E91                     	;# 
   896  0E92                     	;# 
   897  0E93                     	;# 
   898  0E94                     	;# 
   899  0E95                     	;# 
   900  0E96                     	;# 
   901  0E97                     	;# 
   902  0E98                     	;# 
   903  0E99                     	;# 
   904  0E9A                     	;# 
   905  0E9B                     	;# 
   906  0E9C                     	;# 
   907  0E9D                     	;# 
   908  0E9E                     	;# 
   909  0E9F                     	;# 
   910  0EA0                     	;# 
   911  0EA1                     	;# 
   912  0EA2                     	;# 
   913  0EA3                     	;# 
   914  0EA4                     	;# 
   915  0EA5                     	;# 
   916  0EA6                     	;# 
   917  0EA7                     	;# 
   918  0EA8                     	;# 
   919  0EA9                     	;# 
   920  0EAA                     	;# 
   921  0EAB                     	;# 
   922  0EAC                     	;# 
   923  0EAD                     	;# 
   924  0EAE                     	;# 
   925  0EAF                     	;# 
   926  0EB0                     	;# 
   927  0EB1                     	;# 
   928  0EB2                     	;# 
   929  0F0F                     	;# 
   930  0F10                     	;# 
   931  0F11                     	;# 
   932  0F12                     	;# 
   933  0F13                     	;# 
   934  0F14                     	;# 
   935  0F15                     	;# 
   936  0F16                     	;# 
   937  0F17                     	;# 
   938  0F18                     	;# 
   939  0F19                     	;# 
   940  0F1A                     	;# 
   941  0F1B                     	;# 
   942  0F1C                     	;# 
   943  0F1D                     	;# 
   944  0F1E                     	;# 
   945  0F1F                     	;# 
   946  0F20                     	;# 
   947  0F21                     	;# 
   948  0F22                     	;# 
   949  0F23                     	;# 
   950  0F24                     	;# 
   951  0F25                     	;# 
   952  0F26                     	;# 
   953  0F27                     	;# 
   954  0F28                     	;# 
   955  0F29                     	;# 
   956  0F2A                     	;# 
   957  0F2B                     	;# 
   958  0F2C                     	;# 
   959  0F2D                     	;# 
   960  0F2E                     	;# 
   961  0F2F                     	;# 
   962  0F30                     	;# 
   963  0F31                     	;# 
   964  0F32                     	;# 
   965  0F33                     	;# 
   966  0F34                     	;# 
   967  0F35                     	;# 
   968  0F36                     	;# 
   969  0F37                     	;# 
   970  0FE4                     	;# 
   971  0FE5                     	;# 
   972  0FE6                     	;# 
   973  0FE7                     	;# 
   974  0FE8                     	;# 
   975  0FE9                     	;# 
   976  0FEA                     	;# 
   977  0FEB                     	;# 
   978  0FED                     	;# 
   979  0FEE                     	;# 
   980  0FEF                     	;# 
   981  0011                     _PIR1bits	set	17
   982  008D                     _TRISBbits	set	141
   983  0476                     _TRISC6	set	1142
   984  0477                     _TRISC7	set	1143
   985  04CF                     _SPLLEN	set	1231
   986  04CE                     _IRCF3	set	1230
   987  04CD                     _IRCF2	set	1229
   988  04CC                     _IRCF1	set	1228
   989  04CB                     _IRCF0	set	1227
   990  04C9                     _SCS1	set	1225
   991  04C8                     _SCS0	set	1224
   992  018D                     _ANSELBbits	set	397
   993  019A                     _TX1REG	set	410
   994  0199                     _RC1REG	set	409
   995  019D                     _RC1STAbits	set	413
   996  019B                     _SPBRG	set	411
   997  0CF5                     _TXEN	set	3317
   998  0CEC                     _CREN	set	3308
   999  0CEF                     _SPEN	set	3311
  1000  0CF4                     _SYNC	set	3316
  1001  0CF2                     _BRGH	set	3314
  1002  0E24                     _RXPPSbits	set	3620
  1003  0E0F                     _PPSLOCKbits	set	3599
  1004  0E0F                     _PPSLOCK	set	3599
  1005  0E9A                     _RB2PPSbits	set	3738
  1006                           
  1007                           	psect	stringtext
  1008  0800                     __pstringtext:	
  1009  0800                     STR_1:	
  1010  0800  3448               	retlw	72	;'H'
  1011  0801  3465               	retlw	101	;'e'
  1012  0802  346C               	retlw	108	;'l'
  1013  0803  346C               	retlw	108	;'l'
  1014  0804  346F               	retlw	111	;'o'
  1015  0805  3400               	retlw	0
  1016                           
  1017                           ; #config settings
  1018  0000                     
  1019                           	psect	cinit
  1020  07FD                     start_initialization:	
  1021  07FD                     __initialization:	
  1022  07FD                     end_of_initialization:	
  1023                           ;End of C runtime variable initialization code
  1024                           
  1025  07FD                     __end_of__initialization:	
  1026  07FD  0020               	movlb	0
  1027  07FE  3186  2EAE         	ljmp	_main	;jump to C main() function
  1028                           
  1029                           	psect	cstackCOMMON
  1030  0070                     __pcstackCOMMON:	
  1031  0070                     ?_internal_16:	
  1032  0070                     ??_internal_16:	
  1033                           ; 1 bytes @ 0x0
  1034                           
  1035  0070                     ?_EUSART_Write:	
  1036                           ; 1 bytes @ 0x0
  1037                           
  1038  0070                     ??_EUSART_Write:	
  1039                           ; 1 bytes @ 0x0
  1040                           
  1041  0070                     ?_initMain:	
  1042                           ; 1 bytes @ 0x0
  1043                           
  1044  0070                     ??_initMain:	
  1045                           ; 1 bytes @ 0x0
  1046                           
  1047  0070                     ?_main:	
  1048                           ; 1 bytes @ 0x0
  1049                           
  1050  0070                     ?___aldiv:	
  1051                           ; 1 bytes @ 0x0
  1052                           
  1053  0070                     EUSART_Write@txData:	
  1054                           ; 4 bytes @ 0x0
  1055                           
  1056  0070                     ___aldiv@divisor:	
  1057                           ; 1 bytes @ 0x0
  1058                           
  1059                           
  1060                           ; 4 bytes @ 0x0
  1061  0070                     	ds	1
  1062  0071                     ?_EUSART_Write_Text:	
  1063  0071                     EUSART_Write_Text@text:	
  1064                           ; 1 bytes @ 0x1
  1065                           
  1066                           
  1067                           ; 2 bytes @ 0x1
  1068  0071                     	ds	2
  1069  0073                     ??_EUSART_Write_Text:	
  1070                           
  1071                           ; 1 bytes @ 0x3
  1072  0073                     	ds	1
  1073  0074                     EUSART_Write_Text@i:	
  1074  0074                     ___aldiv@dividend:	
  1075                           ; 2 bytes @ 0x4
  1076                           
  1077                           
  1078                           ; 4 bytes @ 0x4
  1079  0074                     	ds	4
  1080  0078                     ??___aldiv:	
  1081                           
  1082                           ; 1 bytes @ 0x8
  1083  0078                     	ds	1
  1084  0079                     EUSART_Initialize@x:	
  1085                           
  1086                           ; 2 bytes @ 0x9
  1087  0079                     	ds	2
  1088  007B                     ??_main:	
  1089                           
  1090                           ; 1 bytes @ 0xB
  1091  007B                     	ds	2
  1092                           
  1093                           	psect	cstackBANK0
  1094  0020                     __pcstackBANK0:	
  1095  0020                     ___aldiv@counter:	
  1096                           
  1097                           ; 1 bytes @ 0x0
  1098  0020                     	ds	1
  1099  0021                     ___aldiv@sign:	
  1100                           
  1101                           ; 1 bytes @ 0x1
  1102  0021                     	ds	1
  1103  0022                     ___aldiv@quotient:	
  1104                           
  1105                           ; 4 bytes @ 0x2
  1106  0022                     	ds	4
  1107  0026                     ?_EUSART_Initialize:	
  1108  0026                     EUSART_Initialize@baudrate:	
  1109                           ; 1 bytes @ 0x6
  1110                           
  1111                           
  1112                           ; 4 bytes @ 0x6
  1113  0026                     	ds	4
  1114  002A                     ??_EUSART_Initialize:	
  1115                           
  1116                           ; 1 bytes @ 0xA
  1117  002A                     	ds	8
  1118                           
  1119                           	psect	maintext
  1120  06AE                     __pmaintext:	
  1121 ;;
  1122 ;;Main: autosize = 0, tempsize = 2, incstack = 0, save=0
  1123 ;;
  1124 ;; *************** function _main *****************
  1125 ;; Defined at:
  1126 ;;		line 74 in file "Main.c"
  1127 ;; Parameters:    Size  Location     Type
  1128 ;;		None
  1129 ;; Auto vars:     Size  Location     Type
  1130 ;;		None
  1131 ;; Return value:  Size  Location     Type
  1132 ;;                  1    wreg      void 
  1133 ;; Registers used:
  1134 ;;		wreg, fsr0l, fsr0h, status,2, status,0, pclath, cstack
  1135 ;; Tracked objects:
  1136 ;;		On entry : B1F/0
  1137 ;;		On exit  : 0/0
  1138 ;;		Unchanged: 0/0
  1139 ;; Data sizes:     COMMON   BANK0   BANK1   BANK2   BANK3   BANK4   BANK5   BANK6   BANK7   BANK8   BANK9  BANK10  BANK1
      +1  BANK12
  1140 ;;      Params:         0       0       0       0       0       0       0       0       0       0       0       0       
      +0       0
  1141 ;;      Locals:         0       0       0       0       0       0       0       0       0       0       0       0       
      +0       0
  1142 ;;      Temps:          2       0       0       0       0       0       0       0       0       0       0       0       
      +0       0
  1143 ;;      Totals:         2       0       0       0       0       0       0       0       0       0       0       0       
      +0       0
  1144 ;;Total ram usage:        2 bytes
  1145 ;; Hardware stack levels required when called:    2
  1146 ;; This function calls:
  1147 ;;		_EUSART_Initialize
  1148 ;;		_EUSART_Write
  1149 ;;		_EUSART_Write_Text
  1150 ;;		_initMain
  1151 ;; This function is called by:
  1152 ;;		Startup code after reset
  1153 ;; This function uses a non-reentrant model
  1154 ;;
  1155                           
  1156                           
  1157                           ;psect for function _main
  1158  06AE                     _main:	
  1159                           
  1160                           ;Main.c: 75: initMain();
  1161                           
  1162                           ;incstack = 0
  1163                           ; Regs used in _main: [wreg-fsr0h+status,2+status,0+pclath+cstack]
  1164  06AE  3186  2692  3186   	fcall	_initMain
  1165                           
  1166                           ;Main.c: 78: EUSART_Initialize(19200);
  1167  06B1  3000               	movlw	0
  1168  06B2  0020               	movlb	0	; select bank0
  1169  06B3  00A9               	movwf	EUSART_Initialize@baudrate+3
  1170  06B4  3000               	movlw	0
  1171  06B5  00A8               	movwf	EUSART_Initialize@baudrate+2
  1172  06B6  304B               	movlw	75
  1173  06B7  00A7               	movwf	EUSART_Initialize@baudrate+1
  1174  06B8  3000               	movlw	0
  1175  06B9  00A6               	movwf	EUSART_Initialize@baudrate
  1176  06BA  3187  2757  3186   	fcall	_EUSART_Initialize
  1177  06BD                     l117:	
  1178                           ;Main.c: 80: while(1){
  1179                           
  1180                           
  1181                           ;Main.c: 84: EUSART_Write(17);
  1182  06BD  3011               	movlw	17
  1183  06BE  3186  2667  3186   	fcall	_EUSART_Write
  1184                           
  1185                           ;Main.c: 87: EUSART_Write_Text("Hello");
  1186  06C1  3000               	movlw	low (STR_1| (0+32768))
  1187  06C2  00F1               	movwf	EUSART_Write_Text@text
  1188  06C3  3088               	movlw	high (STR_1| (0+32768))
  1189  06C4  00F2               	movwf	EUSART_Write_Text@text+1
  1190  06C5  3186  2678  3186   	fcall	_EUSART_Write_Text
  1191                           
  1192                           ;Main.c: 90: _delay((unsigned long)((2000)*(16000000/4000.0)));
  1193  06C8  3029               	movlw	41
  1194  06C9  00FC               	movwf	??_main+1
  1195  06CA  3096               	movlw	150
  1196  06CB  00FB               	movwf	??_main
  1197  06CC  307F               	movlw	127
  1198  06CD                     u397:	
  1199  06CD  0B89               	decfsz	9,f
  1200  06CE  2ECD               	goto	u397
  1201  06CF  0BFB               	decfsz	??_main,f
  1202  06D0  2ECD               	goto	u397
  1203  06D1  0BFC               	decfsz	??_main+1,f
  1204  06D2  2ECD               	goto	u397
  1205  06D3  0000               	nop
  1206  06D4  2EBD               	goto	l117
  1207  06D5                     __end_of_main:	
  1208                           ;Main.c: 91: }
  1209                           ;Main.c: 93: return;
  1210                           
  1211                           
  1212                           	psect	text1
  1213  0692                     __ptext1:	
  1214 ;; *************** function _initMain *****************
  1215 ;; Defined at:
  1216 ;;		line 40 in file "Main.c"
  1217 ;; Parameters:    Size  Location     Type
  1218 ;;		None
  1219 ;; Auto vars:     Size  Location     Type
  1220 ;;		None
  1221 ;; Return value:  Size  Location     Type
  1222 ;;                  1    wreg      void 
  1223 ;; Registers used:
  1224 ;;		wreg, status,2, status,0, pclath, cstack
  1225 ;; Tracked objects:
  1226 ;;		On entry : 0/0
  1227 ;;		On exit  : 0/0
  1228 ;;		Unchanged: 0/0
  1229 ;; Data sizes:     COMMON   BANK0   BANK1   BANK2   BANK3   BANK4   BANK5   BANK6   BANK7   BANK8   BANK9  BANK10  BANK1
      +1  BANK12
  1230 ;;      Params:         0       0       0       0       0       0       0       0       0       0       0       0       
      +0       0
  1231 ;;      Locals:         0       0       0       0       0       0       0       0       0       0       0       0       
      +0       0
  1232 ;;      Temps:          0       0       0       0       0       0       0       0       0       0       0       0       
      +0       0
  1233 ;;      Totals:         0       0       0       0       0       0       0       0       0       0       0       0       
      +0       0
  1234 ;;Total ram usage:        0 bytes
  1235 ;; Hardware stack levels used:    1
  1236 ;; Hardware stack levels required when called:    1
  1237 ;; This function calls:
  1238 ;;		_internal_16
  1239 ;; This function is called by:
  1240 ;;		_main
  1241 ;; This function uses a non-reentrant model
  1242 ;;
  1243                           
  1244                           
  1245                           ;psect for function _initMain
  1246  0692                     _initMain:	
  1247                           
  1248                           ;Main.c: 42: internal_16();
  1249                           
  1250                           ;incstack = 0
  1251                           ; Regs used in _initMain: [wreg+status,2+status,0+pclath+cstack]
  1252  0692  3186  266F         	fcall	_internal_16
  1253                           
  1254                           ;Main.c: 48: TRISBbits.TRISB2 = 0;
  1255  0694  0021               	movlb	1	; select bank1
  1256  0695  110D               	bcf	13,2	;volatile
  1257                           
  1258                           ;Main.c: 49: ANSELBbits.ANSB2 = 0;
  1259  0696  0023               	movlb	3	; select bank3
  1260  0697  110D               	bcf	13,2	;volatile
  1261                           
  1262                           ;Main.c: 54: PPSLOCK = 0x55;
  1263  0698  3055               	movlw	85
  1264  0699  003C               	movlb	28	; select bank28
  1265  069A  008F               	movwf	15	;volatile
  1266                           
  1267                           ;Main.c: 55: PPSLOCK = 0xAA;
  1268  069B  30AA               	movlw	170
  1269  069C  008F               	movwf	15	;volatile
  1270                           
  1271                           ;Main.c: 56: PPSLOCKbits.PPSLOCKED = 0x00;
  1272  069D  100F               	bcf	15,0	;volatile
  1273                           
  1274                           ;Main.c: 58: RB2PPSbits.RB2PPS = 0x14;
  1275  069E  003D               	movlb	29	; select bank29
  1276  069F  081A               	movf	26,w	;volatile
  1277  06A0  39E0               	andlw	-32
  1278  06A1  3814               	iorlw	20
  1279  06A2  009A               	movwf	26	;volatile
  1280                           
  1281                           ;Main.c: 59: RXPPSbits.RXPPS = 0x0B;
  1282  06A3  003C               	movlb	28	; select bank28
  1283  06A4  0824               	movf	36,w	;volatile
  1284  06A5  39E0               	andlw	-32
  1285  06A6  380B               	iorlw	11
  1286  06A7  00A4               	movwf	36	;volatile
  1287                           
  1288                           ;Main.c: 61: PPSLOCK = 0x55;
  1289  06A8  3055               	movlw	85
  1290  06A9  008F               	movwf	15	;volatile
  1291                           
  1292                           ;Main.c: 62: PPSLOCK = 0xAA;
  1293  06AA  30AA               	movlw	170
  1294  06AB  008F               	movwf	15	;volatile
  1295                           
  1296                           ;Main.c: 63: PPSLOCKbits.PPSLOCKED = 0x01;
  1297  06AC  140F               	bsf	15,0	;volatile
  1298  06AD  0008               	return
  1299  06AE                     __end_of_initMain:	
  1300                           
  1301                           	psect	text2
  1302  066F                     __ptext2:	
  1303 ;; *************** function _internal_16 *****************
  1304 ;; Defined at:
  1305 ;;		line 56 in file "16F1717_Internal.c"
  1306 ;; Parameters:    Size  Location     Type
  1307 ;;		None
  1308 ;; Auto vars:     Size  Location     Type
  1309 ;;		None
  1310 ;; Return value:  Size  Location     Type
  1311 ;;                  1    wreg      void 
  1312 ;; Registers used:
  1313 ;;		None
  1314 ;; Tracked objects:
  1315 ;;		On entry : 0/0
  1316 ;;		On exit  : 0/0
  1317 ;;		Unchanged: 0/0
  1318 ;; Data sizes:     COMMON   BANK0   BANK1   BANK2   BANK3   BANK4   BANK5   BANK6   BANK7   BANK8   BANK9  BANK10  BANK1
      +1  BANK12
  1319 ;;      Params:         0       0       0       0       0       0       0       0       0       0       0       0       
      +0       0
  1320 ;;      Locals:         0       0       0       0       0       0       0       0       0       0       0       0       
      +0       0
  1321 ;;      Temps:          0       0       0       0       0       0       0       0       0       0       0       0       
      +0       0
  1322 ;;      Totals:         0       0       0       0       0       0       0       0       0       0       0       0       
      +0       0
  1323 ;;Total ram usage:        0 bytes
  1324 ;; Hardware stack levels used:    1
  1325 ;; This function calls:
  1326 ;;		Nothing
  1327 ;; This function is called by:
  1328 ;;		_initMain
  1329 ;; This function uses a non-reentrant model
  1330 ;;
  1331                           
  1332                           
  1333                           ;psect for function _internal_16
  1334  066F                     _internal_16:	
  1335                           
  1336                           ;16F1717_Internal.c: 58: SCS0 = 0;
  1337                           
  1338                           ;incstack = 0
  1339                           ; Regs used in _internal_16: []
  1340  066F  0021               	movlb	1	; select bank1
  1341  0670  1019               	bcf	25,0	;volatile
  1342                           
  1343                           ;16F1717_Internal.c: 59: SCS1 = 0;
  1344  0671  1099               	bcf	25,1	;volatile
  1345                           
  1346                           ;16F1717_Internal.c: 62: IRCF0 = 1;
  1347  0672  1599               	bsf	25,3	;volatile
  1348                           
  1349                           ;16F1717_Internal.c: 63: IRCF1 = 1;
  1350  0673  1619               	bsf	25,4	;volatile
  1351                           
  1352                           ;16F1717_Internal.c: 64: IRCF2 = 1;
  1353  0674  1699               	bsf	25,5	;volatile
  1354                           
  1355                           ;16F1717_Internal.c: 65: IRCF3 = 1;
  1356  0675  1719               	bsf	25,6	;volatile
  1357                           
  1358                           ;16F1717_Internal.c: 68: SPLLEN = 0;
  1359  0676  1399               	bcf	25,7	;volatile
  1360  0677  0008               	return
  1361  0678                     __end_of_internal_16:	
  1362                           
  1363                           	psect	text3
  1364  0678                     __ptext3:	
  1365 ;; *************** function _EUSART_Write_Text *****************
  1366 ;; Defined at:
  1367 ;;		line 125 in file "EUSART.c"
  1368 ;; Parameters:    Size  Location     Type
  1369 ;;  text            2    1[COMMON] PTR unsigned char 
  1370 ;;		 -> STR_1(6), 
  1371 ;; Auto vars:     Size  Location     Type
  1372 ;;  i               2    4[COMMON] int 
  1373 ;; Return value:  Size  Location     Type
  1374 ;;                  1    wreg      void 
  1375 ;; Registers used:
  1376 ;;		wreg, fsr0l, fsr0h, status,2, status,0, pclath, cstack
  1377 ;; Tracked objects:
  1378 ;;		On entry : 0/0
  1379 ;;		On exit  : 0/0
  1380 ;;		Unchanged: 0/0
  1381 ;; Data sizes:     COMMON   BANK0   BANK1   BANK2   BANK3   BANK4   BANK5   BANK6   BANK7   BANK8   BANK9  BANK10  BANK1
      +1  BANK12
  1382 ;;      Params:         2       0       0       0       0       0       0       0       0       0       0       0       
      +0       0
  1383 ;;      Locals:         2       0       0       0       0       0       0       0       0       0       0       0       
      +0       0
  1384 ;;      Temps:          1       0       0       0       0       0       0       0       0       0       0       0       
      +0       0
  1385 ;;      Totals:         5       0       0       0       0       0       0       0       0       0       0       0       
      +0       0
  1386 ;;Total ram usage:        5 bytes
  1387 ;; Hardware stack levels used:    1
  1388 ;; Hardware stack levels required when called:    1
  1389 ;; This function calls:
  1390 ;;		_EUSART_Write
  1391 ;; This function is called by:
  1392 ;;		_main
  1393 ;; This function uses a non-reentrant model
  1394 ;;
  1395                           
  1396                           
  1397                           ;psect for function _EUSART_Write_Text
  1398  0678                     _EUSART_Write_Text:	
  1399                           
  1400                           ;EUSART.c: 127: int i;
  1401                           ;EUSART.c: 128: for(i=0;text[i]!='\0';i++)
  1402                           
  1403                           ;incstack = 0
  1404                           ; Regs used in _EUSART_Write_Text: [wreg-fsr0h+status,2+status,0+pclath+cstack]
  1405  0678  01F4               	clrf	EUSART_Write_Text@i
  1406  0679  01F5               	clrf	EUSART_Write_Text@i+1
  1407  067A                     l708:	
  1408  067A  0871               	movf	EUSART_Write_Text@text,w
  1409  067B  0774               	addwf	EUSART_Write_Text@i,w
  1410  067C  0084               	movwf	4
  1411  067D  0872               	movf	EUSART_Write_Text@text+1,w
  1412  067E  3D75               	addwfc	EUSART_Write_Text@i+1,w
  1413  067F  0085               	movwf	5
  1414  0680  0012               	moviw fsr0++
  1415  0681  1903               	btfsc	3,2
  1416  0682  0008               	return
  1417                           
  1418                           ;EUSART.c: 129: EUSART_Write(text[i]);
  1419  0683  0871               	movf	EUSART_Write_Text@text,w
  1420  0684  0774               	addwf	EUSART_Write_Text@i,w
  1421  0685  0084               	movwf	4
  1422  0686  0872               	movf	EUSART_Write_Text@text+1,w
  1423  0687  3D75               	addwfc	EUSART_Write_Text@i+1,w
  1424  0688  0085               	movwf	5
  1425  0689  0800               	movf	0,w	;code access
  1426  068A  3186  2667  3186   	fcall	_EUSART_Write
  1427  068D  3001               	movlw	1
  1428  068E  07F4               	addwf	EUSART_Write_Text@i,f
  1429  068F  3000               	movlw	0
  1430  0690  3DF5               	addwfc	EUSART_Write_Text@i+1,f
  1431  0691  2E7A               	goto	l708
  1432  0692                     __end_of_EUSART_Write_Text:	
  1433                           
  1434                           	psect	text4
  1435  0667                     __ptext4:	
  1436 ;; *************** function _EUSART_Write *****************
  1437 ;; Defined at:
  1438 ;;		line 98 in file "EUSART.c"
  1439 ;; Parameters:    Size  Location     Type
  1440 ;;  txData          1    wreg     unsigned char 
  1441 ;; Auto vars:     Size  Location     Type
  1442 ;;  txData          1    0[COMMON] unsigned char 
  1443 ;; Return value:  Size  Location     Type
  1444 ;;                  1    wreg      void 
  1445 ;; Registers used:
  1446 ;;		wreg
  1447 ;; Tracked objects:
  1448 ;;		On entry : 0/0
  1449 ;;		On exit  : 0/0
  1450 ;;		Unchanged: 0/0
  1451 ;; Data sizes:     COMMON   BANK0   BANK1   BANK2   BANK3   BANK4   BANK5   BANK6   BANK7   BANK8   BANK9  BANK10  BANK1
      +1  BANK12
  1452 ;;      Params:         0       0       0       0       0       0       0       0       0       0       0       0       
      +0       0
  1453 ;;      Locals:         1       0       0       0       0       0       0       0       0       0       0       0       
      +0       0
  1454 ;;      Temps:          0       0       0       0       0       0       0       0       0       0       0       0       
      +0       0
  1455 ;;      Totals:         1       0       0       0       0       0       0       0       0       0       0       0       
      +0       0
  1456 ;;Total ram usage:        1 bytes
  1457 ;; Hardware stack levels used:    1
  1458 ;; This function calls:
  1459 ;;		Nothing
  1460 ;; This function is called by:
  1461 ;;		_EUSART_Write_Text
  1462 ;;		_main
  1463 ;; This function uses a non-reentrant model
  1464 ;;
  1465                           
  1466                           
  1467                           ;psect for function _EUSART_Write
  1468  0667                     _EUSART_Write:	
  1469                           
  1470                           ;incstack = 0
  1471                           ; Regs used in _EUSART_Write: [wreg]
  1472                           ;EUSART_Write@txData stored from wreg
  1473  0667  00F0               	movwf	EUSART_Write@txData
  1474  0668                     l74:	
  1475                           ;EUSART.c: 101: {
  1476                           
  1477                           ;EUSART.c: 100: while(0 == PIR1bits.TXIF)
  1478                           
  1479  0668  0020               	movlb	0	; select bank0
  1480  0669  1E11               	btfss	17,4	;volatile
  1481  066A  2E68               	goto	l74
  1482                           
  1483                           ;EUSART.c: 102: }
  1484                           ;EUSART.c: 104: TX1REG = txData;
  1485  066B  0870               	movf	EUSART_Write@txData,w
  1486  066C  0023               	movlb	3	; select bank3
  1487  066D  009A               	movwf	26	;volatile
  1488  066E  0008               	return
  1489  066F                     __end_of_EUSART_Write:	
  1490                           
  1491                           	psect	text5
  1492  0757                     __ptext5:	
  1493 ;; *************** function _EUSART_Initialize *****************
  1494 ;; Defined at:
  1495 ;;		line 34 in file "EUSART.c"
  1496 ;; Parameters:    Size  Location     Type
  1497 ;;  baudrate        4    6[BANK0 ] const long 
  1498 ;; Auto vars:     Size  Location     Type
  1499 ;;  x               2    9[COMMON] unsigned int 
  1500 ;; Return value:  Size  Location     Type
  1501 ;;                  1    wreg      unsigned char 
  1502 ;; Registers used:
  1503 ;;		wreg, status,2, status,0, pclath, cstack
  1504 ;; Tracked objects:
  1505 ;;		On entry : 0/0
  1506 ;;		On exit  : 0/0
  1507 ;;		Unchanged: 0/0
  1508 ;; Data sizes:     COMMON   BANK0   BANK1   BANK2   BANK3   BANK4   BANK5   BANK6   BANK7   BANK8   BANK9  BANK10  BANK1
      +1  BANK12
  1509 ;;      Params:         0       4       0       0       0       0       0       0       0       0       0       0       
      +0       0
  1510 ;;      Locals:         2       0       0       0       0       0       0       0       0       0       0       0       
      +0       0
  1511 ;;      Temps:          0       8       0       0       0       0       0       0       0       0       0       0       
      +0       0
  1512 ;;      Totals:         2      12       0       0       0       0       0       0       0       0       0       0       
      +0       0
  1513 ;;Total ram usage:       14 bytes
  1514 ;; Hardware stack levels used:    1
  1515 ;; Hardware stack levels required when called:    1
  1516 ;; This function calls:
  1517 ;;		___aldiv
  1518 ;; This function is called by:
  1519 ;;		_main
  1520 ;; This function uses a non-reentrant model
  1521 ;;
  1522                           
  1523                           
  1524                           ;psect for function _EUSART_Initialize
  1525  0757                     _EUSART_Initialize:	
  1526                           
  1527                           ;EUSART.c: 36: unsigned int x;
  1528                           ;EUSART.c: 37: x = (16000000 - baudrate*64)/(baudrate*64);
  1529                           
  1530                           ;incstack = 0
  1531                           ; Regs used in _EUSART_Initialize: [wreg+status,2+status,0+pclath+cstack]
  1532  0757  0020               	movlb	0	; select bank0
  1533  0758  0826               	movf	EUSART_Initialize@baudrate,w
  1534  0759  00AA               	movwf	??_EUSART_Initialize
  1535  075A  0827               	movf	EUSART_Initialize@baudrate+1,w
  1536  075B  00AB               	movwf	??_EUSART_Initialize+1
  1537  075C  0828               	movf	EUSART_Initialize@baudrate+2,w
  1538  075D  00AC               	movwf	??_EUSART_Initialize+2
  1539  075E  0829               	movf	EUSART_Initialize@baudrate+3,w
  1540  075F  00AD               	movwf	??_EUSART_Initialize+3
  1541  0760  3006               	movlw	6
  1542  0761                     u325:	
  1543  0761  35AA               	lslf	??_EUSART_Initialize,f
  1544  0762  0DAB               	rlf	??_EUSART_Initialize+1,f
  1545  0763  0DAC               	rlf	??_EUSART_Initialize+2,f
  1546  0764  0DAD               	rlf	??_EUSART_Initialize+3,f
  1547  0765  0B89               	decfsz	9,f
  1548  0766  2F61               	goto	u325
  1549  0767  082D               	movf	??_EUSART_Initialize+3,w
  1550  0768  00F3               	movwf	___aldiv@divisor+3
  1551  0769  082C               	movf	??_EUSART_Initialize+2,w
  1552  076A  00F2               	movwf	___aldiv@divisor+2
  1553  076B  082B               	movf	??_EUSART_Initialize+1,w
  1554  076C  00F1               	movwf	___aldiv@divisor+1
  1555  076D  082A               	movf	??_EUSART_Initialize,w
  1556  076E  00F0               	movwf	___aldiv@divisor
  1557  076F  0826               	movf	EUSART_Initialize@baudrate,w
  1558  0770  00AE               	movwf	??_EUSART_Initialize+4
  1559  0771  0827               	movf	EUSART_Initialize@baudrate+1,w
  1560  0772  00AF               	movwf	??_EUSART_Initialize+5
  1561  0773  0828               	movf	EUSART_Initialize@baudrate+2,w
  1562  0774  00B0               	movwf	??_EUSART_Initialize+6
  1563  0775  0829               	movf	EUSART_Initialize@baudrate+3,w
  1564  0776  00B1               	movwf	??_EUSART_Initialize+7
  1565  0777  3006               	movlw	6
  1566  0778                     u335:	
  1567  0778  35AE               	lslf	??_EUSART_Initialize+4,f
  1568  0779  0DAF               	rlf	??_EUSART_Initialize+5,f
  1569  077A  0DB0               	rlf	??_EUSART_Initialize+6,f
  1570  077B  0DB1               	rlf	??_EUSART_Initialize+7,f
  1571  077C  0B89               	decfsz	9,f
  1572  077D  2F78               	goto	u335
  1573  077E  09AE               	comf	??_EUSART_Initialize+4,f
  1574  077F  09AF               	comf	??_EUSART_Initialize+5,f
  1575  0780  09B0               	comf	??_EUSART_Initialize+6,f
  1576  0781  09B1               	comf	??_EUSART_Initialize+7,f
  1577  0782  0AAE               	incf	??_EUSART_Initialize+4,f
  1578  0783  1903               	skipnz
  1579  0784  0AAF               	incf	??_EUSART_Initialize+5,f
  1580  0785  1903               	skipnz
  1581  0786  0AB0               	incf	??_EUSART_Initialize+6,f
  1582  0787  1903               	skipnz
  1583  0788  0AB1               	incf	??_EUSART_Initialize+7,f
  1584  0789  3000               	movlw	0
  1585  078A  072E               	addwf	??_EUSART_Initialize+4,w
  1586  078B  00F4               	movwf	___aldiv@dividend
  1587  078C  3024               	movlw	36
  1588  078D  3D2F               	addwfc	??_EUSART_Initialize+5,w
  1589  078E  00F5               	movwf	___aldiv@dividend+1
  1590  078F  30F4               	movlw	244
  1591  0790  3D30               	addwfc	??_EUSART_Initialize+6,w
  1592  0791  00F6               	movwf	___aldiv@dividend+2
  1593  0792  3000               	movlw	0
  1594  0793  3D31               	addwfc	??_EUSART_Initialize+7,w
  1595  0794  00F7               	movwf	___aldiv@dividend+3
  1596  0795  3186  26D5  3187   	fcall	___aldiv
  1597  0798  0871               	movf	?___aldiv+1,w
  1598  0799  00FA               	movwf	EUSART_Initialize@x+1
  1599  079A  0870               	movf	?___aldiv,w
  1600  079B  00F9               	movwf	EUSART_Initialize@x
  1601                           
  1602                           ;EUSART.c: 38: if(x>255)
  1603  079C  3001               	movlw	1
  1604  079D  027A               	subwf	EUSART_Initialize@x+1,w
  1605  079E  3000               	movlw	0
  1606  079F  1903               	skipnz
  1607  07A0  0279               	subwf	EUSART_Initialize@x,w
  1608  07A1  1C03               	skipc
  1609  07A2  2FEA               	goto	l684
  1610                           
  1611                           ;EUSART.c: 39: {
  1612                           ;EUSART.c: 40: x = (16000000 - baudrate*16)/(baudrate*16);
  1613  07A3  0020               	movlb	0	; select bank0
  1614  07A4  0826               	movf	EUSART_Initialize@baudrate,w
  1615  07A5  00AA               	movwf	??_EUSART_Initialize
  1616  07A6  0827               	movf	EUSART_Initialize@baudrate+1,w
  1617  07A7  00AB               	movwf	??_EUSART_Initialize+1
  1618  07A8  0828               	movf	EUSART_Initialize@baudrate+2,w
  1619  07A9  00AC               	movwf	??_EUSART_Initialize+2
  1620  07AA  0829               	movf	EUSART_Initialize@baudrate+3,w
  1621  07AB  00AD               	movwf	??_EUSART_Initialize+3
  1622  07AC  3004               	movlw	4
  1623  07AD                     u355:	
  1624  07AD  35AA               	lslf	??_EUSART_Initialize,f
  1625  07AE  0DAB               	rlf	??_EUSART_Initialize+1,f
  1626  07AF  0DAC               	rlf	??_EUSART_Initialize+2,f
  1627  07B0  0DAD               	rlf	??_EUSART_Initialize+3,f
  1628  07B1  0B89               	decfsz	9,f
  1629  07B2  2FAD               	goto	u355
  1630  07B3  082D               	movf	??_EUSART_Initialize+3,w
  1631  07B4  00F3               	movwf	___aldiv@divisor+3
  1632  07B5  082C               	movf	??_EUSART_Initialize+2,w
  1633  07B6  00F2               	movwf	___aldiv@divisor+2
  1634  07B7  082B               	movf	??_EUSART_Initialize+1,w
  1635  07B8  00F1               	movwf	___aldiv@divisor+1
  1636  07B9  082A               	movf	??_EUSART_Initialize,w
  1637  07BA  00F0               	movwf	___aldiv@divisor
  1638  07BB  0826               	movf	EUSART_Initialize@baudrate,w
  1639  07BC  00AE               	movwf	??_EUSART_Initialize+4
  1640  07BD  0827               	movf	EUSART_Initialize@baudrate+1,w
  1641  07BE  00AF               	movwf	??_EUSART_Initialize+5
  1642  07BF  0828               	movf	EUSART_Initialize@baudrate+2,w
  1643  07C0  00B0               	movwf	??_EUSART_Initialize+6
  1644  07C1  0829               	movf	EUSART_Initialize@baudrate+3,w
  1645  07C2  00B1               	movwf	??_EUSART_Initialize+7
  1646  07C3  3004               	movlw	4
  1647  07C4                     u365:	
  1648  07C4  35AE               	lslf	??_EUSART_Initialize+4,f
  1649  07C5  0DAF               	rlf	??_EUSART_Initialize+5,f
  1650  07C6  0DB0               	rlf	??_EUSART_Initialize+6,f
  1651  07C7  0DB1               	rlf	??_EUSART_Initialize+7,f
  1652  07C8  0B89               	decfsz	9,f
  1653  07C9  2FC4               	goto	u365
  1654  07CA  09AE               	comf	??_EUSART_Initialize+4,f
  1655  07CB  09AF               	comf	??_EUSART_Initialize+5,f
  1656  07CC  09B0               	comf	??_EUSART_Initialize+6,f
  1657  07CD  09B1               	comf	??_EUSART_Initialize+7,f
  1658  07CE  0AAE               	incf	??_EUSART_Initialize+4,f
  1659  07CF  1903               	skipnz
  1660  07D0  0AAF               	incf	??_EUSART_Initialize+5,f
  1661  07D1  1903               	skipnz
  1662  07D2  0AB0               	incf	??_EUSART_Initialize+6,f
  1663  07D3  1903               	skipnz
  1664  07D4  0AB1               	incf	??_EUSART_Initialize+7,f
  1665  07D5  3000               	movlw	0
  1666  07D6  072E               	addwf	??_EUSART_Initialize+4,w
  1667  07D7  00F4               	movwf	___aldiv@dividend
  1668  07D8  3024               	movlw	36
  1669  07D9  3D2F               	addwfc	??_EUSART_Initialize+5,w
  1670  07DA  00F5               	movwf	___aldiv@dividend+1
  1671  07DB  30F4               	movlw	244
  1672  07DC  3D30               	addwfc	??_EUSART_Initialize+6,w
  1673  07DD  00F6               	movwf	___aldiv@dividend+2
  1674  07DE  3000               	movlw	0
  1675  07DF  3D31               	addwfc	??_EUSART_Initialize+7,w
  1676  07E0  00F7               	movwf	___aldiv@dividend+3
  1677  07E1  3186  26D5  3187   	fcall	___aldiv
  1678  07E4  0871               	movf	?___aldiv+1,w
  1679  07E5  00FA               	movwf	EUSART_Initialize@x+1
  1680  07E6  0870               	movf	?___aldiv,w
  1681  07E7  00F9               	movwf	EUSART_Initialize@x
  1682                           
  1683                           ;EUSART.c: 41: BRGH = 1;
  1684  07E8  0023               	movlb	3	; select bank3
  1685  07E9  151E               	bsf	30,2	;volatile
  1686  07EA                     l684:	
  1687                           
  1688                           ;EUSART.c: 42: }
  1689                           ;EUSART.c: 43: if(x<256)
  1690  07EA  3001               	movlw	1
  1691  07EB  027A               	subwf	EUSART_Initialize@x+1,w
  1692  07EC  3000               	movlw	0
  1693  07ED  1903               	skipnz
  1694  07EE  0279               	subwf	EUSART_Initialize@x,w
  1695  07EF  1803               	skipnc
  1696  07F0  0008               	return
  1697                           
  1698                           ;EUSART.c: 44: {
  1699                           ;EUSART.c: 45: SPBRG = x;
  1700  07F1  0879               	movf	EUSART_Initialize@x,w
  1701  07F2  0023               	movlb	3	; select bank3
  1702  07F3  009B               	movwf	27	;volatile
  1703                           
  1704                           ;EUSART.c: 46: SYNC = 0;
  1705  07F4  121E               	bcf	30,4	;volatile
  1706                           
  1707                           ;EUSART.c: 47: SPEN = 1;
  1708  07F5  179D               	bsf	29,7	;volatile
  1709                           
  1710                           ;EUSART.c: 48: TRISC7 = 1;
  1711  07F6  0021               	movlb	1	; select bank1
  1712  07F7  178E               	bsf	14,7	;volatile
  1713                           
  1714                           ;EUSART.c: 49: TRISC6 = 1;
  1715  07F8  170E               	bsf	14,6	;volatile
  1716                           
  1717                           ;EUSART.c: 50: CREN = 1;
  1718  07F9  0023               	movlb	3	; select bank3
  1719  07FA  161D               	bsf	29,4	;volatile
  1720                           
  1721                           ;EUSART.c: 51: TXEN = 1;
  1722  07FB  169E               	bsf	30,5	;volatile
  1723                           
  1724                           ;EUSART.c: 52: return 1;
  1725                           ;	Return value of _EUSART_Initialize is never used
  1726  07FC  0008               	return
  1727  07FD                     __end_of_EUSART_Initialize:	
  1728                           ;EUSART.c: 53: }
  1729                           ;EUSART.c: 54: return 0;
  1730                           ;	Return value of _EUSART_Initialize is never used
  1731                           
  1732                           
  1733                           	psect	text6
  1734  06D5                     __ptext6:	
  1735 ;; *************** function ___aldiv *****************
  1736 ;; Defined at:
  1737 ;;		line 6 in file "C:\Program Files (x86)\Microchip\xc8\v1.41\sources\common\aldiv.c"
  1738 ;; Parameters:    Size  Location     Type
  1739 ;;  divisor         4    0[COMMON] long 
  1740 ;;  dividend        4    4[COMMON] long 
  1741 ;; Auto vars:     Size  Location     Type
  1742 ;;  quotient        4    2[BANK0 ] long 
  1743 ;;  sign            1    1[BANK0 ] unsigned char 
  1744 ;;  counter         1    0[BANK0 ] unsigned char 
  1745 ;; Return value:  Size  Location     Type
  1746 ;;                  4    0[COMMON] long 
  1747 ;; Registers used:
  1748 ;;		wreg, status,2, status,0
  1749 ;; Tracked objects:
  1750 ;;		On entry : 0/0
  1751 ;;		On exit  : 0/0
  1752 ;;		Unchanged: 0/0
  1753 ;; Data sizes:     COMMON   BANK0   BANK1   BANK2   BANK3   BANK4   BANK5   BANK6   BANK7   BANK8   BANK9  BANK10  BANK1
      +1  BANK12
  1754 ;;      Params:         8       0       0       0       0       0       0       0       0       0       0       0       
      +0       0
  1755 ;;      Locals:         0       6       0       0       0       0       0       0       0       0       0       0       
      +0       0
  1756 ;;      Temps:          1       0       0       0       0       0       0       0       0       0       0       0       
      +0       0
  1757 ;;      Totals:         9       6       0       0       0       0       0       0       0       0       0       0       
      +0       0
  1758 ;;Total ram usage:       15 bytes
  1759 ;; Hardware stack levels used:    1
  1760 ;; This function calls:
  1761 ;;		Nothing
  1762 ;; This function is called by:
  1763 ;;		_EUSART_Initialize
  1764 ;; This function uses a non-reentrant model
  1765 ;;
  1766                           
  1767                           
  1768                           ;psect for function ___aldiv
  1769  06D5                     ___aldiv:	
  1770                           
  1771                           ;incstack = 0
  1772                           ; Regs used in ___aldiv: [wreg+status,2+status,0]
  1773  06D5  0020               	movlb	0	; select bank0
  1774  06D6  01A1               	clrf	___aldiv@sign
  1775  06D7  1FF3               	btfss	___aldiv@divisor+3,7
  1776  06D8  2EE6               	goto	l179
  1777  06D9  09F0               	comf	___aldiv@divisor,f
  1778  06DA  09F1               	comf	___aldiv@divisor+1,f
  1779  06DB  09F2               	comf	___aldiv@divisor+2,f
  1780  06DC  09F3               	comf	___aldiv@divisor+3,f
  1781  06DD  0AF0               	incf	___aldiv@divisor,f
  1782  06DE  1903               	skipnz
  1783  06DF  0AF1               	incf	___aldiv@divisor+1,f
  1784  06E0  1903               	skipnz
  1785  06E1  0AF2               	incf	___aldiv@divisor+2,f
  1786  06E2  1903               	skipnz
  1787  06E3  0AF3               	incf	___aldiv@divisor+3,f
  1788  06E4  01A1               	clrf	___aldiv@sign
  1789  06E5  0AA1               	incf	___aldiv@sign,f
  1790  06E6                     l179:	
  1791  06E6  1FF7               	btfss	___aldiv@dividend+3,7
  1792  06E7  2EF7               	goto	l646
  1793  06E8  09F4               	comf	___aldiv@dividend,f
  1794  06E9  09F5               	comf	___aldiv@dividend+1,f
  1795  06EA  09F6               	comf	___aldiv@dividend+2,f
  1796  06EB  09F7               	comf	___aldiv@dividend+3,f
  1797  06EC  0AF4               	incf	___aldiv@dividend,f
  1798  06ED  1903               	skipnz
  1799  06EE  0AF5               	incf	___aldiv@dividend+1,f
  1800  06EF  1903               	skipnz
  1801  06F0  0AF6               	incf	___aldiv@dividend+2,f
  1802  06F1  1903               	skipnz
  1803  06F2  0AF7               	incf	___aldiv@dividend+3,f
  1804  06F3  3001               	movlw	1
  1805  06F4  00F8               	movwf	??___aldiv
  1806  06F5  0878               	movf	??___aldiv,w
  1807  06F6  06A1               	xorwf	___aldiv@sign,f
  1808  06F7                     l646:	
  1809  06F7  3000               	movlw	0
  1810  06F8  00A5               	movwf	___aldiv@quotient+3
  1811  06F9  3000               	movlw	0
  1812  06FA  00A4               	movwf	___aldiv@quotient+2
  1813  06FB  3000               	movlw	0
  1814  06FC  00A3               	movwf	___aldiv@quotient+1
  1815  06FD  3000               	movlw	0
  1816  06FE  00A2               	movwf	___aldiv@quotient
  1817  06FF  0873               	movf	___aldiv@divisor+3,w
  1818  0700  0472               	iorwf	___aldiv@divisor+2,w
  1819  0701  0471               	iorwf	___aldiv@divisor+1,w
  1820  0702  0470               	iorwf	___aldiv@divisor,w
  1821  0703  1903               	skipnz
  1822  0704  2F40               	goto	l668
  1823  0705  01A0               	clrf	___aldiv@counter
  1824  0706  0AA0               	incf	___aldiv@counter,f
  1825  0707                     l654:	
  1826  0707  1BF3               	btfsc	___aldiv@divisor+3,7
  1827  0708  2F15               	goto	l656
  1828  0709  3001               	movlw	1
  1829  070A                     u255:	
  1830  070A  35F0               	lslf	___aldiv@divisor,f
  1831  070B  0DF1               	rlf	___aldiv@divisor+1,f
  1832  070C  0DF2               	rlf	___aldiv@divisor+2,f
  1833  070D  0DF3               	rlf	___aldiv@divisor+3,f
  1834  070E  0B89               	decfsz	9,f
  1835  070F  2F0A               	goto	u255
  1836  0710  3001               	movlw	1
  1837  0711  00F8               	movwf	??___aldiv
  1838  0712  0878               	movf	??___aldiv,w
  1839  0713  07A0               	addwf	___aldiv@counter,f
  1840  0714  2F07               	goto	l654
  1841  0715                     l656:	
  1842  0715  3001               	movlw	1
  1843  0716                     u275:	
  1844  0716  35A2               	lslf	___aldiv@quotient,f
  1845  0717  0DA3               	rlf	___aldiv@quotient+1,f
  1846  0718  0DA4               	rlf	___aldiv@quotient+2,f
  1847  0719  0DA5               	rlf	___aldiv@quotient+3,f
  1848  071A  0B89               	decfsz	9,f
  1849  071B  2F16               	goto	u275
  1850  071C  0873               	movf	___aldiv@divisor+3,w
  1851  071D  0277               	subwf	___aldiv@dividend+3,w
  1852  071E  1D03               	skipz
  1853  071F  2F2A               	goto	u285
  1854  0720  0872               	movf	___aldiv@divisor+2,w
  1855  0721  0276               	subwf	___aldiv@dividend+2,w
  1856  0722  1D03               	skipz
  1857  0723  2F2A               	goto	u285
  1858  0724  0871               	movf	___aldiv@divisor+1,w
  1859  0725  0275               	subwf	___aldiv@dividend+1,w
  1860  0726  1D03               	skipz
  1861  0727  2F2A               	goto	u285
  1862  0728  0870               	movf	___aldiv@divisor,w
  1863  0729  0274               	subwf	___aldiv@dividend,w
  1864  072A                     u285:	
  1865  072A  1C03               	skipc
  1866  072B  2F35               	goto	l664
  1867  072C  0870               	movf	___aldiv@divisor,w
  1868  072D  02F4               	subwf	___aldiv@dividend,f
  1869  072E  0871               	movf	___aldiv@divisor+1,w
  1870  072F  3BF5               	subwfb	___aldiv@dividend+1,f
  1871  0730  0872               	movf	___aldiv@divisor+2,w
  1872  0731  3BF6               	subwfb	___aldiv@dividend+2,f
  1873  0732  0873               	movf	___aldiv@divisor+3,w
  1874  0733  3BF7               	subwfb	___aldiv@dividend+3,f
  1875  0734  1422               	bsf	___aldiv@quotient,0
  1876  0735                     l664:	
  1877  0735  3001               	movlw	1
  1878  0736                     u295:	
  1879  0736  36F3               	lsrf	___aldiv@divisor+3,f
  1880  0737  0CF2               	rrf	___aldiv@divisor+2,f
  1881  0738  0CF1               	rrf	___aldiv@divisor+1,f
  1882  0739  0CF0               	rrf	___aldiv@divisor,f
  1883  073A  0B89               	decfsz	9,f
  1884  073B  2F36               	goto	u295
  1885  073C  3001               	movlw	1
  1886  073D  02A0               	subwf	___aldiv@counter,f
  1887  073E  1D03               	btfss	3,2
  1888  073F  2F15               	goto	l656
  1889  0740                     l668:	
  1890  0740  0821               	movf	___aldiv@sign,w
  1891  0741  1903               	btfsc	3,2
  1892  0742  2F4E               	goto	l672
  1893  0743  09A2               	comf	___aldiv@quotient,f
  1894  0744  09A3               	comf	___aldiv@quotient+1,f
  1895  0745  09A4               	comf	___aldiv@quotient+2,f
  1896  0746  09A5               	comf	___aldiv@quotient+3,f
  1897  0747  0AA2               	incf	___aldiv@quotient,f
  1898  0748  1903               	skipnz
  1899  0749  0AA3               	incf	___aldiv@quotient+1,f
  1900  074A  1903               	skipnz
  1901  074B  0AA4               	incf	___aldiv@quotient+2,f
  1902  074C  1903               	skipnz
  1903  074D  0AA5               	incf	___aldiv@quotient+3,f
  1904  074E                     l672:	
  1905  074E  0825               	movf	___aldiv@quotient+3,w
  1906  074F  00F3               	movwf	?___aldiv+3
  1907  0750  0824               	movf	___aldiv@quotient+2,w
  1908  0751  00F2               	movwf	?___aldiv+2
  1909  0752  0823               	movf	___aldiv@quotient+1,w
  1910  0753  00F1               	movwf	?___aldiv+1
  1911  0754  0822               	movf	___aldiv@quotient,w
  1912  0755  00F0               	movwf	?___aldiv
  1913  0756  0008               	return
  1914  0757                     __end_of___aldiv:	
  1915  007E                     btemp	set	126	;btemp
  1916  007E                     wtemp0	set	126


Data Sizes:
    Strings     6
    Constant    0
    Data        0
    BSS         0
    Persistent  0
    Stack       0

Auto Spaces:
    Space          Size  Autos    Used
    COMMON           14     13      13
    BANK0            80     18      18
    BANK1            80      0       0
    BANK2            80      0       0
    BANK3            80      0       0
    BANK4            80      0       0
    BANK5            80      0       0
    BANK6            80      0       0
    BANK7            80      0       0
    BANK8            80      0       0
    BANK9            80      0       0
    BANK10           80      0       0
    BANK11           80      0       0
    BANK12           48      0       0

Pointer List with Targets:

    EUSART_Write_Text@text	PTR unsigned char  size(2) Largest target is 6
		 -> STR_1(CODE[6]), 


Critical Paths under _main in COMMON

    _main->_EUSART_Initialize
    _EUSART_Write_Text->_EUSART_Write
    _EUSART_Initialize->___aldiv

Critical Paths under _main in BANK0

    _main->_EUSART_Initialize
    _EUSART_Initialize->___aldiv

Critical Paths under _main in BANK1

    None.

Critical Paths under _main in BANK2

    None.

Critical Paths under _main in BANK3

    None.

Critical Paths under _main in BANK4

    None.

Critical Paths under _main in BANK5

    None.

Critical Paths under _main in BANK6

    None.

Critical Paths under _main in BANK7

    None.

Critical Paths under _main in BANK8

    None.

Critical Paths under _main in BANK9

    None.

Critical Paths under _main in BANK10

    None.

Critical Paths under _main in BANK11

    None.

Critical Paths under _main in BANK12

    None.

Call Graph Tables:

 ---------------------------------------------------------------------------------
 (Depth) Function   	        Calls       Base Space   Used Autos Params    Refs
 ---------------------------------------------------------------------------------
 (0) _main                                                 2     2      0     894
                                             11 COMMON     2     2      0
                  _EUSART_Initialize
                       _EUSART_Write
                  _EUSART_Write_Text
                           _initMain
 ---------------------------------------------------------------------------------
 (1) _initMain                                             0     0      0       0
                        _internal_16
 ---------------------------------------------------------------------------------
 (2) _internal_16                                          0     0      0       0
 ---------------------------------------------------------------------------------
 (1) _EUSART_Write_Text                                    5     3      2     158
                                              1 COMMON     5     3      2
                       _EUSART_Write
 ---------------------------------------------------------------------------------
 (2) _EUSART_Write                                         1     1      0      15
                                              0 COMMON     1     1      0
 ---------------------------------------------------------------------------------
 (1) _EUSART_Initialize                                   14    10      4     721
                                              9 COMMON     2     2      0
                                              6 BANK0     12     8      4
                            ___aldiv
 ---------------------------------------------------------------------------------
 (2) ___aldiv                                             15     7      8     512
                                              0 COMMON     9     1      8
                                              0 BANK0      6     6      0
 ---------------------------------------------------------------------------------
 Estimated maximum stack depth 2
 ---------------------------------------------------------------------------------

 Call Graph Graphs:

 _main (ROOT)
   _EUSART_Initialize
     ___aldiv
   _EUSART_Write
   _EUSART_Write_Text
     _EUSART_Write
   _initMain
     _internal_16

 Address spaces:
Name               Size   Autos  Total    Cost      Usage
BIGRAM             3F0      0       0       0        0.0%
NULL                 0      0       0       0        0.0%
CODE                 0      0       0       0        0.0%
BITCOMMON            E      0       0       1        0.0%
BITSFR0              0      0       0       1        0.0%
SFR0                 0      0       0       1        0.0%
COMMON               E      D       D       2       92.9%
BITSFR1              0      0       0       2        0.0%
SFR1                 0      0       0       2        0.0%
BITSFR2              0      0       0       3        0.0%
SFR2                 0      0       0       3        0.0%
STACK                0      0       0       3        0.0%
BITBANK0            50      0       0       4        0.0%
BITSFR3              0      0       0       4        0.0%
SFR3                 0      0       0       4        0.0%
BANK0               50     12      12       5       22.5%
BITSFR4              0      0       0       5        0.0%
SFR4                 0      0       0       5        0.0%
BITBANK1            50      0       0       6        0.0%
BITSFR5              0      0       0       6        0.0%
SFR5                 0      0       0       6        0.0%
BANK1               50      0       0       7        0.0%
BITSFR6              0      0       0       7        0.0%
SFR6                 0      0       0       7        0.0%
BITBANK2            50      0       0       8        0.0%
BITSFR7              0      0       0       8        0.0%
SFR7                 0      0       0       8        0.0%
BANK2               50      0       0       9        0.0%
BITSFR8              0      0       0       9        0.0%
SFR8                 0      0       0       9        0.0%
BITBANK3            50      0       0      10        0.0%
BITSFR9              0      0       0      10        0.0%
SFR9                 0      0       0      10        0.0%
BANK3               50      0       0      11        0.0%
BITSFR10             0      0       0      11        0.0%
SFR10                0      0       0      11        0.0%
BITBANK4            50      0       0      12        0.0%
BITSFR11             0      0       0      12        0.0%
SFR11                0      0       0      12        0.0%
BANK4               50      0       0      13        0.0%
BITSFR12             0      0       0      13        0.0%
SFR12                0      0       0      13        0.0%
BITBANK5            50      0       0      14        0.0%
BITSFR13             0      0       0      14        0.0%
SFR13                0      0       0      14        0.0%
BANK5               50      0       0      15        0.0%
BITSFR14             0      0       0      15        0.0%
SFR14                0      0       0      15        0.0%
BITBANK6            50      0       0      16        0.0%
BITSFR15             0      0       0      16        0.0%
SFR15                0      0       0      16        0.0%
BANK6               50      0       0      17        0.0%
BITSFR16             0      0       0      17        0.0%
SFR16                0      0       0      17        0.0%
BITBANK7            50      0       0      18        0.0%
BITSFR17             0      0       0      18        0.0%
SFR17                0      0       0      18        0.0%
BANK7               50      0       0      19        0.0%
BITSFR18             0      0       0      19        0.0%
SFR18                0      0       0      19        0.0%
BITSFR19             0      0       0      20        0.0%
SFR19                0      0       0      20        0.0%
ABS                  0      0       0      20        0.0%
BITBANK8            50      0       0      21        0.0%
BITSFR20             0      0       0      21        0.0%
SFR20                0      0       0      21        0.0%
BANK8               50      0       0      22        0.0%
BITSFR21             0      0       0      22        0.0%
SFR21                0      0       0      22        0.0%
BITBANK9            50      0       0      23        0.0%
BITSFR22             0      0       0      23        0.0%
SFR22                0      0       0      23        0.0%
BANK9               50      0       0      24        0.0%
BITSFR23             0      0       0      24        0.0%
SFR23                0      0       0      24        0.0%
BITBANK10           50      0       0      25        0.0%
BITSFR24             0      0       0      25        0.0%
SFR24                0      0       0      25        0.0%
BANK10              50      0       0      26        0.0%
BITSFR25             0      0       0      26        0.0%
SFR25                0      0       0      26        0.0%
BITBANK11           50      0       0      27        0.0%
BITSFR26             0      0       0      27        0.0%
SFR26                0      0       0      27        0.0%
BANK11              50      0       0      28        0.0%
BITSFR27             0      0       0      28        0.0%
SFR27                0      0       0      28        0.0%
BITBANK12           30      0       0      29        0.0%
BITSFR28             0      0       0      29        0.0%
SFR28                0      0       0      29        0.0%
BANK12              30      0       0      30        0.0%
BITSFR29             0      0       0      30        0.0%
SFR29                0      0       0      30        0.0%
BITSFR30             0      0       0      31        0.0%
SFR30                0      0       0      31        0.0%
DATA                 0      0       0      31        0.0%
BITSFR31             0      0       0      32        0.0%
SFR31                0      0       0      32        0.0%


Microchip Technology PIC Macro Assembler V1.41 build -162212810 
Symbol Table                                                                                   Tue Apr 18 11:20:10 2017

               __CFG_CP$OFF 0000                          l74 0668                         l117 06BD  
                       l179 06E6                         l708 067A                         l654 0707  
                       l646 06F7                         l672 074E                         l664 0735  
                       l656 0715                         l668 0740                         l684 07EA  
                       u325 0761                         u255 070A                         u335 0778  
                       u275 0716                         u355 07AD                         u285 072A  
                       u365 07C4                         u295 0736                         u397 06CD  
              __CFG_BORV$LO 0000                         wreg 0009                __CFG_IESO$ON 0000  
              __CFG_LVP$OFF 0000                        STR_1 0800                        _BRGH 0CF2  
                      _CREN 0CEC                        _SCS0 04C8                        _SCS1 04C9  
                      _SPEN 0CEF                        _TXEN 0CF5                        _SYNC 0CF4  
              __CFG_WRT$OFF 0000                        _main 06AE                        fsr0h 0005  
                      indf0 0000                        fsr0l 0004                        btemp 007E  
                      start 0002               ?_EUSART_Write 0070             __end_of___aldiv 0757  
                     ?_main 0070               __CFG_WDTE$OFF 0000                       _IRCF0 04CB  
                     _IRCF1 04CC                       _IRCF2 04CD                       _IRCF3 04CE  
                     _SPBRG 019B              __CFG_FCMEN$OFF 0000              __CFG_BOREN$OFF 0000  
                     status 0003                       wtemp0 007E                ?_internal_16 0070  
            __CFG_MCLRE$OFF 0000             __initialization 07FD                __end_of_main 06D5  
            ??_EUSART_Write 0070              __CFG_LPBOR$OFF 0000                      ??_main 007B  
            __CFG_PLLEN$OFF 0000              __CFG_ZCDDIS$ON 0000                      _RC1REG 0199  
                    _TX1REG 019A                      _SPLLEN 04CF                      _TRISC6 0476  
                    _TRISC7 0477              __CFG_PWRTE$OFF 0000                   ??___aldiv 0078  
            __CFG_STVREN$ON 0000            __end_of_initMain 06AE     __end_of__initialization 07FD  
            __pcstackCOMMON 0070        __end_of_EUSART_Write 066F                  __pmaintext 06AE  
      __size_of_internal_16 0009             __CFG_PPS1WAY$ON 0000                     _PPSLOCK 0E0F  
                 ?_initMain 0070                     ___aldiv 06D5                     __ptext1 0692  
                   __ptext2 066F                     __ptext3 0678                     __ptext4 0667  
                   __ptext5 0757                     __ptext6 06D5            ___aldiv@dividend 0074  
      end_of_initialization 07FD                  ??_initMain 0070           _EUSART_Initialize 0757  
        ?_EUSART_Initialize 0026            ___aldiv@quotient 0022                __pstringtext 0800  
        EUSART_Initialize@x 0079         ??_EUSART_Initialize 002A            __CFG_FOSC$INTOSC 0000  
                 _TRISBbits 008D       __size_of_EUSART_Write 0008                   _RXPPSbits 0E24  
 __end_of_EUSART_Initialize 07FD                _EUSART_Write 0667         start_initialization 07FD  
         _EUSART_Write_Text 0678          ?_EUSART_Write_Text 0071         ??_EUSART_Write_Text 0073  
                 ___latbits 0002               __pcstackBANK0 0020   __end_of_EUSART_Write_Text 0692  
__size_of_EUSART_Initialize 00A6               ??_internal_16 0070           __size_of_initMain 001C  
                  ?___aldiv 0070   EUSART_Initialize@baudrate 0026             ___aldiv@divisor 0070  
           ___aldiv@counter 0020                    _PIR1bits 0011         __end_of_internal_16 0678  
__size_of_EUSART_Write_Text 001A            __size_of___aldiv 0082                  _ANSELBbits 018D  
                  _initMain 0692               __size_of_main 0027                 _internal_16 066F  
                _RB2PPSbits 0E9A                  _RC1STAbits 019D           __CFG_CLKOUTEN$OFF 0000  
               _PPSLOCKbits 0E0F       EUSART_Write_Text@text 0071                ___aldiv@sign 0021  
        EUSART_Write@txData 0070          EUSART_Write_Text@i 0074  
