

Microchip MPLAB XC8 Assembler V2.46 build 20240104201356 
                                                                                               Fri Jan 30 02:10:49 2026

Microchip MPLAB XC8 C Compiler v2.46 (Free license) build 20240104201356 Og1 
     1                           	processor	16F1718
     2                           	pagewidth 120
     3                           	opt	flic
     4                           	psect	idataBANK1,global,class=CODE,delta=2,noexec
     5                           	psect	idataBANK3,global,class=CODE,delta=2,noexec
     6                           	psect	stringtext1,global,class=STRCODE,delta=2,noexec
     7                           	psect	stringtext2,global,class=STRCODE,delta=2,noexec
     8                           	psect	stringtext3,global,class=STRCODE,delta=2,noexec
     9                           	psect	stringtext4,global,class=STRCODE,delta=2,noexec
    10                           	psect	stringtext5,global,class=STRCODE,delta=2,noexec
    11                           	psect	stringtext6,global,class=STRCODE,delta=2,noexec
    12                           	psect	stringtext7,global,class=STRCODE,delta=2,noexec
    13                           	psect	stringtext8,global,class=STRCODE,delta=2,noexec
    14                           	psect	stringtext9,global,class=STRCODE,delta=2,noexec
    15                           	psect	stringtext10,global,class=STRCODE,delta=2,noexec
    16                           	psect	stringtext11,global,class=STRCODE,delta=2,noexec
    17                           	psect	stringtext12,global,class=STRCODE,delta=2,noexec
    18                           	psect	stringtext13,global,class=STRCODE,delta=2,noexec
    19                           	psect	stringtext14,global,class=STRCODE,delta=2,noexec
    20                           	psect	stringtext15,global,class=STRCODE,delta=2,noexec
    21                           	psect	stringtext16,global,class=STRCODE,delta=2,noexec
    22                           	psect	stringtext17,global,class=STRCODE,delta=2,noexec
    23                           	psect	stringtext18,global,class=STRCODE,delta=2,noexec
    24                           	psect	stringtext19,global,class=STRCODE,delta=2,noexec
    25                           	psect	stringtext20,global,class=STRCODE,delta=2,noexec
    26                           	psect	stringtext21,global,class=STRCODE,delta=2,noexec
    27                           	psect	stringtext22,global,class=STRCODE,delta=2,noexec
    28                           	psect	stringtext23,global,class=STRCODE,delta=2,noexec
    29                           	psect	stringtext24,global,class=STRCODE,delta=2,noexec
    30                           	psect	stringtext25,global,class=STRCODE,delta=2,noexec
    31                           	psect	stringtext26,global,class=STRCODE,delta=2,noexec
    32                           	psect	cinit,global,class=CODE,merge=1,delta=2
    33                           	psect	bssBANK1,global,class=BANK1,space=1,delta=1,noexec
    34                           	psect	dataBANK1,global,class=BANK1,space=1,delta=1,noexec
    35                           	psect	bssBANK2,global,class=BANK2,space=1,delta=1,noexec
    36                           	psect	dataBANK3,global,class=BANK3,space=1,delta=1,noexec
    37                           	psect	inittext,global,class=CODE,delta=2
    38                           	psect	clrtext,global,class=CODE,delta=2
    39                           	psect	cstackBANK1,global,class=BANK1,space=1,delta=1,noexec
    40                           	psect	cstackCOMMON,global,class=COMMON,space=1,delta=1,noexec
    41                           	psect	cstackBANK0,global,class=BANK0,space=1,delta=1,noexec
    42                           	psect	maintext,global,class=CODE,merge=1,split=1,delta=2
    43                           	psect	text1,local,class=CODE,merge=1,delta=2
    44                           	psect	text2,local,class=CODE,merge=1,delta=2
    45                           	psect	text3,local,class=CODE,merge=1,delta=2
    46                           	psect	text4,local,class=CODE,merge=1,delta=2,group=1
    47                           	psect	text5,local,class=CODE,merge=1,delta=2,group=1
    48                           	psect	text6,local,class=CODE,merge=1,delta=2,group=1
    49                           	psect	text7,local,class=CODE,merge=1,delta=2
    50                           	psect	text8,local,class=CODE,merge=1,delta=2
    51                           	psect	text9,local,class=CODE,merge=1,delta=2,group=1
    52                           	psect	text10,local,class=CODE,merge=1,delta=2,group=1
    53                           	psect	text11,local,class=CODE,merge=1,delta=2
    54                           	psect	text12,local,class=CODE,merge=1,delta=2
    55                           	psect	text13,local,class=CODE,merge=1,delta=2
    56                           	psect	text14,local,class=CODE,merge=1,delta=2
    57                           	psect	text15,local,class=CODE,merge=1,delta=2,group=2
    58                           	psect	text16,local,class=CODE,merge=1,delta=2,group=2
    59                           	psect	text17,local,class=CODE,merge=1,delta=2,group=2
    60                           	psect	text18,local,class=CODE,merge=1,delta=2,group=2
    61                           	psect	text19,local,class=CODE,merge=1,delta=2,group=2
    62                           	psect	text20,local,class=CODE,merge=1,delta=2,group=1
    63                           	psect	text21,local,class=CODE,merge=1,delta=2,group=1
    64                           	psect	text22,local,class=CODE,merge=1,delta=2,group=1
    65                           	psect	text23,local,class=CODE,merge=1,delta=2,group=1
    66                           	psect	text24,local,class=CODE,merge=1,delta=2,group=1
    67                           	psect	text25,local,class=CODE,merge=1,delta=2,group=1
    68                           	psect	text26,local,class=CODE,merge=1,delta=2,group=1
    69                           	psect	text27,local,class=CODE,merge=1,delta=2,group=1
    70                           	psect	text28,local,class=CODE,merge=1,delta=2,group=1
    71                           	psect	text29,local,class=CODE,merge=1,delta=2,group=2
    72                           	psect	text30,local,class=CODE,merge=1,delta=2,group=2
    73                           	psect	text31,local,class=CODE,merge=1,delta=2
    74                           	psect	text32,local,class=CODE,merge=1,delta=2
    75                           	psect	text33,local,class=CODE,merge=1,delta=2
    76                           	psect	text34,local,class=CODE,merge=1,delta=2
    77                           	psect	text35,local,class=CODE,merge=1,delta=2,group=1
    78                           	psect	config,global,abs,ovrld,class=CONFIG,space=4,delta=2,noexec
    79                           	dabs	1,0x7E,2
    80     0000                     
    81                           ; Generated 07/09/2023 GMT
    82                           ; 
    83                           ; Copyright © 2023, Microchip Technology Inc. and its subsidiaries ("Microchip")
    84                           ; All rights reserved.
    85                           ; 
    86                           ; This software is developed by Microchip Technology Inc. and its subsidiaries ("Microch
      +                          ip").
    87                           ; 
    88                           ; Redistribution and use in source and binary forms, with or without modification, are
    89                           ; permitted provided that the following conditions are met:
    90                           ; 
    91                           ;     1. Redistributions of source code must retain the above copyright notice, this lis
      +                          t of
    92                           ;        conditions and the following disclaimer.
    93                           ; 
    94                           ;     2. Redistributions in binary form must reproduce the above copyright notice, this 
      +                          list
    95                           ;        of conditions and the following disclaimer in the documentation and/or other
    96                           ;        materials provided with the distribution. Publication is not required when
    97                           ;        this file is used in an embedded application.
    98                           ; 
    99                           ;     3. Microchip's name may not be used to endorse or promote products derived from th
      +                          is
   100                           ;        software without specific prior written permission.
   101                           ; 
   102                           ; THIS SOFTWARE IS PROVIDED BY MICROCHIP "AS IS" AND ANY EXPRESS OR IMPLIED WARRANTIES,
   103                           ; INCLUDING, BUT NOT LIMITED TO, THE IMPLIED WARRANTIES OF MERCHANTABILITY AND FITNESS F
      +                          OR
   104                           ; PURPOSE ARE DISCLAIMED.  IN NO EVENT SHALL MICROCHIP BE LIABLE FOR ANY DIRECT, INDIREC
      +                          T,
   105                           ; INCIDENTAL, SPECIAL, EXEMPLARY, OR CONSEQUENTIAL DAMAGES (INCLUDING BUT NOT LIMITED TO
   106                           ; PROCUREMENT OF SUBSTITUTE GOODS OR SERVICES; LOSS OF USE, DATA OR PROFITS; OR BUSINESS
   107                           ; INTERRUPTION) HOWSOEVER CAUSED AND ON ANY THEORY OF LIABILITY, WHETHER IN CONTRACT, ST
      +                          RICT
   108                           ; LIABILITY, OR TORT (INCLUDING NEGLIGENCE OR OTHERWISE) ARISING IN ANY WAY OUT OF THE U
      +                          SE OF
   109                           ; THIS SOFTWARE, EVEN IF ADVISED OF THE POSSIBILITY OF SUCH DAMAGE.
   110                           ; 
   111                           ; 
   112                           ; Code-generator required, PIC16F1718 Definitions
   113                           ; 
   114                           ; SFR Addresses
   115     0000                     	;# 
   116     0001                     	;# 
   117     0002                     	;# 
   118     0003                     	;# 
   119     0004                     	;# 
   120     0005                     	;# 
   121     0006                     	;# 
   122     0007                     	;# 
   123     0008                     	;# 
   124     0009                     	;# 
   125     000A                     	;# 
   126     000B                     	;# 
   127     000C                     	;# 
   128     000D                     	;# 
   129     000E                     	;# 
   130     0010                     	;# 
   131     0011                     	;# 
   132     0012                     	;# 
   133     0013                     	;# 
   134     0015                     	;# 
   135     0016                     	;# 
   136     0016                     	;# 
   137     0017                     	;# 
   138     0018                     	;# 
   139     0019                     	;# 
   140     001A                     	;# 
   141     001B                     	;# 
   142     001C                     	;# 
   143     008C                     	;# 
   144     008D                     	;# 
   145     008E                     	;# 
   146     0090                     	;# 
   147     0091                     	;# 
   148     0092                     	;# 
   149     0093                     	;# 
   150     0095                     	;# 
   151     0096                     	;# 
   152     0097                     	;# 
   153     0098                     	;# 
   154     0099                     	;# 
   155     009A                     	;# 
   156     009B                     	;# 
   157     009B                     	;# 
   158     009C                     	;# 
   159     009D                     	;# 
   160     009E                     	;# 
   161     009F                     	;# 
   162     010C                     	;# 
   163     010D                     	;# 
   164     010E                     	;# 
   165     0111                     	;# 
   166     0112                     	;# 
   167     0113                     	;# 
   168     0114                     	;# 
   169     0115                     	;# 
   170     0116                     	;# 
   171     0117                     	;# 
   172     0118                     	;# 
   173     0119                     	;# 
   174     011A                     	;# 
   175     011B                     	;# 
   176     011B                     	;# 
   177     011C                     	;# 
   178     018C                     	;# 
   179     018D                     	;# 
   180     018E                     	;# 
   181     0191                     	;# 
   182     0191                     	;# 
   183     0192                     	;# 
   184     0193                     	;# 
   185     0193                     	;# 
   186     0194                     	;# 
   187     0195                     	;# 
   188     0196                     	;# 
   189     0197                     	;# 
   190     0199                     	;# 
   191     0199                     	;# 
   192     0199                     	;# 
   193     019A                     	;# 
   194     019A                     	;# 
   195     019A                     	;# 
   196     019B                     	;# 
   197     019B                     	;# 
   198     019B                     	;# 
   199     019B                     	;# 
   200     019B                     	;# 
   201     019C                     	;# 
   202     019C                     	;# 
   203     019C                     	;# 
   204     019D                     	;# 
   205     019D                     	;# 
   206     019D                     	;# 
   207     019E                     	;# 
   208     019E                     	;# 
   209     019E                     	;# 
   210     019F                     	;# 
   211     019F                     	;# 
   212     019F                     	;# 
   213     019F                     	;# 
   214     019F                     	;# 
   215     020C                     	;# 
   216     020D                     	;# 
   217     020E                     	;# 
   218     0210                     	;# 
   219     0211                     	;# 
   220     0211                     	;# 
   221     0212                     	;# 
   222     0212                     	;# 
   223     0213                     	;# 
   224     0213                     	;# 
   225     0214                     	;# 
   226     0214                     	;# 
   227     0215                     	;# 
   228     0215                     	;# 
   229     0215                     	;# 
   230     0215                     	;# 
   231     0216                     	;# 
   232     0216                     	;# 
   233     0217                     	;# 
   234     0217                     	;# 
   235     028C                     	;# 
   236     028D                     	;# 
   237     028E                     	;# 
   238     0291                     	;# 
   239     0291                     	;# 
   240     0292                     	;# 
   241     0293                     	;# 
   242     0293                     	;# 
   243     0298                     	;# 
   244     0298                     	;# 
   245     0299                     	;# 
   246     029A                     	;# 
   247     029A                     	;# 
   248     029E                     	;# 
   249     030C                     	;# 
   250     030D                     	;# 
   251     030E                     	;# 
   252     038C                     	;# 
   253     038D                     	;# 
   254     038E                     	;# 
   255     0390                     	;# 
   256     0391                     	;# 
   257     0392                     	;# 
   258     0393                     	;# 
   259     0394                     	;# 
   260     0395                     	;# 
   261     0396                     	;# 
   262     0397                     	;# 
   263     0398                     	;# 
   264     0399                     	;# 
   265     039D                     	;# 
   266     039E                     	;# 
   267     039F                     	;# 
   268     0415                     	;# 
   269     0416                     	;# 
   270     0417                     	;# 
   271     041C                     	;# 
   272     041D                     	;# 
   273     041E                     	;# 
   274     0498                     	;# 
   275     0498                     	;# 
   276     0499                     	;# 
   277     049A                     	;# 
   278     049B                     	;# 
   279     049B                     	;# 
   280     049C                     	;# 
   281     049D                     	;# 
   282     049E                     	;# 
   283     049F                     	;# 
   284     0511                     	;# 
   285     0515                     	;# 
   286     0617                     	;# 
   287     0618                     	;# 
   288     0619                     	;# 
   289     0619                     	;# 
   290     061A                     	;# 
   291     061B                     	;# 
   292     061C                     	;# 
   293     061C                     	;# 
   294     0691                     	;# 
   295     0692                     	;# 
   296     0693                     	;# 
   297     0694                     	;# 
   298     0695                     	;# 
   299     0696                     	;# 
   300     0697                     	;# 
   301     0698                     	;# 
   302     0699                     	;# 
   303     069A                     	;# 
   304     069B                     	;# 
   305     069C                     	;# 
   306     069D                     	;# 
   307     069E                     	;# 
   308     069F                     	;# 
   309     0E0F                     	;# 
   310     0E10                     	;# 
   311     0E11                     	;# 
   312     0E12                     	;# 
   313     0E13                     	;# 
   314     0E14                     	;# 
   315     0E15                     	;# 
   316     0E17                     	;# 
   317     0E20                     	;# 
   318     0E21                     	;# 
   319     0E22                     	;# 
   320     0E24                     	;# 
   321     0E25                     	;# 
   322     0E28                     	;# 
   323     0E29                     	;# 
   324     0E2A                     	;# 
   325     0E2B                     	;# 
   326     0E90                     	;# 
   327     0E91                     	;# 
   328     0E92                     	;# 
   329     0E93                     	;# 
   330     0E94                     	;# 
   331     0E95                     	;# 
   332     0E96                     	;# 
   333     0E97                     	;# 
   334     0E98                     	;# 
   335     0E99                     	;# 
   336     0E9A                     	;# 
   337     0E9B                     	;# 
   338     0E9C                     	;# 
   339     0E9D                     	;# 
   340     0E9E                     	;# 
   341     0E9F                     	;# 
   342     0EA0                     	;# 
   343     0EA1                     	;# 
   344     0EA2                     	;# 
   345     0EA3                     	;# 
   346     0EA4                     	;# 
   347     0EA5                     	;# 
   348     0EA6                     	;# 
   349     0EA7                     	;# 
   350     0F0F                     	;# 
   351     0F10                     	;# 
   352     0F11                     	;# 
   353     0F12                     	;# 
   354     0F13                     	;# 
   355     0F14                     	;# 
   356     0F15                     	;# 
   357     0F16                     	;# 
   358     0F17                     	;# 
   359     0F18                     	;# 
   360     0F19                     	;# 
   361     0F1A                     	;# 
   362     0F1B                     	;# 
   363     0F1C                     	;# 
   364     0F1D                     	;# 
   365     0F1E                     	;# 
   366     0F1F                     	;# 
   367     0F20                     	;# 
   368     0F21                     	;# 
   369     0F22                     	;# 
   370     0F23                     	;# 
   371     0F24                     	;# 
   372     0F25                     	;# 
   373     0F26                     	;# 
   374     0F27                     	;# 
   375     0F28                     	;# 
   376     0F29                     	;# 
   377     0F2A                     	;# 
   378     0F2B                     	;# 
   379     0F2C                     	;# 
   380     0F2D                     	;# 
   381     0F2E                     	;# 
   382     0F2F                     	;# 
   383     0F30                     	;# 
   384     0F31                     	;# 
   385     0F32                     	;# 
   386     0F33                     	;# 
   387     0F34                     	;# 
   388     0F35                     	;# 
   389     0F36                     	;# 
   390     0F37                     	;# 
   391     0FE4                     	;# 
   392     0FE5                     	;# 
   393     0FE6                     	;# 
   394     0FE7                     	;# 
   395     0FE8                     	;# 
   396     0FE9                     	;# 
   397     0FEA                     	;# 
   398     0FEB                     	;# 
   399     0FED                     	;# 
   400     0FEE                     	;# 
   401     0FEF                     	;# 
   402     0000                     	;# 
   403     0001                     	;# 
   404     0002                     	;# 
   405     0003                     	;# 
   406     0004                     	;# 
   407     0005                     	;# 
   408     0006                     	;# 
   409     0007                     	;# 
   410     0008                     	;# 
   411     0009                     	;# 
   412     000A                     	;# 
   413     000B                     	;# 
   414     000C                     	;# 
   415     000D                     	;# 
   416     000E                     	;# 
   417     0010                     	;# 
   418     0011                     	;# 
   419     0012                     	;# 
   420     0013                     	;# 
   421     0015                     	;# 
   422     0016                     	;# 
   423     0016                     	;# 
   424     0017                     	;# 
   425     0018                     	;# 
   426     0019                     	;# 
   427     001A                     	;# 
   428     001B                     	;# 
   429     001C                     	;# 
   430     008C                     	;# 
   431     008D                     	;# 
   432     008E                     	;# 
   433     0090                     	;# 
   434     0091                     	;# 
   435     0092                     	;# 
   436     0093                     	;# 
   437     0095                     	;# 
   438     0096                     	;# 
   439     0097                     	;# 
   440     0098                     	;# 
   441     0099                     	;# 
   442     009A                     	;# 
   443     009B                     	;# 
   444     009B                     	;# 
   445     009C                     	;# 
   446     009D                     	;# 
   447     009E                     	;# 
   448     009F                     	;# 
   449     010C                     	;# 
   450     010D                     	;# 
   451     010E                     	;# 
   452     0111                     	;# 
   453     0112                     	;# 
   454     0113                     	;# 
   455     0114                     	;# 
   456     0115                     	;# 
   457     0116                     	;# 
   458     0117                     	;# 
   459     0118                     	;# 
   460     0119                     	;# 
   461     011A                     	;# 
   462     011B                     	;# 
   463     011B                     	;# 
   464     011C                     	;# 
   465     018C                     	;# 
   466     018D                     	;# 
   467     018E                     	;# 
   468     0191                     	;# 
   469     0191                     	;# 
   470     0192                     	;# 
   471     0193                     	;# 
   472     0193                     	;# 
   473     0194                     	;# 
   474     0195                     	;# 
   475     0196                     	;# 
   476     0197                     	;# 
   477     0199                     	;# 
   478     0199                     	;# 
   479     0199                     	;# 
   480     019A                     	;# 
   481     019A                     	;# 
   482     019A                     	;# 
   483     019B                     	;# 
   484     019B                     	;# 
   485     019B                     	;# 
   486     019B                     	;# 
   487     019B                     	;# 
   488     019C                     	;# 
   489     019C                     	;# 
   490     019C                     	;# 
   491     019D                     	;# 
   492     019D                     	;# 
   493     019D                     	;# 
   494     019E                     	;# 
   495     019E                     	;# 
   496     019E                     	;# 
   497     019F                     	;# 
   498     019F                     	;# 
   499     019F                     	;# 
   500     019F                     	;# 
   501     019F                     	;# 
   502     020C                     	;# 
   503     020D                     	;# 
   504     020E                     	;# 
   505     0210                     	;# 
   506     0211                     	;# 
   507     0211                     	;# 
   508     0212                     	;# 
   509     0212                     	;# 
   510     0213                     	;# 
   511     0213                     	;# 
   512     0214                     	;# 
   513     0214                     	;# 
   514     0215                     	;# 
   515     0215                     	;# 
   516     0215                     	;# 
   517     0215                     	;# 
   518     0216                     	;# 
   519     0216                     	;# 
   520     0217                     	;# 
   521     0217                     	;# 
   522     028C                     	;# 
   523     028D                     	;# 
   524     028E                     	;# 
   525     0291                     	;# 
   526     0291                     	;# 
   527     0292                     	;# 
   528     0293                     	;# 
   529     0293                     	;# 
   530     0298                     	;# 
   531     0298                     	;# 
   532     0299                     	;# 
   533     029A                     	;# 
   534     029A                     	;# 
   535     029E                     	;# 
   536     030C                     	;# 
   537     030D                     	;# 
   538     030E                     	;# 
   539     038C                     	;# 
   540     038D                     	;# 
   541     038E                     	;# 
   542     0390                     	;# 
   543     0391                     	;# 
   544     0392                     	;# 
   545     0393                     	;# 
   546     0394                     	;# 
   547     0395                     	;# 
   548     0396                     	;# 
   549     0397                     	;# 
   550     0398                     	;# 
   551     0399                     	;# 
   552     039D                     	;# 
   553     039E                     	;# 
   554     039F                     	;# 
   555     0415                     	;# 
   556     0416                     	;# 
   557     0417                     	;# 
   558     041C                     	;# 
   559     041D                     	;# 
   560     041E                     	;# 
   561     0498                     	;# 
   562     0498                     	;# 
   563     0499                     	;# 
   564     049A                     	;# 
   565     049B                     	;# 
   566     049B                     	;# 
   567     049C                     	;# 
   568     049D                     	;# 
   569     049E                     	;# 
   570     049F                     	;# 
   571     0511                     	;# 
   572     0515                     	;# 
   573     0617                     	;# 
   574     0618                     	;# 
   575     0619                     	;# 
   576     0619                     	;# 
   577     061A                     	;# 
   578     061B                     	;# 
   579     061C                     	;# 
   580     061C                     	;# 
   581     0691                     	;# 
   582     0692                     	;# 
   583     0693                     	;# 
   584     0694                     	;# 
   585     0695                     	;# 
   586     0696                     	;# 
   587     0697                     	;# 
   588     0698                     	;# 
   589     0699                     	;# 
   590     069A                     	;# 
   591     069B                     	;# 
   592     069C                     	;# 
   593     069D                     	;# 
   594     069E                     	;# 
   595     069F                     	;# 
   596     0E0F                     	;# 
   597     0E10                     	;# 
   598     0E11                     	;# 
   599     0E12                     	;# 
   600     0E13                     	;# 
   601     0E14                     	;# 
   602     0E15                     	;# 
   603     0E17                     	;# 
   604     0E20                     	;# 
   605     0E21                     	;# 
   606     0E22                     	;# 
   607     0E24                     	;# 
   608     0E25                     	;# 
   609     0E28                     	;# 
   610     0E29                     	;# 
   611     0E2A                     	;# 
   612     0E2B                     	;# 
   613     0E90                     	;# 
   614     0E91                     	;# 
   615     0E92                     	;# 
   616     0E93                     	;# 
   617     0E94                     	;# 
   618     0E95                     	;# 
   619     0E96                     	;# 
   620     0E97                     	;# 
   621     0E98                     	;# 
   622     0E99                     	;# 
   623     0E9A                     	;# 
   624     0E9B                     	;# 
   625     0E9C                     	;# 
   626     0E9D                     	;# 
   627     0E9E                     	;# 
   628     0E9F                     	;# 
   629     0EA0                     	;# 
   630     0EA1                     	;# 
   631     0EA2                     	;# 
   632     0EA3                     	;# 
   633     0EA4                     	;# 
   634     0EA5                     	;# 
   635     0EA6                     	;# 
   636     0EA7                     	;# 
   637     0F0F                     	;# 
   638     0F10                     	;# 
   639     0F11                     	;# 
   640     0F12                     	;# 
   641     0F13                     	;# 
   642     0F14                     	;# 
   643     0F15                     	;# 
   644     0F16                     	;# 
   645     0F17                     	;# 
   646     0F18                     	;# 
   647     0F19                     	;# 
   648     0F1A                     	;# 
   649     0F1B                     	;# 
   650     0F1C                     	;# 
   651     0F1D                     	;# 
   652     0F1E                     	;# 
   653     0F1F                     	;# 
   654     0F20                     	;# 
   655     0F21                     	;# 
   656     0F22                     	;# 
   657     0F23                     	;# 
   658     0F24                     	;# 
   659     0F25                     	;# 
   660     0F26                     	;# 
   661     0F27                     	;# 
   662     0F28                     	;# 
   663     0F29                     	;# 
   664     0F2A                     	;# 
   665     0F2B                     	;# 
   666     0F2C                     	;# 
   667     0F2D                     	;# 
   668     0F2E                     	;# 
   669     0F2F                     	;# 
   670     0F30                     	;# 
   671     0F31                     	;# 
   672     0F32                     	;# 
   673     0F33                     	;# 
   674     0F34                     	;# 
   675     0F35                     	;# 
   676     0F36                     	;# 
   677     0F37                     	;# 
   678     0FE4                     	;# 
   679     0FE5                     	;# 
   680     0FE6                     	;# 
   681     0FE7                     	;# 
   682     0FE8                     	;# 
   683     0FE9                     	;# 
   684     0FEA                     	;# 
   685     0FEB                     	;# 
   686     0FED                     	;# 
   687     0FEE                     	;# 
   688     0FEF                     	;# 
   689     0000                     	;# 
   690     0001                     	;# 
   691     0002                     	;# 
   692     0003                     	;# 
   693     0004                     	;# 
   694     0005                     	;# 
   695     0006                     	;# 
   696     0007                     	;# 
   697     0008                     	;# 
   698     0009                     	;# 
   699     000A                     	;# 
   700     000B                     	;# 
   701     000C                     	;# 
   702     000D                     	;# 
   703     000E                     	;# 
   704     0010                     	;# 
   705     0011                     	;# 
   706     0012                     	;# 
   707     0013                     	;# 
   708     0015                     	;# 
   709     0016                     	;# 
   710     0016                     	;# 
   711     0017                     	;# 
   712     0018                     	;# 
   713     0019                     	;# 
   714     001A                     	;# 
   715     001B                     	;# 
   716     001C                     	;# 
   717     008C                     	;# 
   718     008D                     	;# 
   719     008E                     	;# 
   720     0090                     	;# 
   721     0091                     	;# 
   722     0092                     	;# 
   723     0093                     	;# 
   724     0095                     	;# 
   725     0096                     	;# 
   726     0097                     	;# 
   727     0098                     	;# 
   728     0099                     	;# 
   729     009A                     	;# 
   730     009B                     	;# 
   731     009B                     	;# 
   732     009C                     	;# 
   733     009D                     	;# 
   734     009E                     	;# 
   735     009F                     	;# 
   736     010C                     	;# 
   737     010D                     	;# 
   738     010E                     	;# 
   739     0111                     	;# 
   740     0112                     	;# 
   741     0113                     	;# 
   742     0114                     	;# 
   743     0115                     	;# 
   744     0116                     	;# 
   745     0117                     	;# 
   746     0118                     	;# 
   747     0119                     	;# 
   748     011A                     	;# 
   749     011B                     	;# 
   750     011B                     	;# 
   751     011C                     	;# 
   752     018C                     	;# 
   753     018D                     	;# 
   754     018E                     	;# 
   755     0191                     	;# 
   756     0191                     	;# 
   757     0192                     	;# 
   758     0193                     	;# 
   759     0193                     	;# 
   760     0194                     	;# 
   761     0195                     	;# 
   762     0196                     	;# 
   763     0197                     	;# 
   764     0199                     	;# 
   765     0199                     	;# 
   766     0199                     	;# 
   767     019A                     	;# 
   768     019A                     	;# 
   769     019A                     	;# 
   770     019B                     	;# 
   771     019B                     	;# 
   772     019B                     	;# 
   773     019B                     	;# 
   774     019B                     	;# 
   775     019C                     	;# 
   776     019C                     	;# 
   777     019C                     	;# 
   778     019D                     	;# 
   779     019D                     	;# 
   780     019D                     	;# 
   781     019E                     	;# 
   782     019E                     	;# 
   783     019E                     	;# 
   784     019F                     	;# 
   785     019F                     	;# 
   786     019F                     	;# 
   787     019F                     	;# 
   788     019F                     	;# 
   789     020C                     	;# 
   790     020D                     	;# 
   791     020E                     	;# 
   792     0210                     	;# 
   793     0211                     	;# 
   794     0211                     	;# 
   795     0212                     	;# 
   796     0212                     	;# 
   797     0213                     	;# 
   798     0213                     	;# 
   799     0214                     	;# 
   800     0214                     	;# 
   801     0215                     	;# 
   802     0215                     	;# 
   803     0215                     	;# 
   804     0215                     	;# 
   805     0216                     	;# 
   806     0216                     	;# 
   807     0217                     	;# 
   808     0217                     	;# 
   809     028C                     	;# 
   810     028D                     	;# 
   811     028E                     	;# 
   812     0291                     	;# 
   813     0291                     	;# 
   814     0292                     	;# 
   815     0293                     	;# 
   816     0293                     	;# 
   817     0298                     	;# 
   818     0298                     	;# 
   819     0299                     	;# 
   820     029A                     	;# 
   821     029A                     	;# 
   822     029E                     	;# 
   823     030C                     	;# 
   824     030D                     	;# 
   825     030E                     	;# 
   826     038C                     	;# 
   827     038D                     	;# 
   828     038E                     	;# 
   829     0390                     	;# 
   830     0391                     	;# 
   831     0392                     	;# 
   832     0393                     	;# 
   833     0394                     	;# 
   834     0395                     	;# 
   835     0396                     	;# 
   836     0397                     	;# 
   837     0398                     	;# 
   838     0399                     	;# 
   839     039D                     	;# 
   840     039E                     	;# 
   841     039F                     	;# 
   842     0415                     	;# 
   843     0416                     	;# 
   844     0417                     	;# 
   845     041C                     	;# 
   846     041D                     	;# 
   847     041E                     	;# 
   848     0498                     	;# 
   849     0498                     	;# 
   850     0499                     	;# 
   851     049A                     	;# 
   852     049B                     	;# 
   853     049B                     	;# 
   854     049C                     	;# 
   855     049D                     	;# 
   856     049E                     	;# 
   857     049F                     	;# 
   858     0511                     	;# 
   859     0515                     	;# 
   860     0617                     	;# 
   861     0618                     	;# 
   862     0619                     	;# 
   863     0619                     	;# 
   864     061A                     	;# 
   865     061B                     	;# 
   866     061C                     	;# 
   867     061C                     	;# 
   868     0691                     	;# 
   869     0692                     	;# 
   870     0693                     	;# 
   871     0694                     	;# 
   872     0695                     	;# 
   873     0696                     	;# 
   874     0697                     	;# 
   875     0698                     	;# 
   876     0699                     	;# 
   877     069A                     	;# 
   878     069B                     	;# 
   879     069C                     	;# 
   880     069D                     	;# 
   881     069E                     	;# 
   882     069F                     	;# 
   883     0E0F                     	;# 
   884     0E10                     	;# 
   885     0E11                     	;# 
   886     0E12                     	;# 
   887     0E13                     	;# 
   888     0E14                     	;# 
   889     0E15                     	;# 
   890     0E17                     	;# 
   891     0E20                     	;# 
   892     0E21                     	;# 
   893     0E22                     	;# 
   894     0E24                     	;# 
   895     0E25                     	;# 
   896     0E28                     	;# 
   897     0E29                     	;# 
   898     0E2A                     	;# 
   899     0E2B                     	;# 
   900     0E90                     	;# 
   901     0E91                     	;# 
   902     0E92                     	;# 
   903     0E93                     	;# 
   904     0E94                     	;# 
   905     0E95                     	;# 
   906     0E96                     	;# 
   907     0E97                     	;# 
   908     0E98                     	;# 
   909     0E99                     	;# 
   910     0E9A                     	;# 
   911     0E9B                     	;# 
   912     0E9C                     	;# 
   913     0E9D                     	;# 
   914     0E9E                     	;# 
   915     0E9F                     	;# 
   916     0EA0                     	;# 
   917     0EA1                     	;# 
   918     0EA2                     	;# 
   919     0EA3                     	;# 
   920     0EA4                     	;# 
   921     0EA5                     	;# 
   922     0EA6                     	;# 
   923     0EA7                     	;# 
   924     0F0F                     	;# 
   925     0F10                     	;# 
   926     0F11                     	;# 
   927     0F12                     	;# 
   928     0F13                     	;# 
   929     0F14                     	;# 
   930     0F15                     	;# 
   931     0F16                     	;# 
   932     0F17                     	;# 
   933     0F18                     	;# 
   934     0F19                     	;# 
   935     0F1A                     	;# 
   936     0F1B                     	;# 
   937     0F1C                     	;# 
   938     0F1D                     	;# 
   939     0F1E                     	;# 
   940     0F1F                     	;# 
   941     0F20                     	;# 
   942     0F21                     	;# 
   943     0F22                     	;# 
   944     0F23                     	;# 
   945     0F24                     	;# 
   946     0F25                     	;# 
   947     0F26                     	;# 
   948     0F27                     	;# 
   949     0F28                     	;# 
   950     0F29                     	;# 
   951     0F2A                     	;# 
   952     0F2B                     	;# 
   953     0F2C                     	;# 
   954     0F2D                     	;# 
   955     0F2E                     	;# 
   956     0F2F                     	;# 
   957     0F30                     	;# 
   958     0F31                     	;# 
   959     0F32                     	;# 
   960     0F33                     	;# 
   961     0F34                     	;# 
   962     0F35                     	;# 
   963     0F36                     	;# 
   964     0F37                     	;# 
   965     0FE4                     	;# 
   966     0FE5                     	;# 
   967     0FE6                     	;# 
   968     0FE7                     	;# 
   969     0FE8                     	;# 
   970     0FE9                     	;# 
   971     0FEA                     	;# 
   972     0FEB                     	;# 
   973     0FED                     	;# 
   974     0FEE                     	;# 
   975     0FEF                     	;# 
   976                           
   977                           	psect	idataBANK1
   978     0802                     __pidataBANK1:
   979                           
   980                           ;initializer for _class_names
   981     0802  34E9               	retlw	low (STR_1| (0+32768))
   982     0803  34A0               	retlw	high (STR_1| (0+32768))
   983     0804  349D               	retlw	low (STR_2| (0+32768))
   984     0805  34A0               	retlw	high (STR_2| (0+32768))
   985     0806  34BC               	retlw	low (STR_3| (0+32768))
   986     0807  34A0               	retlw	high (STR_3| (0+32768))
   987                           
   988                           	psect	idataBANK3
   989     101C                     __pidataBANK3:
   990                           
   991                           ;initializer for run_demo@F6251
   992     101C  3433               	retlw	51
   993     101D  3433               	retlw	51
   994     101E  34A3               	retlw	163
   995     101F  3440               	retlw	64
   996     1020  3400               	retlw	0
   997     1021  3400               	retlw	0
   998     1022  3460               	retlw	96
   999     1023  3440               	retlw	64
  1000     1024  3433               	retlw	51
  1001     1025  3433               	retlw	51
  1002     1026  34B3               	retlw	179
  1003     1027  343F               	retlw	63
  1004     1028  34CD               	retlw	205
  1005     1029  34CC               	retlw	204
  1006     102A  344C               	retlw	76
  1007     102B  343E               	retlw	62
  1008     102C  3400               	retlw	0
  1009     102D  3400               	retlw	0
  1010     102E  34C0               	retlw	192
  1011     102F  3440               	retlw	64
  1012     1030  349A               	retlw	154
  1013     1031  3499               	retlw	153
  1014     1032  3439               	retlw	57
  1015     1033  3440               	retlw	64
  1016     1034  3400               	retlw	0
  1017     1035  3400               	retlw	0
  1018     1036  3490               	retlw	144
  1019     1037  3440               	retlw	64
  1020     1038  3400               	retlw	0
  1021     1039  3400               	retlw	0
  1022     103A  34C0               	retlw	192
  1023     103B  343F               	retlw	63
  1024     103C  349A               	retlw	154
  1025     103D  3499               	retlw	153
  1026     103E  34C9               	retlw	201
  1027     103F  3440               	retlw	64
  1028     1040  3433               	retlw	51
  1029     1041  3433               	retlw	51
  1030     1042  3453               	retlw	83
  1031     1043  3440               	retlw	64
  1032     1044  3400               	retlw	0
  1033     1045  3400               	retlw	0
  1034     1046  34C0               	retlw	192
  1035     1047  3440               	retlw	64
  1036     1048  3400               	retlw	0
  1037     1049  3400               	retlw	0
  1038     104A  3420               	retlw	32
  1039     104B  3440               	retlw	64
  1040     0011                     _PIR1bits	set	17
  1041     008D                     _TRISBbits	set	141
  1042     04CF                     _SPLLEN	set	1231
  1043     04CE                     _IRCF3	set	1230
  1044     04CD                     _IRCF2	set	1229
  1045     04CC                     _IRCF1	set	1228
  1046     04CB                     _IRCF0	set	1227
  1047     04C9                     _SCS1	set	1225
  1048     04C8                     _SCS0	set	1224
  1049     018D                     _ANSELBbits	set	397
  1050     019A                     _TX1REG	set	410
  1051     0199                     _RC1REG	set	409
  1052     019D                     _RC1STAbits	set	413
  1053     019B                     _SPBRGL	set	411
  1054     0CF5                     _TXEN	set	3317
  1055     0CEC                     _CREN	set	3308
  1056     0CEF                     _SPEN	set	3311
  1057     0CF4                     _SYNC	set	3316
  1058     0CFB                     _BRG16	set	3323
  1059     0CF2                     _BRGH	set	3314
  1060     0E24                     _RXPPSbits	set	3620
  1061     0E0F                     _PPSLOCKbits	set	3599
  1062     0E0F                     _PPSLOCK	set	3599
  1063     0E9A                     _RB2PPSbits	set	3738
  1064                           
  1065                           	psect	stringtext1
  1066     2000                     __pstringtext1:
  1067     2000                     STR_20:
  1068     2000  3420               	retlw	32	;' '
  1069     2001  3420               	retlw	32	;' '
  1070     2002  344F               	retlw	79	;'O'
  1071     2003  3472               	retlw	114	;'r'
  1072     2004  3420               	retlw	32	;' '
  1073     2005  3473               	retlw	115	;'s'
  1074     2006  3465               	retlw	101	;'e'
  1075     2007  346E               	retlw	110	;'n'
  1076     2008  3464               	retlw	100	;'d'
  1077     2009  343A               	retlw	58	;':'
  1078     200A  3420               	retlw	32	;' '
  1079     200B  3435               	retlw	53	;'5'
  1080     200C  342E               	retlw	46	;'.'
  1081     200D  3431               	retlw	49	;'1'
  1082     200E  342C               	retlw	44	;','
  1083     200F  3433               	retlw	51	;'3'
  1084     2010  342E               	retlw	46	;'.'
  1085     2011  3435               	retlw	53	;'5'
  1086     2012  342C               	retlw	44	;','
  1087     2013  3431               	retlw	49	;'1'
  1088     2014  342E               	retlw	46	;'.'
  1089     2015  3434               	retlw	52	;'4'
  1090     2016  342C               	retlw	44	;','
  1091     2017  3430               	retlw	48	;'0'
  1092     2018  342E               	retlw	46	;'.'
  1093     2019  3432               	retlw	50	;'2'
  1094     201A  340D               	retlw	13
  1095     201B  340A               	retlw	10
  1096     201C  3400               	retlw	0
  1097                           
  1098                           	psect	stringtext2
  1099     201D                     __pstringtext2:
  1100     201D                     STR_15:
  1101     201D  343D               	retlw	61	;'='
  1102     201E  343D               	retlw	61	;'='
  1103     201F  343D               	retlw	61	;'='
  1104     2020  343D               	retlw	61	;'='
  1105     2021  343D               	retlw	61	;'='
  1106     2022  343D               	retlw	61	;'='
  1107     2023  343D               	retlw	61	;'='
  1108     2024  343D               	retlw	61	;'='
  1109     2025  343D               	retlw	61	;'='
  1110     2026  343D               	retlw	61	;'='
  1111     2027  343D               	retlw	61	;'='
  1112     2028  343D               	retlw	61	;'='
  1113     2029  343D               	retlw	61	;'='
  1114     202A  343D               	retlw	61	;'='
  1115     202B  343D               	retlw	61	;'='
  1116     202C  343D               	retlw	61	;'='
  1117     202D  343D               	retlw	61	;'='
  1118     202E  343D               	retlw	61	;'='
  1119     202F  343D               	retlw	61	;'='
  1120     2030  343D               	retlw	61	;'='
  1121     2031  343D               	retlw	61	;'='
  1122     2032  343D               	retlw	61	;'='
  1123     2033  343D               	retlw	61	;'='
  1124     2034  343D               	retlw	61	;'='
  1125     2035  343D               	retlw	61	;'='
  1126     2036  340D               	retlw	13
  1127     2037  340A               	retlw	10
  1128     2038  3400               	retlw	0
  1129                           
  1130                           	psect	stringtext3
  1131     2039                     __pstringtext3:
  1132     2039                     STR_16:
  1133     2039  3420               	retlw	32	;' '
  1134     203A  3450               	retlw	80	;'P'
  1135     203B  3449               	retlw	73	;'I'
  1136     203C  3443               	retlw	67	;'C'
  1137     203D  3431               	retlw	49	;'1'
  1138     203E  3436               	retlw	54	;'6'
  1139     203F  3420               	retlw	32	;' '
  1140     2040  344D               	retlw	77	;'M'
  1141     2041  344C               	retlw	76	;'L'
  1142     2042  3420               	retlw	32	;' '
  1143     2043  3443               	retlw	67	;'C'
  1144     2044  346C               	retlw	108	;'l'
  1145     2045  3461               	retlw	97	;'a'
  1146     2046  3473               	retlw	115	;'s'
  1147     2047  3473               	retlw	115	;'s'
  1148     2048  3469               	retlw	105	;'i'
  1149     2049  3466               	retlw	102	;'f'
  1150     204A  3469               	retlw	105	;'i'
  1151     204B  3465               	retlw	101	;'e'
  1152     204C  3472               	retlw	114	;'r'
  1153     204D  340D               	retlw	13
  1154     204E  340A               	retlw	10
  1155     204F  3400               	retlw	0
  1156                           
  1157                           	psect	stringtext4
  1158     2050                     __pstringtext4:
  1159     2050                     STR_10:
  1160     2050  340D               	retlw	13
  1161     2051  340A               	retlw	10
  1162     2052  343D               	retlw	61	;'='
  1163     2053  343D               	retlw	61	;'='
  1164     2054  343D               	retlw	61	;'='
  1165     2055  3420               	retlw	32	;' '
  1166     2056  3444               	retlw	68	;'D'
  1167     2057  3465               	retlw	101	;'e'
  1168     2058  346D               	retlw	109	;'m'
  1169     2059  346F               	retlw	111	;'o'
  1170     205A  3420               	retlw	32	;' '
  1171     205B  344D               	retlw	77	;'M'
  1172     205C  346F               	retlw	111	;'o'
  1173     205D  3464               	retlw	100	;'d'
  1174     205E  3465               	retlw	101	;'e'
  1175     205F  3420               	retlw	32	;' '
  1176     2060  343D               	retlw	61	;'='
  1177     2061  343D               	retlw	61	;'='
  1178     2062  343D               	retlw	61	;'='
  1179     2063  340D               	retlw	13
  1180     2064  340A               	retlw	10
  1181     2065  3400               	retlw	0
  1182                           
  1183                           	psect	stringtext5
  1184     2066                     __pstringtext5:
  1185     2066                     STR_13:
  1186     2066  340D               	retlw	13
  1187     2067  340A               	retlw	10
  1188     2068  343D               	retlw	61	;'='
  1189     2069  343D               	retlw	61	;'='
  1190     206A  343D               	retlw	61	;'='
  1191     206B  3420               	retlw	32	;' '
  1192     206C  3444               	retlw	68	;'D'
  1193     206D  346F               	retlw	111	;'o'
  1194     206E  346E               	retlw	110	;'n'
  1195     206F  3465               	retlw	101	;'e'
  1196     2070  3420               	retlw	32	;' '
  1197     2071  343D               	retlw	61	;'='
  1198     2072  343D               	retlw	61	;'='
  1199     2073  343D               	retlw	61	;'='
  1200     2074  340D               	retlw	13
  1201     2075  340A               	retlw	10
  1202     2076  3400               	retlw	0
  1203                           
  1204                           	psect	stringtext6
  1205     2077                     __pstringtext6:
  1206     2077                     STR_19:
  1207     2077  3420               	retlw	32	;' '
  1208     2078  3420               	retlw	32	;' '
  1209     2079  3464               	retlw	100	;'d'
  1210     207A  3420               	retlw	32	;' '
  1211     207B  343D               	retlw	61	;'='
  1212     207C  3420               	retlw	32	;' '
  1213     207D  3444               	retlw	68	;'D'
  1214     207E  3465               	retlw	101	;'e'
  1215     207F  346D               	retlw	109	;'m'
  1216     2080  346F               	retlw	111	;'o'
  1217     2081  340D               	retlw	13
  1218     2082  340A               	retlw	10
  1219     2083  3400               	retlw	0
  1220                           
  1221                           	psect	stringtext7
  1222     2084                     __pstringtext7:
  1223     2084                     STR_24:
  1224     2084  3445               	retlw	69	;'E'
  1225     2085  3472               	retlw	114	;'r'
  1226     2086  3472               	retlw	114	;'r'
  1227     2087  346F               	retlw	111	;'o'
  1228     2088  3472               	retlw	114	;'r'
  1229     2089  343A               	retlw	58	;':'
  1230     208A  3420               	retlw	32	;' '
  1231     208B  344E               	retlw	78	;'N'
  1232     208C  3465               	retlw	101	;'e'
  1233     208D  3465               	retlw	101	;'e'
  1234     208E  3464               	retlw	100	;'d'
  1235     208F  3420               	retlw	32	;' '
  1236     2090  3400               	retlw	0
  1237                           
  1238                           	psect	stringtext8
  1239     2091                     __pstringtext8:
  1240     2091                     STR_18:
  1241     2091  3443               	retlw	67	;'C'
  1242     2092  346F               	retlw	111	;'o'
  1243     2093  346D               	retlw	109	;'m'
  1244     2094  346D               	retlw	109	;'m'
  1245     2095  3461               	retlw	97	;'a'
  1246     2096  346E               	retlw	110	;'n'
  1247     2097  3464               	retlw	100	;'d'
  1248     2098  3473               	retlw	115	;'s'
  1249     2099  343A               	retlw	58	;':'
  1250     209A  340D               	retlw	13
  1251     209B  340A               	retlw	10
  1252     209C  3400               	retlw	0
  1253                           
  1254                           	psect	stringtext9
  1255     209D                     __pstringtext9:
  1256     209D                     STR_2:
  1257     209D  3456               	retlw	86	;'V'
  1258     209E  3465               	retlw	101	;'e'
  1259     209F  3472               	retlw	114	;'r'
  1260     20A0  3473               	retlw	115	;'s'
  1261     20A1  3469               	retlw	105	;'i'
  1262     20A2  3463               	retlw	99	;'c'
  1263     20A3  346F               	retlw	111	;'o'
  1264     20A4  346C               	retlw	108	;'l'
  1265     20A5  346F               	retlw	111	;'o'
  1266     20A6  3472               	retlw	114	;'r'
  1267     20A7  3400               	retlw	0
  1268                           
  1269                           	psect	stringtext10
  1270     20A8                     __pstringtext10:
  1271     20A8                     STR_25:
  1272     20A8  3420               	retlw	32	;' '
  1273     20A9  3476               	retlw	118	;'v'
  1274     20AA  3461               	retlw	97	;'a'
  1275     20AB  346C               	retlw	108	;'l'
  1276     20AC  3475               	retlw	117	;'u'
  1277     20AD  3465               	retlw	101	;'e'
  1278     20AE  3473               	retlw	115	;'s'
  1279     20AF  340D               	retlw	13
  1280     20B0  340A               	retlw	10
  1281     20B1  3400               	retlw	0
  1282                           
  1283                           	psect	stringtext11
  1284     20B2                     __pstringtext11:
  1285     20B2                     STR_11:
  1286     20B2  340D               	retlw	13
  1287     20B3  340A               	retlw	10
  1288     20B4  3453               	retlw	83	;'S'
  1289     20B5  3461               	retlw	97	;'a'
  1290     20B6  346D               	retlw	109	;'m'
  1291     20B7  3470               	retlw	112	;'p'
  1292     20B8  346C               	retlw	108	;'l'
  1293     20B9  3465               	retlw	101	;'e'
  1294     20BA  3420               	retlw	32	;' '
  1295     20BB  3400               	retlw	0
  1296                           
  1297                           	psect	stringtext12
  1298     20BC                     __pstringtext12:
  1299     20BC                     STR_3:
  1300     20BC  3456               	retlw	86	;'V'
  1301     20BD  3469               	retlw	105	;'i'
  1302     20BE  3472               	retlw	114	;'r'
  1303     20BF  3467               	retlw	103	;'g'
  1304     20C0  3469               	retlw	105	;'i'
  1305     20C1  346E               	retlw	110	;'n'
  1306     20C2  3469               	retlw	105	;'i'
  1307     20C3  3463               	retlw	99	;'c'
  1308     20C4  3461               	retlw	97	;'a'
  1309     20C5  3400               	retlw	0
  1310                           
  1311                           	psect	stringtext13
  1312     20C6                     __pstringtext13:
  1313     20C6                     STR_28:
  1314     20C6  3449               	retlw	73	;'I'
  1315     20C7  344E               	retlw	78	;'N'
  1316     20C8  3446               	retlw	70	;'F'
  1317     20C9  3449               	retlw	73	;'I'
  1318     20CA  344E               	retlw	78	;'N'
  1319     20CB  3449               	retlw	73	;'I'
  1320     20CC  3454               	retlw	84	;'T'
  1321     20CD  3459               	retlw	89	;'Y'
  1322     20CE  3400               	retlw	0
  1323                           
  1324                           	psect	stringtext14
  1325     20CF                     __pstringtext14:
  1326     20CF                     STR_27:
  1327     20CF  3469               	retlw	105	;'i'
  1328     20D0  346E               	retlw	110	;'n'
  1329     20D1  3466               	retlw	102	;'f'
  1330     20D2  3469               	retlw	105	;'i'
  1331     20D3  346E               	retlw	110	;'n'
  1332     20D4  3469               	retlw	105	;'i'
  1333     20D5  3474               	retlw	116	;'t'
  1334     20D6  3479               	retlw	121	;'y'
  1335     20D7  3400               	retlw	0
  1336                           
  1337                           	psect	stringtext15
  1338     20D8                     __pstringtext15:
  1339     20D8                     STR_4:
  1340     20D8  3449               	retlw	73	;'I'
  1341     20D9  346E               	retlw	110	;'n'
  1342     20DA  3470               	retlw	112	;'p'
  1343     20DB  3475               	retlw	117	;'u'
  1344     20DC  3474               	retlw	116	;'t'
  1345     20DD  343A               	retlw	58	;':'
  1346     20DE  3420               	retlw	32	;' '
  1347     20DF  345B               	retlw	91	;'['
  1348     20E0  3400               	retlw	0
  1349                           
  1350                           	psect	stringtext16
  1351     20E1                     __pstringtext16:
  1352     20E1                     STR_7:
  1353     20E1  3443               	retlw	67	;'C'
  1354     20E2  346C               	retlw	108	;'l'
  1355     20E3  3461               	retlw	97	;'a'
  1356     20E4  3473               	retlw	115	;'s'
  1357     20E5  3473               	retlw	115	;'s'
  1358     20E6  343A               	retlw	58	;':'
  1359     20E7  3420               	retlw	32	;' '
  1360     20E8  3400               	retlw	0
  1361                           
  1362                           	psect	stringtext17
  1363     20E9                     __pstringtext17:
  1364     20E9                     STR_1:
  1365     20E9  3453               	retlw	83	;'S'
  1366     20EA  3465               	retlw	101	;'e'
  1367     20EB  3474               	retlw	116	;'t'
  1368     20EC  346F               	retlw	111	;'o'
  1369     20ED  3473               	retlw	115	;'s'
  1370     20EE  3461               	retlw	97	;'a'
  1371     20EF  3400               	retlw	0
  1372                           
  1373                           	psect	stringtext18
  1374     20F0                     __pstringtext18:
  1375     20F0                     STR_33:
  1376     20F0  344E               	retlw	78	;'N'
  1377     20F1  3441               	retlw	65	;'A'
  1378     20F2  344E               	retlw	78	;'N'
  1379     20F3  3400               	retlw	0
  1380                           
  1381                           	psect	stringtext19
  1382     20F4                     __pstringtext19:
  1383     20F4                     STR_29:
  1384     20F4  3469               	retlw	105	;'i'
  1385     20F5  346E               	retlw	110	;'n'
  1386     20F6  3466               	retlw	102	;'f'
  1387     20F7  3400               	retlw	0
  1388                           
  1389                           	psect	stringtext20
  1390     20F8                     __pstringtext20:
  1391     20F8                     STR_32:
  1392     20F8  346E               	retlw	110	;'n'
  1393     20F9  3461               	retlw	97	;'a'
  1394     20FA  346E               	retlw	110	;'n'
  1395     20FB  3400               	retlw	0
  1396                           
  1397                           	psect	stringtext21
  1398     20FC                     __pstringtext21:
  1399     20FC                     STR_9:
  1400     20FC  3429               	retlw	41	;')'
  1401     20FD  340D               	retlw	13
  1402     20FE  340A               	retlw	10
  1403     20FF  3400               	retlw	0
  1404                           
  1405                           	psect	stringtext22
  1406     2100                     __pstringtext22:
  1407     2100                     STR_6:
  1408     2100  345D               	retlw	93	;']'
  1409     2101  340D               	retlw	13
  1410     2102  340A               	retlw	10
  1411     2103  3400               	retlw	0
  1412                           
  1413                           	psect	stringtext23
  1414     2104                     __pstringtext23:
  1415     2104                     STR_5:
  1416     2104  342C               	retlw	44	;','
  1417     2105  3420               	retlw	32	;' '
  1418     2106  3400               	retlw	0
  1419                           
  1420                           	psect	stringtext24
  1421     2107                     __pstringtext24:
  1422     2107                     STR_22:
  1423     2107  343E               	retlw	62	;'>'
  1424     2108  3420               	retlw	32	;' '
  1425     2109  3400               	retlw	0
  1426                           
  1427                           	psect	stringtext25
  1428     210A                     __pstringtext25:
  1429     210A                     STR_8:
  1430     210A  3420               	retlw	32	;' '
  1431     210B  3428               	retlw	40	;'('
  1432     210C  3400               	retlw	0
  1433                           
  1434                           	psect	stringtext26
  1435     0000                     __pstringtext26:
  1436     20FF                     
  1437                           	psect	cinit
  1438     07D6                     start_initialization:	
  1439                           ; #config settings
  1440                           
  1441     07D6                     __initialization:
  1442                           
  1443                           ; Initialize objects allocated to BANK1
  1444     07D6  3002               	movlw	low __pidataBANK1
  1445     07D7  0084               	movwf	4
  1446     07D8  3088               	movlw	(high __pidataBANK1)| (0+128)
  1447     07D9  0085               	movwf	5
  1448     07DA  30E9               	movlw	low __pdataBANK1
  1449     07DB  0086               	movwf	6
  1450     07DC  3000               	movlw	high __pdataBANK1
  1451     07DD  0087               	movwf	7
  1452     07DE  3006               	movlw	6
  1453     07DF  319D  25EE  3187   	fcall	init_ram
  1454                           
  1455                           ; Initialize objects allocated to BANK3
  1456     07E2  301C               	movlw	low __pidataBANK3
  1457     07E3  0084               	movwf	4
  1458     07E4  3090               	movlw	(high __pidataBANK3)| (0+128)
  1459     07E5  0085               	movwf	5
  1460     07E6  30A0               	movlw	low __pdataBANK3
  1461     07E7  0086               	movwf	6
  1462     07E8  3001               	movlw	high __pdataBANK3
  1463     07E9  0087               	movwf	7
  1464     07EA  3030               	movlw	48
  1465     07EB  319D  25EE  3187   	fcall	init_ram
  1466                           
  1467                           ; Clear objects allocated to BANK1
  1468     07EE  0021               	movlb	1	; select bank1
  1469     07EF  01E3               	clrf	__pbssBANK1& (0+127)
  1470     07F0  01E4               	clrf	(__pbssBANK1+1)& (0+127)
  1471     07F1  01E5               	clrf	(__pbssBANK1+2)& (0+127)
  1472     07F2  01E6               	clrf	(__pbssBANK1+3)& (0+127)
  1473     07F3  01E7               	clrf	(__pbssBANK1+4)& (0+127)
  1474     07F4  01E8               	clrf	(__pbssBANK1+5)& (0+127)
  1475                           
  1476                           ; Clear objects allocated to BANK2
  1477     07F5  3020               	movlw	low __pbssBANK2
  1478     07F6  0084               	movwf	4
  1479     07F7  3001               	movlw	high __pbssBANK2
  1480     07F8  0085               	movwf	5
  1481     07F9  3030               	movlw	48
  1482     07FA  319D  25E8  3187   	fcall	clear_ram0
  1483     07FD                     end_of_initialization:	
  1484                           ;End of C runtime variable initialization code
  1485                           
  1486     07FD                     __end_of__initialization:
  1487     07FD  0020               	movlb	0
  1488     07FE  3195  2D5C         	ljmp	_main	;jump to C main() function
  1489                           
  1490                           	psect	bssBANK1
  1491     00E3                     __pbssBANK1:
  1492     00E3                     ml_predict@F6050:
  1493     00E3                     	ds	3
  1494     00E6                     _errno:
  1495     00E6                     	ds	2
  1496     00E8                     _rx_index:
  1497     00E8                     	ds	1
  1498                           
  1499                           	psect	dataBANK1
  1500     00E9                     __pdataBANK1:
  1501     00E9                     _class_names:
  1502     00E9                     	ds	6
  1503                           
  1504                           	psect	bssBANK2
  1505     0120                     __pbssBANK2:
  1506     0120                     _rx_buffer:
  1507     0120                     	ds	48
  1508                           
  1509                           	psect	dataBANK3
  1510     01A0                     __pdataBANK3:
  1511     01A0                     run_demo@F6251:
  1512     01A0                     	ds	48
  1513                           
  1514                           	psect	inittext
  1515     1DEE                     init_ram:
  1516     1DEE  00FE               	movwf	btemp
  1517     1DEF                     initloop:
  1518     1DEF  0012               	moviw fsr0++
  1519     1DF0  001E               	movwi fsr1++
  1520     1DF1  0BFE               	decfsz	btemp,f
  1521     1DF2  2DEF               	goto	initloop
  1522     1DF3  3400               	retlw	0
  1523                           
  1524                           	psect	clrtext
  1525     1DE8                     clear_ram0:	
  1526                           ;	Called with FSR0 containing the base address, and
  1527                           ;	WREG with the size to clear
  1528                           
  1529     1DE8  0064               	clrwdt	;clear the watchdog before getting into this loop
  1530     1DE9                     clrloop0:
  1531     1DE9  0180               	clrf	0	;clear RAM location pointed to by FSR
  1532     1DEA  3101               	addfsr 0,1
  1533     1DEB  0B89               	decfsz	9,f	;Have we reached the end of clearing yet?
  1534     1DEC  2DE9               	goto	clrloop0	;have we reached the end yet?
  1535     1DED  3400               	retlw	0	;all done for this memory range, return
  1536                           
  1537                           	psect	cstackBANK1
  1538     00A0                     __pcstackBANK1:
  1539     00A0                     run_demo@samples:
  1540                           
  1541                           ; 48 bytes @ 0x0
  1542     00A0                     	ds	48
  1543     00D0                     run_demo@i:
  1544                           
  1545                           ; 1 bytes @ 0x30
  1546     00D0                     	ds	1
  1547     00D1                     main@num_parsed:
  1548                           
  1549                           ; 1 bytes @ 0x31
  1550     00D1                     	ds	1
  1551     00D2                     main@features:
  1552                           
  1553                           ; 16 bytes @ 0x32
  1554     00D2                     	ds	16
  1555     00E2                     main@rx_char:
  1556                           
  1557                           ; 1 bytes @ 0x42
  1558     00E2                     	ds	1
  1559                           
  1560                           	psect	cstackCOMMON
  1561     0070                     __pcstackCOMMON:
  1562     0070                     ?___fleq:
  1563     0070                     ?___flge:	
  1564                           ; 1 bit 
  1565                           
  1566     0070                     ?_memset:	
  1567                           ; 1 bit 
  1568                           
  1569     0070                     ?_EUSART_Read:	
  1570                           ; 1 bytes @ 0x0
  1571                           
  1572     0070                     ??_EUSART_Read:	
  1573                           ; 1 bytes @ 0x0
  1574                           
  1575     0070                     ?_EUSART_Write:	
  1576                           ; 1 bytes @ 0x0
  1577                           
  1578     0070                     ??_EUSART_Write:	
  1579                           ; 1 bytes @ 0x0
  1580                           
  1581     0070                     ?_internal_32:	
  1582                           ; 1 bytes @ 0x0
  1583                           
  1584     0070                     ??_internal_32:	
  1585                           ; 1 bytes @ 0x0
  1586                           
  1587     0070                     ?_ml_predict:	
  1588                           ; 1 bytes @ 0x0
  1589                           
  1590     0070                     ?_initMain:	
  1591                           ; 1 bytes @ 0x0
  1592                           
  1593     0070                     ??_initMain:	
  1594                           ; 1 bytes @ 0x0
  1595                           
  1596     0070                     ?_classify_and_print:	
  1597                           ; 1 bytes @ 0x0
  1598                           
  1599     0070                     ?_run_demo:	
  1600                           ; 1 bytes @ 0x0
  1601                           
  1602     0070                     ?_main:	
  1603                           ; 1 bytes @ 0x0
  1604                           
  1605     0070                     ?_strlen:	
  1606                           ; 1 bytes @ 0x0
  1607                           
  1608     0070                     ?__Umul8_16:	
  1609                           ; 2 bytes @ 0x0
  1610                           
  1611     0070                     ?_isxdigit:	
  1612                           ; 2 bytes @ 0x0
  1613                           
  1614     0070                     ?_isdigit:	
  1615                           ; 2 bytes @ 0x0
  1616                           
  1617     0070                     ?_toupper:	
  1618                           ; 2 bytes @ 0x0
  1619                           
  1620     0070                     ?___wmul:	
  1621                           ; 2 bytes @ 0x0
  1622                           
  1623     0070                     ?___awdiv:	
  1624                           ; 2 bytes @ 0x0
  1625                           
  1626     0070                     ?___awmod:	
  1627                           ; 2 bytes @ 0x0
  1628                           
  1629     0070                     ?_nanf:	
  1630                           ; 2 bytes @ 0x0
  1631                           
  1632     0070                     ?___lmul:	
  1633                           ; 4 bytes @ 0x0
  1634                           
  1635     0070                     ?___aldiv:	
  1636                           ; 4 bytes @ 0x0
  1637                           
  1638     0070                     ?___flneg:	
  1639                           ; 4 bytes @ 0x0
  1640                           
  1641     0070                     ?___fladd:	
  1642                           ; 4 bytes @ 0x0
  1643                           
  1644     0070                     ?___fldiv:	
  1645                           ; 4 bytes @ 0x0
  1646                           
  1647     0070                     ?___xxtofl:	
  1648                           ; 4 bytes @ 0x0
  1649                           
  1650     0070                     EUSART_Write@txData:	
  1651                           ; 4 bytes @ 0x0
  1652                           
  1653     0070                     __Umul8_16@multiplicand:	
  1654                           ; 1 bytes @ 0x0
  1655                           
  1656     0070                     ___wmul@multiplier:	
  1657                           ; 1 bytes @ 0x0
  1658                           
  1659     0070                     ___awdiv@divisor:	
  1660                           ; 2 bytes @ 0x0
  1661                           
  1662     0070                     ___awmod@divisor:	
  1663                           ; 2 bytes @ 0x0
  1664                           
  1665     0070                     memset@c:	
  1666                           ; 2 bytes @ 0x0
  1667                           
  1668     0070                     isdigit@c:	
  1669                           ; 2 bytes @ 0x0
  1670                           
  1671     0070                     isxdigit@c:	
  1672                           ; 2 bytes @ 0x0
  1673                           
  1674     0070                     nanf@s:	
  1675                           ; 2 bytes @ 0x0
  1676                           
  1677     0070                     toupper@c:	
  1678                           ; 2 bytes @ 0x0
  1679                           
  1680     0070                     ___lmul@multiplier:	
  1681                           ; 2 bytes @ 0x0
  1682                           
  1683     0070                     ___aldiv@divisor:	
  1684                           ; 4 bytes @ 0x0
  1685                           
  1686     0070                     ___fleq@ff1:	
  1687                           ; 4 bytes @ 0x0
  1688                           
  1689     0070                     ___flge@ff1:	
  1690                           ; 4 bytes @ 0x0
  1691                           
  1692     0070                     ___flneg@f1:	
  1693                           ; 4 bytes @ 0x0
  1694                           
  1695     0070                     ___fladd@b:	
  1696                           ; 4 bytes @ 0x0
  1697                           
  1698     0070                     ___fldiv@a:	
  1699                           ; 4 bytes @ 0x0
  1700                           
  1701     0070                     ___xxtofl@val:	
  1702                           ; 4 bytes @ 0x0
  1703                           
  1704                           
  1705                           ; 4 bytes @ 0x0
  1706     0070                     	ds	1
  1707     0071                     ?_EUSART_Write_Text:
  1708     0071                     EUSART_Write_Text@text:	
  1709                           ; 1 bytes @ 0x1
  1710                           
  1711                           
  1712                           ; 2 bytes @ 0x1
  1713     0071                     	ds	1
  1714     0072                     ??_strlen:
  1715     0072                     ??__Umul8_16:	
  1716                           ; 1 bytes @ 0x2
  1717                           
  1718     0072                     ??_isxdigit:	
  1719                           ; 1 bytes @ 0x2
  1720                           
  1721     0072                     ??_isdigit:	
  1722                           ; 1 bytes @ 0x2
  1723                           
  1724     0072                     ??_toupper:	
  1725                           ; 1 bytes @ 0x2
  1726                           
  1727     0072                     ___wmul@multiplicand:	
  1728                           ; 1 bytes @ 0x2
  1729                           
  1730     0072                     ___awdiv@dividend:	
  1731                           ; 2 bytes @ 0x2
  1732                           
  1733     0072                     ___awmod@dividend:	
  1734                           ; 2 bytes @ 0x2
  1735                           
  1736     0072                     memset@n:	
  1737                           ; 2 bytes @ 0x2
  1738                           
  1739                           
  1740                           ; 2 bytes @ 0x2
  1741     0072                     	ds	1
  1742     0073                     ??_EUSART_Write_Text:
  1743     0073                     strlen@a:	
  1744                           ; 1 bytes @ 0x3
  1745                           
  1746                           
  1747                           ; 1 bytes @ 0x3
  1748     0073                     	ds	1
  1749     0074                     ??_memset:
  1750     0074                     ??_nanf:	
  1751                           ; 1 bytes @ 0x4
  1752                           
  1753     0074                     ??___wmul:	
  1754                           ; 1 bytes @ 0x4
  1755                           
  1756     0074                     ??___awdiv:	
  1757                           ; 1 bytes @ 0x4
  1758                           
  1759     0074                     ??___awmod:	
  1760                           ; 1 bytes @ 0x4
  1761                           
  1762     0074                     ??___flneg:	
  1763                           ; 1 bytes @ 0x4
  1764                           
  1765     0074                     ??___xxtofl:	
  1766                           ; 1 bytes @ 0x4
  1767                           
  1768     0074                     strlen@s:	
  1769                           ; 1 bytes @ 0x4
  1770                           
  1771     0074                     EUSART_Write_Text@i:	
  1772                           ; 1 bytes @ 0x4
  1773                           
  1774     0074                     ___wmul@product:	
  1775                           ; 2 bytes @ 0x4
  1776                           
  1777     0074                     __Umul8_16@product:	
  1778                           ; 2 bytes @ 0x4
  1779                           
  1780     0074                     ___lmul@multiplicand:	
  1781                           ; 2 bytes @ 0x4
  1782                           
  1783     0074                     ___aldiv@dividend:	
  1784                           ; 4 bytes @ 0x4
  1785                           
  1786     0074                     ___fleq@ff2:	
  1787                           ; 4 bytes @ 0x4
  1788                           
  1789     0074                     ___flge@ff2:	
  1790                           ; 4 bytes @ 0x4
  1791                           
  1792     0074                     ___fladd@a:	
  1793                           ; 4 bytes @ 0x4
  1794                           
  1795     0074                     ___fldiv@b:	
  1796                           ; 4 bytes @ 0x4
  1797                           
  1798     0074                     nanf@u:	
  1799                           ; 4 bytes @ 0x4
  1800                           
  1801                           
  1802                           ; 4 bytes @ 0x4
  1803     0074                     	ds	1
  1804     0075                     ___awdiv@counter:
  1805     0075                     ___awmod@counter:	
  1806                           ; 1 bytes @ 0x5
  1807                           
  1808     0075                     memset@p:	
  1809                           ; 1 bytes @ 0x5
  1810                           
  1811                           
  1812                           ; 1 bytes @ 0x5
  1813     0075                     	ds	1
  1814     0076                     ___awdiv@sign:
  1815     0076                     ___awmod@sign:	
  1816                           ; 1 bytes @ 0x6
  1817                           
  1818     0076                     memset@dest:	
  1819                           ; 1 bytes @ 0x6
  1820                           
  1821     0076                     _isxdigit$724:	
  1822                           ; 1 bytes @ 0x6
  1823                           
  1824     0076                     __Umul8_16@word_mpld:	
  1825                           ; 1 bytes @ 0x6
  1826                           
  1827                           
  1828                           ; 2 bytes @ 0x6
  1829     0076                     	ds	1
  1830     0077                     ___awdiv@quotient:
  1831                           
  1832                           ; 2 bytes @ 0x7
  1833     0077                     	ds	1
  1834     0078                     ??___lmul:
  1835     0078                     ??___aldiv:	
  1836                           ; 1 bytes @ 0x8
  1837                           
  1838     0078                     ??___fleq:	
  1839                           ; 1 bytes @ 0x8
  1840                           
  1841     0078                     ??___flge:	
  1842                           ; 1 bytes @ 0x8
  1843                           
  1844     0078                     ??___fldiv:	
  1845                           ; 1 bytes @ 0x8
  1846                           
  1847     0078                     ___fladd@signs:	
  1848                           ; 1 bytes @ 0x8
  1849                           
  1850     0078                     __Umul8_16@multiplier:	
  1851                           ; 1 bytes @ 0x8
  1852                           
  1853     0078                     ___xxtofl@sign:	
  1854                           ; 1 bytes @ 0x8
  1855                           
  1856     0078                     ___lmul@product:	
  1857                           ; 1 bytes @ 0x8
  1858                           
  1859                           
  1860                           ; 4 bytes @ 0x8
  1861     0078                     	ds	1
  1862     0079                     ?_itoa:
  1863     0079                     ___fladd@aexp:	
  1864                           ; 1 bytes @ 0x9
  1865                           
  1866     0079                     ___xxtofl@exp:	
  1867                           ; 1 bytes @ 0x9
  1868                           
  1869     0079                     EUSART_Initialize@x:	
  1870                           ; 1 bytes @ 0x9
  1871                           
  1872     0079                     itoa@d:	
  1873                           ; 2 bytes @ 0x9
  1874                           
  1875                           
  1876                           ; 2 bytes @ 0x9
  1877     0079                     	ds	1
  1878     007A                     ___fladd@bexp:
  1879     007A                     ___xxtofl@arg:	
  1880                           ; 1 bytes @ 0xA
  1881                           
  1882                           
  1883                           ; 4 bytes @ 0xA
  1884     007A                     	ds	1
  1885     007B                     ??_itoa:
  1886     007B                     ?_EUSART_Write_Integer:	
  1887                           ; 1 bytes @ 0xB
  1888                           
  1889     007B                     ___fladd@grs:	
  1890                           ; 1 bytes @ 0xB
  1891                           
  1892     007B                     EUSART_Write_Integer@value_to_send:	
  1893                           ; 1 bytes @ 0xB
  1894                           
  1895                           
  1896                           ; 2 bytes @ 0xB
  1897     007B                     	ds	1
  1898     007C                     ??_ml_predict:
  1899                           
  1900                           ; 1 bytes @ 0xC
  1901     007C                     	ds	1
  1902     007D                     ??_EUSART_Write_Integer:
  1903                           
  1904                           ; 1 bytes @ 0xD
  1905     007D                     	ds	1
  1906     007E                     ??_print_float:
  1907     007E                     ??___flsub:	
  1908                           ; 1 bytes @ 0xE
  1909                           
  1910                           
  1911                           	psect	cstackBANK0
  1912     0020                     __pcstackBANK0:	
  1913                           ; 1 bytes @ 0xE
  1914                           
  1915     0020                     ??___fladd:
  1916     0020                     ml_predict@classIdx:	
  1917                           ; 1 bytes @ 0x0
  1918                           
  1919     0020                     ___aldiv@counter:	
  1920                           ; 1 bytes @ 0x0
  1921                           
  1922     0020                     itoa@num:	
  1923                           ; 1 bytes @ 0x0
  1924                           
  1925     0020                     ___fldiv@rem:	
  1926                           ; 2 bytes @ 0x0
  1927                           
  1928                           
  1929                           ; 4 bytes @ 0x0
  1930     0020                     	ds	1
  1931     0021                     ml_predict@maxVotes:
  1932     0021                     ___aldiv@sign:	
  1933                           ; 1 bytes @ 0x1
  1934                           
  1935                           
  1936                           ; 1 bytes @ 0x1
  1937     0021                     	ds	1
  1938     0022                     ml_predict@i:
  1939     0022                     itoa@temp:	
  1940                           ; 1 bytes @ 0x2
  1941                           
  1942     0022                     ___aldiv@quotient:	
  1943                           ; 2 bytes @ 0x2
  1944                           
  1945                           
  1946                           ; 4 bytes @ 0x2
  1947     0022                     	ds	1
  1948     0023                     ml_predict@votes:
  1949                           
  1950                           ; 3 bytes @ 0x3
  1951     0023                     	ds	1
  1952     0024                     itoa@buf:
  1953     0024                     ___fldiv@sign:	
  1954                           ; 1 bytes @ 0x4
  1955                           
  1956                           
  1957                           ; 1 bytes @ 0x4
  1958     0024                     	ds	1
  1959     0025                     itoa@div:
  1960     0025                     ___fldiv@new_exp:	
  1961                           ; 2 bytes @ 0x5
  1962                           
  1963                           
  1964                           ; 2 bytes @ 0x5
  1965     0025                     	ds	1
  1966     0026                     ?_EUSART_Initialize:
  1967     0026                     ml_predict@x:	
  1968                           ; 1 bytes @ 0x6
  1969                           
  1970     0026                     EUSART_Initialize@baudrate:	
  1971                           ; 1 bytes @ 0x6
  1972                           
  1973                           
  1974                           ; 4 bytes @ 0x6
  1975     0026                     	ds	1
  1976     0027                     ___fldiv@grs:
  1977     0027                     EUSART_Write_Integer@buffer:	
  1978                           ; 4 bytes @ 0x7
  1979                           
  1980                           
  1981                           ; 20 bytes @ 0x7
  1982     0027                     	ds	1
  1983     0028                     ?___flsub:
  1984     0028                     ___flsub@a:	
  1985                           ; 4 bytes @ 0x8
  1986                           
  1987                           
  1988                           ; 4 bytes @ 0x8
  1989     0028                     	ds	2
  1990     002A                     ??_EUSART_Initialize:
  1991                           
  1992                           ; 1 bytes @ 0xA
  1993     002A                     	ds	1
  1994     002B                     ___fldiv@bexp:
  1995                           
  1996                           ; 1 bytes @ 0xB
  1997     002B                     	ds	1
  1998     002C                     ___fldiv@aexp:
  1999     002C                     ___flsub@b:	
  2000                           ; 1 bytes @ 0xC
  2001                           
  2002                           
  2003                           ; 4 bytes @ 0xC
  2004     002C                     	ds	4
  2005     0030                     ?___flmul:
  2006     0030                     ___flmul@b:	
  2007                           ; 4 bytes @ 0x10
  2008                           
  2009                           
  2010                           ; 4 bytes @ 0x10
  2011     0030                     	ds	4
  2012     0034                     ___flmul@a:
  2013                           
  2014                           ; 4 bytes @ 0x14
  2015     0034                     	ds	4
  2016     0038                     ??___flmul:
  2017                           
  2018                           ; 1 bytes @ 0x18
  2019     0038                     	ds	3
  2020     003B                     EUSART_Write_Integer@ptr:
  2021                           
  2022                           ; 1 bytes @ 0x1B
  2023     003B                     	ds	1
  2024     003C                     EUSART_Write_Integer@temp_ptr:
  2025                           
  2026                           ; 1 bytes @ 0x1C
  2027     003C                     	ds	1
  2028     003D                     ___flmul@sign:
  2029                           
  2030                           ; 1 bytes @ 0x1D
  2031     003D                     	ds	1
  2032     003E                     ___flmul@grs:
  2033                           
  2034                           ; 4 bytes @ 0x1E
  2035     003E                     	ds	4
  2036     0042                     ___flmul@aexp:
  2037                           
  2038                           ; 1 bytes @ 0x22
  2039     0042                     	ds	1
  2040     0043                     ___flmul@bexp:
  2041                           
  2042                           ; 1 bytes @ 0x23
  2043     0043                     	ds	1
  2044     0044                     ___flmul@prod:
  2045                           
  2046                           ; 4 bytes @ 0x24
  2047     0044                     	ds	4
  2048     0048                     ___flmul@temp:
  2049                           
  2050                           ; 2 bytes @ 0x28
  2051     0048                     	ds	2
  2052     004A                     ?_strtof:
  2053     004A                     ?___fltol:	
  2054                           ; 4 bytes @ 0x2A
  2055                           
  2056     004A                     strtof@res:	
  2057                           ; 4 bytes @ 0x2A
  2058                           
  2059     004A                     ___fltol@f1:	
  2060                           ; 2 bytes @ 0x2A
  2061                           
  2062                           
  2063                           ; 4 bytes @ 0x2A
  2064     004A                     	ds	4
  2065     004E                     ??_strtof:
  2066     004E                     ??___fltol:	
  2067                           ; 1 bytes @ 0x2E
  2068                           
  2069                           
  2070                           ; 1 bytes @ 0x2E
  2071     004E                     	ds	4
  2072     0052                     ___fltol@sign1:
  2073                           
  2074                           ; 1 bytes @ 0x32
  2075     0052                     	ds	1
  2076     0053                     ___fltol@exp1:
  2077                           
  2078                           ; 1 bytes @ 0x33
  2079     0053                     	ds	1
  2080     0054                     ?_print_float:
  2081     0054                     print_float@val:	
  2082                           ; 1 bytes @ 0x34
  2083                           
  2084                           
  2085                           ; 4 bytes @ 0x34
  2086     0054                     	ds	2
  2087     0056                     strtof@err:
  2088                           
  2089                           ; 2 bytes @ 0x36
  2090     0056                     	ds	2
  2091     0058                     strtof@xpos:
  2092     0058                     print_float@frac:	
  2093                           ; 1 bytes @ 0x38
  2094                           
  2095                           
  2096                           ; 2 bytes @ 0x38
  2097     0058                     	ds	1
  2098     0059                     strtof@dpos:
  2099                           
  2100                           ; 1 bytes @ 0x39
  2101     0059                     	ds	1
  2102     005A                     strtof@digit:
  2103     005A                     print_float@whole:	
  2104                           ; 1 bytes @ 0x3A
  2105                           
  2106                           
  2107                           ; 2 bytes @ 0x3A
  2108     005A                     	ds	1
  2109     005B                     strtof@flags:
  2110                           
  2111                           ; 1 bytes @ 0x3B
  2112     005B                     	ds	1
  2113     005C                     ??_classify_and_print:
  2114     005C                     strtof@expon:	
  2115                           ; 1 bytes @ 0x3C
  2116                           
  2117                           
  2118                           ; 2 bytes @ 0x3C
  2119     005C                     	ds	2
  2120     005E                     classify_and_print@prediction:
  2121     005E                     strtof@eexp:	
  2122                           ; 1 bytes @ 0x3E
  2123                           
  2124                           
  2125                           ; 2 bytes @ 0x3E
  2126     005E                     	ds	1
  2127     005F                     classify_and_print@features:
  2128                           
  2129                           ; 1 bytes @ 0x3F
  2130     005F                     	ds	1
  2131     0060                     classify_and_print@i:
  2132     0060                     strtof@_u:	
  2133                           ; 1 bytes @ 0x40
  2134                           
  2135                           
  2136                           ; 4 bytes @ 0x40
  2137     0060                     	ds	1
  2138     0061                     ??_run_demo:
  2139                           
  2140                           ; 1 bytes @ 0x41
  2141     0061                     	ds	3
  2142     0064                     strtof@i:
  2143                           
  2144                           ; 1 bytes @ 0x44
  2145     0064                     	ds	1
  2146     0065                     strtof@s:
  2147                           
  2148                           ; 1 bytes @ 0x45
  2149     0065                     	ds	1
  2150     0066                     ?_parse_features:
  2151     0066                     parse_features@features:	
  2152                           ; 1 bytes @ 0x46
  2153                           
  2154                           
  2155                           ; 1 bytes @ 0x46
  2156     0066                     	ds	1
  2157     0067                     ??_parse_features:
  2158                           
  2159                           ; 1 bytes @ 0x47
  2160     0067                     	ds	2
  2161     0069                     parse_features@buffer:
  2162                           
  2163                           ; 1 bytes @ 0x49
  2164     0069                     	ds	1
  2165     006A                     parse_features@start:
  2166                           
  2167                           ; 1 bytes @ 0x4A
  2168     006A                     	ds	1
  2169     006B                     parse_features@end_char:
  2170                           
  2171                           ; 1 bytes @ 0x4B
  2172     006B                     	ds	1
  2173     006C                     parse_features@count:
  2174                           
  2175                           ; 1 bytes @ 0x4C
  2176     006C                     	ds	1
  2177     006D                     parse_features@ptr:
  2178                           
  2179                           ; 1 bytes @ 0x4D
  2180     006D                     	ds	1
  2181     006E                     ??_main:
  2182                           
  2183                           ; 1 bytes @ 0x4E
  2184     006E                     	ds	2
  2185                           
  2186                           	psect	maintext
  2187     155C                     __pmaintext:	
  2188 ;;
  2189 ;;Main: autosize = 0, tempsize = 2, incstack = 0, save=0
  2190 ;;
  2191 ;; *************** function _main *****************
  2192 ;; Defined at:
  2193 ;;		line 195 in file "main.c"
  2194 ;; Parameters:    Size  Location     Type
  2195 ;;		None
  2196 ;; Auto vars:     Size  Location     Type
  2197 ;;  features       16   50[BANK1 ] float [4]
  2198 ;;  rx_char         1   66[BANK1 ] unsigned char 
  2199 ;;  num_parsed      1   49[BANK1 ] unsigned char 
  2200 ;; Return value:  Size  Location     Type
  2201 ;;                  1    wreg      void 
  2202 ;; Registers used:
  2203 ;;		wreg, fsr0l, fsr0h, fsr1l, fsr1h, status,2, status,0, pclath, cstack
  2204 ;; Tracked objects:
  2205 ;;		On entry : B1F/0
  2206 ;;		On exit  : 0/0
  2207 ;;		Unchanged: 0/0
  2208 ;; Data sizes:     COMMON   BANK0   BANK1   BANK2   BANK3   BANK4   BANK5   BANK6   BANK7   BANK8   BANK9  BANK10  BANK1
      +1  BANK12  BANK13  BANK14  BANK15  BANK16  BANK17  BANK18  BANK19  BANK20  BANK21  BANK22  BANK23  BANK24  BANK25
  2209 ;;      Params:         0       0       0       0       0       0       0       0       0       0       0       0       
      +0       0       0       0       0       0       0       0       0       0       0       0       0       0       0
  2210 ;;      Locals:         0       0      18       0       0       0       0       0       0       0       0       0       
      +0       0       0       0       0       0       0       0       0       0       0       0       0       0       0
  2211 ;;      Temps:          0       2       0       0       0       0       0       0       0       0       0       0       
      +0       0       0       0       0       0       0       0       0       0       0       0       0       0       0
  2212 ;;      Totals:         0       2      18       0       0       0       0       0       0       0       0       0       
      +0       0       0       0       0       0       0       0       0       0       0       0       0       0       0
  2213 ;;Total ram usage:       20 bytes
  2214 ;; Hardware stack levels required when called: 6
  2215 ;; This function calls:
  2216 ;;		_EUSART_Initialize
  2217 ;;		_EUSART_Read
  2218 ;;		_EUSART_Write
  2219 ;;		_EUSART_Write_Integer
  2220 ;;		_EUSART_Write_Text
  2221 ;;		_classify_and_print
  2222 ;;		_initMain
  2223 ;;		_memset
  2224 ;;		_parse_features
  2225 ;;		_run_demo
  2226 ;; This function is called by:
  2227 ;;		Startup code after reset
  2228 ;; This function uses a non-reentrant model
  2229 ;;
  2230                           
  2231     155C                     _main:	
  2232                           ;psect for function _main
  2233                           
  2234     155C                     l4235:	
  2235                           ;incstack = 0
  2236                           ; Regs used in _main: [wreg-fsr1h+status,2+status,0+pclath+cstack]
  2237                           
  2238                           
  2239                           ;main.c: 197:     uint8_t rx_char;;main.c: 198:     float features[4];;main.c: 199:     
      +                          unsigned char num_parsed;;main.c: 201:     initMain();
  2240     155C  319F  2735  3195   	fcall	_initMain
  2241                           
  2242                           ;main.c: 202:     EUSART_Initialize(19200);
  2243     155F  3000               	movlw	0
  2244     1560  0020               	movlb	0	; select bank0
  2245     1561  00A9               	movwf	EUSART_Initialize@baudrate+3
  2246     1562  3000               	movlw	0
  2247     1563  00A8               	movwf	EUSART_Initialize@baudrate+2
  2248     1564  304B               	movlw	75
  2249     1565  00A7               	movwf	EUSART_Initialize@baudrate+1
  2250     1566  3000               	movlw	0
  2251     1567  00A6               	movwf	EUSART_Initialize@baudrate
  2252     1568  319F  27B0  3195   	fcall	_EUSART_Initialize
  2253     156B                     l4237:
  2254                           
  2255                           ;main.c: 203:     _delay((unsigned long)((500)*(32000000/4000.0)));
  2256     156B  3015               	movlw	21
  2257     156C  0020               	movlb	0	; select bank0
  2258     156D  00EF               	movwf	??_main+1
  2259     156E  304B               	movlw	75
  2260     156F  00EE               	movwf	??_main
  2261     1570  30BE               	movlw	190
  2262     1571                     u6677:
  2263     1571  0B89               	decfsz	9,f
  2264     1572  2D71               	goto	u6677
  2265     1573  0BEE               	decfsz	??_main,f
  2266     1574  2D71               	goto	u6677
  2267     1575  0BEF               	decfsz	??_main+1,f
  2268     1576  2D71               	goto	u6677
  2269     1577  0000               	nop
  2270     1578                     l4239:
  2271                           
  2272                           ;main.c: 206:     EUSART_Write_Text("\r\n");
  2273     1578  30FD               	movlw	low ((STR_9+1)| (0+32768))
  2274     1579  00F1               	movwf	EUSART_Write_Text@text
  2275     157A  30A0               	movlw	high ((STR_9+1)| (0+32768))
  2276     157B  00F2               	movwf	EUSART_Write_Text@text+1
  2277     157C  319E  2669  3195   	fcall	_EUSART_Write_Text
  2278     157F                     l4241:
  2279                           
  2280                           ;main.c: 207:     EUSART_Write_Text("=========================\r\n");
  2281     157F  301D               	movlw	low (STR_15| (0+32768))
  2282     1580  00F1               	movwf	EUSART_Write_Text@text
  2283     1581  30A0               	movlw	high (STR_15| (0+32768))
  2284     1582  00F2               	movwf	EUSART_Write_Text@text+1
  2285     1583  319E  2669  3195   	fcall	_EUSART_Write_Text
  2286     1586                     l4243:
  2287                           
  2288                           ;main.c: 208:     EUSART_Write_Text(" PIC16 ML Classifier\r\n");
  2289     1586  3039               	movlw	low (STR_16| (0+32768))
  2290     1587  00F1               	movwf	EUSART_Write_Text@text
  2291     1588  30A0               	movlw	high (STR_16| (0+32768))
  2292     1589  00F2               	movwf	EUSART_Write_Text@text+1
  2293     158A  319E  2669  3195   	fcall	_EUSART_Write_Text
  2294     158D                     l4245:
  2295                           
  2296                           ;main.c: 209:     EUSART_Write_Text("=========================\r\n");
  2297     158D  301D               	movlw	low (STR_15| (0+32768))
  2298     158E  00F1               	movwf	EUSART_Write_Text@text
  2299     158F  30A0               	movlw	high (STR_15| (0+32768))
  2300     1590  00F2               	movwf	EUSART_Write_Text@text+1
  2301     1591  319E  2669  3195   	fcall	_EUSART_Write_Text
  2302     1594                     l4247:
  2303                           
  2304                           ;main.c: 210:     EUSART_Write_Text("Commands:\r\n");
  2305     1594  3091               	movlw	low (STR_18| (0+32768))
  2306     1595  00F1               	movwf	EUSART_Write_Text@text
  2307     1596  30A0               	movlw	high (STR_18| (0+32768))
  2308     1597  00F2               	movwf	EUSART_Write_Text@text+1
  2309     1598  319E  2669  3195   	fcall	_EUSART_Write_Text
  2310     159B                     l4249:
  2311                           
  2312                           ;main.c: 211:     EUSART_Write_Text("  d = Demo\r\n");
  2313     159B  3077               	movlw	low (STR_19| (0+32768))
  2314     159C  00F1               	movwf	EUSART_Write_Text@text
  2315     159D  30A0               	movlw	high (STR_19| (0+32768))
  2316     159E  00F2               	movwf	EUSART_Write_Text@text+1
  2317     159F  319E  2669  3195   	fcall	_EUSART_Write_Text
  2318     15A2                     l4251:
  2319                           
  2320                           ;main.c: 212:     EUSART_Write_Text("  Or send: 5.1,3.5,1.4,0.2\r\n");
  2321     15A2  3000               	movlw	low (STR_20| (0+32768))
  2322     15A3  00F1               	movwf	EUSART_Write_Text@text
  2323     15A4  30A0               	movlw	high (STR_20| (0+32768))
  2324     15A5  00F2               	movwf	EUSART_Write_Text@text+1
  2325     15A6  319E  2669  3195   	fcall	_EUSART_Write_Text
  2326     15A9                     l4253:
  2327                           
  2328                           ;main.c: 213:     EUSART_Write_Text("=========================\r\n");
  2329     15A9  301D               	movlw	low (STR_15| (0+32768))
  2330     15AA  00F1               	movwf	EUSART_Write_Text@text
  2331     15AB  30A0               	movlw	high (STR_15| (0+32768))
  2332     15AC  00F2               	movwf	EUSART_Write_Text@text+1
  2333     15AD  319E  2669  3195   	fcall	_EUSART_Write_Text
  2334     15B0                     l4255:
  2335                           
  2336                           ;main.c: 214:     EUSART_Write_Text("> ");
  2337     15B0  3007               	movlw	low (STR_22| (0+32768))
  2338     15B1  00F1               	movwf	EUSART_Write_Text@text
  2339     15B2  30A1               	movlw	high (STR_22| (0+32768))
  2340     15B3  00F2               	movwf	EUSART_Write_Text@text+1
  2341     15B4  319E  2669  3195   	fcall	_EUSART_Write_Text
  2342     15B7                     l4257:
  2343                           
  2344                           ;main.c: 217:     memset(rx_buffer, 0, 48);
  2345     15B7  3000               	movlw	0
  2346     15B8  00F0               	movwf	memset@c
  2347     15B9  00F1               	movwf	memset@c+1
  2348     15BA  3030               	movlw	48
  2349     15BB  00F2               	movwf	memset@n
  2350     15BC  3000               	movlw	0
  2351     15BD  00F3               	movwf	memset@n+1
  2352     15BE  3020               	movlw	(low (_rx_buffer| (0+256)))& (0+255)
  2353     15BF  3190  2001  3195   	fcall	_memset
  2354     15C2                     l4259:
  2355                           
  2356                           ;main.c: 218:     rx_index = 0;
  2357     15C2  0021               	movlb	1	; select bank1
  2358     15C3  01E8               	clrf	_rx_index^(0+128)
  2359     15C4                     l4261:
  2360                           
  2361                           ;main.c: 221:     {;main.c: 222:         if (PIR1bits.RCIF) {
  2362     15C4  0020               	movlb	0	; select bank0
  2363     15C5  1E91               	btfss	17,5	;volatile
  2364     15C6  2DC8               	goto	u6591
  2365     15C7  2DC9               	goto	u6590
  2366     15C8                     u6591:
  2367     15C8  2DC4               	goto	l4261
  2368     15C9                     u6590:
  2369     15C9                     l4263:
  2370                           
  2371                           ;main.c: 223:             rx_char = EUSART_Read();
  2372     15C9  319E  2607  3195   	fcall	_EUSART_Read
  2373     15CC  0021               	movlb	1	; select bank1
  2374     15CD  00E2               	movwf	main@rx_char^(0+128)
  2375     15CE                     l4265:
  2376                           
  2377                           ;main.c: 224:             EUSART_Write(rx_char);
  2378     15CE  0862               	movf	main@rx_char^(0+128),w
  2379     15CF  319D  25FD  3195   	fcall	_EUSART_Write
  2380     15D2                     l4267:
  2381                           
  2382                           ;main.c: 226:             if (rx_char == '\r' || rx_char == '\n') {
  2383     15D2  300D               	movlw	13
  2384     15D3  0021               	movlb	1	; select bank1
  2385     15D4  0662               	xorwf	main@rx_char^(0+128),w
  2386     15D5  1903               	btfsc	3,2
  2387     15D6  2DD8               	goto	u6601
  2388     15D7  2DD9               	goto	u6600
  2389     15D8                     u6601:
  2390     15D8  2DDF               	goto	l4271
  2391     15D9                     u6600:
  2392     15D9                     l4269:
  2393     15D9  300A               	movlw	10
  2394     15DA  0662               	xorwf	main@rx_char^(0+128),w
  2395     15DB  1D03               	btfss	3,2
  2396     15DC  2DDE               	goto	u6611
  2397     15DD  2DDF               	goto	u6610
  2398     15DE                     u6611:
  2399     15DE  2E3F               	goto	l4301
  2400     15DF                     u6610:
  2401     15DF                     l4271:
  2402                           
  2403                           ;main.c: 227:                 EUSART_Write_Text("\r\n");
  2404     15DF  30FD               	movlw	low ((STR_9+1)| (0+32768))
  2405     15E0  00F1               	movwf	EUSART_Write_Text@text
  2406     15E1  30A0               	movlw	high ((STR_9+1)| (0+32768))
  2407     15E2  00F2               	movwf	EUSART_Write_Text@text+1
  2408     15E3  319E  2669  3195   	fcall	_EUSART_Write_Text
  2409     15E6                     l4273:
  2410                           
  2411                           ;main.c: 228:                 rx_buffer[rx_index] = '\0';
  2412     15E6  0021               	movlb	1	; select bank1
  2413     15E7  0868               	movf	_rx_index^(0+128),w
  2414     15E8  3E20               	addlw	(low (_rx_buffer| (0+256)))& (0+255)
  2415     15E9  0086               	movwf	6
  2416     15EA  3001               	movlw	1	; select bank2/3
  2417     15EB  0087               	movwf	7
  2418     15EC  0181               	clrf	1
  2419     15ED                     l4275:
  2420                           
  2421                           ;main.c: 231:                 if (rx_index > 0) {
  2422     15ED  0868               	movf	_rx_index^(0+128),w
  2423     15EE  1903               	btfsc	3,2
  2424     15EF  2DF1               	goto	u6621
  2425     15F0  2DF2               	goto	u6620
  2426     15F1                     u6621:
  2427     15F1  2E2C               	goto	l4295
  2428     15F2                     u6620:
  2429     15F2                     l4277:
  2430                           
  2431                           ;main.c: 232:                     if (rx_buffer[0] == 'd' || rx_buffer[0] == 'D') {
  2432     15F2  3064               	movlw	100
  2433     15F3  0022               	movlb	2	; select bank2
  2434     15F4  0620               	xorwf	_rx_buffer^(0+256),w
  2435     15F5  1903               	btfsc	3,2
  2436     15F6  2DF8               	goto	u6631
  2437     15F7  2DF9               	goto	u6630
  2438     15F8                     u6631:
  2439     15F8  2DFF               	goto	l4281
  2440     15F9                     u6630:
  2441     15F9                     l4279:
  2442     15F9  3044               	movlw	68
  2443     15FA  0620               	xorwf	_rx_buffer^(0+256),w
  2444     15FB  1D03               	btfss	3,2
  2445     15FC  2DFE               	goto	u6641
  2446     15FD  2DFF               	goto	u6640
  2447     15FE                     u6641:
  2448     15FE  2E03               	goto	l4283
  2449     15FF                     u6640:
  2450     15FF                     l4281:
  2451                           
  2452                           ;main.c: 233:                         run_demo();
  2453     15FF  3190  209F  3195   	fcall	_run_demo
  2454                           
  2455                           ;main.c: 234:                     }
  2456     1602  2E2C               	goto	l4295
  2457     1603                     l4283:
  2458                           
  2459                           ;main.c: 237:                         num_parsed = parse_features(rx_buffer, features);
  2460     1603  30D2               	movlw	(low (main@features| 0))& (0+255)
  2461     1604  0020               	movlb	0	; select bank0
  2462     1605  00E6               	movwf	parse_features@features
  2463     1606  3020               	movlw	(low (_rx_buffer| (0+256)))& (0+255)
  2464     1607  3192  2262  3195   	fcall	_parse_features
  2465     160A  0021               	movlb	1	; select bank1
  2466     160B  00D1               	movwf	main@num_parsed^(0+128)
  2467     160C                     l4285:
  2468                           
  2469                           ;main.c: 239:                         if (num_parsed == 4) {
  2470     160C  3004               	movlw	4
  2471     160D  0651               	xorwf	main@num_parsed^(0+128),w
  2472     160E  1D03               	btfss	3,2
  2473     160F  2E11               	goto	u6651
  2474     1610  2E12               	goto	u6650
  2475     1611                     u6651:
  2476     1611  2E17               	goto	l4289
  2477     1612                     u6650:
  2478     1612                     l4287:
  2479                           
  2480                           ;main.c: 240:                             classify_and_print(features);
  2481     1612  30D2               	movlw	(low (main@features| 0))& (0+255)
  2482     1613  3191  2163  3195   	fcall	_classify_and_print
  2483                           
  2484                           ;main.c: 241:                         }
  2485     1616  2E2C               	goto	l4295
  2486     1617                     l4289:
  2487                           
  2488                           ;main.c: 243:                             EUSART_Write_Text("Error: Need ");
  2489     1617  3084               	movlw	low (STR_24| (0+32768))
  2490     1618  00F1               	movwf	EUSART_Write_Text@text
  2491     1619  30A0               	movlw	high (STR_24| (0+32768))
  2492     161A  00F2               	movwf	EUSART_Write_Text@text+1
  2493     161B  319E  2669  3195   	fcall	_EUSART_Write_Text
  2494     161E                     l4291:
  2495                           
  2496                           ;main.c: 244:                             EUSART_Write_Integer(4);
  2497     161E  3004               	movlw	4
  2498     161F  00FB               	movwf	EUSART_Write_Integer@value_to_send
  2499     1620  3000               	movlw	0
  2500     1621  00FC               	movwf	EUSART_Write_Integer@value_to_send+1
  2501     1622  319E  26E8  3195   	fcall	_EUSART_Write_Integer
  2502     1625                     l4293:
  2503                           
  2504                           ;main.c: 245:                             EUSART_Write_Text(" values\r\n");
  2505     1625  30A8               	movlw	low (STR_25| (0+32768))
  2506     1626  00F1               	movwf	EUSART_Write_Text@text
  2507     1627  30A0               	movlw	high (STR_25| (0+32768))
  2508     1628  00F2               	movwf	EUSART_Write_Text@text+1
  2509     1629  319E  2669  3195   	fcall	_EUSART_Write_Text
  2510     162C                     l4295:
  2511                           
  2512                           ;main.c: 250:                 EUSART_Write_Text("> ");
  2513     162C  3007               	movlw	low (STR_22| (0+32768))
  2514     162D  00F1               	movwf	EUSART_Write_Text@text
  2515     162E  30A1               	movlw	high (STR_22| (0+32768))
  2516     162F  00F2               	movwf	EUSART_Write_Text@text+1
  2517     1630  319E  2669  3195   	fcall	_EUSART_Write_Text
  2518     1633                     l4297:
  2519                           
  2520                           ;main.c: 251:                 memset(rx_buffer, 0, 48);
  2521     1633  3000               	movlw	0
  2522     1634  00F0               	movwf	memset@c
  2523     1635  00F1               	movwf	memset@c+1
  2524     1636  3030               	movlw	48
  2525     1637  00F2               	movwf	memset@n
  2526     1638  3000               	movlw	0
  2527     1639  00F3               	movwf	memset@n+1
  2528     163A  3020               	movlw	(low (_rx_buffer| (0+256)))& (0+255)
  2529     163B  3190  2001  3195   	fcall	_memset
  2530     163E  2DC2               	goto	l4259
  2531     163F                     l4301:
  2532     163F  302F               	movlw	47
  2533     1640  0268               	subwf	_rx_index^(0+128),w
  2534     1641  1803               	skipnc
  2535     1642  2E44               	goto	u6661
  2536     1643  2E45               	goto	u6660
  2537     1644                     u6661:
  2538     1644  2E53               	goto	l244
  2539     1645                     u6660:
  2540     1645                     l4303:
  2541                           
  2542                           ;main.c: 255:                 rx_buffer[rx_index++] = (char)rx_char;
  2543     1645  0868               	movf	_rx_index^(0+128),w
  2544     1646  3E20               	addlw	(low (_rx_buffer| (0+256)))& (0+255)
  2545     1647  0086               	movwf	6
  2546     1648  3001               	movlw	1	; select bank2/3
  2547     1649  0087               	movwf	7
  2548     164A  0862               	movf	main@rx_char^(0+128),w
  2549     164B  0081               	movwf	1
  2550     164C                     l4305:
  2551     164C  3001               	movlw	1
  2552     164D  0020               	movlb	0	; select bank0
  2553     164E  00EE               	movwf	??_main
  2554     164F  086E               	movf	??_main,w
  2555     1650  0021               	movlb	1	; select bank1
  2556     1651  07E8               	addwf	_rx_index^(0+128),f
  2557     1652  2DC4               	goto	l4261
  2558     1653                     l244:	
  2559                           ;main.c: 257:         }
  2560                           
  2561     1653  2DC4               	goto	l4261
  2562     1654  3180  2802         	ljmp	start
  2563     1656                     __end_of_main:
  2564                           
  2565                           	psect	text1
  2566     109F                     __ptext1:	
  2567 ;; *************** function _run_demo *****************
  2568 ;; Defined at:
  2569 ;;		line 169 in file "main.c"
  2570 ;; Parameters:    Size  Location     Type
  2571 ;;		None
  2572 ;; Auto vars:     Size  Location     Type
  2573 ;;  samples        48    0[BANK1 ] float [4][3]
  2574 ;;  i               1   48[BANK1 ] unsigned char 
  2575 ;; Return value:  Size  Location     Type
  2576 ;;                  1    wreg      void 
  2577 ;; Registers used:
  2578 ;;		wreg, fsr0l, fsr0h, fsr1l, fsr1h, status,2, status,0, pclath, cstack
  2579 ;; Tracked objects:
  2580 ;;		On entry : 0/0
  2581 ;;		On exit  : 0/0
  2582 ;;		Unchanged: 0/0
  2583 ;; Data sizes:     COMMON   BANK0   BANK1   BANK2   BANK3   BANK4   BANK5   BANK6   BANK7   BANK8   BANK9  BANK10  BANK1
      +1  BANK12  BANK13  BANK14  BANK15  BANK16  BANK17  BANK18  BANK19  BANK20  BANK21  BANK22  BANK23  BANK24  BANK25
  2584 ;;      Params:         0       0       0       0       0       0       0       0       0       0       0       0       
      +0       0       0       0       0       0       0       0       0       0       0       0       0       0       0
  2585 ;;      Locals:         0       0      49       0       0       0       0       0       0       0       0       0       
      +0       0       0       0       0       0       0       0       0       0       0       0       0       0       0
  2586 ;;      Temps:          0       1       0       0       0       0       0       0       0       0       0       0       
      +0       0       0       0       0       0       0       0       0       0       0       0       0       0       0
  2587 ;;      Totals:         0       1      49       0       0       0       0       0       0       0       0       0       
      +0       0       0       0       0       0       0       0       0       0       0       0       0       0       0
  2588 ;;Total ram usage:       50 bytes
  2589 ;; Hardware stack levels used: 1
  2590 ;; Hardware stack levels required when called: 5
  2591 ;; This function calls:
  2592 ;;		_EUSART_Write_Integer
  2593 ;;		_EUSART_Write_Text
  2594 ;;		_classify_and_print
  2595 ;; This function is called by:
  2596 ;;		_main
  2597 ;; This function uses a non-reentrant model
  2598 ;;
  2599                           
  2600     109F                     _run_demo:	
  2601                           ;psect for function _run_demo
  2602                           
  2603     109F                     l4197:	
  2604                           ;incstack = 0
  2605                           ; Regs used in _run_demo: [wreg-fsr1h+status,2+status,0+pclath+cstack]
  2606                           
  2607                           
  2608                           ;main.c: 172:     float samples[3][4] = {
  2609     109F  30A0               	movlw	low run_demo@F6251
  2610     10A0  0086               	movwf	6
  2611     10A1  3001               	movlw	high run_demo@F6251
  2612     10A2  0087               	movwf	7
  2613     10A3  30A0               	movlw	low run_demo@samples
  2614     10A4  0084               	movwf	4
  2615     10A5  3000               	movlw	high run_demo@samples
  2616     10A6  0085               	movwf	5
  2617     10A7  3030               	movlw	48
  2618     10A8  0020               	movlb	0	; select bank0
  2619     10A9  00E1               	movwf	??_run_demo
  2620     10AA                     u6540:
  2621     10AA  0016               	moviw fsr1++
  2622     10AB  001A               	movwi fsr0++
  2623     10AC  0BE1               	decfsz	??_run_demo,f
  2624     10AD  28AA               	goto	u6540
  2625     10AE                     l4199:
  2626                           
  2627                           ;main.c: 178:     unsigned char i;;main.c: 180:     EUSART_Write_Text("\r\n=== Demo Mode
      +                           ===\r\n");
  2628     10AE  3050               	movlw	low (STR_10| (0+32768))
  2629     10AF  00F1               	movwf	EUSART_Write_Text@text
  2630     10B0  30A0               	movlw	high (STR_10| (0+32768))
  2631     10B1  00F2               	movwf	EUSART_Write_Text@text+1
  2632     10B2  319E  2669  3190   	fcall	_EUSART_Write_Text
  2633     10B5                     l4201:
  2634                           
  2635                           ;main.c: 182:     for (i = 0; i < 3; i++) {
  2636     10B5  0021               	movlb	1	; select bank1
  2637     10B6  01D0               	clrf	run_demo@i^(0+128)
  2638     10B7                     l4207:
  2639                           
  2640                           ;main.c: 183:         EUSART_Write_Text("\r\nSample ");
  2641     10B7  30B2               	movlw	low (STR_11| (0+32768))
  2642     10B8  00F1               	movwf	EUSART_Write_Text@text
  2643     10B9  30A0               	movlw	high (STR_11| (0+32768))
  2644     10BA  00F2               	movwf	EUSART_Write_Text@text+1
  2645     10BB  319E  2669  3190   	fcall	_EUSART_Write_Text
  2646     10BE                     l4209:
  2647                           
  2648                           ;main.c: 184:         EUSART_Write_Integer(i + 1);
  2649     10BE  0021               	movlb	1	; select bank1
  2650     10BF  0850               	movf	run_demo@i^(0+128),w
  2651     10C0  3E01               	addlw	1
  2652     10C1  00FB               	movwf	EUSART_Write_Integer@value_to_send
  2653     10C2  3000               	movlw	0
  2654     10C3  1803               	skipnc
  2655     10C4  3001               	movlw	1
  2656     10C5  00FC               	movwf	EUSART_Write_Integer@value_to_send+1
  2657     10C6  319E  26E8  3190   	fcall	_EUSART_Write_Integer
  2658     10C9                     l4211:
  2659                           
  2660                           ;main.c: 185:         EUSART_Write_Text(":\r\n");
  2661     10C9  3099               	movlw	low ((STR_18+8)| (0+32768))
  2662     10CA  00F1               	movwf	EUSART_Write_Text@text
  2663     10CB  30A0               	movlw	high ((STR_18+8)| (0+32768))
  2664     10CC  00F2               	movwf	EUSART_Write_Text@text+1
  2665     10CD  319E  2669  3190   	fcall	_EUSART_Write_Text
  2666                           
  2667                           ;main.c: 186:         classify_and_print(samples[i]);
  2668     10D0  0021               	movlb	1	; select bank1
  2669     10D1  0850               	movf	run_demo@i^(0+128),w
  2670     10D2  0020               	movlb	0	; select bank0
  2671     10D3  00E1               	movwf	??_run_demo
  2672     10D4  3003               	movlw	3
  2673     10D5                     u6555:
  2674     10D5  35E1               	lslf	??_run_demo,f
  2675     10D6  3EFF               	addlw	-1
  2676     10D7  1D03               	skipz
  2677     10D8  28D5               	goto	u6555
  2678     10D9  3561               	lslf	??_run_demo,w
  2679     10DA  3EA0               	addlw	(low (run_demo@samples| 0))& (0+255)
  2680     10DB  3191  2163  3190   	fcall	_classify_and_print
  2681     10DE                     l4213:
  2682                           
  2683                           ;main.c: 187:     }
  2684     10DE  3001               	movlw	1
  2685     10DF  0020               	movlb	0	; select bank0
  2686     10E0  00E1               	movwf	??_run_demo
  2687     10E1  0861               	movf	??_run_demo,w
  2688     10E2  0021               	movlb	1	; select bank1
  2689     10E3  07D0               	addwf	run_demo@i^(0+128),f
  2690     10E4                     l4215:
  2691     10E4  3003               	movlw	3
  2692     10E5  0250               	subwf	run_demo@i^(0+128),w
  2693     10E6  1C03               	skipc
  2694     10E7  28E9               	goto	u6561
  2695     10E8  28EA               	goto	u6560
  2696     10E9                     u6561:
  2697     10E9  28B7               	goto	l4207
  2698     10EA                     u6560:
  2699     10EA                     l4217:
  2700                           
  2701                           ;main.c: 189:     EUSART_Write_Text("\r\n=== Done ===\r\n");
  2702     10EA  3066               	movlw	low (STR_13| (0+32768))
  2703     10EB  00F1               	movwf	EUSART_Write_Text@text
  2704     10EC  30A0               	movlw	high (STR_13| (0+32768))
  2705     10ED  00F2               	movwf	EUSART_Write_Text@text+1
  2706     10EE  319E  2669  3190   	fcall	_EUSART_Write_Text
  2707     10F1                     l238:
  2708     10F1  0008               	return
  2709     10F2                     __end_of_run_demo:
  2710                           
  2711                           	psect	text2
  2712     1163                     __ptext2:	
  2713 ;; *************** function _classify_and_print *****************
  2714 ;; Defined at:
  2715 ;;		line 139 in file "main.c"
  2716 ;; Parameters:    Size  Location     Type
  2717 ;;  features        1    wreg     PTR float 
  2718 ;;		 -> main@features(16), run_demo@samples(48), 
  2719 ;; Auto vars:     Size  Location     Type
  2720 ;;  features        1   63[BANK0 ] PTR float 
  2721 ;;		 -> main@features(16), run_demo@samples(48), 
  2722 ;;  i               1   64[BANK0 ] unsigned char 
  2723 ;;  prediction      1   62[BANK0 ] char 
  2724 ;; Return value:  Size  Location     Type
  2725 ;;                  1    wreg      void 
  2726 ;; Registers used:
  2727 ;;		wreg, fsr0l, fsr0h, fsr1l, fsr1h, status,2, status,0, pclath, cstack
  2728 ;; Tracked objects:
  2729 ;;		On entry : 0/0
  2730 ;;		On exit  : 0/0
  2731 ;;		Unchanged: 0/0
  2732 ;; Data sizes:     COMMON   BANK0   BANK1   BANK2   BANK3   BANK4   BANK5   BANK6   BANK7   BANK8   BANK9  BANK10  BANK1
      +1  BANK12  BANK13  BANK14  BANK15  BANK16  BANK17  BANK18  BANK19  BANK20  BANK21  BANK22  BANK23  BANK24  BANK25
  2733 ;;      Params:         0       0       0       0       0       0       0       0       0       0       0       0       
      +0       0       0       0       0       0       0       0       0       0       0       0       0       0       0
  2734 ;;      Locals:         0       3       0       0       0       0       0       0       0       0       0       0       
      +0       0       0       0       0       0       0       0       0       0       0       0       0       0       0
  2735 ;;      Temps:          0       2       0       0       0       0       0       0       0       0       0       0       
      +0       0       0       0       0       0       0       0       0       0       0       0       0       0       0
  2736 ;;      Totals:         0       5       0       0       0       0       0       0       0       0       0       0       
      +0       0       0       0       0       0       0       0       0       0       0       0       0       0       0
  2737 ;;Total ram usage:        5 bytes
  2738 ;; Hardware stack levels used: 1
  2739 ;; Hardware stack levels required when called: 4
  2740 ;; This function calls:
  2741 ;;		_EUSART_Write_Integer
  2742 ;;		_EUSART_Write_Text
  2743 ;;		_ml_predict
  2744 ;;		_print_float
  2745 ;; This function is called by:
  2746 ;;		_run_demo
  2747 ;;		_main
  2748 ;; This function uses a non-reentrant model
  2749 ;;
  2750                           
  2751     1163                     _classify_and_print:	
  2752                           ;psect for function _classify_and_print
  2753                           
  2754                           
  2755                           ;incstack = 0
  2756                           ; Regs used in _classify_and_print: [wreg-fsr1h+status,2+status,0+pclath+cstack]
  2757                           ;classify_and_print@features stored from wreg
  2758     1163  0020               	movlb	0	; select bank0
  2759     1164  00DF               	movwf	classify_and_print@features
  2760     1165                     l4029:
  2761                           
  2762                           ;main.c: 139: void classify_and_print(float *features);main.c: 140: {;main.c: 141:     s
      +                          igned char prediction;;main.c: 142:     unsigned char i;;main.c: 145:     EUSART_Write_T
      +                          ext("Input: [");
  2763     1165  30D8               	movlw	low (STR_4| (0+32768))
  2764     1166  00F1               	movwf	EUSART_Write_Text@text
  2765     1167  30A0               	movlw	high (STR_4| (0+32768))
  2766     1168  00F2               	movwf	EUSART_Write_Text@text+1
  2767     1169  319E  2669  3191   	fcall	_EUSART_Write_Text
  2768     116C                     l4031:
  2769                           
  2770                           ;main.c: 146:     for (i = 0; i < 4; i++) {
  2771     116C  0020               	movlb	0	; select bank0
  2772     116D  01E0               	clrf	classify_and_print@i
  2773     116E                     l4037:
  2774                           
  2775                           ;main.c: 147:         print_float(features[i]);
  2776     116E  0860               	movf	classify_and_print@i,w
  2777     116F  00DC               	movwf	??_classify_and_print
  2778     1170  3001               	movlw	1
  2779     1171                     u6275:
  2780     1171  35DC               	lslf	??_classify_and_print,f
  2781     1172  3EFF               	addlw	-1
  2782     1173  1D03               	skipz
  2783     1174  2971               	goto	u6275
  2784     1175  355C               	lslf	??_classify_and_print,w
  2785     1176  075F               	addwf	classify_and_print@features,w
  2786     1177  00DD               	movwf	??_classify_and_print+1
  2787     1178  085D               	movf	??_classify_and_print+1,w
  2788     1179  0086               	movwf	6
  2789     117A  0187               	clrf	7
  2790     117B  3F40               	moviw [0]fsr1
  2791     117C  00D4               	movwf	print_float@val
  2792     117D  3F41               	moviw [1]fsr1
  2793     117E  00D5               	movwf	print_float@val+1
  2794     117F  3F42               	moviw [2]fsr1
  2795     1180  00D6               	movwf	print_float@val+2
  2796     1181  3F43               	moviw [3]fsr1
  2797     1182  00D7               	movwf	print_float@val+3
  2798     1183  3194  2416  3191   	fcall	_print_float
  2799     1186                     l4039:
  2800                           
  2801                           ;main.c: 148:         if (i < 4 - 1) {
  2802     1186  3003               	movlw	3
  2803     1187  0020               	movlb	0	; select bank0
  2804     1188  0260               	subwf	classify_and_print@i,w
  2805     1189  1803               	skipnc
  2806     118A  298C               	goto	u6281
  2807     118B  298D               	goto	u6280
  2808     118C                     u6281:
  2809     118C  2994               	goto	l4043
  2810     118D                     u6280:
  2811     118D                     l4041:
  2812                           
  2813                           ;main.c: 149:             EUSART_Write_Text(", ");
  2814     118D  3004               	movlw	low (STR_5| (0+32768))
  2815     118E  00F1               	movwf	EUSART_Write_Text@text
  2816     118F  30A1               	movlw	high (STR_5| (0+32768))
  2817     1190  00F2               	movwf	EUSART_Write_Text@text+1
  2818     1191  319E  2669  3191   	fcall	_EUSART_Write_Text
  2819     1194                     l4043:
  2820                           
  2821                           ;main.c: 151:     }
  2822     1194  3001               	movlw	1
  2823     1195  0020               	movlb	0	; select bank0
  2824     1196  00DC               	movwf	??_classify_and_print
  2825     1197  085C               	movf	??_classify_and_print,w
  2826     1198  07E0               	addwf	classify_and_print@i,f
  2827     1199                     l4045:
  2828     1199  3004               	movlw	4
  2829     119A  0260               	subwf	classify_and_print@i,w
  2830     119B  1C03               	skipc
  2831     119C  299E               	goto	u6291
  2832     119D  299F               	goto	u6290
  2833     119E                     u6291:
  2834     119E  296E               	goto	l4037
  2835     119F                     u6290:
  2836     119F                     l4047:
  2837                           
  2838                           ;main.c: 152:     EUSART_Write_Text("]\r\n");
  2839     119F  3000               	movlw	low (STR_6| (0+32768))
  2840     11A0  00F1               	movwf	EUSART_Write_Text@text
  2841     11A1  30A1               	movlw	high (STR_6| (0+32768))
  2842     11A2  00F2               	movwf	EUSART_Write_Text@text+1
  2843     11A3  319E  2669  3191   	fcall	_EUSART_Write_Text
  2844     11A6                     l4049:
  2845                           
  2846                           ;main.c: 155:     prediction = ml_predict(features);
  2847     11A6  0020               	movlb	0	; select bank0
  2848     11A7  085F               	movf	classify_and_print@features,w
  2849     11A8  318C  24AE  3191   	fcall	_ml_predict
  2850     11AB  0020               	movlb	0	; select bank0
  2851     11AC  00DE               	movwf	classify_and_print@prediction
  2852     11AD                     l4051:
  2853                           
  2854                           ;main.c: 158:     EUSART_Write_Text("Class: ");
  2855     11AD  30E1               	movlw	low (STR_7| (0+32768))
  2856     11AE  00F1               	movwf	EUSART_Write_Text@text
  2857     11AF  30A0               	movlw	high (STR_7| (0+32768))
  2858     11B0  00F2               	movwf	EUSART_Write_Text@text+1
  2859     11B1  319E  2669  3191   	fcall	_EUSART_Write_Text
  2860     11B4                     l4053:
  2861                           
  2862                           ;main.c: 159:     EUSART_Write_Text((char*)class_names[prediction]);
  2863     11B4  0020               	movlb	0	; select bank0
  2864     11B5  355E               	lslf	classify_and_print@prediction,w
  2865     11B6  3EE9               	addlw	(low (_class_names| 0))& (0+255)
  2866     11B7  0086               	movwf	6
  2867     11B8  0187               	clrf	7
  2868     11B9  3F40               	moviw [0]fsr1
  2869     11BA  00F1               	movwf	EUSART_Write_Text@text
  2870     11BB  3F41               	moviw [1]fsr1
  2871     11BC  00F2               	movwf	EUSART_Write_Text@text+1
  2872     11BD  319E  2669  3191   	fcall	_EUSART_Write_Text
  2873     11C0                     l4055:
  2874                           
  2875                           ;main.c: 160:     EUSART_Write_Text(" (");
  2876     11C0  300A               	movlw	low (STR_8| (0+32768))
  2877     11C1  00F1               	movwf	EUSART_Write_Text@text
  2878     11C2  30A1               	movlw	high (STR_8| (0+32768))
  2879     11C3  00F2               	movwf	EUSART_Write_Text@text+1
  2880     11C4  319E  2669  3191   	fcall	_EUSART_Write_Text
  2881     11C7                     l4057:
  2882                           
  2883                           ;main.c: 161:     EUSART_Write_Integer(prediction);
  2884     11C7  0020               	movlb	0	; select bank0
  2885     11C8  085E               	movf	classify_and_print@prediction,w
  2886     11C9  00FB               	movwf	EUSART_Write_Integer@value_to_send
  2887     11CA  01FC               	clrf	EUSART_Write_Integer@value_to_send+1
  2888     11CB  1BFB               	btfsc	EUSART_Write_Integer@value_to_send,7
  2889     11CC  03FC               	decf	EUSART_Write_Integer@value_to_send+1,f
  2890     11CD  319E  26E8  3191   	fcall	_EUSART_Write_Integer
  2891     11D0                     l4059:
  2892                           
  2893                           ;main.c: 162:     EUSART_Write_Text(")\r\n");
  2894     11D0  30FC               	movlw	low (STR_9| (0+32768))
  2895     11D1  00F1               	movwf	EUSART_Write_Text@text
  2896     11D2  30A0               	movlw	high (STR_9| (0+32768))
  2897     11D3  00F2               	movwf	EUSART_Write_Text@text+1
  2898     11D4  319E  2669  3191   	fcall	_EUSART_Write_Text
  2899     11D7                     l231:
  2900     11D7  0008               	return
  2901     11D8                     __end_of_classify_and_print:
  2902                           
  2903                           	psect	text3
  2904     1416                     __ptext3:	
  2905 ;; *************** function _print_float *****************
  2906 ;; Defined at:
  2907 ;;		line 80 in file "main.c"
  2908 ;; Parameters:    Size  Location     Type
  2909 ;;  val             4   52[BANK0 ] float 
  2910 ;; Auto vars:     Size  Location     Type
  2911 ;;  whole           2   58[BANK0 ] int 
  2912 ;;  frac            2   56[BANK0 ] int 
  2913 ;; Return value:  Size  Location     Type
  2914 ;;                  1    wreg      void 
  2915 ;; Registers used:
  2916 ;;		wreg, fsr0l, fsr0h, fsr1l, fsr1h, status,2, status,0, pclath, cstack
  2917 ;; Tracked objects:
  2918 ;;		On entry : 0/0
  2919 ;;		On exit  : 0/0
  2920 ;;		Unchanged: 0/0
  2921 ;; Data sizes:     COMMON   BANK0   BANK1   BANK2   BANK3   BANK4   BANK5   BANK6   BANK7   BANK8   BANK9  BANK10  BANK1
      +1  BANK12  BANK13  BANK14  BANK15  BANK16  BANK17  BANK18  BANK19  BANK20  BANK21  BANK22  BANK23  BANK24  BANK25
  2922 ;;      Params:         0       4       0       0       0       0       0       0       0       0       0       0       
      +0       0       0       0       0       0       0       0       0       0       0       0       0       0       0
  2923 ;;      Locals:         0       4       0       0       0       0       0       0       0       0       0       0       
      +0       0       0       0       0       0       0       0       0       0       0       0       0       0       0
  2924 ;;      Temps:          0       0       0       0       0       0       0       0       0       0       0       0       
      +0       0       0       0       0       0       0       0       0       0       0       0       0       0       0
  2925 ;;      Totals:         0       8       0       0       0       0       0       0       0       0       0       0       
      +0       0       0       0       0       0       0       0       0       0       0       0       0       0       0
  2926 ;;Total ram usage:        8 bytes
  2927 ;; Hardware stack levels used: 1
  2928 ;; Hardware stack levels required when called: 3
  2929 ;; This function calls:
  2930 ;;		_EUSART_Write
  2931 ;;		_EUSART_Write_Integer
  2932 ;;		___flge
  2933 ;;		___flmul
  2934 ;;		___flneg
  2935 ;;		___flsub
  2936 ;;		___fltol
  2937 ;;		___xxtofl
  2938 ;; This function is called by:
  2939 ;;		_classify_and_print
  2940 ;; This function uses a non-reentrant model
  2941 ;;
  2942                           
  2943     1416                     _print_float:	
  2944                           ;psect for function _print_float
  2945                           
  2946     1416                     l3399:	
  2947                           ;incstack = 0
  2948                           ; Regs used in _print_float: [wreg-fsr1h+status,2+status,0+pclath+cstack]
  2949                           
  2950                           
  2951                           ;main.c: 80: void print_float(float val);main.c: 81: {;main.c: 82:     int whole, frac;;
      +                          main.c: 84:     if (val < 0) {
  2952     1416  0020               	movlb	0	; select bank0
  2953     1417  0857               	movf	print_float@val+3,w
  2954     1418  00F3               	movwf	___flge@ff1+3
  2955     1419  0856               	movf	print_float@val+2,w
  2956     141A  00F2               	movwf	___flge@ff1+2
  2957     141B  0855               	movf	print_float@val+1,w
  2958     141C  00F1               	movwf	___flge@ff1+1
  2959     141D  0854               	movf	print_float@val,w
  2960     141E  00F0               	movwf	___flge@ff1
  2961     141F  3000               	movlw	0
  2962     1420  00F7               	movwf	___flge@ff2+3
  2963     1421  3000               	movlw	0
  2964     1422  00F6               	movwf	___flge@ff2+2
  2965     1423  3000               	movlw	0
  2966     1424  00F5               	movwf	___flge@ff2+1
  2967     1425  3000               	movlw	0
  2968     1426  00F4               	movwf	___flge@ff2
  2969     1427  3191  21D8  3194   	fcall	___flge
  2970     142A  1803               	btfsc	3,0
  2971     142B  2C2D               	goto	u4871
  2972     142C  2C2E               	goto	u4870
  2973     142D                     u4871:
  2974     142D  2C47               	goto	l3405
  2975     142E                     u4870:
  2976     142E                     l3401:
  2977                           
  2978                           ;main.c: 85:         EUSART_Write('-');
  2979     142E  302D               	movlw	45
  2980     142F  319D  25FD  3194   	fcall	_EUSART_Write
  2981     1432                     l3403:
  2982                           
  2983                           ;main.c: 86:         val = -val;
  2984     1432  0020               	movlb	0	; select bank0
  2985     1433  0857               	movf	print_float@val+3,w
  2986     1434  00F3               	movwf	___flneg@f1+3
  2987     1435  0856               	movf	print_float@val+2,w
  2988     1436  00F2               	movwf	___flneg@f1+2
  2989     1437  0855               	movf	print_float@val+1,w
  2990     1438  00F1               	movwf	___flneg@f1+1
  2991     1439  0854               	movf	print_float@val,w
  2992     143A  00F0               	movwf	___flneg@f1
  2993     143B  3180  2008  3194   	fcall	___flneg
  2994     143E  0873               	movf	?___flneg+3,w
  2995     143F  0020               	movlb	0	; select bank0
  2996     1440  00D7               	movwf	print_float@val+3
  2997     1441  0872               	movf	?___flneg+2,w
  2998     1442  00D6               	movwf	print_float@val+2
  2999     1443  0871               	movf	?___flneg+1,w
  3000     1444  00D5               	movwf	print_float@val+1
  3001     1445  0870               	movf	?___flneg,w
  3002     1446  00D4               	movwf	print_float@val
  3003     1447                     l3405:
  3004                           
  3005                           ;main.c: 89:     whole = (int)val;
  3006     1447  0020               	movlb	0	; select bank0
  3007     1448  0857               	movf	print_float@val+3,w
  3008     1449  00CD               	movwf	___fltol@f1+3
  3009     144A  0856               	movf	print_float@val+2,w
  3010     144B  00CC               	movwf	___fltol@f1+2
  3011     144C  0855               	movf	print_float@val+1,w
  3012     144D  00CB               	movwf	___fltol@f1+1
  3013     144E  0854               	movf	print_float@val,w
  3014     144F  00CA               	movwf	___fltol@f1
  3015     1450  3190  20F2  3194   	fcall	___fltol
  3016     1453  0020               	movlb	0	; select bank0
  3017     1454  084B               	movf	?___fltol+1,w
  3018     1455  00DB               	movwf	print_float@whole+1
  3019     1456  084A               	movf	?___fltol,w
  3020     1457  00DA               	movwf	print_float@whole
  3021     1458                     l3407:
  3022                           
  3023                           ;main.c: 90:     frac = (int)((val - (float)whole) * 10.0f);
  3024     1458  0857               	movf	print_float@val+3,w
  3025     1459  00AF               	movwf	___flsub@b+3
  3026     145A  0856               	movf	print_float@val+2,w
  3027     145B  00AE               	movwf	___flsub@b+2
  3028     145C  0855               	movf	print_float@val+1,w
  3029     145D  00AD               	movwf	___flsub@b+1
  3030     145E  0854               	movf	print_float@val,w
  3031     145F  00AC               	movwf	___flsub@b
  3032     1460  085A               	movf	print_float@whole,w
  3033     1461  00F0               	movwf	___xxtofl@val
  3034     1462  085B               	movf	print_float@whole+1,w
  3035     1463  00F1               	movwf	___xxtofl@val+1
  3036     1464  0D89               	rlf	9,f
  3037     1465  3B89               	subwfb	9,f
  3038     1466  0989               	comf	9,f
  3039     1467  00F2               	movwf	___xxtofl@val+2
  3040     1468  00F3               	movwf	___xxtofl@val+3
  3041     1469  3001               	movlw	1
  3042     146A  3194  24B2  3194   	fcall	___xxtofl
  3043     146D  0873               	movf	?___xxtofl+3,w
  3044     146E  0020               	movlb	0	; select bank0
  3045     146F  00AB               	movwf	___flsub@a+3
  3046     1470  0872               	movf	?___xxtofl+2,w
  3047     1471  00AA               	movwf	___flsub@a+2
  3048     1472  0871               	movf	?___xxtofl+1,w
  3049     1473  00A9               	movwf	___flsub@a+1
  3050     1474  0870               	movf	?___xxtofl,w
  3051     1475  00A8               	movwf	___flsub@a
  3052     1476  319E  26A5  3194   	fcall	___flsub
  3053     1479  0020               	movlb	0	; select bank0
  3054     147A  082B               	movf	?___flsub+3,w
  3055     147B  00B7               	movwf	___flmul@a+3
  3056     147C  082A               	movf	?___flsub+2,w
  3057     147D  00B6               	movwf	___flmul@a+2
  3058     147E  0829               	movf	?___flsub+1,w
  3059     147F  00B5               	movwf	___flmul@a+1
  3060     1480  0828               	movf	?___flsub,w
  3061     1481  00B4               	movwf	___flmul@a
  3062     1482  3041               	movlw	65
  3063     1483  00B3               	movwf	___flmul@b+3
  3064     1484  3020               	movlw	32
  3065     1485  00B2               	movwf	___flmul@b+2
  3066     1486  3000               	movlw	0
  3067     1487  00B1               	movwf	___flmul@b+1
  3068     1488  3000               	movlw	0
  3069     1489  00B0               	movwf	___flmul@b
  3070     148A  318A  2273  3194   	fcall	___flmul
  3071     148D  0020               	movlb	0	; select bank0
  3072     148E  0833               	movf	?___flmul+3,w
  3073     148F  00CD               	movwf	___fltol@f1+3
  3074     1490  0832               	movf	?___flmul+2,w
  3075     1491  00CC               	movwf	___fltol@f1+2
  3076     1492  0831               	movf	?___flmul+1,w
  3077     1493  00CB               	movwf	___fltol@f1+1
  3078     1494  0830               	movf	?___flmul,w
  3079     1495  00CA               	movwf	___fltol@f1
  3080     1496  3190  20F2  3194   	fcall	___fltol
  3081     1499  0020               	movlb	0	; select bank0
  3082     149A  084B               	movf	?___fltol+1,w
  3083     149B  00D9               	movwf	print_float@frac+1
  3084     149C  084A               	movf	?___fltol,w
  3085     149D  00D8               	movwf	print_float@frac
  3086     149E                     l3409:
  3087                           
  3088                           ;main.c: 92:     EUSART_Write_Integer(whole);
  3089     149E  085B               	movf	print_float@whole+1,w
  3090     149F  00FC               	movwf	EUSART_Write_Integer@value_to_send+1
  3091     14A0  085A               	movf	print_float@whole,w
  3092     14A1  00FB               	movwf	EUSART_Write_Integer@value_to_send
  3093     14A2  319E  26E8  3194   	fcall	_EUSART_Write_Integer
  3094     14A5                     l3411:
  3095                           
  3096                           ;main.c: 93:     EUSART_Write('.');
  3097     14A5  302E               	movlw	46
  3098     14A6  319D  25FD  3194   	fcall	_EUSART_Write
  3099     14A9                     l3413:
  3100                           
  3101                           ;main.c: 94:     EUSART_Write_Integer(frac);
  3102     14A9  0020               	movlb	0	; select bank0
  3103     14AA  0859               	movf	print_float@frac+1,w
  3104     14AB  00FC               	movwf	EUSART_Write_Integer@value_to_send+1
  3105     14AC  0858               	movf	print_float@frac,w
  3106     14AD  00FB               	movwf	EUSART_Write_Integer@value_to_send
  3107     14AE  319E  26E8  3194   	fcall	_EUSART_Write_Integer
  3108     14B1                     l210:
  3109     14B1  0008               	return
  3110     14B2                     __end_of_print_float:
  3111                           
  3112                           	psect	text4
  3113     10F2                     __ptext4:	
  3114 ;; *************** function ___fltol *****************
  3115 ;; Defined at:
  3116 ;;		line 43 in file "C:\Program Files\Microchip\xc8\v2.46\pic\sources\c99\common\fltol.c"
  3117 ;; Parameters:    Size  Location     Type
  3118 ;;  f1              4   42[BANK0 ] void 
  3119 ;; Auto vars:     Size  Location     Type
  3120 ;;  exp1            1   51[BANK0 ] unsigned char 
  3121 ;;  sign1           1   50[BANK0 ] unsigned char 
  3122 ;; Return value:  Size  Location     Type
  3123 ;;                  4   42[BANK0 ] long 
  3124 ;; Registers used:
  3125 ;;		wreg, status,2, status,0
  3126 ;; Tracked objects:
  3127 ;;		On entry : 0/0
  3128 ;;		On exit  : 0/0
  3129 ;;		Unchanged: 0/0
  3130 ;; Data sizes:     COMMON   BANK0   BANK1   BANK2   BANK3   BANK4   BANK5   BANK6   BANK7   BANK8   BANK9  BANK10  BANK1
      +1  BANK12  BANK13  BANK14  BANK15  BANK16  BANK17  BANK18  BANK19  BANK20  BANK21  BANK22  BANK23  BANK24  BANK25
  3131 ;;      Params:         0       4       0       0       0       0       0       0       0       0       0       0       
      +0       0       0       0       0       0       0       0       0       0       0       0       0       0       0
  3132 ;;      Locals:         0       2       0       0       0       0       0       0       0       0       0       0       
      +0       0       0       0       0       0       0       0       0       0       0       0       0       0       0
  3133 ;;      Temps:          0       4       0       0       0       0       0       0       0       0       0       0       
      +0       0       0       0       0       0       0       0       0       0       0       0       0       0       0
  3134 ;;      Totals:         0      10       0       0       0       0       0       0       0       0       0       0       
      +0       0       0       0       0       0       0       0       0       0       0       0       0       0       0
  3135 ;;Total ram usage:       10 bytes
  3136 ;; Hardware stack levels used: 1
  3137 ;; This function calls:
  3138 ;;		Nothing
  3139 ;; This function is called by:
  3140 ;;		_print_float
  3141 ;; This function uses a non-reentrant model
  3142 ;;
  3143                           
  3144     10F2                     ___fltol:	
  3145                           ;psect for function ___fltol
  3146                           
  3147     10F2                     l3019:	
  3148                           ;incstack = 0
  3149                           ; Regs used in ___fltol: [wreg+status,2+status,0]
  3150                           
  3151     10F2  1003               	clrc
  3152     10F3  0020               	movlb	0	; select bank0
  3153     10F4  0D4C               	rlf	___fltol@f1+2,w
  3154     10F5  0D4D               	rlf	___fltol@f1+3,w
  3155     10F6  00D3               	movwf	___fltol@exp1
  3156     10F7  0853               	movf	___fltol@exp1,w
  3157     10F8  1D03               	btfss	3,2
  3158     10F9  28FB               	goto	u4141
  3159     10FA  28FC               	goto	u4140
  3160     10FB                     u4141:
  3161     10FB  2905               	goto	l3025
  3162     10FC                     u4140:
  3163     10FC                     l3021:
  3164     10FC  3000               	movlw	0
  3165     10FD  00CD               	movwf	?___fltol+3
  3166     10FE  3000               	movlw	0
  3167     10FF  00CC               	movwf	?___fltol+2
  3168     1100  3000               	movlw	0
  3169     1101  00CB               	movwf	?___fltol+1
  3170     1102  3000               	movlw	0
  3171     1103  00CA               	movwf	?___fltol
  3172     1104  2962               	goto	l521
  3173     1105                     l3025:
  3174     1105  084A               	movf	___fltol@f1,w
  3175     1106  00CE               	movwf	??___fltol
  3176     1107  084B               	movf	___fltol@f1+1,w
  3177     1108  00CF               	movwf	??___fltol+1
  3178     1109  084C               	movf	___fltol@f1+2,w
  3179     110A  00D0               	movwf	??___fltol+2
  3180     110B  084D               	movf	___fltol@f1+3,w
  3181     110C  00D1               	movwf	??___fltol+3
  3182     110D  301F               	movlw	31
  3183     110E                     u4155:
  3184     110E  36D1               	lsrf	??___fltol+3,f
  3185     110F  0CD0               	rrf	??___fltol+2,f
  3186     1110  0CCF               	rrf	??___fltol+1,f
  3187     1111  0CCE               	rrf	??___fltol,f
  3188     1112                     u4150:
  3189     1112  0B89               	decfsz	9,f
  3190     1113  290E               	goto	u4155
  3191     1114  084E               	movf	??___fltol,w
  3192     1115  00D2               	movwf	___fltol@sign1
  3193     1116                     l3027:
  3194     1116  17CC               	bsf	___fltol@f1+2,7
  3195     1117                     l3029:
  3196     1117  30FF               	movlw	255
  3197     1118  05CA               	andwf	___fltol@f1,f
  3198     1119  30FF               	movlw	255
  3199     111A  05CB               	andwf	___fltol@f1+1,f
  3200     111B  30FF               	movlw	255
  3201     111C  05CC               	andwf	___fltol@f1+2,f
  3202     111D  3000               	movlw	0
  3203     111E  05CD               	andwf	___fltol@f1+3,f
  3204     111F                     l3031:
  3205     111F  3096               	movlw	150
  3206     1120  02D3               	subwf	___fltol@exp1,f
  3207     1121                     l3033:
  3208     1121  1FD3               	btfss	___fltol@exp1,7
  3209     1122  2924               	goto	u4161
  3210     1123  2925               	goto	u4160
  3211     1124                     u4161:
  3212     1124  293D               	goto	l3043
  3213     1125                     u4160:
  3214     1125                     l3035:
  3215     1125  0853               	movf	___fltol@exp1,w
  3216     1126  3A80               	xorlw	128
  3217     1127  3E97               	addlw	151
  3218     1128  1803               	skipnc
  3219     1129  292B               	goto	u4171
  3220     112A  292C               	goto	u4170
  3221     112B                     u4171:
  3222     112B  292D               	goto	l3041
  3223     112C                     u4170:
  3224     112C  28FC               	goto	l3021
  3225     112D                     l3041:
  3226     112D  3001               	movlw	1
  3227     112E                     u4185:
  3228     112E  36CD               	lsrf	___fltol@f1+3,f
  3229     112F  0CCC               	rrf	___fltol@f1+2,f
  3230     1130  0CCB               	rrf	___fltol@f1+1,f
  3231     1131  0CCA               	rrf	___fltol@f1,f
  3232     1132  0B89               	decfsz	9,f
  3233     1133  292E               	goto	u4185
  3234     1134  3001               	movlw	1
  3235     1135  00CE               	movwf	??___fltol
  3236     1136  084E               	movf	??___fltol,w
  3237     1137  07D3               	addwf	___fltol@exp1,f
  3238     1138  1D03               	btfss	3,2
  3239     1139  293B               	goto	u4191
  3240     113A  293C               	goto	u4190
  3241     113B                     u4191:
  3242     113B  292D               	goto	l3041
  3243     113C                     u4190:
  3244     113C  2952               	goto	l3051
  3245     113D                     l3043:
  3246     113D  3020               	movlw	32
  3247     113E  0253               	subwf	___fltol@exp1,w
  3248     113F  1C03               	skipc
  3249     1140  2942               	goto	u4201
  3250     1141  2943               	goto	u4200
  3251     1142                     u4201:
  3252     1142  294D               	goto	l528
  3253     1143                     u4200:
  3254     1143  28FC               	goto	l3021
  3255     1144                     l3049:
  3256     1144  3001               	movlw	1
  3257     1145                     u4215:
  3258     1145  35CA               	lslf	___fltol@f1,f
  3259     1146  0DCB               	rlf	___fltol@f1+1,f
  3260     1147  0DCC               	rlf	___fltol@f1+2,f
  3261     1148  0DCD               	rlf	___fltol@f1+3,f
  3262     1149  0B89               	decfsz	9,f
  3263     114A  2945               	goto	u4215
  3264     114B  3001               	movlw	1
  3265     114C  02D3               	subwf	___fltol@exp1,f
  3266     114D                     l528:
  3267     114D  0853               	movf	___fltol@exp1,w
  3268     114E  1D03               	btfss	3,2
  3269     114F  2951               	goto	u4221
  3270     1150  2952               	goto	u4220
  3271     1151                     u4221:
  3272     1151  2944               	goto	l3049
  3273     1152                     u4220:
  3274     1152                     l3051:
  3275     1152  0852               	movf	___fltol@sign1,w
  3276     1153  1903               	btfsc	3,2
  3277     1154  2956               	goto	u4231
  3278     1155  2957               	goto	u4230
  3279     1156                     u4231:
  3280     1156  2962               	goto	l531
  3281     1157                     u4230:
  3282     1157                     l3053:
  3283     1157  09CA               	comf	___fltol@f1,f
  3284     1158  09CB               	comf	___fltol@f1+1,f
  3285     1159  09CC               	comf	___fltol@f1+2,f
  3286     115A  09CD               	comf	___fltol@f1+3,f
  3287     115B  0ACA               	incf	___fltol@f1,f
  3288     115C  1903               	skipnz
  3289     115D  0ACB               	incf	___fltol@f1+1,f
  3290     115E  1903               	skipnz
  3291     115F  0ACC               	incf	___fltol@f1+2,f
  3292     1160  1903               	skipnz
  3293     1161  0ACD               	incf	___fltol@f1+3,f
  3294     1162                     l531:
  3295     1162                     l521:
  3296     1162  0008               	return
  3297     1163                     __end_of___fltol:
  3298                           
  3299                           	psect	text5
  3300     1EA5                     __ptext5:	
  3301 ;; *************** function ___flsub *****************
  3302 ;; Defined at:
  3303 ;;		line 242 in file "C:\Program Files\Microchip\xc8\v2.46\pic\sources\c99\common\sprcadd.c"
  3304 ;; Parameters:    Size  Location     Type
  3305 ;;  a               4    8[BANK0 ] long 
  3306 ;;  b               4   12[BANK0 ] long 
  3307 ;; Auto vars:     Size  Location     Type
  3308 ;;		None
  3309 ;; Return value:  Size  Location     Type
  3310 ;;                  4    8[BANK0 ] long 
  3311 ;; Registers used:
  3312 ;;		wreg, status,2, status,0, pclath, cstack
  3313 ;; Tracked objects:
  3314 ;;		On entry : 0/0
  3315 ;;		On exit  : 0/0
  3316 ;;		Unchanged: 0/0
  3317 ;; Data sizes:     COMMON   BANK0   BANK1   BANK2   BANK3   BANK4   BANK5   BANK6   BANK7   BANK8   BANK9  BANK10  BANK1
      +1  BANK12  BANK13  BANK14  BANK15  BANK16  BANK17  BANK18  BANK19  BANK20  BANK21  BANK22  BANK23  BANK24  BANK25
  3318 ;;      Params:         0       8       0       0       0       0       0       0       0       0       0       0       
      +0       0       0       0       0       0       0       0       0       0       0       0       0       0       0
  3319 ;;      Locals:         0       0       0       0       0       0       0       0       0       0       0       0       
      +0       0       0       0       0       0       0       0       0       0       0       0       0       0       0
  3320 ;;      Temps:          0       0       0       0       0       0       0       0       0       0       0       0       
      +0       0       0       0       0       0       0       0       0       0       0       0       0       0       0
  3321 ;;      Totals:         0       8       0       0       0       0       0       0       0       0       0       0       
      +0       0       0       0       0       0       0       0       0       0       0       0       0       0       0
  3322 ;;Total ram usage:        8 bytes
  3323 ;; Hardware stack levels used: 1
  3324 ;; Hardware stack levels required when called: 1
  3325 ;; This function calls:
  3326 ;;		___fladd
  3327 ;; This function is called by:
  3328 ;;		_print_float
  3329 ;; This function uses a non-reentrant model
  3330 ;;
  3331                           
  3332     1EA5                     ___flsub:	
  3333                           ;psect for function ___flsub
  3334                           
  3335     1EA5                     l3055:	
  3336                           ;incstack = 0
  3337                           ; Regs used in ___flsub: [wreg+status,2+status,0+pclath+cstack]
  3338                           
  3339     1EA5  3080               	movlw	128
  3340     1EA6  0020               	movlb	0	; select bank0
  3341     1EA7  06AB               	xorwf	___flsub@a+3,f
  3342     1EA8                     l3057:
  3343     1EA8  082F               	movf	___flsub@b+3,w
  3344     1EA9  00F3               	movwf	___fladd@b+3
  3345     1EAA  082E               	movf	___flsub@b+2,w
  3346     1EAB  00F2               	movwf	___fladd@b+2
  3347     1EAC  082D               	movf	___flsub@b+1,w
  3348     1EAD  00F1               	movwf	___fladd@b+1
  3349     1EAE  082C               	movf	___flsub@b,w
  3350     1EAF  00F0               	movwf	___fladd@b
  3351     1EB0  082B               	movf	___flsub@a+3,w
  3352     1EB1  00F7               	movwf	___fladd@a+3
  3353     1EB2  082A               	movf	___flsub@a+2,w
  3354     1EB3  00F6               	movwf	___fladd@a+2
  3355     1EB4  0829               	movf	___flsub@a+1,w
  3356     1EB5  00F5               	movwf	___fladd@a+1
  3357     1EB6  0828               	movf	___flsub@a,w
  3358     1EB7  00F4               	movwf	___fladd@a
  3359     1EB8  3188  2067  319E   	fcall	___fladd
  3360     1EBB  0873               	movf	?___fladd+3,w
  3361     1EBC  0020               	movlb	0	; select bank0
  3362     1EBD  00AB               	movwf	?___flsub+3
  3363     1EBE  0872               	movf	?___fladd+2,w
  3364     1EBF  00AA               	movwf	?___flsub+2
  3365     1EC0  0871               	movf	?___fladd+1,w
  3366     1EC1  00A9               	movwf	?___flsub+1
  3367     1EC2  0870               	movf	?___fladd,w
  3368     1EC3  00A8               	movwf	?___flsub
  3369     1EC4                     l674:
  3370     1EC4  0008               	return
  3371     1EC5                     __end_of___flsub:
  3372                           
  3373                           	psect	text6
  3374     0867                     __ptext6:	
  3375 ;; *************** function ___fladd *****************
  3376 ;; Defined at:
  3377 ;;		line 10 in file "C:\Program Files\Microchip\xc8\v2.46\pic\sources\c99\common\sprcadd.c"
  3378 ;; Parameters:    Size  Location     Type
  3379 ;;  b               4    0[COMMON] long 
  3380 ;;  a               4    4[COMMON] long 
  3381 ;; Auto vars:     Size  Location     Type
  3382 ;;  grs             1   11[COMMON] unsigned char 
  3383 ;;  bexp            1   10[COMMON] unsigned char 
  3384 ;;  aexp            1    9[COMMON] unsigned char 
  3385 ;;  signs           1    8[COMMON] unsigned char 
  3386 ;; Return value:  Size  Location     Type
  3387 ;;                  4    0[COMMON] unsigned char 
  3388 ;; Registers used:
  3389 ;;		wreg, status,2, status,0
  3390 ;; Tracked objects:
  3391 ;;		On entry : 0/0
  3392 ;;		On exit  : 0/0
  3393 ;;		Unchanged: 0/0
  3394 ;; Data sizes:     COMMON   BANK0   BANK1   BANK2   BANK3   BANK4   BANK5   BANK6   BANK7   BANK8   BANK9  BANK10  BANK1
      +1  BANK12  BANK13  BANK14  BANK15  BANK16  BANK17  BANK18  BANK19  BANK20  BANK21  BANK22  BANK23  BANK24  BANK25
  3395 ;;      Params:         8       0       0       0       0       0       0       0       0       0       0       0       
      +0       0       0       0       0       0       0       0       0       0       0       0       0       0       0
  3396 ;;      Locals:         4       0       0       0       0       0       0       0       0       0       0       0       
      +0       0       0       0       0       0       0       0       0       0       0       0       0       0       0
  3397 ;;      Temps:          0       8       0       0       0       0       0       0       0       0       0       0       
      +0       0       0       0       0       0       0       0       0       0       0       0       0       0       0
  3398 ;;      Totals:        12       8       0       0       0       0       0       0       0       0       0       0       
      +0       0       0       0       0       0       0       0       0       0       0       0       0       0       0
  3399 ;;Total ram usage:       20 bytes
  3400 ;; Hardware stack levels used: 1
  3401 ;; This function calls:
  3402 ;;		Nothing
  3403 ;; This function is called by:
  3404 ;;		___flsub
  3405 ;; This function uses a non-reentrant model
  3406 ;;
  3407                           
  3408     0867                     ___fladd:	
  3409                           ;psect for function ___fladd
  3410                           
  3411     0867                     l2771:	
  3412                           ;incstack = 0
  3413                           ; Regs used in ___fladd: [wreg+status,2+status,0]
  3414                           
  3415     0867  0873               	movf	___fladd@b+3,w
  3416     0868  3980               	andlw	128
  3417     0869  00F8               	movwf	___fladd@signs
  3418     086A                     l2773:
  3419     086A  3573               	lslf	___fladd@b+3,w
  3420     086B  00FA               	movwf	___fladd@bexp
  3421     086C                     l2775:
  3422     086C  1FF2               	btfss	___fladd@b+2,7
  3423     086D  286F               	goto	u3611
  3424     086E  2870               	goto	u3610
  3425     086F                     u3611:
  3426     086F  2871               	goto	l2779
  3427     0870                     u3610:
  3428     0870                     l2777:
  3429     0870  147A               	bsf	___fladd@bexp,0
  3430     0871                     l2779:
  3431     0871  087A               	movf	___fladd@bexp,w
  3432     0872  1903               	btfsc	3,2
  3433     0873  2875               	goto	u3621
  3434     0874  2876               	goto	u3620
  3435     0875                     u3621:
  3436     0875  2886               	goto	l2789
  3437     0876                     u3620:
  3438     0876                     l2781:
  3439     0876  0A7A               	incf	___fladd@bexp,w
  3440     0877  1D03               	btfss	3,2
  3441     0878  287A               	goto	u3631
  3442     0879  287B               	goto	u3630
  3443     087A                     u3631:
  3444     087A  2883               	goto	l2785
  3445     087B                     u3630:
  3446     087B                     l2783:
  3447     087B  3000               	movlw	0
  3448     087C  00F3               	movwf	___fladd@b+3
  3449     087D  3000               	movlw	0
  3450     087E  00F2               	movwf	___fladd@b+2
  3451     087F  3000               	movlw	0
  3452     0880  00F1               	movwf	___fladd@b+1
  3453     0881  3000               	movlw	0
  3454     0882  00F0               	movwf	___fladd@b
  3455     0883                     l2785:
  3456     0883  17F2               	bsf	___fladd@b+2,7
  3457     0884                     l2787:
  3458     0884  01F3               	clrf	___fladd@b+3
  3459     0885  288E               	goto	l2791
  3460     0886                     l2789:
  3461     0886  3000               	movlw	0
  3462     0887  00F3               	movwf	___fladd@b+3
  3463     0888  3000               	movlw	0
  3464     0889  00F2               	movwf	___fladd@b+2
  3465     088A  3000               	movlw	0
  3466     088B  00F1               	movwf	___fladd@b+1
  3467     088C  3000               	movlw	0
  3468     088D  00F0               	movwf	___fladd@b
  3469     088E                     l2791:
  3470     088E  0877               	movf	___fladd@a+3,w
  3471     088F  3980               	andlw	128
  3472     0890  00F9               	movwf	___fladd@aexp
  3473     0891                     l2793:
  3474     0891  0879               	movf	___fladd@aexp,w
  3475     0892  0678               	xorwf	___fladd@signs,w
  3476     0893  1903               	skipnz
  3477     0894  2896               	goto	u3641
  3478     0895  2897               	goto	u3640
  3479     0896                     u3641:
  3480     0896  2898               	goto	l2797
  3481     0897                     u3640:
  3482     0897                     l2795:
  3483     0897  1778               	bsf	___fladd@signs,6
  3484     0898                     l2797:
  3485     0898  3577               	lslf	___fladd@a+3,w
  3486     0899  00F9               	movwf	___fladd@aexp
  3487     089A                     l2799:
  3488     089A  1FF6               	btfss	___fladd@a+2,7
  3489     089B  289D               	goto	u3651
  3490     089C  289E               	goto	u3650
  3491     089D                     u3651:
  3492     089D  289F               	goto	l2803
  3493     089E                     u3650:
  3494     089E                     l2801:
  3495     089E  1479               	bsf	___fladd@aexp,0
  3496     089F                     l2803:
  3497     089F  0879               	movf	___fladd@aexp,w
  3498     08A0  1903               	btfsc	3,2
  3499     08A1  28A3               	goto	u3661
  3500     08A2  28A4               	goto	u3660
  3501     08A3                     u3661:
  3502     08A3  28B4               	goto	l2813
  3503     08A4                     u3660:
  3504     08A4                     l2805:
  3505     08A4  0A79               	incf	___fladd@aexp,w
  3506     08A5  1D03               	btfss	3,2
  3507     08A6  28A8               	goto	u3671
  3508     08A7  28A9               	goto	u3670
  3509     08A8                     u3671:
  3510     08A8  28B1               	goto	l2809
  3511     08A9                     u3670:
  3512     08A9                     l2807:
  3513     08A9  3000               	movlw	0
  3514     08AA  00F7               	movwf	___fladd@a+3
  3515     08AB  3000               	movlw	0
  3516     08AC  00F6               	movwf	___fladd@a+2
  3517     08AD  3000               	movlw	0
  3518     08AE  00F5               	movwf	___fladd@a+1
  3519     08AF  3000               	movlw	0
  3520     08B0  00F4               	movwf	___fladd@a
  3521     08B1                     l2809:
  3522     08B1  17F6               	bsf	___fladd@a+2,7
  3523     08B2                     l2811:
  3524     08B2  01F7               	clrf	___fladd@a+3
  3525     08B3  28BC               	goto	l628
  3526     08B4                     l2813:
  3527     08B4  3000               	movlw	0
  3528     08B5  00F7               	movwf	___fladd@a+3
  3529     08B6  3000               	movlw	0
  3530     08B7  00F6               	movwf	___fladd@a+2
  3531     08B8  3000               	movlw	0
  3532     08B9  00F5               	movwf	___fladd@a+1
  3533     08BA  3000               	movlw	0
  3534     08BB  00F4               	movwf	___fladd@a
  3535     08BC                     l628:
  3536     08BC  087A               	movf	___fladd@bexp,w
  3537     08BD  0279               	subwf	___fladd@aexp,w
  3538     08BE  1803               	skipnc
  3539     08BF  28C1               	goto	u3681
  3540     08C0  28C2               	goto	u3680
  3541     08C1                     u3681:
  3542     08C1  28E9               	goto	l2849
  3543     08C2                     u3680:
  3544     08C2                     l2815:
  3545     08C2  1F78               	btfss	___fladd@signs,6
  3546     08C3  28C5               	goto	u3691
  3547     08C4  28C6               	goto	u3690
  3548     08C5                     u3691:
  3549     08C5  28CB               	goto	l2819
  3550     08C6                     u3690:
  3551     08C6                     l2817:
  3552     08C6  3080               	movlw	128
  3553     08C7  0020               	movlb	0	; select bank0
  3554     08C8  00A0               	movwf	??___fladd
  3555     08C9  0820               	movf	??___fladd,w
  3556     08CA  06F8               	xorwf	___fladd@signs,f
  3557     08CB                     l2819:
  3558     08CB  087A               	movf	___fladd@bexp,w
  3559     08CC  00FB               	movwf	___fladd@grs
  3560     08CD                     l2821:
  3561     08CD  0879               	movf	___fladd@aexp,w
  3562     08CE  00FA               	movwf	___fladd@bexp
  3563     08CF                     l2823:
  3564     08CF  087B               	movf	___fladd@grs,w
  3565     08D0  00F9               	movwf	___fladd@aexp
  3566     08D1                     l2825:
  3567     08D1  0870               	movf	___fladd@b,w
  3568     08D2  00FB               	movwf	___fladd@grs
  3569     08D3                     l2827:
  3570     08D3  0874               	movf	___fladd@a,w
  3571     08D4  00F0               	movwf	___fladd@b
  3572     08D5                     l2829:
  3573     08D5  087B               	movf	___fladd@grs,w
  3574     08D6  00F4               	movwf	___fladd@a
  3575     08D7                     l2831:
  3576     08D7  0871               	movf	___fladd@b+1,w
  3577     08D8  00FB               	movwf	___fladd@grs
  3578     08D9                     l2833:
  3579     08D9  0875               	movf	___fladd@a+1,w
  3580     08DA  00F1               	movwf	___fladd@b+1
  3581     08DB                     l2835:
  3582     08DB  087B               	movf	___fladd@grs,w
  3583     08DC  00F5               	movwf	___fladd@a+1
  3584     08DD                     l2837:
  3585     08DD  0872               	movf	___fladd@b+2,w
  3586     08DE  00FB               	movwf	___fladd@grs
  3587     08DF                     l2839:
  3588     08DF  0876               	movf	___fladd@a+2,w
  3589     08E0  00F2               	movwf	___fladd@b+2
  3590     08E1                     l2841:
  3591     08E1  087B               	movf	___fladd@grs,w
  3592     08E2  00F6               	movwf	___fladd@a+2
  3593     08E3                     l2843:
  3594     08E3  0873               	movf	___fladd@b+3,w
  3595     08E4  00FB               	movwf	___fladd@grs
  3596     08E5                     l2845:
  3597     08E5  0877               	movf	___fladd@a+3,w
  3598     08E6  00F3               	movwf	___fladd@b+3
  3599     08E7                     l2847:
  3600     08E7  087B               	movf	___fladd@grs,w
  3601     08E8  00F7               	movwf	___fladd@a+3
  3602     08E9                     l2849:
  3603     08E9  01FB               	clrf	___fladd@grs
  3604     08EA                     l2851:
  3605     08EA  0879               	movf	___fladd@aexp,w
  3606     08EB  0020               	movlb	0	; select bank0
  3607     08EC  00A0               	movwf	??___fladd
  3608     08ED  01A1               	clrf	??___fladd+1
  3609     08EE  0821               	movf	??___fladd+1,w
  3610     08EF  00A3               	movwf	??___fladd+3
  3611     08F0  087A               	movf	___fladd@bexp,w
  3612     08F1  0220               	subwf	??___fladd,w
  3613     08F2  00A2               	movwf	??___fladd+2
  3614     08F3  1C03               	skipc
  3615     08F4  03A3               	decf	??___fladd+3,f
  3616     08F5  0823               	movf	??___fladd+3,w
  3617     08F6  3A80               	xorlw	128
  3618     08F7  00A4               	movwf	??___fladd+4
  3619     08F8  3080               	movlw	128
  3620     08F9  0224               	subwf	??___fladd+4,w
  3621     08FA  1D03               	skipz
  3622     08FB  28FE               	goto	u3705
  3623     08FC  301A               	movlw	26
  3624     08FD  0222               	subwf	??___fladd+2,w
  3625     08FE                     u3705:
  3626     08FE  1C03               	skipc
  3627     08FF  2901               	goto	u3701
  3628     0900  2902               	goto	u3700
  3629     0901                     u3701:
  3630     0901  2934               	goto	l2867
  3631     0902                     u3700:
  3632     0902                     l2853:
  3633     0902  0873               	movf	___fladd@b+3,w
  3634     0903  0472               	iorwf	___fladd@b+2,w
  3635     0904  0471               	iorwf	___fladd@b+1,w
  3636     0905  0470               	iorwf	___fladd@b,w
  3637     0906  1D03               	skipz
  3638     0907  2909               	goto	u3711
  3639     0908  290B               	goto	u3710
  3640     0909                     u3711:
  3641     0909  3001               	movlw	1
  3642     090A  290C               	goto	u3720
  3643     090B                     u3710:
  3644     090B  3000               	movlw	0
  3645     090C                     u3720:
  3646     090C  00FB               	movwf	___fladd@grs
  3647     090D  3000               	movlw	0
  3648     090E  00F3               	movwf	___fladd@b+3
  3649     090F  3000               	movlw	0
  3650     0910  00F2               	movwf	___fladd@b+2
  3651     0911  3000               	movlw	0
  3652     0912  00F1               	movwf	___fladd@b+1
  3653     0913  3000               	movlw	0
  3654     0914  00F0               	movwf	___fladd@b
  3655     0915  0879               	movf	___fladd@aexp,w
  3656     0916  00FA               	movwf	___fladd@bexp
  3657     0917  293A               	goto	l632
  3658     0918                     l634:
  3659     0918  1C7B               	btfss	___fladd@grs,0
  3660     0919  291B               	goto	u3731
  3661     091A  291C               	goto	u3730
  3662     091B                     u3731:
  3663     091B  2920               	goto	l2857
  3664     091C                     u3730:
  3665     091C                     l2855:
  3666     091C  367B               	lsrf	___fladd@grs,w
  3667     091D  3801               	iorlw	1
  3668     091E  00FB               	movwf	___fladd@grs
  3669     091F  2922               	goto	l2859
  3670     0920                     l2857:
  3671     0920  1003               	clrc
  3672     0921  0CFB               	rrf	___fladd@grs,f
  3673     0922                     l2859:
  3674     0922  1C70               	btfss	___fladd@b,0
  3675     0923  2925               	goto	u3741
  3676     0924  2926               	goto	u3740
  3677     0925                     u3741:
  3678     0925  2927               	goto	l2863
  3679     0926                     u3740:
  3680     0926                     l2861:
  3681     0926  17FB               	bsf	___fladd@grs,7
  3682     0927                     l2863:
  3683     0927  3001               	movlw	1
  3684     0928  0020               	movlb	0	; select bank0
  3685     0929  00A0               	movwf	??___fladd
  3686     092A                     u3755:
  3687     092A  37F3               	asrf	___fladd@b+3,f
  3688     092B  0CF2               	rrf	___fladd@b+2,f
  3689     092C  0CF1               	rrf	___fladd@b+1,f
  3690     092D  0CF0               	rrf	___fladd@b,f
  3691     092E  0BA0               	decfsz	??___fladd& (0+127),f
  3692     092F  292A               	goto	u3755
  3693     0930                     l2865:
  3694     0930  3001               	movlw	1
  3695     0931  00A0               	movwf	??___fladd
  3696     0932  0820               	movf	??___fladd,w
  3697     0933  07FA               	addwf	___fladd@bexp,f
  3698     0934                     l2867:
  3699     0934  0879               	movf	___fladd@aexp,w
  3700     0935  027A               	subwf	___fladd@bexp,w
  3701     0936  1C03               	skipc
  3702     0937  2939               	goto	u3761
  3703     0938  293A               	goto	u3760
  3704     0939                     u3761:
  3705     0939  2918               	goto	l634
  3706     093A                     u3760:
  3707     093A                     l632:
  3708     093A  1B78               	btfsc	___fladd@signs,6
  3709     093B  293D               	goto	u3771
  3710     093C  293E               	goto	u3770
  3711     093D                     u3771:
  3712     093D  2975               	goto	l2893
  3713     093E                     u3770:
  3714     093E                     l2869:
  3715     093E  087A               	movf	___fladd@bexp,w
  3716     093F  1D03               	btfss	3,2
  3717     0940  2942               	goto	u3781
  3718     0941  2943               	goto	u3780
  3719     0942                     u3781:
  3720     0942  294C               	goto	l2875
  3721     0943                     u3780:
  3722     0943                     l2871:
  3723     0943  3000               	movlw	0
  3724     0944  00F3               	movwf	?___fladd+3
  3725     0945  3000               	movlw	0
  3726     0946  00F2               	movwf	?___fladd+2
  3727     0947  3000               	movlw	0
  3728     0948  00F1               	movwf	?___fladd+1
  3729     0949  3000               	movlw	0
  3730     094A  00F0               	movwf	?___fladd
  3731     094B  2A72               	goto	l641
  3732     094C                     l2875:
  3733     094C  0874               	movf	___fladd@a,w
  3734     094D  07F0               	addwf	___fladd@b,f
  3735     094E  0875               	movf	___fladd@a+1,w
  3736     094F  3DF1               	addwfc	___fladd@b+1,f
  3737     0950  0876               	movf	___fladd@a+2,w
  3738     0951  3DF2               	addwfc	___fladd@b+2,f
  3739     0952  0877               	movf	___fladd@a+3,w
  3740     0953  3DF3               	addwfc	___fladd@b+3,f
  3741     0954                     l2877:
  3742     0954  1C73               	btfss	___fladd@b+3,0
  3743     0955  2957               	goto	u3791
  3744     0956  2958               	goto	u3790
  3745     0957                     u3791:
  3746     0957  2A02               	goto	l2927
  3747     0958                     u3790:
  3748     0958                     l2879:
  3749     0958  1C7B               	btfss	___fladd@grs,0
  3750     0959  295B               	goto	u3801
  3751     095A  295C               	goto	u3800
  3752     095B                     u3801:
  3753     095B  2960               	goto	l2883
  3754     095C                     u3800:
  3755     095C                     l2881:
  3756     095C  367B               	lsrf	___fladd@grs,w
  3757     095D  3801               	iorlw	1
  3758     095E  00FB               	movwf	___fladd@grs
  3759     095F  2962               	goto	l2885
  3760     0960                     l2883:
  3761     0960  1003               	clrc
  3762     0961  0CFB               	rrf	___fladd@grs,f
  3763     0962                     l2885:
  3764     0962  1C70               	btfss	___fladd@b,0
  3765     0963  2965               	goto	u3811
  3766     0964  2966               	goto	u3810
  3767     0965                     u3811:
  3768     0965  2967               	goto	l2889
  3769     0966                     u3810:
  3770     0966                     l2887:
  3771     0966  17FB               	bsf	___fladd@grs,7
  3772     0967                     l2889:
  3773     0967  3001               	movlw	1
  3774     0968  0020               	movlb	0	; select bank0
  3775     0969  00A0               	movwf	??___fladd
  3776     096A                     u3825:
  3777     096A  37F3               	asrf	___fladd@b+3,f
  3778     096B  0CF2               	rrf	___fladd@b+2,f
  3779     096C  0CF1               	rrf	___fladd@b+1,f
  3780     096D  0CF0               	rrf	___fladd@b,f
  3781     096E  0BA0               	decfsz	??___fladd& (0+127),f
  3782     096F  296A               	goto	u3825
  3783     0970                     l2891:
  3784     0970  3001               	movlw	1
  3785     0971  00A0               	movwf	??___fladd
  3786     0972  0820               	movf	??___fladd,w
  3787     0973  07FA               	addwf	___fladd@bexp,f
  3788     0974  2A02               	goto	l2927
  3789     0975                     l2893:
  3790     0975  0873               	movf	___fladd@b+3,w
  3791     0976  3A80               	xorlw	128
  3792     0977  0020               	movlb	0	; select bank0
  3793     0978  00A0               	movwf	??___fladd
  3794     0979  0877               	movf	___fladd@a+3,w
  3795     097A  3A80               	xorlw	128
  3796     097B  0220               	subwf	??___fladd,w
  3797     097C  1D03               	skipz
  3798     097D  2988               	goto	u3833
  3799     097E  0876               	movf	___fladd@a+2,w
  3800     097F  0272               	subwf	___fladd@b+2,w
  3801     0980  1D03               	skipz
  3802     0981  2988               	goto	u3833
  3803     0982  0875               	movf	___fladd@a+1,w
  3804     0983  0271               	subwf	___fladd@b+1,w
  3805     0984  1D03               	skipz
  3806     0985  2988               	goto	u3833
  3807     0986  0874               	movf	___fladd@a,w
  3808     0987  0270               	subwf	___fladd@b,w
  3809     0988                     u3833:
  3810     0988  1803               	skipnc
  3811     0989  298B               	goto	u3831
  3812     098A  298C               	goto	u3830
  3813     098B                     u3831:
  3814     098B  29C4               	goto	l2903
  3815     098C                     u3830:
  3816     098C                     l2895:
  3817     098C  30FF               	movlw	255
  3818     098D  00A0               	movwf	??___fladd
  3819     098E  30FF               	movlw	255
  3820     098F  00A1               	movwf	??___fladd+1
  3821     0990  30FF               	movlw	255
  3822     0991  00A2               	movwf	??___fladd+2
  3823     0992  30FF               	movlw	255
  3824     0993  00A3               	movwf	??___fladd+3
  3825     0994  0870               	movf	___fladd@b,w
  3826     0995  0274               	subwf	___fladd@a,w
  3827     0996  00A4               	movwf	??___fladd+4
  3828     0997  0871               	movf	___fladd@b+1,w
  3829     0998  3B75               	subwfb	___fladd@a+1,w
  3830     0999  00A5               	movwf	??___fladd+5
  3831     099A  0872               	movf	___fladd@b+2,w
  3832     099B  3B76               	subwfb	___fladd@a+2,w
  3833     099C  00A6               	movwf	??___fladd+6
  3834     099D  0873               	movf	___fladd@b+3,w
  3835     099E  3B77               	subwfb	___fladd@a+3,w
  3836     099F  00A7               	movwf	??___fladd+7
  3837     09A0  0824               	movf	??___fladd+4,w
  3838     09A1  07A0               	addwf	??___fladd,f
  3839     09A2  0825               	movf	??___fladd+5,w
  3840     09A3  3DA1               	addwfc	??___fladd+1,f
  3841     09A4  0826               	movf	??___fladd+6,w
  3842     09A5  3DA2               	addwfc	??___fladd+2,f
  3843     09A6  0827               	movf	??___fladd+7,w
  3844     09A7  3DA3               	addwfc	??___fladd+3,f
  3845     09A8  0823               	movf	??___fladd+3,w
  3846     09A9  00F3               	movwf	___fladd@b+3
  3847     09AA  0822               	movf	??___fladd+2,w
  3848     09AB  00F2               	movwf	___fladd@b+2
  3849     09AC  0821               	movf	??___fladd+1,w
  3850     09AD  00F1               	movwf	___fladd@b+1
  3851     09AE  0820               	movf	??___fladd,w
  3852     09AF  00F0               	movwf	___fladd@b
  3853     09B0                     l2897:
  3854     09B0  3080               	movlw	128
  3855     09B1  00A0               	movwf	??___fladd
  3856     09B2  0820               	movf	??___fladd,w
  3857     09B3  06F8               	xorwf	___fladd@signs,f
  3858     09B4  09FB               	comf	___fladd@grs,f
  3859     09B5  0AFB               	incf	___fladd@grs,f
  3860     09B6                     l2899:
  3861     09B6  087B               	movf	___fladd@grs,w
  3862     09B7  1D03               	btfss	3,2
  3863     09B8  29BA               	goto	u3841
  3864     09B9  29BB               	goto	u3840
  3865     09BA                     u3841:
  3866     09BA  29CC               	goto	l649
  3867     09BB                     u3840:
  3868     09BB                     l2901:
  3869     09BB  3001               	movlw	1
  3870     09BC  07F0               	addwf	___fladd@b,f
  3871     09BD  3000               	movlw	0
  3872     09BE  3DF1               	addwfc	___fladd@b+1,f
  3873     09BF  3000               	movlw	0
  3874     09C0  3DF2               	addwfc	___fladd@b+2,f
  3875     09C1  3000               	movlw	0
  3876     09C2  3DF3               	addwfc	___fladd@b+3,f
  3877     09C3  29CC               	goto	l649
  3878     09C4                     l2903:
  3879     09C4  0874               	movf	___fladd@a,w
  3880     09C5  02F0               	subwf	___fladd@b,f
  3881     09C6  0875               	movf	___fladd@a+1,w
  3882     09C7  3BF1               	subwfb	___fladd@b+1,f
  3883     09C8  0876               	movf	___fladd@a+2,w
  3884     09C9  3BF2               	subwfb	___fladd@b+2,f
  3885     09CA  0877               	movf	___fladd@a+3,w
  3886     09CB  3BF3               	subwfb	___fladd@b+3,f
  3887     09CC                     l649:
  3888     09CC  0873               	movf	___fladd@b+3,w
  3889     09CD  0472               	iorwf	___fladd@b+2,w
  3890     09CE  0471               	iorwf	___fladd@b+1,w
  3891     09CF  0470               	iorwf	___fladd@b,w
  3892     09D0  1D03               	skipz
  3893     09D1  29D3               	goto	u3851
  3894     09D2  29D4               	goto	u3850
  3895     09D3                     u3851:
  3896     09D3  29FE               	goto	l2925
  3897     09D4                     u3850:
  3898     09D4                     l2905:
  3899     09D4  087B               	movf	___fladd@grs,w
  3900     09D5  1D03               	btfss	3,2
  3901     09D6  29D8               	goto	u3861
  3902     09D7  29D9               	goto	u3860
  3903     09D8                     u3861:
  3904     09D8  29FE               	goto	l2925
  3905     09D9                     u3860:
  3906     09D9                     l2907:
  3907     09D9  3000               	movlw	0
  3908     09DA  00F3               	movwf	?___fladd+3
  3909     09DB  3000               	movlw	0
  3910     09DC  00F2               	movwf	?___fladd+2
  3911     09DD  3000               	movlw	0
  3912     09DE  00F1               	movwf	?___fladd+1
  3913     09DF  3000               	movlw	0
  3914     09E0  00F0               	movwf	?___fladd
  3915     09E1  2A72               	goto	l641
  3916     09E2                     l2911:
  3917     09E2  3001               	movlw	1
  3918     09E3                     u3875:
  3919     09E3  35F0               	lslf	___fladd@b,f
  3920     09E4  0DF1               	rlf	___fladd@b+1,f
  3921     09E5  0DF2               	rlf	___fladd@b+2,f
  3922     09E6  0DF3               	rlf	___fladd@b+3,f
  3923     09E7  0B89               	decfsz	9,f
  3924     09E8  29E3               	goto	u3875
  3925     09E9                     l2913:
  3926     09E9  1FFB               	btfss	___fladd@grs,7
  3927     09EA  29EC               	goto	u3881
  3928     09EB  29ED               	goto	u3880
  3929     09EC                     u3881:
  3930     09EC  29EE               	goto	l653
  3931     09ED                     u3880:
  3932     09ED                     l2915:
  3933     09ED  1470               	bsf	___fladd@b,0
  3934     09EE                     l653:
  3935     09EE  1C7B               	btfss	___fladd@grs,0
  3936     09EF  29F1               	goto	u3891
  3937     09F0  29F2               	goto	u3890
  3938     09F1                     u3891:
  3939     09F1  29F5               	goto	l2919
  3940     09F2                     u3890:
  3941     09F2                     l2917:
  3942     09F2  1403               	setc
  3943     09F3  0DFB               	rlf	___fladd@grs,f
  3944     09F4  29F7               	goto	l2921
  3945     09F5                     l2919:
  3946     09F5  1003               	clrc
  3947     09F6  0DFB               	rlf	___fladd@grs,f
  3948     09F7                     l2921:
  3949     09F7  087A               	movf	___fladd@bexp,w
  3950     09F8  1903               	btfsc	3,2
  3951     09F9  29FB               	goto	u3901
  3952     09FA  29FC               	goto	u3900
  3953     09FB                     u3901:
  3954     09FB  29FE               	goto	l2925
  3955     09FC                     u3900:
  3956     09FC                     l2923:
  3957     09FC  3001               	movlw	1
  3958     09FD  02FA               	subwf	___fladd@bexp,f
  3959     09FE                     l2925:
  3960     09FE  1FF2               	btfss	___fladd@b+2,7
  3961     09FF  2A01               	goto	u3911
  3962     0A00  2A02               	goto	u3910
  3963     0A01                     u3911:
  3964     0A01  29E2               	goto	l2911
  3965     0A02                     u3910:
  3966     0A02                     l2927:
  3967     0A02  01F9               	clrf	___fladd@aexp
  3968     0A03                     l2929:
  3969     0A03  1FFB               	btfss	___fladd@grs,7
  3970     0A04  2A06               	goto	u3921
  3971     0A05  2A07               	goto	u3920
  3972     0A06                     u3921:
  3973     0A06  2A15               	goto	l2937
  3974     0A07                     u3920:
  3975     0A07                     l2931:
  3976     0A07  087B               	movf	___fladd@grs,w
  3977     0A08  397F               	andlw	127
  3978     0A09  1903               	btfsc	3,2
  3979     0A0A  2A0C               	goto	u3931
  3980     0A0B  2A0D               	goto	u3930
  3981     0A0C                     u3931:
  3982     0A0C  2A10               	goto	l659
  3983     0A0D                     u3930:
  3984     0A0D                     l2933:
  3985     0A0D  01F9               	clrf	___fladd@aexp
  3986     0A0E  0AF9               	incf	___fladd@aexp,f
  3987     0A0F  2A15               	goto	l2937
  3988     0A10                     l659:
  3989     0A10  1C70               	btfss	___fladd@b,0
  3990     0A11  2A13               	goto	u3941
  3991     0A12  2A14               	goto	u3940
  3992     0A13                     u3941:
  3993     0A13  2A15               	goto	l2937
  3994     0A14                     u3940:
  3995     0A14  2A0D               	goto	l2933
  3996     0A15                     l2937:
  3997     0A15  0879               	movf	___fladd@aexp,w
  3998     0A16  1903               	btfsc	3,2
  3999     0A17  2A19               	goto	u3951
  4000     0A18  2A1A               	goto	u3950
  4001     0A19                     u3951:
  4002     0A19  2A48               	goto	l662
  4003     0A1A                     u3950:
  4004     0A1A                     l2939:
  4005     0A1A  3001               	movlw	1
  4006     0A1B  07F0               	addwf	___fladd@b,f
  4007     0A1C  3000               	movlw	0
  4008     0A1D  3DF1               	addwfc	___fladd@b+1,f
  4009     0A1E  3000               	movlw	0
  4010     0A1F  3DF2               	addwfc	___fladd@b+2,f
  4011     0A20  3000               	movlw	0
  4012     0A21  3DF3               	addwfc	___fladd@b+3,f
  4013     0A22                     l2941:
  4014     0A22  1C73               	btfss	___fladd@b+3,0
  4015     0A23  2A25               	goto	u3961
  4016     0A24  2A26               	goto	u3960
  4017     0A25                     u3961:
  4018     0A25  2A48               	goto	l662
  4019     0A26                     u3960:
  4020     0A26                     l2943:
  4021     0A26  0870               	movf	___fladd@b,w
  4022     0A27  0020               	movlb	0	; select bank0
  4023     0A28  00A0               	movwf	??___fladd
  4024     0A29  0871               	movf	___fladd@b+1,w
  4025     0A2A  00A1               	movwf	??___fladd+1
  4026     0A2B  0872               	movf	___fladd@b+2,w
  4027     0A2C  00A2               	movwf	??___fladd+2
  4028     0A2D  0873               	movf	___fladd@b+3,w
  4029     0A2E  00A3               	movwf	??___fladd+3
  4030     0A2F  3001               	movlw	1
  4031     0A30  00A4               	movwf	??___fladd+4
  4032     0A31                     u3975:
  4033     0A31  37A3               	asrf	??___fladd+3,f
  4034     0A32  0CA2               	rrf	??___fladd+2,f
  4035     0A33  0CA1               	rrf	??___fladd+1,f
  4036     0A34  0CA0               	rrf	??___fladd,f
  4037     0A35                     u3970:
  4038     0A35  0BA4               	decfsz	??___fladd+4,f
  4039     0A36  2A31               	goto	u3975
  4040     0A37  0823               	movf	??___fladd+3,w
  4041     0A38  00F3               	movwf	___fladd@b+3
  4042     0A39  0822               	movf	??___fladd+2,w
  4043     0A3A  00F2               	movwf	___fladd@b+2
  4044     0A3B  0821               	movf	??___fladd+1,w
  4045     0A3C  00F1               	movwf	___fladd@b+1
  4046     0A3D  0820               	movf	??___fladd,w
  4047     0A3E  00F0               	movwf	___fladd@b
  4048     0A3F  0A7A               	incf	___fladd@bexp,w
  4049     0A40  1903               	btfsc	3,2
  4050     0A41  2A43               	goto	u3981
  4051     0A42  2A44               	goto	u3980
  4052     0A43                     u3981:
  4053     0A43  2A48               	goto	l662
  4054     0A44                     u3980:
  4055     0A44                     l2945:
  4056     0A44  3001               	movlw	1
  4057     0A45  00A0               	movwf	??___fladd
  4058     0A46  0820               	movf	??___fladd,w
  4059     0A47  07FA               	addwf	___fladd@bexp,f
  4060     0A48                     l662:
  4061     0A48  0A7A               	incf	___fladd@bexp,w
  4062     0A49  1903               	btfsc	3,2
  4063     0A4A  2A4C               	goto	u3991
  4064     0A4B  2A4D               	goto	u3990
  4065     0A4C                     u3991:
  4066     0A4C  2A52               	goto	l2949
  4067     0A4D                     u3990:
  4068     0A4D                     l2947:
  4069     0A4D  087A               	movf	___fladd@bexp,w
  4070     0A4E  1D03               	btfss	3,2
  4071     0A4F  2A51               	goto	u4001
  4072     0A50  2A52               	goto	u4000
  4073     0A51                     u4001:
  4074     0A51  2A60               	goto	l2955
  4075     0A52                     u4000:
  4076     0A52                     l2949:
  4077     0A52  3000               	movlw	0
  4078     0A53  00F3               	movwf	___fladd@b+3
  4079     0A54  3000               	movlw	0
  4080     0A55  00F2               	movwf	___fladd@b+2
  4081     0A56  3000               	movlw	0
  4082     0A57  00F1               	movwf	___fladd@b+1
  4083     0A58  3000               	movlw	0
  4084     0A59  00F0               	movwf	___fladd@b
  4085     0A5A                     l2951:
  4086     0A5A  087A               	movf	___fladd@bexp,w
  4087     0A5B  1D03               	btfss	3,2
  4088     0A5C  2A5E               	goto	u4011
  4089     0A5D  2A5F               	goto	u4010
  4090     0A5E                     u4011:
  4091     0A5E  2A60               	goto	l2955
  4092     0A5F                     u4010:
  4093     0A5F                     l2953:
  4094     0A5F  01F8               	clrf	___fladd@signs
  4095     0A60                     l2955:
  4096     0A60  1C7A               	btfss	___fladd@bexp,0
  4097     0A61  2A63               	goto	u4021
  4098     0A62  2A64               	goto	u4020
  4099     0A63                     u4021:
  4100     0A63  2A66               	goto	l2959
  4101     0A64                     u4020:
  4102     0A64                     l2957:
  4103     0A64  17F2               	bsf	___fladd@b+2,7
  4104     0A65  2A6B               	goto	l670
  4105     0A66                     l2959:
  4106     0A66  307F               	movlw	127
  4107     0A67  0020               	movlb	0	; select bank0
  4108     0A68  00A0               	movwf	??___fladd
  4109     0A69  0820               	movf	??___fladd,w
  4110     0A6A  05F2               	andwf	___fladd@b+2,f
  4111     0A6B                     l670:
  4112     0A6B  367A               	lsrf	___fladd@bexp,w
  4113     0A6C  00F3               	movwf	___fladd@b+3
  4114     0A6D                     l2961:
  4115     0A6D  1FF8               	btfss	___fladd@signs,7
  4116     0A6E  2A70               	goto	u4031
  4117     0A6F  2A71               	goto	u4030
  4118     0A70                     u4031:
  4119     0A70  2A72               	goto	l671
  4120     0A71                     u4030:
  4121     0A71                     l2963:
  4122     0A71  17F3               	bsf	___fladd@b+3,7
  4123     0A72                     l671:
  4124     0A72                     l641:
  4125     0A72  0008               	return
  4126     0A73                     __end_of___fladd:
  4127                           
  4128                           	psect	text7
  4129     1EE8                     __ptext7:	
  4130 ;; *************** function _EUSART_Write_Integer *****************
  4131 ;; Defined at:
  4132 ;;		line 185 in file "EUSART.c"
  4133 ;; Parameters:    Size  Location     Type
  4134 ;;  value_to_sen    2   11[COMMON] int 
  4135 ;; Auto vars:     Size  Location     Type
  4136 ;;  buffer         20    7[BANK0 ] unsigned char [20]
  4137 ;;  temp_ptr        1   28[BANK0 ] PTR unsigned char 
  4138 ;;		 -> EUSART_Write_Integer@buffer(20), 
  4139 ;;  ptr             1   27[BANK0 ] PTR unsigned char 
  4140 ;;		 -> EUSART_Write_Integer@buffer(20), 
  4141 ;; Return value:  Size  Location     Type
  4142 ;;                  1    wreg      void 
  4143 ;; Registers used:
  4144 ;;		wreg, fsr0l, fsr0h, fsr1l, fsr1h, status,2, status,0, pclath, cstack
  4145 ;; Tracked objects:
  4146 ;;		On entry : 0/0
  4147 ;;		On exit  : 0/0
  4148 ;;		Unchanged: 0/0
  4149 ;; Data sizes:     COMMON   BANK0   BANK1   BANK2   BANK3   BANK4   BANK5   BANK6   BANK7   BANK8   BANK9  BANK10  BANK1
      +1  BANK12  BANK13  BANK14  BANK15  BANK16  BANK17  BANK18  BANK19  BANK20  BANK21  BANK22  BANK23  BANK24  BANK25
  4150 ;;      Params:         2       0       0       0       0       0       0       0       0       0       0       0       
      +0       0       0       0       0       0       0       0       0       0       0       0       0       0       0
  4151 ;;      Locals:         0      22       0       0       0       0       0       0       0       0       0       0       
      +0       0       0       0       0       0       0       0       0       0       0       0       0       0       0
  4152 ;;      Temps:          1       0       0       0       0       0       0       0       0       0       0       0       
      +0       0       0       0       0       0       0       0       0       0       0       0       0       0       0
  4153 ;;      Totals:         3      22       0       0       0       0       0       0       0       0       0       0       
      +0       0       0       0       0       0       0       0       0       0       0       0       0       0       0
  4154 ;;Total ram usage:       25 bytes
  4155 ;; Hardware stack levels used: 1
  4156 ;; Hardware stack levels required when called: 2
  4157 ;; This function calls:
  4158 ;;		_EUSART_Write
  4159 ;;		_itoa
  4160 ;; This function is called by:
  4161 ;;		_print_float
  4162 ;;		_classify_and_print
  4163 ;;		_run_demo
  4164 ;;		_main
  4165 ;; This function uses a non-reentrant model
  4166 ;;
  4167                           
  4168     1EE8                     _EUSART_Write_Integer:	
  4169                           ;psect for function _EUSART_Write_Integer
  4170                           
  4171     1EE8                     l2979:	
  4172                           ;incstack = 0
  4173                           ; Regs used in _EUSART_Write_Integer: [wreg-fsr1h+status,2+status,0+pclath+cstack]
  4174                           
  4175                           
  4176                           ;EUSART.c: 185: void EUSART_Write_Integer(int value_to_send);EUSART.c: 186: {;EUSART.c: 
      +                          187:     char buffer[20];;EUSART.c: 188:     char *ptr = buffer;
  4177     1EE8  3027               	movlw	(low (EUSART_Write_Integer@buffer| 0))& (0+255)
  4178     1EE9  0020               	movlb	0	; select bank0
  4179     1EEA  00BB               	movwf	EUSART_Write_Integer@ptr
  4180     1EEB                     l2981:
  4181                           
  4182                           ;EUSART.c: 190:     itoa(&ptr, value_to_send);
  4183     1EEB  087C               	movf	EUSART_Write_Integer@value_to_send+1,w
  4184     1EEC  00FA               	movwf	itoa@d+1
  4185     1EED  087B               	movf	EUSART_Write_Integer@value_to_send,w
  4186     1EEE  00F9               	movwf	itoa@d
  4187     1EEF  303B               	movlw	(low (EUSART_Write_Integer@ptr| 0))& (0+255)
  4188     1EF0  3193  237D  319E   	fcall	_itoa
  4189     1EF3                     l2983:
  4190                           
  4191                           ;EUSART.c: 193:     char *temp_ptr = buffer;
  4192     1EF3  3027               	movlw	(low (EUSART_Write_Integer@buffer| 0))& (0+255)
  4193     1EF4  0020               	movlb	0	; select bank0
  4194     1EF5  00BC               	movwf	EUSART_Write_Integer@temp_ptr
  4195                           
  4196                           ;EUSART.c: 194:     while (*temp_ptr != '\0') {
  4197     1EF6  2F03               	goto	l2989
  4198     1EF7                     l2985:
  4199                           
  4200                           ;EUSART.c: 195:         EUSART_Write(*temp_ptr++);
  4201     1EF7  083C               	movf	EUSART_Write_Integer@temp_ptr,w
  4202     1EF8  0086               	movwf	6
  4203     1EF9  0187               	clrf	7
  4204     1EFA  0801               	movf	1,w
  4205     1EFB  319D  25FD  319E   	fcall	_EUSART_Write
  4206     1EFE                     l2987:
  4207     1EFE  3001               	movlw	1
  4208     1EFF  00FD               	movwf	??_EUSART_Write_Integer
  4209     1F00  087D               	movf	??_EUSART_Write_Integer,w
  4210     1F01  0020               	movlb	0	; select bank0
  4211     1F02  07BC               	addwf	EUSART_Write_Integer@temp_ptr,f
  4212     1F03                     l2989:
  4213                           
  4214                           ;EUSART.c: 194:     while (*temp_ptr != '\0') {
  4215     1F03  083C               	movf	EUSART_Write_Integer@temp_ptr,w
  4216     1F04  0086               	movwf	6
  4217     1F05  0187               	clrf	7
  4218     1F06  0801               	movf	1,w
  4219     1F07  1D03               	btfss	3,2
  4220     1F08  2F0A               	goto	u4071
  4221     1F09  2F0B               	goto	u4070
  4222     1F0A                     u4071:
  4223     1F0A  2EF7               	goto	l2985
  4224     1F0B                     u4070:
  4225     1F0B                     l66:
  4226     1F0B  0008               	return
  4227     1F0C                     __end_of_EUSART_Write_Integer:
  4228                           
  4229                           	psect	text8
  4230     137D                     __ptext8:	
  4231 ;; *************** function _itoa *****************
  4232 ;; Defined at:
  4233 ;;		line 149 in file "EUSART.c"
  4234 ;; Parameters:    Size  Location     Type
  4235 ;;  buf             1    wreg     PTR PTR unsigned char 
  4236 ;;		 -> EUSART_Write_Integer@ptr(1), 
  4237 ;;  d               2    9[COMMON] int 
  4238 ;; Auto vars:     Size  Location     Type
  4239 ;;  buf             1    4[BANK0 ] PTR PTR unsigned char 
  4240 ;;		 -> EUSART_Write_Integer@ptr(1), 
  4241 ;;  num             2    0[BANK0 ] int 
  4242 ;;  div             2    5[BANK0 ] int 
  4243 ;;  temp            2    2[BANK0 ] int 
  4244 ;; Return value:  Size  Location     Type
  4245 ;;                  1    wreg      void 
  4246 ;; Registers used:
  4247 ;;		wreg, fsr0l, fsr0h, fsr1l, fsr1h, status,2, status,0, pclath, cstack
  4248 ;; Tracked objects:
  4249 ;;		On entry : 0/0
  4250 ;;		On exit  : 0/0
  4251 ;;		Unchanged: 0/0
  4252 ;; Data sizes:     COMMON   BANK0   BANK1   BANK2   BANK3   BANK4   BANK5   BANK6   BANK7   BANK8   BANK9  BANK10  BANK1
      +1  BANK12  BANK13  BANK14  BANK15  BANK16  BANK17  BANK18  BANK19  BANK20  BANK21  BANK22  BANK23  BANK24  BANK25
  4253 ;;      Params:         2       0       0       0       0       0       0       0       0       0       0       0       
      +0       0       0       0       0       0       0       0       0       0       0       0       0       0       0
  4254 ;;      Locals:         0       7       0       0       0       0       0       0       0       0       0       0       
      +0       0       0       0       0       0       0       0       0       0       0       0       0       0       0
  4255 ;;      Temps:          0       0       0       0       0       0       0       0       0       0       0       0       
      +0       0       0       0       0       0       0       0       0       0       0       0       0       0       0
  4256 ;;      Totals:         2       7       0       0       0       0       0       0       0       0       0       0       
      +0       0       0       0       0       0       0       0       0       0       0       0       0       0       0
  4257 ;;Total ram usage:        9 bytes
  4258 ;; Hardware stack levels used: 1
  4259 ;; Hardware stack levels required when called: 1
  4260 ;; This function calls:
  4261 ;;		___awdiv
  4262 ;;		___awmod
  4263 ;;		___wmul
  4264 ;; This function is called by:
  4265 ;;		_EUSART_Write_Integer
  4266 ;; This function uses a non-reentrant model
  4267 ;;
  4268                           
  4269     137D                     _itoa:	
  4270                           ;psect for function _itoa
  4271                           
  4272                           
  4273                           ;incstack = 0
  4274                           ; Regs used in _itoa: [wreg-fsr1h+status,2+status,0+pclath+cstack]
  4275                           ;itoa@buf stored from wreg
  4276     137D  0020               	movlb	0	; select bank0
  4277     137E  00A4               	movwf	itoa@buf
  4278     137F                     l2753:
  4279                           
  4280                           ;EUSART.c: 149: void itoa(char **buf, int d);EUSART.c: 150: {;EUSART.c: 151:     int div
      +                           = 1;
  4281     137F  3001               	movlw	1
  4282     1380  00A5               	movwf	itoa@div
  4283     1381  3000               	movlw	0
  4284     1382  00A6               	movwf	itoa@div+1
  4285                           
  4286                           ;EUSART.c: 152:     if (d < 0)
  4287     1383  1FFA               	btfss	itoa@d+1,7
  4288     1384  2B86               	goto	u3581
  4289     1385  2B87               	goto	u3580
  4290     1386                     u3581:
  4291     1386  2B95               	goto	l2759
  4292     1387                     u3580:
  4293     1387                     l2755:
  4294                           
  4295                           ;EUSART.c: 153:     {;EUSART.c: 154:         *((*buf)++) = '-';
  4296     1387  0824               	movf	itoa@buf,w
  4297     1388  0086               	movwf	6
  4298     1389  0187               	clrf	7
  4299     138A  3F40               	moviw [0]fsr1
  4300     138B  0084               	movwf	4
  4301     138C  0185               	clrf	5
  4302     138D  0A81               	incf	1,f
  4303     138E  302D               	movlw	45
  4304     138F  0080               	movwf	0
  4305     1390                     l2757:
  4306                           
  4307                           ;EUSART.c: 155:         d = -d;
  4308     1390  09F9               	comf	itoa@d,f
  4309     1391  09FA               	comf	itoa@d+1,f
  4310     1392  0AF9               	incf	itoa@d,f
  4311     1393  1903               	skipnz
  4312     1394  0AFA               	incf	itoa@d+1,f
  4313     1395                     l2759:
  4314                           
  4315                           ;EUSART.c: 158:     int temp = d;
  4316     1395  087A               	movf	itoa@d+1,w
  4317     1396  00A3               	movwf	itoa@temp+1
  4318     1397  0879               	movf	itoa@d,w
  4319     1398  00A2               	movwf	itoa@temp
  4320                           
  4321                           ;EUSART.c: 159:     while (temp / 10)
  4322     1399  2BBB               	goto	l54
  4323     139A                     l2761:
  4324                           
  4325                           ;EUSART.c: 160:     {;EUSART.c: 161:         temp /= 10;
  4326     139A  300A               	movlw	10
  4327     139B  00F0               	movwf	___awdiv@divisor
  4328     139C  3000               	movlw	0
  4329     139D  00F1               	movwf	___awdiv@divisor+1
  4330     139E  0020               	movlb	0	; select bank0
  4331     139F  0823               	movf	itoa@temp+1,w
  4332     13A0  00F3               	movwf	___awdiv@dividend+1
  4333     13A1  0822               	movf	itoa@temp,w
  4334     13A2  00F2               	movwf	___awdiv@dividend
  4335     13A3  3188  2008  3193   	fcall	___awdiv
  4336     13A6  0871               	movf	?___awdiv+1,w
  4337     13A7  0020               	movlb	0	; select bank0
  4338     13A8  00A3               	movwf	itoa@temp+1
  4339     13A9  0870               	movf	?___awdiv,w
  4340     13AA  00A2               	movwf	itoa@temp
  4341                           
  4342                           ;EUSART.c: 162:         div *= 10;
  4343     13AB  300A               	movlw	10
  4344     13AC  00F0               	movwf	___wmul@multiplier
  4345     13AD  3000               	movlw	0
  4346     13AE  00F1               	movwf	___wmul@multiplier+1
  4347     13AF  0826               	movf	itoa@div+1,w
  4348     13B0  00F3               	movwf	___wmul@multiplicand+1
  4349     13B1  0825               	movf	itoa@div,w
  4350     13B2  00F2               	movwf	___wmul@multiplicand
  4351     13B3  319E  2686  3193   	fcall	___wmul
  4352     13B6  0871               	movf	?___wmul+1,w
  4353     13B7  0020               	movlb	0	; select bank0
  4354     13B8  00A6               	movwf	itoa@div+1
  4355     13B9  0870               	movf	?___wmul,w
  4356     13BA  00A5               	movwf	itoa@div
  4357     13BB                     l54:	
  4358                           ;EUSART.c: 163:     }
  4359                           
  4360                           
  4361                           ;EUSART.c: 159:     while (temp / 10)
  4362     13BB  300A               	movlw	10
  4363     13BC  00F0               	movwf	___awdiv@divisor
  4364     13BD  3000               	movlw	0
  4365     13BE  00F1               	movwf	___awdiv@divisor+1
  4366     13BF  0823               	movf	itoa@temp+1,w
  4367     13C0  00F3               	movwf	___awdiv@dividend+1
  4368     13C1  0822               	movf	itoa@temp,w
  4369     13C2  00F2               	movwf	___awdiv@dividend
  4370     13C3  3188  2008  3193   	fcall	___awdiv
  4371     13C6  0870               	movf	?___awdiv,w
  4372     13C7  0471               	iorwf	?___awdiv+1,w
  4373     13C8  1D03               	btfss	3,2
  4374     13C9  2BCB               	goto	u3591
  4375     13CA  2BCC               	goto	u3590
  4376     13CB                     u3591:
  4377     13CB  2B9A               	goto	l2761
  4378     13CC                     u3590:
  4379     13CC  2C07               	goto	l2767
  4380     13CD                     l2763:
  4381                           
  4382                           ;EUSART.c: 166:     {;EUSART.c: 167:         int num = d / div;
  4383     13CD  0826               	movf	itoa@div+1,w
  4384     13CE  00F1               	movwf	___awdiv@divisor+1
  4385     13CF  0825               	movf	itoa@div,w
  4386     13D0  00F0               	movwf	___awdiv@divisor
  4387     13D1  087A               	movf	itoa@d+1,w
  4388     13D2  00F3               	movwf	___awdiv@dividend+1
  4389     13D3  0879               	movf	itoa@d,w
  4390     13D4  00F2               	movwf	___awdiv@dividend
  4391     13D5  3188  2008  3193   	fcall	___awdiv
  4392     13D8  0871               	movf	?___awdiv+1,w
  4393     13D9  0020               	movlb	0	; select bank0
  4394     13DA  00A1               	movwf	itoa@num+1
  4395     13DB  0870               	movf	?___awdiv,w
  4396     13DC  00A0               	movwf	itoa@num
  4397                           
  4398                           ;EUSART.c: 168:         d %= div;
  4399     13DD  0826               	movf	itoa@div+1,w
  4400     13DE  00F1               	movwf	___awmod@divisor+1
  4401     13DF  0825               	movf	itoa@div,w
  4402     13E0  00F0               	movwf	___awmod@divisor
  4403     13E1  087A               	movf	itoa@d+1,w
  4404     13E2  00F3               	movwf	___awmod@dividend+1
  4405     13E3  0879               	movf	itoa@d,w
  4406     13E4  00F2               	movwf	___awmod@dividend
  4407     13E5  3190  204C  3193   	fcall	___awmod
  4408     13E8  0871               	movf	?___awmod+1,w
  4409     13E9  00FA               	movwf	itoa@d+1
  4410     13EA  0870               	movf	?___awmod,w
  4411     13EB  00F9               	movwf	itoa@d
  4412                           
  4413                           ;EUSART.c: 169:         div /= 10;
  4414     13EC  300A               	movlw	10
  4415     13ED  00F0               	movwf	___awdiv@divisor
  4416     13EE  3000               	movlw	0
  4417     13EF  00F1               	movwf	___awdiv@divisor+1
  4418     13F0  0020               	movlb	0	; select bank0
  4419     13F1  0826               	movf	itoa@div+1,w
  4420     13F2  00F3               	movwf	___awdiv@dividend+1
  4421     13F3  0825               	movf	itoa@div,w
  4422     13F4  00F2               	movwf	___awdiv@dividend
  4423     13F5  3188  2008  3193   	fcall	___awdiv
  4424     13F8  0871               	movf	?___awdiv+1,w
  4425     13F9  0020               	movlb	0	; select bank0
  4426     13FA  00A6               	movwf	itoa@div+1
  4427     13FB  0870               	movf	?___awdiv,w
  4428     13FC  00A5               	movwf	itoa@div
  4429     13FD                     l2765:
  4430                           
  4431                           ;EUSART.c: 170:         *((*buf)++) = num + '0';
  4432     13FD  0824               	movf	itoa@buf,w
  4433     13FE  0086               	movwf	6
  4434     13FF  0187               	clrf	7
  4435     1400  3F40               	moviw [0]fsr1
  4436     1401  0084               	movwf	4
  4437     1402  0185               	clrf	5
  4438     1403  0A81               	incf	1,f
  4439     1404  0820               	movf	itoa@num,w
  4440     1405  3E30               	addlw	48
  4441     1406  0080               	movwf	0
  4442     1407                     l2767:
  4443                           
  4444                           ;EUSART.c: 165:     while (div != 0)
  4445     1407  0020               	movlb	0	; select bank0
  4446     1408  0825               	movf	itoa@div,w
  4447     1409  0426               	iorwf	itoa@div+1,w
  4448     140A  1D03               	btfss	3,2
  4449     140B  2C0D               	goto	u3601
  4450     140C  2C0E               	goto	u3600
  4451     140D                     u3601:
  4452     140D  2BCD               	goto	l2763
  4453     140E                     u3600:
  4454     140E                     l2769:
  4455                           
  4456                           ;EUSART.c: 172:     *(*buf) = '\0';
  4457     140E  0824               	movf	itoa@buf,w
  4458     140F  0086               	movwf	6
  4459     1410  0187               	clrf	7
  4460     1411  0801               	movf	1,w
  4461     1412  0086               	movwf	6
  4462     1413  0187               	clrf	7
  4463     1414  0181               	clrf	1
  4464     1415                     l60:
  4465     1415  0008               	return
  4466     1416                     __end_of_itoa:
  4467                           
  4468                           	psect	text9
  4469     104C                     __ptext9:	
  4470 ;; *************** function ___awmod *****************
  4471 ;; Defined at:
  4472 ;;		line 5 in file "C:\Program Files\Microchip\xc8\v2.46\pic\sources\c99\common\awmod.c"
  4473 ;; Parameters:    Size  Location     Type
  4474 ;;  divisor         2    0[COMMON] int 
  4475 ;;  dividend        2    2[COMMON] int 
  4476 ;; Auto vars:     Size  Location     Type
  4477 ;;  sign            1    6[COMMON] unsigned char 
  4478 ;;  counter         1    5[COMMON] unsigned char 
  4479 ;; Return value:  Size  Location     Type
  4480 ;;                  2    0[COMMON] int 
  4481 ;; Registers used:
  4482 ;;		wreg, status,2, status,0
  4483 ;; Tracked objects:
  4484 ;;		On entry : 0/0
  4485 ;;		On exit  : 0/0
  4486 ;;		Unchanged: 0/0
  4487 ;; Data sizes:     COMMON   BANK0   BANK1   BANK2   BANK3   BANK4   BANK5   BANK6   BANK7   BANK8   BANK9  BANK10  BANK1
      +1  BANK12  BANK13  BANK14  BANK15  BANK16  BANK17  BANK18  BANK19  BANK20  BANK21  BANK22  BANK23  BANK24  BANK25
  4488 ;;      Params:         4       0       0       0       0       0       0       0       0       0       0       0       
      +0       0       0       0       0       0       0       0       0       0       0       0       0       0       0
  4489 ;;      Locals:         2       0       0       0       0       0       0       0       0       0       0       0       
      +0       0       0       0       0       0       0       0       0       0       0       0       0       0       0
  4490 ;;      Temps:          1       0       0       0       0       0       0       0       0       0       0       0       
      +0       0       0       0       0       0       0       0       0       0       0       0       0       0       0
  4491 ;;      Totals:         7       0       0       0       0       0       0       0       0       0       0       0       
      +0       0       0       0       0       0       0       0       0       0       0       0       0       0       0
  4492 ;;Total ram usage:        7 bytes
  4493 ;; Hardware stack levels used: 1
  4494 ;; This function calls:
  4495 ;;		Nothing
  4496 ;; This function is called by:
  4497 ;;		_itoa
  4498 ;; This function uses a non-reentrant model
  4499 ;;
  4500                           
  4501     104C                     ___awmod:	
  4502                           ;psect for function ___awmod
  4503                           
  4504     104C                     l2711:	
  4505                           ;incstack = 0
  4506                           ; Regs used in ___awmod: [wreg+status,2+status,0]
  4507                           
  4508     104C  01F6               	clrf	___awmod@sign
  4509     104D                     l2713:
  4510     104D  1FF3               	btfss	___awmod@dividend+1,7
  4511     104E  2850               	goto	u3481
  4512     104F  2851               	goto	u3480
  4513     1050                     u3481:
  4514     1050  2858               	goto	l2719
  4515     1051                     u3480:
  4516     1051                     l2715:
  4517     1051  09F2               	comf	___awmod@dividend,f
  4518     1052  09F3               	comf	___awmod@dividend+1,f
  4519     1053  0AF2               	incf	___awmod@dividend,f
  4520     1054  1903               	skipnz
  4521     1055  0AF3               	incf	___awmod@dividend+1,f
  4522     1056                     l2717:
  4523     1056  01F6               	clrf	___awmod@sign
  4524     1057  0AF6               	incf	___awmod@sign,f
  4525     1058                     l2719:
  4526     1058  1FF1               	btfss	___awmod@divisor+1,7
  4527     1059  285B               	goto	u3491
  4528     105A  285C               	goto	u3490
  4529     105B                     u3491:
  4530     105B  2861               	goto	l2723
  4531     105C                     u3490:
  4532     105C                     l2721:
  4533     105C  09F0               	comf	___awmod@divisor,f
  4534     105D  09F1               	comf	___awmod@divisor+1,f
  4535     105E  0AF0               	incf	___awmod@divisor,f
  4536     105F  1903               	skipnz
  4537     1060  0AF1               	incf	___awmod@divisor+1,f
  4538     1061                     l2723:
  4539     1061  0870               	movf	___awmod@divisor,w
  4540     1062  0471               	iorwf	___awmod@divisor+1,w
  4541     1063  1903               	btfsc	3,2
  4542     1064  2866               	goto	u3501
  4543     1065  2867               	goto	u3500
  4544     1066                     u3501:
  4545     1066  2890               	goto	l2741
  4546     1067                     u3500:
  4547     1067                     l2725:
  4548     1067  01F5               	clrf	___awmod@counter
  4549     1068  0AF5               	incf	___awmod@counter,f
  4550     1069  2873               	goto	l2731
  4551     106A                     l2727:
  4552     106A  3001               	movlw	1
  4553     106B                     u3515:
  4554     106B  35F0               	lslf	___awmod@divisor,f
  4555     106C  0DF1               	rlf	___awmod@divisor+1,f
  4556     106D  0B89               	decfsz	9,f
  4557     106E  286B               	goto	u3515
  4558     106F                     l2729:
  4559     106F  3001               	movlw	1
  4560     1070  00F4               	movwf	??___awmod
  4561     1071  0874               	movf	??___awmod,w
  4562     1072  07F5               	addwf	___awmod@counter,f
  4563     1073                     l2731:
  4564     1073  1FF1               	btfss	___awmod@divisor+1,7
  4565     1074  2876               	goto	u3521
  4566     1075  2877               	goto	u3520
  4567     1076                     u3521:
  4568     1076  286A               	goto	l2727
  4569     1077                     u3520:
  4570     1077                     l2733:
  4571     1077  0871               	movf	___awmod@divisor+1,w
  4572     1078  0273               	subwf	___awmod@dividend+1,w
  4573     1079  1D03               	skipz
  4574     107A  287D               	goto	u3535
  4575     107B  0870               	movf	___awmod@divisor,w
  4576     107C  0272               	subwf	___awmod@dividend,w
  4577     107D                     u3535:
  4578     107D  1C03               	skipc
  4579     107E  2880               	goto	u3531
  4580     107F  2881               	goto	u3530
  4581     1080                     u3531:
  4582     1080  2885               	goto	l2737
  4583     1081                     u3530:
  4584     1081                     l2735:
  4585     1081  0870               	movf	___awmod@divisor,w
  4586     1082  02F2               	subwf	___awmod@dividend,f
  4587     1083  0871               	movf	___awmod@divisor+1,w
  4588     1084  3BF3               	subwfb	___awmod@dividend+1,f
  4589     1085                     l2737:
  4590     1085  3001               	movlw	1
  4591     1086                     u3545:
  4592     1086  36F1               	lsrf	___awmod@divisor+1,f
  4593     1087  0CF0               	rrf	___awmod@divisor,f
  4594     1088  0B89               	decfsz	9,f
  4595     1089  2886               	goto	u3545
  4596     108A                     l2739:
  4597     108A  3001               	movlw	1
  4598     108B  02F5               	subwf	___awmod@counter,f
  4599     108C  1D03               	btfss	3,2
  4600     108D  288F               	goto	u3551
  4601     108E  2890               	goto	u3550
  4602     108F                     u3551:
  4603     108F  2877               	goto	l2733
  4604     1090                     u3550:
  4605     1090                     l2741:
  4606     1090  0876               	movf	___awmod@sign,w
  4607     1091  1903               	btfsc	3,2
  4608     1092  2894               	goto	u3561
  4609     1093  2895               	goto	u3560
  4610     1094                     u3561:
  4611     1094  289A               	goto	l2745
  4612     1095                     u3560:
  4613     1095                     l2743:
  4614     1095  09F2               	comf	___awmod@dividend,f
  4615     1096  09F3               	comf	___awmod@dividend+1,f
  4616     1097  0AF2               	incf	___awmod@dividend,f
  4617     1098  1903               	skipnz
  4618     1099  0AF3               	incf	___awmod@dividend+1,f
  4619     109A                     l2745:
  4620     109A  0873               	movf	___awmod@dividend+1,w
  4621     109B  00F1               	movwf	?___awmod+1
  4622     109C  0872               	movf	___awmod@dividend,w
  4623     109D  00F0               	movwf	?___awmod
  4624     109E                     l493:
  4625     109E  0008               	return
  4626     109F                     __end_of___awmod:
  4627                           
  4628                           	psect	text10
  4629     0808                     __ptext10:	
  4630 ;; *************** function ___awdiv *****************
  4631 ;; Defined at:
  4632 ;;		line 5 in file "C:\Program Files\Microchip\xc8\v2.46\pic\sources\c99\common\awdiv.c"
  4633 ;; Parameters:    Size  Location     Type
  4634 ;;  divisor         2    0[COMMON] int 
  4635 ;;  dividend        2    2[COMMON] int 
  4636 ;; Auto vars:     Size  Location     Type
  4637 ;;  quotient        2    7[COMMON] int 
  4638 ;;  sign            1    6[COMMON] unsigned char 
  4639 ;;  counter         1    5[COMMON] unsigned char 
  4640 ;; Return value:  Size  Location     Type
  4641 ;;                  2    0[COMMON] int 
  4642 ;; Registers used:
  4643 ;;		wreg, status,2, status,0
  4644 ;; Tracked objects:
  4645 ;;		On entry : 0/0
  4646 ;;		On exit  : 0/0
  4647 ;;		Unchanged: 0/0
  4648 ;; Data sizes:     COMMON   BANK0   BANK1   BANK2   BANK3   BANK4   BANK5   BANK6   BANK7   BANK8   BANK9  BANK10  BANK1
      +1  BANK12  BANK13  BANK14  BANK15  BANK16  BANK17  BANK18  BANK19  BANK20  BANK21  BANK22  BANK23  BANK24  BANK25
  4649 ;;      Params:         4       0       0       0       0       0       0       0       0       0       0       0       
      +0       0       0       0       0       0       0       0       0       0       0       0       0       0       0
  4650 ;;      Locals:         4       0       0       0       0       0       0       0       0       0       0       0       
      +0       0       0       0       0       0       0       0       0       0       0       0       0       0       0
  4651 ;;      Temps:          1       0       0       0       0       0       0       0       0       0       0       0       
      +0       0       0       0       0       0       0       0       0       0       0       0       0       0       0
  4652 ;;      Totals:         9       0       0       0       0       0       0       0       0       0       0       0       
      +0       0       0       0       0       0       0       0       0       0       0       0       0       0       0
  4653 ;;Total ram usage:        9 bytes
  4654 ;; Hardware stack levels used: 1
  4655 ;; This function calls:
  4656 ;;		Nothing
  4657 ;; This function is called by:
  4658 ;;		_itoa
  4659 ;; This function uses a non-reentrant model
  4660 ;;
  4661                           
  4662     0808                     ___awdiv:	
  4663                           ;psect for function ___awdiv
  4664                           
  4665     0808                     l2667:	
  4666                           ;incstack = 0
  4667                           ; Regs used in ___awdiv: [wreg+status,2+status,0]
  4668                           
  4669     0808  01F6               	clrf	___awdiv@sign
  4670     0809                     l2669:
  4671     0809  1FF1               	btfss	___awdiv@divisor+1,7
  4672     080A  280C               	goto	u3381
  4673     080B  280D               	goto	u3380
  4674     080C                     u3381:
  4675     080C  2814               	goto	l2675
  4676     080D                     u3380:
  4677     080D                     l2671:
  4678     080D  09F0               	comf	___awdiv@divisor,f
  4679     080E  09F1               	comf	___awdiv@divisor+1,f
  4680     080F  0AF0               	incf	___awdiv@divisor,f
  4681     0810  1903               	skipnz
  4682     0811  0AF1               	incf	___awdiv@divisor+1,f
  4683     0812                     l2673:
  4684     0812  01F6               	clrf	___awdiv@sign
  4685     0813  0AF6               	incf	___awdiv@sign,f
  4686     0814                     l2675:
  4687     0814  1FF3               	btfss	___awdiv@dividend+1,7
  4688     0815  2817               	goto	u3391
  4689     0816  2818               	goto	u3390
  4690     0817                     u3391:
  4691     0817  2821               	goto	l2681
  4692     0818                     u3390:
  4693     0818                     l2677:
  4694     0818  09F2               	comf	___awdiv@dividend,f
  4695     0819  09F3               	comf	___awdiv@dividend+1,f
  4696     081A  0AF2               	incf	___awdiv@dividend,f
  4697     081B  1903               	skipnz
  4698     081C  0AF3               	incf	___awdiv@dividend+1,f
  4699     081D                     l2679:
  4700     081D  3001               	movlw	1
  4701     081E  00F4               	movwf	??___awdiv
  4702     081F  0874               	movf	??___awdiv,w
  4703     0820  06F6               	xorwf	___awdiv@sign,f
  4704     0821                     l2681:
  4705     0821  01F7               	clrf	___awdiv@quotient
  4706     0822  01F8               	clrf	___awdiv@quotient+1
  4707     0823                     l2683:
  4708     0823  0870               	movf	___awdiv@divisor,w
  4709     0824  0471               	iorwf	___awdiv@divisor+1,w
  4710     0825  1903               	btfsc	3,2
  4711     0826  2828               	goto	u3401
  4712     0827  2829               	goto	u3400
  4713     0828                     u3401:
  4714     0828  2858               	goto	l2703
  4715     0829                     u3400:
  4716     0829                     l2685:
  4717     0829  01F5               	clrf	___awdiv@counter
  4718     082A  0AF5               	incf	___awdiv@counter,f
  4719     082B  2835               	goto	l2691
  4720     082C                     l2687:
  4721     082C  3001               	movlw	1
  4722     082D                     u3415:
  4723     082D  35F0               	lslf	___awdiv@divisor,f
  4724     082E  0DF1               	rlf	___awdiv@divisor+1,f
  4725     082F  0B89               	decfsz	9,f
  4726     0830  282D               	goto	u3415
  4727     0831                     l2689:
  4728     0831  3001               	movlw	1
  4729     0832  00F4               	movwf	??___awdiv
  4730     0833  0874               	movf	??___awdiv,w
  4731     0834  07F5               	addwf	___awdiv@counter,f
  4732     0835                     l2691:
  4733     0835  1FF1               	btfss	___awdiv@divisor+1,7
  4734     0836  2838               	goto	u3421
  4735     0837  2839               	goto	u3420
  4736     0838                     u3421:
  4737     0838  282C               	goto	l2687
  4738     0839                     u3420:
  4739     0839                     l2693:
  4740     0839  3001               	movlw	1
  4741     083A                     u3435:
  4742     083A  35F7               	lslf	___awdiv@quotient,f
  4743     083B  0DF8               	rlf	___awdiv@quotient+1,f
  4744     083C  0B89               	decfsz	9,f
  4745     083D  283A               	goto	u3435
  4746     083E  0871               	movf	___awdiv@divisor+1,w
  4747     083F  0273               	subwf	___awdiv@dividend+1,w
  4748     0840  1D03               	skipz
  4749     0841  2844               	goto	u3445
  4750     0842  0870               	movf	___awdiv@divisor,w
  4751     0843  0272               	subwf	___awdiv@dividend,w
  4752     0844                     u3445:
  4753     0844  1C03               	skipc
  4754     0845  2847               	goto	u3441
  4755     0846  2848               	goto	u3440
  4756     0847                     u3441:
  4757     0847  284D               	goto	l2699
  4758     0848                     u3440:
  4759     0848                     l2695:
  4760     0848  0870               	movf	___awdiv@divisor,w
  4761     0849  02F2               	subwf	___awdiv@dividend,f
  4762     084A  0871               	movf	___awdiv@divisor+1,w
  4763     084B  3BF3               	subwfb	___awdiv@dividend+1,f
  4764     084C                     l2697:
  4765     084C  1477               	bsf	___awdiv@quotient,0
  4766     084D                     l2699:
  4767     084D  3001               	movlw	1
  4768     084E                     u3455:
  4769     084E  36F1               	lsrf	___awdiv@divisor+1,f
  4770     084F  0CF0               	rrf	___awdiv@divisor,f
  4771     0850  0B89               	decfsz	9,f
  4772     0851  284E               	goto	u3455
  4773     0852                     l2701:
  4774     0852  3001               	movlw	1
  4775     0853  02F5               	subwf	___awdiv@counter,f
  4776     0854  1D03               	btfss	3,2
  4777     0855  2857               	goto	u3461
  4778     0856  2858               	goto	u3460
  4779     0857                     u3461:
  4780     0857  2839               	goto	l2693
  4781     0858                     u3460:
  4782     0858                     l2703:
  4783     0858  0876               	movf	___awdiv@sign,w
  4784     0859  1903               	btfsc	3,2
  4785     085A  285C               	goto	u3471
  4786     085B  285D               	goto	u3470
  4787     085C                     u3471:
  4788     085C  2862               	goto	l2707
  4789     085D                     u3470:
  4790     085D                     l2705:
  4791     085D  09F7               	comf	___awdiv@quotient,f
  4792     085E  09F8               	comf	___awdiv@quotient+1,f
  4793     085F  0AF7               	incf	___awdiv@quotient,f
  4794     0860  1903               	skipnz
  4795     0861  0AF8               	incf	___awdiv@quotient+1,f
  4796     0862                     l2707:
  4797     0862  0878               	movf	___awdiv@quotient+1,w
  4798     0863  00F1               	movwf	?___awdiv+1
  4799     0864  0877               	movf	___awdiv@quotient,w
  4800     0865  00F0               	movwf	?___awdiv
  4801     0866                     l480:
  4802     0866  0008               	return
  4803     0867                     __end_of___awdiv:
  4804                           
  4805                           	psect	text11
  4806     0CAE                     __ptext11:	
  4807 ;; *************** function _ml_predict *****************
  4808 ;; Defined at:
  4809 ;;		line 29 in file "./ml.h"
  4810 ;; Parameters:    Size  Location     Type
  4811 ;;  x               1    wreg     PTR const float 
  4812 ;;		 -> main@features(16), run_demo@samples(48), 
  4813 ;; Auto vars:     Size  Location     Type
  4814 ;;  x               1    6[BANK0 ] PTR const float 
  4815 ;;		 -> main@features(16), run_demo@samples(48), 
  4816 ;;  votes           3    3[BANK0 ] unsigned char [3]
  4817 ;;  i               1    2[BANK0 ] unsigned char 
  4818 ;;  maxVotes        1    1[BANK0 ] unsigned char 
  4819 ;;  classIdx        1    0[BANK0 ] unsigned char 
  4820 ;; Return value:  Size  Location     Type
  4821 ;;                  1    wreg      char 
  4822 ;; Registers used:
  4823 ;;		wreg, fsr1l, fsr1h, status,2, status,0, pclath, cstack
  4824 ;; Tracked objects:
  4825 ;;		On entry : 0/0
  4826 ;;		On exit  : 0/0
  4827 ;;		Unchanged: 0/0
  4828 ;; Data sizes:     COMMON   BANK0   BANK1   BANK2   BANK3   BANK4   BANK5   BANK6   BANK7   BANK8   BANK9  BANK10  BANK1
      +1  BANK12  BANK13  BANK14  BANK15  BANK16  BANK17  BANK18  BANK19  BANK20  BANK21  BANK22  BANK23  BANK24  BANK25
  4829 ;;      Params:         0       0       0       0       0       0       0       0       0       0       0       0       
      +0       0       0       0       0       0       0       0       0       0       0       0       0       0       0
  4830 ;;      Locals:         0       7       0       0       0       0       0       0       0       0       0       0       
      +0       0       0       0       0       0       0       0       0       0       0       0       0       0       0
  4831 ;;      Temps:          1       0       0       0       0       0       0       0       0       0       0       0       
      +0       0       0       0       0       0       0       0       0       0       0       0       0       0       0
  4832 ;;      Totals:         1       7       0       0       0       0       0       0       0       0       0       0       
      +0       0       0       0       0       0       0       0       0       0       0       0       0       0       0
  4833 ;;Total ram usage:        8 bytes
  4834 ;; Hardware stack levels used: 1
  4835 ;; Hardware stack levels required when called: 1
  4836 ;; This function calls:
  4837 ;;		___flge
  4838 ;; This function is called by:
  4839 ;;		_classify_and_print
  4840 ;; This function uses a non-reentrant model
  4841 ;;
  4842                           
  4843     0CAE                     _ml_predict:	
  4844                           ;psect for function _ml_predict
  4845                           
  4846                           
  4847                           ;incstack = 0
  4848                           ; Regs used in _ml_predict: [wreg+fsr1l+fsr1h+status,2+status,0+pclath+cstack]
  4849                           ;ml_predict@x stored from wreg
  4850     0CAE  0020               	movlb	0	; select bank0
  4851     0CAF  00A6               	movwf	ml_predict@x
  4852     0CB0                     l3253:
  4853                           
  4854                           ;./ml.h: 29: signed char ml_predict(const float *x);./ml.h: 30: {;./ml.h: 31:     unsign
      +                          ed char votes[3] = { 0 };
  4855     0CB0  3000               	movlw	0
  4856     0CB1  00A3               	movwf	ml_predict@votes
  4857     0CB2  3000               	movlw	0
  4858     0CB3  00A4               	movwf	ml_predict@votes+1
  4859     0CB4  3000               	movlw	0
  4860     0CB5  00A5               	movwf	ml_predict@votes+2
  4861     0CB6                     l3255:
  4862                           
  4863                           ;./ml.h: 32:     unsigned char classIdx = 0;
  4864     0CB6  01A0               	clrf	ml_predict@classIdx
  4865     0CB7                     l3257:
  4866     0CB7                     l3259:
  4867                           
  4868                           ;./ml.h: 34:     unsigned char i;;./ml.h: 38:                         if (x[3] <= 0.75) 
      +                          {
  4869     0CB7  303F               	movlw	63
  4870     0CB8  00F3               	movwf	___flge@ff1+3
  4871     0CB9  3040               	movlw	64
  4872     0CBA  00F2               	movwf	___flge@ff1+2
  4873     0CBB  3000               	movlw	0
  4874     0CBC  00F1               	movwf	___flge@ff1+1
  4875     0CBD  3000               	movlw	0
  4876     0CBE  00F0               	movwf	___flge@ff1
  4877     0CBF  0826               	movf	ml_predict@x,w
  4878     0CC0  3E0C               	addlw	12
  4879     0CC1  0086               	movwf	6
  4880     0CC2  0187               	clrf	7
  4881     0CC3  3F40               	moviw [0]fsr1
  4882     0CC4  00F4               	movwf	___flge@ff2
  4883     0CC5  3F41               	moviw [1]fsr1
  4884     0CC6  00F5               	movwf	___flge@ff2+1
  4885     0CC7  3F42               	moviw [2]fsr1
  4886     0CC8  00F6               	movwf	___flge@ff2+2
  4887     0CC9  3F43               	moviw [3]fsr1
  4888     0CCA  00F7               	movwf	___flge@ff2+3
  4889     0CCB  3191  21D8  318C   	fcall	___flge
  4890     0CCE  1C03               	btfss	3,0
  4891     0CCF  2CD1               	goto	u4651
  4892     0CD0  2CD2               	goto	u4650
  4893     0CD1                     u4651:
  4894     0CD1  2CD8               	goto	l3263
  4895     0CD2                     u4650:
  4896     0CD2                     l3261:
  4897                           
  4898                           ;./ml.h: 39:                             votes[0] += 1;
  4899     0CD2  3001               	movlw	1
  4900     0CD3  00FC               	movwf	??_ml_predict
  4901     0CD4  087C               	movf	??_ml_predict,w
  4902     0CD5  0020               	movlb	0	; select bank0
  4903     0CD6  07A3               	addwf	ml_predict@votes,f
  4904                           
  4905                           ;./ml.h: 40:                         }
  4906     0CD7  2D2F               	goto	l3277
  4907     0CD8                     l3263:
  4908                           
  4909                           ;./ml.h: 43:                             if (x[3] <= 1.550000f) {
  4910     0CD8  303F               	movlw	63
  4911     0CD9  00F3               	movwf	___flge@ff1+3
  4912     0CDA  30C6               	movlw	198
  4913     0CDB  00F2               	movwf	___flge@ff1+2
  4914     0CDC  3066               	movlw	102
  4915     0CDD  00F1               	movwf	___flge@ff1+1
  4916     0CDE  3066               	movlw	102
  4917     0CDF  00F0               	movwf	___flge@ff1
  4918     0CE0  0020               	movlb	0	; select bank0
  4919     0CE1  0826               	movf	ml_predict@x,w
  4920     0CE2  3E0C               	addlw	12
  4921     0CE3  0086               	movwf	6
  4922     0CE4  0187               	clrf	7
  4923     0CE5  3F40               	moviw [0]fsr1
  4924     0CE6  00F4               	movwf	___flge@ff2
  4925     0CE7  3F41               	moviw [1]fsr1
  4926     0CE8  00F5               	movwf	___flge@ff2+1
  4927     0CE9  3F42               	moviw [2]fsr1
  4928     0CEA  00F6               	movwf	___flge@ff2+2
  4929     0CEB  3F43               	moviw [3]fsr1
  4930     0CEC  00F7               	movwf	___flge@ff2+3
  4931     0CED  3191  21D8  318C   	fcall	___flge
  4932     0CF0  1C03               	btfss	3,0
  4933     0CF1  2CF3               	goto	u4661
  4934     0CF2  2CF4               	goto	u4660
  4935     0CF3                     u4661:
  4936     0CF3  2D12               	goto	l3271
  4937     0CF4                     u4660:
  4938     0CF4                     l3265:
  4939                           
  4940                           ;./ml.h: 44:                                 if (x[2] <= 4.75) {
  4941     0CF4  3040               	movlw	64
  4942     0CF5  00F3               	movwf	___flge@ff1+3
  4943     0CF6  3098               	movlw	152
  4944     0CF7  00F2               	movwf	___flge@ff1+2
  4945     0CF8  3000               	movlw	0
  4946     0CF9  00F1               	movwf	___flge@ff1+1
  4947     0CFA  3000               	movlw	0
  4948     0CFB  00F0               	movwf	___flge@ff1
  4949     0CFC  0020               	movlb	0	; select bank0
  4950     0CFD  0826               	movf	ml_predict@x,w
  4951     0CFE  3E08               	addlw	8
  4952     0CFF  0086               	movwf	6
  4953     0D00  0187               	clrf	7
  4954     0D01  3F40               	moviw [0]fsr1
  4955     0D02  00F4               	movwf	___flge@ff2
  4956     0D03  3F41               	moviw [1]fsr1
  4957     0D04  00F5               	movwf	___flge@ff2+1
  4958     0D05  3F42               	moviw [2]fsr1
  4959     0D06  00F6               	movwf	___flge@ff2+2
  4960     0D07  3F43               	moviw [3]fsr1
  4961     0D08  00F7               	movwf	___flge@ff2+3
  4962     0D09  3191  21D8  318C   	fcall	___flge
  4963     0D0C                     l3267:
  4964                           
  4965                           ;./ml.h: 45:                                     votes[1] += 1;
  4966     0D0C  3001               	movlw	1
  4967     0D0D  00FC               	movwf	??_ml_predict
  4968     0D0E  087C               	movf	??_ml_predict,w
  4969     0D0F  0020               	movlb	0	; select bank0
  4970     0D10  07A4               	addwf	ml_predict@votes+1,f
  4971                           
  4972                           ;./ml.h: 46:                                 }
  4973     0D11  2D2F               	goto	l3277
  4974     0D12                     l3271:
  4975                           
  4976                           ;./ml.h: 54:                                 if (x[3] <= 1.650000f) {
  4977     0D12  303F               	movlw	63
  4978     0D13  00F3               	movwf	___flge@ff1+3
  4979     0D14  30D3               	movlw	211
  4980     0D15  00F2               	movwf	___flge@ff1+2
  4981     0D16  3033               	movlw	51
  4982     0D17  00F1               	movwf	___flge@ff1+1
  4983     0D18  3033               	movlw	51
  4984     0D19  00F0               	movwf	___flge@ff1
  4985     0D1A  0020               	movlb	0	; select bank0
  4986     0D1B  0826               	movf	ml_predict@x,w
  4987     0D1C  3E0C               	addlw	12
  4988     0D1D  0086               	movwf	6
  4989     0D1E  0187               	clrf	7
  4990     0D1F  3F40               	moviw [0]fsr1
  4991     0D20  00F4               	movwf	___flge@ff2
  4992     0D21  3F41               	moviw [1]fsr1
  4993     0D22  00F5               	movwf	___flge@ff2+1
  4994     0D23  3F42               	moviw [2]fsr1
  4995     0D24  00F6               	movwf	___flge@ff2+2
  4996     0D25  3F43               	moviw [3]fsr1
  4997     0D26  00F7               	movwf	___flge@ff2+3
  4998     0D27  3191  21D8  318C   	fcall	___flge
  4999     0D2A                     l3273:
  5000                           
  5001                           ;./ml.h: 55:                                     votes[2] += 1;
  5002     0D2A  3001               	movlw	1
  5003     0D2B  00FC               	movwf	??_ml_predict
  5004     0D2C  087C               	movf	??_ml_predict,w
  5005     0D2D  0020               	movlb	0	; select bank0
  5006     0D2E  07A5               	addwf	ml_predict@votes+2,f
  5007     0D2F                     l3277:	
  5008                           ;./ml.h: 56:                                 }
  5009                           
  5010                           
  5011                           ;./ml.h: 65:                         if (x[2] <= 2.450000f) {
  5012     0D2F  3040               	movlw	64
  5013     0D30  00F3               	movwf	___flge@ff1+3
  5014     0D31  301C               	movlw	28
  5015     0D32  00F2               	movwf	___flge@ff1+2
  5016     0D33  30CC               	movlw	204
  5017     0D34  00F1               	movwf	___flge@ff1+1
  5018     0D35  30CD               	movlw	205
  5019     0D36  00F0               	movwf	___flge@ff1
  5020     0D37  0826               	movf	ml_predict@x,w
  5021     0D38  3E08               	addlw	8
  5022     0D39  0086               	movwf	6
  5023     0D3A  0187               	clrf	7
  5024     0D3B  3F40               	moviw [0]fsr1
  5025     0D3C  00F4               	movwf	___flge@ff2
  5026     0D3D  3F41               	moviw [1]fsr1
  5027     0D3E  00F5               	movwf	___flge@ff2+1
  5028     0D3F  3F42               	moviw [2]fsr1
  5029     0D40  00F6               	movwf	___flge@ff2+2
  5030     0D41  3F43               	moviw [3]fsr1
  5031     0D42  00F7               	movwf	___flge@ff2+3
  5032     0D43  3191  21D8  318C   	fcall	___flge
  5033     0D46  1C03               	btfss	3,0
  5034     0D47  2D49               	goto	u4671
  5035     0D48  2D4A               	goto	u4670
  5036     0D49                     u4671:
  5037     0D49  2D50               	goto	l3281
  5038     0D4A                     u4670:
  5039     0D4A                     l3279:
  5040                           
  5041                           ;./ml.h: 66:                             votes[0] += 1;
  5042     0D4A  3001               	movlw	1
  5043     0D4B  00FC               	movwf	??_ml_predict
  5044     0D4C  087C               	movf	??_ml_predict,w
  5045     0D4D  0020               	movlb	0	; select bank0
  5046     0D4E  07A3               	addwf	ml_predict@votes,f
  5047                           
  5048                           ;./ml.h: 67:                         }
  5049     0D4F  2DC2               	goto	l3299
  5050     0D50                     l3281:
  5051                           
  5052                           ;./ml.h: 70:                             if (x[2] <= 4.850000f) {
  5053     0D50  3040               	movlw	64
  5054     0D51  00F3               	movwf	___flge@ff1+3
  5055     0D52  309B               	movlw	155
  5056     0D53  00F2               	movwf	___flge@ff1+2
  5057     0D54  3033               	movlw	51
  5058     0D55  00F1               	movwf	___flge@ff1+1
  5059     0D56  3033               	movlw	51
  5060     0D57  00F0               	movwf	___flge@ff1
  5061     0D58  0020               	movlb	0	; select bank0
  5062     0D59  0826               	movf	ml_predict@x,w
  5063     0D5A  3E08               	addlw	8
  5064     0D5B  0086               	movwf	6
  5065     0D5C  0187               	clrf	7
  5066     0D5D  3F40               	moviw [0]fsr1
  5067     0D5E  00F4               	movwf	___flge@ff2
  5068     0D5F  3F41               	moviw [1]fsr1
  5069     0D60  00F5               	movwf	___flge@ff2+1
  5070     0D61  3F42               	moviw [2]fsr1
  5071     0D62  00F6               	movwf	___flge@ff2+2
  5072     0D63  3F43               	moviw [3]fsr1
  5073     0D64  00F7               	movwf	___flge@ff2+3
  5074     0D65  3191  21D8  318C   	fcall	___flge
  5075     0D68  1C03               	btfss	3,0
  5076     0D69  2D6B               	goto	u4681
  5077     0D6A  2D6C               	goto	u4680
  5078     0D6B                     u4681:
  5079     0D6B  2D8A               	goto	l3289
  5080     0D6C                     u4680:
  5081     0D6C                     l3283:
  5082                           
  5083                           ;./ml.h: 71:                                 if (x[2] <= 4.75) {
  5084     0D6C  3040               	movlw	64
  5085     0D6D  00F3               	movwf	___flge@ff1+3
  5086     0D6E  3098               	movlw	152
  5087     0D6F  00F2               	movwf	___flge@ff1+2
  5088     0D70  3000               	movlw	0
  5089     0D71  00F1               	movwf	___flge@ff1+1
  5090     0D72  3000               	movlw	0
  5091     0D73  00F0               	movwf	___flge@ff1
  5092     0D74  0020               	movlb	0	; select bank0
  5093     0D75  0826               	movf	ml_predict@x,w
  5094     0D76  3E08               	addlw	8
  5095     0D77  0086               	movwf	6
  5096     0D78  0187               	clrf	7
  5097     0D79  3F40               	moviw [0]fsr1
  5098     0D7A  00F4               	movwf	___flge@ff2
  5099     0D7B  3F41               	moviw [1]fsr1
  5100     0D7C  00F5               	movwf	___flge@ff2+1
  5101     0D7D  3F42               	moviw [2]fsr1
  5102     0D7E  00F6               	movwf	___flge@ff2+2
  5103     0D7F  3F43               	moviw [3]fsr1
  5104     0D80  00F7               	movwf	___flge@ff2+3
  5105     0D81  3191  21D8  318C   	fcall	___flge
  5106     0D84                     l3285:
  5107                           
  5108                           ;./ml.h: 72:                                     votes[1] += 1;
  5109     0D84  3001               	movlw	1
  5110     0D85  00FC               	movwf	??_ml_predict
  5111     0D86  087C               	movf	??_ml_predict,w
  5112     0D87  0020               	movlb	0	; select bank0
  5113     0D88  07A4               	addwf	ml_predict@votes+1,f
  5114                           
  5115                           ;./ml.h: 73:                                 }
  5116     0D89  2DC2               	goto	l3299
  5117     0D8A                     l3289:
  5118                           
  5119                           ;./ml.h: 81:                                 if (x[3] <= 1.700000f) {
  5120     0D8A  303F               	movlw	63
  5121     0D8B  00F3               	movwf	___flge@ff1+3
  5122     0D8C  30D9               	movlw	217
  5123     0D8D  00F2               	movwf	___flge@ff1+2
  5124     0D8E  3099               	movlw	153
  5125     0D8F  00F1               	movwf	___flge@ff1+1
  5126     0D90  309A               	movlw	154
  5127     0D91  00F0               	movwf	___flge@ff1
  5128     0D92  0020               	movlb	0	; select bank0
  5129     0D93  0826               	movf	ml_predict@x,w
  5130     0D94  3E0C               	addlw	12
  5131     0D95  0086               	movwf	6
  5132     0D96  0187               	clrf	7
  5133     0D97  3F40               	moviw [0]fsr1
  5134     0D98  00F4               	movwf	___flge@ff2
  5135     0D99  3F41               	moviw [1]fsr1
  5136     0D9A  00F5               	movwf	___flge@ff2+1
  5137     0D9B  3F42               	moviw [2]fsr1
  5138     0D9C  00F6               	movwf	___flge@ff2+2
  5139     0D9D  3F43               	moviw [3]fsr1
  5140     0D9E  00F7               	movwf	___flge@ff2+3
  5141     0D9F  3191  21D8  318C   	fcall	___flge
  5142     0DA2  1C03               	btfss	3,0
  5143     0DA3  2DA5               	goto	u4691
  5144     0DA4  2DA6               	goto	u4690
  5145     0DA5                     u4691:
  5146     0DA5  2DBD               	goto	l3293
  5147     0DA6                     u4690:
  5148     0DA6                     l3291:
  5149                           
  5150                           ;./ml.h: 82:                                     if (x[0] <= 6.150000f) {
  5151     0DA6  3040               	movlw	64
  5152     0DA7  00F3               	movwf	___flge@ff1+3
  5153     0DA8  30C4               	movlw	196
  5154     0DA9  00F2               	movwf	___flge@ff1+2
  5155     0DAA  30CC               	movlw	204
  5156     0DAB  00F1               	movwf	___flge@ff1+1
  5157     0DAC  30CD               	movlw	205
  5158     0DAD  00F0               	movwf	___flge@ff1
  5159     0DAE  0020               	movlb	0	; select bank0
  5160     0DAF  0826               	movf	ml_predict@x,w
  5161     0DB0  0086               	movwf	6
  5162     0DB1  0187               	clrf	7
  5163     0DB2  3F40               	moviw [0]fsr1
  5164     0DB3  00F4               	movwf	___flge@ff2
  5165     0DB4  3F41               	moviw [1]fsr1
  5166     0DB5  00F5               	movwf	___flge@ff2+1
  5167     0DB6  3F42               	moviw [2]fsr1
  5168     0DB7  00F6               	movwf	___flge@ff2+2
  5169     0DB8  3F43               	moviw [3]fsr1
  5170     0DB9  00F7               	movwf	___flge@ff2+3
  5171     0DBA  3191  21D8  318C   	fcall	___flge
  5172     0DBD                     l3293:
  5173                           
  5174                           ;./ml.h: 83:                                         votes[2] += 1;
  5175     0DBD  3001               	movlw	1
  5176     0DBE  00FC               	movwf	??_ml_predict
  5177     0DBF  087C               	movf	??_ml_predict,w
  5178     0DC0  0020               	movlb	0	; select bank0
  5179     0DC1  07A5               	addwf	ml_predict@votes+2,f
  5180     0DC2                     l3299:	
  5181                           ;./ml.h: 84:                                     }
  5182                           
  5183                           
  5184                           ;./ml.h: 98:                         if (x[2] <= 2.450000f) {
  5185     0DC2  3040               	movlw	64
  5186     0DC3  00F3               	movwf	___flge@ff1+3
  5187     0DC4  301C               	movlw	28
  5188     0DC5  00F2               	movwf	___flge@ff1+2
  5189     0DC6  30CC               	movlw	204
  5190     0DC7  00F1               	movwf	___flge@ff1+1
  5191     0DC8  30CD               	movlw	205
  5192     0DC9  00F0               	movwf	___flge@ff1
  5193     0DCA  0826               	movf	ml_predict@x,w
  5194     0DCB  3E08               	addlw	8
  5195     0DCC  0086               	movwf	6
  5196     0DCD  0187               	clrf	7
  5197     0DCE  3F40               	moviw [0]fsr1
  5198     0DCF  00F4               	movwf	___flge@ff2
  5199     0DD0  3F41               	moviw [1]fsr1
  5200     0DD1  00F5               	movwf	___flge@ff2+1
  5201     0DD2  3F42               	moviw [2]fsr1
  5202     0DD3  00F6               	movwf	___flge@ff2+2
  5203     0DD4  3F43               	moviw [3]fsr1
  5204     0DD5  00F7               	movwf	___flge@ff2+3
  5205     0DD6  3191  21D8  318C   	fcall	___flge
  5206     0DD9  1C03               	btfss	3,0
  5207     0DDA  2DDC               	goto	u4701
  5208     0DDB  2DDD               	goto	u4700
  5209     0DDC                     u4701:
  5210     0DDC  2DE3               	goto	l3303
  5211     0DDD                     u4700:
  5212     0DDD                     l3301:
  5213                           
  5214                           ;./ml.h: 99:                             votes[0] += 1;
  5215     0DDD  3001               	movlw	1
  5216     0DDE  00FC               	movwf	??_ml_predict
  5217     0DDF  087C               	movf	??_ml_predict,w
  5218     0DE0  0020               	movlb	0	; select bank0
  5219     0DE1  07A3               	addwf	ml_predict@votes,f
  5220                           
  5221                           ;./ml.h: 100:                         }
  5222     0DE2  2E22               	goto	l3313
  5223     0DE3                     l3303:
  5224                           
  5225                           ;./ml.h: 103:                             if (x[3] <= 1.700000f) {
  5226     0DE3  303F               	movlw	63
  5227     0DE4  00F3               	movwf	___flge@ff1+3
  5228     0DE5  30D9               	movlw	217
  5229     0DE6  00F2               	movwf	___flge@ff1+2
  5230     0DE7  3099               	movlw	153
  5231     0DE8  00F1               	movwf	___flge@ff1+1
  5232     0DE9  309A               	movlw	154
  5233     0DEA  00F0               	movwf	___flge@ff1
  5234     0DEB  0020               	movlb	0	; select bank0
  5235     0DEC  0826               	movf	ml_predict@x,w
  5236     0DED  3E0C               	addlw	12
  5237     0DEE  0086               	movwf	6
  5238     0DEF  0187               	clrf	7
  5239     0DF0  3F40               	moviw [0]fsr1
  5240     0DF1  00F4               	movwf	___flge@ff2
  5241     0DF2  3F41               	moviw [1]fsr1
  5242     0DF3  00F5               	movwf	___flge@ff2+1
  5243     0DF4  3F42               	moviw [2]fsr1
  5244     0DF5  00F6               	movwf	___flge@ff2+2
  5245     0DF6  3F43               	moviw [3]fsr1
  5246     0DF7  00F7               	movwf	___flge@ff2+3
  5247     0DF8  3191  21D8  318C   	fcall	___flge
  5248     0DFB  1C03               	btfss	3,0
  5249     0DFC  2DFE               	goto	u4711
  5250     0DFD  2DFF               	goto	u4710
  5251     0DFE                     u4711:
  5252     0DFE  2E1D               	goto	l3311
  5253     0DFF                     u4710:
  5254     0DFF                     l3305:
  5255                           
  5256                           ;./ml.h: 104:                                 if (x[1] <= 2.300000f) {
  5257     0DFF  3040               	movlw	64
  5258     0E00  00F3               	movwf	___flge@ff1+3
  5259     0E01  3013               	movlw	19
  5260     0E02  00F2               	movwf	___flge@ff1+2
  5261     0E03  3033               	movlw	51
  5262     0E04  00F1               	movwf	___flge@ff1+1
  5263     0E05  3033               	movlw	51
  5264     0E06  00F0               	movwf	___flge@ff1
  5265     0E07  0020               	movlb	0	; select bank0
  5266     0E08  0826               	movf	ml_predict@x,w
  5267     0E09  3E04               	addlw	4
  5268     0E0A  0086               	movwf	6
  5269     0E0B  0187               	clrf	7
  5270     0E0C  3F40               	moviw [0]fsr1
  5271     0E0D  00F4               	movwf	___flge@ff2
  5272     0E0E  3F41               	moviw [1]fsr1
  5273     0E0F  00F5               	movwf	___flge@ff2+1
  5274     0E10  3F42               	moviw [2]fsr1
  5275     0E11  00F6               	movwf	___flge@ff2+2
  5276     0E12  3F43               	moviw [3]fsr1
  5277     0E13  00F7               	movwf	___flge@ff2+3
  5278     0E14  3191  21D8  318C   	fcall	___flge
  5279     0E17                     l3307:
  5280                           
  5281                           ;./ml.h: 105:                                     votes[1] += 1;
  5282     0E17  3001               	movlw	1
  5283     0E18  00FC               	movwf	??_ml_predict
  5284     0E19  087C               	movf	??_ml_predict,w
  5285     0E1A  0020               	movlb	0	; select bank0
  5286     0E1B  07A4               	addwf	ml_predict@votes+1,f
  5287                           
  5288                           ;./ml.h: 106:                                 }
  5289     0E1C  2E22               	goto	l3313
  5290     0E1D                     l3311:
  5291                           
  5292                           ;./ml.h: 114:                                 votes[2] += 1;
  5293     0E1D  3001               	movlw	1
  5294     0E1E  00FC               	movwf	??_ml_predict
  5295     0E1F  087C               	movf	??_ml_predict,w
  5296     0E20  0020               	movlb	0	; select bank0
  5297     0E21  07A5               	addwf	ml_predict@votes+2,f
  5298     0E22                     l3313:
  5299                           
  5300                           ;./ml.h: 119:                         if (x[2] <= 2.450000f) {
  5301     0E22  3040               	movlw	64
  5302     0E23  00F3               	movwf	___flge@ff1+3
  5303     0E24  301C               	movlw	28
  5304     0E25  00F2               	movwf	___flge@ff1+2
  5305     0E26  30CC               	movlw	204
  5306     0E27  00F1               	movwf	___flge@ff1+1
  5307     0E28  30CD               	movlw	205
  5308     0E29  00F0               	movwf	___flge@ff1
  5309     0E2A  0826               	movf	ml_predict@x,w
  5310     0E2B  3E08               	addlw	8
  5311     0E2C  0086               	movwf	6
  5312     0E2D  0187               	clrf	7
  5313     0E2E  3F40               	moviw [0]fsr1
  5314     0E2F  00F4               	movwf	___flge@ff2
  5315     0E30  3F41               	moviw [1]fsr1
  5316     0E31  00F5               	movwf	___flge@ff2+1
  5317     0E32  3F42               	moviw [2]fsr1
  5318     0E33  00F6               	movwf	___flge@ff2+2
  5319     0E34  3F43               	moviw [3]fsr1
  5320     0E35  00F7               	movwf	___flge@ff2+3
  5321     0E36  3191  21D8  318C   	fcall	___flge
  5322     0E39  1C03               	btfss	3,0
  5323     0E3A  2E3C               	goto	u4721
  5324     0E3B  2E3D               	goto	u4720
  5325     0E3C                     u4721:
  5326     0E3C  2E43               	goto	l3317
  5327     0E3D                     u4720:
  5328     0E3D                     l3315:
  5329                           
  5330                           ;./ml.h: 120:                             votes[0] += 1;
  5331     0E3D  3001               	movlw	1
  5332     0E3E  00FC               	movwf	??_ml_predict
  5333     0E3F  087C               	movf	??_ml_predict,w
  5334     0E40  0020               	movlb	0	; select bank0
  5335     0E41  07A3               	addwf	ml_predict@votes,f
  5336                           
  5337                           ;./ml.h: 121:                         }
  5338     0E42  2F0E               	goto	l3347
  5339     0E43                     l3317:
  5340                           
  5341                           ;./ml.h: 124:                             if (x[0] <= 6.25) {
  5342     0E43  3040               	movlw	64
  5343     0E44  00F3               	movwf	___flge@ff1+3
  5344     0E45  30C8               	movlw	200
  5345     0E46  00F2               	movwf	___flge@ff1+2
  5346     0E47  3000               	movlw	0
  5347     0E48  00F1               	movwf	___flge@ff1+1
  5348     0E49  3000               	movlw	0
  5349     0E4A  00F0               	movwf	___flge@ff1
  5350     0E4B  0020               	movlb	0	; select bank0
  5351     0E4C  0826               	movf	ml_predict@x,w
  5352     0E4D  0086               	movwf	6
  5353     0E4E  0187               	clrf	7
  5354     0E4F  3F40               	moviw [0]fsr1
  5355     0E50  00F4               	movwf	___flge@ff2
  5356     0E51  3F41               	moviw [1]fsr1
  5357     0E52  00F5               	movwf	___flge@ff2+1
  5358     0E53  3F42               	moviw [2]fsr1
  5359     0E54  00F6               	movwf	___flge@ff2+2
  5360     0E55  3F43               	moviw [3]fsr1
  5361     0E56  00F7               	movwf	___flge@ff2+3
  5362     0E57  3191  21D8  318C   	fcall	___flge
  5363     0E5A  1C03               	btfss	3,0
  5364     0E5B  2E5D               	goto	u4731
  5365     0E5C  2E5E               	goto	u4730
  5366     0E5D                     u4731:
  5367     0E5D  2E9E               	goto	l3329
  5368     0E5E                     u4730:
  5369     0E5E                     l3319:
  5370                           
  5371                           ;./ml.h: 125:                                 if (x[2] <= 4.850000f) {
  5372     0E5E  3040               	movlw	64
  5373     0E5F  00F3               	movwf	___flge@ff1+3
  5374     0E60  309B               	movlw	155
  5375     0E61  00F2               	movwf	___flge@ff1+2
  5376     0E62  3033               	movlw	51
  5377     0E63  00F1               	movwf	___flge@ff1+1
  5378     0E64  3033               	movlw	51
  5379     0E65  00F0               	movwf	___flge@ff1
  5380     0E66  0020               	movlb	0	; select bank0
  5381     0E67  0826               	movf	ml_predict@x,w
  5382     0E68  3E08               	addlw	8
  5383     0E69  0086               	movwf	6
  5384     0E6A  0187               	clrf	7
  5385     0E6B  3F40               	moviw [0]fsr1
  5386     0E6C  00F4               	movwf	___flge@ff2
  5387     0E6D  3F41               	moviw [1]fsr1
  5388     0E6E  00F5               	movwf	___flge@ff2+1
  5389     0E6F  3F42               	moviw [2]fsr1
  5390     0E70  00F6               	movwf	___flge@ff2+2
  5391     0E71  3F43               	moviw [3]fsr1
  5392     0E72  00F7               	movwf	___flge@ff2+3
  5393     0E73  3191  21D8  318C   	fcall	___flge
  5394     0E76  1C03               	btfss	3,0
  5395     0E77  2E79               	goto	u4741
  5396     0E78  2E7A               	goto	u4740
  5397     0E79                     u4741:
  5398     0E79  2E98               	goto	l3327
  5399     0E7A                     u4740:
  5400     0E7A                     l3321:
  5401                           
  5402                           ;./ml.h: 126:                                     if (x[3] <= 1.600000f) {
  5403     0E7A  303F               	movlw	63
  5404     0E7B  00F3               	movwf	___flge@ff1+3
  5405     0E7C  30CC               	movlw	204
  5406     0E7D  00F2               	movwf	___flge@ff1+2
  5407     0E7E  30CC               	movlw	204
  5408     0E7F  00F1               	movwf	___flge@ff1+1
  5409     0E80  30CD               	movlw	205
  5410     0E81  00F0               	movwf	___flge@ff1
  5411     0E82  0020               	movlb	0	; select bank0
  5412     0E83  0826               	movf	ml_predict@x,w
  5413     0E84  3E0C               	addlw	12
  5414     0E85  0086               	movwf	6
  5415     0E86  0187               	clrf	7
  5416     0E87  3F40               	moviw [0]fsr1
  5417     0E88  00F4               	movwf	___flge@ff2
  5418     0E89  3F41               	moviw [1]fsr1
  5419     0E8A  00F5               	movwf	___flge@ff2+1
  5420     0E8B  3F42               	moviw [2]fsr1
  5421     0E8C  00F6               	movwf	___flge@ff2+2
  5422     0E8D  3F43               	moviw [3]fsr1
  5423     0E8E  00F7               	movwf	___flge@ff2+3
  5424     0E8F  3191  21D8  318C   	fcall	___flge
  5425     0E92                     l3323:
  5426                           
  5427                           ;./ml.h: 127:                                         votes[1] += 1;
  5428     0E92  3001               	movlw	1
  5429     0E93  00FC               	movwf	??_ml_predict
  5430     0E94  087C               	movf	??_ml_predict,w
  5431     0E95  0020               	movlb	0	; select bank0
  5432     0E96  07A4               	addwf	ml_predict@votes+1,f
  5433                           
  5434                           ;./ml.h: 128:                                     }
  5435     0E97  2F0E               	goto	l3347
  5436     0E98                     l3327:
  5437                           
  5438                           ;./ml.h: 136:                                     votes[2] += 1;
  5439     0E98  3001               	movlw	1
  5440     0E99  00FC               	movwf	??_ml_predict
  5441     0E9A  087C               	movf	??_ml_predict,w
  5442     0E9B  0020               	movlb	0	; select bank0
  5443     0E9C  07A5               	addwf	ml_predict@votes+2,f
  5444     0E9D  2F0E               	goto	l3347
  5445     0E9E                     l3329:
  5446                           
  5447                           ;./ml.h: 141:                                 if (x[0] <= 7.100000f) {
  5448     0E9E  3040               	movlw	64
  5449     0E9F  00F3               	movwf	___flge@ff1+3
  5450     0EA0  30E3               	movlw	227
  5451     0EA1  00F2               	movwf	___flge@ff1+2
  5452     0EA2  3033               	movlw	51
  5453     0EA3  00F1               	movwf	___flge@ff1+1
  5454     0EA4  3033               	movlw	51
  5455     0EA5  00F0               	movwf	___flge@ff1
  5456     0EA6  0020               	movlb	0	; select bank0
  5457     0EA7  0826               	movf	ml_predict@x,w
  5458     0EA8  0086               	movwf	6
  5459     0EA9  0187               	clrf	7
  5460     0EAA  3F40               	moviw [0]fsr1
  5461     0EAB  00F4               	movwf	___flge@ff2
  5462     0EAC  3F41               	moviw [1]fsr1
  5463     0EAD  00F5               	movwf	___flge@ff2+1
  5464     0EAE  3F42               	moviw [2]fsr1
  5465     0EAF  00F6               	movwf	___flge@ff2+2
  5466     0EB0  3F43               	moviw [3]fsr1
  5467     0EB1  00F7               	movwf	___flge@ff2+3
  5468     0EB2  3191  21D8  318C   	fcall	___flge
  5469     0EB5  1C03               	btfss	3,0
  5470     0EB6  2EB8               	goto	u4751
  5471     0EB7  2EB9               	goto	u4750
  5472     0EB8                     u4751:
  5473     0EB8  2E98               	goto	l3327
  5474     0EB9                     u4750:
  5475     0EB9                     l3331:
  5476                           
  5477                           ;./ml.h: 142:                                     if (x[0] <= 6.600000f) {
  5478     0EB9  3040               	movlw	64
  5479     0EBA  00F3               	movwf	___flge@ff1+3
  5480     0EBB  30D3               	movlw	211
  5481     0EBC  00F2               	movwf	___flge@ff1+2
  5482     0EBD  3033               	movlw	51
  5483     0EBE  00F1               	movwf	___flge@ff1+1
  5484     0EBF  3033               	movlw	51
  5485     0EC0  00F0               	movwf	___flge@ff1
  5486     0EC1  0020               	movlb	0	; select bank0
  5487     0EC2  0826               	movf	ml_predict@x,w
  5488     0EC3  0086               	movwf	6
  5489     0EC4  0187               	clrf	7
  5490     0EC5  3F40               	moviw [0]fsr1
  5491     0EC6  00F4               	movwf	___flge@ff2
  5492     0EC7  3F41               	moviw [1]fsr1
  5493     0EC8  00F5               	movwf	___flge@ff2+1
  5494     0EC9  3F42               	moviw [2]fsr1
  5495     0ECA  00F6               	movwf	___flge@ff2+2
  5496     0ECB  3F43               	moviw [3]fsr1
  5497     0ECC  00F7               	movwf	___flge@ff2+3
  5498     0ECD  3191  21D8  318C   	fcall	___flge
  5499     0ED0  1C03               	btfss	3,0
  5500     0ED1  2ED3               	goto	u4761
  5501     0ED2  2ED4               	goto	u4760
  5502     0ED3                     u4761:
  5503     0ED3  2EF1               	goto	l3339
  5504     0ED4                     u4760:
  5505     0ED4                     l3333:
  5506                           
  5507                           ;./ml.h: 143:                                         if (x[3] <= 1.650000f) {
  5508     0ED4  303F               	movlw	63
  5509     0ED5  00F3               	movwf	___flge@ff1+3
  5510     0ED6  30D3               	movlw	211
  5511     0ED7  00F2               	movwf	___flge@ff1+2
  5512     0ED8  3033               	movlw	51
  5513     0ED9  00F1               	movwf	___flge@ff1+1
  5514     0EDA  3033               	movlw	51
  5515     0EDB  00F0               	movwf	___flge@ff1
  5516     0EDC  0020               	movlb	0	; select bank0
  5517     0EDD  0826               	movf	ml_predict@x,w
  5518     0EDE  3E0C               	addlw	12
  5519     0EDF  0086               	movwf	6
  5520     0EE0  0187               	clrf	7
  5521     0EE1  3F40               	moviw [0]fsr1
  5522     0EE2  00F4               	movwf	___flge@ff2
  5523     0EE3  3F41               	moviw [1]fsr1
  5524     0EE4  00F5               	movwf	___flge@ff2+1
  5525     0EE5  3F42               	moviw [2]fsr1
  5526     0EE6  00F6               	movwf	___flge@ff2+2
  5527     0EE7  3F43               	moviw [3]fsr1
  5528     0EE8  00F7               	movwf	___flge@ff2+3
  5529     0EE9  3191  21D8  318C   	fcall	___flge
  5530     0EEC  1C03               	btfss	3,0
  5531     0EED  2EEF               	goto	u4771
  5532     0EEE  2EF0               	goto	u4770
  5533     0EEF                     u4771:
  5534     0EEF  2E98               	goto	l3327
  5535     0EF0                     u4770:
  5536     0EF0  2E92               	goto	l3323
  5537     0EF1                     l3339:
  5538                           
  5539                           ;./ml.h: 153:                                         if (x[2] <= 5.150000f) {
  5540     0EF1  3040               	movlw	64
  5541     0EF2  00F3               	movwf	___flge@ff1+3
  5542     0EF3  30A4               	movlw	164
  5543     0EF4  00F2               	movwf	___flge@ff1+2
  5544     0EF5  30CC               	movlw	204
  5545     0EF6  00F1               	movwf	___flge@ff1+1
  5546     0EF7  30CD               	movlw	205
  5547     0EF8  00F0               	movwf	___flge@ff1
  5548     0EF9  0020               	movlb	0	; select bank0
  5549     0EFA  0826               	movf	ml_predict@x,w
  5550     0EFB  3E08               	addlw	8
  5551     0EFC  0086               	movwf	6
  5552     0EFD  0187               	clrf	7
  5553     0EFE  3F40               	moviw [0]fsr1
  5554     0EFF  00F4               	movwf	___flge@ff2
  5555     0F00  3F41               	moviw [1]fsr1
  5556     0F01  00F5               	movwf	___flge@ff2+1
  5557     0F02  3F42               	moviw [2]fsr1
  5558     0F03  00F6               	movwf	___flge@ff2+2
  5559     0F04  3F43               	moviw [3]fsr1
  5560     0F05  00F7               	movwf	___flge@ff2+3
  5561     0F06  3191  21D8  318C   	fcall	___flge
  5562     0F09  1C03               	btfss	3,0
  5563     0F0A  2F0C               	goto	u4781
  5564     0F0B  2F0D               	goto	u4780
  5565     0F0C                     u4781:
  5566     0F0C  2E98               	goto	l3327
  5567     0F0D                     u4780:
  5568     0F0D  2E92               	goto	l3323
  5569     0F0E                     l3347:
  5570                           
  5571                           ;./ml.h: 170:                         if (x[3] <= 0.800000f) {
  5572     0F0E  303F               	movlw	63
  5573     0F0F  00F3               	movwf	___flge@ff1+3
  5574     0F10  304C               	movlw	76
  5575     0F11  00F2               	movwf	___flge@ff1+2
  5576     0F12  30CC               	movlw	204
  5577     0F13  00F1               	movwf	___flge@ff1+1
  5578     0F14  30CD               	movlw	205
  5579     0F15  00F0               	movwf	___flge@ff1
  5580     0F16  0826               	movf	ml_predict@x,w
  5581     0F17  3E0C               	addlw	12
  5582     0F18  0086               	movwf	6
  5583     0F19  0187               	clrf	7
  5584     0F1A  3F40               	moviw [0]fsr1
  5585     0F1B  00F4               	movwf	___flge@ff2
  5586     0F1C  3F41               	moviw [1]fsr1
  5587     0F1D  00F5               	movwf	___flge@ff2+1
  5588     0F1E  3F42               	moviw [2]fsr1
  5589     0F1F  00F6               	movwf	___flge@ff2+2
  5590     0F20  3F43               	moviw [3]fsr1
  5591     0F21  00F7               	movwf	___flge@ff2+3
  5592     0F22  3191  21D8  318C   	fcall	___flge
  5593     0F25  1C03               	btfss	3,0
  5594     0F26  2F28               	goto	u4791
  5595     0F27  2F29               	goto	u4790
  5596     0F28                     u4791:
  5597     0F28  2F2F               	goto	l3351
  5598     0F29                     u4790:
  5599     0F29                     l3349:
  5600                           
  5601                           ;./ml.h: 171:                             votes[0] += 1;
  5602     0F29  3001               	movlw	1
  5603     0F2A  00FC               	movwf	??_ml_predict
  5604     0F2B  087C               	movf	??_ml_predict,w
  5605     0F2C  0020               	movlb	0	; select bank0
  5606     0F2D  07A3               	addwf	ml_predict@votes,f
  5607                           
  5608                           ;./ml.h: 172:                         }
  5609     0F2E  2FDE               	goto	l3377
  5610     0F2F                     l3351:
  5611                           
  5612                           ;./ml.h: 175:                             if (x[2] <= 4.950000f) {
  5613     0F2F  3040               	movlw	64
  5614     0F30  00F3               	movwf	___flge@ff1+3
  5615     0F31  309E               	movlw	158
  5616     0F32  00F2               	movwf	___flge@ff1+2
  5617     0F33  3066               	movlw	102
  5618     0F34  00F1               	movwf	___flge@ff1+1
  5619     0F35  3066               	movlw	102
  5620     0F36  00F0               	movwf	___flge@ff1
  5621     0F37  0020               	movlb	0	; select bank0
  5622     0F38  0826               	movf	ml_predict@x,w
  5623     0F39  3E08               	addlw	8
  5624     0F3A  0086               	movwf	6
  5625     0F3B  0187               	clrf	7
  5626     0F3C  3F40               	moviw [0]fsr1
  5627     0F3D  00F4               	movwf	___flge@ff2
  5628     0F3E  3F41               	moviw [1]fsr1
  5629     0F3F  00F5               	movwf	___flge@ff2+1
  5630     0F40  3F42               	moviw [2]fsr1
  5631     0F41  00F6               	movwf	___flge@ff2+2
  5632     0F42  3F43               	moviw [3]fsr1
  5633     0F43  00F7               	movwf	___flge@ff2+3
  5634     0F44  3191  21D8  318C   	fcall	___flge
  5635     0F47  1C03               	btfss	3,0
  5636     0F48  2F4A               	goto	u4801
  5637     0F49  2F4B               	goto	u4800
  5638     0F4A                     u4801:
  5639     0F4A  2FA1               	goto	l3367
  5640     0F4B                     u4800:
  5641     0F4B                     l3353:
  5642                           
  5643                           ;./ml.h: 176:                                 if (x[2] <= 4.850000f) {
  5644     0F4B  3040               	movlw	64
  5645     0F4C  00F3               	movwf	___flge@ff1+3
  5646     0F4D  309B               	movlw	155
  5647     0F4E  00F2               	movwf	___flge@ff1+2
  5648     0F4F  3033               	movlw	51
  5649     0F50  00F1               	movwf	___flge@ff1+1
  5650     0F51  3033               	movlw	51
  5651     0F52  00F0               	movwf	___flge@ff1
  5652     0F53  0020               	movlb	0	; select bank0
  5653     0F54  0826               	movf	ml_predict@x,w
  5654     0F55  3E08               	addlw	8
  5655     0F56  0086               	movwf	6
  5656     0F57  0187               	clrf	7
  5657     0F58  3F40               	moviw [0]fsr1
  5658     0F59  00F4               	movwf	___flge@ff2
  5659     0F5A  3F41               	moviw [1]fsr1
  5660     0F5B  00F5               	movwf	___flge@ff2+1
  5661     0F5C  3F42               	moviw [2]fsr1
  5662     0F5D  00F6               	movwf	___flge@ff2+2
  5663     0F5E  3F43               	moviw [3]fsr1
  5664     0F5F  00F7               	movwf	___flge@ff2+3
  5665     0F60  3191  21D8  318C   	fcall	___flge
  5666     0F63  1C03               	btfss	3,0
  5667     0F64  2F66               	goto	u4811
  5668     0F65  2F67               	goto	u4810
  5669     0F66                     u4811:
  5670     0F66  2F9B               	goto	l3359
  5671     0F67                     u4810:
  5672     0F67                     l3355:
  5673                           
  5674                           ;./ml.h: 177:                                     if (x[1] <= 2.550000f) {
  5675     0F67  3040               	movlw	64
  5676     0F68  00F3               	movwf	___flge@ff1+3
  5677     0F69  3023               	movlw	35
  5678     0F6A  00F2               	movwf	___flge@ff1+2
  5679     0F6B  3033               	movlw	51
  5680     0F6C  00F1               	movwf	___flge@ff1+1
  5681     0F6D  3033               	movlw	51
  5682     0F6E  00F0               	movwf	___flge@ff1
  5683     0F6F  0020               	movlb	0	; select bank0
  5684     0F70  0826               	movf	ml_predict@x,w
  5685     0F71  3E04               	addlw	4
  5686     0F72  0086               	movwf	6
  5687     0F73  0187               	clrf	7
  5688     0F74  3F40               	moviw [0]fsr1
  5689     0F75  00F4               	movwf	___flge@ff2
  5690     0F76  3F41               	moviw [1]fsr1
  5691     0F77  00F5               	movwf	___flge@ff2+1
  5692     0F78  3F42               	moviw [2]fsr1
  5693     0F79  00F6               	movwf	___flge@ff2+2
  5694     0F7A  3F43               	moviw [3]fsr1
  5695     0F7B  00F7               	movwf	___flge@ff2+3
  5696     0F7C  3191  21D8  318C   	fcall	___flge
  5697     0F7F  1C03               	btfss	3,0
  5698     0F80  2F82               	goto	u4821
  5699     0F81  2F83               	goto	u4820
  5700     0F82                     u4821:
  5701     0F82  2F9B               	goto	l3359
  5702     0F83                     u4820:
  5703     0F83                     l3357:
  5704                           
  5705                           ;./ml.h: 178:                                         if (x[3] <= 1.200000f) {
  5706     0F83  303F               	movlw	63
  5707     0F84  00F3               	movwf	___flge@ff1+3
  5708     0F85  3099               	movlw	153
  5709     0F86  00F2               	movwf	___flge@ff1+2
  5710     0F87  3099               	movlw	153
  5711     0F88  00F1               	movwf	___flge@ff1+1
  5712     0F89  309A               	movlw	154
  5713     0F8A  00F0               	movwf	___flge@ff1
  5714     0F8B  0020               	movlb	0	; select bank0
  5715     0F8C  0826               	movf	ml_predict@x,w
  5716     0F8D  3E0C               	addlw	12
  5717     0F8E  0086               	movwf	6
  5718     0F8F  0187               	clrf	7
  5719     0F90  3F40               	moviw [0]fsr1
  5720     0F91  00F4               	movwf	___flge@ff2
  5721     0F92  3F41               	moviw [1]fsr1
  5722     0F93  00F5               	movwf	___flge@ff2+1
  5723     0F94  3F42               	moviw [2]fsr1
  5724     0F95  00F6               	movwf	___flge@ff2+2
  5725     0F96  3F43               	moviw [3]fsr1
  5726     0F97  00F7               	movwf	___flge@ff2+3
  5727     0F98  3191  21D8  318C   	fcall	___flge
  5728     0F9B                     l3359:
  5729                           
  5730                           ;./ml.h: 179:                                             votes[1] += 1;
  5731     0F9B  3001               	movlw	1
  5732     0F9C  00FC               	movwf	??_ml_predict
  5733     0F9D  087C               	movf	??_ml_predict,w
  5734     0F9E  0020               	movlb	0	; select bank0
  5735     0F9F  07A4               	addwf	ml_predict@votes+1,f
  5736                           
  5737                           ;./ml.h: 180:                                         }
  5738     0FA0  2FDE               	goto	l3377
  5739     0FA1                     l3367:
  5740                           
  5741                           ;./ml.h: 198:                                 if (x[1] <= 2.75) {
  5742     0FA1  3040               	movlw	64
  5743     0FA2  00F3               	movwf	___flge@ff1+3
  5744     0FA3  3030               	movlw	48
  5745     0FA4  00F2               	movwf	___flge@ff1+2
  5746     0FA5  3000               	movlw	0
  5747     0FA6  00F1               	movwf	___flge@ff1+1
  5748     0FA7  3000               	movlw	0
  5749     0FA8  00F0               	movwf	___flge@ff1
  5750     0FA9  0020               	movlb	0	; select bank0
  5751     0FAA  0826               	movf	ml_predict@x,w
  5752     0FAB  3E04               	addlw	4
  5753     0FAC  0086               	movwf	6
  5754     0FAD  0187               	clrf	7
  5755     0FAE  3F40               	moviw [0]fsr1
  5756     0FAF  00F4               	movwf	___flge@ff2
  5757     0FB0  3F41               	moviw [1]fsr1
  5758     0FB1  00F5               	movwf	___flge@ff2+1
  5759     0FB2  3F42               	moviw [2]fsr1
  5760     0FB3  00F6               	movwf	___flge@ff2+2
  5761     0FB4  3F43               	moviw [3]fsr1
  5762     0FB5  00F7               	movwf	___flge@ff2+3
  5763     0FB6  3191  21D8  318C   	fcall	___flge
  5764     0FB9  1C03               	btfss	3,0
  5765     0FBA  2FBC               	goto	u4831
  5766     0FBB  2FBD               	goto	u4830
  5767     0FBC                     u4831:
  5768     0FBC  2FD9               	goto	l3371
  5769     0FBD                     u4830:
  5770     0FBD                     l3369:
  5771                           
  5772                           ;./ml.h: 199:                                     if (x[1] <= 2.600000f) {
  5773     0FBD  3040               	movlw	64
  5774     0FBE  00F3               	movwf	___flge@ff1+3
  5775     0FBF  3026               	movlw	38
  5776     0FC0  00F2               	movwf	___flge@ff1+2
  5777     0FC1  3066               	movlw	102
  5778     0FC2  00F1               	movwf	___flge@ff1+1
  5779     0FC3  3066               	movlw	102
  5780     0FC4  00F0               	movwf	___flge@ff1
  5781     0FC5  0020               	movlb	0	; select bank0
  5782     0FC6  0826               	movf	ml_predict@x,w
  5783     0FC7  3E04               	addlw	4
  5784     0FC8  0086               	movwf	6
  5785     0FC9  0187               	clrf	7
  5786     0FCA  3F40               	moviw [0]fsr1
  5787     0FCB  00F4               	movwf	___flge@ff2
  5788     0FCC  3F41               	moviw [1]fsr1
  5789     0FCD  00F5               	movwf	___flge@ff2+1
  5790     0FCE  3F42               	moviw [2]fsr1
  5791     0FCF  00F6               	movwf	___flge@ff2+2
  5792     0FD0  3F43               	moviw [3]fsr1
  5793     0FD1  00F7               	movwf	___flge@ff2+3
  5794     0FD2  3191  21D8  318C   	fcall	___flge
  5795     0FD5  1C03               	btfss	3,0
  5796     0FD6  2FD8               	goto	u4841
  5797     0FD7  2FD9               	goto	u4840
  5798     0FD8                     u4841:
  5799     0FD8  2F9B               	goto	l3359
  5800     0FD9                     u4840:
  5801     0FD9                     l3371:
  5802                           
  5803                           ;./ml.h: 200:                                         votes[2] += 1;
  5804     0FD9  3001               	movlw	1
  5805     0FDA  00FC               	movwf	??_ml_predict
  5806     0FDB  087C               	movf	??_ml_predict,w
  5807     0FDC  0020               	movlb	0	; select bank0
  5808     0FDD  07A5               	addwf	ml_predict@votes+2,f
  5809     0FDE                     l3377:	
  5810                           ;./ml.h: 201:                                     }
  5811                           
  5812                           
  5813                           ;./ml.h: 215:     maxVotes = votes[0];
  5814     0FDE  0823               	movf	ml_predict@votes,w
  5815     0FDF  00A1               	movwf	ml_predict@maxVotes
  5816     0FE0                     l3379:
  5817                           
  5818                           ;./ml.h: 216:     for (i = 1; i < 3; i++) {
  5819     0FE0  01A2               	clrf	ml_predict@i
  5820     0FE1  0AA2               	incf	ml_predict@i,f
  5821     0FE2                     l3385:
  5822                           
  5823                           ;./ml.h: 217:         if (votes[i] > maxVotes) {
  5824     0FE2  0822               	movf	ml_predict@i,w
  5825     0FE3  3E23               	addlw	(low (ml_predict@votes| 0))& (0+255)
  5826     0FE4  0086               	movwf	6
  5827     0FE5  0187               	clrf	7
  5828     0FE6  0801               	movf	1,w
  5829     0FE7  0221               	subwf	ml_predict@maxVotes,w
  5830     0FE8  1803               	skipnc
  5831     0FE9  2FEB               	goto	u4851
  5832     0FEA  2FEC               	goto	u4850
  5833     0FEB                     u4851:
  5834     0FEB  2FF4               	goto	l3391
  5835     0FEC                     u4850:
  5836     0FEC                     l3387:
  5837                           
  5838                           ;./ml.h: 218:             classIdx = i;
  5839     0FEC  0822               	movf	ml_predict@i,w
  5840     0FED  00A0               	movwf	ml_predict@classIdx
  5841     0FEE                     l3389:
  5842                           
  5843                           ;./ml.h: 219:             maxVotes = votes[i];
  5844     0FEE  0822               	movf	ml_predict@i,w
  5845     0FEF  3E23               	addlw	(low (ml_predict@votes| 0))& (0+255)
  5846     0FF0  0086               	movwf	6
  5847     0FF1  0187               	clrf	7
  5848     0FF2  0801               	movf	1,w
  5849     0FF3  00A1               	movwf	ml_predict@maxVotes
  5850     0FF4                     l3391:
  5851                           
  5852                           ;./ml.h: 221:     }
  5853     0FF4  3001               	movlw	1
  5854     0FF5  00FC               	movwf	??_ml_predict
  5855     0FF6  087C               	movf	??_ml_predict,w
  5856     0FF7  07A2               	addwf	ml_predict@i,f
  5857     0FF8                     l3393:
  5858     0FF8  3003               	movlw	3
  5859     0FF9  0222               	subwf	ml_predict@i,w
  5860     0FFA  1C03               	skipc
  5861     0FFB  2FFD               	goto	u4861
  5862     0FFC  2FFE               	goto	u4860
  5863     0FFD                     u4861:
  5864     0FFD  2FE2               	goto	l3385
  5865     0FFE                     u4860:
  5866     0FFE                     l3395:
  5867                           
  5868                           ;./ml.h: 223:     return (signed char)classIdx;
  5869     0FFE  0820               	movf	ml_predict@classIdx,w
  5870     0FFF                     l197:
  5871     0FFF  0008               	return
  5872     1000                     __end_of_ml_predict:
  5873                           
  5874                           	psect	text12
  5875     1E69                     __ptext12:	
  5876 ;; *************** function _EUSART_Write_Text *****************
  5877 ;; Defined at:
  5878 ;;		line 127 in file "EUSART.c"
  5879 ;; Parameters:    Size  Location     Type
  5880 ;;  text            2    1[COMMON] PTR unsigned char 
  5881 ;;		 -> STR_26(3), STR_25(10), STR_24(13), STR_23(3), 
  5882 ;;		 -> STR_22(3), STR_21(28), STR_20(29), STR_19(13), 
  5883 ;;		 -> STR_18(12), STR_17(28), STR_16(23), STR_15(28), 
  5884 ;;		 -> STR_14(3), STR_13(17), STR_12(4), STR_11(10), 
  5885 ;;		 -> STR_10(22), STR_9(4), STR_8(3), STR_7(8), 
  5886 ;;		 -> STR_6(4), STR_5(3), STR_4(9), STR_3(10), 
  5887 ;;		 -> STR_2(11), STR_1(7), 
  5888 ;; Auto vars:     Size  Location     Type
  5889 ;;  i               2    4[COMMON] int 
  5890 ;; Return value:  Size  Location     Type
  5891 ;;                  1    wreg      void 
  5892 ;; Registers used:
  5893 ;;		wreg, fsr0l, fsr0h, status,2, status,0, pclath, cstack
  5894 ;; Tracked objects:
  5895 ;;		On entry : 0/0
  5896 ;;		On exit  : 0/0
  5897 ;;		Unchanged: 0/0
  5898 ;; Data sizes:     COMMON   BANK0   BANK1   BANK2   BANK3   BANK4   BANK5   BANK6   BANK7   BANK8   BANK9  BANK10  BANK1
      +1  BANK12  BANK13  BANK14  BANK15  BANK16  BANK17  BANK18  BANK19  BANK20  BANK21  BANK22  BANK23  BANK24  BANK25
  5899 ;;      Params:         2       0       0       0       0       0       0       0       0       0       0       0       
      +0       0       0       0       0       0       0       0       0       0       0       0       0       0       0
  5900 ;;      Locals:         2       0       0       0       0       0       0       0       0       0       0       0       
      +0       0       0       0       0       0       0       0       0       0       0       0       0       0       0
  5901 ;;      Temps:          1       0       0       0       0       0       0       0       0       0       0       0       
      +0       0       0       0       0       0       0       0       0       0       0       0       0       0       0
  5902 ;;      Totals:         5       0       0       0       0       0       0       0       0       0       0       0       
      +0       0       0       0       0       0       0       0       0       0       0       0       0       0       0
  5903 ;;Total ram usage:        5 bytes
  5904 ;; Hardware stack levels used: 1
  5905 ;; Hardware stack levels required when called: 1
  5906 ;; This function calls:
  5907 ;;		_EUSART_Write
  5908 ;; This function is called by:
  5909 ;;		_classify_and_print
  5910 ;;		_run_demo
  5911 ;;		_main
  5912 ;; This function uses a non-reentrant model
  5913 ;;
  5914                           
  5915     1E69                     _EUSART_Write_Text:	
  5916                           ;psect for function _EUSART_Write_Text
  5917                           
  5918     1E69                     l3245:	
  5919                           ;incstack = 0
  5920                           ; Regs used in _EUSART_Write_Text: [wreg-fsr0h+status,2+status,0+pclath+cstack]
  5921                           
  5922                           
  5923                           ;EUSART.c: 127: void EUSART_Write_Text(char *text);EUSART.c: 128: {;EUSART.c: 129:   int
      +                           i;;EUSART.c: 130:   for(i=0;text[i]!='\0';i++)
  5924     1E69  01F4               	clrf	EUSART_Write_Text@i
  5925     1E6A  01F5               	clrf	EUSART_Write_Text@i+1
  5926     1E6B  2E7A               	goto	l3251
  5927     1E6C                     l3247:
  5928                           
  5929                           ;EUSART.c: 131:    EUSART_Write(text[i]);
  5930     1E6C  0871               	movf	EUSART_Write_Text@text,w
  5931     1E6D  0774               	addwf	EUSART_Write_Text@i,w
  5932     1E6E  0084               	movwf	4
  5933     1E6F  0872               	movf	EUSART_Write_Text@text+1,w
  5934     1E70  3D75               	addwfc	EUSART_Write_Text@i+1,w
  5935     1E71  0085               	movwf	5
  5936     1E72  0800               	movf	0,w	;code access
  5937     1E73  319D  25FD  319E   	fcall	_EUSART_Write
  5938     1E76                     l3249:
  5939     1E76  3001               	movlw	1
  5940     1E77  07F4               	addwf	EUSART_Write_Text@i,f
  5941     1E78  3000               	movlw	0
  5942     1E79  3DF5               	addwfc	EUSART_Write_Text@i+1,f
  5943     1E7A                     l3251:
  5944     1E7A  0871               	movf	EUSART_Write_Text@text,w
  5945     1E7B  0774               	addwf	EUSART_Write_Text@i,w
  5946     1E7C  0084               	movwf	4
  5947     1E7D  0872               	movf	EUSART_Write_Text@text+1,w
  5948     1E7E  3D75               	addwfc	EUSART_Write_Text@i+1,w
  5949     1E7F  0085               	movwf	5
  5950     1E80  0012               	moviw fsr0++
  5951     1E81  1D03               	btfss	3,2
  5952     1E82  2E84               	goto	u4641
  5953     1E83  2E85               	goto	u4640
  5954     1E84                     u4641:
  5955     1E84  2E6C               	goto	l3247
  5956     1E85                     u4640:
  5957     1E85                     l50:
  5958     1E85  0008               	return
  5959     1E86                     __end_of_EUSART_Write_Text:
  5960                           
  5961                           	psect	text13
  5962     1DFD                     __ptext13:	
  5963 ;; *************** function _EUSART_Write *****************
  5964 ;; Defined at:
  5965 ;;		line 108 in file "EUSART.c"
  5966 ;; Parameters:    Size  Location     Type
  5967 ;;  txData          1    wreg     unsigned char 
  5968 ;; Auto vars:     Size  Location     Type
  5969 ;;  txData          1    0[COMMON] unsigned char 
  5970 ;; Return value:  Size  Location     Type
  5971 ;;                  1    wreg      void 
  5972 ;; Registers used:
  5973 ;;		wreg
  5974 ;; Tracked objects:
  5975 ;;		On entry : 0/0
  5976 ;;		On exit  : 0/0
  5977 ;;		Unchanged: 0/0
  5978 ;; Data sizes:     COMMON   BANK0   BANK1   BANK2   BANK3   BANK4   BANK5   BANK6   BANK7   BANK8   BANK9  BANK10  BANK1
      +1  BANK12  BANK13  BANK14  BANK15  BANK16  BANK17  BANK18  BANK19  BANK20  BANK21  BANK22  BANK23  BANK24  BANK25
  5979 ;;      Params:         0       0       0       0       0       0       0       0       0       0       0       0       
      +0       0       0       0       0       0       0       0       0       0       0       0       0       0       0
  5980 ;;      Locals:         1       0       0       0       0       0       0       0       0       0       0       0       
      +0       0       0       0       0       0       0       0       0       0       0       0       0       0       0
  5981 ;;      Temps:          0       0       0       0       0       0       0       0       0       0       0       0       
      +0       0       0       0       0       0       0       0       0       0       0       0       0       0       0
  5982 ;;      Totals:         1       0       0       0       0       0       0       0       0       0       0       0       
      +0       0       0       0       0       0       0       0       0       0       0       0       0       0       0
  5983 ;;Total ram usage:        1 bytes
  5984 ;; Hardware stack levels used: 1
  5985 ;; This function calls:
  5986 ;;		Nothing
  5987 ;; This function is called by:
  5988 ;;		_EUSART_Write_Text
  5989 ;;		_EUSART_Write_Integer
  5990 ;;		_print_float
  5991 ;;		_main
  5992 ;; This function uses a non-reentrant model
  5993 ;;
  5994                           
  5995     1DFD                     _EUSART_Write:	
  5996                           ;psect for function _EUSART_Write
  5997                           
  5998                           
  5999                           ;incstack = 0
  6000                           ; Regs used in _EUSART_Write: [wreg]
  6001                           ;EUSART_Write@txData stored from wreg
  6002     1DFD  00F0               	movwf	EUSART_Write@txData
  6003     1DFE                     l2749:
  6004     1DFE                     l41:	
  6005                           ;EUSART.c: 111:     {;EUSART.c: 112:     }
  6006                           
  6007                           
  6008                           ;EUSART.c: 110:     while(0 == PIR1bits.TXIF)
  6009     1DFE  0020               	movlb	0	; select bank0
  6010     1DFF  1E11               	btfss	17,4	;volatile
  6011     1E00  2E02               	goto	u3571
  6012     1E01  2E03               	goto	u3570
  6013     1E02                     u3571:
  6014     1E02  2DFE               	goto	l41
  6015     1E03                     u3570:
  6016     1E03                     l2751:
  6017                           
  6018                           ;EUSART.c: 114:     TX1REG = txData;
  6019     1E03  0870               	movf	EUSART_Write@txData,w
  6020     1E04  0023               	movlb	3	; select bank3
  6021     1E05  009A               	movwf	26	;volatile
  6022     1E06                     l44:
  6023     1E06  0008               	return
  6024     1E07                     __end_of_EUSART_Write:
  6025                           
  6026                           	psect	text14
  6027     1262                     __ptext14:	
  6028 ;; *************** function _parse_features *****************
  6029 ;; Defined at:
  6030 ;;		line 102 in file "main.c"
  6031 ;; Parameters:    Size  Location     Type
  6032 ;;  buffer          1    wreg     PTR unsigned char 
  6033 ;;		 -> rx_buffer(48), 
  6034 ;;  features        1   70[BANK0 ] PTR float 
  6035 ;;		 -> main@features(16), 
  6036 ;; Auto vars:     Size  Location     Type
  6037 ;;  buffer          1   73[BANK0 ] PTR unsigned char 
  6038 ;;		 -> rx_buffer(48), 
  6039 ;;  end_char        1   75[BANK0 ] unsigned char 
  6040 ;;  ptr             1   77[BANK0 ] PTR unsigned char 
  6041 ;;		 -> rx_buffer(48), 
  6042 ;;  count           1   76[BANK0 ] unsigned char 
  6043 ;;  start           1   74[BANK0 ] PTR unsigned char 
  6044 ;;		 -> rx_buffer(48), 
  6045 ;; Return value:  Size  Location     Type
  6046 ;;                  1    wreg      unsigned char 
  6047 ;; Registers used:
  6048 ;;		wreg, fsr0l, fsr0h, fsr1l, fsr1h, status,2, status,0, pclath, cstack
  6049 ;; Tracked objects:
  6050 ;;		On entry : 0/0
  6051 ;;		On exit  : 0/0
  6052 ;;		Unchanged: 0/0
  6053 ;; Data sizes:     COMMON   BANK0   BANK1   BANK2   BANK3   BANK4   BANK5   BANK6   BANK7   BANK8   BANK9  BANK10  BANK1
      +1  BANK12  BANK13  BANK14  BANK15  BANK16  BANK17  BANK18  BANK19  BANK20  BANK21  BANK22  BANK23  BANK24  BANK25
  6054 ;;      Params:         0       1       0       0       0       0       0       0       0       0       0       0       
      +0       0       0       0       0       0       0       0       0       0       0       0       0       0       0
  6055 ;;      Locals:         0       5       0       0       0       0       0       0       0       0       0       0       
      +0       0       0       0       0       0       0       0       0       0       0       0       0       0       0
  6056 ;;      Temps:          0       2       0       0       0       0       0       0       0       0       0       0       
      +0       0       0       0       0       0       0       0       0       0       0       0       0       0       0
  6057 ;;      Totals:         0       8       0       0       0       0       0       0       0       0       0       0       
      +0       0       0       0       0       0       0       0       0       0       0       0       0       0       0
  6058 ;;Total ram usage:        8 bytes
  6059 ;; Hardware stack levels used: 1
  6060 ;; Hardware stack levels required when called: 3
  6061 ;; This function calls:
  6062 ;;		_strlen
  6063 ;;		_strtof
  6064 ;; This function is called by:
  6065 ;;		_main
  6066 ;; This function uses a non-reentrant model
  6067 ;;
  6068                           
  6069     1262                     _parse_features:	
  6070                           ;psect for function _parse_features
  6071                           
  6072                           
  6073                           ;incstack = 0
  6074                           ; Regs used in _parse_features: [wreg-fsr1h+status,2+status,0+pclath+cstack]
  6075                           ;parse_features@buffer stored from wreg
  6076     1262  0020               	movlb	0	; select bank0
  6077     1263  00E9               	movwf	parse_features@buffer
  6078     1264                     l4155:
  6079                           
  6080                           ;main.c: 102: unsigned char parse_features(char *buffer, float *features);main.c: 103: {
      +                          ;main.c: 104:     unsigned char count = 0;
  6081     1264  01EC               	clrf	parse_features@count
  6082     1265                     l4157:
  6083                           
  6084                           ;main.c: 105:     char *ptr = buffer;
  6085     1265  0869               	movf	parse_features@buffer,w
  6086     1266  00ED               	movwf	parse_features@ptr
  6087     1267                     l4159:
  6088                           
  6089                           ;main.c: 106:     char *start = buffer;
  6090     1267  0869               	movf	parse_features@buffer,w
  6091     1268  00EA               	movwf	parse_features@start
  6092                           
  6093                           ;main.c: 108:     while (count < 4) {
  6094     1269  2AE5               	goto	l4191
  6095     126A                     l4161:
  6096                           
  6097                           ;main.c: 111:             ptr++;
  6098     126A  3001               	movlw	1
  6099     126B  00E7               	movwf	??_parse_features
  6100     126C  0867               	movf	??_parse_features,w
  6101     126D  07ED               	addwf	parse_features@ptr,f
  6102     126E                     l4163:
  6103                           
  6104                           ;main.c: 110:         while (*ptr != ',' && *ptr != '\0' && *ptr != '\r' && *ptr != '\n'
      +                          ) {
  6105     126E  086D               	movf	parse_features@ptr,w
  6106     126F  0086               	movwf	6
  6107     1270  3001               	movlw	1	; select bank2/3
  6108     1271  0087               	movwf	7
  6109     1272  302C               	movlw	44
  6110     1273  0601               	xorwf	1,w
  6111     1274  1903               	btfsc	3,2
  6112     1275  2A77               	goto	u6441
  6113     1276  2A78               	goto	u6440
  6114     1277                     u6441:
  6115     1277  2A95               	goto	l4171
  6116     1278                     u6440:
  6117     1278                     l4165:
  6118     1278  086D               	movf	parse_features@ptr,w
  6119     1279  0086               	movwf	6
  6120     127A  3001               	movlw	1	; select bank2/3
  6121     127B  0087               	movwf	7
  6122     127C  0801               	movf	1,w
  6123     127D  1903               	btfsc	3,2
  6124     127E  2A80               	goto	u6451
  6125     127F  2A81               	goto	u6450
  6126     1280                     u6451:
  6127     1280  2A95               	goto	l4171
  6128     1281                     u6450:
  6129     1281                     l4167:
  6130     1281  086D               	movf	parse_features@ptr,w
  6131     1282  0086               	movwf	6
  6132     1283  3001               	movlw	1	; select bank2/3
  6133     1284  0087               	movwf	7
  6134     1285  300D               	movlw	13
  6135     1286  0601               	xorwf	1,w
  6136     1287  1903               	btfsc	3,2
  6137     1288  2A8A               	goto	u6461
  6138     1289  2A8B               	goto	u6460
  6139     128A                     u6461:
  6140     128A  2A95               	goto	l4171
  6141     128B                     u6460:
  6142     128B                     l4169:
  6143     128B  086D               	movf	parse_features@ptr,w
  6144     128C  0086               	movwf	6
  6145     128D  3001               	movlw	1	; select bank2/3
  6146     128E  0087               	movwf	7
  6147     128F  300A               	movlw	10
  6148     1290  0601               	xorwf	1,w
  6149     1291  1D03               	btfss	3,2
  6150     1292  2A94               	goto	u6471
  6151     1293  2A95               	goto	u6470
  6152     1294                     u6471:
  6153     1294  2A6A               	goto	l4161
  6154     1295                     u6470:
  6155     1295                     l4171:
  6156                           
  6157                           ;main.c: 115:         char end_char = *ptr;
  6158     1295  086D               	movf	parse_features@ptr,w
  6159     1296  0086               	movwf	6
  6160     1297  3001               	movlw	1	; select bank2/3
  6161     1298  0087               	movwf	7
  6162     1299  0801               	movf	1,w
  6163     129A  00EB               	movwf	parse_features@end_char
  6164     129B                     l4173:
  6165                           
  6166                           ;main.c: 116:         *ptr = '\0';
  6167     129B  086D               	movf	parse_features@ptr,w
  6168     129C  0086               	movwf	6
  6169     129D  3001               	movlw	1	; select bank2/3
  6170     129E  0087               	movwf	7
  6171     129F  0181               	clrf	1
  6172     12A0                     l4175:
  6173                           
  6174                           ;main.c: 119:         if (strlen(start) > 0) {
  6175     12A0  086A               	movf	parse_features@start,w
  6176     12A1  319E  2639  3192   	fcall	_strlen
  6177     12A4  0870               	movf	?_strlen,w
  6178     12A5  0471               	iorwf	?_strlen+1,w
  6179     12A6  1903               	btfsc	3,2
  6180     12A7  2AA9               	goto	u6481
  6181     12A8  2AAA               	goto	u6480
  6182     12A9                     u6481:
  6183     12A9  2ACC               	goto	l4181
  6184     12AA                     u6480:
  6185     12AA                     l4177:
  6186                           
  6187                           ;main.c: 120:             features[count] = (float)strtof(start,0);
  6188     12AA  3000               	movlw	0
  6189     12AB  0020               	movlb	0	; select bank0
  6190     12AC  00CA               	movwf	strtof@res
  6191     12AD  00CB               	movwf	strtof@res+1
  6192     12AE  086A               	movf	parse_features@start,w
  6193     12AF  3180  2046  3192   	fcall	_strtof
  6194     12B2  0020               	movlb	0	; select bank0
  6195     12B3  086C               	movf	parse_features@count,w
  6196     12B4  00E7               	movwf	??_parse_features
  6197     12B5  3001               	movlw	1
  6198     12B6                     u6495:
  6199     12B6  35E7               	lslf	??_parse_features,f
  6200     12B7  3EFF               	addlw	-1
  6201     12B8  1D03               	skipz
  6202     12B9  2AB6               	goto	u6495
  6203     12BA  3567               	lslf	??_parse_features,w
  6204     12BB  0766               	addwf	parse_features@features,w
  6205     12BC  00E8               	movwf	??_parse_features+1
  6206     12BD  0868               	movf	??_parse_features+1,w
  6207     12BE  0086               	movwf	6
  6208     12BF  0187               	clrf	7
  6209     12C0  084A               	movf	?_strtof,w
  6210     12C1  3FC0               	movwi [0]fsr1
  6211     12C2  084B               	movf	?_strtof+1,w
  6212     12C3  3FC1               	movwi [1]fsr1
  6213     12C4  084C               	movf	?_strtof+2,w
  6214     12C5  3FC2               	movwi [2]fsr1
  6215     12C6  084D               	movf	?_strtof+3,w
  6216     12C7  3FC3               	movwi [3]fsr1
  6217     12C8                     l4179:
  6218                           
  6219                           ;main.c: 121:             count++;
  6220     12C8  3001               	movlw	1
  6221     12C9  00E7               	movwf	??_parse_features
  6222     12CA  0867               	movf	??_parse_features,w
  6223     12CB  07EC               	addwf	parse_features@count,f
  6224     12CC                     l4181:
  6225                           
  6226                           ;main.c: 125:         if (end_char == '\0' || end_char == '\r' || end_char == '\n') {
  6227     12CC  0020               	movlb	0	; select bank0
  6228     12CD  086B               	movf	parse_features@end_char,w
  6229     12CE  1903               	btfsc	3,2
  6230     12CF  2AD1               	goto	u6501
  6231     12D0  2AD2               	goto	u6500
  6232     12D1                     u6501:
  6233     12D1  2AEB               	goto	l4193
  6234     12D2                     u6500:
  6235     12D2                     l4183:
  6236     12D2  300D               	movlw	13
  6237     12D3  066B               	xorwf	parse_features@end_char,w
  6238     12D4  1903               	btfsc	3,2
  6239     12D5  2AD7               	goto	u6511
  6240     12D6  2AD8               	goto	u6510
  6241     12D7                     u6511:
  6242     12D7  2AEB               	goto	l4193
  6243     12D8                     u6510:
  6244     12D8                     l4185:
  6245     12D8  300A               	movlw	10
  6246     12D9  066B               	xorwf	parse_features@end_char,w
  6247     12DA  1D03               	btfss	3,2
  6248     12DB  2ADD               	goto	u6521
  6249     12DC  2ADE               	goto	u6520
  6250     12DD                     u6521:
  6251     12DD  2ADF               	goto	l4187
  6252     12DE                     u6520:
  6253     12DE  2AEB               	goto	l4193
  6254     12DF                     l4187:
  6255                           
  6256                           ;main.c: 128:         ptr++;
  6257     12DF  3001               	movlw	1
  6258     12E0  00E7               	movwf	??_parse_features
  6259     12E1  0867               	movf	??_parse_features,w
  6260     12E2  07ED               	addwf	parse_features@ptr,f
  6261     12E3                     l4189:
  6262                           
  6263                           ;main.c: 129:         start = ptr;
  6264     12E3  086D               	movf	parse_features@ptr,w
  6265     12E4  00EA               	movwf	parse_features@start
  6266     12E5                     l4191:
  6267                           
  6268                           ;main.c: 108:     while (count < 4) {
  6269     12E5  3004               	movlw	4
  6270     12E6  026C               	subwf	parse_features@count,w
  6271     12E7  1C03               	skipc
  6272     12E8  2AEA               	goto	u6531
  6273     12E9  2AEB               	goto	u6530
  6274     12EA                     u6531:
  6275     12EA  2A6E               	goto	l4163
  6276     12EB                     u6530:
  6277     12EB                     l4193:
  6278                           
  6279                           ;main.c: 132:     return count;
  6280     12EB  086C               	movf	parse_features@count,w
  6281     12EC                     l225:
  6282     12EC  0008               	return
  6283     12ED                     __end_of_parse_features:
  6284                           
  6285                           	psect	text15
  6286     0046                     __ptext15:	
  6287 ;; *************** function _strtof *****************
  6288 ;; Defined at:
  6289 ;;		line 100 in file "C:\Program Files\Microchip\xc8\v2.46\pic\sources\c99\common\strtof.c"
  6290 ;; Parameters:    Size  Location     Type
  6291 ;;  s               1    wreg     PTR const unsigned char 
  6292 ;;		 -> rx_buffer(48), 
  6293 ;;  res             2   42[BANK0 ] PTR PTR unsigned char 
  6294 ;;		 -> NULL(0), 
  6295 ;; Auto vars:     Size  Location     Type
  6296 ;;  s               1   69[BANK0 ] PTR const unsigned char 
  6297 ;;		 -> rx_buffer(48), 
  6298 ;;  _u              4   64[BANK0 ] struct .
  6299 ;;  eexp            2   62[BANK0 ] int 
  6300 ;;  expon           2   60[BANK0 ] int 
  6301 ;;  err             2   54[BANK0 ] int 
  6302 ;;  i               1   68[BANK0 ] unsigned char 
  6303 ;;  flags           1   59[BANK0 ] unsigned char 
  6304 ;;  digit           1   58[BANK0 ] unsigned char 
  6305 ;;  dpos            1   57[BANK0 ] unsigned char 
  6306 ;;  xpos            1   56[BANK0 ] unsigned char 
  6307 ;; Return value:  Size  Location     Type
  6308 ;;                  4   42[BANK0 ] float 
  6309 ;; Registers used:
  6310 ;;		wreg, fsr0l, fsr0h, fsr1l, fsr1h, status,2, status,0, pclath, cstack
  6311 ;; Tracked objects:
  6312 ;;		On entry : 0/0
  6313 ;;		On exit  : 0/0
  6314 ;;		Unchanged: 0/0
  6315 ;; Data sizes:     COMMON   BANK0   BANK1   BANK2   BANK3   BANK4   BANK5   BANK6   BANK7   BANK8   BANK9  BANK10  BANK1
      +1  BANK12  BANK13  BANK14  BANK15  BANK16  BANK17  BANK18  BANK19  BANK20  BANK21  BANK22  BANK23  BANK24  BANK25
  6316 ;;      Params:         0       4       0       0       0       0       0       0       0       0       0       0       
      +0       0       0       0       0       0       0       0       0       0       0       0       0       0       0
  6317 ;;      Locals:         0      16       0       0       0       0       0       0       0       0       0       0       
      +0       0       0       0       0       0       0       0       0       0       0       0       0       0       0
  6318 ;;      Temps:          0       8       0       0       0       0       0       0       0       0       0       0       
      +0       0       0       0       0       0       0       0       0       0       0       0       0       0       0
  6319 ;;      Totals:         0      28       0       0       0       0       0       0       0       0       0       0       
      +0       0       0       0       0       0       0       0       0       0       0       0       0       0       0
  6320 ;;Total ram usage:       28 bytes
  6321 ;; Hardware stack levels used: 1
  6322 ;; Hardware stack levels required when called: 2
  6323 ;; This function calls:
  6324 ;;		___fldiv
  6325 ;;		___fleq
  6326 ;;		___flge
  6327 ;;		___flmul
  6328 ;;		___flneg
  6329 ;;		___lmul
  6330 ;;		___wmul
  6331 ;;		___xxtofl
  6332 ;;		_isdigit
  6333 ;;		_isxdigit
  6334 ;;		_nanf
  6335 ;;		_toupper
  6336 ;; This function is called by:
  6337 ;;		_parse_features
  6338 ;; This function uses a non-reentrant model
  6339 ;;
  6340                           
  6341     0046                     _strtof:	
  6342                           ;psect for function _strtof
  6343                           
  6344                           
  6345                           ;incstack = 0
  6346                           ; Regs used in _strtof: [wreg-fsr1h+status,2+status,0+pclath+cstack]
  6347                           ;strtof@s stored from wreg
  6348     0046  0020               	movlb	0	; select bank0
  6349     0047  00E5               	movwf	strtof@s
  6350     0048                     l3619:
  6351     0048  01D6               	clrf	strtof@err
  6352     0049  01D7               	clrf	strtof@err+1
  6353     004A                     l3621:
  6354     004A  084A               	movf	strtof@res,w
  6355     004B  044B               	iorwf	strtof@res+1,w
  6356     004C  1903               	btfsc	3,2
  6357     004D  284F               	goto	u5301
  6358     004E  2850               	goto	u5300
  6359     004F                     u5301:
  6360     004F  285B               	goto	l3627
  6361     0050                     u5300:
  6362     0050                     l3623:
  6363     0050  084A               	movf	strtof@res,w
  6364     0051  0086               	movwf	6
  6365     0052  084B               	movf	strtof@res+1,w
  6366     0053  0087               	movwf	7
  6367     0054  0865               	movf	strtof@s,w
  6368     0055  0081               	movwf	1
  6369     0056  285B               	goto	l3627
  6370     0057                     l3625:
  6371     0057  3001               	movlw	1
  6372     0058  00CE               	movwf	??_strtof
  6373     0059  084E               	movf	??_strtof,w
  6374     005A  07E5               	addwf	strtof@s,f
  6375     005B                     l3627:
  6376     005B  0865               	movf	strtof@s,w
  6377     005C  0086               	movwf	6
  6378     005D  3001               	movlw	1	; select bank2/3
  6379     005E  0087               	movwf	7
  6380     005F  3020               	movlw	32
  6381     0060  0601               	xorwf	1,w
  6382     0061  1903               	btfsc	3,2
  6383     0062  2864               	goto	u5311
  6384     0063  2866               	goto	u5310
  6385     0064                     u5311:
  6386     0064  3001               	movlw	1
  6387     0065  2867               	goto	u5320
  6388     0066                     u5310:
  6389     0066  3000               	movlw	0
  6390     0067                     u5320:
  6391     0067  00CE               	movwf	??_strtof
  6392     0068  01CF               	clrf	??_strtof+1
  6393     0069  084E               	movf	??_strtof,w
  6394     006A  00DE               	movwf	strtof@eexp
  6395     006B  084F               	movf	??_strtof+1,w
  6396     006C  00DF               	movwf	strtof@eexp+1
  6397     006D  085E               	movf	strtof@eexp,w
  6398     006E  045F               	iorwf	strtof@eexp+1,w
  6399     006F  1D03               	btfss	3,2
  6400     0070  2872               	goto	u5331
  6401     0071  2873               	goto	u5330
  6402     0072                     u5331:
  6403     0072  2857               	goto	l3625
  6404     0073                     u5330:
  6405     0073                     l3629:
  6406     0073  0865               	movf	strtof@s,w
  6407     0074  0086               	movwf	6
  6408     0075  3001               	movlw	1	; select bank2/3
  6409     0076  0087               	movwf	7
  6410     0077  0801               	movf	1,w
  6411     0078  00CE               	movwf	??_strtof
  6412     0079  01CF               	clrf	??_strtof+1
  6413     007A  084E               	movf	??_strtof,w
  6414     007B  00DE               	movwf	strtof@eexp
  6415     007C  084F               	movf	??_strtof+1,w
  6416     007D  00DF               	movwf	strtof@eexp+1
  6417     007E  085F               	movf	strtof@eexp+1,w
  6418     007F  00D1               	movwf	??_strtof+3
  6419     0080  085E               	movf	strtof@eexp,w
  6420     0081  00D0               	movwf	??_strtof+2
  6421     0082  30F7               	movlw	247
  6422     0083  0750               	addwf	??_strtof+2,w
  6423     0084  00D2               	movwf	??_strtof+4
  6424     0085  3005               	movlw	5
  6425     0086  0252               	subwf	??_strtof+4,w
  6426     0087  1C03               	skipc
  6427     0088  288A               	goto	u5341
  6428     0089  288B               	goto	u5340
  6429     008A                     u5341:
  6430     008A  2857               	goto	l3625
  6431     008B                     u5340:
  6432     008B                     l3631:
  6433     008B  01DB               	clrf	strtof@flags
  6434     008C                     l3633:
  6435     008C  302D               	movlw	45
  6436     008D  065E               	xorwf	strtof@eexp,w
  6437     008E  045F               	iorwf	strtof@eexp+1,w
  6438     008F  1D03               	btfss	3,2
  6439     0090  2892               	goto	u5351
  6440     0091  2893               	goto	u5350
  6441     0092                     u5351:
  6442     0092  289A               	goto	l3639
  6443     0093                     u5350:
  6444     0093                     l3635:
  6445     0093  01DB               	clrf	strtof@flags
  6446     0094  0ADB               	incf	strtof@flags,f
  6447     0095                     l3637:
  6448     0095  3001               	movlw	1
  6449     0096  00CE               	movwf	??_strtof
  6450     0097  084E               	movf	??_strtof,w
  6451     0098  07E5               	addwf	strtof@s,f
  6452     0099  28A2               	goto	l3643
  6453     009A                     l3639:
  6454     009A  302B               	movlw	43
  6455     009B  065E               	xorwf	strtof@eexp,w
  6456     009C  045F               	iorwf	strtof@eexp+1,w
  6457     009D  1D03               	btfss	3,2
  6458     009E  28A0               	goto	u5361
  6459     009F  28A1               	goto	u5360
  6460     00A0                     u5361:
  6461     00A0  28A2               	goto	l3643
  6462     00A1                     u5360:
  6463     00A1  2895               	goto	l3637
  6464     00A2                     l3643:
  6465     00A2  01E4               	clrf	strtof@i
  6466     00A3  28A8               	goto	l3647
  6467     00A4                     l3645:
  6468     00A4  3001               	movlw	1
  6469     00A5  00CE               	movwf	??_strtof
  6470     00A6  084E               	movf	??_strtof,w
  6471     00A7  07E4               	addwf	strtof@i,f
  6472     00A8                     l3647:
  6473     00A8  0864               	movf	strtof@i,w
  6474     00A9  0765               	addwf	strtof@s,w
  6475     00AA  00CE               	movwf	??_strtof
  6476     00AB  084E               	movf	??_strtof,w
  6477     00AC  0086               	movwf	6
  6478     00AD  3001               	movlw	1	; select bank2/3
  6479     00AE  0087               	movwf	7
  6480     00AF  0801               	movf	1,w
  6481     00B0  1903               	btfsc	3,2
  6482     00B1  28B3               	goto	u5371
  6483     00B2  28B4               	goto	u5370
  6484     00B3                     u5371:
  6485     00B3  28E0               	goto	l3653
  6486     00B4                     u5370:
  6487     00B4                     l3649:
  6488     00B4  0864               	movf	strtof@i,w
  6489     00B5  3ECF               	addlw	low (STR_27| (0+32768))
  6490     00B6  0084               	movwf	4
  6491     00B7  30A0               	movlw	high (STR_27| (0+32768))
  6492     00B8  1803               	skipnc
  6493     00B9  3E01               	addlw	1
  6494     00BA  0085               	movwf	5
  6495     00BB  0800               	movf	0,w	;code access
  6496     00BC  00CE               	movwf	??_strtof
  6497     00BD  0864               	movf	strtof@i,w
  6498     00BE  0765               	addwf	strtof@s,w
  6499     00BF  00CF               	movwf	??_strtof+1
  6500     00C0  084F               	movf	??_strtof+1,w
  6501     00C1  0086               	movwf	6
  6502     00C2  3001               	movlw	1	; select bank2/3
  6503     00C3  0087               	movwf	7
  6504     00C4  0801               	movf	1,w
  6505     00C5  064E               	xorwf	??_strtof,w
  6506     00C6  1903               	skipnz
  6507     00C7  28C9               	goto	u5381
  6508     00C8  28CA               	goto	u5380
  6509     00C9                     u5381:
  6510     00C9  28A4               	goto	l3645
  6511     00CA                     u5380:
  6512     00CA                     l3651:
  6513     00CA  0864               	movf	strtof@i,w
  6514     00CB  3EC6               	addlw	low (STR_28| (0+32768))
  6515     00CC  0084               	movwf	4
  6516     00CD  30A0               	movlw	high (STR_28| (0+32768))
  6517     00CE  1803               	skipnc
  6518     00CF  3E01               	addlw	1
  6519     00D0  0085               	movwf	5
  6520     00D1  0800               	movf	0,w	;code access
  6521     00D2  00CE               	movwf	??_strtof
  6522     00D3  0864               	movf	strtof@i,w
  6523     00D4  0765               	addwf	strtof@s,w
  6524     00D5  00CF               	movwf	??_strtof+1
  6525     00D6  084F               	movf	??_strtof+1,w
  6526     00D7  0086               	movwf	6
  6527     00D8  3001               	movlw	1	; select bank2/3
  6528     00D9  0087               	movwf	7
  6529     00DA  0801               	movf	1,w
  6530     00DB  064E               	xorwf	??_strtof,w
  6531     00DC  1903               	skipnz
  6532     00DD  28DF               	goto	u5391
  6533     00DE  28E0               	goto	u5390
  6534     00DF                     u5391:
  6535     00DF  28A4               	goto	l3645
  6536     00E0                     u5390:
  6537     00E0                     l3653:
  6538     00E0  3003               	movlw	3
  6539     00E1  0264               	subwf	strtof@i,w
  6540     00E2  1C03               	skipc
  6541     00E3  28E5               	goto	u5401
  6542     00E4  28E6               	goto	u5400
  6543     00E5                     u5401:
  6544     00E5  2906               	goto	l3665
  6545     00E6                     u5400:
  6546     00E6                     l3655:
  6547     00E6  307F               	movlw	127
  6548     00E7  00E3               	movwf	strtof@_u+3
  6549     00E8  3080               	movlw	128
  6550     00E9  00E2               	movwf	strtof@_u+2
  6551     00EA  3000               	movlw	0
  6552     00EB  00E1               	movwf	strtof@_u+1
  6553     00EC  3000               	movlw	0
  6554     00ED  00E0               	movwf	strtof@_u
  6555     00EE                     l3657:
  6556     00EE  084A               	movf	strtof@res,w
  6557     00EF  044B               	iorwf	strtof@res+1,w
  6558     00F0  1903               	btfsc	3,2
  6559     00F1  28F3               	goto	u5411
  6560     00F2  28F4               	goto	u5410
  6561     00F3                     u5411:
  6562     00F3  2F9E               	goto	l4017
  6563     00F4                     u5410:
  6564     00F4                     l3659:
  6565     00F4  3008               	movlw	8
  6566     00F5  0664               	xorwf	strtof@i,w
  6567     00F6  1903               	btfsc	3,2
  6568     00F7  28F9               	goto	u5421
  6569     00F8  28FA               	goto	u5420
  6570     00F9                     u5421:
  6571     00F9  28FC               	goto	l3663
  6572     00FA                     u5420:
  6573     00FA                     l3661:
  6574     00FA  3003               	movlw	3
  6575     00FB  00E4               	movwf	strtof@i
  6576     00FC                     l3663:
  6577     00FC  0865               	movf	strtof@s,w
  6578     00FD  0764               	addwf	strtof@i,w
  6579     00FE  00CE               	movwf	??_strtof
  6580     00FF  084A               	movf	strtof@res,w
  6581     0100  0086               	movwf	6
  6582     0101  084B               	movf	strtof@res+1,w
  6583     0102  0087               	movwf	7
  6584     0103  084E               	movf	??_strtof,w
  6585     0104  0081               	movwf	1
  6586     0105  2F9E               	goto	l4017
  6587     0106                     l3665:
  6588     0106  01E4               	clrf	strtof@i
  6589     0107  290C               	goto	l3669
  6590     0108                     l3667:
  6591     0108  3001               	movlw	1
  6592     0109  00CE               	movwf	??_strtof
  6593     010A  084E               	movf	??_strtof,w
  6594     010B  07E4               	addwf	strtof@i,f
  6595     010C                     l3669:
  6596     010C  0864               	movf	strtof@i,w
  6597     010D  0765               	addwf	strtof@s,w
  6598     010E  00CE               	movwf	??_strtof
  6599     010F  084E               	movf	??_strtof,w
  6600     0110  0086               	movwf	6
  6601     0111  3001               	movlw	1	; select bank2/3
  6602     0112  0087               	movwf	7
  6603     0113  0801               	movf	1,w
  6604     0114  1903               	btfsc	3,2
  6605     0115  2917               	goto	u5431
  6606     0116  2918               	goto	u5430
  6607     0117                     u5431:
  6608     0117  2944               	goto	l3675
  6609     0118                     u5430:
  6610     0118                     l3671:
  6611     0118  0864               	movf	strtof@i,w
  6612     0119  3EF8               	addlw	low (STR_32| (0+32768))
  6613     011A  0084               	movwf	4
  6614     011B  30A0               	movlw	high (STR_32| (0+32768))
  6615     011C  1803               	skipnc
  6616     011D  3E01               	addlw	1
  6617     011E  0085               	movwf	5
  6618     011F  0800               	movf	0,w	;code access
  6619     0120  00CE               	movwf	??_strtof
  6620     0121  0864               	movf	strtof@i,w
  6621     0122  0765               	addwf	strtof@s,w
  6622     0123  00CF               	movwf	??_strtof+1
  6623     0124  084F               	movf	??_strtof+1,w
  6624     0125  0086               	movwf	6
  6625     0126  3001               	movlw	1	; select bank2/3
  6626     0127  0087               	movwf	7
  6627     0128  0801               	movf	1,w
  6628     0129  064E               	xorwf	??_strtof,w
  6629     012A  1903               	skipnz
  6630     012B  292D               	goto	u5441
  6631     012C  292E               	goto	u5440
  6632     012D                     u5441:
  6633     012D  2908               	goto	l3667
  6634     012E                     u5440:
  6635     012E                     l3673:
  6636     012E  0864               	movf	strtof@i,w
  6637     012F  3EF0               	addlw	low (STR_33| (0+32768))
  6638     0130  0084               	movwf	4
  6639     0131  30A0               	movlw	high (STR_33| (0+32768))
  6640     0132  1803               	skipnc
  6641     0133  3E01               	addlw	1
  6642     0134  0085               	movwf	5
  6643     0135  0800               	movf	0,w	;code access
  6644     0136  00CE               	movwf	??_strtof
  6645     0137  0864               	movf	strtof@i,w
  6646     0138  0765               	addwf	strtof@s,w
  6647     0139  00CF               	movwf	??_strtof+1
  6648     013A  084F               	movf	??_strtof+1,w
  6649     013B  0086               	movwf	6
  6650     013C  3001               	movlw	1	; select bank2/3
  6651     013D  0087               	movwf	7
  6652     013E  0801               	movf	1,w
  6653     013F  064E               	xorwf	??_strtof,w
  6654     0140  1903               	skipnz
  6655     0141  2943               	goto	u5451
  6656     0142  2944               	goto	u5450
  6657     0143                     u5451:
  6658     0143  2908               	goto	l3667
  6659     0144                     u5450:
  6660     0144                     l3675:
  6661     0144  3003               	movlw	3
  6662     0145  0664               	xorwf	strtof@i,w
  6663     0146  1D03               	btfss	3,2
  6664     0147  2949               	goto	u5461
  6665     0148  294A               	goto	u5460
  6666     0149                     u5461:
  6667     0149  29A6               	goto	l3699
  6668     014A                     u5460:
  6669     014A                     l3677:
  6670     014A  30FF               	movlw	low ((STR_9+3)| (0+32768))
  6671     014B  00F0               	movwf	nanf@s
  6672     014C  30A0               	movlw	high ((STR_9+3)| (0+32768))
  6673     014D  00F1               	movwf	nanf@s+1
  6674     014E  319E  2617  3180   	fcall	_nanf
  6675     0151  0873               	movf	?_nanf+3,w
  6676     0152  0020               	movlb	0	; select bank0
  6677     0153  00E3               	movwf	strtof@_u+3
  6678     0154  0872               	movf	?_nanf+2,w
  6679     0155  00E2               	movwf	strtof@_u+2
  6680     0156  0871               	movf	?_nanf+1,w
  6681     0157  00E1               	movwf	strtof@_u+1
  6682     0158  0870               	movf	?_nanf,w
  6683     0159  00E0               	movwf	strtof@_u
  6684     015A                     l3679:
  6685     015A  084A               	movf	strtof@res,w
  6686     015B  044B               	iorwf	strtof@res+1,w
  6687     015C  1903               	btfsc	3,2
  6688     015D  295F               	goto	u5471
  6689     015E  2960               	goto	u5470
  6690     015F                     u5471:
  6691     015F  2F9E               	goto	l4017
  6692     0160                     u5470:
  6693     0160                     l3681:
  6694     0160  0864               	movf	strtof@i,w
  6695     0161  00CE               	movwf	??_strtof
  6696     0162  084E               	movf	??_strtof,w
  6697     0163  07E5               	addwf	strtof@s,f
  6698     0164                     l3683:
  6699     0164  0865               	movf	strtof@s,w
  6700     0165  0086               	movwf	6
  6701     0166  3001               	movlw	1	; select bank2/3
  6702     0167  0087               	movwf	7
  6703     0168  3028               	movlw	40
  6704     0169  0601               	xorwf	1,w
  6705     016A  1D03               	btfss	3,2
  6706     016B  296D               	goto	u5481
  6707     016C  296E               	goto	u5480
  6708     016D                     u5481:
  6709     016D  299F               	goto	l3697
  6710     016E                     u5480:
  6711     016E                     l3685:
  6712     016E  01E4               	clrf	strtof@i
  6713     016F  2974               	goto	l3689
  6714     0170                     l3687:
  6715     0170  3001               	movlw	1
  6716     0171  00CE               	movwf	??_strtof
  6717     0172  084E               	movf	??_strtof,w
  6718     0173  07E4               	addwf	strtof@i,f
  6719     0174                     l3689:
  6720     0174  0864               	movf	strtof@i,w
  6721     0175  0765               	addwf	strtof@s,w
  6722     0176  00CE               	movwf	??_strtof
  6723     0177  084E               	movf	??_strtof,w
  6724     0178  0086               	movwf	6
  6725     0179  3001               	movlw	1	; select bank2/3
  6726     017A  0087               	movwf	7
  6727     017B  0801               	movf	1,w
  6728     017C  1903               	btfsc	3,2
  6729     017D  297F               	goto	u5491
  6730     017E  2980               	goto	u5490
  6731     017F                     u5491:
  6732     017F  298D               	goto	l3693
  6733     0180                     u5490:
  6734     0180                     l3691:
  6735     0180  0864               	movf	strtof@i,w
  6736     0181  0765               	addwf	strtof@s,w
  6737     0182  00CE               	movwf	??_strtof
  6738     0183  084E               	movf	??_strtof,w
  6739     0184  0086               	movwf	6
  6740     0185  3001               	movlw	1	; select bank2/3
  6741     0186  0087               	movwf	7
  6742     0187  3029               	movlw	41
  6743     0188  0601               	xorwf	1,w
  6744     0189  1D03               	btfss	3,2
  6745     018A  298C               	goto	u5501
  6746     018B  298D               	goto	u5500
  6747     018C                     u5501:
  6748     018C  2970               	goto	l3687
  6749     018D                     u5500:
  6750     018D                     l3693:
  6751     018D  0864               	movf	strtof@i,w
  6752     018E  0765               	addwf	strtof@s,w
  6753     018F  00CE               	movwf	??_strtof
  6754     0190  084E               	movf	??_strtof,w
  6755     0191  0086               	movwf	6
  6756     0192  3001               	movlw	1	; select bank2/3
  6757     0193  0087               	movwf	7
  6758     0194  3029               	movlw	41
  6759     0195  0601               	xorwf	1,w
  6760     0196  1D03               	btfss	3,2
  6761     0197  2999               	goto	u5511
  6762     0198  299A               	goto	u5510
  6763     0199                     u5511:
  6764     0199  299F               	goto	l3697
  6765     019A                     u5510:
  6766     019A                     l3695:
  6767     019A  0864               	movf	strtof@i,w
  6768     019B  3E01               	addlw	1
  6769     019C  00CE               	movwf	??_strtof
  6770     019D  084E               	movf	??_strtof,w
  6771     019E  07E5               	addwf	strtof@s,f
  6772     019F                     l3697:
  6773     019F  084A               	movf	strtof@res,w
  6774     01A0  0086               	movwf	6
  6775     01A1  084B               	movf	strtof@res+1,w
  6776     01A2  0087               	movwf	7
  6777     01A3  0865               	movf	strtof@s,w
  6778     01A4  0081               	movwf	1
  6779     01A5  2F9E               	goto	l4017
  6780     01A6                     l3699:
  6781     01A6  01DE               	clrf	strtof@eexp
  6782     01A7  01DF               	clrf	strtof@eexp+1
  6783     01A8                     l3701:
  6784     01A8  3000               	movlw	0
  6785     01A9  00E3               	movwf	strtof@_u+3
  6786     01AA  3000               	movlw	0
  6787     01AB  00E2               	movwf	strtof@_u+2
  6788     01AC  3000               	movlw	0
  6789     01AD  00E1               	movwf	strtof@_u+1
  6790     01AE  3000               	movlw	0
  6791     01AF  00E0               	movwf	strtof@_u
  6792     01B0                     l3703:
  6793     01B0  01D8               	clrf	strtof@xpos
  6794     01B1                     l3705:
  6795     01B1  01D9               	clrf	strtof@dpos
  6796     01B2                     l3707:
  6797     01B2  01DC               	clrf	strtof@expon
  6798     01B3  01DD               	clrf	strtof@expon+1
  6799     01B4                     l3709:
  6800     01B4  01E4               	clrf	strtof@i
  6801     01B5  29BA               	goto	l3713
  6802     01B6                     l3711:
  6803     01B6  3001               	movlw	1
  6804     01B7  00CE               	movwf	??_strtof
  6805     01B8  084E               	movf	??_strtof,w
  6806     01B9  07E4               	addwf	strtof@i,f
  6807     01BA                     l3713:
  6808     01BA  0864               	movf	strtof@i,w
  6809     01BB  0765               	addwf	strtof@s,w
  6810     01BC  00CE               	movwf	??_strtof
  6811     01BD  084E               	movf	??_strtof,w
  6812     01BE  0086               	movwf	6
  6813     01BF  3001               	movlw	1	; select bank2/3
  6814     01C0  0087               	movwf	7
  6815     01C1  3030               	movlw	48
  6816     01C2  0601               	xorwf	1,w
  6817     01C3  1903               	btfsc	3,2
  6818     01C4  29C6               	goto	u5521
  6819     01C5  29C7               	goto	u5520
  6820     01C6                     u5521:
  6821     01C6  29B6               	goto	l3711
  6822     01C7                     u5520:
  6823     01C7                     l3715:
  6824     01C7  0864               	movf	strtof@i,w
  6825     01C8  1903               	btfsc	3,2
  6826     01C9  29CB               	goto	u5531
  6827     01CA  29CC               	goto	u5530
  6828     01CB                     u5531:
  6829     01CB  2D3F               	goto	l904
  6830     01CC                     u5530:
  6831     01CC                     l3717:
  6832     01CC  0864               	movf	strtof@i,w
  6833     01CD  0765               	addwf	strtof@s,w
  6834     01CE  00CE               	movwf	??_strtof
  6835     01CF  084E               	movf	??_strtof,w
  6836     01D0  0086               	movwf	6
  6837     01D1  3001               	movlw	1	; select bank2/3
  6838     01D2  0087               	movwf	7
  6839     01D3  3078               	movlw	120
  6840     01D4  0601               	xorwf	1,w
  6841     01D5  1903               	btfsc	3,2
  6842     01D6  29D8               	goto	u5541
  6843     01D7  29D9               	goto	u5540
  6844     01D8                     u5541:
  6845     01D8  29E6               	goto	l3721
  6846     01D9                     u5540:
  6847     01D9                     l3719:
  6848     01D9  0864               	movf	strtof@i,w
  6849     01DA  0765               	addwf	strtof@s,w
  6850     01DB  00CE               	movwf	??_strtof
  6851     01DC  084E               	movf	??_strtof,w
  6852     01DD  0086               	movwf	6
  6853     01DE  3001               	movlw	1	; select bank2/3
  6854     01DF  0087               	movwf	7
  6855     01E0  3058               	movlw	88
  6856     01E1  0601               	xorwf	1,w
  6857     01E2  1D03               	btfss	3,2
  6858     01E3  29E5               	goto	u5551
  6859     01E4  29E6               	goto	u5550
  6860     01E5                     u5551:
  6861     01E5  2D3F               	goto	l904
  6862     01E6                     u5550:
  6863     01E6                     l3721:
  6864     01E6  0864               	movf	strtof@i,w
  6865     01E7  0765               	addwf	strtof@s,w
  6866     01E8  00CE               	movwf	??_strtof
  6867     01E9  0A4E               	incf	??_strtof,w
  6868     01EA  0086               	movwf	6
  6869     01EB  3001               	movlw	1	; select bank2/3
  6870     01EC  0087               	movwf	7
  6871     01ED  0801               	movf	1,w
  6872     01EE  00CF               	movwf	??_strtof+1
  6873     01EF  01D0               	clrf	??_strtof+2
  6874     01F0  084F               	movf	??_strtof+1,w
  6875     01F1  00F0               	movwf	isxdigit@c
  6876     01F2  0850               	movf	??_strtof+2,w
  6877     01F3  00F1               	movwf	isxdigit@c+1
  6878     01F4  319F  270C  3180   	fcall	_isxdigit
  6879     01F7  0870               	movf	?_isxdigit,w
  6880     01F8  0471               	iorwf	?_isxdigit+1,w
  6881     01F9  1D03               	btfss	3,2
  6882     01FA  29FC               	goto	u5561
  6883     01FB  29FD               	goto	u5560
  6884     01FC                     u5561:
  6885     01FC  2A0C               	goto	l3727
  6886     01FD                     u5560:
  6887     01FD                     l3723:
  6888     01FD  0020               	movlb	0	; select bank0
  6889     01FE  0864               	movf	strtof@i,w
  6890     01FF  0765               	addwf	strtof@s,w
  6891     0200  00CE               	movwf	??_strtof
  6892     0201  0A4E               	incf	??_strtof,w
  6893     0202  0086               	movwf	6
  6894     0203  3001               	movlw	1	; select bank2/3
  6895     0204  0087               	movwf	7
  6896     0205  302E               	movlw	46
  6897     0206  0601               	xorwf	1,w
  6898     0207  1903               	btfsc	3,2
  6899     0208  2A0A               	goto	u5571
  6900     0209  2A0B               	goto	u5570
  6901     020A                     u5571:
  6902     020A  2A0C               	goto	l3727
  6903     020B                     u5570:
  6904     020B  2C69               	goto	l849
  6905     020C                     l3727:
  6906     020C  0020               	movlb	0	; select bank0
  6907     020D  0864               	movf	strtof@i,w
  6908     020E  00D8               	movwf	strtof@xpos
  6909     020F                     l3729:
  6910     020F  3001               	movlw	1
  6911     0210  00CE               	movwf	??_strtof
  6912     0211  084E               	movf	??_strtof,w
  6913     0212  07E4               	addwf	strtof@i,f
  6914     0213                     l3733:
  6915     0213  0864               	movf	strtof@i,w
  6916     0214  0765               	addwf	strtof@s,w
  6917     0215  00CE               	movwf	??_strtof
  6918     0216  084E               	movf	??_strtof,w
  6919     0217  0086               	movwf	6
  6920     0218  3001               	movlw	1	; select bank2/3
  6921     0219  0087               	movwf	7
  6922     021A  3030               	movlw	48
  6923     021B  0601               	xorwf	1,w
  6924     021C  1903               	btfsc	3,2
  6925     021D  2A1F               	goto	u5581
  6926     021E  2A20               	goto	u5580
  6927     021F                     u5581:
  6928     021F  2A0F               	goto	l3729
  6929     0220                     u5580:
  6930     0220                     l3735:
  6931     0220  0864               	movf	strtof@i,w
  6932     0221  0765               	addwf	strtof@s,w
  6933     0222  00CE               	movwf	??_strtof
  6934     0223  084E               	movf	??_strtof,w
  6935     0224  0086               	movwf	6
  6936     0225  3001               	movlw	1	; select bank2/3
  6937     0226  0087               	movwf	7
  6938     0227  3070               	movlw	112
  6939     0228  0601               	xorwf	1,w
  6940     0229  1903               	btfsc	3,2
  6941     022A  2A2C               	goto	u5591
  6942     022B  2A2D               	goto	u5590
  6943     022C                     u5591:
  6944     022C  2B98               	goto	l3801
  6945     022D                     u5590:
  6946     022D                     l3737:
  6947     022D  0864               	movf	strtof@i,w
  6948     022E  0765               	addwf	strtof@s,w
  6949     022F  00CE               	movwf	??_strtof
  6950     0230  084E               	movf	??_strtof,w
  6951     0231  0086               	movwf	6
  6952     0232  3001               	movlw	1	; select bank2/3
  6953     0233  0087               	movwf	7
  6954     0234  3050               	movlw	80
  6955     0235  0601               	xorwf	1,w
  6956     0236  1D03               	btfss	3,2
  6957     0237  2A39               	goto	u5601
  6958     0238  2A3A               	goto	u5600
  6959     0239                     u5601:
  6960     0239  2A3B               	goto	l3741
  6961     023A                     u5600:
  6962     023A  2B98               	goto	l3801
  6963     023B                     l3741:
  6964     023B  0864               	movf	strtof@i,w
  6965     023C  0765               	addwf	strtof@s,w
  6966     023D  00CE               	movwf	??_strtof
  6967     023E  084E               	movf	??_strtof,w
  6968     023F  0086               	movwf	6
  6969     0240  3001               	movlw	1	; select bank2/3
  6970     0241  0087               	movwf	7
  6971     0242  302E               	movlw	46
  6972     0243  0601               	xorwf	1,w
  6973     0244  1D03               	btfss	3,2
  6974     0245  2A47               	goto	u5611
  6975     0246  2A48               	goto	u5610
  6976     0247                     u5611:
  6977     0247  2A50               	goto	l3751
  6978     0248                     u5610:
  6979     0248                     l3743:
  6980     0248  165B               	bsf	strtof@flags,4
  6981     0249                     l3745:
  6982     0249  0864               	movf	strtof@i,w
  6983     024A  00D9               	movwf	strtof@dpos
  6984     024B                     l3747:
  6985     024B  3001               	movlw	1
  6986     024C  00CE               	movwf	??_strtof
  6987     024D  084E               	movf	??_strtof,w
  6988     024E  07E4               	addwf	strtof@i,f
  6989     024F  2B98               	goto	l3801
  6990     0250                     l3751:
  6991     0250  0864               	movf	strtof@i,w
  6992     0251  0765               	addwf	strtof@s,w
  6993     0252  00CE               	movwf	??_strtof
  6994     0253  084E               	movf	??_strtof,w
  6995     0254  0086               	movwf	6
  6996     0255  3001               	movlw	1	; select bank2/3
  6997     0256  0087               	movwf	7
  6998     0257  0801               	movf	1,w
  6999     0258  00CF               	movwf	??_strtof+1
  7000     0259  01D0               	clrf	??_strtof+2
  7001     025A  084F               	movf	??_strtof+1,w
  7002     025B  00F0               	movwf	isxdigit@c
  7003     025C  0850               	movf	??_strtof+2,w
  7004     025D  00F1               	movwf	isxdigit@c+1
  7005     025E  319F  270C  3180   	fcall	_isxdigit
  7006     0261  0870               	movf	?_isxdigit,w
  7007     0262  0471               	iorwf	?_isxdigit+1,w
  7008     0263  1903               	btfsc	3,2
  7009     0264  2A66               	goto	u5621
  7010     0265  2A67               	goto	u5620
  7011     0266                     u5621:
  7012     0266  2C69               	goto	l849
  7013     0267                     u5620:
  7014     0267                     l3753:
  7015     0267  0020               	movlb	0	; select bank0
  7016     0268  01DA               	clrf	strtof@digit
  7017     0269                     l3755:
  7018     0269  0864               	movf	strtof@i,w
  7019     026A  0765               	addwf	strtof@s,w
  7020     026B  00CE               	movwf	??_strtof
  7021     026C  084E               	movf	??_strtof,w
  7022     026D  0086               	movwf	6
  7023     026E  3001               	movlw	1	; select bank2/3
  7024     026F  0087               	movwf	7
  7025     0270  0801               	movf	1,w
  7026     0271  00CF               	movwf	??_strtof+1
  7027     0272  01D0               	clrf	??_strtof+2
  7028     0273  084F               	movf	??_strtof+1,w
  7029     0274  00F0               	movwf	isdigit@c
  7030     0275  0850               	movf	??_strtof+2,w
  7031     0276  00F1               	movwf	isdigit@c+1
  7032     0277  319E  2651  3180   	fcall	_isdigit
  7033     027A  0870               	movf	?_isdigit,w
  7034     027B  0471               	iorwf	?_isdigit+1,w
  7035     027C  1903               	btfsc	3,2
  7036     027D  2A7F               	goto	u5631
  7037     027E  2A80               	goto	u5630
  7038     027F                     u5631:
  7039     027F  2A8C               	goto	l3759
  7040     0280                     u5630:
  7041     0280                     l3757:
  7042     0280  0020               	movlb	0	; select bank0
  7043     0281  0864               	movf	strtof@i,w
  7044     0282  0765               	addwf	strtof@s,w
  7045     0283  00CE               	movwf	??_strtof
  7046     0284  084E               	movf	??_strtof,w
  7047     0285  0086               	movwf	6
  7048     0286  3001               	movlw	1	; select bank2/3
  7049     0287  0087               	movwf	7
  7050     0288  0801               	movf	1,w
  7051     0289  3ED0               	addlw	208
  7052     028A  00DA               	movwf	strtof@digit
  7053     028B  2AA2               	goto	l3761
  7054     028C                     l3759:
  7055     028C  0020               	movlb	0	; select bank0
  7056     028D  0864               	movf	strtof@i,w
  7057     028E  0765               	addwf	strtof@s,w
  7058     028F  00CE               	movwf	??_strtof
  7059     0290  084E               	movf	??_strtof,w
  7060     0291  0086               	movwf	6
  7061     0292  3001               	movlw	1	; select bank2/3
  7062     0293  0087               	movwf	7
  7063     0294  0801               	movf	1,w
  7064     0295  00CF               	movwf	??_strtof+1
  7065     0296  01D0               	clrf	??_strtof+2
  7066     0297  084F               	movf	??_strtof+1,w
  7067     0298  00F0               	movwf	toupper@c
  7068     0299  0850               	movf	??_strtof+2,w
  7069     029A  00F1               	movwf	toupper@c+1
  7070     029B  319E  2628  3180   	fcall	_toupper
  7071     029E  0870               	movf	?_toupper,w
  7072     029F  3EC9               	addlw	201
  7073     02A0  0020               	movlb	0	; select bank0
  7074     02A1  00DA               	movwf	strtof@digit
  7075     02A2                     l3761:
  7076     02A2  085F               	movf	strtof@eexp+1,w
  7077     02A3  3A80               	xorlw	128
  7078     02A4  00CE               	movwf	??_strtof
  7079     02A5  3080               	movlw	128
  7080     02A6  024E               	subwf	??_strtof,w
  7081     02A7  1D03               	skipz
  7082     02A8  2AAB               	goto	u5645
  7083     02A9  3008               	movlw	8
  7084     02AA  025E               	subwf	strtof@eexp,w
  7085     02AB                     u5645:
  7086     02AB  1803               	skipnc
  7087     02AC  2AAE               	goto	u5641
  7088     02AD  2AAF               	goto	u5640
  7089     02AE                     u5641:
  7090     02AE  2ACE               	goto	l3765
  7091     02AF                     u5640:
  7092     02AF                     l3763:
  7093     02AF  0020               	movlb	0	; select bank0
  7094     02B0  085A               	movf	strtof@digit,w
  7095     02B1  00CE               	movwf	??_strtof
  7096     02B2  01CF               	clrf	??_strtof+1
  7097     02B3  01D0               	clrf	??_strtof+2
  7098     02B4  01D1               	clrf	??_strtof+3
  7099     02B5  085E               	movf	strtof@eexp,w
  7100     02B6  3C07               	sublw	7
  7101     02B7  00D2               	movwf	??_strtof+4
  7102     02B8  3001               	movlw	1
  7103     02B9                     u5655:
  7104     02B9  35D2               	lslf	??_strtof+4,f
  7105     02BA  3EFF               	addlw	-1
  7106     02BB  1D03               	skipz
  7107     02BC  2AB9               	goto	u5655
  7108     02BD  3552               	lslf	??_strtof+4,w
  7109     02BE  0A89               	incf	9,f
  7110     02BF  2AC4               	goto	u5660
  7111     02C0                     u5665:
  7112     02C0  35CE               	lslf	??_strtof,f
  7113     02C1  0DCF               	rlf	??_strtof+1,f
  7114     02C2  0DD0               	rlf	??_strtof+2,f
  7115     02C3  0DD1               	rlf	??_strtof+3,f
  7116     02C4                     u5660:
  7117     02C4  0B89               	decfsz	9,f
  7118     02C5  2AC0               	goto	u5665
  7119     02C6  084E               	movf	??_strtof,w
  7120     02C7  04E0               	iorwf	strtof@_u,f
  7121     02C8  084F               	movf	??_strtof+1,w
  7122     02C9  04E1               	iorwf	strtof@_u+1,f
  7123     02CA  0850               	movf	??_strtof+2,w
  7124     02CB  04E2               	iorwf	strtof@_u+2,f
  7125     02CC  0851               	movf	??_strtof+3,w
  7126     02CD  04E3               	iorwf	strtof@_u+3,f
  7127     02CE                     l3765:
  7128     02CE  3001               	movlw	1
  7129     02CF  0020               	movlb	0	; select bank0
  7130     02D0  07DE               	addwf	strtof@eexp,f
  7131     02D1  3000               	movlw	0
  7132     02D2  3DDF               	addwfc	strtof@eexp+1,f
  7133     02D3                     l3767:
  7134     02D3  3004               	movlw	4
  7135     02D4  07DC               	addwf	strtof@expon,f
  7136     02D5  3000               	movlw	0
  7137     02D6  3DDD               	addwfc	strtof@expon+1,f
  7138     02D7                     l3769:
  7139     02D7  3001               	movlw	1
  7140     02D8  00CE               	movwf	??_strtof
  7141     02D9  084E               	movf	??_strtof,w
  7142     02DA  07E4               	addwf	strtof@i,f
  7143     02DB  2A20               	goto	l3735
  7144     02DC                     l3771:
  7145     02DC  0864               	movf	strtof@i,w
  7146     02DD  0765               	addwf	strtof@s,w
  7147     02DE  00CE               	movwf	??_strtof
  7148     02DF  084E               	movf	??_strtof,w
  7149     02E0  0086               	movwf	6
  7150     02E1  3001               	movlw	1	; select bank2/3
  7151     02E2  0087               	movwf	7
  7152     02E3  3030               	movlw	48
  7153     02E4  0601               	xorwf	1,w
  7154     02E5  1D03               	btfss	3,2
  7155     02E6  2AE8               	goto	u5671
  7156     02E7  2AE9               	goto	u5670
  7157     02E8                     u5671:
  7158     02E8  2AF4               	goto	l3777
  7159     02E9                     u5670:
  7160     02E9                     l3773:
  7161     02E9  085E               	movf	strtof@eexp,w
  7162     02EA  045F               	iorwf	strtof@eexp+1,w
  7163     02EB  1D03               	btfss	3,2
  7164     02EC  2AEE               	goto	u5681
  7165     02ED  2AEF               	goto	u5680
  7166     02EE                     u5681:
  7167     02EE  2AF4               	goto	l3777
  7168     02EF                     u5680:
  7169     02EF                     l3775:
  7170     02EF  30FC               	movlw	252
  7171     02F0  07DC               	addwf	strtof@expon,f
  7172     02F1  30FF               	movlw	255
  7173     02F2  3DDD               	addwfc	strtof@expon+1,f
  7174     02F3  2A4B               	goto	l3747
  7175     02F4                     l3777:
  7176     02F4  0864               	movf	strtof@i,w
  7177     02F5  0765               	addwf	strtof@s,w
  7178     02F6  00CE               	movwf	??_strtof
  7179     02F7  084E               	movf	??_strtof,w
  7180     02F8  0086               	movwf	6
  7181     02F9  3001               	movlw	1	; select bank2/3
  7182     02FA  0087               	movwf	7
  7183     02FB  0801               	movf	1,w
  7184     02FC  00CF               	movwf	??_strtof+1
  7185     02FD  01D0               	clrf	??_strtof+2
  7186     02FE  084F               	movf	??_strtof+1,w
  7187     02FF  00F0               	movwf	isxdigit@c
  7188     0300  0850               	movf	??_strtof+2,w
  7189     0301  00F1               	movwf	isxdigit@c+1
  7190     0302  319F  270C  3180   	fcall	_isxdigit
  7191     0305  0870               	movf	?_isxdigit,w
  7192     0306  0471               	iorwf	?_isxdigit+1,w
  7193     0307  1903               	btfsc	3,2
  7194     0308  2B0A               	goto	u5691
  7195     0309  2B0B               	goto	u5690
  7196     030A                     u5691:
  7197     030A  2B78               	goto	l3793
  7198     030B                     u5690:
  7199     030B                     l3779:
  7200     030B  0020               	movlb	0	; select bank0
  7201     030C  01DA               	clrf	strtof@digit
  7202     030D                     l3781:
  7203     030D  0864               	movf	strtof@i,w
  7204     030E  0765               	addwf	strtof@s,w
  7205     030F  00CE               	movwf	??_strtof
  7206     0310  084E               	movf	??_strtof,w
  7207     0311  0086               	movwf	6
  7208     0312  3001               	movlw	1	; select bank2/3
  7209     0313  0087               	movwf	7
  7210     0314  0801               	movf	1,w
  7211     0315  00CF               	movwf	??_strtof+1
  7212     0316  01D0               	clrf	??_strtof+2
  7213     0317  084F               	movf	??_strtof+1,w
  7214     0318  00F0               	movwf	isdigit@c
  7215     0319  0850               	movf	??_strtof+2,w
  7216     031A  00F1               	movwf	isdigit@c+1
  7217     031B  319E  2651  3180   	fcall	_isdigit
  7218     031E  0870               	movf	?_isdigit,w
  7219     031F  0471               	iorwf	?_isdigit+1,w
  7220     0320  1903               	btfsc	3,2
  7221     0321  2B23               	goto	u5701
  7222     0322  2B24               	goto	u5700
  7223     0323                     u5701:
  7224     0323  2B30               	goto	l3785
  7225     0324                     u5700:
  7226     0324                     l3783:
  7227     0324  0020               	movlb	0	; select bank0
  7228     0325  0864               	movf	strtof@i,w
  7229     0326  0765               	addwf	strtof@s,w
  7230     0327  00CE               	movwf	??_strtof
  7231     0328  084E               	movf	??_strtof,w
  7232     0329  0086               	movwf	6
  7233     032A  3001               	movlw	1	; select bank2/3
  7234     032B  0087               	movwf	7
  7235     032C  0801               	movf	1,w
  7236     032D  3ED0               	addlw	208
  7237     032E  00DA               	movwf	strtof@digit
  7238     032F  2B46               	goto	l3787
  7239     0330                     l3785:
  7240     0330  0020               	movlb	0	; select bank0
  7241     0331  0864               	movf	strtof@i,w
  7242     0332  0765               	addwf	strtof@s,w
  7243     0333  00CE               	movwf	??_strtof
  7244     0334  084E               	movf	??_strtof,w
  7245     0335  0086               	movwf	6
  7246     0336  3001               	movlw	1	; select bank2/3
  7247     0337  0087               	movwf	7
  7248     0338  0801               	movf	1,w
  7249     0339  00CF               	movwf	??_strtof+1
  7250     033A  01D0               	clrf	??_strtof+2
  7251     033B  084F               	movf	??_strtof+1,w
  7252     033C  00F0               	movwf	toupper@c
  7253     033D  0850               	movf	??_strtof+2,w
  7254     033E  00F1               	movwf	toupper@c+1
  7255     033F  319E  2628  3180   	fcall	_toupper
  7256     0342  0870               	movf	?_toupper,w
  7257     0343  3EC9               	addlw	201
  7258     0344  0020               	movlb	0	; select bank0
  7259     0345  00DA               	movwf	strtof@digit
  7260     0346                     l3787:
  7261     0346  085F               	movf	strtof@eexp+1,w
  7262     0347  3A80               	xorlw	128
  7263     0348  00CE               	movwf	??_strtof
  7264     0349  3080               	movlw	128
  7265     034A  024E               	subwf	??_strtof,w
  7266     034B  1D03               	skipz
  7267     034C  2B4F               	goto	u5715
  7268     034D  3008               	movlw	8
  7269     034E  025E               	subwf	strtof@eexp,w
  7270     034F                     u5715:
  7271     034F  1803               	skipnc
  7272     0350  2B52               	goto	u5711
  7273     0351  2B53               	goto	u5710
  7274     0352                     u5711:
  7275     0352  2B72               	goto	l3791
  7276     0353                     u5710:
  7277     0353                     l3789:
  7278     0353  0020               	movlb	0	; select bank0
  7279     0354  085A               	movf	strtof@digit,w
  7280     0355  00CE               	movwf	??_strtof
  7281     0356  01CF               	clrf	??_strtof+1
  7282     0357  01D0               	clrf	??_strtof+2
  7283     0358  01D1               	clrf	??_strtof+3
  7284     0359  085E               	movf	strtof@eexp,w
  7285     035A  3C07               	sublw	7
  7286     035B  00D2               	movwf	??_strtof+4
  7287     035C  3001               	movlw	1
  7288     035D                     u5725:
  7289     035D  35D2               	lslf	??_strtof+4,f
  7290     035E  3EFF               	addlw	-1
  7291     035F  1D03               	skipz
  7292     0360  2B5D               	goto	u5725
  7293     0361  3552               	lslf	??_strtof+4,w
  7294     0362  0A89               	incf	9,f
  7295     0363  2B68               	goto	u5730
  7296     0364                     u5735:
  7297     0364  35CE               	lslf	??_strtof,f
  7298     0365  0DCF               	rlf	??_strtof+1,f
  7299     0366  0DD0               	rlf	??_strtof+2,f
  7300     0367  0DD1               	rlf	??_strtof+3,f
  7301     0368                     u5730:
  7302     0368  0B89               	decfsz	9,f
  7303     0369  2B64               	goto	u5735
  7304     036A  084E               	movf	??_strtof,w
  7305     036B  04E0               	iorwf	strtof@_u,f
  7306     036C  084F               	movf	??_strtof+1,w
  7307     036D  04E1               	iorwf	strtof@_u+1,f
  7308     036E  0850               	movf	??_strtof+2,w
  7309     036F  04E2               	iorwf	strtof@_u+2,f
  7310     0370  0851               	movf	??_strtof+3,w
  7311     0371  04E3               	iorwf	strtof@_u+3,f
  7312     0372                     l3791:
  7313     0372  3001               	movlw	1
  7314     0373  0020               	movlb	0	; select bank0
  7315     0374  07DE               	addwf	strtof@eexp,f
  7316     0375  3000               	movlw	0
  7317     0376  3DDF               	addwfc	strtof@eexp+1,f
  7318     0377  2A4B               	goto	l3747
  7319     0378                     l3793:
  7320     0378  0020               	movlb	0	; select bank0
  7321     0379  0859               	movf	strtof@dpos,w
  7322     037A  3E01               	addlw	1
  7323     037B  00CE               	movwf	??_strtof
  7324     037C  3000               	movlw	0
  7325     037D  1803               	skipnc
  7326     037E  3001               	movlw	1
  7327     037F  00CF               	movwf	??_strtof+1
  7328     0380  0864               	movf	strtof@i,w
  7329     0381  064E               	xorwf	??_strtof,w
  7330     0382  044F               	iorwf	??_strtof+1,w
  7331     0383  1D03               	skipz
  7332     0384  2B86               	goto	u5741
  7333     0385  2B87               	goto	u5740
  7334     0386                     u5741:
  7335     0386  2B9C               	goto	l3803
  7336     0387                     u5740:
  7337     0387                     l3795:
  7338     0387  0858               	movf	strtof@xpos,w
  7339     0388  3E01               	addlw	1
  7340     0389  00CE               	movwf	??_strtof
  7341     038A  3000               	movlw	0
  7342     038B  1803               	skipnc
  7343     038C  3001               	movlw	1
  7344     038D  00CF               	movwf	??_strtof+1
  7345     038E  0859               	movf	strtof@dpos,w
  7346     038F  064E               	xorwf	??_strtof,w
  7347     0390  044F               	iorwf	??_strtof+1,w
  7348     0391  1D03               	skipz
  7349     0392  2B94               	goto	u5751
  7350     0393  2B95               	goto	u5750
  7351     0394                     u5751:
  7352     0394  2B9C               	goto	l3803
  7353     0395                     u5750:
  7354     0395                     l3797:
  7355     0395  0858               	movf	strtof@xpos,w
  7356     0396  00E4               	movwf	strtof@i
  7357     0397  2C69               	goto	l849
  7358     0398                     l3801:
  7359     0398  1A5B               	btfsc	strtof@flags,4
  7360     0399  2B9B               	goto	u5761
  7361     039A  2B9C               	goto	u5760
  7362     039B                     u5761:
  7363     039B  2ADC               	goto	l3771
  7364     039C                     u5760:
  7365     039C                     l3803:
  7366     039C  0864               	movf	strtof@i,w
  7367     039D  00CE               	movwf	??_strtof
  7368     039E  084E               	movf	??_strtof,w
  7369     039F  07E5               	addwf	strtof@s,f
  7370     03A0                     l3805:
  7371     03A0  01E4               	clrf	strtof@i
  7372     03A1                     l3807:
  7373     03A1  0865               	movf	strtof@s,w
  7374     03A2  0086               	movwf	6
  7375     03A3  3001               	movlw	1	; select bank2/3
  7376     03A4  0087               	movwf	7
  7377     03A5  3070               	movlw	112
  7378     03A6  0601               	xorwf	1,w
  7379     03A7  1903               	btfsc	3,2
  7380     03A8  2BAA               	goto	u5771
  7381     03A9  2BAB               	goto	u5770
  7382     03AA                     u5771:
  7383     03AA  2BB6               	goto	l3813
  7384     03AB                     u5770:
  7385     03AB                     l3809:
  7386     03AB  0865               	movf	strtof@s,w
  7387     03AC  0086               	movwf	6
  7388     03AD  3001               	movlw	1	; select bank2/3
  7389     03AE  0087               	movwf	7
  7390     03AF  3050               	movlw	80
  7391     03B0  0601               	xorwf	1,w
  7392     03B1  1903               	btfsc	3,2
  7393     03B2  2BB4               	goto	u5781
  7394     03B3  2BB5               	goto	u5780
  7395     03B4                     u5781:
  7396     03B4  2BB6               	goto	l3813
  7397     03B5                     u5780:
  7398     03B5  2C69               	goto	l849
  7399     03B6                     l3813:
  7400     03B6  3001               	movlw	1
  7401     03B7  00CE               	movwf	??_strtof
  7402     03B8  084E               	movf	??_strtof,w
  7403     03B9  07E4               	addwf	strtof@i,f
  7404     03BA                     l3815:
  7405     03BA  0A65               	incf	strtof@s,w
  7406     03BB  0086               	movwf	6
  7407     03BC  3001               	movlw	1	; select bank2/3
  7408     03BD  0087               	movwf	7
  7409     03BE  302B               	movlw	43
  7410     03BF  0601               	xorwf	1,w
  7411     03C0  1D03               	btfss	3,2
  7412     03C1  2BC3               	goto	u5791
  7413     03C2  2BC4               	goto	u5790
  7414     03C3                     u5791:
  7415     03C3  2BC9               	goto	l3819
  7416     03C4                     u5790:
  7417     03C4                     l3817:
  7418     03C4  3001               	movlw	1
  7419     03C5  00CE               	movwf	??_strtof
  7420     03C6  084E               	movf	??_strtof,w
  7421     03C7  07E4               	addwf	strtof@i,f
  7422     03C8  2BD5               	goto	l3825
  7423     03C9                     l3819:
  7424     03C9  0A65               	incf	strtof@s,w
  7425     03CA  0086               	movwf	6
  7426     03CB  3001               	movlw	1	; select bank2/3
  7427     03CC  0087               	movwf	7
  7428     03CD  302D               	movlw	45
  7429     03CE  0601               	xorwf	1,w
  7430     03CF  1D03               	btfss	3,2
  7431     03D0  2BD2               	goto	u5801
  7432     03D1  2BD3               	goto	u5800
  7433     03D2                     u5801:
  7434     03D2  2BD5               	goto	l3825
  7435     03D3                     u5800:
  7436     03D3                     l3821:
  7437     03D3  15DB               	bsf	strtof@flags,3
  7438     03D4  2BC4               	goto	l3817
  7439     03D5                     l3825:
  7440     03D5  0864               	movf	strtof@i,w
  7441     03D6  0765               	addwf	strtof@s,w
  7442     03D7  00CE               	movwf	??_strtof
  7443     03D8  084E               	movf	??_strtof,w
  7444     03D9  0086               	movwf	6
  7445     03DA  3001               	movlw	1	; select bank2/3
  7446     03DB  0087               	movwf	7
  7447     03DC  0801               	movf	1,w
  7448     03DD  00CF               	movwf	??_strtof+1
  7449     03DE  01D0               	clrf	??_strtof+2
  7450     03DF  084F               	movf	??_strtof+1,w
  7451     03E0  00F0               	movwf	isdigit@c
  7452     03E1  0850               	movf	??_strtof+2,w
  7453     03E2  00F1               	movwf	isdigit@c+1
  7454     03E3  319E  2651  3180   	fcall	_isdigit
  7455     03E6  0870               	movf	?_isdigit,w
  7456     03E7  0471               	iorwf	?_isdigit+1,w
  7457     03E8  1D03               	btfss	3,2
  7458     03E9  2BEB               	goto	u5811
  7459     03EA  2BEC               	goto	u5810
  7460     03EB                     u5811:
  7461     03EB  2BEF               	goto	l3829
  7462     03EC                     u5810:
  7463     03EC                     l3827:
  7464     03EC  0020               	movlb	0	; select bank0
  7465     03ED  01E4               	clrf	strtof@i
  7466     03EE  2C69               	goto	l849
  7467     03EF                     l3829:
  7468     03EF  0020               	movlb	0	; select bank0
  7469     03F0  0864               	movf	strtof@i,w
  7470     03F1  00CE               	movwf	??_strtof
  7471     03F2  084E               	movf	??_strtof,w
  7472     03F3  07E5               	addwf	strtof@s,f
  7473     03F4                     l3831:
  7474     03F4  01E4               	clrf	strtof@i
  7475     03F5  2BFA               	goto	l3835
  7476     03F6                     l3833:
  7477     03F6  3001               	movlw	1
  7478     03F7  00CE               	movwf	??_strtof
  7479     03F8  084E               	movf	??_strtof,w
  7480     03F9  07E4               	addwf	strtof@i,f
  7481     03FA                     l3835:
  7482     03FA  0864               	movf	strtof@i,w
  7483     03FB  0765               	addwf	strtof@s,w
  7484     03FC  00CE               	movwf	??_strtof
  7485     03FD  084E               	movf	??_strtof,w
  7486     03FE  0086               	movwf	6
  7487     03FF  3001               	movlw	1	; select bank2/3
  7488     0400  0087               	movwf	7
  7489     0401  3030               	movlw	48
  7490     0402  0601               	xorwf	1,w
  7491     0403  1903               	btfsc	3,2
  7492     0404  2C06               	goto	u5821
  7493     0405  2C07               	goto	u5820
  7494     0406                     u5821:
  7495     0406  2BF6               	goto	l3833
  7496     0407                     u5820:
  7497     0407                     l3837:
  7498     0407  01DE               	clrf	strtof@eexp
  7499     0408  01DF               	clrf	strtof@eexp+1
  7500     0409  2C36               	goto	l888
  7501     040A                     l3839:
  7502     040A  0020               	movlb	0	; select bank0
  7503     040B  0864               	movf	strtof@i,w
  7504     040C  1903               	btfsc	3,2
  7505     040D  2C0F               	goto	u5831
  7506     040E  2C10               	goto	u5830
  7507     040F                     u5831:
  7508     040F  2C20               	goto	l3843
  7509     0410                     u5830:
  7510     0410                     l3841:
  7511     0410  300A               	movlw	10
  7512     0411  00F0               	movwf	___wmul@multiplier
  7513     0412  3000               	movlw	0
  7514     0413  00F1               	movwf	___wmul@multiplier+1
  7515     0414  085F               	movf	strtof@eexp+1,w
  7516     0415  00F3               	movwf	___wmul@multiplicand+1
  7517     0416  085E               	movf	strtof@eexp,w
  7518     0417  00F2               	movwf	___wmul@multiplicand
  7519     0418  319E  2686  3180   	fcall	___wmul
  7520     041B  0871               	movf	?___wmul+1,w
  7521     041C  0020               	movlb	0	; select bank0
  7522     041D  00DF               	movwf	strtof@eexp+1
  7523     041E  0870               	movf	?___wmul,w
  7524     041F  00DE               	movwf	strtof@eexp
  7525     0420                     l3843:
  7526     0420  0864               	movf	strtof@i,w
  7527     0421  0765               	addwf	strtof@s,w
  7528     0422  00CE               	movwf	??_strtof
  7529     0423  084E               	movf	??_strtof,w
  7530     0424  0086               	movwf	6
  7531     0425  3001               	movlw	1	; select bank2/3
  7532     0426  0087               	movwf	7
  7533     0427  0801               	movf	1,w
  7534     0428  3ED0               	addlw	208
  7535     0429  00CF               	movwf	??_strtof+1
  7536     042A  30FF               	movlw	255
  7537     042B  1803               	skipnc
  7538     042C  3000               	movlw	0
  7539     042D  00D0               	movwf	??_strtof+2
  7540     042E  084F               	movf	??_strtof+1,w
  7541     042F  07DE               	addwf	strtof@eexp,f
  7542     0430  0850               	movf	??_strtof+2,w
  7543     0431  3DDF               	addwfc	strtof@eexp+1,f
  7544     0432                     l3845:
  7545     0432  3001               	movlw	1
  7546     0433  00CE               	movwf	??_strtof
  7547     0434  084E               	movf	??_strtof,w
  7548     0435  07E4               	addwf	strtof@i,f
  7549     0436                     l888:
  7550     0436  0864               	movf	strtof@i,w
  7551     0437  0765               	addwf	strtof@s,w
  7552     0438  00CE               	movwf	??_strtof
  7553     0439  084E               	movf	??_strtof,w
  7554     043A  0086               	movwf	6
  7555     043B  3001               	movlw	1	; select bank2/3
  7556     043C  0087               	movwf	7
  7557     043D  0801               	movf	1,w
  7558     043E  00CF               	movwf	??_strtof+1
  7559     043F  01D0               	clrf	??_strtof+2
  7560     0440  084F               	movf	??_strtof+1,w
  7561     0441  00F0               	movwf	isdigit@c
  7562     0442  0850               	movf	??_strtof+2,w
  7563     0443  00F1               	movwf	isdigit@c+1
  7564     0444  319E  2651  3180   	fcall	_isdigit
  7565     0447  0870               	movf	?_isdigit,w
  7566     0448  0471               	iorwf	?_isdigit+1,w
  7567     0449  1D03               	btfss	3,2
  7568     044A  2C4C               	goto	u5841
  7569     044B  2C4D               	goto	u5840
  7570     044C                     u5841:
  7571     044C  2C0A               	goto	l3839
  7572     044D                     u5840:
  7573     044D                     l3847:
  7574     044D  0020               	movlb	0	; select bank0
  7575     044E  0864               	movf	strtof@i,w
  7576     044F  1D03               	btfss	3,2
  7577     0450  2C52               	goto	u5851
  7578     0451  2C53               	goto	u5850
  7579     0452                     u5851:
  7580     0452  2C5C               	goto	l892
  7581     0453                     u5850:
  7582     0453                     l3849:
  7583     0453  3000               	movlw	0
  7584     0454  00CD               	movwf	?_strtof+3
  7585     0455  3000               	movlw	0
  7586     0456  00CC               	movwf	?_strtof+2
  7587     0457  3000               	movlw	0
  7588     0458  00CB               	movwf	?_strtof+1
  7589     0459  3000               	movlw	0
  7590     045A  00CA               	movwf	?_strtof
  7591     045B  2FD5               	goto	l893
  7592     045C                     l892:
  7593     045C  1DDB               	btfss	strtof@flags,3
  7594     045D  2C5F               	goto	u5861
  7595     045E  2C60               	goto	u5860
  7596     045F                     u5861:
  7597     045F  2C65               	goto	l3855
  7598     0460                     u5860:
  7599     0460                     l3853:
  7600     0460  09DE               	comf	strtof@eexp,f
  7601     0461  09DF               	comf	strtof@eexp+1,f
  7602     0462  0ADE               	incf	strtof@eexp,f
  7603     0463  1903               	skipnz
  7604     0464  0ADF               	incf	strtof@eexp+1,f
  7605     0465                     l3855:
  7606     0465  085E               	movf	strtof@eexp,w
  7607     0466  07DC               	addwf	strtof@expon,f
  7608     0467  085F               	movf	strtof@eexp+1,w
  7609     0468  3DDD               	addwfc	strtof@expon+1,f
  7610     0469                     l849:
  7611     0469  0020               	movlb	0	; select bank0
  7612     046A  084A               	movf	strtof@res,w
  7613     046B  044B               	iorwf	strtof@res+1,w
  7614     046C  1903               	btfsc	3,2
  7615     046D  2C6F               	goto	u5871
  7616     046E  2C70               	goto	u5870
  7617     046F                     u5871:
  7618     046F  2C79               	goto	l3859
  7619     0470                     u5870:
  7620     0470                     l3857:
  7621     0470  0865               	movf	strtof@s,w
  7622     0471  0764               	addwf	strtof@i,w
  7623     0472  00CE               	movwf	??_strtof
  7624     0473  084A               	movf	strtof@res,w
  7625     0474  0086               	movwf	6
  7626     0475  084B               	movf	strtof@res+1,w
  7627     0476  0087               	movwf	7
  7628     0477  084E               	movf	??_strtof,w
  7629     0478  0081               	movwf	1
  7630     0479                     l3859:
  7631     0479  0863               	movf	strtof@_u+3,w
  7632     047A  0462               	iorwf	strtof@_u+2,w
  7633     047B  0461               	iorwf	strtof@_u+1,w
  7634     047C  0460               	iorwf	strtof@_u,w
  7635     047D  1D03               	skipz
  7636     047E  2C80               	goto	u5881
  7637     047F  2C81               	goto	u5880
  7638     0480                     u5881:
  7639     0480  2C8A               	goto	l3865
  7640     0481                     u5880:
  7641     0481                     l3861:
  7642     0481  3000               	movlw	0
  7643     0482  00CD               	movwf	?_strtof+3
  7644     0483  3000               	movlw	0
  7645     0484  00CC               	movwf	?_strtof+2
  7646     0485  3000               	movlw	0
  7647     0486  00CB               	movwf	?_strtof+1
  7648     0487  3000               	movlw	0
  7649     0488  00CA               	movwf	?_strtof
  7650     0489  2FD5               	goto	l893
  7651     048A                     l3865:
  7652     048A  30FF               	movlw	255
  7653     048B  0560               	andwf	strtof@_u,w
  7654     048C  00CE               	movwf	??_strtof
  7655     048D  3000               	movlw	0
  7656     048E  0561               	andwf	strtof@_u+1,w
  7657     048F  00CF               	movwf	??_strtof+1
  7658     0490  3000               	movlw	0
  7659     0491  0562               	andwf	strtof@_u+2,w
  7660     0492  00D0               	movwf	??_strtof+2
  7661     0493  3000               	movlw	0
  7662     0494  0563               	andwf	strtof@_u+3,w
  7663     0495  00D1               	movwf	??_strtof+3
  7664     0496  0851               	movf	??_strtof+3,w
  7665     0497  1D03               	btfss	3,2
  7666     0498  2CA5               	goto	u5890
  7667     0499  0850               	movf	??_strtof+2,w
  7668     049A  1D03               	btfss	3,2
  7669     049B  2CA5               	goto	u5890
  7670     049C  084F               	movf	??_strtof+1,w
  7671     049D  1D03               	btfss	3,2
  7672     049E  2CA5               	goto	u5890
  7673     049F  3081               	movlw	129
  7674     04A0  024E               	subwf	??_strtof,w
  7675     04A1  1C03               	btfss	3,0
  7676     04A2  2CA4               	goto	u5891
  7677     04A3  2CA5               	goto	u5890
  7678     04A4                     u5891:
  7679     04A4  2CBA               	goto	l3873
  7680     04A5                     u5890:
  7681     04A5                     l3867:
  7682     04A5  3000               	movlw	0
  7683     04A6  0020               	movlb	0	; select bank0
  7684     04A7  07E0               	addwf	strtof@_u,f
  7685     04A8  3001               	movlw	1
  7686     04A9  3DE1               	addwfc	strtof@_u+1,f
  7687     04AA  3000               	movlw	0
  7688     04AB  3DE2               	addwfc	strtof@_u+2,f
  7689     04AC  3000               	movlw	0
  7690     04AD  3DE3               	addwfc	strtof@_u+3,f
  7691     04AE  2CBA               	goto	l3873
  7692     04AF                     l3869:
  7693     04AF  3001               	movlw	1
  7694     04B0                     u5905:
  7695     04B0  35E0               	lslf	strtof@_u,f
  7696     04B1  0DE1               	rlf	strtof@_u+1,f
  7697     04B2  0DE2               	rlf	strtof@_u+2,f
  7698     04B3  0DE3               	rlf	strtof@_u+3,f
  7699     04B4  0B89               	decfsz	9,f
  7700     04B5  2CB0               	goto	u5905
  7701     04B6                     l3871:
  7702     04B6  30FF               	movlw	255
  7703     04B7  07DC               	addwf	strtof@expon,f
  7704     04B8  30FF               	movlw	255
  7705     04B9  3DDD               	addwfc	strtof@expon+1,f
  7706     04BA                     l3873:
  7707     04BA  0020               	movlb	0	; select bank0
  7708     04BB  1FE3               	btfss	strtof@_u+3,7
  7709     04BC  2CBE               	goto	u5911
  7710     04BD  2CBF               	goto	u5910
  7711     04BE                     u5911:
  7712     04BE  2CAF               	goto	l3869
  7713     04BF                     u5910:
  7714     04BF                     l3875:
  7715     04BF  085D               	movf	strtof@expon+1,w
  7716     04C0  3A80               	xorlw	128
  7717     04C1  00CE               	movwf	??_strtof
  7718     04C2  307F               	movlw	127
  7719     04C3  024E               	subwf	??_strtof,w
  7720     04C4  1D03               	skipz
  7721     04C5  2CC8               	goto	u5925
  7722     04C6  3083               	movlw	131
  7723     04C7  025C               	subwf	strtof@expon,w
  7724     04C8                     u5925:
  7725     04C8  1803               	skipnc
  7726     04C9  2CCB               	goto	u5921
  7727     04CA  2CCC               	goto	u5920
  7728     04CB                     u5921:
  7729     04CB  2CD9               	goto	l3879
  7730     04CC                     u5920:
  7731     04CC                     l3877:
  7732     04CC  3081               	movlw	129
  7733     04CD  0020               	movlb	0	; select bank0
  7734     04CE  00DC               	movwf	strtof@expon
  7735     04CF  30FF               	movlw	255
  7736     04D0  00DD               	movwf	strtof@expon+1
  7737     04D1  3000               	movlw	0
  7738     04D2  00E3               	movwf	strtof@_u+3
  7739     04D3  3000               	movlw	0
  7740     04D4  00E2               	movwf	strtof@_u+2
  7741     04D5  3000               	movlw	0
  7742     04D6  00E1               	movwf	strtof@_u+1
  7743     04D7  3000               	movlw	0
  7744     04D8  00E0               	movwf	strtof@_u
  7745     04D9                     l3879:
  7746     04D9  3081               	movlw	129
  7747     04DA  0020               	movlb	0	; select bank0
  7748     04DB  065C               	xorwf	strtof@expon,w
  7749     04DC  1D03               	skipz
  7750     04DD  2CE3               	goto	u5930
  7751     04DE  0A5D               	incf	strtof@expon+1,w
  7752     04DF  1903               	btfsc	3,2
  7753     04E0  2CE2               	goto	u5931
  7754     04E1  2CE3               	goto	u5930
  7755     04E2                     u5931:
  7756     04E2  2CEE               	goto	l3885
  7757     04E3                     u5930:
  7758     04E3                     l3881:
  7759     04E3  3001               	movlw	1
  7760     04E4                     u5945:
  7761     04E4  35E0               	lslf	strtof@_u,f
  7762     04E5  0DE1               	rlf	strtof@_u+1,f
  7763     04E6  0DE2               	rlf	strtof@_u+2,f
  7764     04E7  0DE3               	rlf	strtof@_u+3,f
  7765     04E8  0B89               	decfsz	9,f
  7766     04E9  2CE4               	goto	u5945
  7767     04EA                     l3883:
  7768     04EA  30FF               	movlw	255
  7769     04EB  07DC               	addwf	strtof@expon,f
  7770     04EC  30FF               	movlw	255
  7771     04ED  3DDD               	addwfc	strtof@expon+1,f
  7772     04EE                     l3885:
  7773     04EE  085D               	movf	strtof@expon+1,w
  7774     04EF  3A80               	xorlw	128
  7775     04F0  00CE               	movwf	??_strtof
  7776     04F1  3080               	movlw	128
  7777     04F2  024E               	subwf	??_strtof,w
  7778     04F3  1D03               	skipz
  7779     04F4  2CF7               	goto	u5955
  7780     04F5  3080               	movlw	128
  7781     04F6  025C               	subwf	strtof@expon,w
  7782     04F7                     u5955:
  7783     04F7  1C03               	skipc
  7784     04F8  2CFA               	goto	u5951
  7785     04F9  2CFB               	goto	u5950
  7786     04FA                     u5951:
  7787     04FA  2D0D               	goto	l3889
  7788     04FB                     u5950:
  7789     04FB                     l3887:
  7790     04FB  3000               	movlw	0
  7791     04FC  0020               	movlb	0	; select bank0
  7792     04FD  00E3               	movwf	strtof@_u+3
  7793     04FE  3000               	movlw	0
  7794     04FF  00E2               	movwf	strtof@_u+2
  7795     0500  3000               	movlw	0
  7796     0501  00E1               	movwf	strtof@_u+1
  7797     0502  3000               	movlw	0
  7798     0503  00E0               	movwf	strtof@_u
  7799     0504  3080               	movlw	128
  7800     0505  00DC               	movwf	strtof@expon
  7801     0506  3000               	movlw	0
  7802     0507  00DD               	movwf	strtof@expon+1
  7803     0508  3022               	movlw	34
  7804     0509  00D6               	movwf	strtof@err
  7805     050A  3000               	movlw	0
  7806     050B  00D7               	movwf	strtof@err+1
  7807     050C  2F9E               	goto	l4017
  7808     050D                     l3889:
  7809     050D  3009               	movlw	9
  7810     050E                     u5965:
  7811     050E  0020               	movlb	0	; select bank0
  7812     050F  36E3               	lsrf	strtof@_u+3,f
  7813     0510  0CE2               	rrf	strtof@_u+2,f
  7814     0511  0CE1               	rrf	strtof@_u+1,f
  7815     0512  0CE0               	rrf	strtof@_u,f
  7816     0513  0B89               	decfsz	9,f
  7817     0514  2D0E               	goto	u5965
  7818     0515                     l3891:
  7819     0515  30FF               	movlw	255
  7820     0516  05E0               	andwf	strtof@_u,f
  7821     0517  30FF               	movlw	255
  7822     0518  05E1               	andwf	strtof@_u+1,f
  7823     0519  307F               	movlw	127
  7824     051A  05E2               	andwf	strtof@_u+2,f
  7825     051B  3000               	movlw	0
  7826     051C  05E3               	andwf	strtof@_u+3,f
  7827     051D                     l3893:
  7828     051D  085C               	movf	strtof@expon,w
  7829     051E  3E7F               	addlw	127
  7830     051F  00CE               	movwf	??_strtof
  7831     0520  3000               	movlw	0
  7832     0521  3D5D               	addwfc	strtof@expon+1,w
  7833     0522  00CF               	movwf	??_strtof+1
  7834     0523  30FF               	movlw	255
  7835     0524  054E               	andwf	??_strtof,w
  7836     0525  00D0               	movwf	??_strtof+2
  7837     0526  3000               	movlw	0
  7838     0527  054F               	andwf	??_strtof+1,w
  7839     0528  00D1               	movwf	??_strtof+3
  7840     0529  0850               	movf	??_strtof+2,w
  7841     052A  00D2               	movwf	??_strtof+4
  7842     052B  0851               	movf	??_strtof+3,w
  7843     052C  00D3               	movwf	??_strtof+5
  7844     052D  01D4               	clrf	??_strtof+6
  7845     052E  01D5               	clrf	??_strtof+7
  7846     052F  3017               	movlw	23
  7847     0530                     u5975:
  7848     0530  35D2               	lslf	??_strtof+4,f
  7849     0531  0DD3               	rlf	??_strtof+5,f
  7850     0532  0DD4               	rlf	??_strtof+6,f
  7851     0533  0DD5               	rlf	??_strtof+7,f
  7852     0534                     u5970:
  7853     0534  0B89               	decfsz	9,f
  7854     0535  2D30               	goto	u5975
  7855     0536  0852               	movf	??_strtof+4,w
  7856     0537  04E0               	iorwf	strtof@_u,f
  7857     0538  0853               	movf	??_strtof+5,w
  7858     0539  04E1               	iorwf	strtof@_u+1,f
  7859     053A  0854               	movf	??_strtof+6,w
  7860     053B  04E2               	iorwf	strtof@_u+2,f
  7861     053C  0855               	movf	??_strtof+7,w
  7862     053D  04E3               	iorwf	strtof@_u+3,f
  7863     053E  2F9E               	goto	l4017
  7864     053F                     l904:
  7865     053F  1A5B               	btfsc	strtof@flags,4
  7866     0540  2D42               	goto	u5981
  7867     0541  2D43               	goto	u5980
  7868     0542                     u5981:
  7869     0542  2D53               	goto	l3901
  7870     0543                     u5980:
  7871     0543                     l3895:
  7872     0543  0865               	movf	strtof@s,w
  7873     0544  0086               	movwf	6
  7874     0545  3001               	movlw	1	; select bank2/3
  7875     0546  0087               	movwf	7
  7876     0547  302E               	movlw	46
  7877     0548  0601               	xorwf	1,w
  7878     0549  1D03               	btfss	3,2
  7879     054A  2D4C               	goto	u5991
  7880     054B  2D4D               	goto	u5990
  7881     054C                     u5991:
  7882     054C  2D53               	goto	l3901
  7883     054D                     u5990:
  7884     054D                     l3897:
  7885     054D  165B               	bsf	strtof@flags,4
  7886     054E                     l3899:
  7887     054E  3001               	movlw	1
  7888     054F  00CE               	movwf	??_strtof
  7889     0550  084E               	movf	??_strtof,w
  7890     0551  07E5               	addwf	strtof@s,f
  7891     0552  2D3F               	goto	l904
  7892     0553                     l3901:
  7893     0553  0865               	movf	strtof@s,w
  7894     0554  0086               	movwf	6
  7895     0555  3001               	movlw	1	; select bank2/3
  7896     0556  0087               	movwf	7
  7897     0557  0801               	movf	1,w
  7898     0558  00CE               	movwf	??_strtof
  7899     0559  01CF               	clrf	??_strtof+1
  7900     055A  084E               	movf	??_strtof,w
  7901     055B  00F0               	movwf	isdigit@c
  7902     055C  084F               	movf	??_strtof+1,w
  7903     055D  00F1               	movwf	isdigit@c+1
  7904     055E  319E  2651  3180   	fcall	_isdigit
  7905     0561  0870               	movf	?_isdigit,w
  7906     0562  0471               	iorwf	?_isdigit+1,w
  7907     0563  1D03               	btfss	3,2
  7908     0564  2D66               	goto	u6001
  7909     0565  2D67               	goto	u6000
  7910     0566                     u6001:
  7911     0566  2D68               	goto	l907
  7912     0567                     u6000:
  7913     0567  2DB5               	goto	l3919
  7914     0568                     l907:
  7915     0568  0020               	movlb	0	; select bank0
  7916     0569  14DB               	bsf	strtof@flags,1
  7917     056A                     l3905:
  7918     056A  3009               	movlw	9
  7919     056B  065E               	xorwf	strtof@eexp,w
  7920     056C  045F               	iorwf	strtof@eexp+1,w
  7921     056D  1903               	btfsc	3,2
  7922     056E  2D70               	goto	u6011
  7923     056F  2D71               	goto	u6010
  7924     0570                     u6011:
  7925     0570  2DAC               	goto	l909
  7926     0571                     u6010:
  7927     0571                     l3907:
  7928     0571  1E5B               	btfss	strtof@flags,4
  7929     0572  2D74               	goto	u6021
  7930     0573  2D75               	goto	u6020
  7931     0574                     u6021:
  7932     0574  2D79               	goto	l910
  7933     0575                     u6020:
  7934     0575                     l3909:
  7935     0575  30FF               	movlw	255
  7936     0576  07DC               	addwf	strtof@expon,f
  7937     0577  30FF               	movlw	255
  7938     0578  3DDD               	addwfc	strtof@expon+1,f
  7939     0579                     l910:
  7940     0579  3001               	movlw	1
  7941     057A  07DE               	addwf	strtof@eexp,f
  7942     057B  3000               	movlw	0
  7943     057C  3DDF               	addwfc	strtof@eexp+1,f
  7944     057D                     l3911:
  7945     057D  3000               	movlw	0
  7946     057E  00F3               	movwf	___lmul@multiplier+3
  7947     057F  3000               	movlw	0
  7948     0580  00F2               	movwf	___lmul@multiplier+2
  7949     0581  3000               	movlw	0
  7950     0582  00F1               	movwf	___lmul@multiplier+1
  7951     0583  300A               	movlw	10
  7952     0584  00F0               	movwf	___lmul@multiplier
  7953     0585  0863               	movf	strtof@_u+3,w
  7954     0586  00F7               	movwf	___lmul@multiplicand+3
  7955     0587  0862               	movf	strtof@_u+2,w
  7956     0588  00F6               	movwf	___lmul@multiplicand+2
  7957     0589  0861               	movf	strtof@_u+1,w
  7958     058A  00F5               	movwf	___lmul@multiplicand+1
  7959     058B  0860               	movf	strtof@_u,w
  7960     058C  00F4               	movwf	___lmul@multiplicand
  7961     058D  3180  2013  3180   	fcall	___lmul
  7962     0590  0873               	movf	?___lmul+3,w
  7963     0591  0020               	movlb	0	; select bank0
  7964     0592  00E3               	movwf	strtof@_u+3
  7965     0593  0872               	movf	?___lmul+2,w
  7966     0594  00E2               	movwf	strtof@_u+2
  7967     0595  0871               	movf	?___lmul+1,w
  7968     0596  00E1               	movwf	strtof@_u+1
  7969     0597  0870               	movf	?___lmul,w
  7970     0598  00E0               	movwf	strtof@_u
  7971     0599                     l3913:
  7972     0599  0865               	movf	strtof@s,w
  7973     059A  0086               	movwf	6
  7974     059B  3001               	movlw	1	; select bank2/3
  7975     059C  0087               	movwf	7
  7976     059D  0801               	movf	1,w
  7977     059E  3ED0               	addlw	208
  7978     059F  00CE               	movwf	??_strtof
  7979     05A0  01CF               	clrf	??_strtof+1
  7980     05A1  01D0               	clrf	??_strtof+2
  7981     05A2  01D1               	clrf	??_strtof+3
  7982     05A3  084E               	movf	??_strtof,w
  7983     05A4  07E0               	addwf	strtof@_u,f
  7984     05A5  084F               	movf	??_strtof+1,w
  7985     05A6  3DE1               	addwfc	strtof@_u+1,f
  7986     05A7  0850               	movf	??_strtof+2,w
  7987     05A8  3DE2               	addwfc	strtof@_u+2,f
  7988     05A9  0851               	movf	??_strtof+3,w
  7989     05AA  3DE3               	addwfc	strtof@_u+3,f
  7990     05AB  2D4E               	goto	l3899
  7991     05AC                     l909:
  7992     05AC  1A5B               	btfsc	strtof@flags,4
  7993     05AD  2DAF               	goto	u6031
  7994     05AE  2DB0               	goto	u6030
  7995     05AF                     u6031:
  7996     05AF  2D4E               	goto	l3899
  7997     05B0                     u6030:
  7998     05B0                     l3915:
  7999     05B0  3001               	movlw	1
  8000     05B1  07DC               	addwf	strtof@expon,f
  8001     05B2  3000               	movlw	0
  8002     05B3  3DDD               	addwfc	strtof@expon+1,f
  8003     05B4  2D4E               	goto	l3899
  8004     05B5                     l3919:
  8005     05B5  0020               	movlb	0	; select bank0
  8006     05B6  01DE               	clrf	strtof@eexp
  8007     05B7  01DF               	clrf	strtof@eexp+1
  8008     05B8                     l3921:
  8009     05B8  0865               	movf	strtof@s,w
  8010     05B9  0086               	movwf	6
  8011     05BA  3001               	movlw	1	; select bank2/3
  8012     05BB  0087               	movwf	7
  8013     05BC  3065               	movlw	101
  8014     05BD  0601               	xorwf	1,w
  8015     05BE  1903               	btfsc	3,2
  8016     05BF  2DC1               	goto	u6041
  8017     05C0  2DC2               	goto	u6040
  8018     05C1                     u6041:
  8019     05C1  2DCC               	goto	l3925
  8020     05C2                     u6040:
  8021     05C2                     l3923:
  8022     05C2  0865               	movf	strtof@s,w
  8023     05C3  0086               	movwf	6
  8024     05C4  3001               	movlw	1	; select bank2/3
  8025     05C5  0087               	movwf	7
  8026     05C6  3045               	movlw	69
  8027     05C7  0601               	xorwf	1,w
  8028     05C8  1D03               	btfss	3,2
  8029     05C9  2DCB               	goto	u6051
  8030     05CA  2DCC               	goto	u6050
  8031     05CB                     u6051:
  8032     05CB  2E4A               	goto	l3957
  8033     05CC                     u6050:
  8034     05CC                     l3925:
  8035     05CC  3001               	movlw	1
  8036     05CD  00CE               	movwf	??_strtof
  8037     05CE  084E               	movf	??_strtof,w
  8038     05CF  07E5               	addwf	strtof@s,f
  8039     05D0  0865               	movf	strtof@s,w
  8040     05D1  0086               	movwf	6
  8041     05D2  3001               	movlw	1	; select bank2/3
  8042     05D3  0087               	movwf	7
  8043     05D4  302D               	movlw	45
  8044     05D5  0601               	xorwf	1,w
  8045     05D6  1D03               	btfss	3,2
  8046     05D7  2DD9               	goto	u6061
  8047     05D8  2DDA               	goto	u6060
  8048     05D9                     u6061:
  8049     05D9  2DE0               	goto	l3931
  8050     05DA                     u6060:
  8051     05DA                     l3927:
  8052     05DA  15DB               	bsf	strtof@flags,3
  8053     05DB                     l3929:
  8054     05DB  3001               	movlw	1
  8055     05DC  00CE               	movwf	??_strtof
  8056     05DD  084E               	movf	??_strtof,w
  8057     05DE  07E5               	addwf	strtof@s,f
  8058     05DF  2DEB               	goto	l3937
  8059     05E0                     l3931:
  8060     05E0  0865               	movf	strtof@s,w
  8061     05E1  0086               	movwf	6
  8062     05E2  3001               	movlw	1	; select bank2/3
  8063     05E3  0087               	movwf	7
  8064     05E4  302B               	movlw	43
  8065     05E5  0601               	xorwf	1,w
  8066     05E6  1D03               	btfss	3,2
  8067     05E7  2DE9               	goto	u6071
  8068     05E8  2DEA               	goto	u6070
  8069     05E9                     u6071:
  8070     05E9  2DEB               	goto	l3937
  8071     05EA                     u6070:
  8072     05EA  2DDB               	goto	l3929
  8073     05EB                     l3937:
  8074     05EB  0865               	movf	strtof@s,w
  8075     05EC  0086               	movwf	6
  8076     05ED  3001               	movlw	1	; select bank2/3
  8077     05EE  0087               	movwf	7
  8078     05EF  3030               	movlw	48
  8079     05F0  0601               	xorwf	1,w
  8080     05F1  1903               	btfsc	3,2
  8081     05F2  2DF4               	goto	u6081
  8082     05F3  2DF5               	goto	u6080
  8083     05F4                     u6081:
  8084     05F4  2DDB               	goto	l3929
  8085     05F5                     u6080:
  8086     05F5                     l3939:
  8087     05F5  01DA               	clrf	strtof@digit
  8088     05F6  2E1A               	goto	l922
  8089     05F7                     l3941:
  8090     05F7  0020               	movlb	0	; select bank0
  8091     05F8  0865               	movf	strtof@s,w
  8092     05F9  0086               	movwf	6
  8093     05FA  3001               	movlw	1	; select bank2/3
  8094     05FB  0087               	movwf	7
  8095     05FC  0801               	movf	1,w
  8096     05FD  3ED0               	addlw	208
  8097     05FE  00CE               	movwf	??_strtof
  8098     05FF  01CF               	clrf	??_strtof+1
  8099     0600  085F               	movf	strtof@eexp+1,w
  8100     0601  00F1               	movwf	___wmul@multiplier+1
  8101     0602  085E               	movf	strtof@eexp,w
  8102     0603  00F0               	movwf	___wmul@multiplier
  8103     0604  300A               	movlw	10
  8104     0605  00F2               	movwf	___wmul@multiplicand
  8105     0606  3000               	movlw	0
  8106     0607  00F3               	movwf	___wmul@multiplicand+1
  8107     0608  319E  2686  3180   	fcall	___wmul
  8108     060B  0020               	movlb	0	; select bank0
  8109     060C  084E               	movf	??_strtof,w
  8110     060D  0770               	addwf	?___wmul,w
  8111     060E  00DE               	movwf	strtof@eexp
  8112     060F  084F               	movf	??_strtof+1,w
  8113     0610  3D71               	addwfc	?___wmul+1,w
  8114     0611  00DF               	movwf	strtof@eexp+1
  8115     0612                     l3943:
  8116     0612  3001               	movlw	1
  8117     0613  00CE               	movwf	??_strtof
  8118     0614  084E               	movf	??_strtof,w
  8119     0615  07E5               	addwf	strtof@s,f
  8120     0616                     l3945:
  8121     0616  3001               	movlw	1
  8122     0617  00CE               	movwf	??_strtof
  8123     0618  084E               	movf	??_strtof,w
  8124     0619  07DA               	addwf	strtof@digit,f
  8125     061A                     l922:
  8126     061A  0865               	movf	strtof@s,w
  8127     061B  0086               	movwf	6
  8128     061C  3001               	movlw	1	; select bank2/3
  8129     061D  0087               	movwf	7
  8130     061E  0801               	movf	1,w
  8131     061F  00CE               	movwf	??_strtof
  8132     0620  01CF               	clrf	??_strtof+1
  8133     0621  084E               	movf	??_strtof,w
  8134     0622  00F0               	movwf	isdigit@c
  8135     0623  084F               	movf	??_strtof+1,w
  8136     0624  00F1               	movwf	isdigit@c+1
  8137     0625  319E  2651  3180   	fcall	_isdigit
  8138     0628  0870               	movf	?_isdigit,w
  8139     0629  0471               	iorwf	?_isdigit+1,w
  8140     062A  1D03               	btfss	3,2
  8141     062B  2E2D               	goto	u6091
  8142     062C  2E2E               	goto	u6090
  8143     062D                     u6091:
  8144     062D  2DF7               	goto	l3941
  8145     062E                     u6090:
  8146     062E                     l3947:
  8147     062E  0020               	movlb	0	; select bank0
  8148     062F  085A               	movf	strtof@digit,w
  8149     0630  1D03               	btfss	3,2
  8150     0631  2E33               	goto	u6101
  8151     0632  2E34               	goto	u6100
  8152     0633                     u6101:
  8153     0633  2E41               	goto	l3953
  8154     0634                     u6100:
  8155     0634                     l3949:
  8156     0634  0865               	movf	strtof@s,w
  8157     0635  3EFF               	addlw	-1
  8158     0636  0086               	movwf	6
  8159     0637  3001               	movlw	1	; select bank2/3
  8160     0638  0087               	movwf	7
  8161     0639  3030               	movlw	48
  8162     063A  0601               	xorwf	1,w
  8163     063B  1903               	btfsc	3,2
  8164     063C  2E3E               	goto	u6111
  8165     063D  2E3F               	goto	u6110
  8166     063E                     u6111:
  8167     063E  2E41               	goto	l3953
  8168     063F                     u6110:
  8169     063F                     l3951:
  8170     063F  3001               	movlw	1
  8171     0640  02E5               	subwf	strtof@s,f
  8172     0641                     l3953:
  8173     0641  1DDB               	btfss	strtof@flags,3
  8174     0642  2E44               	goto	u6121
  8175     0643  2E45               	goto	u6120
  8176     0644                     u6121:
  8177     0644  2E4A               	goto	l3957
  8178     0645                     u6120:
  8179     0645                     l3955:
  8180     0645  09DE               	comf	strtof@eexp,f
  8181     0646  09DF               	comf	strtof@eexp+1,f
  8182     0647  0ADE               	incf	strtof@eexp,f
  8183     0648  1903               	skipnz
  8184     0649  0ADF               	incf	strtof@eexp+1,f
  8185     064A                     l3957:
  8186     064A  085E               	movf	strtof@eexp,w
  8187     064B  07DC               	addwf	strtof@expon,f
  8188     064C  085F               	movf	strtof@eexp+1,w
  8189     064D  3DDD               	addwfc	strtof@expon+1,f
  8190     064E  084A               	movf	strtof@res,w
  8191     064F  044B               	iorwf	strtof@res+1,w
  8192     0650  1903               	btfsc	3,2
  8193     0651  2E53               	goto	u6131
  8194     0652  2E54               	goto	u6130
  8195     0653                     u6131:
  8196     0653  2E5E               	goto	l3963
  8197     0654                     u6130:
  8198     0654                     l3959:
  8199     0654  1CDB               	btfss	strtof@flags,1
  8200     0655  2E57               	goto	u6141
  8201     0656  2E58               	goto	u6140
  8202     0657                     u6141:
  8203     0657  2E5E               	goto	l3963
  8204     0658                     u6140:
  8205     0658                     l3961:
  8206     0658  084A               	movf	strtof@res,w
  8207     0659  0086               	movwf	6
  8208     065A  084B               	movf	strtof@res+1,w
  8209     065B  0087               	movwf	7
  8210     065C  0865               	movf	strtof@s,w
  8211     065D  0081               	movwf	1
  8212     065E                     l3963:
  8213     065E  0863               	movf	strtof@_u+3,w
  8214     065F  00F3               	movwf	___xxtofl@val+3
  8215     0660  0862               	movf	strtof@_u+2,w
  8216     0661  00F2               	movwf	___xxtofl@val+2
  8217     0662  0861               	movf	strtof@_u+1,w
  8218     0663  00F1               	movwf	___xxtofl@val+1
  8219     0664  0860               	movf	strtof@_u,w
  8220     0665  00F0               	movwf	___xxtofl@val
  8221     0666  3000               	movlw	0
  8222     0667  3194  24B2  3180   	fcall	___xxtofl
  8223     066A  0873               	movf	?___xxtofl+3,w
  8224     066B  0020               	movlb	0	; select bank0
  8225     066C  00E3               	movwf	strtof@_u+3
  8226     066D  0872               	movf	?___xxtofl+2,w
  8227     066E  00E2               	movwf	strtof@_u+2
  8228     066F  0871               	movf	?___xxtofl+1,w
  8229     0670  00E1               	movwf	strtof@_u+1
  8230     0671  0870               	movf	?___xxtofl,w
  8231     0672  00E0               	movwf	strtof@_u
  8232     0673                     l3965:
  8233     0673  0863               	movf	strtof@_u+3,w
  8234     0674  00F3               	movwf	___fleq@ff1+3
  8235     0675  0862               	movf	strtof@_u+2,w
  8236     0676  00F2               	movwf	___fleq@ff1+2
  8237     0677  0861               	movf	strtof@_u+1,w
  8238     0678  00F1               	movwf	___fleq@ff1+1
  8239     0679  0860               	movf	strtof@_u,w
  8240     067A  00F0               	movwf	___fleq@ff1
  8241     067B  3000               	movlw	0
  8242     067C  00F7               	movwf	___fleq@ff2+3
  8243     067D  3000               	movlw	0
  8244     067E  00F6               	movwf	___fleq@ff2+2
  8245     067F  3000               	movlw	0
  8246     0680  00F5               	movwf	___fleq@ff2+1
  8247     0681  3000               	movlw	0
  8248     0682  00F4               	movwf	___fleq@ff2
  8249     0683  319F  2762  3180   	fcall	___fleq
  8250     0686  1C03               	btfss	3,0
  8251     0687  2E89               	goto	u6151
  8252     0688  2E8A               	goto	u6150
  8253     0689                     u6151:
  8254     0689  2E94               	goto	l928
  8255     068A                     u6150:
  8256     068A                     l3967:
  8257     068A  3000               	movlw	0
  8258     068B  0020               	movlb	0	; select bank0
  8259     068C  00CD               	movwf	?_strtof+3
  8260     068D  3000               	movlw	0
  8261     068E  00CC               	movwf	?_strtof+2
  8262     068F  3000               	movlw	0
  8263     0690  00CB               	movwf	?_strtof+1
  8264     0691  3000               	movlw	0
  8265     0692  00CA               	movwf	?_strtof
  8266     0693  2FD5               	goto	l893
  8267     0694                     l928:
  8268     0694  0020               	movlb	0	; select bank0
  8269     0695  1FDD               	btfss	strtof@expon+1,7
  8270     0696  2E98               	goto	u6161
  8271     0697  2E99               	goto	u6160
  8272     0698                     u6161:
  8273     0698  2F23               	goto	l3997
  8274     0699                     u6160:
  8275     0699                     l3971:
  8276     0699  09DC               	comf	strtof@expon,f
  8277     069A  09DD               	comf	strtof@expon+1,f
  8278     069B  0ADC               	incf	strtof@expon,f
  8279     069C  1903               	skipnz
  8280     069D  0ADD               	incf	strtof@expon+1,f
  8281     069E  2EC0               	goto	l3977
  8282     069F                     l3973:
  8283     069F  3050               	movlw	80
  8284     06A0  00F3               	movwf	___fldiv@a+3
  8285     06A1  3015               	movlw	21
  8286     06A2  00F2               	movwf	___fldiv@a+2
  8287     06A3  3002               	movlw	2
  8288     06A4  00F1               	movwf	___fldiv@a+1
  8289     06A5  30F9               	movlw	249
  8290     06A6  00F0               	movwf	___fldiv@a
  8291     06A7  0020               	movlb	0	; select bank0
  8292     06A8  0863               	movf	strtof@_u+3,w
  8293     06A9  00F7               	movwf	___fldiv@b+3
  8294     06AA  0862               	movf	strtof@_u+2,w
  8295     06AB  00F6               	movwf	___fldiv@b+2
  8296     06AC  0861               	movf	strtof@_u+1,w
  8297     06AD  00F5               	movwf	___fldiv@b+1
  8298     06AE  0860               	movf	strtof@_u,w
  8299     06AF  00F4               	movwf	___fldiv@b
  8300     06B0  3196  2656  3180   	fcall	___fldiv
  8301     06B3  0873               	movf	?___fldiv+3,w
  8302     06B4  0020               	movlb	0	; select bank0
  8303     06B5  00E3               	movwf	strtof@_u+3
  8304     06B6  0872               	movf	?___fldiv+2,w
  8305     06B7  00E2               	movwf	strtof@_u+2
  8306     06B8  0871               	movf	?___fldiv+1,w
  8307     06B9  00E1               	movwf	strtof@_u+1
  8308     06BA  0870               	movf	?___fldiv,w
  8309     06BB  00E0               	movwf	strtof@_u
  8310     06BC                     l3975:
  8311     06BC  30F6               	movlw	246
  8312     06BD  07DC               	addwf	strtof@expon,f
  8313     06BE  30FF               	movlw	255
  8314     06BF  3DDD               	addwfc	strtof@expon+1,f
  8315     06C0                     l3977:
  8316     06C0  085D               	movf	strtof@expon+1,w
  8317     06C1  3A80               	xorlw	128
  8318     06C2  00CE               	movwf	??_strtof
  8319     06C3  3080               	movlw	128
  8320     06C4  024E               	subwf	??_strtof,w
  8321     06C5  1D03               	skipz
  8322     06C6  2EC9               	goto	u6175
  8323     06C7  300A               	movlw	10
  8324     06C8  025C               	subwf	strtof@expon,w
  8325     06C9                     u6175:
  8326     06C9  1803               	skipnc
  8327     06CA  2ECC               	goto	u6171
  8328     06CB  2ECD               	goto	u6170
  8329     06CC                     u6171:
  8330     06CC  2E9F               	goto	l3973
  8331     06CD                     u6170:
  8332     06CD  2EEE               	goto	l3983
  8333     06CE                     l3979:
  8334     06CE  3041               	movlw	65
  8335     06CF  00F3               	movwf	___fldiv@a+3
  8336     06D0  3020               	movlw	32
  8337     06D1  00F2               	movwf	___fldiv@a+2
  8338     06D2  3000               	movlw	0
  8339     06D3  00F1               	movwf	___fldiv@a+1
  8340     06D4  3000               	movlw	0
  8341     06D5  00F0               	movwf	___fldiv@a
  8342     06D6  0863               	movf	strtof@_u+3,w
  8343     06D7  00F7               	movwf	___fldiv@b+3
  8344     06D8  0862               	movf	strtof@_u+2,w
  8345     06D9  00F6               	movwf	___fldiv@b+2
  8346     06DA  0861               	movf	strtof@_u+1,w
  8347     06DB  00F5               	movwf	___fldiv@b+1
  8348     06DC  0860               	movf	strtof@_u,w
  8349     06DD  00F4               	movwf	___fldiv@b
  8350     06DE  3196  2656  3180   	fcall	___fldiv
  8351     06E1  0873               	movf	?___fldiv+3,w
  8352     06E2  0020               	movlb	0	; select bank0
  8353     06E3  00E3               	movwf	strtof@_u+3
  8354     06E4  0872               	movf	?___fldiv+2,w
  8355     06E5  00E2               	movwf	strtof@_u+2
  8356     06E6  0871               	movf	?___fldiv+1,w
  8357     06E7  00E1               	movwf	strtof@_u+1
  8358     06E8  0870               	movf	?___fldiv,w
  8359     06E9  00E0               	movwf	strtof@_u
  8360     06EA                     l3981:
  8361     06EA  30FF               	movlw	255
  8362     06EB  07DC               	addwf	strtof@expon,f
  8363     06EC  30FF               	movlw	255
  8364     06ED  3DDD               	addwfc	strtof@expon+1,f
  8365     06EE                     l3983:
  8366     06EE  0020               	movlb	0	; select bank0
  8367     06EF  085C               	movf	strtof@expon,w
  8368     06F0  045D               	iorwf	strtof@expon+1,w
  8369     06F1  1D03               	btfss	3,2
  8370     06F2  2EF4               	goto	u6181
  8371     06F3  2EF5               	goto	u6180
  8372     06F4                     u6181:
  8373     06F4  2ECE               	goto	l3979
  8374     06F5                     u6180:
  8375     06F5                     l3985:
  8376     06F5  0863               	movf	strtof@_u+3,w
  8377     06F6  00F3               	movwf	___flge@ff1+3
  8378     06F7  0862               	movf	strtof@_u+2,w
  8379     06F8  00F2               	movwf	___flge@ff1+2
  8380     06F9  0861               	movf	strtof@_u+1,w
  8381     06FA  00F1               	movwf	___flge@ff1+1
  8382     06FB  0860               	movf	strtof@_u,w
  8383     06FC  00F0               	movwf	___flge@ff1
  8384     06FD  3000               	movlw	0
  8385     06FE  00F7               	movwf	___flge@ff2+3
  8386     06FF  3080               	movlw	128
  8387     0700  00F6               	movwf	___flge@ff2+2
  8388     0701  3000               	movlw	0
  8389     0702  00F5               	movwf	___flge@ff2+1
  8390     0703  3000               	movlw	0
  8391     0704  00F4               	movwf	___flge@ff2
  8392     0705  3191  21D8  3180   	fcall	___flge
  8393     0708  1803               	btfsc	3,0
  8394     0709  2F0B               	goto	u6191
  8395     070A  2F0C               	goto	u6190
  8396     070B                     u6191:
  8397     070B  2F9E               	goto	l4017
  8398     070C                     u6190:
  8399     070C                     l3987:
  8400     070C  0020               	movlb	0	; select bank0
  8401     070D  1C5B               	btfss	strtof@flags,0
  8402     070E  2F10               	goto	u6201
  8403     070F  2F11               	goto	u6200
  8404     0710                     u6201:
  8405     0710  2F1A               	goto	l3993
  8406     0711                     u6200:
  8407     0711                     l3989:
  8408     0711  3080               	movlw	128
  8409     0712  00CD               	movwf	?_strtof+3
  8410     0713  3080               	movlw	128
  8411     0714  00CC               	movwf	?_strtof+2
  8412     0715  3000               	movlw	0
  8413     0716  00CB               	movwf	?_strtof+1
  8414     0717  3000               	movlw	0
  8415     0718  00CA               	movwf	?_strtof
  8416     0719  2FD5               	goto	l893
  8417     071A                     l3993:
  8418     071A  3000               	movlw	0
  8419     071B  00CD               	movwf	?_strtof+3
  8420     071C  3080               	movlw	128
  8421     071D  00CC               	movwf	?_strtof+2
  8422     071E  3000               	movlw	0
  8423     071F  00CB               	movwf	?_strtof+1
  8424     0720  3000               	movlw	0
  8425     0721  00CA               	movwf	?_strtof
  8426     0722  2FD5               	goto	l893
  8427     0723                     l3997:
  8428     0723  085D               	movf	strtof@expon+1,w
  8429     0724  3A80               	xorlw	128
  8430     0725  00CE               	movwf	??_strtof
  8431     0726  3080               	movlw	128
  8432     0727  024E               	subwf	??_strtof,w
  8433     0728  1D03               	skipz
  8434     0729  2F2C               	goto	u6215
  8435     072A  3001               	movlw	1
  8436     072B  025C               	subwf	strtof@expon,w
  8437     072C                     u6215:
  8438     072C  1C03               	skipc
  8439     072D  2F2F               	goto	u6211
  8440     072E  2F30               	goto	u6210
  8441     072F                     u6211:
  8442     072F  2F9E               	goto	l4017
  8443     0730                     u6210:
  8444     0730  2F51               	goto	l4005
  8445     0731                     l4001:
  8446     0731  3050               	movlw	80
  8447     0732  00B3               	movwf	___flmul@b+3
  8448     0733  3015               	movlw	21
  8449     0734  00B2               	movwf	___flmul@b+2
  8450     0735  3002               	movlw	2
  8451     0736  00B1               	movwf	___flmul@b+1
  8452     0737  30F9               	movlw	249
  8453     0738  00B0               	movwf	___flmul@b
  8454     0739  0863               	movf	strtof@_u+3,w
  8455     073A  00B7               	movwf	___flmul@a+3
  8456     073B  0862               	movf	strtof@_u+2,w
  8457     073C  00B6               	movwf	___flmul@a+2
  8458     073D  0861               	movf	strtof@_u+1,w
  8459     073E  00B5               	movwf	___flmul@a+1
  8460     073F  0860               	movf	strtof@_u,w
  8461     0740  00B4               	movwf	___flmul@a
  8462     0741  318A  2273  3180   	fcall	___flmul
  8463     0744  0020               	movlb	0	; select bank0
  8464     0745  0833               	movf	?___flmul+3,w
  8465     0746  00E3               	movwf	strtof@_u+3
  8466     0747  0832               	movf	?___flmul+2,w
  8467     0748  00E2               	movwf	strtof@_u+2
  8468     0749  0831               	movf	?___flmul+1,w
  8469     074A  00E1               	movwf	strtof@_u+1
  8470     074B  0830               	movf	?___flmul,w
  8471     074C  00E0               	movwf	strtof@_u
  8472     074D                     l4003:
  8473     074D  30F6               	movlw	246
  8474     074E  07DC               	addwf	strtof@expon,f
  8475     074F  30FF               	movlw	255
  8476     0750  3DDD               	addwfc	strtof@expon+1,f
  8477     0751                     l4005:
  8478     0751  3000               	movlw	0
  8479     0752  0020               	movlb	0	; select bank0
  8480     0753  025D               	subwf	strtof@expon+1,w
  8481     0754  300A               	movlw	10
  8482     0755  1903               	skipnz
  8483     0756  025C               	subwf	strtof@expon,w
  8484     0757  1803               	skipnc
  8485     0758  2F5A               	goto	u6221
  8486     0759  2F5B               	goto	u6220
  8487     075A                     u6221:
  8488     075A  2F31               	goto	l4001
  8489     075B                     u6220:
  8490     075B  2F7C               	goto	l4011
  8491     075C                     l4007:
  8492     075C  3041               	movlw	65
  8493     075D  00B3               	movwf	___flmul@b+3
  8494     075E  3020               	movlw	32
  8495     075F  00B2               	movwf	___flmul@b+2
  8496     0760  3000               	movlw	0
  8497     0761  00B1               	movwf	___flmul@b+1
  8498     0762  3000               	movlw	0
  8499     0763  00B0               	movwf	___flmul@b
  8500     0764  0863               	movf	strtof@_u+3,w
  8501     0765  00B7               	movwf	___flmul@a+3
  8502     0766  0862               	movf	strtof@_u+2,w
  8503     0767  00B6               	movwf	___flmul@a+2
  8504     0768  0861               	movf	strtof@_u+1,w
  8505     0769  00B5               	movwf	___flmul@a+1
  8506     076A  0860               	movf	strtof@_u,w
  8507     076B  00B4               	movwf	___flmul@a
  8508     076C  318A  2273  3180   	fcall	___flmul
  8509     076F  0020               	movlb	0	; select bank0
  8510     0770  0833               	movf	?___flmul+3,w
  8511     0771  00E3               	movwf	strtof@_u+3
  8512     0772  0832               	movf	?___flmul+2,w
  8513     0773  00E2               	movwf	strtof@_u+2
  8514     0774  0831               	movf	?___flmul+1,w
  8515     0775  00E1               	movwf	strtof@_u+1
  8516     0776  0830               	movf	?___flmul,w
  8517     0777  00E0               	movwf	strtof@_u
  8518     0778                     l4009:
  8519     0778  30FF               	movlw	255
  8520     0779  07DC               	addwf	strtof@expon,f
  8521     077A  30FF               	movlw	255
  8522     077B  3DDD               	addwfc	strtof@expon+1,f
  8523     077C                     l4011:
  8524     077C  085C               	movf	strtof@expon,w
  8525     077D  045D               	iorwf	strtof@expon+1,w
  8526     077E  1D03               	btfss	3,2
  8527     077F  2F81               	goto	u6231
  8528     0780  2F82               	goto	u6230
  8529     0781                     u6231:
  8530     0781  2F5C               	goto	l4007
  8531     0782                     u6230:
  8532     0782                     l4013:
  8533     0782  307F               	movlw	127
  8534     0783  00F3               	movwf	___flge@ff1+3
  8535     0784  307F               	movlw	127
  8536     0785  00F2               	movwf	___flge@ff1+2
  8537     0786  30FF               	movlw	255
  8538     0787  00F1               	movwf	___flge@ff1+1
  8539     0788  30FF               	movlw	255
  8540     0789  00F0               	movwf	___flge@ff1
  8541     078A  0863               	movf	strtof@_u+3,w
  8542     078B  00F7               	movwf	___flge@ff2+3
  8543     078C  0862               	movf	strtof@_u+2,w
  8544     078D  00F6               	movwf	___flge@ff2+2
  8545     078E  0861               	movf	strtof@_u+1,w
  8546     078F  00F5               	movwf	___flge@ff2+1
  8547     0790  0860               	movf	strtof@_u,w
  8548     0791  00F4               	movwf	___flge@ff2
  8549     0792  3191  21D8  3180   	fcall	___flge
  8550     0795  1803               	btfsc	3,0
  8551     0796  2F98               	goto	u6241
  8552     0797  2F99               	goto	u6240
  8553     0798                     u6241:
  8554     0798  2F9E               	goto	l4017
  8555     0799                     u6240:
  8556     0799                     l4015:
  8557     0799  3022               	movlw	34
  8558     079A  0020               	movlb	0	; select bank0
  8559     079B  00D6               	movwf	strtof@err
  8560     079C  3000               	movlw	0
  8561     079D  00D7               	movwf	strtof@err+1
  8562     079E                     l4017:
  8563     079E  0020               	movlb	0	; select bank0
  8564     079F  0856               	movf	strtof@err,w
  8565     07A0  0457               	iorwf	strtof@err+1,w
  8566     07A1  1903               	btfsc	3,2
  8567     07A2  2FA4               	goto	u6251
  8568     07A3  2FA5               	goto	u6250
  8569     07A4                     u6251:
  8570     07A4  2FB5               	goto	l4021
  8571     07A5                     u6250:
  8572     07A5                     l4019:
  8573     07A5  0857               	movf	strtof@err+1,w
  8574     07A6  0021               	movlb	1	; select bank1
  8575     07A7  00E7               	movwf	(_errno+1)^(0+128)
  8576     07A8  0020               	movlb	0	; select bank0
  8577     07A9  0856               	movf	strtof@err,w
  8578     07AA  0021               	movlb	1	; select bank1
  8579     07AB  00E6               	movwf	_errno^(0+128)
  8580     07AC  307F               	movlw	127
  8581     07AD  0020               	movlb	0	; select bank0
  8582     07AE  00E3               	movwf	strtof@_u+3
  8583     07AF  3080               	movlw	128
  8584     07B0  00E2               	movwf	strtof@_u+2
  8585     07B1  3000               	movlw	0
  8586     07B2  00E1               	movwf	strtof@_u+1
  8587     07B3  3000               	movlw	0
  8588     07B4  00E0               	movwf	strtof@_u
  8589     07B5                     l4021:
  8590     07B5  1C5B               	btfss	strtof@flags,0
  8591     07B6  2FB8               	goto	u6261
  8592     07B7  2FB9               	goto	u6260
  8593     07B8                     u6261:
  8594     07B8  2FCD               	goto	l4025
  8595     07B9                     u6260:
  8596     07B9                     l4023:
  8597     07B9  0863               	movf	strtof@_u+3,w
  8598     07BA  00F3               	movwf	___flneg@f1+3
  8599     07BB  0862               	movf	strtof@_u+2,w
  8600     07BC  00F2               	movwf	___flneg@f1+2
  8601     07BD  0861               	movf	strtof@_u+1,w
  8602     07BE  00F1               	movwf	___flneg@f1+1
  8603     07BF  0860               	movf	strtof@_u,w
  8604     07C0  00F0               	movwf	___flneg@f1
  8605     07C1  3180  2008  3180   	fcall	___flneg
  8606     07C4  0873               	movf	?___flneg+3,w
  8607     07C5  0020               	movlb	0	; select bank0
  8608     07C6  00E3               	movwf	strtof@_u+3
  8609     07C7  0872               	movf	?___flneg+2,w
  8610     07C8  00E2               	movwf	strtof@_u+2
  8611     07C9  0871               	movf	?___flneg+1,w
  8612     07CA  00E1               	movwf	strtof@_u+1
  8613     07CB  0870               	movf	?___flneg,w
  8614     07CC  00E0               	movwf	strtof@_u
  8615     07CD                     l4025:
  8616     07CD  0863               	movf	strtof@_u+3,w
  8617     07CE  00CD               	movwf	?_strtof+3
  8618     07CF  0862               	movf	strtof@_u+2,w
  8619     07D0  00CC               	movwf	?_strtof+2
  8620     07D1  0861               	movf	strtof@_u+1,w
  8621     07D2  00CB               	movwf	?_strtof+1
  8622     07D3  0860               	movf	strtof@_u,w
  8623     07D4  00CA               	movwf	?_strtof
  8624     07D5                     l893:
  8625     07D5  0008               	return
  8626     07D6                     __end_of_strtof:
  8627                           
  8628                           	psect	text16
  8629     1E28                     __ptext16:	
  8630 ;; *************** function _toupper *****************
  8631 ;; Defined at:
  8632 ;;		line 8 in file "C:\Program Files\Microchip\xc8\v2.46\pic\sources\c99\common\toupper.c"
  8633 ;; Parameters:    Size  Location     Type
  8634 ;;  c               2    0[COMMON] int 
  8635 ;; Auto vars:     Size  Location     Type
  8636 ;;		None
  8637 ;; Return value:  Size  Location     Type
  8638 ;;                  2    0[COMMON] int 
  8639 ;; Registers used:
  8640 ;;		wreg, status,2, status,0
  8641 ;; Tracked objects:
  8642 ;;		On entry : 0/0
  8643 ;;		On exit  : 0/0
  8644 ;;		Unchanged: 0/0
  8645 ;; Data sizes:     COMMON   BANK0   BANK1   BANK2   BANK3   BANK4   BANK5   BANK6   BANK7   BANK8   BANK9  BANK10  BANK1
      +1  BANK12  BANK13  BANK14  BANK15  BANK16  BANK17  BANK18  BANK19  BANK20  BANK21  BANK22  BANK23  BANK24  BANK25
  8646 ;;      Params:         2       0       0       0       0       0       0       0       0       0       0       0       
      +0       0       0       0       0       0       0       0       0       0       0       0       0       0       0
  8647 ;;      Locals:         0       0       0       0       0       0       0       0       0       0       0       0       
      +0       0       0       0       0       0       0       0       0       0       0       0       0       0       0
  8648 ;;      Temps:          1       0       0       0       0       0       0       0       0       0       0       0       
      +0       0       0       0       0       0       0       0       0       0       0       0       0       0       0
  8649 ;;      Totals:         3       0       0       0       0       0       0       0       0       0       0       0       
      +0       0       0       0       0       0       0       0       0       0       0       0       0       0       0
  8650 ;;Total ram usage:        3 bytes
  8651 ;; Hardware stack levels used: 1
  8652 ;; This function calls:
  8653 ;;		Nothing
  8654 ;; This function is called by:
  8655 ;;		_strtof
  8656 ;; This function uses a non-reentrant model
  8657 ;;
  8658                           
  8659     1E28                     _toupper:	
  8660                           ;psect for function _toupper
  8661                           
  8662     1E28                     l3601:	
  8663                           ;incstack = 0
  8664                           ; Regs used in _toupper: [wreg+status,2+status,0]
  8665                           
  8666     1E28  309F               	movlw	159
  8667     1E29  0770               	addwf	toupper@c,w
  8668     1E2A  00F2               	movwf	??_toupper
  8669     1E2B  301A               	movlw	26
  8670     1E2C  0272               	subwf	??_toupper,w
  8671     1E2D  1803               	skipnc
  8672     1E2E  2E30               	goto	u5281
  8673     1E2F  2E31               	goto	u5280
  8674     1E30                     u5281:
  8675     1E30  2E38               	goto	l979
  8676     1E31                     u5280:
  8677     1E31                     l3603:
  8678     1E31  305F               	movlw	95
  8679     1E32  0570               	andwf	toupper@c,w
  8680     1E33  00F0               	movwf	?_toupper
  8681     1E34  3000               	movlw	0
  8682     1E35  0571               	andwf	toupper@c+1,w
  8683     1E36  00F1               	movwf	?_toupper+1
  8684     1E37  2E38               	goto	l980
  8685     1E38                     l979:
  8686     1E38                     l980:
  8687     1E38  0008               	return
  8688     1E39                     __end_of_toupper:
  8689                           
  8690                           	psect	text17
  8691     1E17                     __ptext17:	
  8692 ;; *************** function _nanf *****************
  8693 ;; Defined at:
  8694 ;;		line 4 in file "C:\Program Files\Microchip\xc8\v2.46\pic\sources\c99\common\nanf.c"
  8695 ;; Parameters:    Size  Location     Type
  8696 ;;  s               2    0[COMMON] PTR const unsigned char 
  8697 ;;		 -> STR_35(1), 
  8698 ;; Auto vars:     Size  Location     Type
  8699 ;;  u               4    4[COMMON] struct .
  8700 ;; Return value:  Size  Location     Type
  8701 ;;                  4    0[COMMON] float 
  8702 ;; Registers used:
  8703 ;;		wreg
  8704 ;; Tracked objects:
  8705 ;;		On entry : 0/0
  8706 ;;		On exit  : 0/0
  8707 ;;		Unchanged: 0/0
  8708 ;; Data sizes:     COMMON   BANK0   BANK1   BANK2   BANK3   BANK4   BANK5   BANK6   BANK7   BANK8   BANK9  BANK10  BANK1
      +1  BANK12  BANK13  BANK14  BANK15  BANK16  BANK17  BANK18  BANK19  BANK20  BANK21  BANK22  BANK23  BANK24  BANK25
  8709 ;;      Params:         4       0       0       0       0       0       0       0       0       0       0       0       
      +0       0       0       0       0       0       0       0       0       0       0       0       0       0       0
  8710 ;;      Locals:         4       0       0       0       0       0       0       0       0       0       0       0       
      +0       0       0       0       0       0       0       0       0       0       0       0       0       0       0
  8711 ;;      Temps:          0       0       0       0       0       0       0       0       0       0       0       0       
      +0       0       0       0       0       0       0       0       0       0       0       0       0       0       0
  8712 ;;      Totals:         8       0       0       0       0       0       0       0       0       0       0       0       
      +0       0       0       0       0       0       0       0       0       0       0       0       0       0       0
  8713 ;;Total ram usage:        8 bytes
  8714 ;; Hardware stack levels used: 1
  8715 ;; This function calls:
  8716 ;;		Nothing
  8717 ;; This function is called by:
  8718 ;;		_strtof
  8719 ;; This function uses a non-reentrant model
  8720 ;;
  8721                           
  8722     1E17                     _nanf:	
  8723                           ;psect for function _nanf
  8724                           
  8725     1E17                     l3581:	
  8726                           ;incstack = 0
  8727                           ; Regs used in _nanf: [wreg]
  8728                           
  8729     1E17  307F               	movlw	127
  8730     1E18  00F7               	movwf	nanf@u+3
  8731     1E19  30FF               	movlw	255
  8732     1E1A  00F6               	movwf	nanf@u+2
  8733     1E1B  30FF               	movlw	255
  8734     1E1C  00F5               	movwf	nanf@u+1
  8735     1E1D  30FF               	movlw	255
  8736     1E1E  00F4               	movwf	nanf@u
  8737     1E1F  0877               	movf	nanf@u+3,w
  8738     1E20  00F3               	movwf	?_nanf+3
  8739     1E21  0876               	movf	nanf@u+2,w
  8740     1E22  00F2               	movwf	?_nanf+2
  8741     1E23  0875               	movf	nanf@u+1,w
  8742     1E24  00F1               	movwf	?_nanf+1
  8743     1E25  0874               	movf	nanf@u,w
  8744     1E26  00F0               	movwf	?_nanf
  8745     1E27                     l976:
  8746     1E27  0008               	return
  8747     1E28                     __end_of_nanf:
  8748                           
  8749                           	psect	text18
  8750     1F0C                     __ptext18:	
  8751 ;; *************** function _isxdigit *****************
  8752 ;; Defined at:
  8753 ;;		line 8 in file "C:\Program Files\Microchip\xc8\v2.46\pic\sources\c99\common\isxdigit.c"
  8754 ;; Parameters:    Size  Location     Type
  8755 ;;  c               2    0[COMMON] int 
  8756 ;; Auto vars:     Size  Location     Type
  8757 ;;		None
  8758 ;; Return value:  Size  Location     Type
  8759 ;;                  2    0[COMMON] int 
  8760 ;; Registers used:
  8761 ;;		wreg, status,2, status,0
  8762 ;; Tracked objects:
  8763 ;;		On entry : 0/0
  8764 ;;		On exit  : 0/0
  8765 ;;		Unchanged: 0/0
  8766 ;; Data sizes:     COMMON   BANK0   BANK1   BANK2   BANK3   BANK4   BANK5   BANK6   BANK7   BANK8   BANK9  BANK10  BANK1
      +1  BANK12  BANK13  BANK14  BANK15  BANK16  BANK17  BANK18  BANK19  BANK20  BANK21  BANK22  BANK23  BANK24  BANK25
  8767 ;;      Params:         2       0       0       0       0       0       0       0       0       0       0       0       
      +0       0       0       0       0       0       0       0       0       0       0       0       0       0       0
  8768 ;;      Locals:         1       0       0       0       0       0       0       0       0       0       0       0       
      +0       0       0       0       0       0       0       0       0       0       0       0       0       0       0
  8769 ;;      Temps:          4       0       0       0       0       0       0       0       0       0       0       0       
      +0       0       0       0       0       0       0       0       0       0       0       0       0       0       0
  8770 ;;      Totals:         7       0       0       0       0       0       0       0       0       0       0       0       
      +0       0       0       0       0       0       0       0       0       0       0       0       0       0       0
  8771 ;;Total ram usage:        7 bytes
  8772 ;; Hardware stack levels used: 1
  8773 ;; This function calls:
  8774 ;;		Nothing
  8775 ;; This function is called by:
  8776 ;;		_strtof
  8777 ;; This function uses a non-reentrant model
  8778 ;;
  8779                           
  8780     1F0C                     _isxdigit:	
  8781                           ;psect for function _isxdigit
  8782                           
  8783     1F0C                     l3585:	
  8784                           ;incstack = 0
  8785                           ; Regs used in _isxdigit: [wreg+status,2+status,0]
  8786                           
  8787     1F0C  01F6               	clrf	_isxdigit$724
  8788     1F0D  0AF6               	incf	_isxdigit$724,f
  8789     1F0E                     l3587:
  8790     1F0E  30D0               	movlw	208
  8791     1F0F  0770               	addwf	isxdigit@c,w
  8792     1F10  00F2               	movwf	??_isxdigit
  8793     1F11  300A               	movlw	10
  8794     1F12  0272               	subwf	??_isxdigit,w
  8795     1F13  1C03               	skipc
  8796     1F14  2F16               	goto	u5241
  8797     1F15  2F17               	goto	u5240
  8798     1F16                     u5241:
  8799     1F16  2F2D               	goto	l3593
  8800     1F17                     u5240:
  8801     1F17                     l3589:
  8802     1F17  3020               	movlw	32
  8803     1F18  0470               	iorwf	isxdigit@c,w
  8804     1F19  00F2               	movwf	??_isxdigit
  8805     1F1A  3000               	movlw	0
  8806     1F1B  0471               	iorwf	isxdigit@c+1,w
  8807     1F1C  00F3               	movwf	??_isxdigit+1
  8808     1F1D  0872               	movf	??_isxdigit,w
  8809     1F1E  3E9F               	addlw	159
  8810     1F1F  00F4               	movwf	??_isxdigit+2
  8811     1F20  30FF               	movlw	255
  8812     1F21  3D73               	addwfc	??_isxdigit+1,w
  8813     1F22  00F5               	movwf	??_isxdigit+3
  8814     1F23  3000               	movlw	0
  8815     1F24  0275               	subwf	??_isxdigit+3,w
  8816     1F25  3006               	movlw	6
  8817     1F26  1903               	skipnz
  8818     1F27  0274               	subwf	??_isxdigit+2,w
  8819     1F28  1C03               	skipc
  8820     1F29  2F2B               	goto	u5251
  8821     1F2A  2F2C               	goto	u5250
  8822     1F2B                     u5251:
  8823     1F2B  2F2D               	goto	l3593
  8824     1F2C                     u5250:
  8825     1F2C                     l3591:
  8826     1F2C  01F6               	clrf	_isxdigit$724
  8827     1F2D                     l3593:
  8828     1F2D  0876               	movf	_isxdigit$724,w
  8829     1F2E  00F2               	movwf	??_isxdigit
  8830     1F2F  01F3               	clrf	??_isxdigit+1
  8831     1F30  0872               	movf	??_isxdigit,w
  8832     1F31  00F0               	movwf	?_isxdigit
  8833     1F32  0873               	movf	??_isxdigit+1,w
  8834     1F33  00F1               	movwf	?_isxdigit+1
  8835     1F34                     l970:
  8836     1F34  0008               	return
  8837     1F35                     __end_of_isxdigit:
  8838                           
  8839                           	psect	text19
  8840     1E51                     __ptext19:	
  8841 ;; *************** function _isdigit *****************
  8842 ;; Defined at:
  8843 ;;		line 5 in file "C:\Program Files\Microchip\xc8\v2.46\pic\sources\c99\common\isdigit.c"
  8844 ;; Parameters:    Size  Location     Type
  8845 ;;  c               2    0[COMMON] int 
  8846 ;; Auto vars:     Size  Location     Type
  8847 ;;		None
  8848 ;; Return value:  Size  Location     Type
  8849 ;;                  2    0[COMMON] int 
  8850 ;; Registers used:
  8851 ;;		wreg, status,2, status,0
  8852 ;; Tracked objects:
  8853 ;;		On entry : 0/0
  8854 ;;		On exit  : 0/0
  8855 ;;		Unchanged: 0/0
  8856 ;; Data sizes:     COMMON   BANK0   BANK1   BANK2   BANK3   BANK4   BANK5   BANK6   BANK7   BANK8   BANK9  BANK10  BANK1
      +1  BANK12  BANK13  BANK14  BANK15  BANK16  BANK17  BANK18  BANK19  BANK20  BANK21  BANK22  BANK23  BANK24  BANK25
  8857 ;;      Params:         2       0       0       0       0       0       0       0       0       0       0       0       
      +0       0       0       0       0       0       0       0       0       0       0       0       0       0       0
  8858 ;;      Locals:         0       0       0       0       0       0       0       0       0       0       0       0       
      +0       0       0       0       0       0       0       0       0       0       0       0       0       0       0
  8859 ;;      Temps:          4       0       0       0       0       0       0       0       0       0       0       0       
      +0       0       0       0       0       0       0       0       0       0       0       0       0       0       0
  8860 ;;      Totals:         6       0       0       0       0       0       0       0       0       0       0       0       
      +0       0       0       0       0       0       0       0       0       0       0       0       0       0       0
  8861 ;;Total ram usage:        6 bytes
  8862 ;; Hardware stack levels used: 1
  8863 ;; This function calls:
  8864 ;;		Nothing
  8865 ;; This function is called by:
  8866 ;;		_strtof
  8867 ;; This function uses a non-reentrant model
  8868 ;;
  8869                           
  8870     1E51                     _isdigit:	
  8871                           ;psect for function _isdigit
  8872                           
  8873     1E51                     l3597:	
  8874                           ;incstack = 0
  8875                           ; Regs used in _isdigit: [wreg+status,2+status,0]
  8876                           
  8877     1E51  0870               	movf	isdigit@c,w
  8878     1E52  3ED0               	addlw	208
  8879     1E53  00F2               	movwf	??_isdigit
  8880     1E54  30FF               	movlw	255
  8881     1E55  3D71               	addwfc	isdigit@c+1,w
  8882     1E56  00F3               	movwf	??_isdigit+1
  8883     1E57  3000               	movlw	0
  8884     1E58  0273               	subwf	??_isdigit+1,w
  8885     1E59  300A               	movlw	10
  8886     1E5A  1903               	skipnz
  8887     1E5B  0272               	subwf	??_isdigit,w
  8888     1E5C  1C03               	skipc
  8889     1E5D  2E5F               	goto	u5261
  8890     1E5E  2E61               	goto	u5260
  8891     1E5F                     u5261:
  8892     1E5F  3001               	movlw	1
  8893     1E60  2E62               	goto	u5270
  8894     1E61                     u5260:
  8895     1E61  3000               	movlw	0
  8896     1E62                     u5270:
  8897     1E62  00F4               	movwf	??_isdigit+2
  8898     1E63  01F5               	clrf	??_isdigit+3
  8899     1E64  0874               	movf	??_isdigit+2,w
  8900     1E65  00F0               	movwf	?_isdigit
  8901     1E66  0875               	movf	??_isdigit+3,w
  8902     1E67  00F1               	movwf	?_isdigit+1
  8903     1E68                     l962:
  8904     1E68  0008               	return
  8905     1E69                     __end_of_isdigit:
  8906                           
  8907                           	psect	text20
  8908     14B2                     __ptext20:	
  8909 ;; *************** function ___xxtofl *****************
  8910 ;; Defined at:
  8911 ;;		line 10 in file "C:\Program Files\Microchip\xc8\v2.46\pic\sources\c99\common\xxtofl.c"
  8912 ;; Parameters:    Size  Location     Type
  8913 ;;  sign            1    wreg     unsigned char 
  8914 ;;  val             4    0[COMMON] long 
  8915 ;; Auto vars:     Size  Location     Type
  8916 ;;  sign            1    8[COMMON] unsigned char 
  8917 ;;  arg             4   10[COMMON] unsigned long 
  8918 ;;  exp             1    9[COMMON] unsigned char 
  8919 ;; Return value:  Size  Location     Type
  8920 ;;                  4    0[COMMON] unsigned char 
  8921 ;; Registers used:
  8922 ;;		wreg, status,2, status,0
  8923 ;; Tracked objects:
  8924 ;;		On entry : 0/0
  8925 ;;		On exit  : 0/0
  8926 ;;		Unchanged: 0/0
  8927 ;; Data sizes:     COMMON   BANK0   BANK1   BANK2   BANK3   BANK4   BANK5   BANK6   BANK7   BANK8   BANK9  BANK10  BANK1
      +1  BANK12  BANK13  BANK14  BANK15  BANK16  BANK17  BANK18  BANK19  BANK20  BANK21  BANK22  BANK23  BANK24  BANK25
  8928 ;;      Params:         4       0       0       0       0       0       0       0       0       0       0       0       
      +0       0       0       0       0       0       0       0       0       0       0       0       0       0       0
  8929 ;;      Locals:         6       0       0       0       0       0       0       0       0       0       0       0       
      +0       0       0       0       0       0       0       0       0       0       0       0       0       0       0
  8930 ;;      Temps:          4       0       0       0       0       0       0       0       0       0       0       0       
      +0       0       0       0       0       0       0       0       0       0       0       0       0       0       0
  8931 ;;      Totals:        14       0       0       0       0       0       0       0       0       0       0       0       
      +0       0       0       0       0       0       0       0       0       0       0       0       0       0       0
  8932 ;;Total ram usage:       14 bytes
  8933 ;; Hardware stack levels used: 1
  8934 ;; This function calls:
  8935 ;;		Nothing
  8936 ;; This function is called by:
  8937 ;;		_print_float
  8938 ;;		_strtof
  8939 ;; This function uses a non-reentrant model
  8940 ;;
  8941                           
  8942     14B2                     ___xxtofl:	
  8943                           ;psect for function ___xxtofl
  8944                           
  8945                           
  8946                           ;incstack = 0
  8947                           ; Regs used in ___xxtofl: [wreg+status,2+status,0]
  8948                           ;___xxtofl@sign stored from wreg
  8949     14B2  00F8               	movwf	___xxtofl@sign
  8950     14B3                     l3201:
  8951     14B3  0878               	movf	___xxtofl@sign,w
  8952     14B4  1903               	btfsc	3,2
  8953     14B5  2CB7               	goto	u4501
  8954     14B6  2CB8               	goto	u4500
  8955     14B7                     u4501:
  8956     14B7  2CCC               	goto	l3207
  8957     14B8                     u4500:
  8958     14B8                     l3203:
  8959     14B8  1FF3               	btfss	___xxtofl@val+3,7
  8960     14B9  2CBB               	goto	u4511
  8961     14BA  2CBC               	goto	u4510
  8962     14BB                     u4511:
  8963     14BB  2CCC               	goto	l3207
  8964     14BC                     u4510:
  8965     14BC                     l3205:
  8966     14BC  0970               	comf	___xxtofl@val,w
  8967     14BD  00FA               	movwf	___xxtofl@arg
  8968     14BE  0971               	comf	___xxtofl@val+1,w
  8969     14BF  00FB               	movwf	___xxtofl@arg+1
  8970     14C0  0972               	comf	___xxtofl@val+2,w
  8971     14C1  00FC               	movwf	___xxtofl@arg+2
  8972     14C2  0973               	comf	___xxtofl@val+3,w
  8973     14C3  00FD               	movwf	___xxtofl@arg+3
  8974     14C4  0AFA               	incf	___xxtofl@arg,f
  8975     14C5  1903               	skipnz
  8976     14C6  0AFB               	incf	___xxtofl@arg+1,f
  8977     14C7  1903               	skipnz
  8978     14C8  0AFC               	incf	___xxtofl@arg+2,f
  8979     14C9  1903               	skipnz
  8980     14CA  0AFD               	incf	___xxtofl@arg+3,f
  8981     14CB  2CD4               	goto	l768
  8982     14CC                     l3207:
  8983     14CC  0873               	movf	___xxtofl@val+3,w
  8984     14CD  00FD               	movwf	___xxtofl@arg+3
  8985     14CE  0872               	movf	___xxtofl@val+2,w
  8986     14CF  00FC               	movwf	___xxtofl@arg+2
  8987     14D0  0871               	movf	___xxtofl@val+1,w
  8988     14D1  00FB               	movwf	___xxtofl@arg+1
  8989     14D2  0870               	movf	___xxtofl@val,w
  8990     14D3  00FA               	movwf	___xxtofl@arg
  8991     14D4                     l768:
  8992     14D4  0873               	movf	___xxtofl@val+3,w
  8993     14D5  0472               	iorwf	___xxtofl@val+2,w
  8994     14D6  0471               	iorwf	___xxtofl@val+1,w
  8995     14D7  0470               	iorwf	___xxtofl@val,w
  8996     14D8  1D03               	skipz
  8997     14D9  2CDB               	goto	u4521
  8998     14DA  2CDC               	goto	u4520
  8999     14DB                     u4521:
  9000     14DB  2CE5               	goto	l3213
  9001     14DC                     u4520:
  9002     14DC                     l3209:
  9003     14DC  3000               	movlw	0
  9004     14DD  00F3               	movwf	?___xxtofl+3
  9005     14DE  3000               	movlw	0
  9006     14DF  00F2               	movwf	?___xxtofl+2
  9007     14E0  3000               	movlw	0
  9008     14E1  00F1               	movwf	?___xxtofl+1
  9009     14E2  3000               	movlw	0
  9010     14E3  00F0               	movwf	?___xxtofl
  9011     14E4  2D5B               	goto	l770
  9012     14E5                     l3213:
  9013     14E5  3096               	movlw	150
  9014     14E6  00F9               	movwf	___xxtofl@exp
  9015     14E7  2CF3               	goto	l3217
  9016     14E8                     l3215:
  9017     14E8  3001               	movlw	1
  9018     14E9  00F4               	movwf	??___xxtofl
  9019     14EA  0874               	movf	??___xxtofl,w
  9020     14EB  07F9               	addwf	___xxtofl@exp,f
  9021     14EC  3001               	movlw	1
  9022     14ED                     u4535:
  9023     14ED  36FD               	lsrf	___xxtofl@arg+3,f
  9024     14EE  0CFC               	rrf	___xxtofl@arg+2,f
  9025     14EF  0CFB               	rrf	___xxtofl@arg+1,f
  9026     14F0  0CFA               	rrf	___xxtofl@arg,f
  9027     14F1  0B89               	decfsz	9,f
  9028     14F2  2CED               	goto	u4535
  9029     14F3                     l3217:
  9030     14F3  30FE               	movlw	254
  9031     14F4  057D               	andwf	___xxtofl@arg+3,w
  9032     14F5  1D03               	btfss	3,2
  9033     14F6  2CF8               	goto	u4541
  9034     14F7  2CF9               	goto	u4540
  9035     14F8                     u4541:
  9036     14F8  2CE8               	goto	l3215
  9037     14F9                     u4540:
  9038     14F9  2D0D               	goto	l774
  9039     14FA                     l3219:
  9040     14FA  3001               	movlw	1
  9041     14FB  00F4               	movwf	??___xxtofl
  9042     14FC  0874               	movf	??___xxtofl,w
  9043     14FD  07F9               	addwf	___xxtofl@exp,f
  9044     14FE                     l3221:
  9045     14FE  3001               	movlw	1
  9046     14FF  07FA               	addwf	___xxtofl@arg,f
  9047     1500  3000               	movlw	0
  9048     1501  3DFB               	addwfc	___xxtofl@arg+1,f
  9049     1502  3000               	movlw	0
  9050     1503  3DFC               	addwfc	___xxtofl@arg+2,f
  9051     1504  3000               	movlw	0
  9052     1505  3DFD               	addwfc	___xxtofl@arg+3,f
  9053     1506                     l3223:
  9054     1506  3001               	movlw	1
  9055     1507                     u4555:
  9056     1507  36FD               	lsrf	___xxtofl@arg+3,f
  9057     1508  0CFC               	rrf	___xxtofl@arg+2,f
  9058     1509  0CFB               	rrf	___xxtofl@arg+1,f
  9059     150A  0CFA               	rrf	___xxtofl@arg,f
  9060     150B  0B89               	decfsz	9,f
  9061     150C  2D07               	goto	u4555
  9062     150D                     l774:
  9063     150D  30FF               	movlw	255
  9064     150E  057D               	andwf	___xxtofl@arg+3,w
  9065     150F  1D03               	btfss	3,2
  9066     1510  2D12               	goto	u4561
  9067     1511  2D13               	goto	u4560
  9068     1512                     u4561:
  9069     1512  2CFA               	goto	l3219
  9070     1513                     u4560:
  9071     1513  2D1D               	goto	l3227
  9072     1514                     l3225:
  9073     1514  3001               	movlw	1
  9074     1515  02F9               	subwf	___xxtofl@exp,f
  9075     1516  3001               	movlw	1
  9076     1517                     u4575:
  9077     1517  35FA               	lslf	___xxtofl@arg,f
  9078     1518  0DFB               	rlf	___xxtofl@arg+1,f
  9079     1519  0DFC               	rlf	___xxtofl@arg+2,f
  9080     151A  0DFD               	rlf	___xxtofl@arg+3,f
  9081     151B  0B89               	decfsz	9,f
  9082     151C  2D17               	goto	u4575
  9083     151D                     l3227:
  9084     151D  1BFC               	btfsc	___xxtofl@arg+2,7
  9085     151E  2D20               	goto	u4581
  9086     151F  2D21               	goto	u4580
  9087     1520                     u4581:
  9088     1520  2D27               	goto	l781
  9089     1521                     u4580:
  9090     1521                     l3229:
  9091     1521  3002               	movlw	2
  9092     1522  0279               	subwf	___xxtofl@exp,w
  9093     1523  1803               	skipnc
  9094     1524  2D26               	goto	u4591
  9095     1525  2D27               	goto	u4590
  9096     1526                     u4591:
  9097     1526  2D14               	goto	l3225
  9098     1527                     u4590:
  9099     1527                     l781:
  9100     1527  1879               	btfsc	___xxtofl@exp,0
  9101     1528  2D2A               	goto	u4601
  9102     1529  2D2B               	goto	u4600
  9103     152A                     u4601:
  9104     152A  2D33               	goto	l782
  9105     152B                     u4600:
  9106     152B                     l3231:
  9107     152B  30FF               	movlw	255
  9108     152C  05FA               	andwf	___xxtofl@arg,f
  9109     152D  30FF               	movlw	255
  9110     152E  05FB               	andwf	___xxtofl@arg+1,f
  9111     152F  307F               	movlw	127
  9112     1530  05FC               	andwf	___xxtofl@arg+2,f
  9113     1531  30FF               	movlw	255
  9114     1532  05FD               	andwf	___xxtofl@arg+3,f
  9115     1533                     l782:
  9116     1533  1003               	clrc
  9117     1534  0CF9               	rrf	___xxtofl@exp,f
  9118     1535                     l3233:
  9119     1535  0879               	movf	___xxtofl@exp,w
  9120     1536  00F4               	movwf	??___xxtofl
  9121     1537  01F5               	clrf	??___xxtofl+1
  9122     1538  01F6               	clrf	??___xxtofl+2
  9123     1539  01F7               	clrf	??___xxtofl+3
  9124     153A  3018               	movlw	24
  9125     153B                     u4615:
  9126     153B  35F4               	lslf	??___xxtofl,f
  9127     153C  0DF5               	rlf	??___xxtofl+1,f
  9128     153D  0DF6               	rlf	??___xxtofl+2,f
  9129     153E  0DF7               	rlf	??___xxtofl+3,f
  9130     153F                     u4610:
  9131     153F  0B89               	decfsz	9,f
  9132     1540  2D3B               	goto	u4615
  9133     1541  0874               	movf	??___xxtofl,w
  9134     1542  04FA               	iorwf	___xxtofl@arg,f
  9135     1543  0875               	movf	??___xxtofl+1,w
  9136     1544  04FB               	iorwf	___xxtofl@arg+1,f
  9137     1545  0876               	movf	??___xxtofl+2,w
  9138     1546  04FC               	iorwf	___xxtofl@arg+2,f
  9139     1547  0877               	movf	??___xxtofl+3,w
  9140     1548  04FD               	iorwf	___xxtofl@arg+3,f
  9141     1549                     l3235:
  9142     1549  0878               	movf	___xxtofl@sign,w
  9143     154A  1903               	btfsc	3,2
  9144     154B  2D4D               	goto	u4621
  9145     154C  2D4E               	goto	u4620
  9146     154D                     u4621:
  9147     154D  2D53               	goto	l3241
  9148     154E                     u4620:
  9149     154E                     l3237:
  9150     154E  1FF3               	btfss	___xxtofl@val+3,7
  9151     154F  2D51               	goto	u4631
  9152     1550  2D52               	goto	u4630
  9153     1551                     u4631:
  9154     1551  2D53               	goto	l3241
  9155     1552                     u4630:
  9156     1552                     l3239:
  9157     1552  17FD               	bsf	___xxtofl@arg+3,7
  9158     1553                     l3241:
  9159     1553  087D               	movf	___xxtofl@arg+3,w
  9160     1554  00F3               	movwf	?___xxtofl+3
  9161     1555  087C               	movf	___xxtofl@arg+2,w
  9162     1556  00F2               	movwf	?___xxtofl+2
  9163     1557  087B               	movf	___xxtofl@arg+1,w
  9164     1558  00F1               	movwf	?___xxtofl+1
  9165     1559  087A               	movf	___xxtofl@arg,w
  9166     155A  00F0               	movwf	?___xxtofl
  9167     155B                     l770:
  9168     155B  0008               	return
  9169     155C                     __end_of___xxtofl:
  9170                           
  9171                           	psect	text21
  9172     1E86                     __ptext21:	
  9173 ;; *************** function ___wmul *****************
  9174 ;; Defined at:
  9175 ;;		line 15 in file "C:\Program Files\Microchip\xc8\v2.46\pic\sources\c99\common\Umul16.c"
  9176 ;; Parameters:    Size  Location     Type
  9177 ;;  multiplier      2    0[COMMON] unsigned int 
  9178 ;;  multiplicand    2    2[COMMON] unsigned int 
  9179 ;; Auto vars:     Size  Location     Type
  9180 ;;  product         2    4[COMMON] unsigned int 
  9181 ;; Return value:  Size  Location     Type
  9182 ;;                  2    0[COMMON] unsigned int 
  9183 ;; Registers used:
  9184 ;;		wreg, status,2, status,0
  9185 ;; Tracked objects:
  9186 ;;		On entry : 0/0
  9187 ;;		On exit  : 0/0
  9188 ;;		Unchanged: 0/0
  9189 ;; Data sizes:     COMMON   BANK0   BANK1   BANK2   BANK3   BANK4   BANK5   BANK6   BANK7   BANK8   BANK9  BANK10  BANK1
      +1  BANK12  BANK13  BANK14  BANK15  BANK16  BANK17  BANK18  BANK19  BANK20  BANK21  BANK22  BANK23  BANK24  BANK25
  9190 ;;      Params:         4       0       0       0       0       0       0       0       0       0       0       0       
      +0       0       0       0       0       0       0       0       0       0       0       0       0       0       0
  9191 ;;      Locals:         2       0       0       0       0       0       0       0       0       0       0       0       
      +0       0       0       0       0       0       0       0       0       0       0       0       0       0       0
  9192 ;;      Temps:          0       0       0       0       0       0       0       0       0       0       0       0       
      +0       0       0       0       0       0       0       0       0       0       0       0       0       0       0
  9193 ;;      Totals:         6       0       0       0       0       0       0       0       0       0       0       0       
      +0       0       0       0       0       0       0       0       0       0       0       0       0       0       0
  9194 ;;Total ram usage:        6 bytes
  9195 ;; Hardware stack levels used: 1
  9196 ;; This function calls:
  9197 ;;		Nothing
  9198 ;; This function is called by:
  9199 ;;		_itoa
  9200 ;;		_strtof
  9201 ;; This function uses a non-reentrant model
  9202 ;;
  9203                           
  9204     1E86                     ___wmul:	
  9205                           ;psect for function ___wmul
  9206                           
  9207     1E86                     l2653:	
  9208                           ;incstack = 0
  9209                           ; Regs used in ___wmul: [wreg+status,2+status,0]
  9210                           
  9211     1E86  01F4               	clrf	___wmul@product
  9212     1E87  01F5               	clrf	___wmul@product+1
  9213     1E88                     l2655:
  9214     1E88  1C70               	btfss	___wmul@multiplier,0
  9215     1E89  2E8B               	goto	u3341
  9216     1E8A  2E8C               	goto	u3340
  9217     1E8B                     u3341:
  9218     1E8B  2E90               	goto	l327
  9219     1E8C                     u3340:
  9220     1E8C                     l2657:
  9221     1E8C  0872               	movf	___wmul@multiplicand,w
  9222     1E8D  07F4               	addwf	___wmul@product,f
  9223     1E8E  0873               	movf	___wmul@multiplicand+1,w
  9224     1E8F  3DF5               	addwfc	___wmul@product+1,f
  9225     1E90                     l327:
  9226     1E90  3001               	movlw	1
  9227     1E91                     u3355:
  9228     1E91  35F2               	lslf	___wmul@multiplicand,f
  9229     1E92  0DF3               	rlf	___wmul@multiplicand+1,f
  9230     1E93  0B89               	decfsz	9,f
  9231     1E94  2E91               	goto	u3355
  9232     1E95                     l2659:
  9233     1E95  3001               	movlw	1
  9234     1E96                     u3365:
  9235     1E96  36F1               	lsrf	___wmul@multiplier+1,f
  9236     1E97  0CF0               	rrf	___wmul@multiplier,f
  9237     1E98  0B89               	decfsz	9,f
  9238     1E99  2E96               	goto	u3365
  9239     1E9A                     l2661:
  9240     1E9A  0870               	movf	___wmul@multiplier,w
  9241     1E9B  0471               	iorwf	___wmul@multiplier+1,w
  9242     1E9C  1D03               	btfss	3,2
  9243     1E9D  2E9F               	goto	u3371
  9244     1E9E  2EA0               	goto	u3370
  9245     1E9F                     u3371:
  9246     1E9F  2E88               	goto	l2655
  9247     1EA0                     u3370:
  9248     1EA0                     l2663:
  9249     1EA0  0875               	movf	___wmul@product+1,w
  9250     1EA1  00F1               	movwf	?___wmul+1
  9251     1EA2  0874               	movf	___wmul@product,w
  9252     1EA3  00F0               	movwf	?___wmul
  9253     1EA4                     l329:
  9254     1EA4  0008               	return
  9255     1EA5                     __end_of___wmul:
  9256                           
  9257                           	psect	text22
  9258     0013                     __ptext22:	
  9259 ;; *************** function ___lmul *****************
  9260 ;; Defined at:
  9261 ;;		line 15 in file "C:\Program Files\Microchip\xc8\v2.46\pic\sources\c99\common\Umul32.c"
  9262 ;; Parameters:    Size  Location     Type
  9263 ;;  multiplier      4    0[COMMON] unsigned long 
  9264 ;;  multiplicand    4    4[COMMON] unsigned long 
  9265 ;; Auto vars:     Size  Location     Type
  9266 ;;  product         4    8[COMMON] unsigned long 
  9267 ;; Return value:  Size  Location     Type
  9268 ;;                  4    0[COMMON] unsigned long 
  9269 ;; Registers used:
  9270 ;;		wreg, status,2, status,0
  9271 ;; Tracked objects:
  9272 ;;		On entry : 0/0
  9273 ;;		On exit  : 0/0
  9274 ;;		Unchanged: 0/0
  9275 ;; Data sizes:     COMMON   BANK0   BANK1   BANK2   BANK3   BANK4   BANK5   BANK6   BANK7   BANK8   BANK9  BANK10  BANK1
      +1  BANK12  BANK13  BANK14  BANK15  BANK16  BANK17  BANK18  BANK19  BANK20  BANK21  BANK22  BANK23  BANK24  BANK25
  9276 ;;      Params:         8       0       0       0       0       0       0       0       0       0       0       0       
      +0       0       0       0       0       0       0       0       0       0       0       0       0       0       0
  9277 ;;      Locals:         4       0       0       0       0       0       0       0       0       0       0       0       
      +0       0       0       0       0       0       0       0       0       0       0       0       0       0       0
  9278 ;;      Temps:          0       0       0       0       0       0       0       0       0       0       0       0       
      +0       0       0       0       0       0       0       0       0       0       0       0       0       0       0
  9279 ;;      Totals:        12       0       0       0       0       0       0       0       0       0       0       0       
      +0       0       0       0       0       0       0       0       0       0       0       0       0       0       0
  9280 ;;Total ram usage:       12 bytes
  9281 ;; Hardware stack levels used: 1
  9282 ;; This function calls:
  9283 ;;		Nothing
  9284 ;; This function is called by:
  9285 ;;		_strtof
  9286 ;; This function uses a non-reentrant model
  9287 ;;
  9288                           
  9289     0013                     ___lmul:	
  9290                           ;psect for function ___lmul
  9291                           
  9292     0013                     l3415:	
  9293                           ;incstack = 0
  9294                           ; Regs used in ___lmul: [wreg+status,2+status,0]
  9295                           
  9296     0013  3000               	movlw	0
  9297     0014  00FB               	movwf	___lmul@product+3
  9298     0015  3000               	movlw	0
  9299     0016  00FA               	movwf	___lmul@product+2
  9300     0017  3000               	movlw	0
  9301     0018  00F9               	movwf	___lmul@product+1
  9302     0019  3000               	movlw	0
  9303     001A  00F8               	movwf	___lmul@product
  9304     001B                     l3417:
  9305     001B  1C70               	btfss	___lmul@multiplier,0
  9306     001C  281E               	goto	u4881
  9307     001D  281F               	goto	u4880
  9308     001E                     u4881:
  9309     001E  2827               	goto	l3421
  9310     001F                     u4880:
  9311     001F                     l3419:
  9312     001F  0874               	movf	___lmul@multiplicand,w
  9313     0020  07F8               	addwf	___lmul@product,f
  9314     0021  0875               	movf	___lmul@multiplicand+1,w
  9315     0022  3DF9               	addwfc	___lmul@product+1,f
  9316     0023  0876               	movf	___lmul@multiplicand+2,w
  9317     0024  3DFA               	addwfc	___lmul@product+2,f
  9318     0025  0877               	movf	___lmul@multiplicand+3,w
  9319     0026  3DFB               	addwfc	___lmul@product+3,f
  9320     0027                     l3421:
  9321     0027  3001               	movlw	1
  9322     0028                     u4895:
  9323     0028  35F4               	lslf	___lmul@multiplicand,f
  9324     0029  0DF5               	rlf	___lmul@multiplicand+1,f
  9325     002A  0DF6               	rlf	___lmul@multiplicand+2,f
  9326     002B  0DF7               	rlf	___lmul@multiplicand+3,f
  9327     002C  0B89               	decfsz	9,f
  9328     002D  2828               	goto	u4895
  9329     002E                     l3423:
  9330     002E  3001               	movlw	1
  9331     002F                     u4905:
  9332     002F  36F3               	lsrf	___lmul@multiplier+3,f
  9333     0030  0CF2               	rrf	___lmul@multiplier+2,f
  9334     0031  0CF1               	rrf	___lmul@multiplier+1,f
  9335     0032  0CF0               	rrf	___lmul@multiplier,f
  9336     0033  0B89               	decfsz	9,f
  9337     0034  282F               	goto	u4905
  9338     0035  0873               	movf	___lmul@multiplier+3,w
  9339     0036  0472               	iorwf	___lmul@multiplier+2,w
  9340     0037  0471               	iorwf	___lmul@multiplier+1,w
  9341     0038  0470               	iorwf	___lmul@multiplier,w
  9342     0039  1D03               	skipz
  9343     003A  283C               	goto	u4911
  9344     003B  283D               	goto	u4910
  9345     003C                     u4911:
  9346     003C  281B               	goto	l3417
  9347     003D                     u4910:
  9348     003D                     l3425:
  9349     003D  087B               	movf	___lmul@product+3,w
  9350     003E  00F3               	movwf	?___lmul+3
  9351     003F  087A               	movf	___lmul@product+2,w
  9352     0040  00F2               	movwf	?___lmul+2
  9353     0041  0879               	movf	___lmul@product+1,w
  9354     0042  00F1               	movwf	?___lmul+1
  9355     0043  0878               	movf	___lmul@product,w
  9356     0044  00F0               	movwf	?___lmul
  9357     0045                     l341:
  9358     0045  0008               	return
  9359     0046                     __end_of___lmul:
  9360                           
  9361                           	psect	text23
  9362     0008                     __ptext23:	
  9363 ;; *************** function ___flneg *****************
  9364 ;; Defined at:
  9365 ;;		line 15 in file "C:\Program Files\Microchip\xc8\v2.46\pic\sources\c99\common\flneg.c"
  9366 ;; Parameters:    Size  Location     Type
  9367 ;;  f1              4    0[COMMON] unsigned long 
  9368 ;; Auto vars:     Size  Location     Type
  9369 ;;		None
  9370 ;; Return value:  Size  Location     Type
  9371 ;;                  4    0[COMMON] unsigned long 
  9372 ;; Registers used:
  9373 ;;		wreg
  9374 ;; Tracked objects:
  9375 ;;		On entry : 0/0
  9376 ;;		On exit  : 0/0
  9377 ;;		Unchanged: 0/0
  9378 ;; Data sizes:     COMMON   BANK0   BANK1   BANK2   BANK3   BANK4   BANK5   BANK6   BANK7   BANK8   BANK9  BANK10  BANK1
      +1  BANK12  BANK13  BANK14  BANK15  BANK16  BANK17  BANK18  BANK19  BANK20  BANK21  BANK22  BANK23  BANK24  BANK25
  9379 ;;      Params:         4       0       0       0       0       0       0       0       0       0       0       0       
      +0       0       0       0       0       0       0       0       0       0       0       0       0       0       0
  9380 ;;      Locals:         0       0       0       0       0       0       0       0       0       0       0       0       
      +0       0       0       0       0       0       0       0       0       0       0       0       0       0       0
  9381 ;;      Temps:          0       0       0       0       0       0       0       0       0       0       0       0       
      +0       0       0       0       0       0       0       0       0       0       0       0       0       0       0
  9382 ;;      Totals:         4       0       0       0       0       0       0       0       0       0       0       0       
      +0       0       0       0       0       0       0       0       0       0       0       0       0       0       0
  9383 ;;Total ram usage:        4 bytes
  9384 ;; Hardware stack levels used: 1
  9385 ;; This function calls:
  9386 ;;		Nothing
  9387 ;; This function is called by:
  9388 ;;		_print_float
  9389 ;;		_strtof
  9390 ;; This function uses a non-reentrant model
  9391 ;;
  9392                           
  9393     0008                     ___flneg:	
  9394                           ;psect for function ___flneg
  9395                           
  9396     0008                     l3011:	
  9397                           ;incstack = 0
  9398                           ; Regs used in ___flneg: [wreg]
  9399                           
  9400     0008  0873               	movf	___flneg@f1+3,w
  9401     0009  0472               	iorwf	___flneg@f1+2,w
  9402     000A  0471               	iorwf	___flneg@f1+1,w
  9403     000B  0470               	iorwf	___flneg@f1,w
  9404     000C  1903               	skipnz
  9405     000D  280F               	goto	u4131
  9406     000E  2810               	goto	u4130
  9407     000F                     u4131:
  9408     000F  2812               	goto	l3015
  9409     0010                     u4130:
  9410     0010                     l3013:
  9411     0010  3080               	movlw	128
  9412     0011  06F3               	xorwf	___flneg@f1+3,f
  9413     0012                     l3015:
  9414     0012                     l517:
  9415     0012  0008               	return
  9416     0013                     __end_of___flneg:
  9417                           
  9418                           	psect	text24
  9419     0A73                     __ptext24:	
  9420 ;; *************** function ___flmul *****************
  9421 ;; Defined at:
  9422 ;;		line 8 in file "C:\Program Files\Microchip\xc8\v2.46\pic\sources\c99\common\sprcmul.c"
  9423 ;; Parameters:    Size  Location     Type
  9424 ;;  b               4   16[BANK0 ] unsigned long 
  9425 ;;  a               4   20[BANK0 ] unsigned long 
  9426 ;; Auto vars:     Size  Location     Type
  9427 ;;  prod            4   36[BANK0 ] struct .
  9428 ;;  grs             4   30[BANK0 ] unsigned long 
  9429 ;;  temp            2   40[BANK0 ] struct .
  9430 ;;  bexp            1   35[BANK0 ] unsigned char 
  9431 ;;  aexp            1   34[BANK0 ] unsigned char 
  9432 ;;  sign            1   29[BANK0 ] unsigned char 
  9433 ;; Return value:  Size  Location     Type
  9434 ;;                  4   16[BANK0 ] unsigned char 
  9435 ;; Registers used:
  9436 ;;		wreg, status,2, status,0, pclath, cstack
  9437 ;; Tracked objects:
  9438 ;;		On entry : 0/0
  9439 ;;		On exit  : 0/0
  9440 ;;		Unchanged: 0/0
  9441 ;; Data sizes:     COMMON   BANK0   BANK1   BANK2   BANK3   BANK4   BANK5   BANK6   BANK7   BANK8   BANK9  BANK10  BANK1
      +1  BANK12  BANK13  BANK14  BANK15  BANK16  BANK17  BANK18  BANK19  BANK20  BANK21  BANK22  BANK23  BANK24  BANK25
  9442 ;;      Params:         0       8       0       0       0       0       0       0       0       0       0       0       
      +0       0       0       0       0       0       0       0       0       0       0       0       0       0       0
  9443 ;;      Locals:         0      13       0       0       0       0       0       0       0       0       0       0       
      +0       0       0       0       0       0       0       0       0       0       0       0       0       0       0
  9444 ;;      Temps:          0       5       0       0       0       0       0       0       0       0       0       0       
      +0       0       0       0       0       0       0       0       0       0       0       0       0       0       0
  9445 ;;      Totals:         0      26       0       0       0       0       0       0       0       0       0       0       
      +0       0       0       0       0       0       0       0       0       0       0       0       0       0       0
  9446 ;;Total ram usage:       26 bytes
  9447 ;; Hardware stack levels used: 1
  9448 ;; Hardware stack levels required when called: 1
  9449 ;; This function calls:
  9450 ;;		__Umul8_16
  9451 ;; This function is called by:
  9452 ;;		_print_float
  9453 ;;		_strtof
  9454 ;; This function uses a non-reentrant model
  9455 ;;
  9456                           
  9457     0A73                     ___flmul:	
  9458                           ;psect for function ___flmul
  9459                           
  9460     0A73                     l3061:	
  9461                           ;incstack = 0
  9462                           ; Regs used in ___flmul: [wreg+status,2+status,0+pclath+cstack]
  9463                           
  9464     0A73  0020               	movlb	0	; select bank0
  9465     0A74  0833               	movf	___flmul@b+3,w
  9466     0A75  3980               	andlw	128
  9467     0A76  00BD               	movwf	___flmul@sign
  9468     0A77                     l3063:
  9469     0A77  3533               	lslf	___flmul@b+3,w
  9470     0A78  00C3               	movwf	___flmul@bexp
  9471     0A79                     l3065:
  9472     0A79  1FB2               	btfss	___flmul@b+2,7
  9473     0A7A  2A7C               	goto	u4241
  9474     0A7B  2A7D               	goto	u4240
  9475     0A7C                     u4241:
  9476     0A7C  2A7E               	goto	l3069
  9477     0A7D                     u4240:
  9478     0A7D                     l3067:
  9479     0A7D  1443               	bsf	___flmul@bexp,0
  9480     0A7E                     l3069:
  9481     0A7E  0843               	movf	___flmul@bexp,w
  9482     0A7F  1903               	btfsc	3,2
  9483     0A80  2A82               	goto	u4251
  9484     0A81  2A83               	goto	u4250
  9485     0A82                     u4251:
  9486     0A82  2A92               	goto	l3077
  9487     0A83                     u4250:
  9488     0A83                     l3071:
  9489     0A83  0A43               	incf	___flmul@bexp,w
  9490     0A84  1D03               	btfss	3,2
  9491     0A85  2A87               	goto	u4261
  9492     0A86  2A88               	goto	u4260
  9493     0A87                     u4261:
  9494     0A87  2A90               	goto	l3075
  9495     0A88                     u4260:
  9496     0A88                     l3073:
  9497     0A88  3000               	movlw	0
  9498     0A89  00B3               	movwf	___flmul@b+3
  9499     0A8A  3000               	movlw	0
  9500     0A8B  00B2               	movwf	___flmul@b+2
  9501     0A8C  3000               	movlw	0
  9502     0A8D  00B1               	movwf	___flmul@b+1
  9503     0A8E  3000               	movlw	0
  9504     0A8F  00B0               	movwf	___flmul@b
  9505     0A90                     l3075:
  9506     0A90  17B2               	bsf	___flmul@b+2,7
  9507     0A91  2A9A               	goto	l3079
  9508     0A92                     l3077:
  9509     0A92  3000               	movlw	0
  9510     0A93  00B3               	movwf	___flmul@b+3
  9511     0A94  3000               	movlw	0
  9512     0A95  00B2               	movwf	___flmul@b+2
  9513     0A96  3000               	movlw	0
  9514     0A97  00B1               	movwf	___flmul@b+1
  9515     0A98  3000               	movlw	0
  9516     0A99  00B0               	movwf	___flmul@b
  9517     0A9A                     l3079:
  9518     0A9A  0837               	movf	___flmul@a+3,w
  9519     0A9B  3980               	andlw	128
  9520     0A9C  00B8               	movwf	??___flmul
  9521     0A9D  0838               	movf	??___flmul,w
  9522     0A9E  06BD               	xorwf	___flmul@sign,f
  9523     0A9F                     l3081:
  9524     0A9F  3537               	lslf	___flmul@a+3,w
  9525     0AA0  00C2               	movwf	___flmul@aexp
  9526     0AA1                     l3083:
  9527     0AA1  1FB6               	btfss	___flmul@a+2,7
  9528     0AA2  2AA4               	goto	u4271
  9529     0AA3  2AA5               	goto	u4270
  9530     0AA4                     u4271:
  9531     0AA4  2AA6               	goto	l3087
  9532     0AA5                     u4270:
  9533     0AA5                     l3085:
  9534     0AA5  1442               	bsf	___flmul@aexp,0
  9535     0AA6                     l3087:
  9536     0AA6  0842               	movf	___flmul@aexp,w
  9537     0AA7  1903               	btfsc	3,2
  9538     0AA8  2AAA               	goto	u4281
  9539     0AA9  2AAB               	goto	u4280
  9540     0AAA                     u4281:
  9541     0AAA  2ABA               	goto	l3095
  9542     0AAB                     u4280:
  9543     0AAB                     l3089:
  9544     0AAB  0A42               	incf	___flmul@aexp,w
  9545     0AAC  1D03               	btfss	3,2
  9546     0AAD  2AAF               	goto	u4291
  9547     0AAE  2AB0               	goto	u4290
  9548     0AAF                     u4291:
  9549     0AAF  2AB8               	goto	l3093
  9550     0AB0                     u4290:
  9551     0AB0                     l3091:
  9552     0AB0  3000               	movlw	0
  9553     0AB1  00B7               	movwf	___flmul@a+3
  9554     0AB2  3000               	movlw	0
  9555     0AB3  00B6               	movwf	___flmul@a+2
  9556     0AB4  3000               	movlw	0
  9557     0AB5  00B5               	movwf	___flmul@a+1
  9558     0AB6  3000               	movlw	0
  9559     0AB7  00B4               	movwf	___flmul@a
  9560     0AB8                     l3093:
  9561     0AB8  17B6               	bsf	___flmul@a+2,7
  9562     0AB9  2AC2               	goto	l3097
  9563     0ABA                     l3095:
  9564     0ABA  3000               	movlw	0
  9565     0ABB  00B7               	movwf	___flmul@a+3
  9566     0ABC  3000               	movlw	0
  9567     0ABD  00B6               	movwf	___flmul@a+2
  9568     0ABE  3000               	movlw	0
  9569     0ABF  00B5               	movwf	___flmul@a+1
  9570     0AC0  3000               	movlw	0
  9571     0AC1  00B4               	movwf	___flmul@a
  9572     0AC2                     l3097:
  9573     0AC2  0842               	movf	___flmul@aexp,w
  9574     0AC3  1903               	btfsc	3,2
  9575     0AC4  2AC6               	goto	u4301
  9576     0AC5  2AC7               	goto	u4300
  9577     0AC6                     u4301:
  9578     0AC6  2ACC               	goto	l3101
  9579     0AC7                     u4300:
  9580     0AC7                     l3099:
  9581     0AC7  0843               	movf	___flmul@bexp,w
  9582     0AC8  1D03               	btfss	3,2
  9583     0AC9  2ACB               	goto	u4311
  9584     0ACA  2ACC               	goto	u4310
  9585     0ACB                     u4311:
  9586     0ACB  2AD5               	goto	l3105
  9587     0ACC                     u4310:
  9588     0ACC                     l3101:
  9589     0ACC  3000               	movlw	0
  9590     0ACD  00B3               	movwf	?___flmul+3
  9591     0ACE  3000               	movlw	0
  9592     0ACF  00B2               	movwf	?___flmul+2
  9593     0AD0  3000               	movlw	0
  9594     0AD1  00B1               	movwf	?___flmul+1
  9595     0AD2  3000               	movlw	0
  9596     0AD3  00B0               	movwf	?___flmul
  9597     0AD4  2CAD               	goto	l724
  9598     0AD5                     l3105:
  9599     0AD5  0830               	movf	___flmul@b,w
  9600     0AD6  00F0               	movwf	__Umul8_16@multiplicand
  9601     0AD7  0836               	movf	___flmul@a+2,w
  9602     0AD8  319E  26C5  318A   	fcall	__Umul8_16
  9603     0ADB  0871               	movf	?__Umul8_16+1,w
  9604     0ADC  0020               	movlb	0	; select bank0
  9605     0ADD  00C9               	movwf	___flmul@temp+1
  9606     0ADE  0870               	movf	?__Umul8_16,w
  9607     0ADF  00C8               	movwf	___flmul@temp
  9608     0AE0                     l3107:
  9609     0AE0  0848               	movf	___flmul@temp,w
  9610     0AE1  00B8               	movwf	??___flmul
  9611     0AE2  01B9               	clrf	??___flmul+1
  9612     0AE3  01BA               	clrf	??___flmul+2
  9613     0AE4  01BB               	clrf	??___flmul+3
  9614     0AE5  083B               	movf	??___flmul+3,w
  9615     0AE6  00C1               	movwf	___flmul@grs+3
  9616     0AE7  083A               	movf	??___flmul+2,w
  9617     0AE8  00C0               	movwf	___flmul@grs+2
  9618     0AE9  0839               	movf	??___flmul+1,w
  9619     0AEA  00BF               	movwf	___flmul@grs+1
  9620     0AEB  0838               	movf	??___flmul,w
  9621     0AEC  00BE               	movwf	___flmul@grs
  9622     0AED                     l3109:
  9623     0AED  0849               	movf	___flmul@temp+1,w
  9624     0AEE  00B8               	movwf	??___flmul
  9625     0AEF  01B9               	clrf	??___flmul+1
  9626     0AF0  01BA               	clrf	??___flmul+2
  9627     0AF1  01BB               	clrf	??___flmul+3
  9628     0AF2  083B               	movf	??___flmul+3,w
  9629     0AF3  00C7               	movwf	___flmul@prod+3
  9630     0AF4  083A               	movf	??___flmul+2,w
  9631     0AF5  00C6               	movwf	___flmul@prod+2
  9632     0AF6  0839               	movf	??___flmul+1,w
  9633     0AF7  00C5               	movwf	___flmul@prod+1
  9634     0AF8  0838               	movf	??___flmul,w
  9635     0AF9  00C4               	movwf	___flmul@prod
  9636     0AFA  0831               	movf	___flmul@b+1,w
  9637     0AFB  00F0               	movwf	__Umul8_16@multiplicand
  9638     0AFC  0835               	movf	___flmul@a+1,w
  9639     0AFD  319E  26C5  318A   	fcall	__Umul8_16
  9640     0B00  0871               	movf	?__Umul8_16+1,w
  9641     0B01  0020               	movlb	0	; select bank0
  9642     0B02  00C9               	movwf	___flmul@temp+1
  9643     0B03  0870               	movf	?__Umul8_16,w
  9644     0B04  00C8               	movwf	___flmul@temp
  9645     0B05                     l3111:
  9646     0B05  0848               	movf	___flmul@temp,w
  9647     0B06  00B8               	movwf	??___flmul
  9648     0B07  01B9               	clrf	??___flmul+1
  9649     0B08  01BA               	clrf	??___flmul+2
  9650     0B09  01BB               	clrf	??___flmul+3
  9651     0B0A  0838               	movf	??___flmul,w
  9652     0B0B  07BE               	addwf	___flmul@grs,f
  9653     0B0C  0839               	movf	??___flmul+1,w
  9654     0B0D  3DBF               	addwfc	___flmul@grs+1,f
  9655     0B0E  083A               	movf	??___flmul+2,w
  9656     0B0F  3DC0               	addwfc	___flmul@grs+2,f
  9657     0B10  083B               	movf	??___flmul+3,w
  9658     0B11  3DC1               	addwfc	___flmul@grs+3,f
  9659     0B12                     l3113:
  9660     0B12  0849               	movf	___flmul@temp+1,w
  9661     0B13  00B8               	movwf	??___flmul
  9662     0B14  01B9               	clrf	??___flmul+1
  9663     0B15  01BA               	clrf	??___flmul+2
  9664     0B16  01BB               	clrf	??___flmul+3
  9665     0B17  0838               	movf	??___flmul,w
  9666     0B18  07C4               	addwf	___flmul@prod,f
  9667     0B19  0839               	movf	??___flmul+1,w
  9668     0B1A  3DC5               	addwfc	___flmul@prod+1,f
  9669     0B1B  083A               	movf	??___flmul+2,w
  9670     0B1C  3DC6               	addwfc	___flmul@prod+2,f
  9671     0B1D  083B               	movf	??___flmul+3,w
  9672     0B1E  3DC7               	addwfc	___flmul@prod+3,f
  9673     0B1F  0832               	movf	___flmul@b+2,w
  9674     0B20  00F0               	movwf	__Umul8_16@multiplicand
  9675     0B21  0834               	movf	___flmul@a,w
  9676     0B22  319E  26C5  318A   	fcall	__Umul8_16
  9677     0B25  0871               	movf	?__Umul8_16+1,w
  9678     0B26  0020               	movlb	0	; select bank0
  9679     0B27  00C9               	movwf	___flmul@temp+1
  9680     0B28  0870               	movf	?__Umul8_16,w
  9681     0B29  00C8               	movwf	___flmul@temp
  9682     0B2A                     l3115:
  9683     0B2A  0848               	movf	___flmul@temp,w
  9684     0B2B  00B8               	movwf	??___flmul
  9685     0B2C  01B9               	clrf	??___flmul+1
  9686     0B2D  01BA               	clrf	??___flmul+2
  9687     0B2E  01BB               	clrf	??___flmul+3
  9688     0B2F  0838               	movf	??___flmul,w
  9689     0B30  07BE               	addwf	___flmul@grs,f
  9690     0B31  0839               	movf	??___flmul+1,w
  9691     0B32  3DBF               	addwfc	___flmul@grs+1,f
  9692     0B33  083A               	movf	??___flmul+2,w
  9693     0B34  3DC0               	addwfc	___flmul@grs+2,f
  9694     0B35  083B               	movf	??___flmul+3,w
  9695     0B36  3DC1               	addwfc	___flmul@grs+3,f
  9696     0B37                     l3117:
  9697     0B37  0849               	movf	___flmul@temp+1,w
  9698     0B38  00B8               	movwf	??___flmul
  9699     0B39  01B9               	clrf	??___flmul+1
  9700     0B3A  01BA               	clrf	??___flmul+2
  9701     0B3B  01BB               	clrf	??___flmul+3
  9702     0B3C  0838               	movf	??___flmul,w
  9703     0B3D  07C4               	addwf	___flmul@prod,f
  9704     0B3E  0839               	movf	??___flmul+1,w
  9705     0B3F  3DC5               	addwfc	___flmul@prod+1,f
  9706     0B40  083A               	movf	??___flmul+2,w
  9707     0B41  3DC6               	addwfc	___flmul@prod+2,f
  9708     0B42  083B               	movf	??___flmul+3,w
  9709     0B43  3DC7               	addwfc	___flmul@prod+3,f
  9710     0B44                     l3119:
  9711     0B44  3008               	movlw	8
  9712     0B45                     u4325:
  9713     0B45  35BE               	lslf	___flmul@grs,f
  9714     0B46  0DBF               	rlf	___flmul@grs+1,f
  9715     0B47  0DC0               	rlf	___flmul@grs+2,f
  9716     0B48  0DC1               	rlf	___flmul@grs+3,f
  9717     0B49  0B89               	decfsz	9,f
  9718     0B4A  2B45               	goto	u4325
  9719     0B4B                     l3121:
  9720     0B4B  0831               	movf	___flmul@b+1,w
  9721     0B4C  00F0               	movwf	__Umul8_16@multiplicand
  9722     0B4D  0834               	movf	___flmul@a,w
  9723     0B4E  319E  26C5  318A   	fcall	__Umul8_16
  9724     0B51  0871               	movf	?__Umul8_16+1,w
  9725     0B52  0020               	movlb	0	; select bank0
  9726     0B53  00C9               	movwf	___flmul@temp+1
  9727     0B54  0870               	movf	?__Umul8_16,w
  9728     0B55  00C8               	movwf	___flmul@temp
  9729     0B56                     l3123:
  9730     0B56  0848               	movf	___flmul@temp,w
  9731     0B57  07BE               	addwf	___flmul@grs,f
  9732     0B58  0849               	movf	___flmul@temp+1,w
  9733     0B59  3DBF               	addwfc	___flmul@grs+1,f
  9734     0B5A  3000               	movlw	0
  9735     0B5B  3DC0               	addwfc	___flmul@grs+2,f
  9736     0B5C  3DC1               	addwfc	___flmul@grs+3,f
  9737     0B5D                     l3125:
  9738     0B5D  0830               	movf	___flmul@b,w
  9739     0B5E  00F0               	movwf	__Umul8_16@multiplicand
  9740     0B5F  0835               	movf	___flmul@a+1,w
  9741     0B60  319E  26C5  318A   	fcall	__Umul8_16
  9742     0B63  0871               	movf	?__Umul8_16+1,w
  9743     0B64  0020               	movlb	0	; select bank0
  9744     0B65  00C9               	movwf	___flmul@temp+1
  9745     0B66  0870               	movf	?__Umul8_16,w
  9746     0B67  00C8               	movwf	___flmul@temp
  9747     0B68                     l3127:
  9748     0B68  0848               	movf	___flmul@temp,w
  9749     0B69  07BE               	addwf	___flmul@grs,f
  9750     0B6A  0849               	movf	___flmul@temp+1,w
  9751     0B6B  3DBF               	addwfc	___flmul@grs+1,f
  9752     0B6C  3000               	movlw	0
  9753     0B6D  3DC0               	addwfc	___flmul@grs+2,f
  9754     0B6E  3DC1               	addwfc	___flmul@grs+3,f
  9755     0B6F                     l3129:
  9756     0B6F  3008               	movlw	8
  9757     0B70                     u4335:
  9758     0B70  35BE               	lslf	___flmul@grs,f
  9759     0B71  0DBF               	rlf	___flmul@grs+1,f
  9760     0B72  0DC0               	rlf	___flmul@grs+2,f
  9761     0B73  0DC1               	rlf	___flmul@grs+3,f
  9762     0B74  0B89               	decfsz	9,f
  9763     0B75  2B70               	goto	u4335
  9764     0B76  0830               	movf	___flmul@b,w
  9765     0B77  00F0               	movwf	__Umul8_16@multiplicand
  9766     0B78  0834               	movf	___flmul@a,w
  9767     0B79  319E  26C5  318A   	fcall	__Umul8_16
  9768     0B7C  0871               	movf	?__Umul8_16+1,w
  9769     0B7D  0020               	movlb	0	; select bank0
  9770     0B7E  00C9               	movwf	___flmul@temp+1
  9771     0B7F  0870               	movf	?__Umul8_16,w
  9772     0B80  00C8               	movwf	___flmul@temp
  9773     0B81                     l3131:
  9774     0B81  0848               	movf	___flmul@temp,w
  9775     0B82  07BE               	addwf	___flmul@grs,f
  9776     0B83  0849               	movf	___flmul@temp+1,w
  9777     0B84  3DBF               	addwfc	___flmul@grs+1,f
  9778     0B85  3000               	movlw	0
  9779     0B86  3DC0               	addwfc	___flmul@grs+2,f
  9780     0B87  3DC1               	addwfc	___flmul@grs+3,f
  9781     0B88                     l3133:
  9782     0B88  0831               	movf	___flmul@b+1,w
  9783     0B89  00F0               	movwf	__Umul8_16@multiplicand
  9784     0B8A  0836               	movf	___flmul@a+2,w
  9785     0B8B  319E  26C5  318A   	fcall	__Umul8_16
  9786     0B8E  0871               	movf	?__Umul8_16+1,w
  9787     0B8F  0020               	movlb	0	; select bank0
  9788     0B90  00C9               	movwf	___flmul@temp+1
  9789     0B91  0870               	movf	?__Umul8_16,w
  9790     0B92  00C8               	movwf	___flmul@temp
  9791     0B93  0848               	movf	___flmul@temp,w
  9792     0B94  07C4               	addwf	___flmul@prod,f
  9793     0B95  0849               	movf	___flmul@temp+1,w
  9794     0B96  3DC5               	addwfc	___flmul@prod+1,f
  9795     0B97  3000               	movlw	0
  9796     0B98  3DC6               	addwfc	___flmul@prod+2,f
  9797     0B99  3DC7               	addwfc	___flmul@prod+3,f
  9798     0B9A                     l3135:
  9799     0B9A  0832               	movf	___flmul@b+2,w
  9800     0B9B  00F0               	movwf	__Umul8_16@multiplicand
  9801     0B9C  0835               	movf	___flmul@a+1,w
  9802     0B9D  319E  26C5  318A   	fcall	__Umul8_16
  9803     0BA0  0871               	movf	?__Umul8_16+1,w
  9804     0BA1  0020               	movlb	0	; select bank0
  9805     0BA2  00C9               	movwf	___flmul@temp+1
  9806     0BA3  0870               	movf	?__Umul8_16,w
  9807     0BA4  00C8               	movwf	___flmul@temp
  9808     0BA5                     l3137:
  9809     0BA5  0848               	movf	___flmul@temp,w
  9810     0BA6  07C4               	addwf	___flmul@prod,f
  9811     0BA7  0849               	movf	___flmul@temp+1,w
  9812     0BA8  3DC5               	addwfc	___flmul@prod+1,f
  9813     0BA9  3000               	movlw	0
  9814     0BAA  3DC6               	addwfc	___flmul@prod+2,f
  9815     0BAB  3DC7               	addwfc	___flmul@prod+3,f
  9816     0BAC  0832               	movf	___flmul@b+2,w
  9817     0BAD  00F0               	movwf	__Umul8_16@multiplicand
  9818     0BAE  0836               	movf	___flmul@a+2,w
  9819     0BAF  319E  26C5  318A   	fcall	__Umul8_16
  9820     0BB2  0871               	movf	?__Umul8_16+1,w
  9821     0BB3  0020               	movlb	0	; select bank0
  9822     0BB4  00C9               	movwf	___flmul@temp+1
  9823     0BB5  0870               	movf	?__Umul8_16,w
  9824     0BB6  00C8               	movwf	___flmul@temp
  9825     0BB7                     l3139:
  9826     0BB7  0848               	movf	___flmul@temp,w
  9827     0BB8  00B8               	movwf	??___flmul
  9828     0BB9  0849               	movf	___flmul@temp+1,w
  9829     0BBA  00B9               	movwf	??___flmul+1
  9830     0BBB  01BA               	clrf	??___flmul+2
  9831     0BBC  01BB               	clrf	??___flmul+3
  9832     0BBD  3008               	movlw	8
  9833     0BBE                     u4345:
  9834     0BBE  35B8               	lslf	??___flmul,f
  9835     0BBF  0DB9               	rlf	??___flmul+1,f
  9836     0BC0  0DBA               	rlf	??___flmul+2,f
  9837     0BC1  0DBB               	rlf	??___flmul+3,f
  9838     0BC2                     u4340:
  9839     0BC2  0B89               	decfsz	9,f
  9840     0BC3  2BBE               	goto	u4345
  9841     0BC4  0838               	movf	??___flmul,w
  9842     0BC5  07C4               	addwf	___flmul@prod,f
  9843     0BC6  0839               	movf	??___flmul+1,w
  9844     0BC7  3DC5               	addwfc	___flmul@prod+1,f
  9845     0BC8  083A               	movf	??___flmul+2,w
  9846     0BC9  3DC6               	addwfc	___flmul@prod+2,f
  9847     0BCA  083B               	movf	??___flmul+3,w
  9848     0BCB  3DC7               	addwfc	___flmul@prod+3,f
  9849     0BCC                     l3141:
  9850     0BCC  083E               	movf	___flmul@grs,w
  9851     0BCD  00B8               	movwf	??___flmul
  9852     0BCE  083F               	movf	___flmul@grs+1,w
  9853     0BCF  00B9               	movwf	??___flmul+1
  9854     0BD0  0840               	movf	___flmul@grs+2,w
  9855     0BD1  00BA               	movwf	??___flmul+2
  9856     0BD2  0841               	movf	___flmul@grs+3,w
  9857     0BD3  00BB               	movwf	??___flmul+3
  9858     0BD4  3018               	movlw	24
  9859     0BD5                     u4355:
  9860     0BD5  36BB               	lsrf	??___flmul+3,f
  9861     0BD6  0CBA               	rrf	??___flmul+2,f
  9862     0BD7  0CB9               	rrf	??___flmul+1,f
  9863     0BD8  0CB8               	rrf	??___flmul,f
  9864     0BD9                     u4350:
  9865     0BD9  0B89               	decfsz	9,f
  9866     0BDA  2BD5               	goto	u4355
  9867     0BDB  0838               	movf	??___flmul,w
  9868     0BDC  07C4               	addwf	___flmul@prod,f
  9869     0BDD  0839               	movf	??___flmul+1,w
  9870     0BDE  3DC5               	addwfc	___flmul@prod+1,f
  9871     0BDF  083A               	movf	??___flmul+2,w
  9872     0BE0  3DC6               	addwfc	___flmul@prod+2,f
  9873     0BE1  083B               	movf	??___flmul+3,w
  9874     0BE2  3DC7               	addwfc	___flmul@prod+3,f
  9875     0BE3                     l3143:
  9876     0BE3  3008               	movlw	8
  9877     0BE4                     u4365:
  9878     0BE4  35BE               	lslf	___flmul@grs,f
  9879     0BE5  0DBF               	rlf	___flmul@grs+1,f
  9880     0BE6  0DC0               	rlf	___flmul@grs+2,f
  9881     0BE7  0DC1               	rlf	___flmul@grs+3,f
  9882     0BE8  0B89               	decfsz	9,f
  9883     0BE9  2BE4               	goto	u4365
  9884     0BEA                     l3145:
  9885     0BEA  0843               	movf	___flmul@bexp,w
  9886     0BEB  0742               	addwf	___flmul@aexp,w
  9887     0BEC  00B8               	movwf	??___flmul
  9888     0BED  01B9               	clrf	??___flmul+1
  9889     0BEE  0DB9               	rlf	??___flmul+1,f
  9890     0BEF  0838               	movf	??___flmul,w
  9891     0BF0  3E82               	addlw	130
  9892     0BF1  00C8               	movwf	___flmul@temp
  9893     0BF2  30FF               	movlw	255
  9894     0BF3  3D39               	addwfc	??___flmul+1,w
  9895     0BF4  00C9               	movwf	___flmul@temp+1
  9896     0BF5  2C0D               	goto	l3157
  9897     0BF6                     l3147:
  9898     0BF6  3001               	movlw	1
  9899     0BF7                     u4375:
  9900     0BF7  35C4               	lslf	___flmul@prod,f
  9901     0BF8  0DC5               	rlf	___flmul@prod+1,f
  9902     0BF9  0DC6               	rlf	___flmul@prod+2,f
  9903     0BFA  0DC7               	rlf	___flmul@prod+3,f
  9904     0BFB  0B89               	decfsz	9,f
  9905     0BFC  2BF7               	goto	u4375
  9906     0BFD                     l3149:
  9907     0BFD  1FC1               	btfss	___flmul@grs+3,7
  9908     0BFE  2C00               	goto	u4381
  9909     0BFF  2C01               	goto	u4380
  9910     0C00                     u4381:
  9911     0C00  2C02               	goto	l3153
  9912     0C01                     u4380:
  9913     0C01                     l3151:
  9914     0C01  1444               	bsf	___flmul@prod,0
  9915     0C02                     l3153:
  9916     0C02  3001               	movlw	1
  9917     0C03                     u4395:
  9918     0C03  35BE               	lslf	___flmul@grs,f
  9919     0C04  0DBF               	rlf	___flmul@grs+1,f
  9920     0C05  0DC0               	rlf	___flmul@grs+2,f
  9921     0C06  0DC1               	rlf	___flmul@grs+3,f
  9922     0C07  0B89               	decfsz	9,f
  9923     0C08  2C03               	goto	u4395
  9924     0C09                     l3155:
  9925     0C09  30FF               	movlw	255
  9926     0C0A  07C8               	addwf	___flmul@temp,f
  9927     0C0B  30FF               	movlw	255
  9928     0C0C  3DC9               	addwfc	___flmul@temp+1,f
  9929     0C0D                     l3157:
  9930     0C0D  1FC6               	btfss	___flmul@prod+2,7
  9931     0C0E  2C10               	goto	u4401
  9932     0C0F  2C11               	goto	u4400
  9933     0C10                     u4401:
  9934     0C10  2BF6               	goto	l3147
  9935     0C11                     u4400:
  9936     0C11                     l3159:
  9937     0C11  01C2               	clrf	___flmul@aexp
  9938     0C12                     l3161:
  9939     0C12  1FC1               	btfss	___flmul@grs+3,7
  9940     0C13  2C15               	goto	u4411
  9941     0C14  2C16               	goto	u4410
  9942     0C15                     u4411:
  9943     0C15  2C32               	goto	l3169
  9944     0C16                     u4410:
  9945     0C16                     l3163:
  9946     0C16  30FF               	movlw	255
  9947     0C17  053E               	andwf	___flmul@grs,w
  9948     0C18  00B8               	movwf	??___flmul
  9949     0C19  30FF               	movlw	255
  9950     0C1A  053F               	andwf	___flmul@grs+1,w
  9951     0C1B  00B9               	movwf	??___flmul+1
  9952     0C1C  30FF               	movlw	255
  9953     0C1D  0540               	andwf	___flmul@grs+2,w
  9954     0C1E  00BA               	movwf	??___flmul+2
  9955     0C1F  307F               	movlw	127
  9956     0C20  0541               	andwf	___flmul@grs+3,w
  9957     0C21  00BB               	movwf	??___flmul+3
  9958     0C22  083B               	movf	??___flmul+3,w
  9959     0C23  043A               	iorwf	??___flmul+2,w
  9960     0C24  0439               	iorwf	??___flmul+1,w
  9961     0C25  0438               	iorwf	??___flmul,w
  9962     0C26  1903               	skipnz
  9963     0C27  2C29               	goto	u4421
  9964     0C28  2C2A               	goto	u4420
  9965     0C29                     u4421:
  9966     0C29  2C2D               	goto	l730
  9967     0C2A                     u4420:
  9968     0C2A                     l3165:
  9969     0C2A  01C2               	clrf	___flmul@aexp
  9970     0C2B  0AC2               	incf	___flmul@aexp,f
  9971     0C2C  2C32               	goto	l3169
  9972     0C2D                     l730:
  9973     0C2D  1C44               	btfss	___flmul@prod,0
  9974     0C2E  2C30               	goto	u4431
  9975     0C2F  2C31               	goto	u4430
  9976     0C30                     u4431:
  9977     0C30  2C32               	goto	l3169
  9978     0C31                     u4430:
  9979     0C31  2C2A               	goto	l3165
  9980     0C32                     l3169:
  9981     0C32  0842               	movf	___flmul@aexp,w
  9982     0C33  1903               	btfsc	3,2
  9983     0C34  2C36               	goto	u4441
  9984     0C35  2C37               	goto	u4440
  9985     0C36                     u4441:
  9986     0C36  2C5F               	goto	l3179
  9987     0C37                     u4440:
  9988     0C37                     l3171:
  9989     0C37  3001               	movlw	1
  9990     0C38  07C4               	addwf	___flmul@prod,f
  9991     0C39  3000               	movlw	0
  9992     0C3A  3DC5               	addwfc	___flmul@prod+1,f
  9993     0C3B  3000               	movlw	0
  9994     0C3C  3DC6               	addwfc	___flmul@prod+2,f
  9995     0C3D  3000               	movlw	0
  9996     0C3E  3DC7               	addwfc	___flmul@prod+3,f
  9997     0C3F                     l3173:
  9998     0C3F  1C47               	btfss	___flmul@prod+3,0
  9999     0C40  2C42               	goto	u4451
 10000     0C41  2C43               	goto	u4450
 10001     0C42                     u4451:
 10002     0C42  2C5F               	goto	l3179
 10003     0C43                     u4450:
 10004     0C43                     l3175:
 10005     0C43  0844               	movf	___flmul@prod,w
 10006     0C44  00B8               	movwf	??___flmul
 10007     0C45  0845               	movf	___flmul@prod+1,w
 10008     0C46  00B9               	movwf	??___flmul+1
 10009     0C47  0846               	movf	___flmul@prod+2,w
 10010     0C48  00BA               	movwf	??___flmul+2
 10011     0C49  0847               	movf	___flmul@prod+3,w
 10012     0C4A  00BB               	movwf	??___flmul+3
 10013     0C4B  3001               	movlw	1
 10014     0C4C  00BC               	movwf	??___flmul+4
 10015     0C4D                     u4465:
 10016     0C4D  37BB               	asrf	??___flmul+3,f
 10017     0C4E  0CBA               	rrf	??___flmul+2,f
 10018     0C4F  0CB9               	rrf	??___flmul+1,f
 10019     0C50  0CB8               	rrf	??___flmul,f
 10020     0C51                     u4460:
 10021     0C51  0BBC               	decfsz	??___flmul+4,f
 10022     0C52  2C4D               	goto	u4465
 10023     0C53  083B               	movf	??___flmul+3,w
 10024     0C54  00C7               	movwf	___flmul@prod+3
 10025     0C55  083A               	movf	??___flmul+2,w
 10026     0C56  00C6               	movwf	___flmul@prod+2
 10027     0C57  0839               	movf	??___flmul+1,w
 10028     0C58  00C5               	movwf	___flmul@prod+1
 10029     0C59  0838               	movf	??___flmul,w
 10030     0C5A  00C4               	movwf	___flmul@prod
 10031     0C5B                     l3177:
 10032     0C5B  3001               	movlw	1
 10033     0C5C  07C8               	addwf	___flmul@temp,f
 10034     0C5D  3000               	movlw	0
 10035     0C5E  3DC9               	addwfc	___flmul@temp+1,f
 10036     0C5F                     l3179:
 10037     0C5F  0849               	movf	___flmul@temp+1,w
 10038     0C60  3A80               	xorlw	128
 10039     0C61  00B8               	movwf	??___flmul
 10040     0C62  3080               	movlw	128
 10041     0C63  0238               	subwf	??___flmul,w
 10042     0C64  1D03               	skipz
 10043     0C65  2C68               	goto	u4475
 10044     0C66  30FF               	movlw	255
 10045     0C67  0248               	subwf	___flmul@temp,w
 10046     0C68                     u4475:
 10047     0C68  1C03               	skipc
 10048     0C69  2C6B               	goto	u4471
 10049     0C6A  2C6C               	goto	u4470
 10050     0C6B                     u4471:
 10051     0C6B  2C76               	goto	l3183
 10052     0C6C                     u4470:
 10053     0C6C                     l3181:
 10054     0C6C  307F               	movlw	127
 10055     0C6D  0020               	movlb	0	; select bank0
 10056     0C6E  00C7               	movwf	___flmul@prod+3
 10057     0C6F  3080               	movlw	128
 10058     0C70  00C6               	movwf	___flmul@prod+2
 10059     0C71  3000               	movlw	0
 10060     0C72  00C5               	movwf	___flmul@prod+1
 10061     0C73  3000               	movlw	0
 10062     0C74  00C4               	movwf	___flmul@prod
 10063     0C75  2CA1               	goto	l736
 10064     0C76                     l3183:
 10065     0C76  0020               	movlb	0	; select bank0
 10066     0C77  0849               	movf	___flmul@temp+1,w
 10067     0C78  3A80               	xorlw	128
 10068     0C79  00B8               	movwf	??___flmul
 10069     0C7A  3080               	movlw	128
 10070     0C7B  0238               	subwf	??___flmul,w
 10071     0C7C  1D03               	skipz
 10072     0C7D  2C80               	goto	u4485
 10073     0C7E  3001               	movlw	1
 10074     0C7F  0248               	subwf	___flmul@temp,w
 10075     0C80                     u4485:
 10076     0C80  1803               	skipnc
 10077     0C81  2C83               	goto	u4481
 10078     0C82  2C84               	goto	u4480
 10079     0C83                     u4481:
 10080     0C83  2C8F               	goto	l3189
 10081     0C84                     u4480:
 10082     0C84                     l3185:
 10083     0C84  3000               	movlw	0
 10084     0C85  0020               	movlb	0	; select bank0
 10085     0C86  00C7               	movwf	___flmul@prod+3
 10086     0C87  3000               	movlw	0
 10087     0C88  00C6               	movwf	___flmul@prod+2
 10088     0C89  3000               	movlw	0
 10089     0C8A  00C5               	movwf	___flmul@prod+1
 10090     0C8B  3000               	movlw	0
 10091     0C8C  00C4               	movwf	___flmul@prod
 10092     0C8D                     l3187:
 10093     0C8D  01BD               	clrf	___flmul@sign
 10094     0C8E  2CA1               	goto	l736
 10095     0C8F                     l3189:
 10096     0C8F  0020               	movlb	0	; select bank0
 10097     0C90  0848               	movf	___flmul@temp,w
 10098     0C91  00C3               	movwf	___flmul@bexp
 10099     0C92  30FF               	movlw	255
 10100     0C93  05C4               	andwf	___flmul@prod,f
 10101     0C94  30FF               	movlw	255
 10102     0C95  05C5               	andwf	___flmul@prod+1,f
 10103     0C96  307F               	movlw	127
 10104     0C97  05C6               	andwf	___flmul@prod+2,f
 10105     0C98  3000               	movlw	0
 10106     0C99  05C7               	andwf	___flmul@prod+3,f
 10107     0C9A                     l3191:
 10108     0C9A  1C43               	btfss	___flmul@bexp,0
 10109     0C9B  2C9D               	goto	u4491
 10110     0C9C  2C9E               	goto	u4490
 10111     0C9D                     u4491:
 10112     0C9D  2C9F               	goto	l3195
 10113     0C9E                     u4490:
 10114     0C9E                     l3193:
 10115     0C9E  17C6               	bsf	___flmul@prod+2,7
 10116     0C9F                     l3195:
 10117     0C9F  3643               	lsrf	___flmul@bexp,w
 10118     0CA0  00C7               	movwf	___flmul@prod+3
 10119     0CA1                     l736:
 10120     0CA1  083D               	movf	___flmul@sign,w
 10121     0CA2  00B8               	movwf	??___flmul
 10122     0CA3  0838               	movf	??___flmul,w
 10123     0CA4  04C7               	iorwf	___flmul@prod+3,f
 10124     0CA5                     l3197:
 10125     0CA5  0847               	movf	___flmul@prod+3,w
 10126     0CA6  00B3               	movwf	?___flmul+3
 10127     0CA7  0846               	movf	___flmul@prod+2,w
 10128     0CA8  00B2               	movwf	?___flmul+2
 10129     0CA9  0845               	movf	___flmul@prod+1,w
 10130     0CAA  00B1               	movwf	?___flmul+1
 10131     0CAB  0844               	movf	___flmul@prod,w
 10132     0CAC  00B0               	movwf	?___flmul
 10133     0CAD                     l724:
 10134     0CAD  0008               	return
 10135     0CAE                     __end_of___flmul:
 10136                           
 10137                           	psect	text25
 10138     1EC5                     __ptext25:	
 10139 ;; *************** function __Umul8_16 *****************
 10140 ;; Defined at:
 10141 ;;		line 4 in file "C:\Program Files\Microchip\xc8\v2.46\pic\sources\c99\common\Umul8_16.c"
 10142 ;; Parameters:    Size  Location     Type
 10143 ;;  multiplier      1    wreg     unsigned char 
 10144 ;;  multiplicand    1    0[COMMON] unsigned char 
 10145 ;; Auto vars:     Size  Location     Type
 10146 ;;  multiplier      1    8[COMMON] unsigned char 
 10147 ;;  word_mpld       2    6[COMMON] unsigned short 
 10148 ;;  product         2    4[COMMON] unsigned short 
 10149 ;; Return value:  Size  Location     Type
 10150 ;;                  2    0[COMMON] unsigned int 
 10151 ;; Registers used:
 10152 ;;		wreg, status,2, status,0
 10153 ;; Tracked objects:
 10154 ;;		On entry : 0/0
 10155 ;;		On exit  : 0/0
 10156 ;;		Unchanged: 0/0
 10157 ;; Data sizes:     COMMON   BANK0   BANK1   BANK2   BANK3   BANK4   BANK5   BANK6   BANK7   BANK8   BANK9  BANK10  BANK1
      +1  BANK12  BANK13  BANK14  BANK15  BANK16  BANK17  BANK18  BANK19  BANK20  BANK21  BANK22  BANK23  BANK24  BANK25
 10158 ;;      Params:         2       0       0       0       0       0       0       0       0       0       0       0       
      +0       0       0       0       0       0       0       0       0       0       0       0       0       0       0
 10159 ;;      Locals:         5       0       0       0       0       0       0       0       0       0       0       0       
      +0       0       0       0       0       0       0       0       0       0       0       0       0       0       0
 10160 ;;      Temps:          2       0       0       0       0       0       0       0       0       0       0       0       
      +0       0       0       0       0       0       0       0       0       0       0       0       0       0       0
 10161 ;;      Totals:         9       0       0       0       0       0       0       0       0       0       0       0       
      +0       0       0       0       0       0       0       0       0       0       0       0       0       0       0
 10162 ;;Total ram usage:        9 bytes
 10163 ;; Hardware stack levels used: 1
 10164 ;; This function calls:
 10165 ;;		Nothing
 10166 ;; This function is called by:
 10167 ;;		___flmul
 10168 ;; This function uses a non-reentrant model
 10169 ;;
 10170                           
 10171     1EC5                     __Umul8_16:	
 10172                           ;psect for function __Umul8_16
 10173                           
 10174                           
 10175                           ;incstack = 0
 10176                           ; Regs used in __Umul8_16: [wreg+status,2+status,0]
 10177                           ;__Umul8_16@multiplier stored from wreg
 10178     1EC5  00F8               	movwf	__Umul8_16@multiplier
 10179     1EC6                     l2965:
 10180     1EC6  01F4               	clrf	__Umul8_16@product
 10181     1EC7  01F5               	clrf	__Umul8_16@product+1
 10182     1EC8                     l2967:
 10183     1EC8  0870               	movf	__Umul8_16@multiplicand,w
 10184     1EC9  00F2               	movwf	??__Umul8_16
 10185     1ECA  01F3               	clrf	??__Umul8_16+1
 10186     1ECB  0872               	movf	??__Umul8_16,w
 10187     1ECC  00F6               	movwf	__Umul8_16@word_mpld
 10188     1ECD  0873               	movf	??__Umul8_16+1,w
 10189     1ECE  00F7               	movwf	__Umul8_16@word_mpld+1
 10190     1ECF                     l2969:
 10191     1ECF  1C78               	btfss	__Umul8_16@multiplier,0
 10192     1ED0  2ED2               	goto	u4041
 10193     1ED1  2ED3               	goto	u4040
 10194     1ED2                     u4041:
 10195     1ED2  2ED7               	goto	l743
 10196     1ED3                     u4040:
 10197     1ED3                     l2971:
 10198     1ED3  0876               	movf	__Umul8_16@word_mpld,w
 10199     1ED4  07F4               	addwf	__Umul8_16@product,f
 10200     1ED5  0877               	movf	__Umul8_16@word_mpld+1,w
 10201     1ED6  3DF5               	addwfc	__Umul8_16@product+1,f
 10202     1ED7                     l743:
 10203     1ED7  3001               	movlw	1
 10204     1ED8                     u4055:
 10205     1ED8  35F6               	lslf	__Umul8_16@word_mpld,f
 10206     1ED9  0DF7               	rlf	__Umul8_16@word_mpld+1,f
 10207     1EDA  0B89               	decfsz	9,f
 10208     1EDB  2ED8               	goto	u4055
 10209     1EDC  1003               	clrc
 10210     1EDD  0CF8               	rrf	__Umul8_16@multiplier,f
 10211     1EDE                     l2973:
 10212     1EDE  0878               	movf	__Umul8_16@multiplier,w
 10213     1EDF  1D03               	btfss	3,2
 10214     1EE0  2EE2               	goto	u4061
 10215     1EE1  2EE3               	goto	u4060
 10216     1EE2                     u4061:
 10217     1EE2  2ECF               	goto	l2969
 10218     1EE3                     u4060:
 10219     1EE3                     l2975:
 10220     1EE3  0875               	movf	__Umul8_16@product+1,w
 10221     1EE4  00F1               	movwf	?__Umul8_16+1
 10222     1EE5  0874               	movf	__Umul8_16@product,w
 10223     1EE6  00F0               	movwf	?__Umul8_16
 10224     1EE7                     l745:
 10225     1EE7  0008               	return
 10226     1EE8                     __end_of__Umul8_16:
 10227                           
 10228                           	psect	text26
 10229     11D8                     __ptext26:	
 10230 ;; *************** function ___flge *****************
 10231 ;; Defined at:
 10232 ;;		line 4 in file "C:\Program Files\Microchip\xc8\v2.46\pic\sources\c99\common\flge.c"
 10233 ;; Parameters:    Size  Location     Type
 10234 ;;  ff1             4    0[COMMON] unsigned int 
 10235 ;;  ff2             4    4[COMMON] unsigned int 
 10236 ;; Auto vars:     Size  Location     Type
 10237 ;;		None
 10238 ;; Return value:  Size  Location     Type
 10239 ;;		None               void
 10240 ;; Registers used:
 10241 ;;		wreg, status,2, status,0
 10242 ;; Tracked objects:
 10243 ;;		On entry : 0/0
 10244 ;;		On exit  : 0/0
 10245 ;;		Unchanged: 0/0
 10246 ;; Data sizes:     COMMON   BANK0   BANK1   BANK2   BANK3   BANK4   BANK5   BANK6   BANK7   BANK8   BANK9  BANK10  BANK1
      +1  BANK12  BANK13  BANK14  BANK15  BANK16  BANK17  BANK18  BANK19  BANK20  BANK21  BANK22  BANK23  BANK24  BANK25
 10247 ;;      Params:         8       0       0       0       0       0       0       0       0       0       0       0       
      +0       0       0       0       0       0       0       0       0       0       0       0       0       0       0
 10248 ;;      Locals:         0       0       0       0       0       0       0       0       0       0       0       0       
      +0       0       0       0       0       0       0       0       0       0       0       0       0       0       0
 10249 ;;      Temps:          4       0       0       0       0       0       0       0       0       0       0       0       
      +0       0       0       0       0       0       0       0       0       0       0       0       0       0       0
 10250 ;;      Totals:        12       0       0       0       0       0       0       0       0       0       0       0       
      +0       0       0       0       0       0       0       0       0       0       0       0       0       0       0
 10251 ;;Total ram usage:       12 bytes
 10252 ;; Hardware stack levels used: 1
 10253 ;; This function calls:
 10254 ;;		Nothing
 10255 ;; This function is called by:
 10256 ;;		_ml_predict
 10257 ;;		_print_float
 10258 ;;		_strtof
 10259 ;; This function uses a non-reentrant model
 10260 ;;
 10261                           
 10262     11D8                     ___flge:	
 10263                           ;psect for function ___flge
 10264                           
 10265     11D8                     l2991:	
 10266                           ;incstack = 0
 10267                           ; Regs used in ___flge: [wreg+status,2+status,0]
 10268                           
 10269     11D8  3000               	movlw	0
 10270     11D9  0570               	andwf	___flge@ff1,w
 10271     11DA  00F8               	movwf	??___flge
 10272     11DB  3000               	movlw	0
 10273     11DC  0571               	andwf	___flge@ff1+1,w
 10274     11DD  00F9               	movwf	??___flge+1
 10275     11DE  3080               	movlw	128
 10276     11DF  0572               	andwf	___flge@ff1+2,w
 10277     11E0  00FA               	movwf	??___flge+2
 10278     11E1  307F               	movlw	127
 10279     11E2  0573               	andwf	___flge@ff1+3,w
 10280     11E3  00FB               	movwf	??___flge+3
 10281     11E4  087B               	movf	??___flge+3,w
 10282     11E5  047A               	iorwf	??___flge+2,w
 10283     11E6  0479               	iorwf	??___flge+1,w
 10284     11E7  0478               	iorwf	??___flge,w
 10285     11E8  1D03               	skipz
 10286     11E9  29EB               	goto	u4081
 10287     11EA  29EC               	goto	u4080
 10288     11EB                     u4081:
 10289     11EB  29F4               	goto	l505
 10290     11EC                     u4080:
 10291     11EC                     l2993:
 10292     11EC  3000               	movlw	0
 10293     11ED  00F3               	movwf	___flge@ff1+3
 10294     11EE  3000               	movlw	0
 10295     11EF  00F2               	movwf	___flge@ff1+2
 10296     11F0  3000               	movlw	0
 10297     11F1  00F1               	movwf	___flge@ff1+1
 10298     11F2  3000               	movlw	0
 10299     11F3  00F0               	movwf	___flge@ff1
 10300     11F4                     l505:
 10301     11F4  3000               	movlw	0
 10302     11F5  0574               	andwf	___flge@ff2,w
 10303     11F6  00F8               	movwf	??___flge
 10304     11F7  3000               	movlw	0
 10305     11F8  0575               	andwf	___flge@ff2+1,w
 10306     11F9  00F9               	movwf	??___flge+1
 10307     11FA  3080               	movlw	128
 10308     11FB  0576               	andwf	___flge@ff2+2,w
 10309     11FC  00FA               	movwf	??___flge+2
 10310     11FD  307F               	movlw	127
 10311     11FE  0577               	andwf	___flge@ff2+3,w
 10312     11FF  00FB               	movwf	??___flge+3
 10313     1200  087B               	movf	??___flge+3,w
 10314     1201  047A               	iorwf	??___flge+2,w
 10315     1202  0479               	iorwf	??___flge+1,w
 10316     1203  0478               	iorwf	??___flge,w
 10317     1204  1D03               	skipz
 10318     1205  2A07               	goto	u4091
 10319     1206  2A08               	goto	u4090
 10320     1207                     u4091:
 10321     1207  2A10               	goto	l2997
 10322     1208                     u4090:
 10323     1208                     l2995:
 10324     1208  3000               	movlw	0
 10325     1209  00F7               	movwf	___flge@ff2+3
 10326     120A  3000               	movlw	0
 10327     120B  00F6               	movwf	___flge@ff2+2
 10328     120C  3000               	movlw	0
 10329     120D  00F5               	movwf	___flge@ff2+1
 10330     120E  3000               	movlw	0
 10331     120F  00F4               	movwf	___flge@ff2
 10332     1210                     l2997:
 10333     1210  1FF3               	btfss	___flge@ff1+3,7
 10334     1211  2A13               	goto	u4101
 10335     1212  2A14               	goto	u4100
 10336     1213                     u4101:
 10337     1213  2A2C               	goto	l3001
 10338     1214                     u4100:
 10339     1214                     l2999:
 10340     1214  3000               	movlw	0
 10341     1215  00F8               	movwf	??___flge
 10342     1216  3000               	movlw	0
 10343     1217  00F9               	movwf	??___flge+1
 10344     1218  3000               	movlw	0
 10345     1219  00FA               	movwf	??___flge+2
 10346     121A  3080               	movlw	128
 10347     121B  00FB               	movwf	??___flge+3
 10348     121C  0870               	movf	___flge@ff1,w
 10349     121D  02F8               	subwf	??___flge,f
 10350     121E  0871               	movf	___flge@ff1+1,w
 10351     121F  3BF9               	subwfb	??___flge+1,f
 10352     1220  0872               	movf	___flge@ff1+2,w
 10353     1221  3BFA               	subwfb	??___flge+2,f
 10354     1222  0873               	movf	___flge@ff1+3,w
 10355     1223  3BFB               	subwfb	??___flge+3,f
 10356     1224  087B               	movf	??___flge+3,w
 10357     1225  00F3               	movwf	___flge@ff1+3
 10358     1226  087A               	movf	??___flge+2,w
 10359     1227  00F2               	movwf	___flge@ff1+2
 10360     1228  0879               	movf	??___flge+1,w
 10361     1229  00F1               	movwf	___flge@ff1+1
 10362     122A  0878               	movf	??___flge,w
 10363     122B  00F0               	movwf	___flge@ff1
 10364     122C                     l3001:
 10365     122C  1FF7               	btfss	___flge@ff2+3,7
 10366     122D  2A2F               	goto	u4111
 10367     122E  2A30               	goto	u4110
 10368     122F                     u4111:
 10369     122F  2A48               	goto	l508
 10370     1230                     u4110:
 10371     1230                     l3003:
 10372     1230  3000               	movlw	0
 10373     1231  00F8               	movwf	??___flge
 10374     1232  3000               	movlw	0
 10375     1233  00F9               	movwf	??___flge+1
 10376     1234  3000               	movlw	0
 10377     1235  00FA               	movwf	??___flge+2
 10378     1236  3080               	movlw	128
 10379     1237  00FB               	movwf	??___flge+3
 10380     1238  0874               	movf	___flge@ff2,w
 10381     1239  02F8               	subwf	??___flge,f
 10382     123A  0875               	movf	___flge@ff2+1,w
 10383     123B  3BF9               	subwfb	??___flge+1,f
 10384     123C  0876               	movf	___flge@ff2+2,w
 10385     123D  3BFA               	subwfb	??___flge+2,f
 10386     123E  0877               	movf	___flge@ff2+3,w
 10387     123F  3BFB               	subwfb	??___flge+3,f
 10388     1240  087B               	movf	??___flge+3,w
 10389     1241  00F7               	movwf	___flge@ff2+3
 10390     1242  087A               	movf	??___flge+2,w
 10391     1243  00F6               	movwf	___flge@ff2+2
 10392     1244  0879               	movf	??___flge+1,w
 10393     1245  00F5               	movwf	___flge@ff2+1
 10394     1246  0878               	movf	??___flge,w
 10395     1247  00F4               	movwf	___flge@ff2
 10396     1248                     l508:
 10397     1248  3080               	movlw	128
 10398     1249  06F3               	xorwf	___flge@ff1+3,f
 10399     124A  3080               	movlw	128
 10400     124B  06F7               	xorwf	___flge@ff2+3,f
 10401     124C  0877               	movf	___flge@ff2+3,w
 10402     124D  0273               	subwf	___flge@ff1+3,w
 10403     124E  1D03               	skipz
 10404     124F  2A5A               	goto	u4125
 10405     1250  0876               	movf	___flge@ff2+2,w
 10406     1251  0272               	subwf	___flge@ff1+2,w
 10407     1252  1D03               	skipz
 10408     1253  2A5A               	goto	u4125
 10409     1254  0875               	movf	___flge@ff2+1,w
 10410     1255  0271               	subwf	___flge@ff1+1,w
 10411     1256  1D03               	skipz
 10412     1257  2A5A               	goto	u4125
 10413     1258  0874               	movf	___flge@ff2,w
 10414     1259  0270               	subwf	___flge@ff1,w
 10415     125A                     u4125:
 10416     125A  1803               	skipnc
 10417     125B  2A5D               	goto	u4121
 10418     125C  2A5E               	goto	u4120
 10419     125D                     u4121:
 10420     125D  2A60               	goto	l3007
 10421     125E                     u4120:
 10422     125E                     l3005:
 10423     125E  1003               	clrc
 10424     125F  2A61               	goto	l513
 10425     1260                     l3007:
 10426     1260  1403               	setc
 10427     1261                     l513:
 10428     1261  0008               	return
 10429     1262                     __end_of___flge:
 10430                           
 10431                           	psect	text27
 10432     1F62                     __ptext27:	
 10433 ;; *************** function ___fleq *****************
 10434 ;; Defined at:
 10435 ;;		line 4 in file "C:\Program Files\Microchip\xc8\v2.46\pic\sources\c99\common\fleq.c"
 10436 ;; Parameters:    Size  Location     Type
 10437 ;;  ff1             4    0[COMMON] unsigned int 
 10438 ;;  ff2             4    4[COMMON] unsigned int 
 10439 ;; Auto vars:     Size  Location     Type
 10440 ;;		None
 10441 ;; Return value:  Size  Location     Type
 10442 ;;		None               void
 10443 ;; Registers used:
 10444 ;;		wreg, status,2, status,0
 10445 ;; Tracked objects:
 10446 ;;		On entry : 0/0
 10447 ;;		On exit  : 0/0
 10448 ;;		Unchanged: 0/0
 10449 ;; Data sizes:     COMMON   BANK0   BANK1   BANK2   BANK3   BANK4   BANK5   BANK6   BANK7   BANK8   BANK9  BANK10  BANK1
      +1  BANK12  BANK13  BANK14  BANK15  BANK16  BANK17  BANK18  BANK19  BANK20  BANK21  BANK22  BANK23  BANK24  BANK25
 10450 ;;      Params:         8       0       0       0       0       0       0       0       0       0       0       0       
      +0       0       0       0       0       0       0       0       0       0       0       0       0       0       0
 10451 ;;      Locals:         0       0       0       0       0       0       0       0       0       0       0       0       
      +0       0       0       0       0       0       0       0       0       0       0       0       0       0       0
 10452 ;;      Temps:          4       0       0       0       0       0       0       0       0       0       0       0       
      +0       0       0       0       0       0       0       0       0       0       0       0       0       0       0
 10453 ;;      Totals:        12       0       0       0       0       0       0       0       0       0       0       0       
      +0       0       0       0       0       0       0       0       0       0       0       0       0       0       0
 10454 ;;Total ram usage:       12 bytes
 10455 ;; Hardware stack levels used: 1
 10456 ;; This function calls:
 10457 ;;		Nothing
 10458 ;; This function is called by:
 10459 ;;		_strtof
 10460 ;; This function uses a non-reentrant model
 10461 ;;
 10462                           
 10463     1F62                     ___fleq:	
 10464                           ;psect for function ___fleq
 10465                           
 10466     1F62                     l3429:	
 10467                           ;incstack = 0
 10468                           ; Regs used in ___fleq: [wreg+status,2+status,0]
 10469                           
 10470     1F62  3000               	movlw	0
 10471     1F63  0570               	andwf	___fleq@ff1,w
 10472     1F64  00F8               	movwf	??___fleq
 10473     1F65  3000               	movlw	0
 10474     1F66  0571               	andwf	___fleq@ff1+1,w
 10475     1F67  00F9               	movwf	??___fleq+1
 10476     1F68  3080               	movlw	128
 10477     1F69  0572               	andwf	___fleq@ff1+2,w
 10478     1F6A  00FA               	movwf	??___fleq+2
 10479     1F6B  307F               	movlw	127
 10480     1F6C  0573               	andwf	___fleq@ff1+3,w
 10481     1F6D  00FB               	movwf	??___fleq+3
 10482     1F6E  087B               	movf	??___fleq+3,w
 10483     1F6F  047A               	iorwf	??___fleq+2,w
 10484     1F70  0479               	iorwf	??___fleq+1,w
 10485     1F71  0478               	iorwf	??___fleq,w
 10486     1F72  1D03               	skipz
 10487     1F73  2F75               	goto	u4921
 10488     1F74  2F76               	goto	u4920
 10489     1F75                     u4921:
 10490     1F75  2F7E               	goto	l496
 10491     1F76                     u4920:
 10492     1F76                     l3431:
 10493     1F76  3000               	movlw	0
 10494     1F77  00F3               	movwf	___fleq@ff1+3
 10495     1F78  3000               	movlw	0
 10496     1F79  00F2               	movwf	___fleq@ff1+2
 10497     1F7A  3000               	movlw	0
 10498     1F7B  00F1               	movwf	___fleq@ff1+1
 10499     1F7C  3000               	movlw	0
 10500     1F7D  00F0               	movwf	___fleq@ff1
 10501     1F7E                     l496:
 10502     1F7E  3000               	movlw	0
 10503     1F7F  0574               	andwf	___fleq@ff2,w
 10504     1F80  00F8               	movwf	??___fleq
 10505     1F81  3000               	movlw	0
 10506     1F82  0575               	andwf	___fleq@ff2+1,w
 10507     1F83  00F9               	movwf	??___fleq+1
 10508     1F84  3080               	movlw	128
 10509     1F85  0576               	andwf	___fleq@ff2+2,w
 10510     1F86  00FA               	movwf	??___fleq+2
 10511     1F87  307F               	movlw	127
 10512     1F88  0577               	andwf	___fleq@ff2+3,w
 10513     1F89  00FB               	movwf	??___fleq+3
 10514     1F8A  087B               	movf	??___fleq+3,w
 10515     1F8B  047A               	iorwf	??___fleq+2,w
 10516     1F8C  0479               	iorwf	??___fleq+1,w
 10517     1F8D  0478               	iorwf	??___fleq,w
 10518     1F8E  1D03               	skipz
 10519     1F8F  2F91               	goto	u4931
 10520     1F90  2F92               	goto	u4930
 10521     1F91                     u4931:
 10522     1F91  2F9A               	goto	l497
 10523     1F92                     u4930:
 10524     1F92                     l3433:
 10525     1F92  3000               	movlw	0
 10526     1F93  00F7               	movwf	___fleq@ff2+3
 10527     1F94  3000               	movlw	0
 10528     1F95  00F6               	movwf	___fleq@ff2+2
 10529     1F96  3000               	movlw	0
 10530     1F97  00F5               	movwf	___fleq@ff2+1
 10531     1F98  3000               	movlw	0
 10532     1F99  00F4               	movwf	___fleq@ff2
 10533     1F9A                     l497:
 10534     1F9A  0877               	movf	___fleq@ff2+3,w
 10535     1F9B  0673               	xorwf	___fleq@ff1+3,w
 10536     1F9C  1D03               	skipz
 10537     1F9D  2FA8               	goto	u4945
 10538     1F9E  0876               	movf	___fleq@ff2+2,w
 10539     1F9F  0672               	xorwf	___fleq@ff1+2,w
 10540     1FA0  1D03               	skipz
 10541     1FA1  2FA8               	goto	u4945
 10542     1FA2  0875               	movf	___fleq@ff2+1,w
 10543     1FA3  0671               	xorwf	___fleq@ff1+1,w
 10544     1FA4  1D03               	skipz
 10545     1FA5  2FA8               	goto	u4945
 10546     1FA6  0874               	movf	___fleq@ff2,w
 10547     1FA7  0670               	xorwf	___fleq@ff1,w
 10548     1FA8                     u4945:
 10549     1FA8  1903               	skipnz
 10550     1FA9  2FAB               	goto	u4941
 10551     1FAA  2FAC               	goto	u4940
 10552     1FAB                     u4941:
 10553     1FAB  2FAE               	goto	l3437
 10554     1FAC                     u4940:
 10555     1FAC                     l3435:
 10556     1FAC  1003               	clrc
 10557     1FAD  2FAF               	goto	l502
 10558     1FAE                     l3437:
 10559     1FAE  1403               	setc
 10560     1FAF                     l502:
 10561     1FAF  0008               	return
 10562     1FB0                     __end_of___fleq:
 10563                           
 10564                           	psect	text28
 10565     1656                     __ptext28:	
 10566 ;; *************** function ___fldiv *****************
 10567 ;; Defined at:
 10568 ;;		line 8 in file "C:\Program Files\Microchip\xc8\v2.46\pic\sources\c99\common\sprcdiv.c"
 10569 ;; Parameters:    Size  Location     Type
 10570 ;;  a               4    0[COMMON] unsigned int 
 10571 ;;  b               4    4[COMMON] unsigned int 
 10572 ;; Auto vars:     Size  Location     Type
 10573 ;;  grs             4    7[BANK0 ] unsigned long 
 10574 ;;  rem             4    0[BANK0 ] unsigned long 
 10575 ;;  new_exp         2    5[BANK0 ] short 
 10576 ;;  aexp            1   12[BANK0 ] unsigned char 
 10577 ;;  bexp            1   11[BANK0 ] unsigned char 
 10578 ;;  sign            1    4[BANK0 ] unsigned char 
 10579 ;; Return value:  Size  Location     Type
 10580 ;;                  4    0[COMMON] unsigned char 
 10581 ;; Registers used:
 10582 ;;		wreg, status,2, status,0
 10583 ;; Tracked objects:
 10584 ;;		On entry : 0/0
 10585 ;;		On exit  : 0/0
 10586 ;;		Unchanged: 0/0
 10587 ;; Data sizes:     COMMON   BANK0   BANK1   BANK2   BANK3   BANK4   BANK5   BANK6   BANK7   BANK8   BANK9  BANK10  BANK1
      +1  BANK12  BANK13  BANK14  BANK15  BANK16  BANK17  BANK18  BANK19  BANK20  BANK21  BANK22  BANK23  BANK24  BANK25
 10588 ;;      Params:         8       0       0       0       0       0       0       0       0       0       0       0       
      +0       0       0       0       0       0       0       0       0       0       0       0       0       0       0
 10589 ;;      Locals:         0      13       0       0       0       0       0       0       0       0       0       0       
      +0       0       0       0       0       0       0       0       0       0       0       0       0       0       0
 10590 ;;      Temps:          5       0       0       0       0       0       0       0       0       0       0       0       
      +0       0       0       0       0       0       0       0       0       0       0       0       0       0       0
 10591 ;;      Totals:        13      13       0       0       0       0       0       0       0       0       0       0       
      +0       0       0       0       0       0       0       0       0       0       0       0       0       0       0
 10592 ;;Total ram usage:       26 bytes
 10593 ;; Hardware stack levels used: 1
 10594 ;; This function calls:
 10595 ;;		Nothing
 10596 ;; This function is called by:
 10597 ;;		_strtof
 10598 ;; This function uses a non-reentrant model
 10599 ;;
 10600                           
 10601     1656                     ___fldiv:	
 10602                           ;psect for function ___fldiv
 10603                           
 10604     1656                     l3441:	
 10605                           ;incstack = 0
 10606                           ; Regs used in ___fldiv: [wreg+status,2+status,0]
 10607                           
 10608     1656  0877               	movf	___fldiv@b+3,w
 10609     1657  3980               	andlw	128
 10610     1658  0020               	movlb	0	; select bank0
 10611     1659  00A4               	movwf	___fldiv@sign
 10612     165A                     l3443:
 10613     165A  3577               	lslf	___fldiv@b+3,w
 10614     165B  00AB               	movwf	___fldiv@bexp
 10615     165C                     l3445:
 10616     165C  1FF6               	btfss	___fldiv@b+2,7
 10617     165D  2E5F               	goto	u4951
 10618     165E  2E60               	goto	u4950
 10619     165F                     u4951:
 10620     165F  2E61               	goto	l3449
 10621     1660                     u4950:
 10622     1660                     l3447:
 10623     1660  142B               	bsf	___fldiv@bexp,0
 10624     1661                     l3449:
 10625     1661  082B               	movf	___fldiv@bexp,w
 10626     1662  1903               	btfsc	3,2
 10627     1663  2E65               	goto	u4961
 10628     1664  2E66               	goto	u4960
 10629     1665                     u4961:
 10630     1665  2E76               	goto	l3459
 10631     1666                     u4960:
 10632     1666                     l3451:
 10633     1666  0A2B               	incf	___fldiv@bexp,w
 10634     1667  1D03               	btfss	3,2
 10635     1668  2E6A               	goto	u4971
 10636     1669  2E6B               	goto	u4970
 10637     166A                     u4971:
 10638     166A  2E73               	goto	l3455
 10639     166B                     u4970:
 10640     166B                     l3453:
 10641     166B  3000               	movlw	0
 10642     166C  00F7               	movwf	___fldiv@b+3
 10643     166D  3000               	movlw	0
 10644     166E  00F6               	movwf	___fldiv@b+2
 10645     166F  3000               	movlw	0
 10646     1670  00F5               	movwf	___fldiv@b+1
 10647     1671  3000               	movlw	0
 10648     1672  00F4               	movwf	___fldiv@b
 10649     1673                     l3455:
 10650     1673  17F6               	bsf	___fldiv@b+2,7
 10651     1674                     l3457:
 10652     1674  01F7               	clrf	___fldiv@b+3
 10653     1675  2E7E               	goto	l3461
 10654     1676                     l3459:
 10655     1676  3000               	movlw	0
 10656     1677  00F7               	movwf	___fldiv@b+3
 10657     1678  3000               	movlw	0
 10658     1679  00F6               	movwf	___fldiv@b+2
 10659     167A  3000               	movlw	0
 10660     167B  00F5               	movwf	___fldiv@b+1
 10661     167C  3000               	movlw	0
 10662     167D  00F4               	movwf	___fldiv@b
 10663     167E                     l3461:
 10664     167E  0873               	movf	___fldiv@a+3,w
 10665     167F  3980               	andlw	128
 10666     1680  00F8               	movwf	??___fldiv
 10667     1681  0878               	movf	??___fldiv,w
 10668     1682  06A4               	xorwf	___fldiv@sign,f
 10669     1683                     l3463:
 10670     1683  3573               	lslf	___fldiv@a+3,w
 10671     1684  00AC               	movwf	___fldiv@aexp
 10672     1685                     l3465:
 10673     1685  1FF2               	btfss	___fldiv@a+2,7
 10674     1686  2E88               	goto	u4981
 10675     1687  2E89               	goto	u4980
 10676     1688                     u4981:
 10677     1688  2E8A               	goto	l3469
 10678     1689                     u4980:
 10679     1689                     l3467:
 10680     1689  142C               	bsf	___fldiv@aexp,0
 10681     168A                     l3469:
 10682     168A  082C               	movf	___fldiv@aexp,w
 10683     168B  1903               	btfsc	3,2
 10684     168C  2E8E               	goto	u4991
 10685     168D  2E8F               	goto	u4990
 10686     168E                     u4991:
 10687     168E  2E9F               	goto	l3479
 10688     168F                     u4990:
 10689     168F                     l3471:
 10690     168F  0A2C               	incf	___fldiv@aexp,w
 10691     1690  1D03               	btfss	3,2
 10692     1691  2E93               	goto	u5001
 10693     1692  2E94               	goto	u5000
 10694     1693                     u5001:
 10695     1693  2E9C               	goto	l3475
 10696     1694                     u5000:
 10697     1694                     l3473:
 10698     1694  3000               	movlw	0
 10699     1695  00F3               	movwf	___fldiv@a+3
 10700     1696  3000               	movlw	0
 10701     1697  00F2               	movwf	___fldiv@a+2
 10702     1698  3000               	movlw	0
 10703     1699  00F1               	movwf	___fldiv@a+1
 10704     169A  3000               	movlw	0
 10705     169B  00F0               	movwf	___fldiv@a
 10706     169C                     l3475:
 10707     169C  17F2               	bsf	___fldiv@a+2,7
 10708     169D                     l3477:
 10709     169D  01F3               	clrf	___fldiv@a+3
 10710     169E  2EA7               	goto	l684
 10711     169F                     l3479:
 10712     169F  3000               	movlw	0
 10713     16A0  00F3               	movwf	___fldiv@a+3
 10714     16A1  3000               	movlw	0
 10715     16A2  00F2               	movwf	___fldiv@a+2
 10716     16A3  3000               	movlw	0
 10717     16A4  00F1               	movwf	___fldiv@a+1
 10718     16A5  3000               	movlw	0
 10719     16A6  00F0               	movwf	___fldiv@a
 10720     16A7                     l684:
 10721     16A7  0873               	movf	___fldiv@a+3,w
 10722     16A8  0472               	iorwf	___fldiv@a+2,w
 10723     16A9  0471               	iorwf	___fldiv@a+1,w
 10724     16AA  0470               	iorwf	___fldiv@a,w
 10725     16AB  1D03               	skipz
 10726     16AC  2EAE               	goto	u5011
 10727     16AD  2EAF               	goto	u5010
 10728     16AE                     u5011:
 10729     16AE  2EC8               	goto	l3489
 10730     16AF                     u5010:
 10731     16AF                     l3481:
 10732     16AF  3000               	movlw	0
 10733     16B0  00F7               	movwf	___fldiv@b+3
 10734     16B1  3000               	movlw	0
 10735     16B2  00F6               	movwf	___fldiv@b+2
 10736     16B3  3000               	movlw	0
 10737     16B4  00F5               	movwf	___fldiv@b+1
 10738     16B5  3000               	movlw	0
 10739     16B6  00F4               	movwf	___fldiv@b
 10740     16B7  3080               	movlw	128
 10741     16B8  04F6               	iorwf	___fldiv@b+2,f
 10742     16B9  307F               	movlw	127
 10743     16BA  04F7               	iorwf	___fldiv@b+3,f
 10744     16BB                     l3483:
 10745     16BB  0824               	movf	___fldiv@sign,w
 10746     16BC  00F8               	movwf	??___fldiv
 10747     16BD  0878               	movf	??___fldiv,w
 10748     16BE  04F7               	iorwf	___fldiv@b+3,f
 10749     16BF                     l3485:
 10750     16BF  0877               	movf	___fldiv@b+3,w
 10751     16C0  00F3               	movwf	?___fldiv+3
 10752     16C1  0876               	movf	___fldiv@b+2,w
 10753     16C2  00F2               	movwf	?___fldiv+2
 10754     16C3  0875               	movf	___fldiv@b+1,w
 10755     16C4  00F1               	movwf	?___fldiv+1
 10756     16C5  0874               	movf	___fldiv@b,w
 10757     16C6  00F0               	movwf	?___fldiv
 10758     16C7  2FFF               	goto	l686
 10759     16C8                     l3489:
 10760     16C8  082B               	movf	___fldiv@bexp,w
 10761     16C9  1D03               	btfss	3,2
 10762     16CA  2ECC               	goto	u5021
 10763     16CB  2ECD               	goto	u5020
 10764     16CC                     u5021:
 10765     16CC  2ED6               	goto	l3495
 10766     16CD                     u5020:
 10767     16CD                     l3491:
 10768     16CD  3000               	movlw	0
 10769     16CE  00F3               	movwf	?___fldiv+3
 10770     16CF  3000               	movlw	0
 10771     16D0  00F2               	movwf	?___fldiv+2
 10772     16D1  3000               	movlw	0
 10773     16D2  00F1               	movwf	?___fldiv+1
 10774     16D3  3000               	movlw	0
 10775     16D4  00F0               	movwf	?___fldiv
 10776     16D5  2FFF               	goto	l686
 10777     16D6                     l3495:
 10778     16D6  082B               	movf	___fldiv@bexp,w
 10779     16D7  00F8               	movwf	??___fldiv
 10780     16D8  01F9               	clrf	??___fldiv+1
 10781     16D9  0879               	movf	??___fldiv+1,w
 10782     16DA  00FB               	movwf	??___fldiv+3
 10783     16DB  082C               	movf	___fldiv@aexp,w
 10784     16DC  0278               	subwf	??___fldiv,w
 10785     16DD  00FA               	movwf	??___fldiv+2
 10786     16DE  1C03               	skipc
 10787     16DF  03FB               	decf	??___fldiv+3,f
 10788     16E0  087A               	movf	??___fldiv+2,w
 10789     16E1  3E7F               	addlw	127
 10790     16E2  00A5               	movwf	___fldiv@new_exp
 10791     16E3  3000               	movlw	0
 10792     16E4  3D7B               	addwfc	??___fldiv+3,w
 10793     16E5  00A6               	movwf	___fldiv@new_exp+1
 10794     16E6                     l3497:
 10795     16E6  0877               	movf	___fldiv@b+3,w
 10796     16E7  00A3               	movwf	___fldiv@rem+3
 10797     16E8  0876               	movf	___fldiv@b+2,w
 10798     16E9  00A2               	movwf	___fldiv@rem+2
 10799     16EA  0875               	movf	___fldiv@b+1,w
 10800     16EB  00A1               	movwf	___fldiv@rem+1
 10801     16EC  0874               	movf	___fldiv@b,w
 10802     16ED  00A0               	movwf	___fldiv@rem
 10803     16EE                     l3499:
 10804     16EE  3000               	movlw	0
 10805     16EF  00F7               	movwf	___fldiv@b+3
 10806     16F0  3000               	movlw	0
 10807     16F1  00F6               	movwf	___fldiv@b+2
 10808     16F2  3000               	movlw	0
 10809     16F3  00F5               	movwf	___fldiv@b+1
 10810     16F4  3000               	movlw	0
 10811     16F5  00F4               	movwf	___fldiv@b
 10812     16F6                     l3501:
 10813     16F6  3000               	movlw	0
 10814     16F7  00AA               	movwf	___fldiv@grs+3
 10815     16F8  3000               	movlw	0
 10816     16F9  00A9               	movwf	___fldiv@grs+2
 10817     16FA  3000               	movlw	0
 10818     16FB  00A8               	movwf	___fldiv@grs+1
 10819     16FC  3000               	movlw	0
 10820     16FD  00A7               	movwf	___fldiv@grs
 10821     16FE                     l3503:
 10822     16FE  01AC               	clrf	___fldiv@aexp
 10823     16FF  2F3E               	goto	l3523
 10824     1700                     l3505:
 10825     1700  082C               	movf	___fldiv@aexp,w
 10826     1701  1903               	btfsc	3,2
 10827     1702  2F04               	goto	u5031
 10828     1703  2F05               	goto	u5030
 10829     1704                     u5031:
 10830     1704  2F1F               	goto	l3515
 10831     1705                     u5030:
 10832     1705                     l3507:
 10833     1705  3001               	movlw	1
 10834     1706                     u5045:
 10835     1706  35A0               	lslf	___fldiv@rem,f
 10836     1707  0DA1               	rlf	___fldiv@rem+1,f
 10837     1708  0DA2               	rlf	___fldiv@rem+2,f
 10838     1709  0DA3               	rlf	___fldiv@rem+3,f
 10839     170A  0B89               	decfsz	9,f
 10840     170B  2F06               	goto	u5045
 10841     170C  3001               	movlw	1
 10842     170D                     u5055:
 10843     170D  35F4               	lslf	___fldiv@b,f
 10844     170E  0DF5               	rlf	___fldiv@b+1,f
 10845     170F  0DF6               	rlf	___fldiv@b+2,f
 10846     1710  0DF7               	rlf	___fldiv@b+3,f
 10847     1711  0B89               	decfsz	9,f
 10848     1712  2F0D               	goto	u5055
 10849     1713                     l3509:
 10850     1713  1FAA               	btfss	___fldiv@grs+3,7
 10851     1714  2F16               	goto	u5061
 10852     1715  2F17               	goto	u5060
 10853     1716                     u5061:
 10854     1716  2F18               	goto	l3513
 10855     1717                     u5060:
 10856     1717                     l3511:
 10857     1717  1474               	bsf	___fldiv@b,0
 10858     1718                     l3513:
 10859     1718  3001               	movlw	1
 10860     1719                     u5075:
 10861     1719  35A7               	lslf	___fldiv@grs,f
 10862     171A  0DA8               	rlf	___fldiv@grs+1,f
 10863     171B  0DA9               	rlf	___fldiv@grs+2,f
 10864     171C  0DAA               	rlf	___fldiv@grs+3,f
 10865     171D  0B89               	decfsz	9,f
 10866     171E  2F19               	goto	u5075
 10867     171F                     l3515:
 10868     171F  0873               	movf	___fldiv@a+3,w
 10869     1720  0223               	subwf	___fldiv@rem+3,w
 10870     1721  1D03               	skipz
 10871     1722  2F2D               	goto	u5085
 10872     1723  0872               	movf	___fldiv@a+2,w
 10873     1724  0222               	subwf	___fldiv@rem+2,w
 10874     1725  1D03               	skipz
 10875     1726  2F2D               	goto	u5085
 10876     1727  0871               	movf	___fldiv@a+1,w
 10877     1728  0221               	subwf	___fldiv@rem+1,w
 10878     1729  1D03               	skipz
 10879     172A  2F2D               	goto	u5085
 10880     172B  0870               	movf	___fldiv@a,w
 10881     172C  0220               	subwf	___fldiv@rem,w
 10882     172D                     u5085:
 10883     172D  1C03               	skipc
 10884     172E  2F30               	goto	u5081
 10885     172F  2F31               	goto	u5080
 10886     1730                     u5081:
 10887     1730  2F3A               	goto	l3521
 10888     1731                     u5080:
 10889     1731                     l3517:
 10890     1731  172A               	bsf	___fldiv@grs+3,6
 10891     1732                     l3519:
 10892     1732  0870               	movf	___fldiv@a,w
 10893     1733  02A0               	subwf	___fldiv@rem,f
 10894     1734  0871               	movf	___fldiv@a+1,w
 10895     1735  3BA1               	subwfb	___fldiv@rem+1,f
 10896     1736  0872               	movf	___fldiv@a+2,w
 10897     1737  3BA2               	subwfb	___fldiv@rem+2,f
 10898     1738  0873               	movf	___fldiv@a+3,w
 10899     1739  3BA3               	subwfb	___fldiv@rem+3,f
 10900     173A                     l3521:
 10901     173A  3001               	movlw	1
 10902     173B  00F8               	movwf	??___fldiv
 10903     173C  0878               	movf	??___fldiv,w
 10904     173D  07AC               	addwf	___fldiv@aexp,f
 10905     173E                     l3523:
 10906     173E  301A               	movlw	26
 10907     173F  022C               	subwf	___fldiv@aexp,w
 10908     1740  1C03               	skipc
 10909     1741  2F43               	goto	u5091
 10910     1742  2F44               	goto	u5090
 10911     1743                     u5091:
 10912     1743  2F00               	goto	l3505
 10913     1744                     u5090:
 10914     1744                     l3525:
 10915     1744  0823               	movf	___fldiv@rem+3,w
 10916     1745  0422               	iorwf	___fldiv@rem+2,w
 10917     1746  0421               	iorwf	___fldiv@rem+1,w
 10918     1747  0420               	iorwf	___fldiv@rem,w
 10919     1748  1903               	skipnz
 10920     1749  2F4B               	goto	u5101
 10921     174A  2F4C               	goto	u5100
 10922     174B                     u5101:
 10923     174B  2F65               	goto	l3539
 10924     174C                     u5100:
 10925     174C                     l3527:
 10926     174C  1427               	bsf	___fldiv@grs,0
 10927     174D  2F65               	goto	l3539
 10928     174E                     l3529:
 10929     174E  3001               	movlw	1
 10930     174F                     u5115:
 10931     174F  35F4               	lslf	___fldiv@b,f
 10932     1750  0DF5               	rlf	___fldiv@b+1,f
 10933     1751  0DF6               	rlf	___fldiv@b+2,f
 10934     1752  0DF7               	rlf	___fldiv@b+3,f
 10935     1753  0B89               	decfsz	9,f
 10936     1754  2F4F               	goto	u5115
 10937     1755                     l3531:
 10938     1755  1FAA               	btfss	___fldiv@grs+3,7
 10939     1756  2F58               	goto	u5121
 10940     1757  2F59               	goto	u5120
 10941     1758                     u5121:
 10942     1758  2F5A               	goto	l3535
 10943     1759                     u5120:
 10944     1759                     l3533:
 10945     1759  1474               	bsf	___fldiv@b,0
 10946     175A                     l3535:
 10947     175A  3001               	movlw	1
 10948     175B                     u5135:
 10949     175B  35A7               	lslf	___fldiv@grs,f
 10950     175C  0DA8               	rlf	___fldiv@grs+1,f
 10951     175D  0DA9               	rlf	___fldiv@grs+2,f
 10952     175E  0DAA               	rlf	___fldiv@grs+3,f
 10953     175F  0B89               	decfsz	9,f
 10954     1760  2F5B               	goto	u5135
 10955     1761                     l3537:
 10956     1761  30FF               	movlw	255
 10957     1762  07A5               	addwf	___fldiv@new_exp,f
 10958     1763  30FF               	movlw	255
 10959     1764  3DA6               	addwfc	___fldiv@new_exp+1,f
 10960     1765                     l3539:
 10961     1765  1FF6               	btfss	___fldiv@b+2,7
 10962     1766  2F68               	goto	u5141
 10963     1767  2F69               	goto	u5140
 10964     1768                     u5141:
 10965     1768  2F4E               	goto	l3529
 10966     1769                     u5140:
 10967     1769                     l3541:
 10968     1769  01AC               	clrf	___fldiv@aexp
 10969     176A                     l3543:
 10970     176A  1FAA               	btfss	___fldiv@grs+3,7
 10971     176B  2F6D               	goto	u5151
 10972     176C  2F6E               	goto	u5150
 10973     176D                     u5151:
 10974     176D  2F8A               	goto	l3551
 10975     176E                     u5150:
 10976     176E                     l3545:
 10977     176E  30FF               	movlw	255
 10978     176F  0527               	andwf	___fldiv@grs,w
 10979     1770  00F8               	movwf	??___fldiv
 10980     1771  30FF               	movlw	255
 10981     1772  0528               	andwf	___fldiv@grs+1,w
 10982     1773  00F9               	movwf	??___fldiv+1
 10983     1774  30FF               	movlw	255
 10984     1775  0529               	andwf	___fldiv@grs+2,w
 10985     1776  00FA               	movwf	??___fldiv+2
 10986     1777  307F               	movlw	127
 10987     1778  052A               	andwf	___fldiv@grs+3,w
 10988     1779  00FB               	movwf	??___fldiv+3
 10989     177A  087B               	movf	??___fldiv+3,w
 10990     177B  047A               	iorwf	??___fldiv+2,w
 10991     177C  0479               	iorwf	??___fldiv+1,w
 10992     177D  0478               	iorwf	??___fldiv,w
 10993     177E  1903               	skipnz
 10994     177F  2F81               	goto	u5161
 10995     1780  2F82               	goto	u5160
 10996     1781                     u5161:
 10997     1781  2F85               	goto	l700
 10998     1782                     u5160:
 10999     1782                     l3547:
 11000     1782  01AC               	clrf	___fldiv@aexp
 11001     1783  0AAC               	incf	___fldiv@aexp,f
 11002     1784  2F8A               	goto	l3551
 11003     1785                     l700:
 11004     1785  1C74               	btfss	___fldiv@b,0
 11005     1786  2F88               	goto	u5171
 11006     1787  2F89               	goto	u5170
 11007     1788                     u5171:
 11008     1788  2F8A               	goto	l3551
 11009     1789                     u5170:
 11010     1789  2F82               	goto	l3547
 11011     178A                     l3551:
 11012     178A  082C               	movf	___fldiv@aexp,w
 11013     178B  1903               	btfsc	3,2
 11014     178C  2F8E               	goto	u5181
 11015     178D  2F8F               	goto	u5180
 11016     178E                     u5181:
 11017     178E  2FB7               	goto	l3561
 11018     178F                     u5180:
 11019     178F                     l3553:
 11020     178F  3001               	movlw	1
 11021     1790  07F4               	addwf	___fldiv@b,f
 11022     1791  3000               	movlw	0
 11023     1792  3DF5               	addwfc	___fldiv@b+1,f
 11024     1793  3000               	movlw	0
 11025     1794  3DF6               	addwfc	___fldiv@b+2,f
 11026     1795  3000               	movlw	0
 11027     1796  3DF7               	addwfc	___fldiv@b+3,f
 11028     1797                     l3555:
 11029     1797  1C77               	btfss	___fldiv@b+3,0
 11030     1798  2F9A               	goto	u5191
 11031     1799  2F9B               	goto	u5190
 11032     179A                     u5191:
 11033     179A  2FB7               	goto	l3561
 11034     179B                     u5190:
 11035     179B                     l3557:
 11036     179B  0874               	movf	___fldiv@b,w
 11037     179C  00F8               	movwf	??___fldiv
 11038     179D  0875               	movf	___fldiv@b+1,w
 11039     179E  00F9               	movwf	??___fldiv+1
 11040     179F  0876               	movf	___fldiv@b+2,w
 11041     17A0  00FA               	movwf	??___fldiv+2
 11042     17A1  0877               	movf	___fldiv@b+3,w
 11043     17A2  00FB               	movwf	??___fldiv+3
 11044     17A3  3001               	movlw	1
 11045     17A4  00FC               	movwf	??___fldiv+4
 11046     17A5                     u5205:
 11047     17A5  37FB               	asrf	??___fldiv+3,f
 11048     17A6  0CFA               	rrf	??___fldiv+2,f
 11049     17A7  0CF9               	rrf	??___fldiv+1,f
 11050     17A8  0CF8               	rrf	??___fldiv,f
 11051     17A9                     u5200:
 11052     17A9  0BFC               	decfsz	??___fldiv+4,f
 11053     17AA  2FA5               	goto	u5205
 11054     17AB  087B               	movf	??___fldiv+3,w
 11055     17AC  00F7               	movwf	___fldiv@b+3
 11056     17AD  087A               	movf	??___fldiv+2,w
 11057     17AE  00F6               	movwf	___fldiv@b+2
 11058     17AF  0879               	movf	??___fldiv+1,w
 11059     17B0  00F5               	movwf	___fldiv@b+1
 11060     17B1  0878               	movf	??___fldiv,w
 11061     17B2  00F4               	movwf	___fldiv@b
 11062     17B3                     l3559:
 11063     17B3  3001               	movlw	1
 11064     17B4  07A5               	addwf	___fldiv@new_exp,f
 11065     17B5  3000               	movlw	0
 11066     17B6  3DA6               	addwfc	___fldiv@new_exp+1,f
 11067     17B7                     l3561:
 11068     17B7  0826               	movf	___fldiv@new_exp+1,w
 11069     17B8  3A80               	xorlw	128
 11070     17B9  00F8               	movwf	??___fldiv
 11071     17BA  3080               	movlw	128
 11072     17BB  0278               	subwf	??___fldiv,w
 11073     17BC  1D03               	skipz
 11074     17BD  2FC0               	goto	u5215
 11075     17BE  30FF               	movlw	255
 11076     17BF  0225               	subwf	___fldiv@new_exp,w
 11077     17C0                     u5215:
 11078     17C0  1C03               	skipc
 11079     17C1  2FC3               	goto	u5211
 11080     17C2  2FC4               	goto	u5210
 11081     17C3                     u5211:
 11082     17C3  2FD1               	goto	l705
 11083     17C4                     u5210:
 11084     17C4                     l3563:
 11085     17C4  30FF               	movlw	255
 11086     17C5  0020               	movlb	0	; select bank0
 11087     17C6  00A5               	movwf	___fldiv@new_exp
 11088     17C7  3000               	movlw	0
 11089     17C8  00A6               	movwf	___fldiv@new_exp+1
 11090     17C9  3000               	movlw	0
 11091     17CA  00F7               	movwf	___fldiv@b+3
 11092     17CB  3000               	movlw	0
 11093     17CC  00F6               	movwf	___fldiv@b+2
 11094     17CD  3000               	movlw	0
 11095     17CE  00F5               	movwf	___fldiv@b+1
 11096     17CF  3000               	movlw	0
 11097     17D0  00F4               	movwf	___fldiv@b
 11098     17D1                     l705:
 11099     17D1  0020               	movlb	0	; select bank0
 11100     17D2  0826               	movf	___fldiv@new_exp+1,w
 11101     17D3  3A80               	xorlw	128
 11102     17D4  00F8               	movwf	??___fldiv
 11103     17D5  3080               	movlw	128
 11104     17D6  0278               	subwf	??___fldiv,w
 11105     17D7  1D03               	skipz
 11106     17D8  2FDB               	goto	u5225
 11107     17D9  3001               	movlw	1
 11108     17DA  0225               	subwf	___fldiv@new_exp,w
 11109     17DB                     u5225:
 11110     17DB  1803               	skipnc
 11111     17DC  2FDE               	goto	u5221
 11112     17DD  2FDF               	goto	u5220
 11113     17DE                     u5221:
 11114     17DE  2FEB               	goto	l706
 11115     17DF                     u5220:
 11116     17DF                     l3565:
 11117     17DF  0020               	movlb	0	; select bank0
 11118     17E0  01A5               	clrf	___fldiv@new_exp
 11119     17E1  01A6               	clrf	___fldiv@new_exp+1
 11120     17E2                     l3567:
 11121     17E2  3000               	movlw	0
 11122     17E3  00F7               	movwf	___fldiv@b+3
 11123     17E4  3000               	movlw	0
 11124     17E5  00F6               	movwf	___fldiv@b+2
 11125     17E6  3000               	movlw	0
 11126     17E7  00F5               	movwf	___fldiv@b+1
 11127     17E8  3000               	movlw	0
 11128     17E9  00F4               	movwf	___fldiv@b
 11129     17EA                     l3569:
 11130     17EA  01A4               	clrf	___fldiv@sign
 11131     17EB                     l706:
 11132     17EB  0020               	movlb	0	; select bank0
 11133     17EC  0825               	movf	___fldiv@new_exp,w
 11134     17ED  00AB               	movwf	___fldiv@bexp
 11135     17EE                     l3571:
 11136     17EE  1C2B               	btfss	___fldiv@bexp,0
 11137     17EF  2FF1               	goto	u5231
 11138     17F0  2FF2               	goto	u5230
 11139     17F1                     u5231:
 11140     17F1  2FF4               	goto	l3575
 11141     17F2                     u5230:
 11142     17F2                     l3573:
 11143     17F2  17F6               	bsf	___fldiv@b+2,7
 11144     17F3  2FF8               	goto	l708
 11145     17F4                     l3575:
 11146     17F4  307F               	movlw	127
 11147     17F5  00F8               	movwf	??___fldiv
 11148     17F6  0878               	movf	??___fldiv,w
 11149     17F7  05F6               	andwf	___fldiv@b+2,f
 11150     17F8                     l708:
 11151     17F8  362B               	lsrf	___fldiv@bexp,w
 11152     17F9  00F7               	movwf	___fldiv@b+3
 11153     17FA  0824               	movf	___fldiv@sign,w
 11154     17FB  00F8               	movwf	??___fldiv
 11155     17FC  0878               	movf	??___fldiv,w
 11156     17FD  04F7               	iorwf	___fldiv@b+3,f
 11157     17FE  2EBF               	goto	l3485
 11158     17FF                     l686:
 11159     17FF  0008               	return
 11160     1800                     __end_of___fldiv:
 11161                           
 11162                           	psect	text29
 11163     1E39                     __ptext29:	
 11164 ;; *************** function _strlen *****************
 11165 ;; Defined at:
 11166 ;;		line 5 in file "C:\Program Files\Microchip\xc8\v2.46\pic\sources\c99\common\strlen.c"
 11167 ;; Parameters:    Size  Location     Type
 11168 ;;  s               1    wreg     PTR const unsigned char 
 11169 ;;		 -> rx_buffer(48), 
 11170 ;; Auto vars:     Size  Location     Type
 11171 ;;  s               1    4[COMMON] PTR const unsigned char 
 11172 ;;		 -> rx_buffer(48), 
 11173 ;;  a               1    3[COMMON] PTR const unsigned char 
 11174 ;;		 -> rx_buffer(48), 
 11175 ;; Return value:  Size  Location     Type
 11176 ;;                  2    0[COMMON] unsigned int 
 11177 ;; Registers used:
 11178 ;;		wreg, fsr1l, fsr1h, status,2, status,0
 11179 ;; Tracked objects:
 11180 ;;		On entry : 0/0
 11181 ;;		On exit  : 0/0
 11182 ;;		Unchanged: 0/0
 11183 ;; Data sizes:     COMMON   BANK0   BANK1   BANK2   BANK3   BANK4   BANK5   BANK6   BANK7   BANK8   BANK9  BANK10  BANK1
      +1  BANK12  BANK13  BANK14  BANK15  BANK16  BANK17  BANK18  BANK19  BANK20  BANK21  BANK22  BANK23  BANK24  BANK25
 11184 ;;      Params:         2       0       0       0       0       0       0       0       0       0       0       0       
      +0       0       0       0       0       0       0       0       0       0       0       0       0       0       0
 11185 ;;      Locals:         2       0       0       0       0       0       0       0       0       0       0       0       
      +0       0       0       0       0       0       0       0       0       0       0       0       0       0       0
 11186 ;;      Temps:          1       0       0       0       0       0       0       0       0       0       0       0       
      +0       0       0       0       0       0       0       0       0       0       0       0       0       0       0
 11187 ;;      Totals:         5       0       0       0       0       0       0       0       0       0       0       0       
      +0       0       0       0       0       0       0       0       0       0       0       0       0       0       0
 11188 ;;Total ram usage:        5 bytes
 11189 ;; Hardware stack levels used: 1
 11190 ;; This function calls:
 11191 ;;		Nothing
 11192 ;; This function is called by:
 11193 ;;		_parse_features
 11194 ;; This function uses a non-reentrant model
 11195 ;;
 11196                           
 11197     1E39                     _strlen:	
 11198                           ;psect for function _strlen
 11199                           
 11200                           
 11201                           ;incstack = 0
 11202                           ; Regs used in _strlen: [wreg+fsr1l+fsr1h+status,2+status,0]
 11203                           ;strlen@s stored from wreg
 11204     1E39  00F4               	movwf	strlen@s
 11205     1E3A                     l3609:
 11206     1E3A  0874               	movf	strlen@s,w
 11207     1E3B  00F3               	movwf	strlen@a
 11208     1E3C  2E41               	goto	l3613
 11209     1E3D                     l3611:
 11210     1E3D  3001               	movlw	1
 11211     1E3E  00F2               	movwf	??_strlen
 11212     1E3F  0872               	movf	??_strlen,w
 11213     1E40  07F4               	addwf	strlen@s,f
 11214     1E41                     l3613:
 11215     1E41  0874               	movf	strlen@s,w
 11216     1E42  0086               	movwf	6
 11217     1E43  3001               	movlw	1	; select bank2/3
 11218     1E44  0087               	movwf	7
 11219     1E45  0801               	movf	1,w
 11220     1E46  1D03               	btfss	3,2
 11221     1E47  2E49               	goto	u5291
 11222     1E48  2E4A               	goto	u5290
 11223     1E49                     u5291:
 11224     1E49  2E3D               	goto	l3611
 11225     1E4A                     u5290:
 11226     1E4A                     l3615:
 11227     1E4A  0873               	movf	strlen@a,w
 11228     1E4B  0274               	subwf	strlen@s,w
 11229     1E4C  00F0               	movwf	?_strlen
 11230     1E4D  01F1               	clrf	?_strlen+1
 11231     1E4E  1BF0               	btfsc	?_strlen,7
 11232     1E4F  03F1               	decf	?_strlen+1,f
 11233     1E50                     l795:
 11234     1E50  0008               	return
 11235     1E51                     __end_of_strlen:
 11236                           
 11237                           	psect	text30
 11238     1001                     __ptext30:	
 11239 ;; *************** function _memset *****************
 11240 ;; Defined at:
 11241 ;;		line 3 in file "C:\Program Files\Microchip\xc8\v2.46\pic\sources\c99\common\memset.c"
 11242 ;; Parameters:    Size  Location     Type
 11243 ;;  dest            1    wreg     PTR void 
 11244 ;;		 -> rx_buffer(48), 
 11245 ;;  c               2    0[COMMON] int 
 11246 ;;  n               2    2[COMMON] unsigned int 
 11247 ;; Auto vars:     Size  Location     Type
 11248 ;;  dest            1    6[COMMON] PTR void 
 11249 ;;		 -> rx_buffer(48), 
 11250 ;;  p               1    5[COMMON] PTR unsigned char 
 11251 ;;		 -> rx_buffer(48), 
 11252 ;; Return value:  Size  Location     Type
 11253 ;;                  1    wreg      PTR void 
 11254 ;; Registers used:
 11255 ;;		wreg, fsr1l, fsr1h, status,2, status,0
 11256 ;; Tracked objects:
 11257 ;;		On entry : 0/0
 11258 ;;		On exit  : 0/0
 11259 ;;		Unchanged: 0/0
 11260 ;; Data sizes:     COMMON   BANK0   BANK1   BANK2   BANK3   BANK4   BANK5   BANK6   BANK7   BANK8   BANK9  BANK10  BANK1
      +1  BANK12  BANK13  BANK14  BANK15  BANK16  BANK17  BANK18  BANK19  BANK20  BANK21  BANK22  BANK23  BANK24  BANK25
 11261 ;;      Params:         4       0       0       0       0       0       0       0       0       0       0       0       
      +0       0       0       0       0       0       0       0       0       0       0       0       0       0       0
 11262 ;;      Locals:         2       0       0       0       0       0       0       0       0       0       0       0       
      +0       0       0       0       0       0       0       0       0       0       0       0       0       0       0
 11263 ;;      Temps:          1       0       0       0       0       0       0       0       0       0       0       0       
      +0       0       0       0       0       0       0       0       0       0       0       0       0       0       0
 11264 ;;      Totals:         7       0       0       0       0       0       0       0       0       0       0       0       
      +0       0       0       0       0       0       0       0       0       0       0       0       0       0       0
 11265 ;;Total ram usage:        7 bytes
 11266 ;; Hardware stack levels used: 1
 11267 ;; This function calls:
 11268 ;;		Nothing
 11269 ;; This function is called by:
 11270 ;;		_main
 11271 ;; This function uses a non-reentrant model
 11272 ;;
 11273                           
 11274     1001                     _memset:	
 11275                           ;psect for function _memset
 11276                           
 11277                           
 11278                           ;incstack = 0
 11279                           ; Regs used in _memset: [wreg+fsr1l+fsr1h+status,2+status,0]
 11280                           ;memset@dest stored from wreg
 11281     1001  00F6               	movwf	memset@dest
 11282     1002                     l4219:
 11283     1002  0876               	movf	memset@dest,w
 11284     1003  00F5               	movwf	memset@p
 11285     1004  280F               	goto	l4225
 11286     1005                     l4221:
 11287     1005  0875               	movf	memset@p,w
 11288     1006  0086               	movwf	6
 11289     1007  3001               	movlw	1	; select bank2/3
 11290     1008  0087               	movwf	7
 11291     1009  0870               	movf	memset@c,w
 11292     100A  0081               	movwf	1
 11293     100B                     l4223:
 11294     100B  3001               	movlw	1
 11295     100C  00F4               	movwf	??_memset
 11296     100D  0874               	movf	??_memset,w
 11297     100E  07F5               	addwf	memset@p,f
 11298     100F                     l4225:
 11299     100F  3001               	movlw	1
 11300     1010  02F2               	subwf	memset@n,f
 11301     1011  3000               	movlw	0
 11302     1012  3BF3               	subwfb	memset@n+1,f
 11303     1013  0A72               	incf	memset@n,w
 11304     1014  1D03               	skipz
 11305     1015  281A               	goto	u6571
 11306     1016  0A73               	incf	memset@n+1,w
 11307     1017  1D03               	btfss	3,2
 11308     1018  281A               	goto	u6571
 11309     1019  281B               	goto	u6570
 11310     101A                     u6571:
 11311     101A  2805               	goto	l4221
 11312     101B                     u6570:
 11313     101B                     l789:
 11314     101B  0008               	return
 11315     101C                     __end_of_memset:
 11316                           
 11317                           	psect	text31
 11318     1F35                     __ptext31:	
 11319 ;; *************** function _initMain *****************
 11320 ;; Defined at:
 11321 ;;		line 50 in file "main.c"
 11322 ;; Parameters:    Size  Location     Type
 11323 ;;		None
 11324 ;; Auto vars:     Size  Location     Type
 11325 ;;		None
 11326 ;; Return value:  Size  Location     Type
 11327 ;;                  1    wreg      void 
 11328 ;; Registers used:
 11329 ;;		wreg, status,2, status,0, pclath, cstack
 11330 ;; Tracked objects:
 11331 ;;		On entry : 0/0
 11332 ;;		On exit  : 0/0
 11333 ;;		Unchanged: 0/0
 11334 ;; Data sizes:     COMMON   BANK0   BANK1   BANK2   BANK3   BANK4   BANK5   BANK6   BANK7   BANK8   BANK9  BANK10  BANK1
      +1  BANK12  BANK13  BANK14  BANK15  BANK16  BANK17  BANK18  BANK19  BANK20  BANK21  BANK22  BANK23  BANK24  BANK25
 11335 ;;      Params:         0       0       0       0       0       0       0       0       0       0       0       0       
      +0       0       0       0       0       0       0       0       0       0       0       0       0       0       0
 11336 ;;      Locals:         0       0       0       0       0       0       0       0       0       0       0       0       
      +0       0       0       0       0       0       0       0       0       0       0       0       0       0       0
 11337 ;;      Temps:          2       0       0       0       0       0       0       0       0       0       0       0       
      +0       0       0       0       0       0       0       0       0       0       0       0       0       0       0
 11338 ;;      Totals:         2       0       0       0       0       0       0       0       0       0       0       0       
      +0       0       0       0       0       0       0       0       0       0       0       0       0       0       0
 11339 ;;Total ram usage:        2 bytes
 11340 ;; Hardware stack levels used: 1
 11341 ;; Hardware stack levels required when called: 1
 11342 ;; This function calls:
 11343 ;;		_internal_32
 11344 ;; This function is called by:
 11345 ;;		_main
 11346 ;; This function uses a non-reentrant model
 11347 ;;
 11348                           
 11349     1F35                     _initMain:	
 11350                           ;psect for function _initMain
 11351                           
 11352     1F35                     l4127:	
 11353                           ;incstack = 0
 11354                           ; Regs used in _initMain: [wreg+status,2+status,0+pclath+cstack]
 11355                           
 11356                           
 11357                           ;main.c: 52:     internal_32();
 11358     1F35  319D  25F4  319F   	fcall	_internal_32
 11359     1F38                     l4129:
 11360                           
 11361                           ;main.c: 53:     _delay((unsigned long)((100)*(32000000/4000.0)));
 11362     1F38  3005               	movlw	5
 11363     1F39  00F1               	movwf	??_initMain+1
 11364     1F3A  300F               	movlw	15
 11365     1F3B  00F0               	movwf	??_initMain
 11366     1F3C  30F1               	movlw	241
 11367     1F3D                     u6687:
 11368     1F3D  0B89               	decfsz	9,f
 11369     1F3E  2F3D               	goto	u6687
 11370     1F3F  0BF0               	decfsz	??_initMain,f
 11371     1F40  2F3D               	goto	u6687
 11372     1F41  0BF1               	decfsz	??_initMain+1,f
 11373     1F42  2F3D               	goto	u6687
 11374     1F43  0000               	nop
 11375     1F44                     l4131:
 11376                           
 11377                           ;main.c: 56:     TRISBbits.TRISB2 = 0;
 11378     1F44  0021               	movlb	1	; select bank1
 11379     1F45  110D               	bcf	13,2	;volatile
 11380     1F46                     l4133:
 11381                           
 11382                           ;main.c: 57:     ANSELBbits.ANSB2 = 0;
 11383     1F46  0023               	movlb	3	; select bank3
 11384     1F47  110D               	bcf	13,2	;volatile
 11385     1F48                     l4135:
 11386                           
 11387                           ;main.c: 60:     TRISBbits.TRISB3 = 1;
 11388     1F48  0021               	movlb	1	; select bank1
 11389     1F49  158D               	bsf	13,3	;volatile
 11390     1F4A                     l4137:
 11391                           
 11392                           ;main.c: 61:     ANSELBbits.ANSB3 = 0;
 11393     1F4A  0023               	movlb	3	; select bank3
 11394     1F4B  118D               	bcf	13,3	;volatile
 11395     1F4C                     l4139:
 11396                           
 11397                           ;main.c: 64:     PPSLOCK = 0x55;
 11398     1F4C  3055               	movlw	85
 11399     1F4D  003C               	movlb	28	; select bank28
 11400     1F4E  008F               	movwf	15	;volsfr
 11401     1F4F                     l4141:
 11402                           
 11403                           ;main.c: 65:     PPSLOCK = 0xAA;
 11404     1F4F  30AA               	movlw	170
 11405     1F50  008F               	movwf	15	;volsfr
 11406     1F51                     l4143:
 11407                           
 11408                           ;main.c: 66:     PPSLOCKbits.PPSLOCKED = 0x00;
 11409     1F51  100F               	bcf	15,0	;volsfr
 11410     1F52                     l4145:
 11411                           
 11412                           ;main.c: 68:     RB2PPSbits.RB2PPS = 0x14;
 11413     1F52  003D               	movlb	29	; select bank29
 11414     1F53  081A               	movf	26,w	;volatile
 11415     1F54  39E0               	andlw	-32
 11416     1F55  3814               	iorlw	20
 11417     1F56  009A               	movwf	26	;volatile
 11418     1F57                     l4147:
 11419                           
 11420                           ;main.c: 69:     RXPPSbits.RXPPS = 0x0B;
 11421     1F57  003C               	movlb	28	; select bank28
 11422     1F58  0824               	movf	36,w	;volatile
 11423     1F59  39E0               	andlw	-32
 11424     1F5A  380B               	iorlw	11
 11425     1F5B  00A4               	movwf	36	;volatile
 11426     1F5C                     l4149:
 11427                           
 11428                           ;main.c: 71:     PPSLOCK = 0x55;
 11429     1F5C  3055               	movlw	85
 11430     1F5D  008F               	movwf	15	;volsfr
 11431     1F5E                     l4151:
 11432                           
 11433                           ;main.c: 72:     PPSLOCK = 0xAA;
 11434     1F5E  30AA               	movlw	170
 11435     1F5F  008F               	movwf	15	;volsfr
 11436     1F60                     l4153:
 11437                           
 11438                           ;main.c: 73:     PPSLOCKbits.PPSLOCKED = 0x01;
 11439     1F60  140F               	bsf	15,0	;volsfr
 11440     1F61                     l206:
 11441     1F61  0008               	return
 11442     1F62                     __end_of_initMain:
 11443                           
 11444                           	psect	text32
 11445     1DF4                     __ptext32:	
 11446 ;; *************** function _internal_32 *****************
 11447 ;; Defined at:
 11448 ;;		line 36 in file "PIC16F1718_Internal.c"
 11449 ;; Parameters:    Size  Location     Type
 11450 ;;		None
 11451 ;; Auto vars:     Size  Location     Type
 11452 ;;		None
 11453 ;; Return value:  Size  Location     Type
 11454 ;;                  1    wreg      void 
 11455 ;; Registers used:
 11456 ;;		None
 11457 ;; Tracked objects:
 11458 ;;		On entry : 0/0
 11459 ;;		On exit  : 0/0
 11460 ;;		Unchanged: 0/0
 11461 ;; Data sizes:     COMMON   BANK0   BANK1   BANK2   BANK3   BANK4   BANK5   BANK6   BANK7   BANK8   BANK9  BANK10  BANK1
      +1  BANK12  BANK13  BANK14  BANK15  BANK16  BANK17  BANK18  BANK19  BANK20  BANK21  BANK22  BANK23  BANK24  BANK25
 11462 ;;      Params:         0       0       0       0       0       0       0       0       0       0       0       0       
      +0       0       0       0       0       0       0       0       0       0       0       0       0       0       0
 11463 ;;      Locals:         0       0       0       0       0       0       0       0       0       0       0       0       
      +0       0       0       0       0       0       0       0       0       0       0       0       0       0       0
 11464 ;;      Temps:          0       0       0       0       0       0       0       0       0       0       0       0       
      +0       0       0       0       0       0       0       0       0       0       0       0       0       0       0
 11465 ;;      Totals:         0       0       0       0       0       0       0       0       0       0       0       0       
      +0       0       0       0       0       0       0       0       0       0       0       0       0       0       0
 11466 ;;Total ram usage:        0 bytes
 11467 ;; Hardware stack levels used: 1
 11468 ;; This function calls:
 11469 ;;		Nothing
 11470 ;; This function is called by:
 11471 ;;		_initMain
 11472 ;; This function uses a non-reentrant model
 11473 ;;
 11474                           
 11475     1DF4                     _internal_32:	
 11476                           ;psect for function _internal_32
 11477                           
 11478     1DF4                     l3607:	
 11479                           ;incstack = 0
 11480                           ; Regs used in _internal_32: []
 11481                           
 11482                           
 11483                           ;PIC16F1718_Internal.c: 38:     SCS0 = 0;
 11484     1DF4  0021               	movlb	1	; select bank1
 11485     1DF5  1019               	bcf	25,0	;volatile
 11486                           
 11487                           ;PIC16F1718_Internal.c: 39:     SCS1 = 0;
 11488     1DF6  1099               	bcf	25,1	;volatile
 11489                           
 11490                           ;PIC16F1718_Internal.c: 42:     IRCF0 = 0;
 11491     1DF7  1199               	bcf	25,3	;volatile
 11492                           
 11493                           ;PIC16F1718_Internal.c: 43:     IRCF1 = 1;
 11494     1DF8  1619               	bsf	25,4	;volatile
 11495                           
 11496                           ;PIC16F1718_Internal.c: 44:     IRCF2 = 1;
 11497     1DF9  1699               	bsf	25,5	;volatile
 11498                           
 11499                           ;PIC16F1718_Internal.c: 45:     IRCF3 = 1;
 11500     1DFA  1719               	bsf	25,6	;volatile
 11501                           
 11502                           ;PIC16F1718_Internal.c: 48:     SPLLEN = 1;
 11503     1DFB  1799               	bsf	25,7	;volatile
 11504     1DFC                     l83:
 11505     1DFC  0008               	return
 11506     1DFD                     __end_of_internal_32:
 11507                           
 11508                           	psect	text33
 11509     1E07                     __ptext33:	
 11510 ;; *************** function _EUSART_Read *****************
 11511 ;; Defined at:
 11512 ;;		line 62 in file "EUSART.c"
 11513 ;; Parameters:    Size  Location     Type
 11514 ;;		None
 11515 ;; Auto vars:     Size  Location     Type
 11516 ;;		None
 11517 ;; Return value:  Size  Location     Type
 11518 ;;                  1    wreg      unsigned char 
 11519 ;; Registers used:
 11520 ;;		wreg
 11521 ;; Tracked objects:
 11522 ;;		On entry : 0/0
 11523 ;;		On exit  : 0/0
 11524 ;;		Unchanged: 0/0
 11525 ;; Data sizes:     COMMON   BANK0   BANK1   BANK2   BANK3   BANK4   BANK5   BANK6   BANK7   BANK8   BANK9  BANK10  BANK1
      +1  BANK12  BANK13  BANK14  BANK15  BANK16  BANK17  BANK18  BANK19  BANK20  BANK21  BANK22  BANK23  BANK24  BANK25
 11526 ;;      Params:         0       0       0       0       0       0       0       0       0       0       0       0       
      +0       0       0       0       0       0       0       0       0       0       0       0       0       0       0
 11527 ;;      Locals:         0       0       0       0       0       0       0       0       0       0       0       0       
      +0       0       0       0       0       0       0       0       0       0       0       0       0       0       0
 11528 ;;      Temps:          0       0       0       0       0       0       0       0       0       0       0       0       
      +0       0       0       0       0       0       0       0       0       0       0       0       0       0       0
 11529 ;;      Totals:         0       0       0       0       0       0       0       0       0       0       0       0       
      +0       0       0       0       0       0       0       0       0       0       0       0       0       0       0
 11530 ;;Total ram usage:        0 bytes
 11531 ;; Hardware stack levels used: 1
 11532 ;; This function calls:
 11533 ;;		Nothing
 11534 ;; This function is called by:
 11535 ;;		_main
 11536 ;;		_EUSART_Read_Text
 11537 ;; This function uses a non-reentrant model
 11538 ;;
 11539                           
 11540     1E07                     _EUSART_Read:	
 11541                           ;psect for function _EUSART_Read
 11542                           
 11543     1E07                     l4119:	
 11544                           ;incstack = 0
 11545                           ; Regs used in _EUSART_Read: [wreg]
 11546                           
 11547                           
 11548                           ;EUSART.c: 65:    RC1STAbits.SREN = 1;
 11549     1E07  0023               	movlb	3	; select bank3
 11550     1E08  169D               	bsf	29,5	;volatile
 11551     1E09                     l28:	
 11552                           ;EUSART.c: 67:     {;EUSART.c: 68:     }
 11553                           
 11554                           
 11555                           ;EUSART.c: 66:     while(!PIR1bits.RCIF)
 11556     1E09  0020               	movlb	0	; select bank0
 11557     1E0A  1E91               	btfss	17,5	;volatile
 11558     1E0B  2E0D               	goto	u6421
 11559     1E0C  2E0E               	goto	u6420
 11560     1E0D                     u6421:
 11561     1E0D  2E09               	goto	l28
 11562     1E0E                     u6420:
 11563     1E0E                     l30:
 11564                           
 11565                           ;EUSART.c: 70:     if(1 == RC1STAbits.OERR)
 11566     1E0E  0023               	movlb	3	; select bank3
 11567     1E0F  1C9D               	btfss	29,1	;volatile
 11568     1E10  2E12               	goto	u6431
 11569     1E11  2E13               	goto	u6430
 11570     1E12                     u6431:
 11571     1E12  2E15               	goto	l4123
 11572     1E13                     u6430:
 11573     1E13                     l4121:
 11574                           
 11575                           ;EUSART.c: 71:     {;EUSART.c: 74:         RC1STAbits.SPEN = 0;
 11576     1E13  139D               	bcf	29,7	;volatile
 11577                           
 11578                           ;EUSART.c: 75:         RC1STAbits.SPEN = 1;
 11579     1E14  179D               	bsf	29,7	;volatile
 11580     1E15                     l4123:
 11581                           
 11582                           ;EUSART.c: 78:     return RC1REG;
 11583     1E15  0819               	movf	25,w	;volatile
 11584     1E16                     l32:
 11585     1E16  0008               	return
 11586     1E17                     __end_of_EUSART_Read:
 11587                           
 11588                           	psect	text34
 11589     1FB0                     __ptext34:	
 11590 ;; *************** function _EUSART_Initialize *****************
 11591 ;; Defined at:
 11592 ;;		line 36 in file "EUSART.c"
 11593 ;; Parameters:    Size  Location     Type
 11594 ;;  baudrate        4    6[BANK0 ] const long 
 11595 ;; Auto vars:     Size  Location     Type
 11596 ;;  x               2    9[COMMON] unsigned int 
 11597 ;; Return value:  Size  Location     Type
 11598 ;;                  1    wreg      unsigned char 
 11599 ;; Registers used:
 11600 ;;		wreg, status,2, status,0, pclath, cstack
 11601 ;; Tracked objects:
 11602 ;;		On entry : 0/0
 11603 ;;		On exit  : 0/0
 11604 ;;		Unchanged: 0/0
 11605 ;; Data sizes:     COMMON   BANK0   BANK1   BANK2   BANK3   BANK4   BANK5   BANK6   BANK7   BANK8   BANK9  BANK10  BANK1
      +1  BANK12  BANK13  BANK14  BANK15  BANK16  BANK17  BANK18  BANK19  BANK20  BANK21  BANK22  BANK23  BANK24  BANK25
 11606 ;;      Params:         0       4       0       0       0       0       0       0       0       0       0       0       
      +0       0       0       0       0       0       0       0       0       0       0       0       0       0       0
 11607 ;;      Locals:         2       0       0       0       0       0       0       0       0       0       0       0       
      +0       0       0       0       0       0       0       0       0       0       0       0       0       0       0
 11608 ;;      Temps:          0      12       0       0       0       0       0       0       0       0       0       0       
      +0       0       0       0       0       0       0       0       0       0       0       0       0       0       0
 11609 ;;      Totals:         2      16       0       0       0       0       0       0       0       0       0       0       
      +0       0       0       0       0       0       0       0       0       0       0       0       0       0       0
 11610 ;;Total ram usage:       18 bytes
 11611 ;; Hardware stack levels used: 1
 11612 ;; Hardware stack levels required when called: 1
 11613 ;; This function calls:
 11614 ;;		___aldiv
 11615 ;; This function is called by:
 11616 ;;		_main
 11617 ;; This function uses a non-reentrant model
 11618 ;;
 11619                           
 11620     1FB0                     _EUSART_Initialize:	
 11621                           ;psect for function _EUSART_Initialize
 11622                           
 11623     1FB0                     l4101:	
 11624                           ;incstack = 0
 11625                           ; Regs used in _EUSART_Initialize: [wreg+status,2+status,0+pclath+cstack]
 11626                           
 11627                           
 11628                           ;EUSART.c: 36: char EUSART_Initialize(const long int baudrate);EUSART.c: 37: {;EUSART.c:
      +                           38:     unsigned int x;;EUSART.c: 39:  x = (32000000 - baudrate*64)/(baudrate*64);
 11629     1FB0  0020               	movlb	0	; select bank0
 11630     1FB1  0826               	movf	EUSART_Initialize@baudrate,w
 11631     1FB2  00AA               	movwf	??_EUSART_Initialize
 11632     1FB3  0827               	movf	EUSART_Initialize@baudrate+1,w
 11633     1FB4  00AB               	movwf	??_EUSART_Initialize+1
 11634     1FB5  0828               	movf	EUSART_Initialize@baudrate+2,w
 11635     1FB6  00AC               	movwf	??_EUSART_Initialize+2
 11636     1FB7  0829               	movf	EUSART_Initialize@baudrate+3,w
 11637     1FB8  00AD               	movwf	??_EUSART_Initialize+3
 11638     1FB9  3006               	movlw	6
 11639     1FBA                     u6405:
 11640     1FBA  35AA               	lslf	??_EUSART_Initialize,f
 11641     1FBB  0DAB               	rlf	??_EUSART_Initialize+1,f
 11642     1FBC  0DAC               	rlf	??_EUSART_Initialize+2,f
 11643     1FBD  0DAD               	rlf	??_EUSART_Initialize+3,f
 11644     1FBE                     u6400:
 11645     1FBE  0B89               	decfsz	9,f
 11646     1FBF  2FBA               	goto	u6405
 11647     1FC0  082D               	movf	??_EUSART_Initialize+3,w
 11648     1FC1  00F3               	movwf	___aldiv@divisor+3
 11649     1FC2  082C               	movf	??_EUSART_Initialize+2,w
 11650     1FC3  00F2               	movwf	___aldiv@divisor+2
 11651     1FC4  082B               	movf	??_EUSART_Initialize+1,w
 11652     1FC5  00F1               	movwf	___aldiv@divisor+1
 11653     1FC6  082A               	movf	??_EUSART_Initialize,w
 11654     1FC7  00F0               	movwf	___aldiv@divisor
 11655     1FC8  0826               	movf	EUSART_Initialize@baudrate,w
 11656     1FC9  00AE               	movwf	??_EUSART_Initialize+4
 11657     1FCA  0827               	movf	EUSART_Initialize@baudrate+1,w
 11658     1FCB  00AF               	movwf	??_EUSART_Initialize+5
 11659     1FCC  0828               	movf	EUSART_Initialize@baudrate+2,w
 11660     1FCD  00B0               	movwf	??_EUSART_Initialize+6
 11661     1FCE  0829               	movf	EUSART_Initialize@baudrate+3,w
 11662     1FCF  00B1               	movwf	??_EUSART_Initialize+7
 11663     1FD0  3006               	movlw	6
 11664     1FD1                     u6415:
 11665     1FD1  35AE               	lslf	??_EUSART_Initialize+4,f
 11666     1FD2  0DAF               	rlf	??_EUSART_Initialize+5,f
 11667     1FD3  0DB0               	rlf	??_EUSART_Initialize+6,f
 11668     1FD4  0DB1               	rlf	??_EUSART_Initialize+7,f
 11669     1FD5                     u6410:
 11670     1FD5  0B89               	decfsz	9,f
 11671     1FD6  2FD1               	goto	u6415
 11672     1FD7  3000               	movlw	0
 11673     1FD8  00B2               	movwf	??_EUSART_Initialize+8
 11674     1FD9  3048               	movlw	72
 11675     1FDA  00B3               	movwf	??_EUSART_Initialize+9
 11676     1FDB  30E8               	movlw	232
 11677     1FDC  00B4               	movwf	??_EUSART_Initialize+10
 11678     1FDD  3001               	movlw	1
 11679     1FDE  00B5               	movwf	??_EUSART_Initialize+11
 11680     1FDF  082E               	movf	??_EUSART_Initialize+4,w
 11681     1FE0  02B2               	subwf	??_EUSART_Initialize+8,f
 11682     1FE1  082F               	movf	??_EUSART_Initialize+5,w
 11683     1FE2  3BB3               	subwfb	??_EUSART_Initialize+9,f
 11684     1FE3  0830               	movf	??_EUSART_Initialize+6,w
 11685     1FE4  3BB4               	subwfb	??_EUSART_Initialize+10,f
 11686     1FE5  0831               	movf	??_EUSART_Initialize+7,w
 11687     1FE6  3BB5               	subwfb	??_EUSART_Initialize+11,f
 11688     1FE7  0835               	movf	??_EUSART_Initialize+11,w
 11689     1FE8  00F7               	movwf	___aldiv@dividend+3
 11690     1FE9  0834               	movf	??_EUSART_Initialize+10,w
 11691     1FEA  00F6               	movwf	___aldiv@dividend+2
 11692     1FEB  0833               	movf	??_EUSART_Initialize+9,w
 11693     1FEC  00F5               	movwf	___aldiv@dividend+1
 11694     1FED  0832               	movf	??_EUSART_Initialize+8,w
 11695     1FEE  00F4               	movwf	___aldiv@dividend
 11696     1FEF  3192  22ED  319F   	fcall	___aldiv
 11697     1FF2  0871               	movf	?___aldiv+1,w
 11698     1FF3  00FA               	movwf	EUSART_Initialize@x+1
 11699     1FF4  0870               	movf	?___aldiv,w
 11700     1FF5  00F9               	movwf	EUSART_Initialize@x
 11701     1FF6                     l4103:
 11702                           
 11703                           ;EUSART.c: 41:  SPBRGL = x;
 11704     1FF6  0879               	movf	EUSART_Initialize@x,w
 11705     1FF7  0023               	movlb	3	; select bank3
 11706     1FF8  009B               	movwf	27	;volatile
 11707     1FF9                     l4105:
 11708                           
 11709                           ;EUSART.c: 42:     BRGH = 0;
 11710     1FF9  111E               	bcf	30,2	;volatile
 11711     1FFA                     l4107:
 11712                           
 11713                           ;EUSART.c: 43:     BRG16 = 0;
 11714     1FFA  119F               	bcf	31,3	;volatile
 11715     1FFB                     l4109:
 11716                           
 11717                           ;EUSART.c: 44:     SYNC = 0;
 11718     1FFB  121E               	bcf	30,4	;volatile
 11719     1FFC                     l4111:
 11720                           
 11721                           ;EUSART.c: 45:     SPEN = 1;
 11722     1FFC  179D               	bsf	29,7	;volatile
 11723     1FFD                     l4113:
 11724                           
 11725                           ;EUSART.c: 46:     CREN = 1;
 11726     1FFD  161D               	bsf	29,4	;volatile
 11727     1FFE                     l4115:
 11728                           
 11729                           ;EUSART.c: 47:     TXEN = 1;
 11730     1FFE  169E               	bsf	30,5	;volatile
 11731     1FFF                     l25:
 11732     1FFF  0008               	return
 11733     2000                     __end_of_EUSART_Initialize:
 11734                           
 11735                           	psect	text35
 11736     12ED                     __ptext35:	
 11737 ;; *************** function ___aldiv *****************
 11738 ;; Defined at:
 11739 ;;		line 5 in file "C:\Program Files\Microchip\xc8\v2.46\pic\sources\c99\common\aldiv.c"
 11740 ;; Parameters:    Size  Location     Type
 11741 ;;  divisor         4    0[COMMON] long 
 11742 ;;  dividend        4    4[COMMON] long 
 11743 ;; Auto vars:     Size  Location     Type
 11744 ;;  quotient        4    2[BANK0 ] long 
 11745 ;;  sign            1    1[BANK0 ] unsigned char 
 11746 ;;  counter         1    0[BANK0 ] unsigned char 
 11747 ;; Return value:  Size  Location     Type
 11748 ;;                  4    0[COMMON] long 
 11749 ;; Registers used:
 11750 ;;		wreg, status,2, status,0
 11751 ;; Tracked objects:
 11752 ;;		On entry : 0/0
 11753 ;;		On exit  : 0/0
 11754 ;;		Unchanged: 0/0
 11755 ;; Data sizes:     COMMON   BANK0   BANK1   BANK2   BANK3   BANK4   BANK5   BANK6   BANK7   BANK8   BANK9  BANK10  BANK1
      +1  BANK12  BANK13  BANK14  BANK15  BANK16  BANK17  BANK18  BANK19  BANK20  BANK21  BANK22  BANK23  BANK24  BANK25
 11756 ;;      Params:         8       0       0       0       0       0       0       0       0       0       0       0       
      +0       0       0       0       0       0       0       0       0       0       0       0       0       0       0
 11757 ;;      Locals:         0       6       0       0       0       0       0       0       0       0       0       0       
      +0       0       0       0       0       0       0       0       0       0       0       0       0       0       0
 11758 ;;      Temps:          1       0       0       0       0       0       0       0       0       0       0       0       
      +0       0       0       0       0       0       0       0       0       0       0       0       0       0       0
 11759 ;;      Totals:         9       6       0       0       0       0       0       0       0       0       0       0       
      +0       0       0       0       0       0       0       0       0       0       0       0       0       0       0
 11760 ;;Total ram usage:       15 bytes
 11761 ;; Hardware stack levels used: 1
 11762 ;; This function calls:
 11763 ;;		Nothing
 11764 ;; This function is called by:
 11765 ;;		_EUSART_Initialize
 11766 ;; This function uses a non-reentrant model
 11767 ;;
 11768                           
 11769     12ED                     ___aldiv:	
 11770                           ;psect for function ___aldiv
 11771                           
 11772     12ED                     l4061:	
 11773                           ;incstack = 0
 11774                           ; Regs used in ___aldiv: [wreg+status,2+status,0]
 11775                           
 11776     12ED  0020               	movlb	0	; select bank0
 11777     12EE  01A1               	clrf	___aldiv@sign
 11778     12EF                     l4063:
 11779     12EF  1FF3               	btfss	___aldiv@divisor+3,7
 11780     12F0  2AF2               	goto	u6301
 11781     12F1  2AF3               	goto	u6300
 11782     12F2                     u6301:
 11783     12F2  2B00               	goto	l392
 11784     12F3                     u6300:
 11785     12F3                     l4065:
 11786     12F3  09F0               	comf	___aldiv@divisor,f
 11787     12F4  09F1               	comf	___aldiv@divisor+1,f
 11788     12F5  09F2               	comf	___aldiv@divisor+2,f
 11789     12F6  09F3               	comf	___aldiv@divisor+3,f
 11790     12F7  0AF0               	incf	___aldiv@divisor,f
 11791     12F8  1903               	skipnz
 11792     12F9  0AF1               	incf	___aldiv@divisor+1,f
 11793     12FA  1903               	skipnz
 11794     12FB  0AF2               	incf	___aldiv@divisor+2,f
 11795     12FC  1903               	skipnz
 11796     12FD  0AF3               	incf	___aldiv@divisor+3,f
 11797     12FE  01A1               	clrf	___aldiv@sign
 11798     12FF  0AA1               	incf	___aldiv@sign,f
 11799     1300                     l392:
 11800     1300  1FF7               	btfss	___aldiv@dividend+3,7
 11801     1301  2B03               	goto	u6311
 11802     1302  2B04               	goto	u6310
 11803     1303                     u6311:
 11804     1303  2B13               	goto	l4071
 11805     1304                     u6310:
 11806     1304                     l4067:
 11807     1304  09F4               	comf	___aldiv@dividend,f
 11808     1305  09F5               	comf	___aldiv@dividend+1,f
 11809     1306  09F6               	comf	___aldiv@dividend+2,f
 11810     1307  09F7               	comf	___aldiv@dividend+3,f
 11811     1308  0AF4               	incf	___aldiv@dividend,f
 11812     1309  1903               	skipnz
 11813     130A  0AF5               	incf	___aldiv@dividend+1,f
 11814     130B  1903               	skipnz
 11815     130C  0AF6               	incf	___aldiv@dividend+2,f
 11816     130D  1903               	skipnz
 11817     130E  0AF7               	incf	___aldiv@dividend+3,f
 11818     130F                     l4069:
 11819     130F  3001               	movlw	1
 11820     1310  00F8               	movwf	??___aldiv
 11821     1311  0878               	movf	??___aldiv,w
 11822     1312  06A1               	xorwf	___aldiv@sign,f
 11823     1313                     l4071:
 11824     1313  3000               	movlw	0
 11825     1314  00A5               	movwf	___aldiv@quotient+3
 11826     1315  3000               	movlw	0
 11827     1316  00A4               	movwf	___aldiv@quotient+2
 11828     1317  3000               	movlw	0
 11829     1318  00A3               	movwf	___aldiv@quotient+1
 11830     1319  3000               	movlw	0
 11831     131A  00A2               	movwf	___aldiv@quotient
 11832     131B                     l4073:
 11833     131B  0873               	movf	___aldiv@divisor+3,w
 11834     131C  0472               	iorwf	___aldiv@divisor+2,w
 11835     131D  0471               	iorwf	___aldiv@divisor+1,w
 11836     131E  0470               	iorwf	___aldiv@divisor,w
 11837     131F  1903               	skipnz
 11838     1320  2B22               	goto	u6321
 11839     1321  2B23               	goto	u6320
 11840     1322                     u6321:
 11841     1322  2B64               	goto	l4093
 11842     1323                     u6320:
 11843     1323                     l4075:
 11844     1323  01A0               	clrf	___aldiv@counter
 11845     1324  0AA0               	incf	___aldiv@counter,f
 11846     1325  2B31               	goto	l4079
 11847     1326                     l4077:
 11848     1326  3001               	movlw	1
 11849     1327                     u6335:
 11850     1327  35F0               	lslf	___aldiv@divisor,f
 11851     1328  0DF1               	rlf	___aldiv@divisor+1,f
 11852     1329  0DF2               	rlf	___aldiv@divisor+2,f
 11853     132A  0DF3               	rlf	___aldiv@divisor+3,f
 11854     132B  0B89               	decfsz	9,f
 11855     132C  2B27               	goto	u6335
 11856     132D  3001               	movlw	1
 11857     132E  00F8               	movwf	??___aldiv
 11858     132F  0878               	movf	??___aldiv,w
 11859     1330  07A0               	addwf	___aldiv@counter,f
 11860     1331                     l4079:
 11861     1331  1FF3               	btfss	___aldiv@divisor+3,7
 11862     1332  2B34               	goto	u6341
 11863     1333  2B35               	goto	u6340
 11864     1334                     u6341:
 11865     1334  2B26               	goto	l4077
 11866     1335                     u6340:
 11867     1335                     l4081:
 11868     1335  3001               	movlw	1
 11869     1336                     u6355:
 11870     1336  35A2               	lslf	___aldiv@quotient,f
 11871     1337  0DA3               	rlf	___aldiv@quotient+1,f
 11872     1338  0DA4               	rlf	___aldiv@quotient+2,f
 11873     1339  0DA5               	rlf	___aldiv@quotient+3,f
 11874     133A  0B89               	decfsz	9,f
 11875     133B  2B36               	goto	u6355
 11876     133C                     l4083:
 11877     133C  0873               	movf	___aldiv@divisor+3,w
 11878     133D  0277               	subwf	___aldiv@dividend+3,w
 11879     133E  1D03               	skipz
 11880     133F  2B4A               	goto	u6365
 11881     1340  0872               	movf	___aldiv@divisor+2,w
 11882     1341  0276               	subwf	___aldiv@dividend+2,w
 11883     1342  1D03               	skipz
 11884     1343  2B4A               	goto	u6365
 11885     1344  0871               	movf	___aldiv@divisor+1,w
 11886     1345  0275               	subwf	___aldiv@dividend+1,w
 11887     1346  1D03               	skipz
 11888     1347  2B4A               	goto	u6365
 11889     1348  0870               	movf	___aldiv@divisor,w
 11890     1349  0274               	subwf	___aldiv@dividend,w
 11891     134A                     u6365:
 11892     134A  1C03               	skipc
 11893     134B  2B4D               	goto	u6361
 11894     134C  2B4E               	goto	u6360
 11895     134D                     u6361:
 11896     134D  2B57               	goto	l4089
 11897     134E                     u6360:
 11898     134E                     l4085:
 11899     134E  0870               	movf	___aldiv@divisor,w
 11900     134F  02F4               	subwf	___aldiv@dividend,f
 11901     1350  0871               	movf	___aldiv@divisor+1,w
 11902     1351  3BF5               	subwfb	___aldiv@dividend+1,f
 11903     1352  0872               	movf	___aldiv@divisor+2,w
 11904     1353  3BF6               	subwfb	___aldiv@dividend+2,f
 11905     1354  0873               	movf	___aldiv@divisor+3,w
 11906     1355  3BF7               	subwfb	___aldiv@dividend+3,f
 11907     1356                     l4087:
 11908     1356  1422               	bsf	___aldiv@quotient,0
 11909     1357                     l4089:
 11910     1357  3001               	movlw	1
 11911     1358                     u6375:
 11912     1358  36F3               	lsrf	___aldiv@divisor+3,f
 11913     1359  0CF2               	rrf	___aldiv@divisor+2,f
 11914     135A  0CF1               	rrf	___aldiv@divisor+1,f
 11915     135B  0CF0               	rrf	___aldiv@divisor,f
 11916     135C  0B89               	decfsz	9,f
 11917     135D  2B58               	goto	u6375
 11918     135E                     l4091:
 11919     135E  3001               	movlw	1
 11920     135F  02A0               	subwf	___aldiv@counter,f
 11921     1360  1D03               	btfss	3,2
 11922     1361  2B63               	goto	u6381
 11923     1362  2B64               	goto	u6380
 11924     1363                     u6381:
 11925     1363  2B35               	goto	l4081
 11926     1364                     u6380:
 11927     1364                     l4093:
 11928     1364  0821               	movf	___aldiv@sign,w
 11929     1365  1903               	btfsc	3,2
 11930     1366  2B68               	goto	u6391
 11931     1367  2B69               	goto	u6390
 11932     1368                     u6391:
 11933     1368  2B74               	goto	l4097
 11934     1369                     u6390:
 11935     1369                     l4095:
 11936     1369  09A2               	comf	___aldiv@quotient,f
 11937     136A  09A3               	comf	___aldiv@quotient+1,f
 11938     136B  09A4               	comf	___aldiv@quotient+2,f
 11939     136C  09A5               	comf	___aldiv@quotient+3,f
 11940     136D  0AA2               	incf	___aldiv@quotient,f
 11941     136E  1903               	skipnz
 11942     136F  0AA3               	incf	___aldiv@quotient+1,f
 11943     1370  1903               	skipnz
 11944     1371  0AA4               	incf	___aldiv@quotient+2,f
 11945     1372  1903               	skipnz
 11946     1373  0AA5               	incf	___aldiv@quotient+3,f
 11947     1374                     l4097:
 11948     1374  0825               	movf	___aldiv@quotient+3,w
 11949     1375  00F3               	movwf	?___aldiv+3
 11950     1376  0824               	movf	___aldiv@quotient+2,w
 11951     1377  00F2               	movwf	?___aldiv+2
 11952     1378  0823               	movf	___aldiv@quotient+1,w
 11953     1379  00F1               	movwf	?___aldiv+1
 11954     137A  0822               	movf	___aldiv@quotient,w
 11955     137B  00F0               	movwf	?___aldiv
 11956     137C                     l402:
 11957     137C  0008               	return
 11958     137D                     __end_of___aldiv:
 11959     007E                     btemp	set	126	;btemp
 11960     007E                     wtemp0	set	126
 11961                           
 11962                           	psect	config
 11963                           
 11964                           ;Config register CONFIG1 @ 0x8007
 11965                           ;	Oscillator Selection Bits
 11966                           ;	FOSC = INTOSC, INTOSC oscillator: I/O function on CLKIN pin
 11967                           ;	Watchdog Timer Enable
 11968                           ;	WDTE = OFF, WDT disabled
 11969                           ;	Power-up Timer Enable
 11970                           ;	PWRTE = OFF, PWRT disabled
 11971                           ;	MCLR Pin Function Select
 11972                           ;	MCLRE = OFF, MCLR/VPP pin function is digital input if LVP bit is also 0.
 11973                           ;	Flash Program Memory Code Protection
 11974                           ;	CP = OFF, Program memory code protection is disabled
 11975                           ;	Brown-out Reset Enable
 11976                           ;	BOREN = OFF, Brown-out Reset disabled
 11977                           ;	Clock Out Enable
 11978                           ;	CLKOUTEN = OFF, CLKOUT function is disabled. I/O or oscillator function on the CLKOUT 
      +                          pin
 11979                           ;	Internal/External Switchover Mode
 11980                           ;	IESO = ON, Internal/External Switchover Mode is enabled
 11981                           ;	Fail-Safe Clock Monitor Enable
 11982                           ;	FCMEN = OFF, Fail-Safe Clock Monitor is disabled
 11983     8007                     	org	32775
 11984     8007  19A4               	dw	6564
 11985                           
 11986                           ;Config register CONFIG2 @ 0x8008
 11987                           ;	Flash Memory Self-Write Protection
 11988                           ;	WRT = OFF, Write protection off
 11989                           ;	Peripheral Pin Select one-way control
 11990                           ;	PPS1WAY = ON, The PPSLOCK bit cannot be cleared once it is set by software
 11991                           ;	Zero-cross detect disable
 11992                           ;	ZCDDIS = ON, ZCD disabled. ZCD can be enabled by setting the ZCDSEN bit of ZCDCON
 11993                           ;	Phase Lock Loop enable
 11994                           ;	PLLEN = OFF, 4x PLL is disabled
 11995                           ;	Stack Overflow/Underflow Reset Enable
 11996                           ;	STVREN = ON, Stack Overflow or Underflow will cause a Reset
 11997                           ;	Brown-out Reset Voltage Selection
 11998                           ;	BORV = LO, Brown-out Reset Voltage (Vbor), low trip point selected.
 11999                           ;	Low-Power Brown Out Reset
 12000                           ;	LPBOR = OFF, Low-Power BOR is disabled
 12001                           ;	In-Circuit Debugger Mode
 12002                           ;	DEBUG = 0x1, unprogrammed default
 12003                           ;	Low-Voltage Programming Enable
 12004                           ;	LVP = OFF, High-voltage on MCLR/VPP must be used for programming
 12005     8008                     	org	32776
 12006     8008  1EFF               	dw	7935

Data Sizes:
    Strings     269
    Constant    0
    Data        54
    BSS         54
    Persistent  32
    Stack       0

Auto Spaces:
    Space          Size  Autos    Used
    COMMON           14     14      14
    BANK0            80     80      80
    BANK1            80     67      79
    BANK2            80      0      48
    BANK3            80      0      48
    BANK4            80      0       0
    BANK5            80      0       0
    BANK6            80      0       0
    BANK7            80      0       0
    BANK8            80      0       0
    BANK9            80      0       0
    BANK10           80      0       0
    BANK11           80      0       0
    BANK12           80      0       0
    BANK13           80      0       0
    BANK14           80      0       0
    BANK15           80      0       0
    BANK16           80      0       0
    BANK17           80      0       0
    BANK18           80      0       0
    BANK19           80      0       0
    BANK20           80      0       0
    BANK21           80      0       0
    BANK22           80      0       0
    BANK23           80      0       0
    BANK24           80      0       0
    BANK25           32      0       0

Pointer List with Targets:

    class_names	PTR const unsigned char [3] size(2) Largest target is 11
		 -> STR_1(CODE[7]), STR_2(CODE[11]), STR_3(CODE[10]), 

    classify_and_print@features	PTR float  size(1) Largest target is 48
		 -> main@features(BANK1[16]), run_demo@samples(BANK1[48]), 

    EUSART_Write_Integer@ptr	PTR unsigned char  size(1) Largest target is 20
		 -> EUSART_Write_Integer@buffer(BANK0[20]), 

    EUSART_Write_Integer@temp_ptr	PTR unsigned char  size(1) Largest target is 20
		 -> EUSART_Write_Integer@buffer(BANK0[20]), 

    EUSART_Write_Text@text	PTR unsigned char  size(2) Largest target is 29
		 -> STR_1(CODE[7]), STR_10(CODE[22]), STR_11(CODE[10]), STR_12(CODE[4]), 
		 -> STR_13(CODE[17]), STR_14(CODE[3]), STR_15(CODE[28]), STR_16(CODE[23]), 
		 -> STR_17(CODE[28]), STR_18(CODE[12]), STR_19(CODE[13]), STR_2(CODE[11]), 
		 -> STR_20(CODE[29]), STR_21(CODE[28]), STR_22(CODE[3]), STR_23(CODE[3]), 
		 -> STR_24(CODE[13]), STR_25(CODE[10]), STR_26(CODE[3]), STR_3(CODE[10]), 
		 -> STR_4(CODE[9]), STR_5(CODE[3]), STR_6(CODE[4]), STR_7(CODE[8]), 
		 -> STR_8(CODE[3]), STR_9(CODE[4]), 

    itoa@buf	PTR PTR unsigned char  size(1) Largest target is 1
		 -> EUSART_Write_Integer@ptr(BANK0[1]), 

    memset@dest	PTR void  size(1) Largest target is 48
		 -> rx_buffer(BANK2[48]), 

    memset@p	PTR unsigned char  size(1) Largest target is 48
		 -> rx_buffer(BANK2[48]), 

    ml_predict@x	PTR const float  size(1) Largest target is 48
		 -> main@features(BANK1[16]), run_demo@samples(BANK1[48]), 

    nanf@s	PTR const unsigned char  size(2) Largest target is 1
		 -> STR_35(CODE[1]), 

    parse_features@buffer	PTR unsigned char  size(1) Largest target is 48
		 -> rx_buffer(BANK2[48]), 

    parse_features@features	PTR float  size(1) Largest target is 16
		 -> main@features(BANK1[16]), 

    parse_features@ptr	PTR unsigned char  size(1) Largest target is 48
		 -> rx_buffer(BANK2[48]), 

    parse_features@start	PTR unsigned char  size(1) Largest target is 48
		 -> rx_buffer(BANK2[48]), 

    sp__memset	PTR void  size(1) Largest target is 48
		 -> rx_buffer(BANK2[48]), 

    strlen@a	PTR const unsigned char  size(1) Largest target is 48
		 -> rx_buffer(BANK2[48]), 

    strlen@s	PTR const unsigned char  size(1) Largest target is 48
		 -> rx_buffer(BANK2[48]), 

    strtof@res	PTR PTR unsigned char  size(2) Largest target is 0
		 -> NULL(NULL[0]), 

    strtof@s	PTR const unsigned char  size(1) Largest target is 48
		 -> rx_buffer(BANK2[48]), 


Critical Paths under _main in COMMON

    _main->_EUSART_Write_Integer
    _run_demo->_EUSART_Write_Integer
    _classify_and_print->_EUSART_Write_Integer
    _print_float->_EUSART_Write_Integer
    _print_float->___xxtofl
    ___fltol->___xxtofl
    ___flsub->___xxtofl
    _EUSART_Write_Integer->_itoa
    _itoa->___awdiv
    _ml_predict->___flge
    _EUSART_Write_Text->_EUSART_Write
    _strtof->___xxtofl
    ___flmul->___xxtofl
    _EUSART_Initialize->___aldiv

Critical Paths under _main in BANK0

    _main->_parse_features
    _run_demo->_classify_and_print
    _classify_and_print->_print_float
    _print_float->___fltol
    ___fltol->___flmul
    ___flsub->___fladd
    _EUSART_Write_Integer->_itoa
    _parse_features->_strtof
    _strtof->___flmul
    ___flmul->___flsub
    _EUSART_Initialize->___aldiv

Critical Paths under _main in BANK1

    _main->_run_demo

Critical Paths under _main in BANK2

    None.

Critical Paths under _main in BANK3

    None.

Critical Paths under _main in BANK4

    None.

Critical Paths under _main in BANK5

    None.

Critical Paths under _main in BANK6

    None.

Critical Paths under _main in BANK7

    None.

Critical Paths under _main in BANK8

    None.

Critical Paths under _main in BANK9

    None.

Critical Paths under _main in BANK10

    None.

Critical Paths under _main in BANK11

    None.

Critical Paths under _main in BANK12

    None.

Critical Paths under _main in BANK13

    None.

Critical Paths under _main in BANK14

    None.

Critical Paths under _main in BANK15

    None.

Critical Paths under _main in BANK16

    None.

Critical Paths under _main in BANK17

    None.

Critical Paths under _main in BANK18

    None.

Critical Paths under _main in BANK19

    None.

Critical Paths under _main in BANK20

    None.

Critical Paths under _main in BANK21

    None.

Critical Paths under _main in BANK22

    None.

Critical Paths under _main in BANK23

    None.

Critical Paths under _main in BANK24

    None.

Critical Paths under _main in BANK25

    None.

Call Graph Tables:

 ---------------------------------------------------------------------------------
 (Depth) Function   	        Calls       Base Space   Used Autos Params    Refs
 ---------------------------------------------------------------------------------
 (0) _main                                                20    20      0   79370
                                             78 BANK0      2     2      0
                                             49 BANK1     18    18      0
                  _EUSART_Initialize
                        _EUSART_Read
                       _EUSART_Write
               _EUSART_Write_Integer
                  _EUSART_Write_Text
                 _classify_and_print
                           _initMain
                             _memset
                     _parse_features
                           _run_demo
 ---------------------------------------------------------------------------------
 (1) _run_demo                                            50    50      0   30682
                                             65 BANK0      1     1      0
                                              0 BANK1     49    49      0
               _EUSART_Write_Integer
                  _EUSART_Write_Text
                 _classify_and_print
 ---------------------------------------------------------------------------------
 (2) _classify_and_print                                   5     5      0   25582
                                             60 BANK0      5     5      0
               _EUSART_Write_Integer
                  _EUSART_Write_Text
                         _ml_predict
                        _print_float
 ---------------------------------------------------------------------------------
 (3) _print_float                                          8     4      4   14126
                                             52 BANK0      8     4      4
                       _EUSART_Write
               _EUSART_Write_Integer
                             ___flge
                            ___flmul
                            ___flneg
                            ___flsub
                            ___fltol
                           ___xxtofl
 ---------------------------------------------------------------------------------
 (4) ___fltol                                             10     6      4     381
                                             42 BANK0     10     6      4
                            ___flmul (ARG)
                            ___flsub (ARG)
                           ___xxtofl (ARG)
 ---------------------------------------------------------------------------------
 (4) ___flsub                                              8     0      8    2333
                                              8 BANK0      8     0      8
                            ___fladd
                           ___xxtofl (ARG)
 ---------------------------------------------------------------------------------
 (5) ___fladd                                             20    12      8    2136
                                              0 COMMON    12     4      8
                                              0 BANK0      8     8      0
 ---------------------------------------------------------------------------------
 (4) _EUSART_Write_Integer                                25    23      2    3023
                                             11 COMMON     3     1      2
                                              7 BANK0     22    22      0
                       _EUSART_Write
                               _itoa
 ---------------------------------------------------------------------------------
 (5) _itoa                                                 9     7      2    2473
                                              9 COMMON     2     0      2
                                              0 BANK0      7     7      0
                            ___awdiv
                            ___awmod
                             ___wmul
 ---------------------------------------------------------------------------------
 (6) ___awmod                                              7     3      4     448
                                              0 COMMON     7     3      4
 ---------------------------------------------------------------------------------
 (6) ___awdiv                                              9     5      4     908
                                              0 COMMON     9     5      4
 ---------------------------------------------------------------------------------
 (3) _ml_predict                                           8     8      0    6252
                                             12 COMMON     1     1      0
                                              0 BANK0      7     7      0
                             ___flge
 ---------------------------------------------------------------------------------
 (3) _EUSART_Write_Text                                    5     3      2    1936
                                              1 COMMON     5     3      2
                       _EUSART_Write
 ---------------------------------------------------------------------------------
 (5) _EUSART_Write                                         1     1      0      22
                                              0 COMMON     1     1      0
 ---------------------------------------------------------------------------------
 (1) _parse_features                                       8     7      1   16878
                                             70 BANK0      8     7      1
                             _strlen
                             _strtof
 ---------------------------------------------------------------------------------
 (2) _strtof                                              28    24      4   16242
                                             42 BANK0     28    24      4
                            ___fldiv
                             ___fleq
                             ___flge
                            ___flmul
                            ___flneg
                             ___lmul
                             ___wmul
                           ___xxtofl
                            _isdigit
                           _isxdigit
                               _nanf
                            _toupper
 ---------------------------------------------------------------------------------
 (3) _toupper                                              3     1      2     281
                                              0 COMMON     3     1      2
 ---------------------------------------------------------------------------------
 (3) _nanf                                                 8     4      4      99
                                              0 COMMON     8     4      4
 ---------------------------------------------------------------------------------
 (3) _isxdigit                                             7     5      2     359
                                              0 COMMON     7     5      2
 ---------------------------------------------------------------------------------
 (3) _isdigit                                              6     4      2     541
                                              0 COMMON     6     4      2
 ---------------------------------------------------------------------------------
 (4) ___xxtofl                                            14    10      4     474
                                              0 COMMON    14    10      4
 ---------------------------------------------------------------------------------
 (6) ___wmul                                               6     2      4     648
                                              0 COMMON     6     2      4
 ---------------------------------------------------------------------------------
 (3) ___lmul                                              12     4      8     244
                                              0 COMMON    12     4      8
 ---------------------------------------------------------------------------------
 (4) ___flneg                                              4     0      4     197
                                              0 COMMON     4     0      4
 ---------------------------------------------------------------------------------
 (4) ___flmul                                             26    18      8    2721
                                             16 BANK0     26    18      8
                          __Umul8_16
                            ___flsub (ARG)
                           ___xxtofl (ARG)
 ---------------------------------------------------------------------------------
 (5) __Umul8_16                                            9     7      2     799
                                              0 COMMON     9     7      2
 ---------------------------------------------------------------------------------
 (4) ___flge                                              12     4      8    4742
                                              0 COMMON    12     4      8
 ---------------------------------------------------------------------------------
 (3) ___fleq                                              12     4      8     242
                                              0 COMMON    12     4      8
 ---------------------------------------------------------------------------------
 (3) ___fldiv                                             26    18      8    1425
                                              0 COMMON    13     5      8
                                              0 BANK0     13    13      0
 ---------------------------------------------------------------------------------
 (2) _strlen                                               5     3      2     123
                                              0 COMMON     5     3      2
 ---------------------------------------------------------------------------------
 (1) _memset                                               7     3      4     466
                                              0 COMMON     7     3      4
 ---------------------------------------------------------------------------------
 (1) _initMain                                             2     2      0       0
                                              0 COMMON     2     2      0
                        _internal_32
 ---------------------------------------------------------------------------------
 (2) _internal_32                                          0     0      0       0
 ---------------------------------------------------------------------------------
 (1) _EUSART_Read                                          0     0      0       0
 ---------------------------------------------------------------------------------
 (1) _EUSART_Initialize                                   18    14      4     595
                                              9 COMMON     2     2      0
                                              6 BANK0     16    12      4
                            ___aldiv
 ---------------------------------------------------------------------------------
 (2) ___aldiv                                             15     7      8     452
                                              0 COMMON     9     1      8
                                              0 BANK0      6     6      0
 ---------------------------------------------------------------------------------
 Estimated maximum stack depth 6
 ---------------------------------------------------------------------------------

 Call Graph Graphs:

 _main (ROOT)
   _EUSART_Initialize
     ___aldiv
   _EUSART_Read
   _EUSART_Write
   _EUSART_Write_Integer
     _EUSART_Write
     _itoa
       ___awdiv
       ___awmod
       ___wmul
   _EUSART_Write_Text
     _EUSART_Write
   _classify_and_print
     _EUSART_Write_Integer
     _EUSART_Write_Text
     _ml_predict
       ___flge
     _print_float
       _EUSART_Write
       _EUSART_Write_Integer
       ___flge
       ___flmul
         __Umul8_16
         ___flsub (ARG)
           ___fladd
           ___xxtofl (ARG)
         ___xxtofl (ARG)
       ___flneg
       ___flsub
       ___fltol
         ___flmul (ARG)
         ___flsub (ARG)
         ___xxtofl (ARG)
       ___xxtofl
   _initMain
     _internal_32
   _memset
   _parse_features
     _strlen
     _strtof
       ___fldiv
       ___fleq
       ___flge
       ___flmul
       ___flneg
       ___lmul
       ___wmul
       ___xxtofl
       _isdigit
       _isxdigit
       _nanf
       _toupper
   _run_demo
     _EUSART_Write_Integer
     _EUSART_Write_Text
     _classify_and_print

 Address spaces:
Name               Size   Autos  Total    Cost      Usage
BIGRAM             7F0      0       0       0        0.0%
NULL                 0      0       0       0        0.0%
CODE                 0      0       0       0        0.0%
BITCOMMON            E      0       0       1        0.0%
BITSFR0              0      0       0       1        0.0%
SFR0                 0      0       0       1        0.0%
COMMON               E      E       E       2      100.0%
BITSFR1              0      0       0       2        0.0%
SFR1                 0      0       0       2        0.0%
BITSFR2              0      0       0       3        0.0%
SFR2                 0      0       0       3        0.0%
STACK                0      0       0       3        0.0%
BITBANK0            50      0       0       4        0.0%
BITSFR3              0      0       0       4        0.0%
SFR3                 0      0       0       4        0.0%
BANK0               50     50      50       5      100.0%
BITSFR4              0      0       0       5        0.0%
SFR4                 0      0       0       5        0.0%
BITBANK1            50      0       0       6        0.0%
BITSFR5              0      0       0       6        0.0%
SFR5                 0      0       0       6        0.0%
BANK1               50     43      4F       7       98.8%
BITSFR6              0      0       0       7        0.0%
SFR6                 0      0       0       7        0.0%
BITBANK2            50      0       0       8        0.0%
BITSFR7              0      0       0       8        0.0%
SFR7                 0      0       0       8        0.0%
BANK2               50      0      30       9       60.0%
BITSFR8              0      0       0       9        0.0%
SFR8                 0      0       0       9        0.0%
BITBANK3            50      0       0      10        0.0%
BITSFR9              0      0       0      10        0.0%
SFR9                 0      0       0      10        0.0%
BANK3               50      0      30      11       60.0%
BITSFR10             0      0       0      11        0.0%
SFR10                0      0       0      11        0.0%
BITBANK4            50      0       0      12        0.0%
BITSFR11             0      0       0      12        0.0%
SFR11                0      0       0      12        0.0%
BANK4               50      0       0      13        0.0%
BITSFR12             0      0       0      13        0.0%
SFR12                0      0       0      13        0.0%
BITSFR13             0      0       0      14        0.0%
SFR13                0      0       0      14        0.0%
ABS                  0      0     10D      14        0.0%
BITBANK5            50      0       0      15        0.0%
BITSFR14             0      0       0      15        0.0%
SFR14                0      0       0      15        0.0%
BANK5               50      0       0      16        0.0%
BITSFR15             0      0       0      16        0.0%
SFR15                0      0       0      16        0.0%
BITBANK6            50      0       0      17        0.0%
BITSFR16             0      0       0      17        0.0%
SFR16                0      0       0      17        0.0%
BANK6               50      0       0      18        0.0%
BITSFR17             0      0       0      18        0.0%
SFR17                0      0       0      18        0.0%
BITBANK7            50      0       0      19        0.0%
BITSFR18             0      0       0      19        0.0%
SFR18                0      0       0      19        0.0%
BANK7               50      0       0      20        0.0%
BITSFR19             0      0       0      20        0.0%
SFR19                0      0       0      20        0.0%
BITBANK8            50      0       0      21        0.0%
BITSFR20             0      0       0      21        0.0%
SFR20                0      0       0      21        0.0%
BANK8               50      0       0      22        0.0%
BITSFR21             0      0       0      22        0.0%
SFR21                0      0       0      22        0.0%
BITBANK9            50      0       0      23        0.0%
BITSFR22             0      0       0      23        0.0%
SFR22                0      0       0      23        0.0%
BANK9               50      0       0      24        0.0%
BITSFR23             0      0       0      24        0.0%
SFR23                0      0       0      24        0.0%
BITBANK10           50      0       0      25        0.0%
BITSFR24             0      0       0      25        0.0%
SFR24                0      0       0      25        0.0%
BANK10              50      0       0      26        0.0%
BITSFR25             0      0       0      26        0.0%
SFR25                0      0       0      26        0.0%
BITBANK11           50      0       0      27        0.0%
BITSFR26             0      0       0      27        0.0%
SFR26                0      0       0      27        0.0%
BITSFR27             0      0       0      28        0.0%
SFR27                0      0       0      28        0.0%
DATA                 0      0     10D      28        0.0%
BANK11              50      0       0      29        0.0%
BITSFR28             0      0       0      29        0.0%
SFR28                0      0       0      29        0.0%
BITBANK12           50      0       0      30        0.0%
BITSFR29             0      0       0      30        0.0%
SFR29                0      0       0      30        0.0%
BANK12              50      0       0      31        0.0%
BITSFR30             0      0       0      31        0.0%
SFR30                0      0       0      31        0.0%
BITBANK13           50      0       0      32        0.0%
BITSFR31             0      0       0      32        0.0%
SFR31                0      0       0      32        0.0%
BANK13              50      0       0      33        0.0%
BITBANK14           50      0       0      34        0.0%
BANK14              50      0       0      35        0.0%
BITBANK15           50      0       0      36        0.0%
BANK15              50      0       0      37        0.0%
BITBANK16           50      0       0      38        0.0%
BANK16              50      0       0      39        0.0%
BITBANK17           50      0       0      40        0.0%
BANK17              50      0       0      41        0.0%
BITBANK18           50      0       0      42        0.0%
BANK18              50      0       0      43        0.0%
BITBANK19           50      0       0      44        0.0%
BANK19              50      0       0      45        0.0%
BITBANK20           50      0       0      46        0.0%
BANK20              50      0       0      47        0.0%
BITBANK21           50      0       0      48        0.0%
BANK21              50      0       0      49        0.0%
BITBANK22           50      0       0      50        0.0%
BANK22              50      0       0      51        0.0%
BITBANK23           50      0       0      52        0.0%
BANK23              50      0       0      53        0.0%
BITBANK24           50      0       0      54        0.0%
BANK24              50      0       0      55        0.0%
BITBANK25           20      0       0      56        0.0%
BANK25              20      0       0      57        0.0%


Microchip Technology PIC Macro Assembler V2.46 build 20240104201356 
Symbol Table                                                                                   Fri Jan 30 02:10:49 2026

                  ml_predict@F6050 00E3                       ___fldiv@aexp 002C  
                     ___fldiv@bexp 002B                       ___fldiv@sign 0024  
                               l30 1E0E                                 l32 1E16  
                               l25 1FFF                                 l41 1DFE  
                               l50 1E85                                 l28 1E09  
                               l44 1E06                                 l60 1415  
                               l54 13BB                                 l66 1F0B  
                               l83 1DFC                       ___awdiv@sign 0076  
              ___wmul@multiplicand 0072                __Umul8_16@word_mpld 0076  
           __end_of_parse_features 12ED                                l210 14B1  
                              l206 1F61                                l231 11D7  
                              l225 12EC                                l402 137C  
                              l244 1653                                l341 0045  
                              l502 1FAF                                l238 10F1  
                              l327 1E90                                l513 1261  
                              l505 11F4                                l329 1EA4  
                              l521 1162                                l531 1162  
                              l700 1785                                l508 1248  
                              l517 0012                                l197 0FFF  
                              l392 1300                                l480 0866  
                              l632 093A                                l528 114D  
                              l705 17D1                                l641 0A72  
                              l706 17EB                                l730 0C2D  
                              l634 0918                                l708 17F8  
                              l724 0CAD                                l628 08BC  
                              l493 109E                                l653 09EE  
                              l910 0579                                l670 0A6B  
                              l662 0A48                                l743 1ED7  
                              l671 0A72                                l496 1F7E  
                              l736 0CA1                                l904 053F  
                              l497 1F9A                                l745 1EE7  
                              l649 09CC                                l770 155B  
                              l922 061A                                l674 1EC4  
                              l907 0568                                l659 0A10  
                              l684 16A7                                l781 1527  
                              l909 05AC                                l686 17FF  
                              l782 1533                                l774 150D  
                              l768 14D4                                l928 0694  
                              l849 0469                                l962 1E68  
                              l970 1F34                                l795 1E50  
                              l980 1E38                                l892 045C  
                              l789 101B                                l893 07D5  
                              l976 1E27                                l888 0436  
                              l979 1E38                   print_float@whole 005A  
                     ___awmod@sign 0076                    ml_predict@votes 0023  
                              wreg 0009                       ___flmul@aexp 0042  
                     ___flmul@bexp 0043                       ___flmul@sign 003D  
                     ___flmul@temp 0048                       ___flmul@prod 0044  
                     ?_EUSART_Read 0070                       ___fltol@exp1 0053  
                             l3001 122C                               l3003 1230  
                             l3011 0008                               l3005 125E  
                             l3101 0ACC                               l3013 0010  
                             l3021 10FC                               l3007 1260  
                             l3111 0B05                               l3015 0012  
                             l3031 111F                               l3121 0B4B  
                             l3113 0B12                               l3105 0AD5  
                             l3201 14B3                               l4001 0731  
                             l3041 112D                               l3033 1121  
                             l3025 1105                               l3131 0B81  
                             l3123 0B56                               l3115 0B2A  
                             l3107 0AE0                               l3203 14B8  
                             l4011 077C                               l4003 074D  
                             l3051 1152                               l3035 1125  
                             l3043 113D                               l3027 1116  
                             l3019 10F2                               l4101 1FB0  
                             l3141 0BCC                               l3133 0B88  
                             l3125 0B5D                               l3117 0B37  
                             l3109 0AED                               l3061 0A73  
                             l3221 14FE                               l3213 14E5  
                             l3205 14BC                               l4021 07B5  
                             l4013 0782                               l4005 0751  
                             l3301 0DDD                               l3053 1157  
                             l3029 1117                               l4111 1FFC  
                             l4103 1FF6                               l3151 0C01  
                             l3143 0BE3                               l3135 0B9A  
                             l3127 0B68                               l3119 0B44  
                             l3071 0A83                               l3063 0A77  
                             l3231 152B                               l3223 1506  
                             l3215 14E8                               l3207 14CC  
                             l4023 07B9                               l4015 0799  
                             l4007 075C                               l3311 0E1D  
                             l3303 0DE3                               l3055 1EA5  
                             l4031 116C                               l4113 1FFD  
                             l4105 1FF9                               l4121 1E13  
                             l3161 0C12                               l3153 0C02  
                             l3145 0BEA                               l3137 0BA5  
                             l3129 0B6F                               l3081 0A9F  
                             l3073 0A88                               l3065 0A79  
                             l3241 1553                               l3233 1535  
                             l3225 1514                               l3217 14F3  
                             l3209 14DC                               l4025 07CD  
                             l4009 0778                               l4017 079E  
                             l3321 0E7A                               l3305 0DFF  
                             l3313 0E22                               l3057 1EA8  
                             l3049 1144                               l3401 142E  
                             l4041 118D                               l4201 10B5  
                             l4115 1FFE                               l4107 1FFA  
                             l4123 1E15                               l4131 1F44  
                             l3171 0C37                               l3163 0C16  
                             l3155 0C09                               l3147 0BF6  
                             l3139 0BB7                               l3091 0AB0  
                             l3083 0AA1                               l3075 0A90  
                             l3067 0A7D                               l3235 1549  
                             l3227 151D                               l3219 14FA  
                             l4019 07A5                               l3251 1E7A  
                             l3331 0EB9                               l3323 0E92  
                             l3315 0E3D                               l3307 0E17  
                             l3411 14A5                               l3403 1432  
                             l4051 11AD                               l4043 1194  
                             l4211 10C9                               l4061 12ED  
                             l4109 1FFB                               l4141 1F4F  
                             l4133 1F46                               l4221 1005  
                             l3501 16F6                               l3181 0C6C  
                             l3173 0C3F                               l3165 0C2A  
                             l3149 0BFD                               l3157 0C0D  
                             l3093 0AB8                               l3085 0AA5  
                             l3077 0A92                               l3069 0A7E  
                             l3421 0027                               l3237 154E  
                             l3229 1521                               l3245 1E69  
                             l3333 0ED4                               l3317 0E43  
                             l3261 0CD2                               l3253 0CB0  
                             l2701 0852                               l3413 14A9  
                             l3405 1447                               l4053 11B4  
                             l4045 1199                               l4037 116E  
                             l4029 1165                               l4213 10DE  
                             l4301 163F                               l4071 1313  
                             l4063 12EF                               l4119 1E07  
                             l4151 1F5E                               l4143 1F51  
                             l4135 1F48                               l4127 1F35  
                             l4223 100B                               l3511 1717  
                             l3503 16FE                               l3431 1F76  
                             l3191 0C9A                               l3183 0C76  
                             l3175 0C43                               l3159 0C11  
                             l3095 0ABA                               l3087 0AA6  
                             l3079 0A9A                               l3423 002E  
                             l3415 0013                               l3239 1552  
                             l3247 1E6C                               l3351 0F2F  
                             l3327 0E98                               l3319 0E5E  
                             l3271 0D12                               l3263 0CD8  
                             l3255 0CB6                               l2703 0858  
                             l2711 104C                               l3407 1458  
                             l4055 11C0                               l4047 119F  
                             l4039 1186                               l4215 10E4  
                             l4207 10B7                               l4303 1645  
                             l4081 1335                               l4073 131B  
                             l4065 12F3                               l4153 1F60  
                             l4145 1F52                               l4137 1F4A  
                             l4129 1F38                               l4225 100F  
                             l3521 173A                               l3513 1718  
                             l3505 1700                               l3441 1656  
                             l3433 1F92                               l3193 0C9E  
                             l3185 0C84                               l3177 0C5B  
                             l3169 0C32                               l3097 0AC2  
                             l3089 0AAB                               l3425 003D  
                             l3417 001B                               l3601 1E28  
                             l4161 126A                               l3249 1E76  
                             l3353 0F4B                               l3329 0E9E  
                             l3281 0D50                               l3273 0D2A  
                             l3265 0CF4                               l3257 0CB7  
                             l2705 085D                               l2721 105C  
                             l2713 104D                               l2801 089E  
                             l3409 149E                               l4057 11C7  
                             l4049 11A6                               l4217 10EA  
                             l4209 10BE                               l4305 164C  
                             l4241 157F                               l4091 135E  
                             l4083 133C                               l4075 1323  
                             l4067 1304                               l4147 1F57  
                             l4139 1F4C                               l4219 1002  
                             l3611 1E3D                               l3531 1755  
                             l3507 1705                               l3515 171F  
                             l3523 173E                               l3451 1666  
                             l3443 165A                               l3435 1FAC  
                             l3195 0C9F                               l3187 0C8D  
                             l3179 0C5F                               l3099 0AC7  
                             l3419 001F                               l3603 1E31  
                             l4171 1295                               l4163 126E  
                             l4155 1264                               l3371 0FD9  
                             l3355 0F67                               l3339 0EF1  
                             l3347 0F0E                               l3291 0DA6  
                             l3283 0D6C                               l3267 0D0C  
                             l3259 0CB7                               l2707 0862  
                             l2731 1073                               l2723 1061  
                             l2715 1051                               l2811 08B2  
                             l2803 089F                               l4059 11D0  
                             l4251 15A2                               l4243 1586  
                             l4235 155C                               l4085 134E  
                             l4077 1326                               l4093 1364  
                             l4069 130F                               l4149 1F5C  
                             l3613 1E41                               l3541 1769  
                             l3533 1759                               l3525 1744  
                             l3517 1731                               l3509 1713  
                             l3461 167E                               l3453 166B  
                             l3445 165C                               l3437 1FAE  
                             l3429 1F62                               l3197 0CA5  
                             l3189 0C8F                               l2661 1E9A  
                             l2653 1E86                               l3701 01A8  
                             l3621 004A                               l4181 12CC  
                             l4173 129B                               l4165 1278  
                             l4157 1265                               l3357 0F83  
                             l3349 0F29                               l3293 0DBD  
                             l3285 0D84                               l3277 0D2F  
                             l2733 1077                               l2725 1067  
                             l2741 1090                               l2717 1056  
                             l2901 09BB                               l2821 08CD  
                             l2805 08A4                               l2813 08B4  
                             l4261 15C4                               l4253 15A9  
                             l4245 158D                               l4237 156B  
                             l4095 1369                               l4087 1356  
                             l4079 1331                               l3607 1DF4  
                             l3615 1E4A                               l3551 178A  
                             l3543 176A                               l3535 175A  
                             l3527 174C                               l3519 1732  
                             l3471 168F                               l3463 1683  
                             l3455 1673                               l3447 1660  
                             l2663 1EA0                               l2655 1E88  
                             l3711 01B6                               l3703 01B0  
                             l3631 008B                               l3623 0050  
                             l4183 12D2                               l4175 12A0  
                             l4167 1281                               l4191 12E5  
                             l4159 1267                               l2751 1E03  
                             l3391 0FF4                               l3359 0F9B  
                             l3367 0FA1                               l3279 0D4A  
                             l2671 080D                               l2743 1095  
                             l2735 1081                               l2727 106A  
                             l2719 1058                               l2911 09E2  
                             l2903 09C4                               l2831 08D7  
                             l2823 08CF                               l2815 08C2  
                             l2807 08A9                               l4271 15DF  
                             l4263 15C9                               l4255 15B0  
                             l4247 1594                               l4239 1578  
                             l4097 1374                               l4089 1357  
                             l3609 1E3A                               l3553 178F  
                             l3561 17B7                               l3545 176E  
                             l3537 1761                               l3529 174E  
                             l3481 16AF                               l3473 1694  
                             l3465 1685                               l3457 1674  
                             l3449 1661                               l2657 1E8C  
                             l3801 0398                               l3721 01E6  
                             l3713 01BA                               l3705 01B1  
                             l3633 008C                               l3625 0057  
                             l4185 12D8                               l4193 12EB  
                             l4177 12AA                               l4169 128B  
                             l3393 0FF8                               l3385 0FE2  
                             l3369 0FBD                               l3377 0FDE  
                             l3289 0D8A                               l2681 0821  
                             l2673 0812                               l2745 109A  
                             l2737 1085                               l2729 106F  
                             l2761 139A                               l2753 137F  
                             l2921 09F7                               l2913 09E9  
                             l2905 09D4                               l2841 08E1  
                             l2833 08D9                               l2825 08D1  
                             l2817 08C6                               l2809 08B1  
                             l4281 15FF                               l4273 15E6  
                             l4265 15CE                               l4257 15B7  
                             l4249 159B                               l3571 17EE  
                             l3563 17C4                               l3555 1797  
                             l3547 1782                               l3539 1765  
                             l3491 16CD                               l3483 16BB  
                             l3475 169C                               l3467 1689  
                             l3459 1676                               l2659 1E95  
                             l3803 039C                               l3723 01FD  
                             l3715 01C7                               l3707 01B2  
                             l3651 00CA                               l3643 00A2  
                             l3635 0093                               l3627 005B  
                             l3619 0048                               l4187 12DF  
                             l4179 12C8                               l3395 0FFE  
                             l3387 0FEC                               l3379 0FE0  
                             l3299 0DC2                               l2691 0835  
                             l2683 0823                               l2675 0814  
                             l2667 0808                               l2739 108A  
                             l2763 13CD                               l2755 1387  
                             l2931 0A07                               l2923 09FC  
                             l2915 09ED                               l2907 09D9  
                             l2851 08EA                               l2843 08E3  
                             l2835 08DB                               l2827 08D3  
                             l2819 08CB                               l2771 0867  
                             l4291 161E                               l4283 1603  
                             l4275 15ED                               l4267 15D2  
                             l4259 15C2                               l3573 17F2  
                             l3565 17DF                               l3557 179B  
                             l3485 16BF                               l3477 169D  
                             l3469 168A                               l3581 1E17  
                             l3901 0553                               l3821 03D3  
                             l3813 03B6                               l3805 03A0  
                             l3741 023B                               l3733 0213  
                             l3717 01CC                               l3709 01B4  
                             l3661 00FA                               l3653 00E0  
                             l3645 00A4                               l3637 0095  
                             l3629 0073                               l4189 12E3  
                             l2749 1DFE                               l3389 0FEE  
                             l2693 0839                               l2685 0829  
                             l2677 0818                               l2669 0809  
                             l2765 13FD                               l2757 1390  
                             l2941 0A22                               l2933 0A0D  
                             l2917 09F2                               l2925 09FE  
                             l2861 0926                               l2853 0902  
                             l2845 08E5                               l2837 08DD  
                             l2829 08D5                               l2781 0876  
                             l2773 086A                               l4197 109F  
                             l4293 1625                               l4285 160C  
                             l4277 15F2                               l4269 15D9  
                             l3575 17F4                               l3567 17E2  
                             l3559 17B3                               l3495 16D6  
                             l3479 169F                               l3591 1F2C  
                             l3911 057D                               l3831 03F4  
                             l3815 03BA                               l3807 03A1  
                             l3743 0248                               l3751 0250  
                             l3735 0220                               l3727 020C  
                             l3719 01D9                               l3671 0118  
                             l3663 00FC                               l3655 00E6  
                             l3647 00A8                               l3639 009A  
                             l2695 0848                               l2687 082C  
                             l2679 081D                               l2767 1407  
                             l2759 1395                               l2951 0A5A  
                             l2943 0A26                               l2919 09F5  
                             l2927 0A02                               l2871 0943  
                             l2863 0927                               l2855 091C  
                             l2847 08E7                               l2839 08DF  
                             l2791 088E                               l2783 087B  
                             l2775 086C                               l3399 1416  
                             l4199 10AE                               l4287 1612  
                             l4279 15F9                               l4295 162C  
                             l3569 17EA                               l3497 16E6  
                             l3489 16C8                               l3593 1F2D  
                             l3585 1F0C                               l3921 05B8  
                             l3913 0599                               l3905 056A  
                             l3841 0410                               l3833 03F6  
                             l3825 03D5                               l3817 03C4  
                             l3809 03AB                               l3761 02A2  
                             l3753 0267                               l3745 0249  
                             l3737 022D                               l3729 020F  
                             l3681 0160                               l3673 012E  
                             l3657 00EE                               l3665 0106  
                             l3649 00B4                               l2697 084C  
                             l2689 0831                               l2769 140E  
                             l2961 0A6D                               l2953 0A5F  
                             l2945 0A44                               l2937 0A15  
                             l2929 0A03                               l2881 095C  
                             l2865 0930                               l2857 0920  
                             l2849 08E9                               l2793 0891  
                             l2785 0883                               l2777 0870  
                             l4297 1633                               l4289 1617  
       EUSART_Write_Integer@buffer 0027                               l3499 16EE  
                             l2971 1ED3                               l3587 1F0E  
                             l3931 05E0                               l3923 05C2  
                             l3915 05B0                               l3907 0571  
                             l3843 0420                               l3835 03FA  
                             l3827 03EC                               l3819 03C9  
                             l3771 02DC                               l3763 02AF  
                             l3755 0269                               l3747 024B  
                             l3691 0180                               l3683 0164  
                             l3675 0144                               l3667 0108  
                             l3659 00F4                               l2699 084D  
                             l2963 0A71                               l2955 0A60  
                             l2947 0A4D                               l2939 0A1A  
                             l2891 0970                               l2883 0960  
                             l2875 094C                               l2859 0922  
                             l2867 0934                               l2795 0897  
                             l2787 0884                               l2779 0871  
                             l2973 1EDE                               l2965 1EC6  
                             l3597 1E51                               l3589 1F17  
                             l3941 05F7                               l3925 05CC  
                             l3909 0575                               l3861 0481  
                             l3853 0460                               l3845 0432  
                             l3837 0407                               l3829 03EF  
                             l3781 030D                               l3773 02E9  
                             l3765 02CE                               l3757 0280  
                             l3693 018D                               l3685 016E  
                             l3677 014A                               l3669 010C  
                             l2981 1EEB                               l2957 0A64  
                             l2949 0A52                               l2885 0962  
                             l2877 0954                               l2869 093E  
                             l2893 0975                               l2797 0898  
                             l2789 0886                               l2991 11D8  
                             l2975 1EE3                               l2967 1EC8  
                             l3951 063F                               l3943 0612  
                             l3927 05DA                               l3919 05B5  
                             l3871 04B6                               l3855 0465  
                             l3847 044D                               l3839 040A  
                             l3791 0372                               l3783 0324  
                             l3775 02EF                               l3767 02D3  
                             l3759 028C                               l3695 019A  
                             l3687 0170                               l3679 015A  
                             l2983 1EF3                               l2959 0A66  
                             l2895 098C                               l2887 0966  
                             l2879 0958                               l2799 089A  
                             l2993 11EC                               l2969 1ECF  
                             l3961 0658                               l3953 0641  
                             l3945 0616                               l3937 05EB  
                             l3929 05DB                               l3881 04E3  
                             l3873 04BA                               l3865 048A  
                             l3857 0470                               l3849 0453  
                             l3785 0330                               l3793 0378  
                             l3777 02F4                               l3769 02D7  
                             l3689 0174                               l3697 019F  
                             l2985 1EF7                               l2897 09B0  
                             l2889 0967                               l2995 1208  
                             l3971 0699                               l3963 065E  
                             l3955 0645                               l3947 062E  
                             l3939 05F5                               l3891 0515  
                             l3883 04EA                               l3875 04BF  
                             l3867 04A5                               l3859 0479  
                             l3795 0387                               l3787 0346  
                             l3779 030B                               l3699 01A6  
                             l2987 1EFE                               l2979 1EE8  
                             l2899 09B6                               l2997 1210  
                             l3981 06EA                               l3973 069F  
                             l3965 0673                               l3949 0634  
                             l3957 064A                               l3893 051D  
                             l3885 04EE                               l3877 04CC  
                             l3869 04AF                               l3797 0395  
                             l3789 0353                               l2989 1F03  
                             l2999 1214                               l3983 06EE  
                             l3975 06BC                               l3967 068A  
                             l3959 0654                               l3895 0543  
                             l3887 04FB                               l3879 04D9  
                             l3993 071A                               l3985 06F5  
                             l3977 06C0                               l3897 054D  
                             l3889 050D                               l3987 070C  
                             l3979 06CE                               l3899 054E  
                             l3989 0711                               l3997 0723  
                             STR_1 20E9                               STR_2 209D  
                             STR_3 20BC                               STR_4 20D8  
                             STR_5 2104                               STR_6 2100  
                             STR_7 20E1                               STR_8 210A  
                             STR_9 20FC                               _BRGH 0CF2  
                             _CREN 0CEC                               u4000 0A52  
                             u4001 0A51                               u4010 0A5F  
                             u4011 0A5E                               u4100 1214  
                             u4020 0A64                               u4101 1213  
                             u4021 0A63                               u4110 1230  
                             u4030 0A71                               u4111 122F  
                             u4031 0A70                               u5000 1694  
                             u4120 125E                               u4040 1ED3  
                             u3400 0829                               u4200 1143  
                             u5001 1693                               u4121 125D  
                             u4041 1ED2                               u3401 0828  
                             u4201 1142                               u5010 16AF  
                             u4130 0010                               u5011 16AE  
                             u4131 000F                               u5100 174C  
                             u5020 16CD                               u4060 1EE3  
                             u4300 0AC7                               u3340 1E8C  
                             u3420 0839                               u3500 1067  
                             u4220 1152                               u4140 10FC  
                             u5101 174B                               u5021 16CC  
                             u4125 125A                               u4061 1EE2  
                             u4301 0AC6                               u3341 1E8B  
                             u3421 0838                               u3501 1066  
                             u4221 1151                               u4141 10FB  
                             u5030 1705                               u4310 0ACC  
                             u4070 1F0B                               u4230 1157  
                             u4150 1112                               u5031 1704  
                             u4055 1ED8                               u4311 0ACB  
                             u3415 082D                               u4071 1F0A  
                             u4231 1156                               u4215 1145  
                             u5200 17A9                               u5120 1759  
                             u4080 11EC                               u4400 0C11  
                             u4240 0A7D                               u6000 0567  
                             u3440 0848                               u3520 1077  
                             u3600 140E                               u4160 1125  
                             u5121 1758                               u4081 11EB  
                             u4401 0C10                               u4241 0A7C  
                             u6001 0566                               u3441 0847  
                             u3521 1076                               u3601 140D  
                             u4161 1124                               u5210 17C4  
                             u4090 1208                               u4410 0C16  
                             u4250 0A83                               u3370 1EA0  
                             u6010 0571                               u3530 1081  
                             u3610 0870                               u4170 112C  
                             u5211 17C3                               u5115 174F  
                             u4091 1207                               u4411 0C15  
                             u4251 0A82                               u3371 1E9F  
                             u3355 1E91                               u6011 0570  
                             u3435 083A                               u3531 1080  
                             u3515 106B                               u3611 086F  
                             u4171 112B                               u4155 110E  
                             u5220 17DF                               u5140 1769  
                             u5060 1717                               u4420 0C2A  
                             u4340 0BC2                               u4260 0A88  
                             u4500 14B8                               u6100 0634  
                             u6020 0575                               u5300 0050  
                             u3460 0858                               u3380 080D  
                             u3700 0902                               u3620 0876  
                             u5221 17DE                               u5205 17A5  
                             u5141 1768                               u5061 1716  
                             u5045 1706                               u4421 0C29  
                             u4325 0B45                               u4261 0A87  
                             u3365 1E96                               u4501 14B7  
                             u6101 0633                               u6021 0574  
                             u5301 004F                               u3461 0857  
                             u3445 0844                               u3381 080C  
                             u3701 0901                               u3621 0875  
                             u5230 17F2                               u5150 176E  
                             u4430 0C31                               u4350 0BD9  
                             u4270 0AA5                               u4510 14BC  
                             u6110 063F                               u6030 05B0  
                             u5310 0066                               u3470 085D  
                             u3390 0818                               u3550 1090  
                             u3710 090B                               u3630 087B  
                             u4190 113C                               u5231 17F1  
                             u5215 17C0                               u5151 176D  
                             u5135 175B                               u5055 170D  
                             u4431 0C30                               u4335 0B70  
                             u4271 0AA4                               u4511 14BB  
                             u6111 063E                               u6031 05AF  
                             u5311 0064                               u3471 085C  
                             u3455 084E                               u3391 0817  
                             u3551 108F                               u3535 107D  
                             u3711 0909                               u3631 087A  
                             u4191 113B                               u5160 1782  
                             u5080 1731                               u4440 0C37  
                             u4280 0AAB                               u4600 152B  
                             u4520 14DC                               u5240 1F17  
                             u6200 0711                               u6120 0645  
                             u6040 05C2                               u5400 00E6  
                             u5320 0067                               u3560 1095  
                             u3480 1051                               u3800 095C  
                             u3720 090C                               u3640 0897  
                             u5225 17DB                               u5161 1781  
                             u5081 1730                               u4441 0C36  
                             u4345 0BBE                               u4281 0AAA  
                             u4601 152A                               u4521 14DB  
                             u5241 1F16                               u6201 0710  
                             u6121 0644                               u6041 05C1  
                             u5401 00E5                               u3561 1094  
                             u3545 1086                               u3481 1050  
                             u3801 095B                               u3705 08FE  
                             u3641 0896                               u4185 112E  
                             u5170 1789                               u5090 1744  
                             u4450 0C43                               u4290 0AB0  
                             u4610 153F                               u5250 1F2C  
                             u6210 0730                               u6130 0654  
                             u6050 05CC                               u5410 00F4  
                             u5330 0073                               u3570 1E03  
                             u3490 105C                               u3810 0966  
                             u3730 091C                               u3650 089E  
                             u5171 1788                               u5091 1743  
                             u5075 1719                               u4451 0C42  
                             u4355 0BD5                               u4291 0AAF  
                             u5251 1F2B                               u6211 072F  
                             u6131 0653                               u6051 05CB  
                             u5411 00F3                               u5331 0072  
                             u3571 1E02                               u3491 105B  
                             u3811 0965                               u3731 091B  
                             u3651 089D                               u6300 12F3  
                             u5180 178F                               u4460 0C51  
                             u4380 0C01                               u4620 154E  
                             u4540 14F9                               u5260 1E61  
                             u6220 075B                               u6140 0658  
                             u6060 05DA                               u5500 018D  
                             u5420 00FA                               u5340 008B  
                             u4700 0DDD                               u3580 1387  
                             u3900 09FC                               u3740 0926  
                             u3660 08A4                               u6301 12F2  
                             u5181 178E                               u5085 172D  
                             u4381 0C00                               u4365 0BE4  
                             u4621 154D                               u4541 14F8  
                             u5261 1E5F                               u6221 075A  
                             u6141 0657                               u6061 05D9  
                             u5501 018C                               u5421 00F9  
                             u5341 008A                               u4701 0DDC  
                             u3581 1386                               u3901 09FB  
                             u3741 0925                               u3661 08A3  
                             u6310 1304                               u5190 179B  
                             u4470 0C6C                               u4630 1552  
                             u5270 1E62                               u6230 0782  
                             u6150 068A                               u6070 05EA  
                             u5510 019A                               u5430 0118  
                             u5350 0093                               u4710 0DFF  
                             u3590 13CC                               u3910 0A02  
                             u3830 098C                               u3670 08A9  
                             u6311 1303                               u5191 179A  
                             u4471 0C6B                               u4375 0BF7  
                             u4631 1551                               u4615 153B  
                             u4535 14ED                               u6231 0781  
                             u6215 072C                               u6151 0689  
                             u6071 05E9                               u5511 0199  
                             u5431 0117                               u5351 0092  
                             u4711 0DFE                               u3591 13CB  
                             u3911 0A01                               u3831 098B  
                             u3671 08A8                               u6320 1323  
                             u6400 1FBE                               u4480 0C84  
                             u4560 1513                               u5280 1E31  
                             u6240 0799                               u6160 0699  
                             u6080 05F5                               u5600 023A  
                             u5520 01C7                               u5440 012E  
                             u5360 00A1                               u4640 1E85  
                             u4800 0F4B                               u4720 0E3D  
                             u3920 0A07                               u3840 09BB  
                             u3760 093A                               u3680 08C2  
                             u6321 1322                               u4481 0C83  
                             u4465 0C4D                               u4561 1512  
                             u5281 1E30                               u6241 0798  
                             u6161 0698                               u6081 05F4  
                             u5601 0239                               u5521 01C6  
                             u5441 012D                               u5361 00A0  
                             u4641 1E84                               u4801 0F4A  
                             u4721 0E3C                               u3921 0A06  
                             u3841 09BA                               u3833 0988  
                             u3825 096A                               u3761 0939  
                             u3681 08C1                               u6410 1FD5  
                             u5290 1E4A                               u4490 0C9E  
                             u6250 07A5                               u6170 06CD  
                             u6090 062E                               u5610 0248  
                             u5530 01CC                               u5450 0144  
                             u5370 00B4                               u4810 0F67  
                             u4730 0E5E                               u4650 0CD2  
                             u3930 0A0D                               u3850 09D4  
                             u3770 093E                               u3690 08C6  
                             u5291 1E49                               u4491 0C9D  
                             u4475 0C68                               u4395 0C03  
                             u4555 1507                               u6251 07A4  
                             u6171 06CC                               u6091 062D  
                             u5611 0247                               u5531 01CB  
                             u5451 0143                               u5371 00B3  
                             u4811 0F66                               u4731 0E5D  
                             u4651 0CD1                               u3931 0A0C  
                             u3851 09D3                               u3771 093D  
                             u3755 092A                               u3691 08C5  
                             u6340 1335                               u6420 1E0E  
                             u4580 1521                               u6260 07B9  
                             u6180 06F5                               u5700 0324  
                             u5620 0267                               u5540 01D9  
                             u5460 014A                               u5380 00CA  
                             u6500 12D2                               u4820 0F83  
                             u4740 0E7A                               u4660 0CF4  
                             u3940 0A14                               u3860 09D9  
                             u3780 0943                               u6341 1334  
                             u6405 1FBA                               u6421 1E0D  
                             u4485 0C80                               u4581 1520  
                             u6261 07B8                               u6181 06F4  
                             u5701 0323                               u5621 0266  
                             u5541 01D8                               u5461 0149  
                             u5381 00C9                               u6501 12D1  
                             u4821 0F82                               u4741 0E79  
                             u4661 0CF3                               u3941 0A13  
                             u3861 09D8                               u3781 0942  
                             u6430 1E13                               u4910 003D  
                             u4590 1527                               u6190 070C  
                             u5710 0353                               u5630 0280  
                             u5550 01E6                               u5470 0160  
                             u5390 00E0                               u6510 12D8  
                             u4830 0FBD                               u4750 0EB9  
                             u4670 0D4A                               u3950 0A1A  
                             u3790 0958                               u6335 1327  
                             u6415 1FD1                               u6431 1E12  
                             u4911 003C                               u4591 1526  
                             u4575 1517                               u6191 070B  
                             u6175 06C9                               u5711 0352  
                             u5631 027F                               u5551 01E5  
                             u5471 015F                               u5391 00DF  
                             u6511 12D7                               u4831 0FBC  
                             u4751 0EB8                               u4671 0D49  
                             u3951 0A19                               u3791 0957  
                             u6360 134E                               u4920 1F76  
                             u5800 03D3                               u5640 02AF  
                             u5560 01FD                               u5480 016E  
                             u6520 12DE                               u6440 1278  
                             u4840 0FD9                               u4760 0ED4  
                             u4680 0D6C                               u3960 0A26  
                             u3880 09ED                               u6280 118D  
                             u6600 15D9                               u6361 134D  
                             u4921 1F75                               u4905 002F  
                             u5801 03D2                               u5641 02AE  
                             u5561 01FC                               u5481 016D  
                             u6521 12DD                               u6441 1277  
                             u4841 0FD8                               u4761 0ED3  
                             u4681 0D6B                               u3961 0A25  
                             u3881 09EC                               u6281 118C  
                             u6601 15D8                               u4930 1F92  
                             u5810 03EC                               u5730 0368  
                             u5570 020B                               u5490 0180  
                             u6530 12EB                               u6450 1281  
                             u4850 0FEC                               u4770 0EF0  
                             u4690 0DA6                               u3970 0A35  
                             u3890 09F2                               u6290 119F  
                             u6610 15DF                               _SCS0 04C8  
                             u6355 1336                               u4931 1F91  
                             u5811 03EB                               u5715 034F  
                             u5571 020A                               u5491 017F  
                             u6531 12EA                               u6451 1280  
                             u4851 0FEB                               u4771 0EEF  
                             u4691 0DA5                               u3891 09F1  
                             u3875 09E3                               u6291 119E  
                             u6275 1171                               u6611 15DE  
                             _SCS1 04C9                               u6380 1364  
                             u4940 1FAC                               u5820 0407  
                             u5740 0387                               u5660 02C4  
                             u5580 0220                               u6460 128B  
                             u4860 0FFE                               u4780 0F0D  
                             u3980 0A44                               u6540 10AA  
                             u6620 15F2                               u6381 1363  
                             u6365 134A                               u4941 1FAB  
                             u5821 0406                               u5741 0386  
                             u5725 035D                               u5645 02AB  
                             u5581 021F                               u6461 128A  
                             u4861 0FFD                               u4781 0F0C  
                             u3981 0A43                               u6621 15F1  
                             u6390 1369                               u4950 1660  
                             u5910 04BF                               u5830 0410  
                             u5750 0395                               u5670 02E9  
                             u5590 022D                               u6470 1295  
                             u4790 0F29                               u3990 0A4D  
                             u4870 142E                               u6630 15F9  
                             u6391 1368                               u6375 1358  
                             u4951 165F                               u5911 04BE  
                             u5831 040F                               u5751 0394  
                             u5735 0364                               u5671 02E8  
                             u5655 02B9                               u5591 022C  
                             u6471 1294                               u4791 0F28  
                             u3991 0A4C                               u3975 0A31  
                             u4871 142D                               u6631 15F8  
                             u4960 1666                               u4880 001F  
                             u5920 04CC                               u5840 044D  
                             u5760 039C                               u5680 02EF  
                             u6480 12AA                               u6560 10EA  
                             u6640 15FF                               u4961 1665  
                             u4945 1FA8                               u4881 001E  
                             u5921 04CB                               u5905 04B0  
                             u5841 044C                               u5761 039B  
                             u5681 02EE                               u5665 02C0  
                             u6481 12A9                               u6561 10E9  
                             u6641 15FE                               u6570 101B  
                             u4970 166B                               u5930 04E3  
                             u5850 0453                               u5770 03AB  
                             u5690 030B                               u6650 1612  
                             u6571 101A                               u4971 166A  
                             u5931 04E2                               u5851 0452  
                             u5771 03AA                               u5691 030A  
                             u6555 10D5                               u6651 1611  
                             u4980 1689                               u5860 0460  
                             u5780 03B5                               u6660 1645  
                             u4981 1688                               u5925 04C8  
                             u5861 045F                               u5781 03B4  
                             u6661 1644                               u4990 168F  
                             u5950 04FB                               u5870 0470  
                             u5790 03C4                               u6590 15C9  
                             u4991 168E                               u4895 0028  
                             u5951 04FA                               u5871 046F  
                             u5791 03C3                               u6495 12B6  
                             u6591 15C8                               u5880 0481  
                             u5945 04E4                               u5881 0480  
                             u5970 0534                               u5890 04A5  
                             u5955 04F7                               u5891 04A4  
                             u5980 0543                               u5981 0542  
                             u5965 050E                               u6677 1571  
                             u5990 054D                               u6687 1F3D  
                             u5991 054C                               u5975 0530  
                             _SPEN 0CEF                               _TXEN 0CF5  
                             _SYNC 0CF4                               _main 155C  
                             _nanf 1E17                               _itoa 137D  
                             fsr0h 0005                               fsr1h 0007  
                             indf0 0000                               fsr0l 0004  
                             indf1 0001                               fsr1l 0006  
                             btemp 007E                        main@rx_char 00E2  
                             start 0002                    ___fldiv@new_exp 0025  
                     main@features 00D2                      ?_EUSART_Write 0070  
                    ___fltol@sign1 0052                    __end_of___aldiv 137D  
                  __end_of___fladd 0A73                              ?_main 0070  
                            ?_nanf 0070                    __end_of___fldiv 1800  
                            ?_itoa 0079                    __end_of___awdiv 0867  
                  __end_of___flneg 0013                              STR_10 2050  
                            STR_11 20B2                              STR_12 2099  
                            STR_20 2000                              STR_21 201D  
                            STR_13 2066                              STR_14 20FD  
                            STR_22 2107                              STR_23 20FD  
                            STR_15 201D                              STR_32 20F8  
                            STR_24 2084                              STR_16 2039  
                            _BRG16 0CFB                              STR_17 201D  
                            STR_33 20F0                              STR_25 20A8  
                            STR_26 2107                              STR_18 2091  
                            STR_35 20FF                              STR_27 20CF  
                            STR_19 2077                              STR_28 20C6  
                  __end_of___awmod 109F                              STR_29 20F4  
                  __end_of___flmul 0CAE                    __end_of___flsub 1EC5  
                  __end_of___fltol 1163                    ?_parse_features 0066  
                  ___awdiv@divisor 0070                              _IRCF0 04CB  
                            _IRCF1 04CC                              _IRCF2 04CD  
                            _IRCF3 04CE                    ___awdiv@counter 0075  
              ___lmul@multiplicand 0074                              _errno 00E6  
                  __end_of_isdigit 1E69                              nanf@s 0070  
                            nanf@u 0074                              itoa@d 0079  
                            status 0003                              wtemp0 007E  
                  __end_of_toupper 1E39                       ?_internal_32 0070  
                  __initialization 07D6                       __end_of_main 1656  
                     __end_of_nanf 1E28                       __end_of_itoa 1416  
                   ??_EUSART_Write 0070                             ??_main 006E  
                           ??_nanf 0074                             ??_itoa 007B  
                 ___awdiv@dividend 0072                             _RC1REG 0199  
               ml_predict@classIdx 0020                classify_and_print@i 0060  
                           _SPBRGL 019B                             _TX1REG 019A  
                           _SPLLEN 04CF                   __end_of___xxtofl 155C  
               ml_predict@maxVotes 0021                             ___flge 11D8  
                           ___fleq 1F62                             ___lmul 0013  
                        ??___aldiv 0078                          ??___fladd 0020  
                           ___wmul 1E86                          ??___fldiv 0078  
                        ??___awdiv 0074                          ??___flneg 0074  
                        ??___awmod 0074                          ??___flmul 0038  
                        ??___flsub 007E                          ??___fltol 004E  
                 __end_of_initMain 1F62                             _memset 1001  
                 ___awdiv@quotient 0077                    ___awmod@divisor 0070  
                  ___awmod@counter 0075                             _strlen 1E39  
                           _strtof 0046                   __end_of_isxdigit 1F35  
                        ??_isdigit 0072                   __end_of_run_demo 10F2  
                        ??_toupper 0072                         ___flge@ff1 0070  
                       ___flge@ff2 0074                       ___xxtofl@arg 007A  
                     ?_print_float 0054                       ___xxtofl@exp 0079  
                     ___xxtofl@val 0070                         ___fleq@ff1 0070  
                       ___fleq@ff2 0074            __end_of__initialization 07FD  
                      ml_predict@i 0022                        ml_predict@x 0026  
                       ___flneg@f1 0070                     print_float@val 0054  
                       ___fltol@f1 004A                     __pcstackCOMMON 0070  
                     __pidataBANK1 0802                       __pidataBANK3 101C  
                       __pbssBANK1 00E3                         __pbssBANK2 0120  
             __end_of_EUSART_Write 1E07         classify_and_print@features 005F  
                __end_of__Umul8_16 1EE8                         __pmaintext 155C  
                          ?___flge 0070                            ?___fleq 0070  
                          ?___lmul 0070                            ?___wmul 0070  
                 ??_parse_features 0067                            ?_memset 0070  
                   ___lmul@product 0078                            ?_strlen 0070  
                          ?_strtof 004A                          ?___xxtofl 0070  
                          _PPSLOCK 0E0F                      run_demo@F6251 01A0  
                        ?_initMain 0070                          ?_isxdigit 0070  
     classify_and_print@prediction 005E                            ___aldiv 12ED  
                          ___fladd 0867                            ___fldiv 1656  
                          ___awdiv 0808                            ___flneg 0008  
                          ___awmod 104C                            ___flmul 0A73  
                          ___flsub 1EA5                            ___fltol 10F2  
                        ?_run_demo 0070                            __ptext1 109F  
                          __ptext2 1163                            __ptext3 1416  
                          __ptext4 10F2                            __ptext5 1EA5  
                          __ptext6 0867                            __ptext7 1EE8  
                          __ptext8 137D                            __ptext9 104C  
                       _ml_predict 0CAE                            _isdigit 1E51  
                       ??___xxtofl 0074                   ___awmod@dividend 0072  
                 ___aldiv@dividend 0074         __end_of_classify_and_print 11D8  
                          clrloop0 1DE9                            _toupper 1E28  
             end_of_initialization 07FD                     main@num_parsed 00D1  
                       ??_initMain 0070                            itoa@div 0025  
                          itoa@buf 0024                            init_ram 1DEE  
                          memset@c 0070                            memset@n 0072  
                          memset@p 0075                            itoa@num 0020  
                          initloop 1DEF                  _EUSART_Initialize 1FB0  
                       ??_isxdigit 0072                 ?_EUSART_Initialize 0026  
                 ___aldiv@quotient 0022                         ??_run_demo 0061  
               EUSART_Initialize@x 0079                            strlen@a 0073  
                          strlen@s 0074                ??_EUSART_Initialize 002A  
                          strtof@i 0064                            strtof@s 0065  
                      ___fladd@grs 007B                      ___xxtofl@sign 0078  
                        _TRISBbits 008D                        ___fldiv@grs 0027  
                      ___fldiv@rem 0020                    print_float@frac 0058  
                        _RXPPSbits 0E24                        ___flmul@grs 003E  
        __end_of_EUSART_Initialize 2000       __end_of_EUSART_Write_Integer 1F0C  
                   __end_of___flge 1262                     __end_of___fleq 1FB0  
                   __end_of___lmul 0046                     __end_of___wmul 1EA5  
                     _EUSART_Write 1DFD                     __end_of_memset 101C  
                      ?_ml_predict 0070                     __end_of_strlen 1E51  
                   __end_of_strtof 07D6                start_initialization 07D6  
EUSART_Write_Integer@value_to_send 007B                      ??_EUSART_Read 0070  
                _EUSART_Write_Text 1E69                 ?_EUSART_Write_Text 0071  
                         ??___flge 0078                           ??___fleq 0078  
                         ??___lmul 0078                           ??___wmul 0074  
                        __Umul8_16 1EC5                        __pdataBANK1 00E9  
                      __pdataBANK3 01A0                ??_EUSART_Write_Text 0073  
                         ??_memset 0074                         memset@dest 0076  
                         ??_strlen 0072                           ??_strtof 004E  
                  run_demo@samples 00A0                          ___fladd@a 0074  
                        ___fladd@b 0070                          ___fldiv@a 0070  
                        ___fldiv@b 0074                          ___flmul@a 0034  
                        ___flmul@b 0030                          ___flsub@a 0028  
                        ___flsub@b 002C                          ___latbits 0003  
                    __pcstackBANK0 0020                      __pcstackBANK1 00A0  
        __end_of_EUSART_Write_Text 1E86                __end_of_EUSART_Read 1E17  
                    ??_internal_32 0070                           ?___aldiv 0070  
                         ?___fladd 0070                           ?___fldiv 0070  
                         ?___awdiv 0070                           ?___flneg 0070  
                         ?___awmod 0070                           ?___flmul 0030  
                         ?___flsub 0028                           ?___fltol 004A  
                       ?__Umul8_16 0070          EUSART_Initialize@baudrate 0026  
                      _class_names 00E9                           ?_isdigit 0070  
             _EUSART_Write_Integer 1EE8                           ?_toupper 0070  
                  ___aldiv@divisor 0070                    ___aldiv@counter 0020  
                parse_features@ptr 006D                     ___wmul@product 0074  
                        clear_ram0 1DE8                 _classify_and_print 1163  
                         _PIR1bits 0011            EUSART_Write_Integer@ptr 003B  
              __end_of_internal_32 1DFD                ?_classify_and_print 0070  
             parse_features@buffer 0069                        strtof@digit 005A  
                      strtof@flags 005B                        strtof@expon 005C  
                        _rx_buffer 0120                  ___wmul@multiplier 0070  
            ?_EUSART_Write_Integer 007B                        _EUSART_Read 1E07  
             ??_classify_and_print 005C                  ___lmul@multiplier 0070  
                    ??_print_float 007E       EUSART_Write_Integer@temp_ptr 003C  
                     _isxdigit$724 0076                        ??__Umul8_16 0072  
                     ??_ml_predict 007C                         _ANSELBbits 018D  
                         ___xxtofl 14B2                           __ptext10 0808  
                         __ptext11 0CAE                           __ptext20 14B2  
                         __ptext12 1E69                           __ptext21 1E86  
                         __ptext13 1DFD                           __ptext30 1001  
                         __ptext22 0013                           __ptext14 1262  
                         __ptext31 1F35                           __ptext23 0008  
                         __ptext15 0046                           __ptext32 1DF4  
                         __ptext24 0A73                           __ptext16 1E28  
                         __ptext33 1E07                           __ptext25 1EC5  
                         __ptext17 1E17                           __ptext34 1FB0  
                         __ptext26 11D8                           __ptext18 1F0C  
                         __ptext35 12ED                           __ptext27 1F62  
                         __ptext19 1E51                           __ptext28 1656  
                         __ptext29 1E39                          isxdigit@c 0070  
                         _initMain 1F35                        _internal_32 1DF4  
               __end_of_ml_predict 1000                         _RB2PPSbits 0E9A  
                         _isxdigit 1F0C                __end_of_print_float 14B2  
                       _RC1STAbits 019D                parse_features@count 006C  
                       strtof@eexp 005E                         strtof@dpos 0059  
                       strtof@xpos 0058                parse_features@start 006A  
                         _rx_index 00E8                           _run_demo 109F  
           ??_EUSART_Write_Integer 007D                          run_demo@i 00D0  
                   __pstringtext10 20A8                     __pstringtext11 20B2  
                   __pstringtext20 20F8                     __pstringtext12 20BC  
                   __pstringtext21 20FC                     __pstringtext13 20C6  
                   __pstringtext22 2100                     __pstringtext14 20CF  
                   __pstringtext23 2104                     __pstringtext15 20D8  
                   __pstringtext24 2107                     __pstringtext16 20E1  
                   __pstringtext25 210A                     __pstringtext17 20E9  
                   __pstringtext26 0000                     __pstringtext18 20F0  
                   __pstringtext19 20F4                           isdigit@c 0070  
                         itoa@temp 0022                        _PPSLOCKbits 0E0F  
                        strtof@err 0056                          strtof@res 004A  
                    __pstringtext1 2000                      __pstringtext2 201D  
                    __pstringtext3 2039                      __pstringtext4 2050  
                    __pstringtext5 2066                      __pstringtext6 2077  
                    __pstringtext7 2084                      __pstringtext8 2091  
                    __pstringtext9 209D             __Umul8_16@multiplicand 0070  
           parse_features@features 0066             parse_features@end_char 006B  
                   _parse_features 1262                           toupper@c 0070  
            EUSART_Write_Text@text 0071                       ___aldiv@sign 0021  
                         strtof@_u 0060                      ___fladd@signs 0078  
               EUSART_Write@txData 0070                        _print_float 1416  
                     ___fladd@aexp 0079                       ___fladd@bexp 007A  
             __Umul8_16@multiplier 0078                 EUSART_Write_Text@i 0074  
                __Umul8_16@product 0074  
