

Microchip MPLAB XC8 Assembler V2.46 build 20240104201356 
                                                                                               Sun Dec 28 16:26:28 2025

Microchip MPLAB XC8 C Compiler v2.46 (Free license) build 20240104201356 Og1 
     1                           	processor	16F1718
     2                           	pagewidth 120
     3                           	opt	flic
     4                           	psect	stringtext1,global,class=STRCODE,delta=2,noexec
     5                           	psect	stringtext2,global,class=STRCODE,delta=2,noexec
     6                           	psect	stringtext3,global,class=STRCODE,delta=2,noexec
     7                           	psect	stringtext4,global,class=STRCODE,delta=2,noexec
     8                           	psect	cinit,global,class=CODE,merge=1,delta=2
     9                           	psect	clrtext,global,class=CODE,delta=2
    10                           	psect	cstackCOMMON,global,class=COMMON,space=1,delta=1,noexec
    11                           	psect	cstackBANK0,global,class=BANK0,space=1,delta=1,noexec
    12                           	psect	maintext,global,class=CODE,merge=1,split=1,delta=2
    13                           	psect	text1,local,class=CODE,merge=1,delta=2
    14                           	psect	text2,local,class=CODE,merge=1,delta=2
    15                           	psect	text3,local,class=CODE,merge=1,delta=2
    16                           	psect	text4,local,class=CODE,merge=1,delta=2,group=1
    17                           	psect	text5,local,class=CODE,merge=1,delta=2
    18                           	psect	text6,local,class=CODE,merge=1,delta=2
    19                           	psect	text7,local,class=CODE,merge=1,delta=2
    20                           	psect	text8,local,class=CODE,merge=1,delta=2,group=2
    21                           	psect	text9,local,class=CODE,merge=1,delta=2
    22                           	psect	text10,local,class=CODE,merge=1,delta=2
    23                           	psect	text11,local,class=CODE,merge=1,delta=2
    24                           	psect	text12,local,class=CODE,merge=1,delta=2
    25                           	psect	text13,local,class=CODE,merge=1,delta=2
    26                           	psect	text14,local,class=CODE,merge=1,delta=2
    27                           	psect	text15,local,class=CODE,merge=1,delta=2
    28                           	psect	text16,local,class=CODE,merge=1,delta=2
    29                           	psect	text17,local,class=CODE,merge=1,delta=2
    30                           	psect	text18,local,class=CODE,merge=1,delta=2
    31                           	psect	text19,local,class=CODE,merge=1,delta=2
    32                           	psect	text20,local,class=CODE,merge=1,delta=2
    33                           	psect	text21,local,class=CODE,merge=1,delta=2
    34                           	psect	text22,local,class=CODE,merge=1,delta=2
    35                           	psect	text23,local,class=CODE,merge=1,delta=2,group=1
    36                           	psect	text24,local,class=CODE,merge=1,delta=2,group=1
    37                           	psect	text25,local,class=CODE,merge=1,delta=2
    38                           	psect	text26,local,class=CODE,merge=1,delta=2
    39                           	psect	config,global,abs,ovrld,class=CONFIG,space=4,delta=2,noexec
    40                           	dabs	1,0xCA0,32
    41                           	dabs	1,0xC20,80
    42                           	dabs	1,0xBA0,80
    43                           	dabs	1,0xB30,64
    44                           	dabs	1,0xB20,16
    45                           	dabs	1,0xAA0,80
    46                           	dabs	1,0xA20,80
    47                           	dabs	1,0x9A0,80
    48                           	dabs	1,0x920,80
    49                           	dabs	1,0x8A0,80
    50                           	dabs	1,0x820,80
    51                           	dabs	1,0x7E0,16
    52                           	dabs	1,0x24F0,0,_screen_buffer
    53                           	dabs	1,0x26F0,0,OLED_Printf_Line@last_text
    54                           	dabs	1,0x7E,2
    55     0000                     
    56                           ; Generated 07/09/2023 GMT
    57                           ; 
    58                           ; Copyright © 2023, Microchip Technology Inc. and its subsidiaries ("Microchip")
    59                           ; All rights reserved.
    60                           ; 
    61                           ; This software is developed by Microchip Technology Inc. and its subsidiaries ("Microch
      +                          ip").
    62                           ; 
    63                           ; Redistribution and use in source and binary forms, with or without modification, are
    64                           ; permitted provided that the following conditions are met:
    65                           ; 
    66                           ;     1. Redistributions of source code must retain the above copyright notice, this lis
      +                          t of
    67                           ;        conditions and the following disclaimer.
    68                           ; 
    69                           ;     2. Redistributions in binary form must reproduce the above copyright notice, this 
      +                          list
    70                           ;        of conditions and the following disclaimer in the documentation and/or other
    71                           ;        materials provided with the distribution. Publication is not required when
    72                           ;        this file is used in an embedded application.
    73                           ; 
    74                           ;     3. Microchip's name may not be used to endorse or promote products derived from th
      +                          is
    75                           ;        software without specific prior written permission.
    76                           ; 
    77                           ; THIS SOFTWARE IS PROVIDED BY MICROCHIP "AS IS" AND ANY EXPRESS OR IMPLIED WARRANTIES,
    78                           ; INCLUDING, BUT NOT LIMITED TO, THE IMPLIED WARRANTIES OF MERCHANTABILITY AND FITNESS F
      +                          OR
    79                           ; PURPOSE ARE DISCLAIMED.  IN NO EVENT SHALL MICROCHIP BE LIABLE FOR ANY DIRECT, INDIREC
      +                          T,
    80                           ; INCIDENTAL, SPECIAL, EXEMPLARY, OR CONSEQUENTIAL DAMAGES (INCLUDING BUT NOT LIMITED TO
    81                           ; PROCUREMENT OF SUBSTITUTE GOODS OR SERVICES; LOSS OF USE, DATA OR PROFITS; OR BUSINESS
    82                           ; INTERRUPTION) HOWSOEVER CAUSED AND ON ANY THEORY OF LIABILITY, WHETHER IN CONTRACT, ST
      +                          RICT
    83                           ; LIABILITY, OR TORT (INCLUDING NEGLIGENCE OR OTHERWISE) ARISING IN ANY WAY OUT OF THE U
      +                          SE OF
    84                           ; THIS SOFTWARE, EVEN IF ADVISED OF THE POSSIBILITY OF SUCH DAMAGE.
    85                           ; 
    86                           ; 
    87                           ; Code-generator required, PIC16F1718 Definitions
    88                           ; 
    89                           ; SFR Addresses
    90     0000                     	;# 
    91     0001                     	;# 
    92     0002                     	;# 
    93     0003                     	;# 
    94     0004                     	;# 
    95     0005                     	;# 
    96     0006                     	;# 
    97     0007                     	;# 
    98     0008                     	;# 
    99     0009                     	;# 
   100     000A                     	;# 
   101     000B                     	;# 
   102     000C                     	;# 
   103     000D                     	;# 
   104     000E                     	;# 
   105     0010                     	;# 
   106     0011                     	;# 
   107     0012                     	;# 
   108     0013                     	;# 
   109     0015                     	;# 
   110     0016                     	;# 
   111     0016                     	;# 
   112     0017                     	;# 
   113     0018                     	;# 
   114     0019                     	;# 
   115     001A                     	;# 
   116     001B                     	;# 
   117     001C                     	;# 
   118     008C                     	;# 
   119     008D                     	;# 
   120     008E                     	;# 
   121     0090                     	;# 
   122     0091                     	;# 
   123     0092                     	;# 
   124     0093                     	;# 
   125     0095                     	;# 
   126     0096                     	;# 
   127     0097                     	;# 
   128     0098                     	;# 
   129     0099                     	;# 
   130     009A                     	;# 
   131     009B                     	;# 
   132     009B                     	;# 
   133     009C                     	;# 
   134     009D                     	;# 
   135     009E                     	;# 
   136     009F                     	;# 
   137     010C                     	;# 
   138     010D                     	;# 
   139     010E                     	;# 
   140     0111                     	;# 
   141     0112                     	;# 
   142     0113                     	;# 
   143     0114                     	;# 
   144     0115                     	;# 
   145     0116                     	;# 
   146     0117                     	;# 
   147     0118                     	;# 
   148     0119                     	;# 
   149     011A                     	;# 
   150     011B                     	;# 
   151     011B                     	;# 
   152     011C                     	;# 
   153     018C                     	;# 
   154     018D                     	;# 
   155     018E                     	;# 
   156     0191                     	;# 
   157     0191                     	;# 
   158     0192                     	;# 
   159     0193                     	;# 
   160     0193                     	;# 
   161     0194                     	;# 
   162     0195                     	;# 
   163     0196                     	;# 
   164     0197                     	;# 
   165     0199                     	;# 
   166     0199                     	;# 
   167     0199                     	;# 
   168     019A                     	;# 
   169     019A                     	;# 
   170     019A                     	;# 
   171     019B                     	;# 
   172     019B                     	;# 
   173     019B                     	;# 
   174     019B                     	;# 
   175     019B                     	;# 
   176     019C                     	;# 
   177     019C                     	;# 
   178     019C                     	;# 
   179     019D                     	;# 
   180     019D                     	;# 
   181     019D                     	;# 
   182     019E                     	;# 
   183     019E                     	;# 
   184     019E                     	;# 
   185     019F                     	;# 
   186     019F                     	;# 
   187     019F                     	;# 
   188     019F                     	;# 
   189     019F                     	;# 
   190     020C                     	;# 
   191     020D                     	;# 
   192     020E                     	;# 
   193     0210                     	;# 
   194     0211                     	;# 
   195     0211                     	;# 
   196     0212                     	;# 
   197     0212                     	;# 
   198     0213                     	;# 
   199     0213                     	;# 
   200     0214                     	;# 
   201     0214                     	;# 
   202     0215                     	;# 
   203     0215                     	;# 
   204     0215                     	;# 
   205     0215                     	;# 
   206     0216                     	;# 
   207     0216                     	;# 
   208     0217                     	;# 
   209     0217                     	;# 
   210     028C                     	;# 
   211     028D                     	;# 
   212     028E                     	;# 
   213     0291                     	;# 
   214     0291                     	;# 
   215     0292                     	;# 
   216     0293                     	;# 
   217     0293                     	;# 
   218     0298                     	;# 
   219     0298                     	;# 
   220     0299                     	;# 
   221     029A                     	;# 
   222     029A                     	;# 
   223     029E                     	;# 
   224     030C                     	;# 
   225     030D                     	;# 
   226     030E                     	;# 
   227     038C                     	;# 
   228     038D                     	;# 
   229     038E                     	;# 
   230     0390                     	;# 
   231     0391                     	;# 
   232     0392                     	;# 
   233     0393                     	;# 
   234     0394                     	;# 
   235     0395                     	;# 
   236     0396                     	;# 
   237     0397                     	;# 
   238     0398                     	;# 
   239     0399                     	;# 
   240     039D                     	;# 
   241     039E                     	;# 
   242     039F                     	;# 
   243     0415                     	;# 
   244     0416                     	;# 
   245     0417                     	;# 
   246     041C                     	;# 
   247     041D                     	;# 
   248     041E                     	;# 
   249     0498                     	;# 
   250     0498                     	;# 
   251     0499                     	;# 
   252     049A                     	;# 
   253     049B                     	;# 
   254     049B                     	;# 
   255     049C                     	;# 
   256     049D                     	;# 
   257     049E                     	;# 
   258     049F                     	;# 
   259     0511                     	;# 
   260     0515                     	;# 
   261     0617                     	;# 
   262     0618                     	;# 
   263     0619                     	;# 
   264     0619                     	;# 
   265     061A                     	;# 
   266     061B                     	;# 
   267     061C                     	;# 
   268     061C                     	;# 
   269     0691                     	;# 
   270     0692                     	;# 
   271     0693                     	;# 
   272     0694                     	;# 
   273     0695                     	;# 
   274     0696                     	;# 
   275     0697                     	;# 
   276     0698                     	;# 
   277     0699                     	;# 
   278     069A                     	;# 
   279     069B                     	;# 
   280     069C                     	;# 
   281     069D                     	;# 
   282     069E                     	;# 
   283     069F                     	;# 
   284     0E0F                     	;# 
   285     0E10                     	;# 
   286     0E11                     	;# 
   287     0E12                     	;# 
   288     0E13                     	;# 
   289     0E14                     	;# 
   290     0E15                     	;# 
   291     0E17                     	;# 
   292     0E20                     	;# 
   293     0E21                     	;# 
   294     0E22                     	;# 
   295     0E24                     	;# 
   296     0E25                     	;# 
   297     0E28                     	;# 
   298     0E29                     	;# 
   299     0E2A                     	;# 
   300     0E2B                     	;# 
   301     0E90                     	;# 
   302     0E91                     	;# 
   303     0E92                     	;# 
   304     0E93                     	;# 
   305     0E94                     	;# 
   306     0E95                     	;# 
   307     0E96                     	;# 
   308     0E97                     	;# 
   309     0E98                     	;# 
   310     0E99                     	;# 
   311     0E9A                     	;# 
   312     0E9B                     	;# 
   313     0E9C                     	;# 
   314     0E9D                     	;# 
   315     0E9E                     	;# 
   316     0E9F                     	;# 
   317     0EA0                     	;# 
   318     0EA1                     	;# 
   319     0EA2                     	;# 
   320     0EA3                     	;# 
   321     0EA4                     	;# 
   322     0EA5                     	;# 
   323     0EA6                     	;# 
   324     0EA7                     	;# 
   325     0F0F                     	;# 
   326     0F10                     	;# 
   327     0F11                     	;# 
   328     0F12                     	;# 
   329     0F13                     	;# 
   330     0F14                     	;# 
   331     0F15                     	;# 
   332     0F16                     	;# 
   333     0F17                     	;# 
   334     0F18                     	;# 
   335     0F19                     	;# 
   336     0F1A                     	;# 
   337     0F1B                     	;# 
   338     0F1C                     	;# 
   339     0F1D                     	;# 
   340     0F1E                     	;# 
   341     0F1F                     	;# 
   342     0F20                     	;# 
   343     0F21                     	;# 
   344     0F22                     	;# 
   345     0F23                     	;# 
   346     0F24                     	;# 
   347     0F25                     	;# 
   348     0F26                     	;# 
   349     0F27                     	;# 
   350     0F28                     	;# 
   351     0F29                     	;# 
   352     0F2A                     	;# 
   353     0F2B                     	;# 
   354     0F2C                     	;# 
   355     0F2D                     	;# 
   356     0F2E                     	;# 
   357     0F2F                     	;# 
   358     0F30                     	;# 
   359     0F31                     	;# 
   360     0F32                     	;# 
   361     0F33                     	;# 
   362     0F34                     	;# 
   363     0F35                     	;# 
   364     0F36                     	;# 
   365     0F37                     	;# 
   366     0FE4                     	;# 
   367     0FE5                     	;# 
   368     0FE6                     	;# 
   369     0FE7                     	;# 
   370     0FE8                     	;# 
   371     0FE9                     	;# 
   372     0FEA                     	;# 
   373     0FEB                     	;# 
   374     0FED                     	;# 
   375     0FEE                     	;# 
   376     0FEF                     	;# 
   377     0000                     	;# 
   378     0001                     	;# 
   379     0002                     	;# 
   380     0003                     	;# 
   381     0004                     	;# 
   382     0005                     	;# 
   383     0006                     	;# 
   384     0007                     	;# 
   385     0008                     	;# 
   386     0009                     	;# 
   387     000A                     	;# 
   388     000B                     	;# 
   389     000C                     	;# 
   390     000D                     	;# 
   391     000E                     	;# 
   392     0010                     	;# 
   393     0011                     	;# 
   394     0012                     	;# 
   395     0013                     	;# 
   396     0015                     	;# 
   397     0016                     	;# 
   398     0016                     	;# 
   399     0017                     	;# 
   400     0018                     	;# 
   401     0019                     	;# 
   402     001A                     	;# 
   403     001B                     	;# 
   404     001C                     	;# 
   405     008C                     	;# 
   406     008D                     	;# 
   407     008E                     	;# 
   408     0090                     	;# 
   409     0091                     	;# 
   410     0092                     	;# 
   411     0093                     	;# 
   412     0095                     	;# 
   413     0096                     	;# 
   414     0097                     	;# 
   415     0098                     	;# 
   416     0099                     	;# 
   417     009A                     	;# 
   418     009B                     	;# 
   419     009B                     	;# 
   420     009C                     	;# 
   421     009D                     	;# 
   422     009E                     	;# 
   423     009F                     	;# 
   424     010C                     	;# 
   425     010D                     	;# 
   426     010E                     	;# 
   427     0111                     	;# 
   428     0112                     	;# 
   429     0113                     	;# 
   430     0114                     	;# 
   431     0115                     	;# 
   432     0116                     	;# 
   433     0117                     	;# 
   434     0118                     	;# 
   435     0119                     	;# 
   436     011A                     	;# 
   437     011B                     	;# 
   438     011B                     	;# 
   439     011C                     	;# 
   440     018C                     	;# 
   441     018D                     	;# 
   442     018E                     	;# 
   443     0191                     	;# 
   444     0191                     	;# 
   445     0192                     	;# 
   446     0193                     	;# 
   447     0193                     	;# 
   448     0194                     	;# 
   449     0195                     	;# 
   450     0196                     	;# 
   451     0197                     	;# 
   452     0199                     	;# 
   453     0199                     	;# 
   454     0199                     	;# 
   455     019A                     	;# 
   456     019A                     	;# 
   457     019A                     	;# 
   458     019B                     	;# 
   459     019B                     	;# 
   460     019B                     	;# 
   461     019B                     	;# 
   462     019B                     	;# 
   463     019C                     	;# 
   464     019C                     	;# 
   465     019C                     	;# 
   466     019D                     	;# 
   467     019D                     	;# 
   468     019D                     	;# 
   469     019E                     	;# 
   470     019E                     	;# 
   471     019E                     	;# 
   472     019F                     	;# 
   473     019F                     	;# 
   474     019F                     	;# 
   475     019F                     	;# 
   476     019F                     	;# 
   477     020C                     	;# 
   478     020D                     	;# 
   479     020E                     	;# 
   480     0210                     	;# 
   481     0211                     	;# 
   482     0211                     	;# 
   483     0212                     	;# 
   484     0212                     	;# 
   485     0213                     	;# 
   486     0213                     	;# 
   487     0214                     	;# 
   488     0214                     	;# 
   489     0215                     	;# 
   490     0215                     	;# 
   491     0215                     	;# 
   492     0215                     	;# 
   493     0216                     	;# 
   494     0216                     	;# 
   495     0217                     	;# 
   496     0217                     	;# 
   497     028C                     	;# 
   498     028D                     	;# 
   499     028E                     	;# 
   500     0291                     	;# 
   501     0291                     	;# 
   502     0292                     	;# 
   503     0293                     	;# 
   504     0293                     	;# 
   505     0298                     	;# 
   506     0298                     	;# 
   507     0299                     	;# 
   508     029A                     	;# 
   509     029A                     	;# 
   510     029E                     	;# 
   511     030C                     	;# 
   512     030D                     	;# 
   513     030E                     	;# 
   514     038C                     	;# 
   515     038D                     	;# 
   516     038E                     	;# 
   517     0390                     	;# 
   518     0391                     	;# 
   519     0392                     	;# 
   520     0393                     	;# 
   521     0394                     	;# 
   522     0395                     	;# 
   523     0396                     	;# 
   524     0397                     	;# 
   525     0398                     	;# 
   526     0399                     	;# 
   527     039D                     	;# 
   528     039E                     	;# 
   529     039F                     	;# 
   530     0415                     	;# 
   531     0416                     	;# 
   532     0417                     	;# 
   533     041C                     	;# 
   534     041D                     	;# 
   535     041E                     	;# 
   536     0498                     	;# 
   537     0498                     	;# 
   538     0499                     	;# 
   539     049A                     	;# 
   540     049B                     	;# 
   541     049B                     	;# 
   542     049C                     	;# 
   543     049D                     	;# 
   544     049E                     	;# 
   545     049F                     	;# 
   546     0511                     	;# 
   547     0515                     	;# 
   548     0617                     	;# 
   549     0618                     	;# 
   550     0619                     	;# 
   551     0619                     	;# 
   552     061A                     	;# 
   553     061B                     	;# 
   554     061C                     	;# 
   555     061C                     	;# 
   556     0691                     	;# 
   557     0692                     	;# 
   558     0693                     	;# 
   559     0694                     	;# 
   560     0695                     	;# 
   561     0696                     	;# 
   562     0697                     	;# 
   563     0698                     	;# 
   564     0699                     	;# 
   565     069A                     	;# 
   566     069B                     	;# 
   567     069C                     	;# 
   568     069D                     	;# 
   569     069E                     	;# 
   570     069F                     	;# 
   571     0E0F                     	;# 
   572     0E10                     	;# 
   573     0E11                     	;# 
   574     0E12                     	;# 
   575     0E13                     	;# 
   576     0E14                     	;# 
   577     0E15                     	;# 
   578     0E17                     	;# 
   579     0E20                     	;# 
   580     0E21                     	;# 
   581     0E22                     	;# 
   582     0E24                     	;# 
   583     0E25                     	;# 
   584     0E28                     	;# 
   585     0E29                     	;# 
   586     0E2A                     	;# 
   587     0E2B                     	;# 
   588     0E90                     	;# 
   589     0E91                     	;# 
   590     0E92                     	;# 
   591     0E93                     	;# 
   592     0E94                     	;# 
   593     0E95                     	;# 
   594     0E96                     	;# 
   595     0E97                     	;# 
   596     0E98                     	;# 
   597     0E99                     	;# 
   598     0E9A                     	;# 
   599     0E9B                     	;# 
   600     0E9C                     	;# 
   601     0E9D                     	;# 
   602     0E9E                     	;# 
   603     0E9F                     	;# 
   604     0EA0                     	;# 
   605     0EA1                     	;# 
   606     0EA2                     	;# 
   607     0EA3                     	;# 
   608     0EA4                     	;# 
   609     0EA5                     	;# 
   610     0EA6                     	;# 
   611     0EA7                     	;# 
   612     0F0F                     	;# 
   613     0F10                     	;# 
   614     0F11                     	;# 
   615     0F12                     	;# 
   616     0F13                     	;# 
   617     0F14                     	;# 
   618     0F15                     	;# 
   619     0F16                     	;# 
   620     0F17                     	;# 
   621     0F18                     	;# 
   622     0F19                     	;# 
   623     0F1A                     	;# 
   624     0F1B                     	;# 
   625     0F1C                     	;# 
   626     0F1D                     	;# 
   627     0F1E                     	;# 
   628     0F1F                     	;# 
   629     0F20                     	;# 
   630     0F21                     	;# 
   631     0F22                     	;# 
   632     0F23                     	;# 
   633     0F24                     	;# 
   634     0F25                     	;# 
   635     0F26                     	;# 
   636     0F27                     	;# 
   637     0F28                     	;# 
   638     0F29                     	;# 
   639     0F2A                     	;# 
   640     0F2B                     	;# 
   641     0F2C                     	;# 
   642     0F2D                     	;# 
   643     0F2E                     	;# 
   644     0F2F                     	;# 
   645     0F30                     	;# 
   646     0F31                     	;# 
   647     0F32                     	;# 
   648     0F33                     	;# 
   649     0F34                     	;# 
   650     0F35                     	;# 
   651     0F36                     	;# 
   652     0F37                     	;# 
   653     0FE4                     	;# 
   654     0FE5                     	;# 
   655     0FE6                     	;# 
   656     0FE7                     	;# 
   657     0FE8                     	;# 
   658     0FE9                     	;# 
   659     0FEA                     	;# 
   660     0FEB                     	;# 
   661     0FED                     	;# 
   662     0FEE                     	;# 
   663     0FEF                     	;# 
   664     0000                     	;# 
   665     0001                     	;# 
   666     0002                     	;# 
   667     0003                     	;# 
   668     0004                     	;# 
   669     0005                     	;# 
   670     0006                     	;# 
   671     0007                     	;# 
   672     0008                     	;# 
   673     0009                     	;# 
   674     000A                     	;# 
   675     000B                     	;# 
   676     000C                     	;# 
   677     000D                     	;# 
   678     000E                     	;# 
   679     0010                     	;# 
   680     0011                     	;# 
   681     0012                     	;# 
   682     0013                     	;# 
   683     0015                     	;# 
   684     0016                     	;# 
   685     0016                     	;# 
   686     0017                     	;# 
   687     0018                     	;# 
   688     0019                     	;# 
   689     001A                     	;# 
   690     001B                     	;# 
   691     001C                     	;# 
   692     008C                     	;# 
   693     008D                     	;# 
   694     008E                     	;# 
   695     0090                     	;# 
   696     0091                     	;# 
   697     0092                     	;# 
   698     0093                     	;# 
   699     0095                     	;# 
   700     0096                     	;# 
   701     0097                     	;# 
   702     0098                     	;# 
   703     0099                     	;# 
   704     009A                     	;# 
   705     009B                     	;# 
   706     009B                     	;# 
   707     009C                     	;# 
   708     009D                     	;# 
   709     009E                     	;# 
   710     009F                     	;# 
   711     010C                     	;# 
   712     010D                     	;# 
   713     010E                     	;# 
   714     0111                     	;# 
   715     0112                     	;# 
   716     0113                     	;# 
   717     0114                     	;# 
   718     0115                     	;# 
   719     0116                     	;# 
   720     0117                     	;# 
   721     0118                     	;# 
   722     0119                     	;# 
   723     011A                     	;# 
   724     011B                     	;# 
   725     011B                     	;# 
   726     011C                     	;# 
   727     018C                     	;# 
   728     018D                     	;# 
   729     018E                     	;# 
   730     0191                     	;# 
   731     0191                     	;# 
   732     0192                     	;# 
   733     0193                     	;# 
   734     0193                     	;# 
   735     0194                     	;# 
   736     0195                     	;# 
   737     0196                     	;# 
   738     0197                     	;# 
   739     0199                     	;# 
   740     0199                     	;# 
   741     0199                     	;# 
   742     019A                     	;# 
   743     019A                     	;# 
   744     019A                     	;# 
   745     019B                     	;# 
   746     019B                     	;# 
   747     019B                     	;# 
   748     019B                     	;# 
   749     019B                     	;# 
   750     019C                     	;# 
   751     019C                     	;# 
   752     019C                     	;# 
   753     019D                     	;# 
   754     019D                     	;# 
   755     019D                     	;# 
   756     019E                     	;# 
   757     019E                     	;# 
   758     019E                     	;# 
   759     019F                     	;# 
   760     019F                     	;# 
   761     019F                     	;# 
   762     019F                     	;# 
   763     019F                     	;# 
   764     020C                     	;# 
   765     020D                     	;# 
   766     020E                     	;# 
   767     0210                     	;# 
   768     0211                     	;# 
   769     0211                     	;# 
   770     0212                     	;# 
   771     0212                     	;# 
   772     0213                     	;# 
   773     0213                     	;# 
   774     0214                     	;# 
   775     0214                     	;# 
   776     0215                     	;# 
   777     0215                     	;# 
   778     0215                     	;# 
   779     0215                     	;# 
   780     0216                     	;# 
   781     0216                     	;# 
   782     0217                     	;# 
   783     0217                     	;# 
   784     028C                     	;# 
   785     028D                     	;# 
   786     028E                     	;# 
   787     0291                     	;# 
   788     0291                     	;# 
   789     0292                     	;# 
   790     0293                     	;# 
   791     0293                     	;# 
   792     0298                     	;# 
   793     0298                     	;# 
   794     0299                     	;# 
   795     029A                     	;# 
   796     029A                     	;# 
   797     029E                     	;# 
   798     030C                     	;# 
   799     030D                     	;# 
   800     030E                     	;# 
   801     038C                     	;# 
   802     038D                     	;# 
   803     038E                     	;# 
   804     0390                     	;# 
   805     0391                     	;# 
   806     0392                     	;# 
   807     0393                     	;# 
   808     0394                     	;# 
   809     0395                     	;# 
   810     0396                     	;# 
   811     0397                     	;# 
   812     0398                     	;# 
   813     0399                     	;# 
   814     039D                     	;# 
   815     039E                     	;# 
   816     039F                     	;# 
   817     0415                     	;# 
   818     0416                     	;# 
   819     0417                     	;# 
   820     041C                     	;# 
   821     041D                     	;# 
   822     041E                     	;# 
   823     0498                     	;# 
   824     0498                     	;# 
   825     0499                     	;# 
   826     049A                     	;# 
   827     049B                     	;# 
   828     049B                     	;# 
   829     049C                     	;# 
   830     049D                     	;# 
   831     049E                     	;# 
   832     049F                     	;# 
   833     0511                     	;# 
   834     0515                     	;# 
   835     0617                     	;# 
   836     0618                     	;# 
   837     0619                     	;# 
   838     0619                     	;# 
   839     061A                     	;# 
   840     061B                     	;# 
   841     061C                     	;# 
   842     061C                     	;# 
   843     0691                     	;# 
   844     0692                     	;# 
   845     0693                     	;# 
   846     0694                     	;# 
   847     0695                     	;# 
   848     0696                     	;# 
   849     0697                     	;# 
   850     0698                     	;# 
   851     0699                     	;# 
   852     069A                     	;# 
   853     069B                     	;# 
   854     069C                     	;# 
   855     069D                     	;# 
   856     069E                     	;# 
   857     069F                     	;# 
   858     0E0F                     	;# 
   859     0E10                     	;# 
   860     0E11                     	;# 
   861     0E12                     	;# 
   862     0E13                     	;# 
   863     0E14                     	;# 
   864     0E15                     	;# 
   865     0E17                     	;# 
   866     0E20                     	;# 
   867     0E21                     	;# 
   868     0E22                     	;# 
   869     0E24                     	;# 
   870     0E25                     	;# 
   871     0E28                     	;# 
   872     0E29                     	;# 
   873     0E2A                     	;# 
   874     0E2B                     	;# 
   875     0E90                     	;# 
   876     0E91                     	;# 
   877     0E92                     	;# 
   878     0E93                     	;# 
   879     0E94                     	;# 
   880     0E95                     	;# 
   881     0E96                     	;# 
   882     0E97                     	;# 
   883     0E98                     	;# 
   884     0E99                     	;# 
   885     0E9A                     	;# 
   886     0E9B                     	;# 
   887     0E9C                     	;# 
   888     0E9D                     	;# 
   889     0E9E                     	;# 
   890     0E9F                     	;# 
   891     0EA0                     	;# 
   892     0EA1                     	;# 
   893     0EA2                     	;# 
   894     0EA3                     	;# 
   895     0EA4                     	;# 
   896     0EA5                     	;# 
   897     0EA6                     	;# 
   898     0EA7                     	;# 
   899     0F0F                     	;# 
   900     0F10                     	;# 
   901     0F11                     	;# 
   902     0F12                     	;# 
   903     0F13                     	;# 
   904     0F14                     	;# 
   905     0F15                     	;# 
   906     0F16                     	;# 
   907     0F17                     	;# 
   908     0F18                     	;# 
   909     0F19                     	;# 
   910     0F1A                     	;# 
   911     0F1B                     	;# 
   912     0F1C                     	;# 
   913     0F1D                     	;# 
   914     0F1E                     	;# 
   915     0F1F                     	;# 
   916     0F20                     	;# 
   917     0F21                     	;# 
   918     0F22                     	;# 
   919     0F23                     	;# 
   920     0F24                     	;# 
   921     0F25                     	;# 
   922     0F26                     	;# 
   923     0F27                     	;# 
   924     0F28                     	;# 
   925     0F29                     	;# 
   926     0F2A                     	;# 
   927     0F2B                     	;# 
   928     0F2C                     	;# 
   929     0F2D                     	;# 
   930     0F2E                     	;# 
   931     0F2F                     	;# 
   932     0F30                     	;# 
   933     0F31                     	;# 
   934     0F32                     	;# 
   935     0F33                     	;# 
   936     0F34                     	;# 
   937     0F35                     	;# 
   938     0F36                     	;# 
   939     0F37                     	;# 
   940     0FE4                     	;# 
   941     0FE5                     	;# 
   942     0FE6                     	;# 
   943     0FE7                     	;# 
   944     0FE8                     	;# 
   945     0FE9                     	;# 
   946     0FEA                     	;# 
   947     0FEB                     	;# 
   948     0FED                     	;# 
   949     0FEE                     	;# 
   950     0FEF                     	;# 
   951     0000                     	;# 
   952     0001                     	;# 
   953     0002                     	;# 
   954     0003                     	;# 
   955     0004                     	;# 
   956     0005                     	;# 
   957     0006                     	;# 
   958     0007                     	;# 
   959     0008                     	;# 
   960     0009                     	;# 
   961     000A                     	;# 
   962     000B                     	;# 
   963     000C                     	;# 
   964     000D                     	;# 
   965     000E                     	;# 
   966     0010                     	;# 
   967     0011                     	;# 
   968     0012                     	;# 
   969     0013                     	;# 
   970     0015                     	;# 
   971     0016                     	;# 
   972     0016                     	;# 
   973     0017                     	;# 
   974     0018                     	;# 
   975     0019                     	;# 
   976     001A                     	;# 
   977     001B                     	;# 
   978     001C                     	;# 
   979     008C                     	;# 
   980     008D                     	;# 
   981     008E                     	;# 
   982     0090                     	;# 
   983     0091                     	;# 
   984     0092                     	;# 
   985     0093                     	;# 
   986     0095                     	;# 
   987     0096                     	;# 
   988     0097                     	;# 
   989     0098                     	;# 
   990     0099                     	;# 
   991     009A                     	;# 
   992     009B                     	;# 
   993     009B                     	;# 
   994     009C                     	;# 
   995     009D                     	;# 
   996     009E                     	;# 
   997     009F                     	;# 
   998     010C                     	;# 
   999     010D                     	;# 
  1000     010E                     	;# 
  1001     0111                     	;# 
  1002     0112                     	;# 
  1003     0113                     	;# 
  1004     0114                     	;# 
  1005     0115                     	;# 
  1006     0116                     	;# 
  1007     0117                     	;# 
  1008     0118                     	;# 
  1009     0119                     	;# 
  1010     011A                     	;# 
  1011     011B                     	;# 
  1012     011B                     	;# 
  1013     011C                     	;# 
  1014     018C                     	;# 
  1015     018D                     	;# 
  1016     018E                     	;# 
  1017     0191                     	;# 
  1018     0191                     	;# 
  1019     0192                     	;# 
  1020     0193                     	;# 
  1021     0193                     	;# 
  1022     0194                     	;# 
  1023     0195                     	;# 
  1024     0196                     	;# 
  1025     0197                     	;# 
  1026     0199                     	;# 
  1027     0199                     	;# 
  1028     0199                     	;# 
  1029     019A                     	;# 
  1030     019A                     	;# 
  1031     019A                     	;# 
  1032     019B                     	;# 
  1033     019B                     	;# 
  1034     019B                     	;# 
  1035     019B                     	;# 
  1036     019B                     	;# 
  1037     019C                     	;# 
  1038     019C                     	;# 
  1039     019C                     	;# 
  1040     019D                     	;# 
  1041     019D                     	;# 
  1042     019D                     	;# 
  1043     019E                     	;# 
  1044     019E                     	;# 
  1045     019E                     	;# 
  1046     019F                     	;# 
  1047     019F                     	;# 
  1048     019F                     	;# 
  1049     019F                     	;# 
  1050     019F                     	;# 
  1051     020C                     	;# 
  1052     020D                     	;# 
  1053     020E                     	;# 
  1054     0210                     	;# 
  1055     0211                     	;# 
  1056     0211                     	;# 
  1057     0212                     	;# 
  1058     0212                     	;# 
  1059     0213                     	;# 
  1060     0213                     	;# 
  1061     0214                     	;# 
  1062     0214                     	;# 
  1063     0215                     	;# 
  1064     0215                     	;# 
  1065     0215                     	;# 
  1066     0215                     	;# 
  1067     0216                     	;# 
  1068     0216                     	;# 
  1069     0217                     	;# 
  1070     0217                     	;# 
  1071     028C                     	;# 
  1072     028D                     	;# 
  1073     028E                     	;# 
  1074     0291                     	;# 
  1075     0291                     	;# 
  1076     0292                     	;# 
  1077     0293                     	;# 
  1078     0293                     	;# 
  1079     0298                     	;# 
  1080     0298                     	;# 
  1081     0299                     	;# 
  1082     029A                     	;# 
  1083     029A                     	;# 
  1084     029E                     	;# 
  1085     030C                     	;# 
  1086     030D                     	;# 
  1087     030E                     	;# 
  1088     038C                     	;# 
  1089     038D                     	;# 
  1090     038E                     	;# 
  1091     0390                     	;# 
  1092     0391                     	;# 
  1093     0392                     	;# 
  1094     0393                     	;# 
  1095     0394                     	;# 
  1096     0395                     	;# 
  1097     0396                     	;# 
  1098     0397                     	;# 
  1099     0398                     	;# 
  1100     0399                     	;# 
  1101     039D                     	;# 
  1102     039E                     	;# 
  1103     039F                     	;# 
  1104     0415                     	;# 
  1105     0416                     	;# 
  1106     0417                     	;# 
  1107     041C                     	;# 
  1108     041D                     	;# 
  1109     041E                     	;# 
  1110     0498                     	;# 
  1111     0498                     	;# 
  1112     0499                     	;# 
  1113     049A                     	;# 
  1114     049B                     	;# 
  1115     049B                     	;# 
  1116     049C                     	;# 
  1117     049D                     	;# 
  1118     049E                     	;# 
  1119     049F                     	;# 
  1120     0511                     	;# 
  1121     0515                     	;# 
  1122     0617                     	;# 
  1123     0618                     	;# 
  1124     0619                     	;# 
  1125     0619                     	;# 
  1126     061A                     	;# 
  1127     061B                     	;# 
  1128     061C                     	;# 
  1129     061C                     	;# 
  1130     0691                     	;# 
  1131     0692                     	;# 
  1132     0693                     	;# 
  1133     0694                     	;# 
  1134     0695                     	;# 
  1135     0696                     	;# 
  1136     0697                     	;# 
  1137     0698                     	;# 
  1138     0699                     	;# 
  1139     069A                     	;# 
  1140     069B                     	;# 
  1141     069C                     	;# 
  1142     069D                     	;# 
  1143     069E                     	;# 
  1144     069F                     	;# 
  1145     0E0F                     	;# 
  1146     0E10                     	;# 
  1147     0E11                     	;# 
  1148     0E12                     	;# 
  1149     0E13                     	;# 
  1150     0E14                     	;# 
  1151     0E15                     	;# 
  1152     0E17                     	;# 
  1153     0E20                     	;# 
  1154     0E21                     	;# 
  1155     0E22                     	;# 
  1156     0E24                     	;# 
  1157     0E25                     	;# 
  1158     0E28                     	;# 
  1159     0E29                     	;# 
  1160     0E2A                     	;# 
  1161     0E2B                     	;# 
  1162     0E90                     	;# 
  1163     0E91                     	;# 
  1164     0E92                     	;# 
  1165     0E93                     	;# 
  1166     0E94                     	;# 
  1167     0E95                     	;# 
  1168     0E96                     	;# 
  1169     0E97                     	;# 
  1170     0E98                     	;# 
  1171     0E99                     	;# 
  1172     0E9A                     	;# 
  1173     0E9B                     	;# 
  1174     0E9C                     	;# 
  1175     0E9D                     	;# 
  1176     0E9E                     	;# 
  1177     0E9F                     	;# 
  1178     0EA0                     	;# 
  1179     0EA1                     	;# 
  1180     0EA2                     	;# 
  1181     0EA3                     	;# 
  1182     0EA4                     	;# 
  1183     0EA5                     	;# 
  1184     0EA6                     	;# 
  1185     0EA7                     	;# 
  1186     0F0F                     	;# 
  1187     0F10                     	;# 
  1188     0F11                     	;# 
  1189     0F12                     	;# 
  1190     0F13                     	;# 
  1191     0F14                     	;# 
  1192     0F15                     	;# 
  1193     0F16                     	;# 
  1194     0F17                     	;# 
  1195     0F18                     	;# 
  1196     0F19                     	;# 
  1197     0F1A                     	;# 
  1198     0F1B                     	;# 
  1199     0F1C                     	;# 
  1200     0F1D                     	;# 
  1201     0F1E                     	;# 
  1202     0F1F                     	;# 
  1203     0F20                     	;# 
  1204     0F21                     	;# 
  1205     0F22                     	;# 
  1206     0F23                     	;# 
  1207     0F24                     	;# 
  1208     0F25                     	;# 
  1209     0F26                     	;# 
  1210     0F27                     	;# 
  1211     0F28                     	;# 
  1212     0F29                     	;# 
  1213     0F2A                     	;# 
  1214     0F2B                     	;# 
  1215     0F2C                     	;# 
  1216     0F2D                     	;# 
  1217     0F2E                     	;# 
  1218     0F2F                     	;# 
  1219     0F30                     	;# 
  1220     0F31                     	;# 
  1221     0F32                     	;# 
  1222     0F33                     	;# 
  1223     0F34                     	;# 
  1224     0F35                     	;# 
  1225     0F36                     	;# 
  1226     0F37                     	;# 
  1227     0FE4                     	;# 
  1228     0FE5                     	;# 
  1229     0FE6                     	;# 
  1230     0FE7                     	;# 
  1231     0FE8                     	;# 
  1232     0FE9                     	;# 
  1233     0FEA                     	;# 
  1234     0FEB                     	;# 
  1235     0FED                     	;# 
  1236     0FEE                     	;# 
  1237     0FEF                     	;# 
  1238     0000                     	;# 
  1239     0001                     	;# 
  1240     0002                     	;# 
  1241     0003                     	;# 
  1242     0004                     	;# 
  1243     0005                     	;# 
  1244     0006                     	;# 
  1245     0007                     	;# 
  1246     0008                     	;# 
  1247     0009                     	;# 
  1248     000A                     	;# 
  1249     000B                     	;# 
  1250     000C                     	;# 
  1251     000D                     	;# 
  1252     000E                     	;# 
  1253     0010                     	;# 
  1254     0011                     	;# 
  1255     0012                     	;# 
  1256     0013                     	;# 
  1257     0015                     	;# 
  1258     0016                     	;# 
  1259     0016                     	;# 
  1260     0017                     	;# 
  1261     0018                     	;# 
  1262     0019                     	;# 
  1263     001A                     	;# 
  1264     001B                     	;# 
  1265     001C                     	;# 
  1266     008C                     	;# 
  1267     008D                     	;# 
  1268     008E                     	;# 
  1269     0090                     	;# 
  1270     0091                     	;# 
  1271     0092                     	;# 
  1272     0093                     	;# 
  1273     0095                     	;# 
  1274     0096                     	;# 
  1275     0097                     	;# 
  1276     0098                     	;# 
  1277     0099                     	;# 
  1278     009A                     	;# 
  1279     009B                     	;# 
  1280     009B                     	;# 
  1281     009C                     	;# 
  1282     009D                     	;# 
  1283     009E                     	;# 
  1284     009F                     	;# 
  1285     010C                     	;# 
  1286     010D                     	;# 
  1287     010E                     	;# 
  1288     0111                     	;# 
  1289     0112                     	;# 
  1290     0113                     	;# 
  1291     0114                     	;# 
  1292     0115                     	;# 
  1293     0116                     	;# 
  1294     0117                     	;# 
  1295     0118                     	;# 
  1296     0119                     	;# 
  1297     011A                     	;# 
  1298     011B                     	;# 
  1299     011B                     	;# 
  1300     011C                     	;# 
  1301     018C                     	;# 
  1302     018D                     	;# 
  1303     018E                     	;# 
  1304     0191                     	;# 
  1305     0191                     	;# 
  1306     0192                     	;# 
  1307     0193                     	;# 
  1308     0193                     	;# 
  1309     0194                     	;# 
  1310     0195                     	;# 
  1311     0196                     	;# 
  1312     0197                     	;# 
  1313     0199                     	;# 
  1314     0199                     	;# 
  1315     0199                     	;# 
  1316     019A                     	;# 
  1317     019A                     	;# 
  1318     019A                     	;# 
  1319     019B                     	;# 
  1320     019B                     	;# 
  1321     019B                     	;# 
  1322     019B                     	;# 
  1323     019B                     	;# 
  1324     019C                     	;# 
  1325     019C                     	;# 
  1326     019C                     	;# 
  1327     019D                     	;# 
  1328     019D                     	;# 
  1329     019D                     	;# 
  1330     019E                     	;# 
  1331     019E                     	;# 
  1332     019E                     	;# 
  1333     019F                     	;# 
  1334     019F                     	;# 
  1335     019F                     	;# 
  1336     019F                     	;# 
  1337     019F                     	;# 
  1338     020C                     	;# 
  1339     020D                     	;# 
  1340     020E                     	;# 
  1341     0210                     	;# 
  1342     0211                     	;# 
  1343     0211                     	;# 
  1344     0212                     	;# 
  1345     0212                     	;# 
  1346     0213                     	;# 
  1347     0213                     	;# 
  1348     0214                     	;# 
  1349     0214                     	;# 
  1350     0215                     	;# 
  1351     0215                     	;# 
  1352     0215                     	;# 
  1353     0215                     	;# 
  1354     0216                     	;# 
  1355     0216                     	;# 
  1356     0217                     	;# 
  1357     0217                     	;# 
  1358     028C                     	;# 
  1359     028D                     	;# 
  1360     028E                     	;# 
  1361     0291                     	;# 
  1362     0291                     	;# 
  1363     0292                     	;# 
  1364     0293                     	;# 
  1365     0293                     	;# 
  1366     0298                     	;# 
  1367     0298                     	;# 
  1368     0299                     	;# 
  1369     029A                     	;# 
  1370     029A                     	;# 
  1371     029E                     	;# 
  1372     030C                     	;# 
  1373     030D                     	;# 
  1374     030E                     	;# 
  1375     038C                     	;# 
  1376     038D                     	;# 
  1377     038E                     	;# 
  1378     0390                     	;# 
  1379     0391                     	;# 
  1380     0392                     	;# 
  1381     0393                     	;# 
  1382     0394                     	;# 
  1383     0395                     	;# 
  1384     0396                     	;# 
  1385     0397                     	;# 
  1386     0398                     	;# 
  1387     0399                     	;# 
  1388     039D                     	;# 
  1389     039E                     	;# 
  1390     039F                     	;# 
  1391     0415                     	;# 
  1392     0416                     	;# 
  1393     0417                     	;# 
  1394     041C                     	;# 
  1395     041D                     	;# 
  1396     041E                     	;# 
  1397     0498                     	;# 
  1398     0498                     	;# 
  1399     0499                     	;# 
  1400     049A                     	;# 
  1401     049B                     	;# 
  1402     049B                     	;# 
  1403     049C                     	;# 
  1404     049D                     	;# 
  1405     049E                     	;# 
  1406     049F                     	;# 
  1407     0511                     	;# 
  1408     0515                     	;# 
  1409     0617                     	;# 
  1410     0618                     	;# 
  1411     0619                     	;# 
  1412     0619                     	;# 
  1413     061A                     	;# 
  1414     061B                     	;# 
  1415     061C                     	;# 
  1416     061C                     	;# 
  1417     0691                     	;# 
  1418     0692                     	;# 
  1419     0693                     	;# 
  1420     0694                     	;# 
  1421     0695                     	;# 
  1422     0696                     	;# 
  1423     0697                     	;# 
  1424     0698                     	;# 
  1425     0699                     	;# 
  1426     069A                     	;# 
  1427     069B                     	;# 
  1428     069C                     	;# 
  1429     069D                     	;# 
  1430     069E                     	;# 
  1431     069F                     	;# 
  1432     0E0F                     	;# 
  1433     0E10                     	;# 
  1434     0E11                     	;# 
  1435     0E12                     	;# 
  1436     0E13                     	;# 
  1437     0E14                     	;# 
  1438     0E15                     	;# 
  1439     0E17                     	;# 
  1440     0E20                     	;# 
  1441     0E21                     	;# 
  1442     0E22                     	;# 
  1443     0E24                     	;# 
  1444     0E25                     	;# 
  1445     0E28                     	;# 
  1446     0E29                     	;# 
  1447     0E2A                     	;# 
  1448     0E2B                     	;# 
  1449     0E90                     	;# 
  1450     0E91                     	;# 
  1451     0E92                     	;# 
  1452     0E93                     	;# 
  1453     0E94                     	;# 
  1454     0E95                     	;# 
  1455     0E96                     	;# 
  1456     0E97                     	;# 
  1457     0E98                     	;# 
  1458     0E99                     	;# 
  1459     0E9A                     	;# 
  1460     0E9B                     	;# 
  1461     0E9C                     	;# 
  1462     0E9D                     	;# 
  1463     0E9E                     	;# 
  1464     0E9F                     	;# 
  1465     0EA0                     	;# 
  1466     0EA1                     	;# 
  1467     0EA2                     	;# 
  1468     0EA3                     	;# 
  1469     0EA4                     	;# 
  1470     0EA5                     	;# 
  1471     0EA6                     	;# 
  1472     0EA7                     	;# 
  1473     0F0F                     	;# 
  1474     0F10                     	;# 
  1475     0F11                     	;# 
  1476     0F12                     	;# 
  1477     0F13                     	;# 
  1478     0F14                     	;# 
  1479     0F15                     	;# 
  1480     0F16                     	;# 
  1481     0F17                     	;# 
  1482     0F18                     	;# 
  1483     0F19                     	;# 
  1484     0F1A                     	;# 
  1485     0F1B                     	;# 
  1486     0F1C                     	;# 
  1487     0F1D                     	;# 
  1488     0F1E                     	;# 
  1489     0F1F                     	;# 
  1490     0F20                     	;# 
  1491     0F21                     	;# 
  1492     0F22                     	;# 
  1493     0F23                     	;# 
  1494     0F24                     	;# 
  1495     0F25                     	;# 
  1496     0F26                     	;# 
  1497     0F27                     	;# 
  1498     0F28                     	;# 
  1499     0F29                     	;# 
  1500     0F2A                     	;# 
  1501     0F2B                     	;# 
  1502     0F2C                     	;# 
  1503     0F2D                     	;# 
  1504     0F2E                     	;# 
  1505     0F2F                     	;# 
  1506     0F30                     	;# 
  1507     0F31                     	;# 
  1508     0F32                     	;# 
  1509     0F33                     	;# 
  1510     0F34                     	;# 
  1511     0F35                     	;# 
  1512     0F36                     	;# 
  1513     0F37                     	;# 
  1514     0FE4                     	;# 
  1515     0FE5                     	;# 
  1516     0FE6                     	;# 
  1517     0FE7                     	;# 
  1518     0FE8                     	;# 
  1519     0FE9                     	;# 
  1520     0FEA                     	;# 
  1521     0FEB                     	;# 
  1522     0FED                     	;# 
  1523     0FEE                     	;# 
  1524     0FEF                     	;_screen_buffer
  1525                           
  1526                           	psect	stringtext1
  1527     0B86                     __pstringtext1:
  1528     0B86                     _BatteryIcon:
  1529     0B86  34FF               	retlw	255
  1530     0B87  3481               	retlw	129
  1531     0B88  34BD               	retlw	189
  1532     0B89  34BD               	retlw	189
  1533     0B8A  34BD               	retlw	189
  1534     0B8B  3481               	retlw	129
  1535     0B8C  34FF               	retlw	255
  1536     0B8D  3418               	retlw	24
  1537     0B8E  3400               	retlw	0
  1538     0B8F  3400               	retlw	0
  1539     0B90                     __end_of_BatteryIcon:
  1540                           
  1541                           	psect	stringtext2
  1542     0800                     __pstringtext2:
  1543     0800                     _OledFont:
  1544     0800  3400               	retlw	0
  1545     0801  3400               	retlw	0
  1546     0802  3400               	retlw	0
  1547     0803  3400               	retlw	0
  1548     0804  3400               	retlw	0
  1549     0805  3400               	retlw	0
  1550     0806  3400               	retlw	0
  1551     0807  3400               	retlw	0
  1552     0808  3400               	retlw	0
  1553     0809  3400               	retlw	0
  1554     080A  345F               	retlw	95
  1555     080B  3400               	retlw	0
  1556     080C  3400               	retlw	0
  1557     080D  3400               	retlw	0
  1558     080E  3400               	retlw	0
  1559     080F  3400               	retlw	0
  1560     0810  3400               	retlw	0
  1561     0811  3400               	retlw	0
  1562     0812  3407               	retlw	7
  1563     0813  3400               	retlw	0
  1564     0814  3407               	retlw	7
  1565     0815  3400               	retlw	0
  1566     0816  3400               	retlw	0
  1567     0817  3400               	retlw	0
  1568     0818  3400               	retlw	0
  1569     0819  3414               	retlw	20
  1570     081A  347F               	retlw	127
  1571     081B  3414               	retlw	20
  1572     081C  347F               	retlw	127
  1573     081D  3414               	retlw	20
  1574     081E  3400               	retlw	0
  1575     081F  3400               	retlw	0
  1576     0820  3400               	retlw	0
  1577     0821  3424               	retlw	36
  1578     0822  342A               	retlw	42
  1579     0823  347F               	retlw	127
  1580     0824  342A               	retlw	42
  1581     0825  3412               	retlw	18
  1582     0826  3400               	retlw	0
  1583     0827  3400               	retlw	0
  1584     0828  3400               	retlw	0
  1585     0829  3423               	retlw	35
  1586     082A  3413               	retlw	19
  1587     082B  3408               	retlw	8
  1588     082C  3464               	retlw	100
  1589     082D  3462               	retlw	98
  1590     082E  3400               	retlw	0
  1591     082F  3400               	retlw	0
  1592     0830  3400               	retlw	0
  1593     0831  3436               	retlw	54
  1594     0832  3449               	retlw	73
  1595     0833  3455               	retlw	85
  1596     0834  3422               	retlw	34
  1597     0835  3450               	retlw	80
  1598     0836  3400               	retlw	0
  1599     0837  3400               	retlw	0
  1600     0838  3400               	retlw	0
  1601     0839  3400               	retlw	0
  1602     083A  3405               	retlw	5
  1603     083B  3403               	retlw	3
  1604     083C  3400               	retlw	0
  1605     083D  3400               	retlw	0
  1606     083E  3400               	retlw	0
  1607     083F  3400               	retlw	0
  1608     0840  3400               	retlw	0
  1609     0841  341C               	retlw	28
  1610     0842  3422               	retlw	34
  1611     0843  3441               	retlw	65
  1612     0844  3400               	retlw	0
  1613     0845  3400               	retlw	0
  1614     0846  3400               	retlw	0
  1615     0847  3400               	retlw	0
  1616     0848  3400               	retlw	0
  1617     0849  3441               	retlw	65
  1618     084A  3422               	retlw	34
  1619     084B  341C               	retlw	28
  1620     084C  3400               	retlw	0
  1621     084D  3400               	retlw	0
  1622     084E  3400               	retlw	0
  1623     084F  3400               	retlw	0
  1624     0850  3400               	retlw	0
  1625     0851  3408               	retlw	8
  1626     0852  342A               	retlw	42
  1627     0853  341C               	retlw	28
  1628     0854  342A               	retlw	42
  1629     0855  3408               	retlw	8
  1630     0856  3400               	retlw	0
  1631     0857  3400               	retlw	0
  1632     0858  3400               	retlw	0
  1633     0859  3408               	retlw	8
  1634     085A  3408               	retlw	8
  1635     085B  343E               	retlw	62
  1636     085C  3408               	retlw	8
  1637     085D  3408               	retlw	8
  1638     085E  3400               	retlw	0
  1639     085F  3400               	retlw	0
  1640     0860  3400               	retlw	0
  1641     0861  34A0               	retlw	160
  1642     0862  3460               	retlw	96
  1643     0863  3400               	retlw	0
  1644     0864  3400               	retlw	0
  1645     0865  3400               	retlw	0
  1646     0866  3400               	retlw	0
  1647     0867  3400               	retlw	0
  1648     0868  3400               	retlw	0
  1649     0869  3408               	retlw	8
  1650     086A  3408               	retlw	8
  1651     086B  3408               	retlw	8
  1652     086C  3408               	retlw	8
  1653     086D  3408               	retlw	8
  1654     086E  3400               	retlw	0
  1655     086F  3400               	retlw	0
  1656     0870  3400               	retlw	0
  1657     0871  3460               	retlw	96
  1658     0872  3460               	retlw	96
  1659     0873  3400               	retlw	0
  1660     0874  3400               	retlw	0
  1661     0875  3400               	retlw	0
  1662     0876  3400               	retlw	0
  1663     0877  3400               	retlw	0
  1664     0878  3400               	retlw	0
  1665     0879  3420               	retlw	32
  1666     087A  3410               	retlw	16
  1667     087B  3408               	retlw	8
  1668     087C  3404               	retlw	4
  1669     087D  3402               	retlw	2
  1670     087E  3400               	retlw	0
  1671     087F  3400               	retlw	0
  1672     0880  3400               	retlw	0
  1673     0881  343E               	retlw	62
  1674     0882  3451               	retlw	81
  1675     0883  3449               	retlw	73
  1676     0884  3445               	retlw	69
  1677     0885  343E               	retlw	62
  1678     0886  3400               	retlw	0
  1679     0887  3400               	retlw	0
  1680     0888  3400               	retlw	0
  1681     0889  3400               	retlw	0
  1682     088A  3442               	retlw	66
  1683     088B  347F               	retlw	127
  1684     088C  3440               	retlw	64
  1685     088D  3400               	retlw	0
  1686     088E  3400               	retlw	0
  1687     088F  3400               	retlw	0
  1688     0890  3400               	retlw	0
  1689     0891  3462               	retlw	98
  1690     0892  3451               	retlw	81
  1691     0893  3449               	retlw	73
  1692     0894  3449               	retlw	73
  1693     0895  3446               	retlw	70
  1694     0896  3400               	retlw	0
  1695     0897  3400               	retlw	0
  1696     0898  3400               	retlw	0
  1697     0899  3422               	retlw	34
  1698     089A  3441               	retlw	65
  1699     089B  3449               	retlw	73
  1700     089C  3449               	retlw	73
  1701     089D  3436               	retlw	54
  1702     089E  3400               	retlw	0
  1703     089F  3400               	retlw	0
  1704     08A0  3400               	retlw	0
  1705     08A1  3418               	retlw	24
  1706     08A2  3414               	retlw	20
  1707     08A3  3412               	retlw	18
  1708     08A4  347F               	retlw	127
  1709     08A5  3410               	retlw	16
  1710     08A6  3400               	retlw	0
  1711     08A7  3400               	retlw	0
  1712     08A8  3400               	retlw	0
  1713     08A9  3427               	retlw	39
  1714     08AA  3445               	retlw	69
  1715     08AB  3445               	retlw	69
  1716     08AC  3445               	retlw	69
  1717     08AD  3439               	retlw	57
  1718     08AE  3400               	retlw	0
  1719     08AF  3400               	retlw	0
  1720     08B0  3400               	retlw	0
  1721     08B1  343C               	retlw	60
  1722     08B2  344A               	retlw	74
  1723     08B3  3449               	retlw	73
  1724     08B4  3449               	retlw	73
  1725     08B5  3430               	retlw	48
  1726     08B6  3400               	retlw	0
  1727     08B7  3400               	retlw	0
  1728     08B8  3400               	retlw	0
  1729     08B9  3401               	retlw	1
  1730     08BA  3471               	retlw	113
  1731     08BB  3409               	retlw	9
  1732     08BC  3405               	retlw	5
  1733     08BD  3403               	retlw	3
  1734     08BE  3400               	retlw	0
  1735     08BF  3400               	retlw	0
  1736     08C0  3400               	retlw	0
  1737     08C1  3436               	retlw	54
  1738     08C2  3449               	retlw	73
  1739     08C3  3449               	retlw	73
  1740     08C4  3449               	retlw	73
  1741     08C5  3436               	retlw	54
  1742     08C6  3400               	retlw	0
  1743     08C7  3400               	retlw	0
  1744     08C8  3400               	retlw	0
  1745     08C9  3406               	retlw	6
  1746     08CA  3449               	retlw	73
  1747     08CB  3449               	retlw	73
  1748     08CC  3429               	retlw	41
  1749     08CD  341E               	retlw	30
  1750     08CE  3400               	retlw	0
  1751     08CF  3400               	retlw	0
  1752     08D0  3400               	retlw	0
  1753     08D1  3400               	retlw	0
  1754     08D2  3436               	retlw	54
  1755     08D3  3436               	retlw	54
  1756     08D4  3400               	retlw	0
  1757     08D5  3400               	retlw	0
  1758     08D6  3400               	retlw	0
  1759     08D7  3400               	retlw	0
  1760     08D8  3400               	retlw	0
  1761     08D9  3400               	retlw	0
  1762     08DA  34AC               	retlw	172
  1763     08DB  346C               	retlw	108
  1764     08DC  3400               	retlw	0
  1765     08DD  3400               	retlw	0
  1766     08DE  3400               	retlw	0
  1767     08DF  3400               	retlw	0
  1768     08E0  3400               	retlw	0
  1769     08E1  3408               	retlw	8
  1770     08E2  3414               	retlw	20
  1771     08E3  3422               	retlw	34
  1772     08E4  3441               	retlw	65
  1773     08E5  3400               	retlw	0
  1774     08E6  3400               	retlw	0
  1775     08E7  3400               	retlw	0
  1776     08E8  3400               	retlw	0
  1777     08E9  3414               	retlw	20
  1778     08EA  3414               	retlw	20
  1779     08EB  3414               	retlw	20
  1780     08EC  3414               	retlw	20
  1781     08ED  3414               	retlw	20
  1782     08EE  3400               	retlw	0
  1783     08EF  3400               	retlw	0
  1784     08F0  3400               	retlw	0
  1785     08F1  3441               	retlw	65
  1786     08F2  3422               	retlw	34
  1787     08F3  3414               	retlw	20
  1788     08F4  3408               	retlw	8
  1789     08F5  3400               	retlw	0
  1790     08F6  3400               	retlw	0
  1791     08F7  3400               	retlw	0
  1792     08F8  3400               	retlw	0
  1793     08F9  3402               	retlw	2
  1794     08FA  3401               	retlw	1
  1795     08FB  3451               	retlw	81
  1796     08FC  3409               	retlw	9
  1797     08FD  3406               	retlw	6
  1798     08FE  3400               	retlw	0
  1799     08FF  3400               	retlw	0
  1800     0900  3400               	retlw	0
  1801     0901  3432               	retlw	50
  1802     0902  3449               	retlw	73
  1803     0903  3479               	retlw	121
  1804     0904  3441               	retlw	65
  1805     0905  343E               	retlw	62
  1806     0906  3400               	retlw	0
  1807     0907  3400               	retlw	0
  1808     0908  3400               	retlw	0
  1809     0909  347E               	retlw	126
  1810     090A  3409               	retlw	9
  1811     090B  3409               	retlw	9
  1812     090C  3409               	retlw	9
  1813     090D  347E               	retlw	126
  1814     090E  3400               	retlw	0
  1815     090F  3400               	retlw	0
  1816     0910  3400               	retlw	0
  1817     0911  347F               	retlw	127
  1818     0912  3449               	retlw	73
  1819     0913  3449               	retlw	73
  1820     0914  3449               	retlw	73
  1821     0915  3436               	retlw	54
  1822     0916  3400               	retlw	0
  1823     0917  3400               	retlw	0
  1824     0918  3400               	retlw	0
  1825     0919  343E               	retlw	62
  1826     091A  3441               	retlw	65
  1827     091B  3441               	retlw	65
  1828     091C  3441               	retlw	65
  1829     091D  3422               	retlw	34
  1830     091E  3400               	retlw	0
  1831     091F  3400               	retlw	0
  1832     0920  3400               	retlw	0
  1833     0921  347F               	retlw	127
  1834     0922  3441               	retlw	65
  1835     0923  3441               	retlw	65
  1836     0924  3422               	retlw	34
  1837     0925  341C               	retlw	28
  1838     0926  3400               	retlw	0
  1839     0927  3400               	retlw	0
  1840     0928  3400               	retlw	0
  1841     0929  347F               	retlw	127
  1842     092A  3449               	retlw	73
  1843     092B  3449               	retlw	73
  1844     092C  3449               	retlw	73
  1845     092D  3441               	retlw	65
  1846     092E  3400               	retlw	0
  1847     092F  3400               	retlw	0
  1848     0930  3400               	retlw	0
  1849     0931  347F               	retlw	127
  1850     0932  3409               	retlw	9
  1851     0933  3409               	retlw	9
  1852     0934  3409               	retlw	9
  1853     0935  3401               	retlw	1
  1854     0936  3400               	retlw	0
  1855     0937  3400               	retlw	0
  1856     0938  3400               	retlw	0
  1857     0939  343E               	retlw	62
  1858     093A  3441               	retlw	65
  1859     093B  3441               	retlw	65
  1860     093C  3451               	retlw	81
  1861     093D  3472               	retlw	114
  1862     093E  3400               	retlw	0
  1863     093F  3400               	retlw	0
  1864     0940  3400               	retlw	0
  1865     0941  347F               	retlw	127
  1866     0942  3408               	retlw	8
  1867     0943  3408               	retlw	8
  1868     0944  3408               	retlw	8
  1869     0945  347F               	retlw	127
  1870     0946  3400               	retlw	0
  1871     0947  3400               	retlw	0
  1872     0948  3400               	retlw	0
  1873     0949  3441               	retlw	65
  1874     094A  347F               	retlw	127
  1875     094B  3441               	retlw	65
  1876     094C  3400               	retlw	0
  1877     094D  3400               	retlw	0
  1878     094E  3400               	retlw	0
  1879     094F  3400               	retlw	0
  1880     0950  3400               	retlw	0
  1881     0951  3420               	retlw	32
  1882     0952  3440               	retlw	64
  1883     0953  3441               	retlw	65
  1884     0954  343F               	retlw	63
  1885     0955  3401               	retlw	1
  1886     0956  3400               	retlw	0
  1887     0957  3400               	retlw	0
  1888     0958  3400               	retlw	0
  1889     0959  347F               	retlw	127
  1890     095A  3408               	retlw	8
  1891     095B  3414               	retlw	20
  1892     095C  3422               	retlw	34
  1893     095D  3441               	retlw	65
  1894     095E  3400               	retlw	0
  1895     095F  3400               	retlw	0
  1896     0960  3400               	retlw	0
  1897     0961  347F               	retlw	127
  1898     0962  3440               	retlw	64
  1899     0963  3440               	retlw	64
  1900     0964  3440               	retlw	64
  1901     0965  3440               	retlw	64
  1902     0966  3400               	retlw	0
  1903     0967  3400               	retlw	0
  1904     0968  3400               	retlw	0
  1905     0969  347F               	retlw	127
  1906     096A  3402               	retlw	2
  1907     096B  340C               	retlw	12
  1908     096C  3402               	retlw	2
  1909     096D  347F               	retlw	127
  1910     096E  3400               	retlw	0
  1911     096F  3400               	retlw	0
  1912     0970  3400               	retlw	0
  1913     0971  347F               	retlw	127
  1914     0972  3404               	retlw	4
  1915     0973  3408               	retlw	8
  1916     0974  3410               	retlw	16
  1917     0975  347F               	retlw	127
  1918     0976  3400               	retlw	0
  1919     0977  3400               	retlw	0
  1920     0978  3400               	retlw	0
  1921     0979  343E               	retlw	62
  1922     097A  3441               	retlw	65
  1923     097B  3441               	retlw	65
  1924     097C  3441               	retlw	65
  1925     097D  343E               	retlw	62
  1926     097E  3400               	retlw	0
  1927     097F  3400               	retlw	0
  1928     0980  3400               	retlw	0
  1929     0981  347F               	retlw	127
  1930     0982  3409               	retlw	9
  1931     0983  3409               	retlw	9
  1932     0984  3409               	retlw	9
  1933     0985  3406               	retlw	6
  1934     0986  3400               	retlw	0
  1935     0987  3400               	retlw	0
  1936     0988  3400               	retlw	0
  1937     0989  343E               	retlw	62
  1938     098A  3441               	retlw	65
  1939     098B  3451               	retlw	81
  1940     098C  3421               	retlw	33
  1941     098D  345E               	retlw	94
  1942     098E  3400               	retlw	0
  1943     098F  3400               	retlw	0
  1944     0990  3400               	retlw	0
  1945     0991  347F               	retlw	127
  1946     0992  3409               	retlw	9
  1947     0993  3419               	retlw	25
  1948     0994  3429               	retlw	41
  1949     0995  3446               	retlw	70
  1950     0996  3400               	retlw	0
  1951     0997  3400               	retlw	0
  1952     0998  3400               	retlw	0
  1953     0999  3426               	retlw	38
  1954     099A  3449               	retlw	73
  1955     099B  3449               	retlw	73
  1956     099C  3449               	retlw	73
  1957     099D  3432               	retlw	50
  1958     099E  3400               	retlw	0
  1959     099F  3400               	retlw	0
  1960     09A0  3400               	retlw	0
  1961     09A1  3401               	retlw	1
  1962     09A2  3401               	retlw	1
  1963     09A3  347F               	retlw	127
  1964     09A4  3401               	retlw	1
  1965     09A5  3401               	retlw	1
  1966     09A6  3400               	retlw	0
  1967     09A7  3400               	retlw	0
  1968     09A8  3400               	retlw	0
  1969     09A9  343F               	retlw	63
  1970     09AA  3440               	retlw	64
  1971     09AB  3440               	retlw	64
  1972     09AC  3440               	retlw	64
  1973     09AD  343F               	retlw	63
  1974     09AE  3400               	retlw	0
  1975     09AF  3400               	retlw	0
  1976     09B0  3400               	retlw	0
  1977     09B1  341F               	retlw	31
  1978     09B2  3420               	retlw	32
  1979     09B3  3440               	retlw	64
  1980     09B4  3420               	retlw	32
  1981     09B5  341F               	retlw	31
  1982     09B6  3400               	retlw	0
  1983     09B7  3400               	retlw	0
  1984     09B8  3400               	retlw	0
  1985     09B9  343F               	retlw	63
  1986     09BA  3440               	retlw	64
  1987     09BB  3438               	retlw	56
  1988     09BC  3440               	retlw	64
  1989     09BD  343F               	retlw	63
  1990     09BE  3400               	retlw	0
  1991     09BF  3400               	retlw	0
  1992     09C0  3400               	retlw	0
  1993     09C1  3463               	retlw	99
  1994     09C2  3414               	retlw	20
  1995     09C3  3408               	retlw	8
  1996     09C4  3414               	retlw	20
  1997     09C5  3463               	retlw	99
  1998     09C6  3400               	retlw	0
  1999     09C7  3400               	retlw	0
  2000     09C8  3400               	retlw	0
  2001     09C9  3403               	retlw	3
  2002     09CA  3404               	retlw	4
  2003     09CB  3478               	retlw	120
  2004     09CC  3404               	retlw	4
  2005     09CD  3403               	retlw	3
  2006     09CE  3400               	retlw	0
  2007     09CF  3400               	retlw	0
  2008     09D0  3400               	retlw	0
  2009     09D1  3461               	retlw	97
  2010     09D2  3451               	retlw	81
  2011     09D3  3449               	retlw	73
  2012     09D4  3445               	retlw	69
  2013     09D5  3443               	retlw	67
  2014     09D6  3400               	retlw	0
  2015     09D7  3400               	retlw	0
  2016     09D8  3400               	retlw	0
  2017     09D9  347F               	retlw	127
  2018     09DA  3441               	retlw	65
  2019     09DB  3441               	retlw	65
  2020     09DC  3400               	retlw	0
  2021     09DD  3400               	retlw	0
  2022     09DE  3400               	retlw	0
  2023     09DF  3400               	retlw	0
  2024     09E0  3400               	retlw	0
  2025     09E1  3402               	retlw	2
  2026     09E2  3404               	retlw	4
  2027     09E3  3408               	retlw	8
  2028     09E4  3410               	retlw	16
  2029     09E5  3420               	retlw	32
  2030     09E6  3400               	retlw	0
  2031     09E7  3400               	retlw	0
  2032     09E8  3400               	retlw	0
  2033     09E9  3441               	retlw	65
  2034     09EA  3441               	retlw	65
  2035     09EB  347F               	retlw	127
  2036     09EC  3400               	retlw	0
  2037     09ED  3400               	retlw	0
  2038     09EE  3400               	retlw	0
  2039     09EF  3400               	retlw	0
  2040     09F0  3400               	retlw	0
  2041     09F1  3404               	retlw	4
  2042     09F2  3402               	retlw	2
  2043     09F3  3401               	retlw	1
  2044     09F4  3402               	retlw	2
  2045     09F5  3404               	retlw	4
  2046     09F6  3400               	retlw	0
  2047     09F7  3400               	retlw	0
  2048     09F8  3400               	retlw	0
  2049     09F9  3480               	retlw	128
  2050     09FA  3480               	retlw	128
  2051     09FB  3480               	retlw	128
  2052     09FC  3480               	retlw	128
  2053     09FD  3480               	retlw	128
  2054     09FE  3400               	retlw	0
  2055     09FF  3400               	retlw	0
  2056     0A00  3400               	retlw	0
  2057     0A01  3401               	retlw	1
  2058     0A02  3402               	retlw	2
  2059     0A03  3404               	retlw	4
  2060     0A04  3400               	retlw	0
  2061     0A05  3400               	retlw	0
  2062     0A06  3400               	retlw	0
  2063     0A07  3400               	retlw	0
  2064     0A08  3400               	retlw	0
  2065     0A09  3420               	retlw	32
  2066     0A0A  3454               	retlw	84
  2067     0A0B  3454               	retlw	84
  2068     0A0C  3454               	retlw	84
  2069     0A0D  3478               	retlw	120
  2070     0A0E  3400               	retlw	0
  2071     0A0F  3400               	retlw	0
  2072     0A10  3400               	retlw	0
  2073     0A11  347F               	retlw	127
  2074     0A12  3448               	retlw	72
  2075     0A13  3444               	retlw	68
  2076     0A14  3444               	retlw	68
  2077     0A15  3438               	retlw	56
  2078     0A16  3400               	retlw	0
  2079     0A17  3400               	retlw	0
  2080     0A18  3400               	retlw	0
  2081     0A19  3438               	retlw	56
  2082     0A1A  3444               	retlw	68
  2083     0A1B  3444               	retlw	68
  2084     0A1C  3428               	retlw	40
  2085     0A1D  3400               	retlw	0
  2086     0A1E  3400               	retlw	0
  2087     0A1F  3400               	retlw	0
  2088     0A20  3400               	retlw	0
  2089     0A21  3438               	retlw	56
  2090     0A22  3444               	retlw	68
  2091     0A23  3444               	retlw	68
  2092     0A24  3448               	retlw	72
  2093     0A25  347F               	retlw	127
  2094     0A26  3400               	retlw	0
  2095     0A27  3400               	retlw	0
  2096     0A28  3400               	retlw	0
  2097     0A29  3438               	retlw	56
  2098     0A2A  3454               	retlw	84
  2099     0A2B  3454               	retlw	84
  2100     0A2C  3454               	retlw	84
  2101     0A2D  3418               	retlw	24
  2102     0A2E  3400               	retlw	0
  2103     0A2F  3400               	retlw	0
  2104     0A30  3400               	retlw	0
  2105     0A31  3408               	retlw	8
  2106     0A32  347E               	retlw	126
  2107     0A33  3409               	retlw	9
  2108     0A34  3402               	retlw	2
  2109     0A35  3400               	retlw	0
  2110     0A36  3400               	retlw	0
  2111     0A37  3400               	retlw	0
  2112     0A38  3400               	retlw	0
  2113     0A39  3418               	retlw	24
  2114     0A3A  34A4               	retlw	164
  2115     0A3B  34A4               	retlw	164
  2116     0A3C  34A4               	retlw	164
  2117     0A3D  347C               	retlw	124
  2118     0A3E  3400               	retlw	0
  2119     0A3F  3400               	retlw	0
  2120     0A40  3400               	retlw	0
  2121     0A41  347F               	retlw	127
  2122     0A42  3408               	retlw	8
  2123     0A43  3404               	retlw	4
  2124     0A44  3404               	retlw	4
  2125     0A45  3478               	retlw	120
  2126     0A46  3400               	retlw	0
  2127     0A47  3400               	retlw	0
  2128     0A48  3400               	retlw	0
  2129     0A49  3400               	retlw	0
  2130     0A4A  347D               	retlw	125
  2131     0A4B  3400               	retlw	0
  2132     0A4C  3400               	retlw	0
  2133     0A4D  3400               	retlw	0
  2134     0A4E  3400               	retlw	0
  2135     0A4F  3400               	retlw	0
  2136     0A50  3400               	retlw	0
  2137     0A51  3480               	retlw	128
  2138     0A52  3484               	retlw	132
  2139     0A53  347D               	retlw	125
  2140     0A54  3400               	retlw	0
  2141     0A55  3400               	retlw	0
  2142     0A56  3400               	retlw	0
  2143     0A57  3400               	retlw	0
  2144     0A58  3400               	retlw	0
  2145     0A59  347F               	retlw	127
  2146     0A5A  3410               	retlw	16
  2147     0A5B  3428               	retlw	40
  2148     0A5C  3444               	retlw	68
  2149     0A5D  3400               	retlw	0
  2150     0A5E  3400               	retlw	0
  2151     0A5F  3400               	retlw	0
  2152     0A60  3400               	retlw	0
  2153     0A61  3441               	retlw	65
  2154     0A62  347F               	retlw	127
  2155     0A63  3440               	retlw	64
  2156     0A64  3400               	retlw	0
  2157     0A65  3400               	retlw	0
  2158     0A66  3400               	retlw	0
  2159     0A67  3400               	retlw	0
  2160     0A68  3400               	retlw	0
  2161     0A69  347C               	retlw	124
  2162     0A6A  3404               	retlw	4
  2163     0A6B  3418               	retlw	24
  2164     0A6C  3404               	retlw	4
  2165     0A6D  3478               	retlw	120
  2166     0A6E  3400               	retlw	0
  2167     0A6F  3400               	retlw	0
  2168     0A70  3400               	retlw	0
  2169     0A71  347C               	retlw	124
  2170     0A72  3408               	retlw	8
  2171     0A73  3404               	retlw	4
  2172     0A74  347C               	retlw	124
  2173     0A75  3400               	retlw	0
  2174     0A76  3400               	retlw	0
  2175     0A77  3400               	retlw	0
  2176     0A78  3400               	retlw	0
  2177     0A79  3438               	retlw	56
  2178     0A7A  3444               	retlw	68
  2179     0A7B  3444               	retlw	68
  2180     0A7C  3438               	retlw	56
  2181     0A7D  3400               	retlw	0
  2182     0A7E  3400               	retlw	0
  2183     0A7F  3400               	retlw	0
  2184     0A80  3400               	retlw	0
  2185     0A81  34FC               	retlw	252
  2186     0A82  3424               	retlw	36
  2187     0A83  3424               	retlw	36
  2188     0A84  3418               	retlw	24
  2189     0A85  3400               	retlw	0
  2190     0A86  3400               	retlw	0
  2191     0A87  3400               	retlw	0
  2192     0A88  3400               	retlw	0
  2193     0A89  3418               	retlw	24
  2194     0A8A  3424               	retlw	36
  2195     0A8B  3424               	retlw	36
  2196     0A8C  34FC               	retlw	252
  2197     0A8D  3400               	retlw	0
  2198     0A8E  3400               	retlw	0
  2199     0A8F  3400               	retlw	0
  2200     0A90  3400               	retlw	0
  2201     0A91  3400               	retlw	0
  2202     0A92  347C               	retlw	124
  2203     0A93  3408               	retlw	8
  2204     0A94  3404               	retlw	4
  2205     0A95  3400               	retlw	0
  2206     0A96  3400               	retlw	0
  2207     0A97  3400               	retlw	0
  2208     0A98  3400               	retlw	0
  2209     0A99  3448               	retlw	72
  2210     0A9A  3454               	retlw	84
  2211     0A9B  3454               	retlw	84
  2212     0A9C  3424               	retlw	36
  2213     0A9D  3400               	retlw	0
  2214     0A9E  3400               	retlw	0
  2215     0A9F  3400               	retlw	0
  2216     0AA0  3400               	retlw	0
  2217     0AA1  3404               	retlw	4
  2218     0AA2  347F               	retlw	127
  2219     0AA3  3444               	retlw	68
  2220     0AA4  3400               	retlw	0
  2221     0AA5  3400               	retlw	0
  2222     0AA6  3400               	retlw	0
  2223     0AA7  3400               	retlw	0
  2224     0AA8  3400               	retlw	0
  2225     0AA9  343C               	retlw	60
  2226     0AAA  3440               	retlw	64
  2227     0AAB  3440               	retlw	64
  2228     0AAC  347C               	retlw	124
  2229     0AAD  3400               	retlw	0
  2230     0AAE  3400               	retlw	0
  2231     0AAF  3400               	retlw	0
  2232     0AB0  3400               	retlw	0
  2233     0AB1  341C               	retlw	28
  2234     0AB2  3420               	retlw	32
  2235     0AB3  3440               	retlw	64
  2236     0AB4  3420               	retlw	32
  2237     0AB5  341C               	retlw	28
  2238     0AB6  3400               	retlw	0
  2239     0AB7  3400               	retlw	0
  2240     0AB8  3400               	retlw	0
  2241     0AB9  343C               	retlw	60
  2242     0ABA  3440               	retlw	64
  2243     0ABB  3430               	retlw	48
  2244     0ABC  3440               	retlw	64
  2245     0ABD  343C               	retlw	60
  2246     0ABE  3400               	retlw	0
  2247     0ABF  3400               	retlw	0
  2248     0AC0  3400               	retlw	0
  2249     0AC1  3444               	retlw	68
  2250     0AC2  3428               	retlw	40
  2251     0AC3  3410               	retlw	16
  2252     0AC4  3428               	retlw	40
  2253     0AC5  3444               	retlw	68
  2254     0AC6  3400               	retlw	0
  2255     0AC7  3400               	retlw	0
  2256     0AC8  3400               	retlw	0
  2257     0AC9  341C               	retlw	28
  2258     0ACA  34A0               	retlw	160
  2259     0ACB  34A0               	retlw	160
  2260     0ACC  347C               	retlw	124
  2261     0ACD  3400               	retlw	0
  2262     0ACE  3400               	retlw	0
  2263     0ACF  3400               	retlw	0
  2264     0AD0  3400               	retlw	0
  2265     0AD1  3444               	retlw	68
  2266     0AD2  3464               	retlw	100
  2267     0AD3  3454               	retlw	84
  2268     0AD4  344C               	retlw	76
  2269     0AD5  3444               	retlw	68
  2270     0AD6  3400               	retlw	0
  2271     0AD7  3400               	retlw	0
  2272     0AD8  3400               	retlw	0
  2273     0AD9  3408               	retlw	8
  2274     0ADA  3436               	retlw	54
  2275     0ADB  3441               	retlw	65
  2276     0ADC  3400               	retlw	0
  2277     0ADD  3400               	retlw	0
  2278     0ADE  3400               	retlw	0
  2279     0ADF  3400               	retlw	0
  2280     0AE0  3400               	retlw	0
  2281     0AE1  3400               	retlw	0
  2282     0AE2  347F               	retlw	127
  2283     0AE3  3400               	retlw	0
  2284     0AE4  3400               	retlw	0
  2285     0AE5  3400               	retlw	0
  2286     0AE6  3400               	retlw	0
  2287     0AE7  3400               	retlw	0
  2288     0AE8  3400               	retlw	0
  2289     0AE9  3441               	retlw	65
  2290     0AEA  3436               	retlw	54
  2291     0AEB  3408               	retlw	8
  2292     0AEC  3400               	retlw	0
  2293     0AED  3400               	retlw	0
  2294     0AEE  3400               	retlw	0
  2295     0AEF  3400               	retlw	0
  2296     0AF0  3400               	retlw	0
  2297     0AF1  3402               	retlw	2
  2298     0AF2  3401               	retlw	1
  2299     0AF3  3401               	retlw	1
  2300     0AF4  3402               	retlw	2
  2301     0AF5  3401               	retlw	1
  2302     0AF6  3400               	retlw	0
  2303     0AF7  3400               	retlw	0
  2304     0AF8  3400               	retlw	0
  2305     0AF9  3402               	retlw	2
  2306     0AFA  3405               	retlw	5
  2307     0AFB  3405               	retlw	5
  2308     0AFC  3402               	retlw	2
  2309     0AFD  3400               	retlw	0
  2310     0AFE  3400               	retlw	0
  2311     0AFF  3400               	retlw	0
  2312     0B00                     __end_of_OledFont:
  2313                           
  2314                           	psect	stringtext3
  2315     0B00                     __pstringtext3:
  2316     0B00                     OLED_ClearFast@zeros:
  2317     0B00  3400               	retlw	0
  2318     0B01  3400               	retlw	0
  2319     0B02  3400               	retlw	0
  2320     0B03  3400               	retlw	0
  2321     0B04  3400               	retlw	0
  2322     0B05  3400               	retlw	0
  2323     0B06  3400               	retlw	0
  2324     0B07  3400               	retlw	0
  2325     0B08  3400               	retlw	0
  2326     0B09  3400               	retlw	0
  2327     0B0A  3400               	retlw	0
  2328     0B0B  3400               	retlw	0
  2329     0B0C  3400               	retlw	0
  2330     0B0D  3400               	retlw	0
  2331     0B0E  3400               	retlw	0
  2332     0B0F  3400               	retlw	0
  2333     0B10  3400               	retlw	0
  2334     0B11  3400               	retlw	0
  2335     0B12  3400               	retlw	0
  2336     0B13  3400               	retlw	0
  2337     0B14  3400               	retlw	0
  2338     0B15  3400               	retlw	0
  2339     0B16  3400               	retlw	0
  2340     0B17  3400               	retlw	0
  2341     0B18  3400               	retlw	0
  2342     0B19  3400               	retlw	0
  2343     0B1A  3400               	retlw	0
  2344     0B1B  3400               	retlw	0
  2345     0B1C  3400               	retlw	0
  2346     0B1D  3400               	retlw	0
  2347     0B1E  3400               	retlw	0
  2348     0B1F  3400               	retlw	0
  2349     0B20  3400               	retlw	0
  2350     0B21  3400               	retlw	0
  2351     0B22  3400               	retlw	0
  2352     0B23  3400               	retlw	0
  2353     0B24  3400               	retlw	0
  2354     0B25  3400               	retlw	0
  2355     0B26  3400               	retlw	0
  2356     0B27  3400               	retlw	0
  2357     0B28  3400               	retlw	0
  2358     0B29  3400               	retlw	0
  2359     0B2A  3400               	retlw	0
  2360     0B2B  3400               	retlw	0
  2361     0B2C  3400               	retlw	0
  2362     0B2D  3400               	retlw	0
  2363     0B2E  3400               	retlw	0
  2364     0B2F  3400               	retlw	0
  2365     0B30  3400               	retlw	0
  2366     0B31  3400               	retlw	0
  2367     0B32  3400               	retlw	0
  2368     0B33  3400               	retlw	0
  2369     0B34  3400               	retlw	0
  2370     0B35  3400               	retlw	0
  2371     0B36  3400               	retlw	0
  2372     0B37  3400               	retlw	0
  2373     0B38  3400               	retlw	0
  2374     0B39  3400               	retlw	0
  2375     0B3A  3400               	retlw	0
  2376     0B3B  3400               	retlw	0
  2377     0B3C  3400               	retlw	0
  2378     0B3D  3400               	retlw	0
  2379     0B3E  3400               	retlw	0
  2380     0B3F  3400               	retlw	0
  2381     0B40  3400               	retlw	0
  2382     0B41  3400               	retlw	0
  2383     0B42  3400               	retlw	0
  2384     0B43  3400               	retlw	0
  2385     0B44  3400               	retlw	0
  2386     0B45  3400               	retlw	0
  2387     0B46  3400               	retlw	0
  2388     0B47  3400               	retlw	0
  2389     0B48  3400               	retlw	0
  2390     0B49  3400               	retlw	0
  2391     0B4A  3400               	retlw	0
  2392     0B4B  3400               	retlw	0
  2393     0B4C  3400               	retlw	0
  2394     0B4D  3400               	retlw	0
  2395     0B4E  3400               	retlw	0
  2396     0B4F  3400               	retlw	0
  2397     0B50  3400               	retlw	0
  2398     0B51  3400               	retlw	0
  2399     0B52  3400               	retlw	0
  2400     0B53  3400               	retlw	0
  2401     0B54  3400               	retlw	0
  2402     0B55  3400               	retlw	0
  2403     0B56  3400               	retlw	0
  2404     0B57  3400               	retlw	0
  2405     0B58  3400               	retlw	0
  2406     0B59  3400               	retlw	0
  2407     0B5A  3400               	retlw	0
  2408     0B5B  3400               	retlw	0
  2409     0B5C  3400               	retlw	0
  2410     0B5D  3400               	retlw	0
  2411     0B5E  3400               	retlw	0
  2412     0B5F  3400               	retlw	0
  2413     0B60  3400               	retlw	0
  2414     0B61  3400               	retlw	0
  2415     0B62  3400               	retlw	0
  2416     0B63  3400               	retlw	0
  2417     0B64  3400               	retlw	0
  2418     0B65  3400               	retlw	0
  2419     0B66  3400               	retlw	0
  2420     0B67  3400               	retlw	0
  2421     0B68  3400               	retlw	0
  2422     0B69  3400               	retlw	0
  2423     0B6A  3400               	retlw	0
  2424     0B6B  3400               	retlw	0
  2425     0B6C  3400               	retlw	0
  2426     0B6D  3400               	retlw	0
  2427     0B6E  3400               	retlw	0
  2428     0B6F  3400               	retlw	0
  2429     0B70  3400               	retlw	0
  2430     0B71  3400               	retlw	0
  2431     0B72  3400               	retlw	0
  2432     0B73  3400               	retlw	0
  2433     0B74  3400               	retlw	0
  2434     0B75  3400               	retlw	0
  2435     0B76  3400               	retlw	0
  2436     0B77  3400               	retlw	0
  2437     0B78  3400               	retlw	0
  2438     0B79  3400               	retlw	0
  2439     0B7A  3400               	retlw	0
  2440     0B7B  3400               	retlw	0
  2441     0B7C  3400               	retlw	0
  2442     0B7D  3400               	retlw	0
  2443     0B7E  3400               	retlw	0
  2444     0B7F  3400               	retlw	0
  2445     0B80                     __end_ofOLED_ClearFast@zeros:
  2446     000D                     _PORTBbits	set	13
  2447     0012                     _PIR2bits	set	18
  2448     0011                     _PIR1bits	set	17
  2449     008D                     _TRISBbits	set	141
  2450     008E                     _TRISCbits	set	142
  2451     04CF                     _SPLLEN	set	1231
  2452     04CE                     _IRCF3	set	1230
  2453     04CD                     _IRCF2	set	1229
  2454     04CC                     _IRCF1	set	1228
  2455     04CB                     _IRCF0	set	1227
  2456     04C9                     _SCS1	set	1225
  2457     04C8                     _SCS0	set	1224
  2458     010D                     _LATBbits	set	269
  2459     018D                     _ANSELBbits	set	397
  2460     018E                     _ANSELCbits	set	398
  2461     0211                     _SSPBUF	set	529
  2462     0216                     _SSPCON2bits	set	534
  2463     0214                     _SSPSTATbits	set	532
  2464     0216                     _SSPCON2	set	534
  2465     0215                     _SSPCON1bits	set	533
  2466     0212                     _SSPADD	set	530
  2467     0215                     _SSPCONbits	set	533
  2468     0E20                     _SSPCLKPPSbits	set	3616
  2469     0E21                     _SSPDATPPSbits	set	3617
  2470     0E0F                     _PPSLOCKbits	set	3599
  2471     0E0F                     _PPSLOCK	set	3599
  2472     0EA5                     _RC5PPSbits	set	3749
  2473     0EA4                     _RC4PPSbits	set	3748
  2474     0B80                     STR_1:
  2475     0B80  3454               	retlw	84	;'T'
  2476     0B81  3469               	retlw	105	;'i'
  2477     0B82  346D               	retlw	109	;'m'
  2478     0B83  3465               	retlw	101	;'e'
  2479     0B84  343A               	retlw	58	;':'
  2480     0B85  3400               	retlw	0
  2481                           
  2482                           	psect	stringtext4
  2483     0000                     __pstringtext4:
  2484                           
  2485                           	psect	cinit
  2486     07F2                     start_initialization:	
  2487                           ; #config settings
  2488                           
  2489     07F2                     __initialization:	;BIGRAM
  2490                           
  2491                           ; Clear objects allocated to BIGRAM
  2492     07F2  30F0               	movlw	low (0+9456)
  2493     07F3  0084               	movwf	4
  2494     07F4  3024               	movlw	high (0+9456)
  2495     07F5  0085               	movwf	5
  2496     07F6  3000               	movlw	0
  2497     07F7  00FE               	movwf	btemp
  2498     07F8  3003               	movlw	3
  2499     07F9  00FF               	movwf	btemp+1
  2500     07FA  3182  2208  3187   	fcall	clear_ram0
  2501     07FD                     end_of_initialization:	
  2502                           ;End of C runtime variable initialization code
  2503                           
  2504     07FD                     __end_of__initialization:
  2505     07FD  0020               	movlb	0
  2506     07FE  3186  2E96         	ljmp	_main	;jump to C main() function
  2507                           
  2508                           	psect	clrtext
  2509     0208                     clear_ram0:	
  2510                           ;	Called with FSR0 containing the base address, and
  2511                           ;	btemp/btemp+1 has the size to clear
  2512                           
  2513     0208  0064               	clrwdt	;clear the watchdog before getting into this loop
  2514     0209                     clrloop0:
  2515     0209  0180               	clrf	0	;clear RAM location pointed to by FSR
  2516     020A  3101               	addfsr 0,1
  2517     020B  3001               	movlw	1
  2518     020C  02FE               	subwf	btemp,f
  2519     020D  3000               	movlw	0
  2520     020E  3BFF               	subwfb	btemp+1,f
  2521     020F  087F               	movf	btemp+1,w
  2522     0210  047E               	iorwf	btemp,w
  2523     0211  1D03               	skipz
  2524     0212  2A09               	goto	clrloop0	;have we reached the end yet?
  2525     0213  3400               	retlw	0	;all done for this memory range, return
  2526                           
  2527                           	psect	cstackCOMMON
  2528     0070                     __pcstackCOMMON:
  2529     0070                     ?_I2C_ClearErrors:
  2530     0070                     ??_I2C_ClearErrors:	
  2531                           ; 1 bytes @ 0x0
  2532                           
  2533     0070                     ?_OLED_Clear:	
  2534                           ; 1 bytes @ 0x0
  2535                           
  2536     0070                     ?_DS1302_Reset:	
  2537                           ; 1 bytes @ 0x0
  2538                           
  2539     0070                     ??_DS1302_Reset:	
  2540                           ; 1 bytes @ 0x0
  2541                           
  2542     0070                     ?_DS1302_WriteByte:	
  2543                           ; 1 bytes @ 0x0
  2544                           
  2545     0070                     ??_DS1302_WriteByte:	
  2546                           ; 1 bytes @ 0x0
  2547                           
  2548     0070                     ?_DS1302_ReadByte:	
  2549                           ; 1 bytes @ 0x0
  2550                           
  2551     0070                     ??_DS1302_ReadByte:	
  2552                           ; 1 bytes @ 0x0
  2553                           
  2554     0070                     ?_get_dec:	
  2555                           ; 1 bytes @ 0x0
  2556                           
  2557     0070                     ??_OLED_ClearFast:	
  2558                           ; 1 bytes @ 0x0
  2559                           
  2560     0070                     ?_get_bcd:	
  2561                           ; 1 bytes @ 0x0
  2562                           
  2563     0070                     ?_I2C_WaitIF:	
  2564                           ; 1 bytes @ 0x0
  2565                           
  2566     0070                     ?_I2C_Init:	
  2567                           ; 1 bytes @ 0x0
  2568                           
  2569     0070                     ??_I2C_Init:	
  2570                           ; 1 bytes @ 0x0
  2571                           
  2572     0070                     ?_I2C_WaitIdle:	
  2573                           ; 1 bytes @ 0x0
  2574                           
  2575     0070                     ?_I2C_Start:	
  2576                           ; 1 bytes @ 0x0
  2577                           
  2578     0070                     ?_I2C_Stop:	
  2579                           ; 1 bytes @ 0x0
  2580                           
  2581     0070                     ?_I2C_WriteByte:	
  2582                           ; 1 bytes @ 0x0
  2583                           
  2584     0070                     ?_SSD1306_CtrlW:	
  2585                           ; 1 bytes @ 0x0
  2586                           
  2587     0070                     ??_SSD1306_CtrlW:	
  2588                           ; 1 bytes @ 0x0
  2589                           
  2590     0070                     ?_OLED_Command:	
  2591                           ; 1 bytes @ 0x0
  2592                           
  2593     0070                     ?_OLED_Init:	
  2594                           ; 1 bytes @ 0x0
  2595                           
  2596     0070                     ?_internal_16:	
  2597                           ; 1 bytes @ 0x0
  2598                           
  2599     0070                     ??_internal_16:	
  2600                           ; 1 bytes @ 0x0
  2601                           
  2602     0070                     ?_initMain:	
  2603                           ; 1 bytes @ 0x0
  2604                           
  2605     0070                     ??_initMain:	
  2606                           ; 1 bytes @ 0x0
  2607                           
  2608     0070                     ?_main:	
  2609                           ; 1 bytes @ 0x0
  2610                           
  2611     0070                     ?___bmul:	
  2612                           ; 1 bytes @ 0x0
  2613                           
  2614     0070                     ?_memset:	
  2615                           ; 1 bytes @ 0x0
  2616                           
  2617     0070                     ?_OLED_ClearFast:	
  2618                           ; 2 bytes @ 0x0
  2619                           
  2620     0070                     ?___awdiv:	
  2621                           ; 2 bytes @ 0x0
  2622                           
  2623     0070                     ___bmul@multiplicand:	
  2624                           ; 2 bytes @ 0x0
  2625                           
  2626     0070                     I2C_WaitIF@timeout_ms:	
  2627                           ; 1 bytes @ 0x0
  2628                           
  2629     0070                     I2C_WaitIdle@timeout_ms:	
  2630                           ; 2 bytes @ 0x0
  2631                           
  2632     0070                     ___awdiv@divisor:	
  2633                           ; 2 bytes @ 0x0
  2634                           
  2635     0070                     memset@dest:	
  2636                           ; 2 bytes @ 0x0
  2637                           
  2638                           
  2639                           ; 2 bytes @ 0x0
  2640     0070                     	ds	1
  2641     0071                     ??___bmul:
  2642     0071                     DS1302_WriteByte@W_Byte:	
  2643                           ; 1 bytes @ 0x1
  2644                           
  2645     0071                     DS1302_ReadByte@TmpByte:	
  2646                           ; 1 bytes @ 0x1
  2647                           
  2648                           
  2649                           ; 1 bytes @ 0x1
  2650     0071                     	ds	1
  2651     0072                     ??_I2C_WaitIF:
  2652     0072                     ??_I2C_WaitIdle:	
  2653                           ; 1 bytes @ 0x2
  2654                           
  2655     0072                     DS1302_WriteByte@i:	
  2656                           ; 1 bytes @ 0x2
  2657                           
  2658     0072                     DS1302_ReadByte@R_Byte:	
  2659                           ; 1 bytes @ 0x2
  2660                           
  2661     0072                     ___bmul@product:	
  2662                           ; 1 bytes @ 0x2
  2663                           
  2664     0072                     ___awdiv@dividend:	
  2665                           ; 1 bytes @ 0x2
  2666                           
  2667     0072                     memset@c:	
  2668                           ; 2 bytes @ 0x2
  2669                           
  2670                           
  2671                           ; 2 bytes @ 0x2
  2672     0072                     	ds	1
  2673     0073                     ??_I2C_Start:
  2674     0073                     ??_I2C_Stop:	
  2675                           ; 1 bytes @ 0x3
  2676                           
  2677     0073                     ??_I2C_WriteByte:	
  2678                           ; 1 bytes @ 0x3
  2679                           
  2680     0073                     I2C_Start@st:	
  2681                           ; 1 bytes @ 0x3
  2682                           
  2683     0073                     I2C_Stop@st:	
  2684                           ; 1 bytes @ 0x3
  2685                           
  2686     0073                     I2C_WriteByte@data:	
  2687                           ; 1 bytes @ 0x3
  2688                           
  2689     0073                     DS1302_ReadByte@i:	
  2690                           ; 1 bytes @ 0x3
  2691                           
  2692     0073                     ___bmul@multiplier:	
  2693                           ; 1 bytes @ 0x3
  2694                           
  2695                           
  2696                           ; 1 bytes @ 0x3
  2697     0073                     	ds	1
  2698     0074                     ??_get_dec:
  2699     0074                     ??___awdiv:	
  2700                           ; 1 bytes @ 0x4
  2701                           
  2702     0074                     I2C_WriteByte@st:	
  2703                           ; 1 bytes @ 0x4
  2704                           
  2705     0074                     memset@n:	
  2706                           ; 1 bytes @ 0x4
  2707                           
  2708                           
  2709                           ; 2 bytes @ 0x4
  2710     0074                     	ds	1
  2711     0075                     ??_OLED_Command:
  2712     0075                     ?_OLED_WriteData:	
  2713                           ; 1 bytes @ 0x5
  2714                           
  2715     0075                     OLED_Command@cmd:	
  2716                           ; 1 bytes @ 0x5
  2717                           
  2718     0075                     get_dec@var2:	
  2719                           ; 1 bytes @ 0x5
  2720                           
  2721     0075                     ___awdiv@counter:	
  2722                           ; 1 bytes @ 0x5
  2723                           
  2724     0075                     OLED_WriteData@data:	
  2725                           ; 1 bytes @ 0x5
  2726                           
  2727                           
  2728                           ; 2 bytes @ 0x5
  2729     0075                     	ds	1
  2730     0076                     ??_memset:
  2731     0076                     OLED_Command@st:	
  2732                           ; 1 bytes @ 0x6
  2733                           
  2734     0076                     get_dec@var:	
  2735                           ; 1 bytes @ 0x6
  2736                           
  2737     0076                     ___awdiv@sign:	
  2738                           ; 1 bytes @ 0x6
  2739                           
  2740     0076                     memset@p:	
  2741                           ; 1 bytes @ 0x6
  2742                           
  2743                           
  2744                           ; 2 bytes @ 0x6
  2745     0076                     	ds	1
  2746     0077                     ?_OLED_YX:
  2747     0077                     OLED_YX@col_char:	
  2748                           ; 1 bytes @ 0x7
  2749                           
  2750     0077                     OLED_WriteData@len:	
  2751                           ; 1 bytes @ 0x7
  2752                           
  2753     0077                     ___awdiv@quotient:	
  2754                           ; 2 bytes @ 0x7
  2755                           
  2756                           
  2757                           ; 2 bytes @ 0x7
  2758     0077                     	ds	1
  2759     0078                     ??_OLED_YX:
  2760                           
  2761                           ; 1 bytes @ 0x8
  2762     0078                     	ds	1
  2763     0079                     ??_get_bcd:
  2764     0079                     ??_OLED_WriteData:	
  2765                           ; 1 bytes @ 0x9
  2766                           
  2767     0079                     ?___awmod:	
  2768                           ; 1 bytes @ 0x9
  2769                           
  2770     0079                     OLED_YX@page:	
  2771                           ; 2 bytes @ 0x9
  2772                           
  2773     0079                     OLED_WriteData@i:	
  2774                           ; 1 bytes @ 0x9
  2775                           
  2776     0079                     ___awmod@divisor:	
  2777                           ; 2 bytes @ 0x9
  2778                           
  2779                           
  2780                           ; 2 bytes @ 0x9
  2781     0079                     	ds	1
  2782     007A                     OLED_YX@col:
  2783                           
  2784                           ; 1 bytes @ 0xA
  2785     007A                     	ds	1
  2786     007B                     OLED_WriteData@st:
  2787     007B                     get_bcd@nibl:	
  2788                           ; 1 bytes @ 0xB
  2789                           
  2790     007B                     ___awmod@dividend:	
  2791                           ; 1 bytes @ 0xB
  2792                           
  2793                           
  2794                           ; 2 bytes @ 0xB
  2795     007B                     	ds	1
  2796     007C                     OLED_Clear@p:
  2797     007C                     OLED_WriteString@ch:	
  2798                           ; 1 bytes @ 0xC
  2799                           
  2800     007C                     get_bcd@data:	
  2801                           ; 1 bytes @ 0xC
  2802                           
  2803                           
  2804                           ; 1 bytes @ 0xC
  2805     007C                     	ds	1
  2806     007D                     ??_OLED_Init:
  2807     007D                     ??___awmod:	
  2808                           ; 1 bytes @ 0xD
  2809                           
  2810     007D                     get_bcd@nibh:	
  2811                           ; 1 bytes @ 0xD
  2812                           
  2813                           
  2814                           ; 1 bytes @ 0xD
  2815     007D                     	ds	1
  2816     007E                     ??_DS1302_Initialize:
  2817                           
  2818                           	psect	cstackBANK0
  2819     0020                     __pcstackBANK0:	
  2820                           ; 1 bytes @ 0xE
  2821                           
  2822     0020                     ??_OLED_Clear:
  2823     0020                     ?_DS1302_Initialize:	
  2824                           ; 1 bytes @ 0x0
  2825                           
  2826     0020                     ?_OLED_WriteString:	
  2827                           ; 1 bytes @ 0x0
  2828                           
  2829     0020                     DS1302_Initialize@min:	
  2830                           ; 1 bytes @ 0x0
  2831                           
  2832     0020                     ___awmod@counter:	
  2833                           ; 1 bytes @ 0x0
  2834                           
  2835     0020                     OLED_WriteString@s:	
  2836                           ; 1 bytes @ 0x0
  2837                           
  2838                           
  2839                           ; 2 bytes @ 0x0
  2840     0020                     	ds	1
  2841     0021                     DS1302_Initialize@hr:
  2842     0021                     ___awmod@sign:	
  2843                           ; 1 bytes @ 0x1
  2844                           
  2845                           
  2846                           ; 1 bytes @ 0x1
  2847     0021                     	ds	1
  2848     0022                     OLED_WriteString@page:
  2849     0022                     DS1302_Initialize@day:	
  2850                           ; 1 bytes @ 0x2
  2851                           
  2852                           
  2853                           ; 1 bytes @ 0x2
  2854     0022                     	ds	1
  2855     0023                     OLED_WriteString@col_char:
  2856     0023                     DS1302_Initialize@date:	
  2857                           ; 1 bytes @ 0x3
  2858                           
  2859                           
  2860                           ; 1 bytes @ 0x3
  2861     0023                     	ds	1
  2862     0024                     ??_OLED_WriteString:
  2863     0024                     DS1302_Initialize@mth:	
  2864                           ; 1 bytes @ 0x4
  2865                           
  2866                           
  2867                           ; 1 bytes @ 0x4
  2868     0024                     	ds	1
  2869     0025                     DS1302_Initialize@year:
  2870                           
  2871                           ; 1 bytes @ 0x5
  2872     0025                     	ds	1
  2873     0026                     DS1302_Initialize@sec:
  2874                           
  2875                           ; 1 bytes @ 0x6
  2876     0026                     	ds	1
  2877     0027                     DS1302_Initialize@sec1:
  2878                           
  2879                           ; 1 bytes @ 0x7
  2880     0027                     	ds	1
  2881     0028                     DS1302_Initialize@min1:
  2882                           
  2883                           ; 1 bytes @ 0x8
  2884     0028                     	ds	1
  2885     0029                     DS1302_Initialize@hr1:
  2886                           
  2887                           ; 1 bytes @ 0x9
  2888     0029                     	ds	1
  2889     002A                     DS1302_Initialize@day1:
  2890                           
  2891                           ; 1 bytes @ 0xA
  2892     002A                     	ds	1
  2893     002B                     DS1302_Initialize@date1:
  2894                           
  2895                           ; 1 bytes @ 0xB
  2896     002B                     	ds	1
  2897     002C                     DS1302_Initialize@mth1:
  2898                           
  2899                           ; 1 bytes @ 0xC
  2900     002C                     	ds	1
  2901     002D                     DS1302_Initialize@year1:
  2902                           
  2903                           ; 1 bytes @ 0xD
  2904     002D                     	ds	1
  2905     002E                     ??_main:
  2906                           
  2907                           ; 1 bytes @ 0xE
  2908     002E                     	ds	2
  2909     0030                     main@line1:
  2910                           
  2911                           ; 9 bytes @ 0x10
  2912     0030                     	ds	9
  2913     0039                     main@yr1:
  2914                           
  2915                           ; 1 bytes @ 0x19
  2916     0039                     	ds	1
  2917     003A                     main@mn1:
  2918                           
  2919                           ; 1 bytes @ 0x1A
  2920     003A                     	ds	1
  2921     003B                     main@date1:
  2922                           
  2923                           ; 1 bytes @ 0x1B
  2924     003B                     	ds	1
  2925     003C                     main@dy1:
  2926                           
  2927                           ; 1 bytes @ 0x1C
  2928     003C                     	ds	1
  2929     003D                     main@hr1:
  2930                           
  2931                           ; 1 bytes @ 0x1D
  2932     003D                     	ds	1
  2933     003E                     main@min1:
  2934                           
  2935                           ; 1 bytes @ 0x1E
  2936     003E                     	ds	1
  2937     003F                     main@sec1:
  2938                           
  2939                           ; 1 bytes @ 0x1F
  2940     003F                     	ds	1
  2941     0040                     main@hr2:
  2942                           
  2943                           ; 1 bytes @ 0x20
  2944     0040                     	ds	1
  2945     0041                     main@min2:
  2946                           
  2947                           ; 1 bytes @ 0x21
  2948     0041                     	ds	1
  2949     0042                     main@sec2:
  2950                           
  2951                           ; 1 bytes @ 0x22
  2952     0042                     	ds	1
  2953                           
  2954                           	psect	maintext
  2955     0696                     __pmaintext:	
  2956 ;;
  2957 ;;Main: autosize = 0, tempsize = 2, incstack = 0, save=0
  2958 ;;
  2959 ;; *************** function _main *****************
  2960 ;; Defined at:
  2961 ;;		line 59 in file "main.c"
  2962 ;; Parameters:    Size  Location     Type
  2963 ;;		None
  2964 ;; Auto vars:     Size  Location     Type
  2965 ;;  line1           9   16[BANK0 ] unsigned char [9]
  2966 ;;  sec2            1   34[BANK0 ] unsigned char 
  2967 ;;  min2            1   33[BANK0 ] unsigned char 
  2968 ;;  hr2             1   32[BANK0 ] unsigned char 
  2969 ;;  sec1            1   31[BANK0 ] unsigned char 
  2970 ;;  min1            1   30[BANK0 ] unsigned char 
  2971 ;;  hr1             1   29[BANK0 ] unsigned char 
  2972 ;;  dy1             1   28[BANK0 ] unsigned char 
  2973 ;;  date1           1   27[BANK0 ] unsigned char 
  2974 ;;  mn1             1   26[BANK0 ] unsigned char 
  2975 ;;  yr1             1   25[BANK0 ] unsigned char 
  2976 ;;  dy2             1    0        unsigned char 
  2977 ;;  date2           1    0        unsigned char 
  2978 ;;  mn2             1    0        unsigned char 
  2979 ;;  yr2             1    0        unsigned char 
  2980 ;;  year            1    0        unsigned char 
  2981 ;;  month           1    0        unsigned char 
  2982 ;;  date            1    0        unsigned char 
  2983 ;;  day             1    0        unsigned char 
  2984 ;;  hr              1    0        unsigned char 
  2985 ;;  min             1    0        unsigned char 
  2986 ;;  sec             1    0        unsigned char 
  2987 ;; Return value:  Size  Location     Type
  2988 ;;                  1    wreg      void 
  2989 ;; Registers used:
  2990 ;;		wreg, fsr0l, fsr0h, fsr1l, fsr1h, fsr1l, fsr1h, status,2, status,0, pclath, cstack
  2991 ;; Tracked objects:
  2992 ;;		On entry : B1F/0
  2993 ;;		On exit  : 0/0
  2994 ;;		Unchanged: 0/0
  2995 ;; Data sizes:     COMMON   BANK0   BANK1   BANK2   BANK3   BANK4   BANK5   BANK6   BANK7   BANK8   BANK9  BANK10  BANK1
      +1  BANK12  BANK13  BANK14  BANK15  BANK16  BANK17  BANK18  BANK19  BANK20  BANK21  BANK22  BANK23  BANK24  BANK25
  2996 ;;      Params:         0       0       0       0       0       0       0       0       0       0       0       0       
      +0       0       0       0       0       0       0       0       0       0       0       0       0       0       0
  2997 ;;      Locals:         0      19       0       0       0       0       0       0       0       0       0       0       
      +0       0       0       0       0       0       0       0       0       0       0       0       0       0       0
  2998 ;;      Temps:          0       2       0       0       0       0       0       0       0       0       0       0       
      +0       0       0       0       0       0       0       0       0       0       0       0       0       0       0
  2999 ;;      Totals:         0      21       0       0       0       0       0       0       0       0       0       0       
      +0       0       0       0       0       0       0       0       0       0       0       0       0       0       0
  3000 ;;Total ram usage:       21 bytes
  3001 ;; Hardware stack levels required when called: 6
  3002 ;; This function calls:
  3003 ;;		_DS1302_Initialize
  3004 ;;		_DS1302_ReadByte
  3005 ;;		_DS1302_Reset
  3006 ;;		_DS1302_WriteByte
  3007 ;;		_I2C_Init
  3008 ;;		_OLED_Clear
  3009 ;;		_OLED_ClearFast
  3010 ;;		_OLED_Init
  3011 ;;		_OLED_WriteString
  3012 ;;		___awdiv
  3013 ;;		___awmod
  3014 ;;		_get_dec
  3015 ;;		_initMain
  3016 ;; This function is called by:
  3017 ;;		Startup code after reset
  3018 ;; This function uses a non-reentrant model
  3019 ;;
  3020                           
  3021     0696                     _main:	
  3022                           ;psect for function _main
  3023                           
  3024     0696                     l2818:	
  3025                           ;incstack = 0
  3026                           ; Regs used in _main: [allreg]
  3027                           
  3028                           
  3029                           ;main.c: 61:     initMain();
  3030     0696  3183  23DB  3186   	fcall	_initMain
  3031                           
  3032                           ;main.c: 63:     I2C_Init();
  3033     0699  3182  2214  3186   	fcall	_I2C_Init
  3034     069C                     l2820:
  3035                           
  3036                           ;main.c: 65:     _delay((unsigned long)((500)*(32000000/4000.0)));
  3037     069C  3015               	movlw	21
  3038     069D  0020               	movlb	0	; select bank0
  3039     069E  00AF               	movwf	??_main+1
  3040     069F  304B               	movlw	75
  3041     06A0  00AE               	movwf	??_main
  3042     06A1  30BE               	movlw	190
  3043     06A2                     u2357:
  3044     06A2  0B89               	decfsz	9,f
  3045     06A3  2EA2               	goto	u2357
  3046     06A4  0BAE               	decfsz	??_main,f
  3047     06A5  2EA2               	goto	u2357
  3048     06A6  0BAF               	decfsz	??_main+1,f
  3049     06A7  2EA2               	goto	u2357
  3050     06A8  0000               	nop
  3051     06A9                     l2822:
  3052                           
  3053                           ;main.c: 67:     OLED_Init();
  3054     06A9  3186  2622  3186   	fcall	_OLED_Init
  3055     06AC                     l2824:
  3056                           
  3057                           ;main.c: 68:     _delay((unsigned long)((200)*(32000000/4000.0)));
  3058     06AC  3009               	movlw	9
  3059     06AD  0020               	movlb	0	; select bank0
  3060     06AE  00AF               	movwf	??_main+1
  3061     06AF  301E               	movlw	30
  3062     06B0  00AE               	movwf	??_main
  3063     06B1  30E4               	movlw	228
  3064     06B2                     u2367:
  3065     06B2  0B89               	decfsz	9,f
  3066     06B3  2EB2               	goto	u2367
  3067     06B4  0BAE               	decfsz	??_main,f
  3068     06B5  2EB2               	goto	u2367
  3069     06B6  0BAF               	decfsz	??_main+1,f
  3070     06B7  2EB2               	goto	u2367
  3071     06B8  0000               	nop
  3072     06B9                     l2826:
  3073                           
  3074                           ;main.c: 69:     OLED_Clear();
  3075     06B9  3184  2411  3186   	fcall	_OLED_Clear
  3076     06BC                     l2828:
  3077                           
  3078                           ;main.c: 70:     _delay((unsigned long)((200)*(32000000/4000.0)));
  3079     06BC  3009               	movlw	9
  3080     06BD  0020               	movlb	0	; select bank0
  3081     06BE  00AF               	movwf	??_main+1
  3082     06BF  301E               	movlw	30
  3083     06C0  00AE               	movwf	??_main
  3084     06C1  30E4               	movlw	228
  3085     06C2                     u2377:
  3086     06C2  0B89               	decfsz	9,f
  3087     06C3  2EC2               	goto	u2377
  3088     06C4  0BAE               	decfsz	??_main,f
  3089     06C5  2EC2               	goto	u2377
  3090     06C6  0BAF               	decfsz	??_main+1,f
  3091     06C7  2EC2               	goto	u2377
  3092     06C8  0000               	nop
  3093     06C9                     l2830:
  3094     06C9                     l2832:
  3095     06C9                     l2834:
  3096     06C9                     l2836:
  3097     06C9                     l2838:
  3098     06C9                     l2840:
  3099     06C9                     l2842:
  3100     06C9                     l2844:
  3101                           
  3102                           ;main.c: 81:     DS1302_Initialize(sec, min, hr, day, date, month, year);
  3103     06C9  303B               	movlw	59
  3104     06CA  0020               	movlb	0	; select bank0
  3105     06CB  00A0               	movwf	DS1302_Initialize@min
  3106     06CC  300A               	movlw	10
  3107     06CD  00A1               	movwf	DS1302_Initialize@hr
  3108     06CE  3002               	movlw	2
  3109     06CF  00A2               	movwf	DS1302_Initialize@day
  3110     06D0  3012               	movlw	18
  3111     06D1  00A3               	movwf	DS1302_Initialize@date
  3112     06D2  3004               	movlw	4
  3113     06D3  00A4               	movwf	DS1302_Initialize@mth
  3114     06D4  3011               	movlw	17
  3115     06D5  00A5               	movwf	DS1302_Initialize@year
  3116     06D6  3000               	movlw	0
  3117     06D7  3185  25AE  3186   	fcall	_DS1302_Initialize
  3118     06DA                     l2846:
  3119                           
  3120                           ;main.c: 84:     {;main.c: 85:         unsigned char yr1, mn1, date1, dy1, hr1, min1, se
      +                          c1;;main.c: 86:         unsigned char yr2, mn2, date2, dy2, hr2, min2, sec2;;main.c: 87:
      +                                   unsigned char line1[9];;main.c: 90:         DS1302_Reset();
  3121     06DA  3181  21F3  3186   	fcall	_DS1302_Reset
  3122     06DD                     l2848:
  3123                           
  3124                           ;main.c: 91:         DS1302_WriteByte(0xBF);
  3125     06DD  30BF               	movlw	191
  3126     06DE  3182  2252  3186   	fcall	_DS1302_WriteByte
  3127     06E1                     l2850:
  3128                           
  3129                           ;main.c: 93:         sec1 = DS1302_ReadByte();
  3130     06E1  3183  2331  3186   	fcall	_DS1302_ReadByte
  3131     06E4  0020               	movlb	0	; select bank0
  3132     06E5  00BF               	movwf	main@sec1
  3133     06E6                     l2852:
  3134                           
  3135                           ;main.c: 94:         min1 = DS1302_ReadByte();
  3136     06E6  3183  2331  3186   	fcall	_DS1302_ReadByte
  3137     06E9  0020               	movlb	0	; select bank0
  3138     06EA  00BE               	movwf	main@min1
  3139     06EB                     l2854:
  3140                           
  3141                           ;main.c: 95:         hr1 = DS1302_ReadByte();
  3142     06EB  3183  2331  3186   	fcall	_DS1302_ReadByte
  3143     06EE  0020               	movlb	0	; select bank0
  3144     06EF  00BD               	movwf	main@hr1
  3145     06F0                     l2856:
  3146                           
  3147                           ;main.c: 96:         date1 = DS1302_ReadByte();
  3148     06F0  3183  2331  3186   	fcall	_DS1302_ReadByte
  3149     06F3  0020               	movlb	0	; select bank0
  3150     06F4  00BB               	movwf	main@date1
  3151     06F5                     l2858:
  3152                           
  3153                           ;main.c: 97:         mn1 = DS1302_ReadByte();
  3154     06F5  3183  2331  3186   	fcall	_DS1302_ReadByte
  3155     06F8  0020               	movlb	0	; select bank0
  3156     06F9  00BA               	movwf	main@mn1
  3157     06FA                     l2860:
  3158                           
  3159                           ;main.c: 98:         dy1 = DS1302_ReadByte();
  3160     06FA  3183  2331  3186   	fcall	_DS1302_ReadByte
  3161     06FD  0020               	movlb	0	; select bank0
  3162     06FE  00BC               	movwf	main@dy1
  3163     06FF                     l2862:
  3164                           
  3165                           ;main.c: 99:         yr1 = DS1302_ReadByte();
  3166     06FF  3183  2331  3186   	fcall	_DS1302_ReadByte
  3167     0702  0020               	movlb	0	; select bank0
  3168     0703  00B9               	movwf	main@yr1
  3169     0704                     l2864:
  3170                           
  3171                           ;main.c: 101:         DS1302_Reset();
  3172     0704  3181  21F3  3186   	fcall	_DS1302_Reset
  3173     0707                     l2866:
  3174     0707  0020               	movlb	0	; select bank0
  3175     0708  0839               	movf	main@yr1,w
  3176     0709  3182  223D  3186   	fcall	_get_dec
  3177     070C                     l2868:
  3178     070C  0020               	movlb	0	; select bank0
  3179     070D  083A               	movf	main@mn1,w
  3180     070E  3182  223D  3186   	fcall	_get_dec
  3181     0711                     l2870:
  3182     0711  0020               	movlb	0	; select bank0
  3183     0712  083B               	movf	main@date1,w
  3184     0713  3182  223D  3186   	fcall	_get_dec
  3185     0716                     l2872:
  3186     0716  0020               	movlb	0	; select bank0
  3187     0717  083C               	movf	main@dy1,w
  3188     0718  3182  223D  3186   	fcall	_get_dec
  3189     071B                     l2874:
  3190                           
  3191                           ;main.c: 108:         hr2 = get_dec(hr1);
  3192     071B  0020               	movlb	0	; select bank0
  3193     071C  083D               	movf	main@hr1,w
  3194     071D  3182  223D  3186   	fcall	_get_dec
  3195     0720  0020               	movlb	0	; select bank0
  3196     0721  00C0               	movwf	main@hr2
  3197     0722                     l2876:
  3198                           
  3199                           ;main.c: 109:         min2 = get_dec(min1);
  3200     0722  083E               	movf	main@min1,w
  3201     0723  3182  223D  3186   	fcall	_get_dec
  3202     0726  0020               	movlb	0	; select bank0
  3203     0727  00C1               	movwf	main@min2
  3204     0728                     l2878:
  3205                           
  3206                           ;main.c: 110:         sec2 = get_dec(sec1);
  3207     0728  083F               	movf	main@sec1,w
  3208     0729  3182  223D  3186   	fcall	_get_dec
  3209     072C  0020               	movlb	0	; select bank0
  3210     072D  00C2               	movwf	main@sec2
  3211     072E                     l2880:
  3212                           
  3213                           ;main.c: 113:         line1[0] = ((hr2 / 10) % 10) + '0';
  3214     072E  300A               	movlw	10
  3215     072F  00F9               	movwf	___awmod@divisor
  3216     0730  3000               	movlw	0
  3217     0731  00FA               	movwf	___awmod@divisor+1
  3218     0732  300A               	movlw	10
  3219     0733  00F0               	movwf	___awdiv@divisor
  3220     0734  3000               	movlw	0
  3221     0735  00F1               	movwf	___awdiv@divisor+1
  3222     0736  0840               	movf	main@hr2,w
  3223     0737  00AE               	movwf	??_main
  3224     0738  01AF               	clrf	??_main+1
  3225     0739  082E               	movf	??_main,w
  3226     073A  00F2               	movwf	___awdiv@dividend
  3227     073B  082F               	movf	??_main+1,w
  3228     073C  00F3               	movwf	___awdiv@dividend+1
  3229     073D  3185  254F  3186   	fcall	___awdiv
  3230     0740  0871               	movf	?___awdiv+1,w
  3231     0741  00FC               	movwf	___awmod@dividend+1
  3232     0742  0870               	movf	?___awdiv,w
  3233     0743  00FB               	movwf	___awmod@dividend
  3234     0744  3184  24FB  3186   	fcall	___awmod
  3235     0747  0879               	movf	?___awmod,w
  3236     0748  3E30               	addlw	48
  3237     0749  0020               	movlb	0	; select bank0
  3238     074A  00B0               	movwf	main@line1
  3239     074B                     l2882:
  3240                           
  3241                           ;main.c: 114:         line1[1] = ( hr2 % 10) + '0';
  3242     074B  300A               	movlw	10
  3243     074C  00F9               	movwf	___awmod@divisor
  3244     074D  3000               	movlw	0
  3245     074E  00FA               	movwf	___awmod@divisor+1
  3246     074F  0840               	movf	main@hr2,w
  3247     0750  00AE               	movwf	??_main
  3248     0751  01AF               	clrf	??_main+1
  3249     0752  082E               	movf	??_main,w
  3250     0753  00FB               	movwf	___awmod@dividend
  3251     0754  082F               	movf	??_main+1,w
  3252     0755  00FC               	movwf	___awmod@dividend+1
  3253     0756  3184  24FB  3186   	fcall	___awmod
  3254     0759  0879               	movf	?___awmod,w
  3255     075A  3E30               	addlw	48
  3256     075B  0020               	movlb	0	; select bank0
  3257     075C  00B1               	movwf	main@line1+1
  3258     075D                     l2884:
  3259                           
  3260                           ;main.c: 115:         line1[2] = ':';
  3261     075D  303A               	movlw	58
  3262     075E  00B2               	movwf	main@line1+2
  3263     075F                     l2886:
  3264                           
  3265                           ;main.c: 116:         line1[3] = ((min2 / 10) % 10) + '0';
  3266     075F  300A               	movlw	10
  3267     0760  00F9               	movwf	___awmod@divisor
  3268     0761  3000               	movlw	0
  3269     0762  00FA               	movwf	___awmod@divisor+1
  3270     0763  300A               	movlw	10
  3271     0764  00F0               	movwf	___awdiv@divisor
  3272     0765  3000               	movlw	0
  3273     0766  00F1               	movwf	___awdiv@divisor+1
  3274     0767  0841               	movf	main@min2,w
  3275     0768  00AE               	movwf	??_main
  3276     0769  01AF               	clrf	??_main+1
  3277     076A  082E               	movf	??_main,w
  3278     076B  00F2               	movwf	___awdiv@dividend
  3279     076C  082F               	movf	??_main+1,w
  3280     076D  00F3               	movwf	___awdiv@dividend+1
  3281     076E  3185  254F  3186   	fcall	___awdiv
  3282     0771  0871               	movf	?___awdiv+1,w
  3283     0772  00FC               	movwf	___awmod@dividend+1
  3284     0773  0870               	movf	?___awdiv,w
  3285     0774  00FB               	movwf	___awmod@dividend
  3286     0775  3184  24FB  3186   	fcall	___awmod
  3287     0778  0879               	movf	?___awmod,w
  3288     0779  3E30               	addlw	48
  3289     077A  0020               	movlb	0	; select bank0
  3290     077B  00B3               	movwf	main@line1+3
  3291     077C                     l2888:
  3292                           
  3293                           ;main.c: 117:         line1[4] = ( min2 % 10) + '0';
  3294     077C  300A               	movlw	10
  3295     077D  00F9               	movwf	___awmod@divisor
  3296     077E  3000               	movlw	0
  3297     077F  00FA               	movwf	___awmod@divisor+1
  3298     0780  0841               	movf	main@min2,w
  3299     0781  00AE               	movwf	??_main
  3300     0782  01AF               	clrf	??_main+1
  3301     0783  082E               	movf	??_main,w
  3302     0784  00FB               	movwf	___awmod@dividend
  3303     0785  082F               	movf	??_main+1,w
  3304     0786  00FC               	movwf	___awmod@dividend+1
  3305     0787  3184  24FB  3186   	fcall	___awmod
  3306     078A  0879               	movf	?___awmod,w
  3307     078B  3E30               	addlw	48
  3308     078C  0020               	movlb	0	; select bank0
  3309     078D  00B4               	movwf	main@line1+4
  3310     078E                     l2890:
  3311                           
  3312                           ;main.c: 118:         line1[5] = ':';
  3313     078E  303A               	movlw	58
  3314     078F  00B5               	movwf	main@line1+5
  3315     0790                     l2892:
  3316                           
  3317                           ;main.c: 119:         line1[6] = ((sec2 / 10) % 10) + '0';
  3318     0790  300A               	movlw	10
  3319     0791  00F9               	movwf	___awmod@divisor
  3320     0792  3000               	movlw	0
  3321     0793  00FA               	movwf	___awmod@divisor+1
  3322     0794  300A               	movlw	10
  3323     0795  00F0               	movwf	___awdiv@divisor
  3324     0796  3000               	movlw	0
  3325     0797  00F1               	movwf	___awdiv@divisor+1
  3326     0798  0842               	movf	main@sec2,w
  3327     0799  00AE               	movwf	??_main
  3328     079A  01AF               	clrf	??_main+1
  3329     079B  082E               	movf	??_main,w
  3330     079C  00F2               	movwf	___awdiv@dividend
  3331     079D  082F               	movf	??_main+1,w
  3332     079E  00F3               	movwf	___awdiv@dividend+1
  3333     079F  3185  254F  3186   	fcall	___awdiv
  3334     07A2  0871               	movf	?___awdiv+1,w
  3335     07A3  00FC               	movwf	___awmod@dividend+1
  3336     07A4  0870               	movf	?___awdiv,w
  3337     07A5  00FB               	movwf	___awmod@dividend
  3338     07A6  3184  24FB  3186   	fcall	___awmod
  3339     07A9  0879               	movf	?___awmod,w
  3340     07AA  3E30               	addlw	48
  3341     07AB  0020               	movlb	0	; select bank0
  3342     07AC  00B6               	movwf	main@line1+6
  3343     07AD                     l2894:
  3344                           
  3345                           ;main.c: 120:         line1[7] = ( sec2 % 10) + '0';
  3346     07AD  300A               	movlw	10
  3347     07AE  00F9               	movwf	___awmod@divisor
  3348     07AF  3000               	movlw	0
  3349     07B0  00FA               	movwf	___awmod@divisor+1
  3350     07B1  0842               	movf	main@sec2,w
  3351     07B2  00AE               	movwf	??_main
  3352     07B3  01AF               	clrf	??_main+1
  3353     07B4  082E               	movf	??_main,w
  3354     07B5  00FB               	movwf	___awmod@dividend
  3355     07B6  082F               	movf	??_main+1,w
  3356     07B7  00FC               	movwf	___awmod@dividend+1
  3357     07B8  3184  24FB  3186   	fcall	___awmod
  3358     07BB  0879               	movf	?___awmod,w
  3359     07BC  3E30               	addlw	48
  3360     07BD  0020               	movlb	0	; select bank0
  3361     07BE  00B7               	movwf	main@line1+7
  3362     07BF                     l2896:
  3363                           
  3364                           ;main.c: 121:         line1[8] = '\0';
  3365     07BF  01B8               	clrf	main@line1+8
  3366     07C0                     l2898:
  3367                           
  3368                           ;main.c: 124:         OLED_WriteString("Time:", 0, 0);
  3369     07C0  3080               	movlw	low (STR_1| (0+32768))
  3370     07C1  00A0               	movwf	OLED_WriteString@s
  3371     07C2  308B               	movlw	high (STR_1| (0+32768))
  3372     07C3  00A1               	movwf	OLED_WriteString@s+1
  3373     07C4  01A2               	clrf	OLED_WriteString@page
  3374     07C5  01A3               	clrf	OLED_WriteString@col_char
  3375     07C6  3184  245E  3186   	fcall	_OLED_WriteString
  3376     07C9                     l2900:
  3377                           
  3378                           ;main.c: 125:         OLED_WriteString((const char*)line1, 0, 6);
  3379     07C9  3030               	movlw	low main@line1
  3380     07CA  0020               	movlb	0	; select bank0
  3381     07CB  00A0               	movwf	OLED_WriteString@s
  3382     07CC  3000               	movlw	high main@line1
  3383     07CD  00A1               	movwf	OLED_WriteString@s+1
  3384     07CE  01A2               	clrf	OLED_WriteString@page
  3385     07CF  3006               	movlw	6
  3386     07D0  00A3               	movwf	OLED_WriteString@col_char
  3387     07D1  3184  245E  3186   	fcall	_OLED_WriteString
  3388     07D4                     l2902:
  3389                           
  3390                           ;main.c: 127:         _delay((unsigned long)((100)*(32000000/4000.0)));
  3391     07D4  3005               	movlw	5
  3392     07D5  0020               	movlb	0	; select bank0
  3393     07D6  00AF               	movwf	??_main+1
  3394     07D7  300F               	movlw	15
  3395     07D8  00AE               	movwf	??_main
  3396     07D9  30F1               	movlw	241
  3397     07DA                     u2387:
  3398     07DA  0B89               	decfsz	9,f
  3399     07DB  2FDA               	goto	u2387
  3400     07DC  0BAE               	decfsz	??_main,f
  3401     07DD  2FDA               	goto	u2387
  3402     07DE  0BAF               	decfsz	??_main+1,f
  3403     07DF  2FDA               	goto	u2387
  3404     07E0                     l2904:
  3405                           
  3406                           ;main.c: 128:         OLED_ClearFast();
  3407     07E0  3180  2000  3186   	fcall	_OLED_ClearFast
  3408     07E3                     l2906:
  3409                           
  3410                           ;main.c: 129:         _delay((unsigned long)((100)*(32000000/4000.0)));
  3411     07E3  3005               	movlw	5
  3412     07E4  0020               	movlb	0	; select bank0
  3413     07E5  00AF               	movwf	??_main+1
  3414     07E6  300F               	movlw	15
  3415     07E7  00AE               	movwf	??_main
  3416     07E8  30F1               	movlw	241
  3417     07E9                     u2397:
  3418     07E9  0B89               	decfsz	9,f
  3419     07EA  2FE9               	goto	u2397
  3420     07EB  0BAE               	decfsz	??_main,f
  3421     07EC  2FE9               	goto	u2397
  3422     07ED  0BAF               	decfsz	??_main+1,f
  3423     07EE  2FE9               	goto	u2397
  3424     07EF  2EDA               	goto	l2846
  3425     07F0  3180  2803         	ljmp	start
  3426     07F2                     __end_of_main:
  3427                           
  3428                           	psect	text1
  3429     03DB                     __ptext1:	
  3430 ;; *************** function _initMain *****************
  3431 ;; Defined at:
  3432 ;;		line 7 in file "main.c"
  3433 ;; Parameters:    Size  Location     Type
  3434 ;;		None
  3435 ;; Auto vars:     Size  Location     Type
  3436 ;;		None
  3437 ;; Return value:  Size  Location     Type
  3438 ;;                  1    wreg      void 
  3439 ;; Registers used:
  3440 ;;		wreg, status,2, status,0, pclath, cstack
  3441 ;; Tracked objects:
  3442 ;;		On entry : 0/0
  3443 ;;		On exit  : 0/0
  3444 ;;		Unchanged: 0/0
  3445 ;; Data sizes:     COMMON   BANK0   BANK1   BANK2   BANK3   BANK4   BANK5   BANK6   BANK7   BANK8   BANK9  BANK10  BANK1
      +1  BANK12  BANK13  BANK14  BANK15  BANK16  BANK17  BANK18  BANK19  BANK20  BANK21  BANK22  BANK23  BANK24  BANK25
  3446 ;;      Params:         0       0       0       0       0       0       0       0       0       0       0       0       
      +0       0       0       0       0       0       0       0       0       0       0       0       0       0       0
  3447 ;;      Locals:         0       0       0       0       0       0       0       0       0       0       0       0       
      +0       0       0       0       0       0       0       0       0       0       0       0       0       0       0
  3448 ;;      Temps:          0       0       0       0       0       0       0       0       0       0       0       0       
      +0       0       0       0       0       0       0       0       0       0       0       0       0       0       0
  3449 ;;      Totals:         0       0       0       0       0       0       0       0       0       0       0       0       
      +0       0       0       0       0       0       0       0       0       0       0       0       0       0       0
  3450 ;;Total ram usage:        0 bytes
  3451 ;; Hardware stack levels used: 1
  3452 ;; Hardware stack levels required when called: 1
  3453 ;; This function calls:
  3454 ;;		_internal_16
  3455 ;; This function is called by:
  3456 ;;		_main
  3457 ;; This function uses a non-reentrant model
  3458 ;;
  3459                           
  3460     03DB                     _initMain:	
  3461                           ;psect for function _initMain
  3462                           
  3463     03DB                     l2304:	
  3464                           ;incstack = 0
  3465                           ; Regs used in _initMain: [wreg+status,2+status,0+pclath+cstack]
  3466                           
  3467                           
  3468                           ;main.c: 10:     internal_16();
  3469     03DB  3181  21FF  3183   	fcall	_internal_16
  3470     03DE                     l2306:
  3471                           
  3472                           ;main.c: 16:     ANSELCbits.ANSC4 = 0;
  3473     03DE  0023               	movlb	3	; select bank3
  3474     03DF  120E               	bcf	14,4	;volatile
  3475     03E0                     l2308:
  3476                           
  3477                           ;main.c: 17:     ANSELCbits.ANSC5 = 0;
  3478     03E0  128E               	bcf	14,5	;volatile
  3479     03E1                     l2310:
  3480                           
  3481                           ;main.c: 19:     TRISCbits.TRISC4 = 1;
  3482     03E1  0021               	movlb	1	; select bank1
  3483     03E2  160E               	bsf	14,4	;volatile
  3484     03E3                     l2312:
  3485                           
  3486                           ;main.c: 20:     TRISCbits.TRISC5 = 1;
  3487     03E3  168E               	bsf	14,5	;volatile
  3488     03E4                     l2314:
  3489                           
  3490                           ;main.c: 22:     PPSLOCK = 0x55;
  3491     03E4  3055               	movlw	85
  3492     03E5  003C               	movlb	28	; select bank28
  3493     03E6  008F               	movwf	15	;volsfr
  3494     03E7                     l2316:
  3495                           
  3496                           ;main.c: 23:     PPSLOCK = 0xAA;
  3497     03E7  30AA               	movlw	170
  3498     03E8  008F               	movwf	15	;volsfr
  3499     03E9                     l2318:
  3500                           
  3501                           ;main.c: 24:     PPSLOCKbits.PPSLOCKED = 0x00;
  3502     03E9  100F               	bcf	15,0	;volsfr
  3503     03EA                     l2320:
  3504                           
  3505                           ;main.c: 26:     RC4PPSbits.RC4PPS = 0x0011;
  3506     03EA  003D               	movlb	29	; select bank29
  3507     03EB  0824               	movf	36,w	;volatile
  3508     03EC  39E0               	andlw	-32
  3509     03ED  3811               	iorlw	17
  3510     03EE  00A4               	movwf	36	;volatile
  3511     03EF                     l2322:
  3512                           
  3513                           ;main.c: 27:     SSPDATPPSbits.SSPDATPPS = 0x0014;
  3514     03EF  003C               	movlb	28	; select bank28
  3515     03F0  0821               	movf	33,w	;volatile
  3516     03F1  39E0               	andlw	-32
  3517     03F2  3814               	iorlw	20
  3518     03F3  00A1               	movwf	33	;volatile
  3519     03F4                     l2324:
  3520                           
  3521                           ;main.c: 29:     SSPCLKPPSbits.SSPCLKPPS = 0x0015;
  3522     03F4  0820               	movf	32,w	;volatile
  3523     03F5  39E0               	andlw	-32
  3524     03F6  3815               	iorlw	21
  3525     03F7  00A0               	movwf	32	;volatile
  3526     03F8                     l2326:
  3527                           
  3528                           ;main.c: 30:     RC5PPSbits.RC5PPS = 0x0010;
  3529     03F8  003D               	movlb	29	; select bank29
  3530     03F9  0825               	movf	37,w	;volatile
  3531     03FA  39E0               	andlw	-32
  3532     03FB  3810               	iorlw	16
  3533     03FC  00A5               	movwf	37	;volatile
  3534     03FD                     l2328:
  3535                           
  3536                           ;main.c: 32:     PPSLOCK = 0x55;
  3537     03FD  3055               	movlw	85
  3538     03FE  003C               	movlb	28	; select bank28
  3539     03FF  008F               	movwf	15	;volsfr
  3540     0400                     l2330:
  3541                           
  3542                           ;main.c: 33:     PPSLOCK = 0xAA;
  3543     0400  30AA               	movlw	170
  3544     0401  008F               	movwf	15	;volsfr
  3545     0402                     l2332:
  3546                           
  3547                           ;main.c: 34:     PPSLOCKbits.PPSLOCKED = 0x01;
  3548     0402  140F               	bsf	15,0	;volsfr
  3549     0403                     l2334:
  3550                           
  3551                           ;main.c: 41:     ANSELBbits.ANSB0 = 0;
  3552     0403  0023               	movlb	3	; select bank3
  3553     0404  100D               	bcf	13,0	;volatile
  3554     0405                     l2336:
  3555                           
  3556                           ;main.c: 42:     ANSELBbits.ANSB1 = 0;
  3557     0405  108D               	bcf	13,1	;volatile
  3558     0406                     l2338:
  3559                           
  3560                           ;main.c: 43:     ANSELBbits.ANSB2 = 0;
  3561     0406  110D               	bcf	13,2	;volatile
  3562     0407                     l2340:
  3563                           
  3564                           ;main.c: 47:     TRISBbits.TRISB0 = 0;
  3565     0407  0021               	movlb	1	; select bank1
  3566     0408  100D               	bcf	13,0	;volatile
  3567     0409                     l2342:
  3568                           
  3569                           ;main.c: 48:     TRISBbits.TRISB1 = 0;
  3570     0409  108D               	bcf	13,1	;volatile
  3571     040A                     l2344:
  3572                           
  3573                           ;main.c: 51:     TRISBbits.TRISB2 = 0;
  3574     040A  110D               	bcf	13,2	;volatile
  3575     040B                     l2346:
  3576                           
  3577                           ;main.c: 54:     LATBbits.LATB0 = 0;
  3578     040B  0022               	movlb	2	; select bank2
  3579     040C  100D               	bcf	13,0	;volatile
  3580     040D                     l2348:
  3581                           
  3582                           ;main.c: 55:     LATBbits.LATB1 = 0;
  3583     040D  108D               	bcf	13,1	;volatile
  3584     040E                     l2350:
  3585                           
  3586                           ;main.c: 56:     PORTBbits.RB2 = 0;
  3587     040E  0020               	movlb	0	; select bank0
  3588     040F  110D               	bcf	13,2	;volatile
  3589     0410                     l349:
  3590     0410  0008               	return
  3591     0411                     __end_of_initMain:
  3592                           
  3593                           	psect	text2
  3594     01FF                     __ptext2:	
  3595 ;; *************** function _internal_16 *****************
  3596 ;; Defined at:
  3597 ;;		line 61 in file "PIC16F1718_Internal.c"
  3598 ;; Parameters:    Size  Location     Type
  3599 ;;		None
  3600 ;; Auto vars:     Size  Location     Type
  3601 ;;		None
  3602 ;; Return value:  Size  Location     Type
  3603 ;;                  1    wreg      void 
  3604 ;; Registers used:
  3605 ;;		None
  3606 ;; Tracked objects:
  3607 ;;		On entry : 0/0
  3608 ;;		On exit  : 0/0
  3609 ;;		Unchanged: 0/0
  3610 ;; Data sizes:     COMMON   BANK0   BANK1   BANK2   BANK3   BANK4   BANK5   BANK6   BANK7   BANK8   BANK9  BANK10  BANK1
      +1  BANK12  BANK13  BANK14  BANK15  BANK16  BANK17  BANK18  BANK19  BANK20  BANK21  BANK22  BANK23  BANK24  BANK25
  3611 ;;      Params:         0       0       0       0       0       0       0       0       0       0       0       0       
      +0       0       0       0       0       0       0       0       0       0       0       0       0       0       0
  3612 ;;      Locals:         0       0       0       0       0       0       0       0       0       0       0       0       
      +0       0       0       0       0       0       0       0       0       0       0       0       0       0       0
  3613 ;;      Temps:          0       0       0       0       0       0       0       0       0       0       0       0       
      +0       0       0       0       0       0       0       0       0       0       0       0       0       0       0
  3614 ;;      Totals:         0       0       0       0       0       0       0       0       0       0       0       0       
      +0       0       0       0       0       0       0       0       0       0       0       0       0       0       0
  3615 ;;Total ram usage:        0 bytes
  3616 ;; Hardware stack levels used: 1
  3617 ;; This function calls:
  3618 ;;		Nothing
  3619 ;; This function is called by:
  3620 ;;		_initMain
  3621 ;; This function uses a non-reentrant model
  3622 ;;
  3623                           
  3624     01FF                     _internal_16:	
  3625                           ;psect for function _internal_16
  3626                           
  3627     01FF                     l2186:	
  3628                           ;incstack = 0
  3629                           ; Regs used in _internal_16: []
  3630                           
  3631                           
  3632                           ;PIC16F1718_Internal.c: 63:     SCS0 = 0;
  3633     01FF  0021               	movlb	1	; select bank1
  3634     0200  1019               	bcf	25,0	;volatile
  3635                           
  3636                           ;PIC16F1718_Internal.c: 64:     SCS1 = 0;
  3637     0201  1099               	bcf	25,1	;volatile
  3638                           
  3639                           ;PIC16F1718_Internal.c: 67:     IRCF0 = 1;
  3640     0202  1599               	bsf	25,3	;volatile
  3641                           
  3642                           ;PIC16F1718_Internal.c: 68:     IRCF1 = 1;
  3643     0203  1619               	bsf	25,4	;volatile
  3644                           
  3645                           ;PIC16F1718_Internal.c: 69:     IRCF2 = 1;
  3646     0204  1699               	bsf	25,5	;volatile
  3647                           
  3648                           ;PIC16F1718_Internal.c: 70:     IRCF3 = 1;
  3649     0205  1719               	bsf	25,6	;volatile
  3650                           
  3651                           ;PIC16F1718_Internal.c: 73:     SPLLEN = 0;
  3652     0206  1399               	bcf	25,7	;volatile
  3653     0207                     l283:
  3654     0207  0008               	return
  3655     0208                     __end_of_internal_16:
  3656                           
  3657                           	psect	text3
  3658     023D                     __ptext3:	
  3659 ;; *************** function _get_dec *****************
  3660 ;; Defined at:
  3661 ;;		line 159 in file "ds1302.c"
  3662 ;; Parameters:    Size  Location     Type
  3663 ;;  var             1    wreg     unsigned char 
  3664 ;; Auto vars:     Size  Location     Type
  3665 ;;  var             1    6[COMMON] unsigned char 
  3666 ;;  var2            1    5[COMMON] unsigned char 
  3667 ;; Return value:  Size  Location     Type
  3668 ;;                  1    wreg      unsigned char 
  3669 ;; Registers used:
  3670 ;;		wreg, status,2, status,0, pclath, cstack
  3671 ;; Tracked objects:
  3672 ;;		On entry : 0/0
  3673 ;;		On exit  : 0/0
  3674 ;;		Unchanged: 0/0
  3675 ;; Data sizes:     COMMON   BANK0   BANK1   BANK2   BANK3   BANK4   BANK5   BANK6   BANK7   BANK8   BANK9  BANK10  BANK1
      +1  BANK12  BANK13  BANK14  BANK15  BANK16  BANK17  BANK18  BANK19  BANK20  BANK21  BANK22  BANK23  BANK24  BANK25
  3676 ;;      Params:         0       0       0       0       0       0       0       0       0       0       0       0       
      +0       0       0       0       0       0       0       0       0       0       0       0       0       0       0
  3677 ;;      Locals:         2       0       0       0       0       0       0       0       0       0       0       0       
      +0       0       0       0       0       0       0       0       0       0       0       0       0       0       0
  3678 ;;      Temps:          1       0       0       0       0       0       0       0       0       0       0       0       
      +0       0       0       0       0       0       0       0       0       0       0       0       0       0       0
  3679 ;;      Totals:         3       0       0       0       0       0       0       0       0       0       0       0       
      +0       0       0       0       0       0       0       0       0       0       0       0       0       0       0
  3680 ;;Total ram usage:        3 bytes
  3681 ;; Hardware stack levels used: 1
  3682 ;; Hardware stack levels required when called: 1
  3683 ;; This function calls:
  3684 ;;		___bmul
  3685 ;; This function is called by:
  3686 ;;		_main
  3687 ;; This function uses a non-reentrant model
  3688 ;;
  3689                           
  3690     023D                     _get_dec:	
  3691                           ;psect for function _get_dec
  3692                           
  3693                           
  3694                           ;incstack = 0
  3695                           ; Regs used in _get_dec: [wreg+status,2+status,0+pclath+cstack]
  3696                           ;get_dec@var stored from wreg
  3697     023D  00F6               	movwf	get_dec@var
  3698     023E                     l2408:
  3699                           
  3700                           ;ds1302.c: 159: unsigned char get_dec(byte var);ds1302.c: 160: {;ds1302.c: 161:     unsi
      +                          gned char var2;;ds1302.c: 163:     var2 = (var >> 4) * 10;
  3701     023E  300A               	movlw	10
  3702     023F  00F0               	movwf	___bmul@multiplicand
  3703     0240  0876               	movf	get_dec@var,w
  3704     0241  00F4               	movwf	??_get_dec
  3705     0242  3004               	movlw	4
  3706     0243                     u1675:
  3707     0243  36F4               	lsrf	??_get_dec,f
  3708     0244  0B89               	decfsz	9,f
  3709     0245  2A43               	goto	u1675
  3710     0246  0874               	movf	??_get_dec,w
  3711     0247  3182  2228  3182   	fcall	___bmul
  3712     024A  00F5               	movwf	get_dec@var2
  3713     024B                     l2410:
  3714                           
  3715                           ;ds1302.c: 164:     var2 += (var & 15);
  3716     024B  0876               	movf	get_dec@var,w
  3717     024C  390F               	andlw	15
  3718     024D  00F4               	movwf	??_get_dec
  3719     024E  0874               	movf	??_get_dec,w
  3720     024F  07F5               	addwf	get_dec@var2,f
  3721     0250                     l2412:
  3722                           
  3723                           ;ds1302.c: 166:     return var2;
  3724     0250  0875               	movf	get_dec@var2,w
  3725     0251                     l388:
  3726     0251  0008               	return
  3727     0252                     __end_of_get_dec:
  3728                           
  3729                           	psect	text4
  3730     04FB                     __ptext4:	
  3731 ;; *************** function ___awmod *****************
  3732 ;; Defined at:
  3733 ;;		line 5 in file "C:\Program Files\Microchip\xc8\v2.46\pic\sources\c99\common\awmod.c"
  3734 ;; Parameters:    Size  Location     Type
  3735 ;;  divisor         2    9[COMMON] int 
  3736 ;;  dividend        2   11[COMMON] int 
  3737 ;; Auto vars:     Size  Location     Type
  3738 ;;  sign            1    1[BANK0 ] unsigned char 
  3739 ;;  counter         1    0[BANK0 ] unsigned char 
  3740 ;; Return value:  Size  Location     Type
  3741 ;;                  2    9[COMMON] int 
  3742 ;; Registers used:
  3743 ;;		wreg, status,2, status,0
  3744 ;; Tracked objects:
  3745 ;;		On entry : 0/0
  3746 ;;		On exit  : 0/0
  3747 ;;		Unchanged: 0/0
  3748 ;; Data sizes:     COMMON   BANK0   BANK1   BANK2   BANK3   BANK4   BANK5   BANK6   BANK7   BANK8   BANK9  BANK10  BANK1
      +1  BANK12  BANK13  BANK14  BANK15  BANK16  BANK17  BANK18  BANK19  BANK20  BANK21  BANK22  BANK23  BANK24  BANK25
  3749 ;;      Params:         4       0       0       0       0       0       0       0       0       0       0       0       
      +0       0       0       0       0       0       0       0       0       0       0       0       0       0       0
  3750 ;;      Locals:         0       2       0       0       0       0       0       0       0       0       0       0       
      +0       0       0       0       0       0       0       0       0       0       0       0       0       0       0
  3751 ;;      Temps:          1       0       0       0       0       0       0       0       0       0       0       0       
      +0       0       0       0       0       0       0       0       0       0       0       0       0       0       0
  3752 ;;      Totals:         5       2       0       0       0       0       0       0       0       0       0       0       
      +0       0       0       0       0       0       0       0       0       0       0       0       0       0       0
  3753 ;;Total ram usage:        7 bytes
  3754 ;; Hardware stack levels used: 1
  3755 ;; This function calls:
  3756 ;;		Nothing
  3757 ;; This function is called by:
  3758 ;;		_main
  3759 ;;		_OLED_Printf_Line
  3760 ;; This function uses a non-reentrant model
  3761 ;;
  3762                           
  3763     04FB                     ___awmod:	
  3764                           ;psect for function ___awmod
  3765                           
  3766     04FB                     l2416:	
  3767                           ;incstack = 0
  3768                           ; Regs used in ___awmod: [wreg+status,2+status,0]
  3769                           
  3770     04FB  0020               	movlb	0	; select bank0
  3771     04FC  01A1               	clrf	___awmod@sign
  3772     04FD                     l2418:
  3773     04FD  1FFC               	btfss	___awmod@dividend+1,7
  3774     04FE  2D00               	goto	u1681
  3775     04FF  2D01               	goto	u1680
  3776     0500                     u1681:
  3777     0500  2D08               	goto	l2424
  3778     0501                     u1680:
  3779     0501                     l2420:
  3780     0501  09FB               	comf	___awmod@dividend,f
  3781     0502  09FC               	comf	___awmod@dividend+1,f
  3782     0503  0AFB               	incf	___awmod@dividend,f
  3783     0504  1903               	skipnz
  3784     0505  0AFC               	incf	___awmod@dividend+1,f
  3785     0506                     l2422:
  3786     0506  01A1               	clrf	___awmod@sign
  3787     0507  0AA1               	incf	___awmod@sign,f
  3788     0508                     l2424:
  3789     0508  1FFA               	btfss	___awmod@divisor+1,7
  3790     0509  2D0B               	goto	u1691
  3791     050A  2D0C               	goto	u1690
  3792     050B                     u1691:
  3793     050B  2D11               	goto	l2428
  3794     050C                     u1690:
  3795     050C                     l2426:
  3796     050C  09F9               	comf	___awmod@divisor,f
  3797     050D  09FA               	comf	___awmod@divisor+1,f
  3798     050E  0AF9               	incf	___awmod@divisor,f
  3799     050F  1903               	skipnz
  3800     0510  0AFA               	incf	___awmod@divisor+1,f
  3801     0511                     l2428:
  3802     0511  0879               	movf	___awmod@divisor,w
  3803     0512  047A               	iorwf	___awmod@divisor+1,w
  3804     0513  1903               	btfsc	3,2
  3805     0514  2D16               	goto	u1701
  3806     0515  2D17               	goto	u1700
  3807     0516                     u1701:
  3808     0516  2D40               	goto	l2446
  3809     0517                     u1700:
  3810     0517                     l2430:
  3811     0517  01A0               	clrf	___awmod@counter
  3812     0518  0AA0               	incf	___awmod@counter,f
  3813     0519  2D23               	goto	l2436
  3814     051A                     l2432:
  3815     051A  3001               	movlw	1
  3816     051B                     u1715:
  3817     051B  35F9               	lslf	___awmod@divisor,f
  3818     051C  0DFA               	rlf	___awmod@divisor+1,f
  3819     051D  0B89               	decfsz	9,f
  3820     051E  2D1B               	goto	u1715
  3821     051F                     l2434:
  3822     051F  3001               	movlw	1
  3823     0520  00FD               	movwf	??___awmod
  3824     0521  087D               	movf	??___awmod,w
  3825     0522  07A0               	addwf	___awmod@counter,f
  3826     0523                     l2436:
  3827     0523  1FFA               	btfss	___awmod@divisor+1,7
  3828     0524  2D26               	goto	u1721
  3829     0525  2D27               	goto	u1720
  3830     0526                     u1721:
  3831     0526  2D1A               	goto	l2432
  3832     0527                     u1720:
  3833     0527                     l2438:
  3834     0527  087A               	movf	___awmod@divisor+1,w
  3835     0528  027C               	subwf	___awmod@dividend+1,w
  3836     0529  1D03               	skipz
  3837     052A  2D2D               	goto	u1735
  3838     052B  0879               	movf	___awmod@divisor,w
  3839     052C  027B               	subwf	___awmod@dividend,w
  3840     052D                     u1735:
  3841     052D  1C03               	skipc
  3842     052E  2D30               	goto	u1731
  3843     052F  2D31               	goto	u1730
  3844     0530                     u1731:
  3845     0530  2D35               	goto	l2442
  3846     0531                     u1730:
  3847     0531                     l2440:
  3848     0531  0879               	movf	___awmod@divisor,w
  3849     0532  02FB               	subwf	___awmod@dividend,f
  3850     0533  087A               	movf	___awmod@divisor+1,w
  3851     0534  3BFC               	subwfb	___awmod@dividend+1,f
  3852     0535                     l2442:
  3853     0535  3001               	movlw	1
  3854     0536                     u1745:
  3855     0536  36FA               	lsrf	___awmod@divisor+1,f
  3856     0537  0CF9               	rrf	___awmod@divisor,f
  3857     0538  0B89               	decfsz	9,f
  3858     0539  2D36               	goto	u1745
  3859     053A                     l2444:
  3860     053A  3001               	movlw	1
  3861     053B  02A0               	subwf	___awmod@counter,f
  3862     053C  1D03               	btfss	3,2
  3863     053D  2D3F               	goto	u1751
  3864     053E  2D40               	goto	u1750
  3865     053F                     u1751:
  3866     053F  2D27               	goto	l2438
  3867     0540                     u1750:
  3868     0540                     l2446:
  3869     0540  0821               	movf	___awmod@sign,w
  3870     0541  1903               	btfsc	3,2
  3871     0542  2D44               	goto	u1761
  3872     0543  2D45               	goto	u1760
  3873     0544                     u1761:
  3874     0544  2D4A               	goto	l2450
  3875     0545                     u1760:
  3876     0545                     l2448:
  3877     0545  09FB               	comf	___awmod@dividend,f
  3878     0546  09FC               	comf	___awmod@dividend+1,f
  3879     0547  0AFB               	incf	___awmod@dividend,f
  3880     0548  1903               	skipnz
  3881     0549  0AFC               	incf	___awmod@dividend+1,f
  3882     054A                     l2450:
  3883     054A  087C               	movf	___awmod@dividend+1,w
  3884     054B  00FA               	movwf	?___awmod+1
  3885     054C  087B               	movf	___awmod@dividend,w
  3886     054D  00F9               	movwf	?___awmod
  3887     054E                     l622:
  3888     054E  0008               	return
  3889     054F                     __end_of___awmod:
  3890                           
  3891                           	psect	text5
  3892     045E                     __ptext5:	
  3893 ;; *************** function _OLED_WriteString *****************
  3894 ;; Defined at:
  3895 ;;		line 415 in file "OLED_SSD1306.c"
  3896 ;; Parameters:    Size  Location     Type
  3897 ;;  s               2    0[BANK0 ] PTR const unsigned char 
  3898 ;;		 -> STR_1(6), main@line1(9), 
  3899 ;;  page            1    2[BANK0 ] unsigned char 
  3900 ;;  col_char        1    3[BANK0 ] unsigned char 
  3901 ;; Auto vars:     Size  Location     Type
  3902 ;;  ch              1   12[COMMON] unsigned char 
  3903 ;; Return value:  Size  Location     Type
  3904 ;;                  1    wreg      void 
  3905 ;; Registers used:
  3906 ;;		wreg, fsr0l, fsr0h, status,2, status,0, pclath, cstack
  3907 ;; Tracked objects:
  3908 ;;		On entry : 0/0
  3909 ;;		On exit  : 0/0
  3910 ;;		Unchanged: 0/0
  3911 ;; Data sizes:     COMMON   BANK0   BANK1   BANK2   BANK3   BANK4   BANK5   BANK6   BANK7   BANK8   BANK9  BANK10  BANK1
      +1  BANK12  BANK13  BANK14  BANK15  BANK16  BANK17  BANK18  BANK19  BANK20  BANK21  BANK22  BANK23  BANK24  BANK25
  3912 ;;      Params:         0       4       0       0       0       0       0       0       0       0       0       0       
      +0       0       0       0       0       0       0       0       0       0       0       0       0       0       0
  3913 ;;      Locals:         1       0       0       0       0       0       0       0       0       0       0       0       
      +0       0       0       0       0       0       0       0       0       0       0       0       0       0       0
  3914 ;;      Temps:          0       4       0       0       0       0       0       0       0       0       0       0       
      +0       0       0       0       0       0       0       0       0       0       0       0       0       0       0
  3915 ;;      Totals:         1       8       0       0       0       0       0       0       0       0       0       0       
      +0       0       0       0       0       0       0       0       0       0       0       0       0       0       0
  3916 ;;Total ram usage:        9 bytes
  3917 ;; Hardware stack levels used: 1
  3918 ;; Hardware stack levels required when called: 4
  3919 ;; This function calls:
  3920 ;;		_OLED_WriteData
  3921 ;;		_OLED_YX
  3922 ;; This function is called by:
  3923 ;;		_main
  3924 ;; This function uses a non-reentrant model
  3925 ;;
  3926                           
  3927     045E                     _OLED_WriteString:	
  3928                           ;psect for function _OLED_WriteString
  3929                           
  3930     045E                     l2284:	
  3931                           ;incstack = 0
  3932                           ; Regs used in _OLED_WriteString: [wreg-fsr0h+status,2+status,0+pclath+cstack]
  3933                           
  3934                           
  3935                           ;OLED_SSD1306.c: 415: void OLED_WriteString(const char* s, uint8_t page, uint8_t col_cha
      +                          r);OLED_SSD1306.c: 416: {;OLED_SSD1306.c: 417:     if (s == ((void*)0)) return;
  3936     045E  0020               	movlb	0	; select bank0
  3937     045F  0820               	movf	OLED_WriteString@s,w
  3938     0460  0421               	iorwf	OLED_WriteString@s+1,w
  3939     0461  1D03               	btfss	3,2
  3940     0462  2C64               	goto	u1621
  3941     0463  2C65               	goto	u1620
  3942     0464                     u1621:
  3943     0464  2C66               	goto	l2288
  3944     0465                     u1620:
  3945     0465  2CAA               	goto	l161
  3946     0466                     l2288:
  3947                           
  3948                           ;OLED_SSD1306.c: 419:     OLED_YX(page, col_char);
  3949     0466  0823               	movf	OLED_WriteString@col_char,w
  3950     0467  00F7               	movwf	OLED_YX@col_char
  3951     0468  0822               	movf	OLED_WriteString@page,w
  3952     0469  3182  22A5  3184   	fcall	_OLED_YX
  3953                           
  3954                           ;OLED_SSD1306.c: 421:     while (*s)
  3955     046C  2CA0               	goto	l2302
  3956     046D                     l2290:
  3957                           
  3958                           ;OLED_SSD1306.c: 422:     {;OLED_SSD1306.c: 423:         char ch = *s++;
  3959     046D  0820               	movf	OLED_WriteString@s,w
  3960     046E  0084               	movwf	4
  3961     046F  0821               	movf	OLED_WriteString@s+1,w
  3962     0470  0085               	movwf	5
  3963     0471  0800               	movf	0,w	;code access
  3964     0472  00FC               	movwf	OLED_WriteString@ch
  3965     0473                     l2292:
  3966     0473  3001               	movlw	1
  3967     0474  07A0               	addwf	OLED_WriteString@s,f
  3968     0475  3000               	movlw	0
  3969     0476  3DA1               	addwfc	OLED_WriteString@s+1,f
  3970     0477                     l2294:
  3971                           
  3972                           ;OLED_SSD1306.c: 424:         if (ch < 32 || ch > 127) ch = ' ';
  3973     0477  3020               	movlw	32
  3974     0478  027C               	subwf	OLED_WriteString@ch,w
  3975     0479  1C03               	skipc
  3976     047A  2C7C               	goto	u1631
  3977     047B  2C7D               	goto	u1630
  3978     047C                     u1631:
  3979     047C  2C83               	goto	l2298
  3980     047D                     u1630:
  3981     047D                     l2296:
  3982     047D  3080               	movlw	128
  3983     047E  027C               	subwf	OLED_WriteString@ch,w
  3984     047F  1C03               	skipc
  3985     0480  2C82               	goto	u1641
  3986     0481  2C83               	goto	u1640
  3987     0482                     u1641:
  3988     0482  2C85               	goto	l2300
  3989     0483                     u1640:
  3990     0483                     l2298:
  3991     0483  3020               	movlw	32
  3992     0484  00FC               	movwf	OLED_WriteString@ch
  3993     0485                     l2300:
  3994                           
  3995                           ;OLED_SSD1306.c: 426:         (void)OLED_WriteData(&OledFont[(uint8_t)(ch - 32)][0], 8);
  3996     0485  087C               	movf	OLED_WriteString@ch,w
  3997     0486  3EE0               	addlw	224
  3998     0487  00A4               	movwf	??_OLED_WriteString
  3999     0488  01A5               	clrf	??_OLED_WriteString+1
  4000     0489  35A4               	lslf	??_OLED_WriteString,f
  4001     048A  0DA5               	rlf	??_OLED_WriteString+1,f
  4002     048B  35A4               	lslf	??_OLED_WriteString,f
  4003     048C  0DA5               	rlf	??_OLED_WriteString+1,f
  4004     048D  35A4               	lslf	??_OLED_WriteString,f
  4005     048E  0DA5               	rlf	??_OLED_WriteString+1,f
  4006     048F  3000               	movlw	low (_OledFont| (0+32768))
  4007     0490  00A6               	movwf	??_OLED_WriteString+2
  4008     0491  3088               	movlw	high (_OledFont| (0+32768))
  4009     0492  00A7               	movwf	??_OLED_WriteString+3
  4010     0493  0824               	movf	??_OLED_WriteString,w
  4011     0494  0726               	addwf	??_OLED_WriteString+2,w
  4012     0495  00F5               	movwf	OLED_WriteData@data
  4013     0496  0825               	movf	??_OLED_WriteString+1,w
  4014     0497  3D27               	addwfc	??_OLED_WriteString+3,w
  4015     0498  00F6               	movwf	OLED_WriteData@data+1
  4016     0499  3008               	movlw	8
  4017     049A  00F7               	movwf	OLED_WriteData@len
  4018     049B  3000               	movlw	0
  4019     049C  00F8               	movwf	OLED_WriteData@len+1
  4020     049D  3184  24AB  3184   	fcall	_OLED_WriteData
  4021     04A0                     l2302:
  4022                           
  4023                           ;OLED_SSD1306.c: 421:     while (*s)
  4024     04A0  0020               	movlb	0	; select bank0
  4025     04A1  0820               	movf	OLED_WriteString@s,w
  4026     04A2  0084               	movwf	4
  4027     04A3  0821               	movf	OLED_WriteString@s+1,w
  4028     04A4  0085               	movwf	5
  4029     04A5  0012               	moviw fsr0++
  4030     04A6  1D03               	btfss	3,2
  4031     04A7  2CA9               	goto	u1651
  4032     04A8  2CAA               	goto	u1650
  4033     04A9                     u1651:
  4034     04A9  2C6D               	goto	l2290
  4035     04AA                     u1650:
  4036     04AA                     l161:
  4037     04AA  0008               	return
  4038     04AB                     __end_of_OLED_WriteString:
  4039                           
  4040                           	psect	text6
  4041     0622                     __ptext6:	
  4042 ;; *************** function _OLED_Init *****************
  4043 ;; Defined at:
  4044 ;;		line 298 in file "OLED_SSD1306.c"
  4045 ;; Parameters:    Size  Location     Type
  4046 ;;		None
  4047 ;; Auto vars:     Size  Location     Type
  4048 ;;		None
  4049 ;; Return value:  Size  Location     Type
  4050 ;;                  1    wreg      void 
  4051 ;; Registers used:
  4052 ;;		wreg, fsr0l, fsr0h, fsr1l, fsr1h, status,2, status,0, pclath, cstack
  4053 ;; Tracked objects:
  4054 ;;		On entry : 0/0
  4055 ;;		On exit  : 0/0
  4056 ;;		Unchanged: 0/0
  4057 ;; Data sizes:     COMMON   BANK0   BANK1   BANK2   BANK3   BANK4   BANK5   BANK6   BANK7   BANK8   BANK9  BANK10  BANK1
      +1  BANK12  BANK13  BANK14  BANK15  BANK16  BANK17  BANK18  BANK19  BANK20  BANK21  BANK22  BANK23  BANK24  BANK25
  4058 ;;      Params:         0       0       0       0       0       0       0       0       0       0       0       0       
      +0       0       0       0       0       0       0       0       0       0       0       0       0       0       0
  4059 ;;      Locals:         0       0       0       0       0       0       0       0       0       0       0       0       
      +0       0       0       0       0       0       0       0       0       0       0       0       0       0       0
  4060 ;;      Temps:          1       0       0       0       0       0       0       0       0       0       0       0       
      +0       0       0       0       0       0       0       0       0       0       0       0       0       0       0
  4061 ;;      Totals:         1       0       0       0       0       0       0       0       0       0       0       0       
      +0       0       0       0       0       0       0       0       0       0       0       0       0       0       0
  4062 ;;Total ram usage:        1 bytes
  4063 ;; Hardware stack levels used: 1
  4064 ;; Hardware stack levels required when called: 5
  4065 ;; This function calls:
  4066 ;;		_OLED_Clear
  4067 ;;		_OLED_Command
  4068 ;; This function is called by:
  4069 ;;		_main
  4070 ;; This function uses a non-reentrant model
  4071 ;;
  4072                           
  4073     0622                     _OLED_Init:	
  4074                           ;psect for function _OLED_Init
  4075                           
  4076     0622                     l2220:	
  4077                           ;incstack = 0
  4078                           ; Regs used in _OLED_Init: [wreg-fsr1h+status,2+status,0+pclath+cstack]
  4079                           
  4080                           
  4081                           ;OLED_SSD1306.c: 300:     _delay((unsigned long)((10)*(32000000/4000.0)));
  4082     0622  3068               	movlw	104
  4083     0623  00FD               	movwf	??_OLED_Init
  4084     0624  30E4               	movlw	228
  4085     0625                     u2407:
  4086     0625  0B89               	decfsz	9,f
  4087     0626  2E25               	goto	u2407
  4088     0627  0BFD               	decfsz	??_OLED_Init,f
  4089     0628  2E25               	goto	u2407
  4090     0629  3200               	nop2
  4091     062A                     l2222:
  4092                           
  4093                           ;OLED_SSD1306.c: 302:     (void)OLED_Command(0xAE);
  4094     062A  30AE               	movlw	174
  4095     062B  3183  237B  3186   	fcall	_OLED_Command
  4096     062E                     l2224:
  4097                           
  4098                           ;OLED_SSD1306.c: 303:     (void)OLED_Command(0x2E);
  4099     062E  302E               	movlw	46
  4100     062F  3183  237B  3186   	fcall	_OLED_Command
  4101     0632                     l2226:
  4102                           
  4103                           ;OLED_SSD1306.c: 305:     (void)OLED_Command(0xD5);
  4104     0632  30D5               	movlw	213
  4105     0633  3183  237B  3186   	fcall	_OLED_Command
  4106     0636                     l2228:
  4107                           
  4108                           ;OLED_SSD1306.c: 306:     (void)OLED_Command(0x80);
  4109     0636  3080               	movlw	128
  4110     0637  3183  237B  3186   	fcall	_OLED_Command
  4111     063A                     l2230:
  4112                           
  4113                           ;OLED_SSD1306.c: 308:     (void)OLED_Command(0xA8);
  4114     063A  30A8               	movlw	168
  4115     063B  3183  237B  3186   	fcall	_OLED_Command
  4116     063E                     l2232:
  4117                           
  4118                           ;OLED_SSD1306.c: 312:     (void)OLED_Command(0x1F);
  4119     063E  301F               	movlw	31
  4120     063F  3183  237B  3186   	fcall	_OLED_Command
  4121     0642                     l2234:
  4122                           
  4123                           ;OLED_SSD1306.c: 315:     (void)OLED_Command(0xD3);
  4124     0642  30D3               	movlw	211
  4125     0643  3183  237B  3186   	fcall	_OLED_Command
  4126     0646                     l2236:
  4127                           
  4128                           ;OLED_SSD1306.c: 316:     (void)OLED_Command(0x00);
  4129     0646  3000               	movlw	0
  4130     0647  3183  237B  3186   	fcall	_OLED_Command
  4131     064A                     l2238:
  4132                           
  4133                           ;OLED_SSD1306.c: 318:     (void)OLED_Command(0x40 | 0x00);
  4134     064A  3040               	movlw	64
  4135     064B  3183  237B  3186   	fcall	_OLED_Command
  4136     064E                     l2240:
  4137                           
  4138                           ;OLED_SSD1306.c: 320:     (void)OLED_Command(0x8D);
  4139     064E  308D               	movlw	141
  4140     064F  3183  237B  3186   	fcall	_OLED_Command
  4141     0652                     l2242:
  4142                           
  4143                           ;OLED_SSD1306.c: 321:     (void)OLED_Command(0x14);
  4144     0652  3014               	movlw	20
  4145     0653  3183  237B  3186   	fcall	_OLED_Command
  4146     0656                     l2244:
  4147                           
  4148                           ;OLED_SSD1306.c: 323:     (void)OLED_Command(0x20);
  4149     0656  3020               	movlw	32
  4150     0657  3183  237B  3186   	fcall	_OLED_Command
  4151     065A                     l2246:
  4152                           
  4153                           ;OLED_SSD1306.c: 324:     (void)OLED_Command(0x02);
  4154     065A  3002               	movlw	2
  4155     065B  3183  237B  3186   	fcall	_OLED_Command
  4156     065E                     l2248:
  4157                           
  4158                           ;OLED_SSD1306.c: 326:     (void)OLED_Command(0xA0 | 0x01);
  4159     065E  30A1               	movlw	161
  4160     065F  3183  237B  3186   	fcall	_OLED_Command
  4161     0662                     l2250:
  4162                           
  4163                           ;OLED_SSD1306.c: 327:     (void)OLED_Command(0xC8);
  4164     0662  30C8               	movlw	200
  4165     0663  3183  237B  3186   	fcall	_OLED_Command
  4166     0666                     l2252:
  4167                           
  4168                           ;OLED_SSD1306.c: 329:     (void)OLED_Command(0xDA);
  4169     0666  30DA               	movlw	218
  4170     0667  3183  237B  3186   	fcall	_OLED_Command
  4171     066A                     l2254:
  4172                           
  4173                           ;OLED_SSD1306.c: 333:     (void)OLED_Command(0x02);
  4174     066A  3002               	movlw	2
  4175     066B  3183  237B  3186   	fcall	_OLED_Command
  4176     066E                     l2256:
  4177                           
  4178                           ;OLED_SSD1306.c: 336:     (void)OLED_Command(0x81);
  4179     066E  3081               	movlw	129
  4180     066F  3183  237B  3186   	fcall	_OLED_Command
  4181     0672                     l2258:
  4182                           
  4183                           ;OLED_SSD1306.c: 337:     (void)OLED_Command(0x8F);
  4184     0672  308F               	movlw	143
  4185     0673  3183  237B  3186   	fcall	_OLED_Command
  4186     0676                     l2260:
  4187                           
  4188                           ;OLED_SSD1306.c: 339:     (void)OLED_Command(0xD9);
  4189     0676  30D9               	movlw	217
  4190     0677  3183  237B  3186   	fcall	_OLED_Command
  4191     067A                     l2262:
  4192                           
  4193                           ;OLED_SSD1306.c: 340:     (void)OLED_Command(0xF1);
  4194     067A  30F1               	movlw	241
  4195     067B  3183  237B  3186   	fcall	_OLED_Command
  4196     067E                     l2264:
  4197                           
  4198                           ;OLED_SSD1306.c: 342:     (void)OLED_Command(0xDB);
  4199     067E  30DB               	movlw	219
  4200     067F  3183  237B  3186   	fcall	_OLED_Command
  4201     0682                     l2266:
  4202                           
  4203                           ;OLED_SSD1306.c: 343:     (void)OLED_Command(0x40);
  4204     0682  3040               	movlw	64
  4205     0683  3183  237B  3186   	fcall	_OLED_Command
  4206     0686                     l2268:
  4207                           
  4208                           ;OLED_SSD1306.c: 345:     (void)OLED_Command(0xA4);
  4209     0686  30A4               	movlw	164
  4210     0687  3183  237B  3186   	fcall	_OLED_Command
  4211     068A                     l2270:
  4212                           
  4213                           ;OLED_SSD1306.c: 346:     (void)OLED_Command(0xA6);
  4214     068A  30A6               	movlw	166
  4215     068B  3183  237B  3186   	fcall	_OLED_Command
  4216     068E                     l2272:
  4217                           
  4218                           ;OLED_SSD1306.c: 347:     (void)OLED_Command(0xAF);
  4219     068E  30AF               	movlw	175
  4220     068F  3183  237B  3186   	fcall	_OLED_Command
  4221     0692                     l2274:
  4222                           
  4223                           ;OLED_SSD1306.c: 350:     OLED_Clear();
  4224     0692  3184  2411  3186   	fcall	_OLED_Clear
  4225     0695                     l134:
  4226     0695  0008               	return
  4227     0696                     __end_of_OLED_Init:
  4228                           
  4229                           	psect	text7
  4230     0411                     __ptext7:	
  4231 ;; *************** function _OLED_Clear *****************
  4232 ;; Defined at:
  4233 ;;		line 356 in file "OLED_SSD1306.c"
  4234 ;; Parameters:    Size  Location     Type
  4235 ;;		None
  4236 ;; Auto vars:     Size  Location     Type
  4237 ;;  p               1   12[COMMON] unsigned char 
  4238 ;; Return value:  Size  Location     Type
  4239 ;;                  1    wreg      void 
  4240 ;; Registers used:
  4241 ;;		wreg, fsr0l, fsr0h, fsr1l, fsr1h, status,2, status,0, pclath, cstack
  4242 ;; Tracked objects:
  4243 ;;		On entry : 0/0
  4244 ;;		On exit  : 0/0
  4245 ;;		Unchanged: 0/0
  4246 ;; Data sizes:     COMMON   BANK0   BANK1   BANK2   BANK3   BANK4   BANK5   BANK6   BANK7   BANK8   BANK9  BANK10  BANK1
      +1  BANK12  BANK13  BANK14  BANK15  BANK16  BANK17  BANK18  BANK19  BANK20  BANK21  BANK22  BANK23  BANK24  BANK25
  4247 ;;      Params:         0       0       0       0       0       0       0       0       0       0       0       0       
      +0       0       0       0       0       0       0       0       0       0       0       0       0       0       0
  4248 ;;      Locals:         1       0       0       0       0       0       0       0       0       0       0       0       
      +0       0       0       0       0       0       0       0       0       0       0       0       0       0       0
  4249 ;;      Temps:          0       6       0       0       0       0       0       0       0       0       0       0       
      +0       0       0       0       0       0       0       0       0       0       0       0       0       0       0
  4250 ;;      Totals:         1       6       0       0       0       0       0       0       0       0       0       0       
      +0       0       0       0       0       0       0       0       0       0       0       0       0       0       0
  4251 ;;Total ram usage:        7 bytes
  4252 ;; Hardware stack levels used: 1
  4253 ;; Hardware stack levels required when called: 4
  4254 ;; This function calls:
  4255 ;;		_OLED_WriteData
  4256 ;;		_OLED_YX
  4257 ;;		_memset
  4258 ;; This function is called by:
  4259 ;;		_OLED_Init
  4260 ;;		_main
  4261 ;; This function uses a non-reentrant model
  4262 ;;
  4263                           
  4264     0411                     _OLED_Clear:	
  4265                           ;psect for function _OLED_Clear
  4266                           
  4267     0411                     l2170:	
  4268                           ;incstack = 0
  4269                           ; Regs used in _OLED_Clear: [wreg-fsr1h+status,2+status,0+pclath+cstack]
  4270                           
  4271                           
  4272                           ;OLED_SSD1306.c: 358:     for (uint8_t p = 0; p < (32 / 8); p++)
  4273     0411  01FC               	clrf	OLED_Clear@p
  4274     0412                     l2176:
  4275                           
  4276                           ;OLED_SSD1306.c: 359:     {;OLED_SSD1306.c: 360:         memset(screen_buffer[p], 0, 128
      +                          );
  4277     0412  087C               	movf	OLED_Clear@p,w
  4278     0413  0020               	movlb	0	; select bank0
  4279     0414  00A0               	movwf	??_OLED_Clear
  4280     0415  01A1               	clrf	??_OLED_Clear+1
  4281     0416  3007               	movlw	7
  4282     0417                     u1545:
  4283     0417  35A0               	lslf	??_OLED_Clear,f
  4284     0418  0DA1               	rlf	??_OLED_Clear+1,f
  4285     0419  0B89               	decfsz	9,f
  4286     041A  2C17               	goto	u1545
  4287     041B  30F0               	movlw	240
  4288     041C  00A2               	movwf	??_OLED_Clear+2
  4289     041D  3024               	movlw	36
  4290     041E  00A3               	movwf	??_OLED_Clear+3
  4291     041F  0820               	movf	??_OLED_Clear,w
  4292     0420  0722               	addwf	??_OLED_Clear+2,w
  4293     0421  00F0               	movwf	memset@dest
  4294     0422  0821               	movf	??_OLED_Clear+1,w
  4295     0423  3D23               	addwfc	??_OLED_Clear+3,w
  4296     0424  00F1               	movwf	memset@dest+1
  4297     0425  3000               	movlw	0
  4298     0426  00F2               	movwf	memset@c
  4299     0427  00F3               	movwf	memset@c+1
  4300     0428  3080               	movlw	128
  4301     0429  00F4               	movwf	memset@n
  4302     042A  3000               	movlw	0
  4303     042B  00F5               	movwf	memset@n+1
  4304     042C  3182  226B  3184   	fcall	_memset
  4305     042F                     l2178:
  4306                           
  4307                           ;OLED_SSD1306.c: 362:         OLED_YX(p, 0);
  4308     042F  01F7               	clrf	OLED_YX@col_char
  4309     0430  087C               	movf	OLED_Clear@p,w
  4310     0431  3182  22A5  3184   	fcall	_OLED_YX
  4311     0434                     l2180:
  4312                           
  4313                           ;OLED_SSD1306.c: 363:         (void)OLED_WriteData(screen_buffer[p], 128);
  4314     0434  087C               	movf	OLED_Clear@p,w
  4315     0435  0020               	movlb	0	; select bank0
  4316     0436  00A0               	movwf	??_OLED_Clear
  4317     0437  01A1               	clrf	??_OLED_Clear+1
  4318     0438  3007               	movlw	7
  4319     0439                     u1555:
  4320     0439  35A0               	lslf	??_OLED_Clear,f
  4321     043A  0DA1               	rlf	??_OLED_Clear+1,f
  4322     043B  0B89               	decfsz	9,f
  4323     043C  2C39               	goto	u1555
  4324     043D  30F0               	movlw	240
  4325     043E  00A2               	movwf	??_OLED_Clear+2
  4326     043F  3024               	movlw	36
  4327     0440  00A3               	movwf	??_OLED_Clear+3
  4328     0441  0820               	movf	??_OLED_Clear,w
  4329     0442  0722               	addwf	??_OLED_Clear+2,w
  4330     0443  00A4               	movwf	??_OLED_Clear+4
  4331     0444  0821               	movf	??_OLED_Clear+1,w
  4332     0445  3D23               	addwfc	??_OLED_Clear+3,w
  4333     0446  00A5               	movwf	??_OLED_Clear+5
  4334     0447  0824               	movf	??_OLED_Clear+4,w
  4335     0448  00F5               	movwf	OLED_WriteData@data
  4336     0449  0825               	movf	??_OLED_Clear+5,w
  4337     044A  00F6               	movwf	OLED_WriteData@data+1
  4338     044B  3080               	movlw	128
  4339     044C  00F7               	movwf	OLED_WriteData@len
  4340     044D  3000               	movlw	0
  4341     044E  00F8               	movwf	OLED_WriteData@len+1
  4342     044F  3184  24AB  3184   	fcall	_OLED_WriteData
  4343     0452                     l2182:
  4344                           
  4345                           ;OLED_SSD1306.c: 364:     }
  4346     0452  3001               	movlw	1
  4347     0453  0020               	movlb	0	; select bank0
  4348     0454  00A0               	movwf	??_OLED_Clear
  4349     0455  0820               	movf	??_OLED_Clear,w
  4350     0456  07FC               	addwf	OLED_Clear@p,f
  4351     0457                     l2184:
  4352     0457  3004               	movlw	4
  4353     0458  027C               	subwf	OLED_Clear@p,w
  4354     0459  1C03               	skipc
  4355     045A  2C5C               	goto	u1561
  4356     045B  2C5D               	goto	u1560
  4357     045C                     u1561:
  4358     045C  2C12               	goto	l2176
  4359     045D                     u1560:
  4360     045D                     l139:
  4361     045D  0008               	return
  4362     045E                     __end_of_OLED_Clear:
  4363                           
  4364                           	psect	text8
  4365     026B                     __ptext8:	
  4366 ;; *************** function _memset *****************
  4367 ;; Defined at:
  4368 ;;		line 3 in file "C:\Program Files\Microchip\xc8\v2.46\pic\sources\c99\common\memset.c"
  4369 ;; Parameters:    Size  Location     Type
  4370 ;;  dest            2    0[COMMON] PTR void 
  4371 ;;		 -> screen_buffer(512), 
  4372 ;;  c               2    2[COMMON] int 
  4373 ;;  n               2    4[COMMON] unsigned int 
  4374 ;; Auto vars:     Size  Location     Type
  4375 ;;  p               2    6[COMMON] PTR unsigned char 
  4376 ;;		 -> screen_buffer(512), 
  4377 ;; Return value:  Size  Location     Type
  4378 ;;                  2    0[COMMON] PTR void 
  4379 ;; Registers used:
  4380 ;;		wreg, fsr1l, fsr1h, status,2, status,0
  4381 ;; Tracked objects:
  4382 ;;		On entry : 0/0
  4383 ;;		On exit  : 0/0
  4384 ;;		Unchanged: 0/0
  4385 ;; Data sizes:     COMMON   BANK0   BANK1   BANK2   BANK3   BANK4   BANK5   BANK6   BANK7   BANK8   BANK9  BANK10  BANK1
      +1  BANK12  BANK13  BANK14  BANK15  BANK16  BANK17  BANK18  BANK19  BANK20  BANK21  BANK22  BANK23  BANK24  BANK25
  4386 ;;      Params:         6       0       0       0       0       0       0       0       0       0       0       0       
      +0       0       0       0       0       0       0       0       0       0       0       0       0       0       0
  4387 ;;      Locals:         2       0       0       0       0       0       0       0       0       0       0       0       
      +0       0       0       0       0       0       0       0       0       0       0       0       0       0       0
  4388 ;;      Temps:          0       0       0       0       0       0       0       0       0       0       0       0       
      +0       0       0       0       0       0       0       0       0       0       0       0       0       0       0
  4389 ;;      Totals:         8       0       0       0       0       0       0       0       0       0       0       0       
      +0       0       0       0       0       0       0       0       0       0       0       0       0       0       0
  4390 ;;Total ram usage:        8 bytes
  4391 ;; Hardware stack levels used: 1
  4392 ;; This function calls:
  4393 ;;		Nothing
  4394 ;; This function is called by:
  4395 ;;		_OLED_Clear
  4396 ;;		_OLED_Printf_Line
  4397 ;; This function uses a non-reentrant model
  4398 ;;
  4399                           
  4400     026B                     _memset:	
  4401                           ;psect for function _memset
  4402                           
  4403     026B                     l2102:	
  4404                           ;incstack = 0
  4405                           ; Regs used in _memset: [wreg+fsr1l+fsr1h+status,2+status,0]
  4406                           
  4407     026B  0871               	movf	memset@dest+1,w
  4408     026C  00F7               	movwf	memset@p+1
  4409     026D  0870               	movf	memset@dest,w
  4410     026E  00F6               	movwf	memset@p
  4411     026F  2A7A               	goto	l2108
  4412     0270                     l2104:
  4413     0270  0876               	movf	memset@p,w
  4414     0271  0086               	movwf	6
  4415     0272  0877               	movf	memset@p+1,w
  4416     0273  0087               	movwf	7
  4417     0274  0872               	movf	memset@c,w
  4418     0275  0081               	movwf	1
  4419     0276                     l2106:
  4420     0276  3001               	movlw	1
  4421     0277  07F6               	addwf	memset@p,f
  4422     0278  3000               	movlw	0
  4423     0279  3DF7               	addwfc	memset@p+1,f
  4424     027A                     l2108:
  4425     027A  3001               	movlw	1
  4426     027B  02F4               	subwf	memset@n,f
  4427     027C  3000               	movlw	0
  4428     027D  3BF5               	subwfb	memset@n+1,f
  4429     027E  0A74               	incf	memset@n,w
  4430     027F  1D03               	skipz
  4431     0280  2A85               	goto	u1411
  4432     0281  0A75               	incf	memset@n+1,w
  4433     0282  1D03               	btfss	3,2
  4434     0283  2A85               	goto	u1411
  4435     0284  2A86               	goto	u1410
  4436     0285                     u1411:
  4437     0285  2A70               	goto	l2104
  4438     0286                     u1410:
  4439     0286                     l924:
  4440     0286  0008               	return
  4441     0287                     __end_of_memset:
  4442                           
  4443                           	psect	text9
  4444     02A5                     __ptext9:	
  4445 ;; *************** function _OLED_YX *****************
  4446 ;; Defined at:
  4447 ;;		line 283 in file "OLED_SSD1306.c"
  4448 ;; Parameters:    Size  Location     Type
  4449 ;;  page            1    wreg     unsigned char 
  4450 ;;  col_char        1    7[COMMON] unsigned char 
  4451 ;; Auto vars:     Size  Location     Type
  4452 ;;  page            1    9[COMMON] unsigned char 
  4453 ;;  col             1   10[COMMON] unsigned char 
  4454 ;; Return value:  Size  Location     Type
  4455 ;;                  1    wreg      void 
  4456 ;; Registers used:
  4457 ;;		wreg, status,2, status,0, pclath, cstack
  4458 ;; Tracked objects:
  4459 ;;		On entry : 0/0
  4460 ;;		On exit  : 0/0
  4461 ;;		Unchanged: 0/0
  4462 ;; Data sizes:     COMMON   BANK0   BANK1   BANK2   BANK3   BANK4   BANK5   BANK6   BANK7   BANK8   BANK9  BANK10  BANK1
      +1  BANK12  BANK13  BANK14  BANK15  BANK16  BANK17  BANK18  BANK19  BANK20  BANK21  BANK22  BANK23  BANK24  BANK25
  4463 ;;      Params:         1       0       0       0       0       0       0       0       0       0       0       0       
      +0       0       0       0       0       0       0       0       0       0       0       0       0       0       0
  4464 ;;      Locals:         2       0       0       0       0       0       0       0       0       0       0       0       
      +0       0       0       0       0       0       0       0       0       0       0       0       0       0       0
  4465 ;;      Temps:          1       0       0       0       0       0       0       0       0       0       0       0       
      +0       0       0       0       0       0       0       0       0       0       0       0       0       0       0
  4466 ;;      Totals:         4       0       0       0       0       0       0       0       0       0       0       0       
      +0       0       0       0       0       0       0       0       0       0       0       0       0       0       0
  4467 ;;Total ram usage:        4 bytes
  4468 ;; Hardware stack levels used: 1
  4469 ;; Hardware stack levels required when called: 3
  4470 ;; This function calls:
  4471 ;;		_OLED_Command
  4472 ;; This function is called by:
  4473 ;;		_OLED_Clear
  4474 ;;		_OLED_WriteString
  4475 ;;		_OLED_UpdateLine
  4476 ;; This function uses a non-reentrant model
  4477 ;;
  4478                           
  4479     02A5                     _OLED_YX:	
  4480                           ;psect for function _OLED_YX
  4481                           
  4482                           
  4483                           ;incstack = 0
  4484                           ; Regs used in _OLED_YX: [wreg+status,2+status,0+pclath+cstack]
  4485                           ;OLED_YX@page stored from wreg
  4486     02A5  00F9               	movwf	OLED_YX@page
  4487     02A6                     l2094:
  4488                           
  4489                           ;OLED_SSD1306.c: 283: void OLED_YX(uint8_t page, uint8_t col_char);OLED_SSD1306.c: 284: 
      +                          {;OLED_SSD1306.c: 285:     uint8_t col = (uint8_t)(col_char * 8);
  4490     02A6  0877               	movf	OLED_YX@col_char,w
  4491     02A7  00F8               	movwf	??_OLED_YX
  4492     02A8  3002               	movlw	2
  4493     02A9                     u1395:
  4494     02A9  35F8               	lslf	??_OLED_YX,f
  4495     02AA  3EFF               	addlw	-1
  4496     02AB  1D03               	skipz
  4497     02AC  2AA9               	goto	u1395
  4498     02AD  3578               	lslf	??_OLED_YX,w
  4499     02AE  00FA               	movwf	OLED_YX@col
  4500     02AF                     l2096:
  4501                           
  4502                           ;OLED_SSD1306.c: 287:     (void)OLED_Command(0xB0 | (page & 0x07));
  4503     02AF  0879               	movf	OLED_YX@page,w
  4504     02B0  3907               	andlw	7
  4505     02B1  38B0               	iorlw	176
  4506     02B2  3183  237B  3182   	fcall	_OLED_Command
  4507     02B5                     l2098:
  4508                           
  4509                           ;OLED_SSD1306.c: 288:     (void)OLED_Command(0x00 | (col & 0x0F));
  4510     02B5  087A               	movf	OLED_YX@col,w
  4511     02B6  390F               	andlw	15
  4512     02B7  3183  237B  3182   	fcall	_OLED_Command
  4513     02BA                     l2100:
  4514                           
  4515                           ;OLED_SSD1306.c: 289:     (void)OLED_Command(0x10 | ((col >> 4) & 0x0F));
  4516     02BA  087A               	movf	OLED_YX@col,w
  4517     02BB  00F8               	movwf	??_OLED_YX
  4518     02BC  3004               	movlw	4
  4519     02BD                     u1405:
  4520     02BD  36F8               	lsrf	??_OLED_YX,f
  4521     02BE  0B89               	decfsz	9,f
  4522     02BF  2ABD               	goto	u1405
  4523     02C0  0878               	movf	??_OLED_YX,w
  4524     02C1  390F               	andlw	15
  4525     02C2  3810               	iorlw	16
  4526     02C3  3183  237B  3182   	fcall	_OLED_Command
  4527     02C6                     l131:
  4528     02C6  0008               	return
  4529     02C7                     __end_of_OLED_YX:
  4530                           
  4531                           	psect	text10
  4532     037B                     __ptext10:	
  4533 ;; *************** function _OLED_Command *****************
  4534 ;; Defined at:
  4535 ;;		line 190 in file "OLED_SSD1306.c"
  4536 ;; Parameters:    Size  Location     Type
  4537 ;;  cmd             1    wreg     unsigned char 
  4538 ;; Auto vars:     Size  Location     Type
  4539 ;;  cmd             1    5[COMMON] unsigned char 
  4540 ;;  st              1    6[COMMON] enum E6043
  4541 ;; Return value:  Size  Location     Type
  4542 ;;                  1    wreg      enum E6043
  4543 ;; Registers used:
  4544 ;;		wreg, status,2, status,0, pclath, cstack
  4545 ;; Tracked objects:
  4546 ;;		On entry : 0/0
  4547 ;;		On exit  : 0/0
  4548 ;;		Unchanged: 0/0
  4549 ;; Data sizes:     COMMON   BANK0   BANK1   BANK2   BANK3   BANK4   BANK5   BANK6   BANK7   BANK8   BANK9  BANK10  BANK1
      +1  BANK12  BANK13  BANK14  BANK15  BANK16  BANK17  BANK18  BANK19  BANK20  BANK21  BANK22  BANK23  BANK24  BANK25
  4550 ;;      Params:         0       0       0       0       0       0       0       0       0       0       0       0       
      +0       0       0       0       0       0       0       0       0       0       0       0       0       0       0
  4551 ;;      Locals:         2       0       0       0       0       0       0       0       0       0       0       0       
      +0       0       0       0       0       0       0       0       0       0       0       0       0       0       0
  4552 ;;      Temps:          0       0       0       0       0       0       0       0       0       0       0       0       
      +0       0       0       0       0       0       0       0       0       0       0       0       0       0       0
  4553 ;;      Totals:         2       0       0       0       0       0       0       0       0       0       0       0       
      +0       0       0       0       0       0       0       0       0       0       0       0       0       0       0
  4554 ;;Total ram usage:        2 bytes
  4555 ;; Hardware stack levels used: 1
  4556 ;; Hardware stack levels required when called: 2
  4557 ;; This function calls:
  4558 ;;		_I2C_Start
  4559 ;;		_I2C_Stop
  4560 ;;		_I2C_WriteByte
  4561 ;;		_SSD1306_CtrlW
  4562 ;; This function is called by:
  4563 ;;		_OLED_YX
  4564 ;;		_OLED_Init
  4565 ;;		_OLED_SetOrientation
  4566 ;;		_OLED_ClearFast@OLED_SSD1306$F324
  4567 ;;		_OLED_UpdatePartialLine
  4568 ;; This function uses a non-reentrant model
  4569 ;;
  4570                           
  4571     037B                     _OLED_Command:	
  4572                           ;psect for function _OLED_Command
  4573                           
  4574                           
  4575                           ;incstack = 0
  4576                           ; Regs used in _OLED_Command: [wreg+status,2+status,0+pclath+cstack]
  4577                           ;OLED_Command@cmd stored from wreg
  4578     037B  00F5               	movwf	OLED_Command@cmd
  4579     037C                     l2026:
  4580                           
  4581                           ;OLED_SSD1306.c: 190: static I2C_Status_t OLED_Command(uint8_t cmd);OLED_SSD1306.c: 191:
      +                           {;OLED_SSD1306.c: 192:     I2C_Status_t st;;OLED_SSD1306.c: 194:     st = I2C_Start();
  4582     037C  3183  2356  3183   	fcall	_I2C_Start
  4583     037F  00F6               	movwf	OLED_Command@st
  4584     0380                     l2028:
  4585                           
  4586                           ;OLED_SSD1306.c: 195:     if (st != I2C_OK) return st;
  4587     0380  0876               	movf	OLED_Command@st,w
  4588     0381  1903               	btfsc	3,2
  4589     0382  2B84               	goto	u1301
  4590     0383  2B85               	goto	u1300
  4591     0384                     u1301:
  4592     0384  2B86               	goto	l2032
  4593     0385                     u1300:
  4594     0385  2BA8               	goto	l105
  4595     0386                     l2032:
  4596                           
  4597                           ;OLED_SSD1306.c: 197:     st = I2C_WriteByte(SSD1306_CtrlW());
  4598     0386  3181  21F1  3183   	fcall	_SSD1306_CtrlW
  4599     0389  3183  23A9  3183   	fcall	_I2C_WriteByte
  4600     038C  00F6               	movwf	OLED_Command@st
  4601     038D                     l2034:
  4602                           
  4603                           ;OLED_SSD1306.c: 198:     if (st != I2C_OK) { I2C_Stop(); return st; }
  4604     038D  0876               	movf	OLED_Command@st,w
  4605     038E  1903               	btfsc	3,2
  4606     038F  2B91               	goto	u1311
  4607     0390  2B92               	goto	u1310
  4608     0391                     u1311:
  4609     0391  2B96               	goto	l2040
  4610     0392                     u1310:
  4611     0392                     l2036:
  4612     0392  3182  22EA  3183   	fcall	_I2C_Stop
  4613     0395  2BA8               	goto	l105
  4614     0396                     l2040:
  4615                           
  4616                           ;OLED_SSD1306.c: 200:     st = I2C_WriteByte(0x00);
  4617     0396  3000               	movlw	0
  4618     0397  3183  23A9  3183   	fcall	_I2C_WriteByte
  4619     039A  00F6               	movwf	OLED_Command@st
  4620     039B                     l2042:
  4621                           
  4622                           ;OLED_SSD1306.c: 201:     if (st != I2C_OK) { I2C_Stop(); return st; }
  4623     039B  0876               	movf	OLED_Command@st,w
  4624     039C  1903               	btfsc	3,2
  4625     039D  2B9F               	goto	u1321
  4626     039E  2BA0               	goto	u1320
  4627     039F                     u1321:
  4628     039F  2BA1               	goto	l2048
  4629     03A0                     u1320:
  4630     03A0  2B92               	goto	l2036
  4631     03A1                     l2048:
  4632     03A1  0875               	movf	OLED_Command@cmd,w
  4633     03A2  3183  23A9  3183   	fcall	_I2C_WriteByte
  4634                           
  4635                           ;OLED_SSD1306.c: 204:     I2C_Stop();
  4636     03A5  3182  22EA  3183   	fcall	_I2C_Stop
  4637     03A8                     l105:
  4638     03A8  0008               	return
  4639     03A9                     __end_of_OLED_Command:
  4640                           
  4641                           	psect	text11
  4642     04AB                     __ptext11:	
  4643 ;; *************** function _OLED_WriteData *****************
  4644 ;; Defined at:
  4645 ;;		line 215 in file "OLED_SSD1306.c"
  4646 ;; Parameters:    Size  Location     Type
  4647 ;;  data            2    5[COMMON] PTR const unsigned char 
  4648 ;;		 -> OledFont(768), OLED_ClearFast@zeros(128), screen_buffer(512), 
  4649 ;;  len             2    7[COMMON] unsigned short 
  4650 ;; Auto vars:     Size  Location     Type
  4651 ;;  i               2    9[COMMON] unsigned short 
  4652 ;;  st              1   11[COMMON] enum E6043
  4653 ;; Return value:  Size  Location     Type
  4654 ;;                  1    wreg      enum E6043
  4655 ;; Registers used:
  4656 ;;		wreg, fsr0l, fsr0h, status,2, status,0, pclath, cstack
  4657 ;; Tracked objects:
  4658 ;;		On entry : 0/0
  4659 ;;		On exit  : 0/0
  4660 ;;		Unchanged: 0/0
  4661 ;; Data sizes:     COMMON   BANK0   BANK1   BANK2   BANK3   BANK4   BANK5   BANK6   BANK7   BANK8   BANK9  BANK10  BANK1
      +1  BANK12  BANK13  BANK14  BANK15  BANK16  BANK17  BANK18  BANK19  BANK20  BANK21  BANK22  BANK23  BANK24  BANK25
  4662 ;;      Params:         4       0       0       0       0       0       0       0       0       0       0       0       
      +0       0       0       0       0       0       0       0       0       0       0       0       0       0       0
  4663 ;;      Locals:         3       0       0       0       0       0       0       0       0       0       0       0       
      +0       0       0       0       0       0       0       0       0       0       0       0       0       0       0
  4664 ;;      Temps:          0       0       0       0       0       0       0       0       0       0       0       0       
      +0       0       0       0       0       0       0       0       0       0       0       0       0       0       0
  4665 ;;      Totals:         7       0       0       0       0       0       0       0       0       0       0       0       
      +0       0       0       0       0       0       0       0       0       0       0       0       0       0       0
  4666 ;;Total ram usage:        7 bytes
  4667 ;; Hardware stack levels used: 1
  4668 ;; Hardware stack levels required when called: 2
  4669 ;; This function calls:
  4670 ;;		_I2C_Start
  4671 ;;		_I2C_Stop
  4672 ;;		_I2C_WriteByte
  4673 ;;		_SSD1306_CtrlW
  4674 ;; This function is called by:
  4675 ;;		_OLED_Clear
  4676 ;;		_OLED_WriteString
  4677 ;;		_OLED_ClearFast@OLED_SSD1306$F324
  4678 ;;		_OLED_UpdateLine
  4679 ;;		_OLED_UpdatePartialLine
  4680 ;; This function uses a non-reentrant model
  4681 ;;
  4682                           
  4683     04AB                     _OLED_WriteData:	
  4684                           ;psect for function _OLED_WriteData
  4685                           
  4686     04AB                     l2052:	
  4687                           ;incstack = 0
  4688                           ; Regs used in _OLED_WriteData: [wreg-fsr0h+status,2+status,0+pclath+cstack]
  4689                           
  4690                           
  4691                           ;OLED_SSD1306.c: 215: static I2C_Status_t OLED_WriteData(const uint8_t* data, uint16_t l
      +                          en);OLED_SSD1306.c: 216: {;OLED_SSD1306.c: 217:     I2C_Status_t st;;OLED_SSD1306.c: 219
      +                          :     if (data == ((void*)0)) return I2C_TIMEOUT;
  4692     04AB  0875               	movf	OLED_WriteData@data,w
  4693     04AC  0476               	iorwf	OLED_WriteData@data+1,w
  4694     04AD  1D03               	btfss	3,2
  4695     04AE  2CB0               	goto	u1331
  4696     04AF  2CB1               	goto	u1330
  4697     04B0                     u1331:
  4698     04B0  2CB2               	goto	l2056
  4699     04B1                     u1330:
  4700     04B1  2CFA               	goto	l111
  4701     04B2                     l2056:
  4702                           
  4703                           ;OLED_SSD1306.c: 221:     st = I2C_Start();
  4704     04B2  3183  2356  3184   	fcall	_I2C_Start
  4705     04B5  00FB               	movwf	OLED_WriteData@st
  4706     04B6                     l2058:
  4707                           
  4708                           ;OLED_SSD1306.c: 222:     if (st != I2C_OK) return st;
  4709     04B6  087B               	movf	OLED_WriteData@st,w
  4710     04B7  1903               	btfsc	3,2
  4711     04B8  2CBA               	goto	u1341
  4712     04B9  2CBB               	goto	u1340
  4713     04BA                     u1341:
  4714     04BA  2CBC               	goto	l2062
  4715     04BB                     u1340:
  4716     04BB  2CFA               	goto	l111
  4717     04BC                     l2062:
  4718                           
  4719                           ;OLED_SSD1306.c: 224:     st = I2C_WriteByte(SSD1306_CtrlW());
  4720     04BC  3181  21F1  3184   	fcall	_SSD1306_CtrlW
  4721     04BF  3183  23A9  3184   	fcall	_I2C_WriteByte
  4722     04C2  00FB               	movwf	OLED_WriteData@st
  4723     04C3                     l2064:
  4724                           
  4725                           ;OLED_SSD1306.c: 225:     if (st != I2C_OK) { I2C_Stop(); return st; }
  4726     04C3  087B               	movf	OLED_WriteData@st,w
  4727     04C4  1903               	btfsc	3,2
  4728     04C5  2CC7               	goto	u1351
  4729     04C6  2CC8               	goto	u1350
  4730     04C7                     u1351:
  4731     04C7  2CCC               	goto	l2070
  4732     04C8                     u1350:
  4733     04C8                     l2066:
  4734     04C8  3182  22EA  3184   	fcall	_I2C_Stop
  4735     04CB  2CFA               	goto	l111
  4736     04CC                     l2070:
  4737                           
  4738                           ;OLED_SSD1306.c: 227:     st = I2C_WriteByte(0x40);
  4739     04CC  3040               	movlw	64
  4740     04CD  3183  23A9  3184   	fcall	_I2C_WriteByte
  4741     04D0  00FB               	movwf	OLED_WriteData@st
  4742     04D1                     l2072:
  4743                           
  4744                           ;OLED_SSD1306.c: 228:     if (st != I2C_OK) { I2C_Stop(); return st; }
  4745     04D1  087B               	movf	OLED_WriteData@st,w
  4746     04D2  1903               	btfsc	3,2
  4747     04D3  2CD5               	goto	u1361
  4748     04D4  2CD6               	goto	u1360
  4749     04D5                     u1361:
  4750     04D5  2CD7               	goto	l2078
  4751     04D6                     u1360:
  4752     04D6  2CC8               	goto	l2066
  4753     04D7                     l2078:
  4754                           
  4755                           ;OLED_SSD1306.c: 230:     for (uint16_t i = 0; i < len; i++)
  4756     04D7  01F9               	clrf	OLED_WriteData@i
  4757     04D8  01FA               	clrf	OLED_WriteData@i+1
  4758     04D9  2CEF               	goto	l115
  4759     04DA                     l2080:
  4760                           
  4761                           ;OLED_SSD1306.c: 231:     {;OLED_SSD1306.c: 232:         st = I2C_WriteByte(data[i]);
  4762     04DA  0875               	movf	OLED_WriteData@data,w
  4763     04DB  0779               	addwf	OLED_WriteData@i,w
  4764     04DC  0084               	movwf	4
  4765     04DD  0876               	movf	OLED_WriteData@data+1,w
  4766     04DE  3D7A               	addwfc	OLED_WriteData@i+1,w
  4767     04DF  0085               	movwf	5
  4768     04E0  0800               	movf	0,w	;code access
  4769     04E1  3183  23A9  3184   	fcall	_I2C_WriteByte
  4770     04E4  00FB               	movwf	OLED_WriteData@st
  4771     04E5                     l2082:
  4772                           
  4773                           ;OLED_SSD1306.c: 233:         if (st != I2C_OK) { I2C_Stop(); return st; }
  4774     04E5  087B               	movf	OLED_WriteData@st,w
  4775     04E6  1903               	btfsc	3,2
  4776     04E7  2CE9               	goto	u1371
  4777     04E8  2CEA               	goto	u1370
  4778     04E9                     u1371:
  4779     04E9  2CEB               	goto	l2088
  4780     04EA                     u1370:
  4781     04EA  2CC8               	goto	l2066
  4782     04EB                     l2088:
  4783                           
  4784                           ;OLED_SSD1306.c: 234:     }
  4785     04EB  3001               	movlw	1
  4786     04EC  07F9               	addwf	OLED_WriteData@i,f
  4787     04ED  3000               	movlw	0
  4788     04EE  3DFA               	addwfc	OLED_WriteData@i+1,f
  4789     04EF                     l115:
  4790     04EF  0878               	movf	OLED_WriteData@len+1,w
  4791     04F0  027A               	subwf	OLED_WriteData@i+1,w
  4792     04F1  1D03               	skipz
  4793     04F2  2CF5               	goto	u1385
  4794     04F3  0877               	movf	OLED_WriteData@len,w
  4795     04F4  0279               	subwf	OLED_WriteData@i,w
  4796     04F5                     u1385:
  4797     04F5  1C03               	skipc
  4798     04F6  2CF8               	goto	u1381
  4799     04F7  2CF9               	goto	u1380
  4800     04F8                     u1381:
  4801     04F8  2CDA               	goto	l2080
  4802     04F9                     u1380:
  4803     04F9  2CC8               	goto	l2066
  4804     04FA                     l111:
  4805     04FA  0008               	return
  4806     04FB                     __end_of_OLED_WriteData:
  4807                           
  4808                           	psect	text12
  4809     01F1                     __ptext12:	
  4810 ;; *************** function _SSD1306_CtrlW *****************
  4811 ;; Defined at:
  4812 ;;		line 182 in file "OLED_SSD1306.c"
  4813 ;; Parameters:    Size  Location     Type
  4814 ;;		None
  4815 ;; Auto vars:     Size  Location     Type
  4816 ;;		None
  4817 ;; Return value:  Size  Location     Type
  4818 ;;                  1    wreg      unsigned char 
  4819 ;; Registers used:
  4820 ;;		wreg
  4821 ;; Tracked objects:
  4822 ;;		On entry : 0/0
  4823 ;;		On exit  : 0/0
  4824 ;;		Unchanged: 0/0
  4825 ;; Data sizes:     COMMON   BANK0   BANK1   BANK2   BANK3   BANK4   BANK5   BANK6   BANK7   BANK8   BANK9  BANK10  BANK1
      +1  BANK12  BANK13  BANK14  BANK15  BANK16  BANK17  BANK18  BANK19  BANK20  BANK21  BANK22  BANK23  BANK24  BANK25
  4826 ;;      Params:         0       0       0       0       0       0       0       0       0       0       0       0       
      +0       0       0       0       0       0       0       0       0       0       0       0       0       0       0
  4827 ;;      Locals:         0       0       0       0       0       0       0       0       0       0       0       0       
      +0       0       0       0       0       0       0       0       0       0       0       0       0       0       0
  4828 ;;      Temps:          0       0       0       0       0       0       0       0       0       0       0       0       
      +0       0       0       0       0       0       0       0       0       0       0       0       0       0       0
  4829 ;;      Totals:         0       0       0       0       0       0       0       0       0       0       0       0       
      +0       0       0       0       0       0       0       0       0       0       0       0       0       0       0
  4830 ;;Total ram usage:        0 bytes
  4831 ;; Hardware stack levels used: 1
  4832 ;; This function calls:
  4833 ;;		Nothing
  4834 ;; This function is called by:
  4835 ;;		_OLED_Command
  4836 ;;		_OLED_WriteData
  4837 ;; This function uses a non-reentrant model
  4838 ;;
  4839                           
  4840     01F1                     _SSD1306_CtrlW:	
  4841                           ;psect for function _SSD1306_CtrlW
  4842                           
  4843     01F1                     l2022:	
  4844                           ;incstack = 0
  4845                           ; Regs used in _SSD1306_CtrlW: [wreg]
  4846                           
  4847     01F1  3078               	movlw	120
  4848     01F2                     l101:
  4849     01F2  0008               	return
  4850     01F3                     __end_of_SSD1306_CtrlW:
  4851                           
  4852                           	psect	text13
  4853     03A9                     __ptext13:	
  4854 ;; *************** function _I2C_WriteByte *****************
  4855 ;; Defined at:
  4856 ;;		line 161 in file "I2C.c"
  4857 ;; Parameters:    Size  Location     Type
  4858 ;;  data            1    wreg     unsigned char 
  4859 ;; Auto vars:     Size  Location     Type
  4860 ;;  data            1    3[COMMON] unsigned char 
  4861 ;;  st              1    4[COMMON] enum E6036
  4862 ;; Return value:  Size  Location     Type
  4863 ;;                  1    wreg      enum E6036
  4864 ;; Registers used:
  4865 ;;		wreg, status,2, status,0, pclath, cstack
  4866 ;; Tracked objects:
  4867 ;;		On entry : 0/0
  4868 ;;		On exit  : 0/0
  4869 ;;		Unchanged: 0/0
  4870 ;; Data sizes:     COMMON   BANK0   BANK1   BANK2   BANK3   BANK4   BANK5   BANK6   BANK7   BANK8   BANK9  BANK10  BANK1
      +1  BANK12  BANK13  BANK14  BANK15  BANK16  BANK17  BANK18  BANK19  BANK20  BANK21  BANK22  BANK23  BANK24  BANK25
  4871 ;;      Params:         0       0       0       0       0       0       0       0       0       0       0       0       
      +0       0       0       0       0       0       0       0       0       0       0       0       0       0       0
  4872 ;;      Locals:         2       0       0       0       0       0       0       0       0       0       0       0       
      +0       0       0       0       0       0       0       0       0       0       0       0       0       0       0
  4873 ;;      Temps:          0       0       0       0       0       0       0       0       0       0       0       0       
      +0       0       0       0       0       0       0       0       0       0       0       0       0       0       0
  4874 ;;      Totals:         2       0       0       0       0       0       0       0       0       0       0       0       
      +0       0       0       0       0       0       0       0       0       0       0       0       0       0       0
  4875 ;;Total ram usage:        2 bytes
  4876 ;; Hardware stack levels used: 1
  4877 ;; Hardware stack levels required when called: 1
  4878 ;; This function calls:
  4879 ;;		_I2C_WaitIF
  4880 ;;		_I2C_WaitIdle
  4881 ;; This function is called by:
  4882 ;;		_OLED_Command
  4883 ;;		_OLED_WriteData
  4884 ;; This function uses a non-reentrant model
  4885 ;;
  4886                           
  4887     03A9                     _I2C_WriteByte:	
  4888                           ;psect for function _I2C_WriteByte
  4889                           
  4890                           
  4891                           ;incstack = 0
  4892                           ; Regs used in _I2C_WriteByte: [wreg+status,2+status,0+pclath+cstack]
  4893                           ;I2C_WriteByte@data stored from wreg
  4894     03A9  00F3               	movwf	I2C_WriteByte@data
  4895     03AA                     l1994:
  4896                           
  4897                           ;I2C.c: 161: I2C_Status_t I2C_WriteByte(uint8_t data);I2C.c: 162: {;I2C.c: 163:     I2C_
      +                          Status_t st;;I2C.c: 165:     st = I2C_WaitIdle(50);
  4898     03AA  3032               	movlw	50
  4899     03AB  00F0               	movwf	I2C_WaitIdle@timeout_ms
  4900     03AC  3000               	movlw	0
  4901     03AD  00F1               	movwf	I2C_WaitIdle@timeout_ms+1
  4902     03AE  3183  230D  3183   	fcall	_I2C_WaitIdle
  4903     03B1  00F4               	movwf	I2C_WriteByte@st
  4904     03B2                     l1996:
  4905                           
  4906                           ;I2C.c: 166:     if (st != I2C_OK) return st;
  4907     03B2  0874               	movf	I2C_WriteByte@st,w
  4908     03B3  1903               	btfsc	3,2
  4909     03B4  2BB6               	goto	u1271
  4910     03B5  2BB7               	goto	u1270
  4911     03B6                     u1271:
  4912     03B6  2BB9               	goto	l60
  4913     03B7                     u1270:
  4914     03B7                     l1998:
  4915     03B7  0874               	movf	I2C_WriteByte@st,w
  4916     03B8  2BDA               	goto	l61
  4917     03B9                     l60:
  4918                           
  4919                           ;I2C.c: 168:     PIR1bits.SSP1IF = 0;
  4920     03B9  0020               	movlb	0	; select bank0
  4921     03BA  1191               	bcf	17,3	;volatile
  4922     03BB                     l2002:
  4923                           
  4924                           ;I2C.c: 169:     SSPBUF = data;
  4925     03BB  0873               	movf	I2C_WriteByte@data,w
  4926     03BC  0024               	movlb	4	; select bank4
  4927     03BD  0091               	movwf	17	;volatile
  4928     03BE                     l2004:
  4929                           
  4930                           ;I2C.c: 171:     st = I2C_WaitIF(50);
  4931     03BE  3032               	movlw	50
  4932     03BF  00F0               	movwf	I2C_WaitIF@timeout_ms
  4933     03C0  3000               	movlw	0
  4934     03C1  00F1               	movwf	I2C_WaitIF@timeout_ms+1
  4935     03C2  3182  2287  3183   	fcall	_I2C_WaitIF
  4936     03C5  00F4               	movwf	I2C_WriteByte@st
  4937     03C6                     l2006:
  4938                           
  4939                           ;I2C.c: 172:     if (st != I2C_OK) return st;
  4940     03C6  0874               	movf	I2C_WriteByte@st,w
  4941     03C7  1903               	btfsc	3,2
  4942     03C8  2BCA               	goto	u1281
  4943     03C9  2BCB               	goto	u1280
  4944     03CA                     u1281:
  4945     03CA  2BCC               	goto	l62
  4946     03CB                     u1280:
  4947     03CB  2BB7               	goto	l1998
  4948     03CC                     l62:
  4949                           
  4950                           ;I2C.c: 175:     if (PIR2bits.BCL1IF)
  4951     03CC  0020               	movlb	0	; select bank0
  4952     03CD  1D92               	btfss	18,3	;volatile
  4953     03CE  2BD0               	goto	u1291
  4954     03CF  2BD1               	goto	u1290
  4955     03D0                     u1291:
  4956     03D0  2BD4               	goto	l63
  4957     03D1                     u1290:
  4958     03D1                     l2012:
  4959                           
  4960                           ;I2C.c: 176:     {;I2C.c: 177:         PIR2bits.BCL1IF = 0;
  4961     03D1  1192               	bcf	18,3	;volatile
  4962     03D2                     l2014:
  4963                           
  4964                           ;I2C.c: 178:         return I2C_BUS_COLLISION;
  4965     03D2  3003               	movlw	3
  4966     03D3  2BDA               	goto	l61
  4967     03D4                     l63:	
  4968                           ;I2C.c: 179:     }
  4969                           
  4970                           
  4971                           ;I2C.c: 182:     PIR1bits.SSP1IF = 0;
  4972     03D4  1191               	bcf	17,3	;volatile
  4973     03D5                     l2018:
  4974                           
  4975                           ;I2C.c: 183:     return (SSPCON2bits.ACKSTAT == 0) ? I2C_OK : I2C_NAK;
  4976     03D5  0024               	movlb	4	; select bank4
  4977     03D6  0E16               	swapf	22,w	;volatile
  4978     03D7  0C89               	rrf	9,f
  4979     03D8  0C89               	rrf	9,f
  4980     03D9  3901               	andlw	1
  4981     03DA                     l61:
  4982     03DA  0008               	return
  4983     03DB                     __end_of_I2C_WriteByte:
  4984                           
  4985                           	psect	text14
  4986     02EA                     __ptext14:	
  4987 ;; *************** function _I2C_Stop *****************
  4988 ;; Defined at:
  4989 ;;		line 138 in file "I2C.c"
  4990 ;; Parameters:    Size  Location     Type
  4991 ;;		None
  4992 ;; Auto vars:     Size  Location     Type
  4993 ;;  st              1    3[COMMON] enum E6036
  4994 ;; Return value:  Size  Location     Type
  4995 ;;                  1    wreg      enum E6036
  4996 ;; Registers used:
  4997 ;;		wreg, status,2, status,0, pclath, cstack
  4998 ;; Tracked objects:
  4999 ;;		On entry : 0/0
  5000 ;;		On exit  : 0/0
  5001 ;;		Unchanged: 0/0
  5002 ;; Data sizes:     COMMON   BANK0   BANK1   BANK2   BANK3   BANK4   BANK5   BANK6   BANK7   BANK8   BANK9  BANK10  BANK1
      +1  BANK12  BANK13  BANK14  BANK15  BANK16  BANK17  BANK18  BANK19  BANK20  BANK21  BANK22  BANK23  BANK24  BANK25
  5003 ;;      Params:         0       0       0       0       0       0       0       0       0       0       0       0       
      +0       0       0       0       0       0       0       0       0       0       0       0       0       0       0
  5004 ;;      Locals:         1       0       0       0       0       0       0       0       0       0       0       0       
      +0       0       0       0       0       0       0       0       0       0       0       0       0       0       0
  5005 ;;      Temps:          0       0       0       0       0       0       0       0       0       0       0       0       
      +0       0       0       0       0       0       0       0       0       0       0       0       0       0       0
  5006 ;;      Totals:         1       0       0       0       0       0       0       0       0       0       0       0       
      +0       0       0       0       0       0       0       0       0       0       0       0       0       0       0
  5007 ;;Total ram usage:        1 bytes
  5008 ;; Hardware stack levels used: 1
  5009 ;; Hardware stack levels required when called: 1
  5010 ;; This function calls:
  5011 ;;		_I2C_WaitIF
  5012 ;;		_I2C_WaitIdle
  5013 ;; This function is called by:
  5014 ;;		_OLED_Command
  5015 ;;		_OLED_WriteData
  5016 ;; This function uses a non-reentrant model
  5017 ;;
  5018                           
  5019     02EA                     _I2C_Stop:	
  5020                           ;psect for function _I2C_Stop
  5021                           
  5022     02EA                     l1982:	
  5023                           ;incstack = 0
  5024                           ; Regs used in _I2C_Stop: [wreg+status,2+status,0+pclath+cstack]
  5025                           
  5026                           
  5027                           ;I2C.c: 140:     I2C_Status_t st;;I2C.c: 142:     st = I2C_WaitIdle(50);
  5028     02EA  3032               	movlw	50
  5029     02EB  00F0               	movwf	I2C_WaitIdle@timeout_ms
  5030     02EC  3000               	movlw	0
  5031     02ED  00F1               	movwf	I2C_WaitIdle@timeout_ms+1
  5032     02EE  3183  230D  3182   	fcall	_I2C_WaitIdle
  5033     02F1  00F3               	movwf	I2C_Stop@st
  5034     02F2                     l1984:
  5035                           
  5036                           ;I2C.c: 143:     if (st != I2C_OK) return st;
  5037     02F2  0873               	movf	I2C_Stop@st,w
  5038     02F3  1903               	btfsc	3,2
  5039     02F4  2AF6               	goto	u1251
  5040     02F5  2AF7               	goto	u1250
  5041     02F6                     u1251:
  5042     02F6  2AF8               	goto	l55
  5043     02F7                     u1250:
  5044     02F7  2B0C               	goto	l56
  5045     02F8                     l55:
  5046                           
  5047                           ;I2C.c: 145:     PIR1bits.SSP1IF = 0;
  5048     02F8  0020               	movlb	0	; select bank0
  5049     02F9  1191               	bcf	17,3	;volatile
  5050                           
  5051                           ;I2C.c: 146:     SSPCON2bits.PEN = 1;
  5052     02FA  0024               	movlb	4	; select bank4
  5053     02FB  1516               	bsf	22,2	;volatile
  5054     02FC                     l1988:
  5055                           
  5056                           ;I2C.c: 148:     st = I2C_WaitIF(50);
  5057     02FC  3032               	movlw	50
  5058     02FD  00F0               	movwf	I2C_WaitIF@timeout_ms
  5059     02FE  3000               	movlw	0
  5060     02FF  00F1               	movwf	I2C_WaitIF@timeout_ms+1
  5061     0300  3182  2287  3182   	fcall	_I2C_WaitIF
  5062     0303  00F3               	movwf	I2C_Stop@st
  5063     0304                     l1990:
  5064                           
  5065                           ;I2C.c: 149:     if (st != I2C_OK) return st;
  5066     0304  0873               	movf	I2C_Stop@st,w
  5067     0305  1903               	btfsc	3,2
  5068     0306  2B08               	goto	u1261
  5069     0307  2B09               	goto	u1260
  5070     0308                     u1261:
  5071     0308  2B0A               	goto	l57
  5072     0309                     u1260:
  5073     0309  2B0C               	goto	l56
  5074     030A                     l57:
  5075                           
  5076                           ;I2C.c: 151:     PIR1bits.SSP1IF = 0;
  5077     030A  0020               	movlb	0	; select bank0
  5078     030B  1191               	bcf	17,3	;volatile
  5079     030C                     l56:	
  5080                           ;I2C.c: 152:     return I2C_OK;;	Return value of _I2C_Stop is never used
  5081                           
  5082     030C  0008               	return
  5083     030D                     __end_of_I2C_Stop:
  5084                           
  5085                           	psect	text15
  5086     0356                     __ptext15:	
  5087 ;; *************** function _I2C_Start *****************
  5088 ;; Defined at:
  5089 ;;		line 98 in file "I2C.c"
  5090 ;; Parameters:    Size  Location     Type
  5091 ;;		None
  5092 ;; Auto vars:     Size  Location     Type
  5093 ;;  st              1    3[COMMON] enum E6036
  5094 ;; Return value:  Size  Location     Type
  5095 ;;                  1    wreg      enum E6036
  5096 ;; Registers used:
  5097 ;;		wreg, status,2, status,0, pclath, cstack
  5098 ;; Tracked objects:
  5099 ;;		On entry : 0/0
  5100 ;;		On exit  : 0/0
  5101 ;;		Unchanged: 0/0
  5102 ;; Data sizes:     COMMON   BANK0   BANK1   BANK2   BANK3   BANK4   BANK5   BANK6   BANK7   BANK8   BANK9  BANK10  BANK1
      +1  BANK12  BANK13  BANK14  BANK15  BANK16  BANK17  BANK18  BANK19  BANK20  BANK21  BANK22  BANK23  BANK24  BANK25
  5103 ;;      Params:         0       0       0       0       0       0       0       0       0       0       0       0       
      +0       0       0       0       0       0       0       0       0       0       0       0       0       0       0
  5104 ;;      Locals:         1       0       0       0       0       0       0       0       0       0       0       0       
      +0       0       0       0       0       0       0       0       0       0       0       0       0       0       0
  5105 ;;      Temps:          0       0       0       0       0       0       0       0       0       0       0       0       
      +0       0       0       0       0       0       0       0       0       0       0       0       0       0       0
  5106 ;;      Totals:         1       0       0       0       0       0       0       0       0       0       0       0       
      +0       0       0       0       0       0       0       0       0       0       0       0       0       0       0
  5107 ;;Total ram usage:        1 bytes
  5108 ;; Hardware stack levels used: 1
  5109 ;; Hardware stack levels required when called: 1
  5110 ;; This function calls:
  5111 ;;		_I2C_WaitIF
  5112 ;;		_I2C_WaitIdle
  5113 ;; This function is called by:
  5114 ;;		_OLED_Command
  5115 ;;		_OLED_WriteData
  5116 ;; This function uses a non-reentrant model
  5117 ;;
  5118                           
  5119     0356                     _I2C_Start:	
  5120                           ;psect for function _I2C_Start
  5121                           
  5122     0356                     l1962:	
  5123                           ;incstack = 0
  5124                           ; Regs used in _I2C_Start: [wreg+status,2+status,0+pclath+cstack]
  5125                           
  5126                           
  5127                           ;I2C.c: 100:     I2C_Status_t st;;I2C.c: 102:     st = I2C_WaitIdle(50);
  5128     0356  3032               	movlw	50
  5129     0357  00F0               	movwf	I2C_WaitIdle@timeout_ms
  5130     0358  3000               	movlw	0
  5131     0359  00F1               	movwf	I2C_WaitIdle@timeout_ms+1
  5132     035A  3183  230D  3183   	fcall	_I2C_WaitIdle
  5133     035D  00F3               	movwf	I2C_Start@st
  5134     035E                     l1964:
  5135                           
  5136                           ;I2C.c: 103:     if (st != I2C_OK) return st;
  5137     035E  0873               	movf	I2C_Start@st,w
  5138     035F  1903               	btfsc	3,2
  5139     0360  2B62               	goto	u1231
  5140     0361  2B63               	goto	u1230
  5141     0362                     u1231:
  5142     0362  2B65               	goto	l45
  5143     0363                     u1230:
  5144     0363                     l1966:
  5145     0363  0873               	movf	I2C_Start@st,w
  5146     0364  2B7A               	goto	l46
  5147     0365                     l45:
  5148                           
  5149                           ;I2C.c: 105:     PIR1bits.SSP1IF = 0;
  5150     0365  0020               	movlb	0	; select bank0
  5151     0366  1191               	bcf	17,3	;volatile
  5152                           
  5153                           ;I2C.c: 106:     SSPCON2bits.SEN = 1;
  5154     0367  0024               	movlb	4	; select bank4
  5155     0368  1416               	bsf	22,0	;volatile
  5156     0369                     l1970:
  5157                           
  5158                           ;I2C.c: 108:     st = I2C_WaitIF(50);
  5159     0369  3032               	movlw	50
  5160     036A  00F0               	movwf	I2C_WaitIF@timeout_ms
  5161     036B  3000               	movlw	0
  5162     036C  00F1               	movwf	I2C_WaitIF@timeout_ms+1
  5163     036D  3182  2287  3183   	fcall	_I2C_WaitIF
  5164     0370  00F3               	movwf	I2C_Start@st
  5165     0371                     l1972:
  5166                           
  5167                           ;I2C.c: 109:     if (st != I2C_OK) return st;
  5168     0371  0873               	movf	I2C_Start@st,w
  5169     0372  1903               	btfsc	3,2
  5170     0373  2B75               	goto	u1241
  5171     0374  2B76               	goto	u1240
  5172     0375                     u1241:
  5173     0375  2B77               	goto	l47
  5174     0376                     u1240:
  5175     0376  2B63               	goto	l1966
  5176     0377                     l47:
  5177                           
  5178                           ;I2C.c: 111:     PIR1bits.SSP1IF = 0;
  5179     0377  0020               	movlb	0	; select bank0
  5180     0378  1191               	bcf	17,3	;volatile
  5181     0379                     l1978:
  5182                           
  5183                           ;I2C.c: 112:     return I2C_OK;
  5184     0379  3000               	movlw	0
  5185     037A                     l46:
  5186     037A  0008               	return
  5187     037B                     __end_of_I2C_Start:
  5188                           
  5189                           	psect	text16
  5190     030D                     __ptext16:	
  5191 ;; *************** function _I2C_WaitIdle *****************
  5192 ;; Defined at:
  5193 ;;		line 81 in file "I2C.c"
  5194 ;; Parameters:    Size  Location     Type
  5195 ;;  timeout_ms      2    0[COMMON] unsigned short 
  5196 ;; Auto vars:     Size  Location     Type
  5197 ;;		None
  5198 ;; Return value:  Size  Location     Type
  5199 ;;                  1    wreg      enum E6036
  5200 ;; Registers used:
  5201 ;;		wreg, status,2, status,0
  5202 ;; Tracked objects:
  5203 ;;		On entry : 0/0
  5204 ;;		On exit  : 0/0
  5205 ;;		Unchanged: 0/0
  5206 ;; Data sizes:     COMMON   BANK0   BANK1   BANK2   BANK3   BANK4   BANK5   BANK6   BANK7   BANK8   BANK9  BANK10  BANK1
      +1  BANK12  BANK13  BANK14  BANK15  BANK16  BANK17  BANK18  BANK19  BANK20  BANK21  BANK22  BANK23  BANK24  BANK25
  5207 ;;      Params:         2       0       0       0       0       0       0       0       0       0       0       0       
      +0       0       0       0       0       0       0       0       0       0       0       0       0       0       0
  5208 ;;      Locals:         0       0       0       0       0       0       0       0       0       0       0       0       
      +0       0       0       0       0       0       0       0       0       0       0       0       0       0       0
  5209 ;;      Temps:          1       0       0       0       0       0       0       0       0       0       0       0       
      +0       0       0       0       0       0       0       0       0       0       0       0       0       0       0
  5210 ;;      Totals:         3       0       0       0       0       0       0       0       0       0       0       0       
      +0       0       0       0       0       0       0       0       0       0       0       0       0       0       0
  5211 ;;Total ram usage:        3 bytes
  5212 ;; Hardware stack levels used: 1
  5213 ;; This function calls:
  5214 ;;		Nothing
  5215 ;; This function is called by:
  5216 ;;		_I2C_Start
  5217 ;;		_I2C_Stop
  5218 ;;		_I2C_WriteByte
  5219 ;;		_I2C_RepeatedStart
  5220 ;;		_I2C_ReadByte
  5221 ;; This function uses a non-reentrant model
  5222 ;;
  5223                           
  5224     030D                     _I2C_WaitIdle:	
  5225                           ;psect for function _I2C_WaitIdle
  5226                           
  5227     030D                     l1944:	
  5228                           ;incstack = 0
  5229                           ; Regs used in _I2C_WaitIdle: [wreg+status,2+status,0]
  5230                           
  5231                           
  5232                           ;I2C.c: 81: I2C_Status_t I2C_WaitIdle(uint16_t timeout_ms);I2C.c: 82: {;I2C.c: 83:     w
      +                          hile (timeout_ms--)
  5233     030D  2B23               	goto	l1956
  5234     030E                     l1946:
  5235                           
  5236                           ;I2C.c: 84:     {;I2C.c: 87:         if ((SSPCON2 & 0x1F) == 0 && SSPSTATbits.R_nW == 0)
  5237     030E  0024               	movlb	4	; select bank4
  5238     030F  0816               	movf	22,w	;volatile
  5239     0310  391F               	andlw	31
  5240     0311  1D03               	btfss	3,2
  5241     0312  2B14               	goto	u1201
  5242     0313  2B15               	goto	u1200
  5243     0314                     u1201:
  5244     0314  2B1B               	goto	l1954
  5245     0315                     u1200:
  5246     0315                     l1948:
  5247     0315  1914               	btfsc	20,2	;volatile
  5248     0316  2B18               	goto	u1211
  5249     0317  2B19               	goto	u1210
  5250     0318                     u1211:
  5251     0318  2B1B               	goto	l1954
  5252     0319                     u1210:
  5253     0319                     l1950:
  5254                           
  5255                           ;I2C.c: 88:             return I2C_OK;
  5256     0319  3000               	movlw	0
  5257     031A  2B30               	goto	l41
  5258     031B                     l1954:
  5259                           
  5260                           ;I2C.c: 90:         _delay((unsigned long)((1)*(32000000/4000.0)));
  5261     031B  300B               	movlw	11
  5262     031C  00F2               	movwf	??_I2C_WaitIdle
  5263     031D  3062               	movlw	98
  5264     031E                     u2417:
  5265     031E  0B89               	decfsz	9,f
  5266     031F  2B1E               	goto	u2417
  5267     0320  0BF2               	decfsz	??_I2C_WaitIdle,f
  5268     0321  2B1E               	goto	u2417
  5269     0322  3200               	nop2
  5270     0323                     l1956:
  5271                           
  5272                           ;I2C.c: 83:     while (timeout_ms--)
  5273     0323  3001               	movlw	1
  5274     0324  02F0               	subwf	I2C_WaitIdle@timeout_ms,f
  5275     0325  3000               	movlw	0
  5276     0326  3BF1               	subwfb	I2C_WaitIdle@timeout_ms+1,f
  5277     0327  0A70               	incf	I2C_WaitIdle@timeout_ms,w
  5278     0328  1D03               	skipz
  5279     0329  2B2E               	goto	u1221
  5280     032A  0A71               	incf	I2C_WaitIdle@timeout_ms+1,w
  5281     032B  1D03               	btfss	3,2
  5282     032C  2B2E               	goto	u1221
  5283     032D  2B2F               	goto	u1220
  5284     032E                     u1221:
  5285     032E  2B0E               	goto	l1946
  5286     032F                     u1220:
  5287     032F                     l1958:
  5288                           
  5289                           ;I2C.c: 92:     return I2C_TIMEOUT;
  5290     032F  3002               	movlw	2
  5291     0330                     l41:
  5292     0330  0008               	return
  5293     0331                     __end_of_I2C_WaitIdle:
  5294                           
  5295                           	psect	text17
  5296     0287                     __ptext17:	
  5297 ;; *************** function _I2C_WaitIF *****************
  5298 ;; Defined at:
  5299 ;;		line 23 in file "I2C.c"
  5300 ;; Parameters:    Size  Location     Type
  5301 ;;  timeout_ms      2    0[COMMON] unsigned short 
  5302 ;; Auto vars:     Size  Location     Type
  5303 ;;		None
  5304 ;; Return value:  Size  Location     Type
  5305 ;;                  1    wreg      enum E6036
  5306 ;; Registers used:
  5307 ;;		wreg, status,2, status,0
  5308 ;; Tracked objects:
  5309 ;;		On entry : 0/0
  5310 ;;		On exit  : 0/0
  5311 ;;		Unchanged: 0/0
  5312 ;; Data sizes:     COMMON   BANK0   BANK1   BANK2   BANK3   BANK4   BANK5   BANK6   BANK7   BANK8   BANK9  BANK10  BANK1
      +1  BANK12  BANK13  BANK14  BANK15  BANK16  BANK17  BANK18  BANK19  BANK20  BANK21  BANK22  BANK23  BANK24  BANK25
  5313 ;;      Params:         2       0       0       0       0       0       0       0       0       0       0       0       
      +0       0       0       0       0       0       0       0       0       0       0       0       0       0       0
  5314 ;;      Locals:         0       0       0       0       0       0       0       0       0       0       0       0       
      +0       0       0       0       0       0       0       0       0       0       0       0       0       0       0
  5315 ;;      Temps:          1       0       0       0       0       0       0       0       0       0       0       0       
      +0       0       0       0       0       0       0       0       0       0       0       0       0       0       0
  5316 ;;      Totals:         3       0       0       0       0       0       0       0       0       0       0       0       
      +0       0       0       0       0       0       0       0       0       0       0       0       0       0       0
  5317 ;;Total ram usage:        3 bytes
  5318 ;; Hardware stack levels used: 1
  5319 ;; This function calls:
  5320 ;;		Nothing
  5321 ;; This function is called by:
  5322 ;;		_I2C_Start
  5323 ;;		_I2C_Stop
  5324 ;;		_I2C_WriteByte
  5325 ;;		_I2C_RepeatedStart
  5326 ;;		_I2C_ReadByte
  5327 ;; This function uses a non-reentrant model
  5328 ;;
  5329                           
  5330     0287                     _I2C_WaitIF:	
  5331                           ;psect for function _I2C_WaitIF
  5332                           
  5333     0287                     l1930:	
  5334                           ;incstack = 0
  5335                           ; Regs used in _I2C_WaitIF: [wreg+status,2+status,0]
  5336                           
  5337                           
  5338                           ;I2C.c: 23: static I2C_Status_t I2C_WaitIF(uint16_t timeout_ms);I2C.c: 24: {;I2C.c: 25: 
      +                              while (timeout_ms--)
  5339     0287  2A97               	goto	l1938
  5340     0288                     l26:
  5341                           
  5342                           ;I2C.c: 26:     {;I2C.c: 27:         if (PIR1bits.SSP1IF)
  5343     0288  0020               	movlb	0	; select bank0
  5344     0289  1D91               	btfss	17,3	;volatile
  5345     028A  2A8C               	goto	u1181
  5346     028B  2A8D               	goto	u1180
  5347     028C                     u1181:
  5348     028C  2A8F               	goto	l1936
  5349     028D                     u1180:
  5350     028D                     l1932:
  5351                           
  5352                           ;I2C.c: 28:             return I2C_OK;
  5353     028D  3000               	movlw	0
  5354     028E  2AA4               	goto	l28
  5355     028F                     l1936:
  5356                           
  5357                           ;I2C.c: 30:         _delay((unsigned long)((1)*(32000000/4000.0)));
  5358     028F  300B               	movlw	11
  5359     0290  00F2               	movwf	??_I2C_WaitIF
  5360     0291  3062               	movlw	98
  5361     0292                     u2427:
  5362     0292  0B89               	decfsz	9,f
  5363     0293  2A92               	goto	u2427
  5364     0294  0BF2               	decfsz	??_I2C_WaitIF,f
  5365     0295  2A92               	goto	u2427
  5366     0296  3200               	nop2
  5367     0297                     l1938:
  5368                           
  5369                           ;I2C.c: 25:     while (timeout_ms--)
  5370     0297  3001               	movlw	1
  5371     0298  02F0               	subwf	I2C_WaitIF@timeout_ms,f
  5372     0299  3000               	movlw	0
  5373     029A  3BF1               	subwfb	I2C_WaitIF@timeout_ms+1,f
  5374     029B  0A70               	incf	I2C_WaitIF@timeout_ms,w
  5375     029C  1D03               	skipz
  5376     029D  2AA2               	goto	u1191
  5377     029E  0A71               	incf	I2C_WaitIF@timeout_ms+1,w
  5378     029F  1D03               	btfss	3,2
  5379     02A0  2AA2               	goto	u1191
  5380     02A1  2AA3               	goto	u1190
  5381     02A2                     u1191:
  5382     02A2  2A88               	goto	l26
  5383     02A3                     u1190:
  5384     02A3                     l1940:
  5385                           
  5386                           ;I2C.c: 32:     return I2C_TIMEOUT;
  5387     02A3  3002               	movlw	2
  5388     02A4                     l28:
  5389     02A4  0008               	return
  5390     02A5                     __end_of_I2C_WaitIF:
  5391                           
  5392                           	psect	text18
  5393     0214                     __ptext18:	
  5394 ;; *************** function _I2C_Init *****************
  5395 ;; Defined at:
  5396 ;;		line 41 in file "I2C.c"
  5397 ;; Parameters:    Size  Location     Type
  5398 ;;		None
  5399 ;; Auto vars:     Size  Location     Type
  5400 ;;		None
  5401 ;; Return value:  Size  Location     Type
  5402 ;;                  1    wreg      void 
  5403 ;; Registers used:
  5404 ;;		wreg, status,2, status,0, pclath, cstack
  5405 ;; Tracked objects:
  5406 ;;		On entry : 0/0
  5407 ;;		On exit  : 0/0
  5408 ;;		Unchanged: 0/0
  5409 ;; Data sizes:     COMMON   BANK0   BANK1   BANK2   BANK3   BANK4   BANK5   BANK6   BANK7   BANK8   BANK9  BANK10  BANK1
      +1  BANK12  BANK13  BANK14  BANK15  BANK16  BANK17  BANK18  BANK19  BANK20  BANK21  BANK22  BANK23  BANK24  BANK25
  5410 ;;      Params:         0       0       0       0       0       0       0       0       0       0       0       0       
      +0       0       0       0       0       0       0       0       0       0       0       0       0       0       0
  5411 ;;      Locals:         0       0       0       0       0       0       0       0       0       0       0       0       
      +0       0       0       0       0       0       0       0       0       0       0       0       0       0       0
  5412 ;;      Temps:          1       0       0       0       0       0       0       0       0       0       0       0       
      +0       0       0       0       0       0       0       0       0       0       0       0       0       0       0
  5413 ;;      Totals:         1       0       0       0       0       0       0       0       0       0       0       0       
      +0       0       0       0       0       0       0       0       0       0       0       0       0       0       0
  5414 ;;Total ram usage:        1 bytes
  5415 ;; Hardware stack levels used: 1
  5416 ;; Hardware stack levels required when called: 1
  5417 ;; This function calls:
  5418 ;;		_I2C_ClearErrors
  5419 ;; This function is called by:
  5420 ;;		_main
  5421 ;; This function uses a non-reentrant model
  5422 ;;
  5423                           
  5424     0214                     _I2C_Init:	
  5425                           ;psect for function _I2C_Init
  5426                           
  5427     0214                     l2210:	
  5428                           ;incstack = 0
  5429                           ; Regs used in _I2C_Init: [wreg+status,2+status,0+pclath+cstack]
  5430                           
  5431                           
  5432                           ;I2C.c: 44:     SSPCONbits.SSPM = 0x08;
  5433     0214  0024               	movlb	4	; select bank4
  5434     0215  0815               	movf	21,w	;volatile
  5435     0216  39F0               	andlw	-16
  5436     0217  3808               	iorlw	8
  5437     0218  0095               	movwf	21	;volatile
  5438     0219                     l2212:
  5439                           
  5440                           ;I2C.c: 47:     SSPCONbits.SSPEN = 1;
  5441     0219  1695               	bsf	21,5	;volatile
  5442     021A                     l2214:
  5443                           
  5444                           ;I2C.c: 50:     SSPADD = 79;
  5445     021A  304F               	movlw	79
  5446     021B  0092               	movwf	18	;volatile
  5447     021C                     l2216:
  5448                           
  5449                           ;I2C.c: 52:     I2C_ClearErrors();
  5450     021C  3181  21F8  3182   	fcall	_I2C_ClearErrors
  5451     021F                     l2218:
  5452                           
  5453                           ;I2C.c: 53:     _delay((unsigned long)((10)*(32000000/4000.0)));
  5454     021F  3068               	movlw	104
  5455     0220  00F0               	movwf	??_I2C_Init
  5456     0221  30E4               	movlw	228
  5457     0222                     u2437:
  5458     0222  0B89               	decfsz	9,f
  5459     0223  2A22               	goto	u2437
  5460     0224  0BF0               	decfsz	??_I2C_Init,f
  5461     0225  2A22               	goto	u2437
  5462     0226  3200               	nop2
  5463     0227                     l32:
  5464     0227  0008               	return
  5465     0228                     __end_of_I2C_Init:
  5466                           
  5467                           	psect	text19
  5468     01F8                     __ptext19:	
  5469 ;; *************** function _I2C_ClearErrors *****************
  5470 ;; Defined at:
  5471 ;;		line 62 in file "I2C.c"
  5472 ;; Parameters:    Size  Location     Type
  5473 ;;		None
  5474 ;; Auto vars:     Size  Location     Type
  5475 ;;		None
  5476 ;; Return value:  Size  Location     Type
  5477 ;;                  1    wreg      void 
  5478 ;; Registers used:
  5479 ;;		None
  5480 ;; Tracked objects:
  5481 ;;		On entry : 0/0
  5482 ;;		On exit  : 0/0
  5483 ;;		Unchanged: 0/0
  5484 ;; Data sizes:     COMMON   BANK0   BANK1   BANK2   BANK3   BANK4   BANK5   BANK6   BANK7   BANK8   BANK9  BANK10  BANK1
      +1  BANK12  BANK13  BANK14  BANK15  BANK16  BANK17  BANK18  BANK19  BANK20  BANK21  BANK22  BANK23  BANK24  BANK25
  5485 ;;      Params:         0       0       0       0       0       0       0       0       0       0       0       0       
      +0       0       0       0       0       0       0       0       0       0       0       0       0       0       0
  5486 ;;      Locals:         0       0       0       0       0       0       0       0       0       0       0       0       
      +0       0       0       0       0       0       0       0       0       0       0       0       0       0       0
  5487 ;;      Temps:          0       0       0       0       0       0       0       0       0       0       0       0       
      +0       0       0       0       0       0       0       0       0       0       0       0       0       0       0
  5488 ;;      Totals:         0       0       0       0       0       0       0       0       0       0       0       0       
      +0       0       0       0       0       0       0       0       0       0       0       0       0       0       0
  5489 ;;Total ram usage:        0 bytes
  5490 ;; Hardware stack levels used: 1
  5491 ;; This function calls:
  5492 ;;		Nothing
  5493 ;; This function is called by:
  5494 ;;		_I2C_Init
  5495 ;; This function uses a non-reentrant model
  5496 ;;
  5497                           
  5498     01F8                     _I2C_ClearErrors:	
  5499                           ;psect for function _I2C_ClearErrors
  5500                           
  5501     01F8                     l2168:	
  5502                           ;incstack = 0
  5503                           ; Regs used in _I2C_ClearErrors: []
  5504                           
  5505                           
  5506                           ;I2C.c: 65:     SSPCON1bits.SSPOV = 0;
  5507     01F8  0024               	movlb	4	; select bank4
  5508     01F9  1315               	bcf	21,6	;volatile
  5509                           
  5510                           ;I2C.c: 66:     SSPCON1bits.WCOL = 0;
  5511     01FA  1395               	bcf	21,7	;volatile
  5512                           
  5513                           ;I2C.c: 69:     PIR2bits.BCL1IF = 0;
  5514     01FB  0020               	movlb	0	; select bank0
  5515     01FC  1192               	bcf	18,3	;volatile
  5516                           
  5517                           ;I2C.c: 72:     PIR1bits.SSP1IF = 0;
  5518     01FD  1191               	bcf	17,3	;volatile
  5519     01FE                     l35:
  5520     01FE  0008               	return
  5521     01FF                     __end_of_I2C_ClearErrors:
  5522                           
  5523                           	psect	text20
  5524     0331                     __ptext20:	
  5525 ;; *************** function _DS1302_ReadByte *****************
  5526 ;; Defined at:
  5527 ;;		line 71 in file "ds1302.c"
  5528 ;; Parameters:    Size  Location     Type
  5529 ;;		None
  5530 ;; Auto vars:     Size  Location     Type
  5531 ;;  i               1    3[COMMON] unsigned char 
  5532 ;;  R_Byte          1    2[COMMON] unsigned char 
  5533 ;;  TmpByte         1    1[COMMON] unsigned char 
  5534 ;; Return value:  Size  Location     Type
  5535 ;;                  1    wreg      unsigned char 
  5536 ;; Registers used:
  5537 ;;		wreg, status,2, status,0
  5538 ;; Tracked objects:
  5539 ;;		On entry : 0/0
  5540 ;;		On exit  : 0/0
  5541 ;;		Unchanged: 0/0
  5542 ;; Data sizes:     COMMON   BANK0   BANK1   BANK2   BANK3   BANK4   BANK5   BANK6   BANK7   BANK8   BANK9  BANK10  BANK1
      +1  BANK12  BANK13  BANK14  BANK15  BANK16  BANK17  BANK18  BANK19  BANK20  BANK21  BANK22  BANK23  BANK24  BANK25
  5543 ;;      Params:         0       0       0       0       0       0       0       0       0       0       0       0       
      +0       0       0       0       0       0       0       0       0       0       0       0       0       0       0
  5544 ;;      Locals:         3       0       0       0       0       0       0       0       0       0       0       0       
      +0       0       0       0       0       0       0       0       0       0       0       0       0       0       0
  5545 ;;      Temps:          1       0       0       0       0       0       0       0       0       0       0       0       
      +0       0       0       0       0       0       0       0       0       0       0       0       0       0       0
  5546 ;;      Totals:         4       0       0       0       0       0       0       0       0       0       0       0       
      +0       0       0       0       0       0       0       0       0       0       0       0       0       0       0
  5547 ;;Total ram usage:        4 bytes
  5548 ;; Hardware stack levels used: 1
  5549 ;; This function calls:
  5550 ;;		Nothing
  5551 ;; This function is called by:
  5552 ;;		_main
  5553 ;; This function uses a non-reentrant model
  5554 ;;
  5555                           
  5556     0331                     _DS1302_ReadByte:	
  5557                           ;psect for function _DS1302_ReadByte
  5558                           
  5559     0331                     l2382:	
  5560                           ;incstack = 0
  5561                           ; Regs used in _DS1302_ReadByte: [wreg+status,2+status,0]
  5562                           
  5563                           
  5564                           ;ds1302.c: 73:     unsigned char i;;ds1302.c: 74:     unsigned char R_Byte;;ds1302.c: 75
      +                          :     unsigned char TmpByte;;ds1302.c: 77:     R_Byte = 0x00;
  5565     0331  01F2               	clrf	DS1302_ReadByte@R_Byte
  5566     0332                     l2384:
  5567                           
  5568                           ;ds1302.c: 79:     TRISBbits.TRISB2 = 1;
  5569     0332  0021               	movlb	1	; select bank1
  5570     0333  150D               	bsf	13,2	;volatile
  5571     0334                     l2386:
  5572                           
  5573                           ;ds1302.c: 80:     PORTBbits.RB2 = 1;
  5574     0334  0020               	movlb	0	; select bank0
  5575     0335  150D               	bsf	13,2	;volatile
  5576                           
  5577                           ;ds1302.c: 82:     for(i=0; i<8; ++i)
  5578     0336  01F3               	clrf	DS1302_ReadByte@i
  5579     0337                     l377:
  5580                           
  5581                           ;ds1302.c: 83:     {;ds1302.c: 84:         LATBbits.LATB1 = 1;
  5582     0337  0022               	movlb	2	; select bank2
  5583     0338  148D               	bsf	13,1	;volatile
  5584                           
  5585                           ;ds1302.c: 85:         LATBbits.LATB1 = 0;
  5586     0339  108D               	bcf	13,1	;volatile
  5587     033A                     l2392:
  5588                           
  5589                           ;ds1302.c: 86:         TmpByte = (unsigned char)PORTBbits.RB2;
  5590     033A  3000               	movlw	0
  5591     033B  0020               	movlb	0	; select bank0
  5592     033C  190D               	btfsc	13,2	;volatile
  5593     033D  3001               	movlw	1
  5594     033E  00F1               	movwf	DS1302_ReadByte@TmpByte
  5595     033F                     l2394:
  5596                           
  5597                           ;ds1302.c: 87:         TmpByte <<= 7;
  5598     033F  0CF1               	rrf	DS1302_ReadByte@TmpByte,f
  5599     0340  01F1               	clrf	DS1302_ReadByte@TmpByte
  5600     0341  0CF1               	rrf	DS1302_ReadByte@TmpByte,f
  5601     0342                     l2396:
  5602                           
  5603                           ;ds1302.c: 88:         R_Byte >>= 1;
  5604     0342  1003               	clrc
  5605     0343  0CF2               	rrf	DS1302_ReadByte@R_Byte,f
  5606     0344                     l2398:
  5607                           
  5608                           ;ds1302.c: 89:         R_Byte |= TmpByte;
  5609     0344  0871               	movf	DS1302_ReadByte@TmpByte,w
  5610     0345  00F0               	movwf	??_DS1302_ReadByte
  5611     0346  0870               	movf	??_DS1302_ReadByte,w
  5612     0347  04F2               	iorwf	DS1302_ReadByte@R_Byte,f
  5613     0348                     l2400:
  5614                           
  5615                           ;ds1302.c: 90:     }
  5616     0348  3001               	movlw	1
  5617     0349  00F0               	movwf	??_DS1302_ReadByte
  5618     034A  0870               	movf	??_DS1302_ReadByte,w
  5619     034B  07F3               	addwf	DS1302_ReadByte@i,f
  5620     034C                     l2402:
  5621     034C  3008               	movlw	8
  5622     034D  0273               	subwf	DS1302_ReadByte@i,w
  5623     034E  1C03               	skipc
  5624     034F  2B51               	goto	u1661
  5625     0350  2B52               	goto	u1660
  5626     0351                     u1661:
  5627     0351  2B37               	goto	l377
  5628     0352                     u1660:
  5629     0352                     l378:
  5630                           
  5631                           ;ds1302.c: 91:     TRISBbits.TRISB2 = 0;
  5632     0352  0021               	movlb	1	; select bank1
  5633     0353  110D               	bcf	13,2	;volatile
  5634     0354                     l2404:
  5635                           
  5636                           ;ds1302.c: 92:     return R_Byte;
  5637     0354  0872               	movf	DS1302_ReadByte@R_Byte,w
  5638     0355                     l379:
  5639     0355  0008               	return
  5640     0356                     __end_of_DS1302_ReadByte:
  5641                           
  5642                           	psect	text21
  5643     05AE                     __ptext21:	
  5644 ;; *************** function _DS1302_Initialize *****************
  5645 ;; Defined at:
  5646 ;;		line 105 in file "ds1302.c"
  5647 ;; Parameters:    Size  Location     Type
  5648 ;;  sec             1    wreg     unsigned char 
  5649 ;;  min             1    0[BANK0 ] unsigned char 
  5650 ;;  hr              1    1[BANK0 ] unsigned char 
  5651 ;;  day             1    2[BANK0 ] unsigned char 
  5652 ;;  date            1    3[BANK0 ] unsigned char 
  5653 ;;  mth             1    4[BANK0 ] unsigned char 
  5654 ;;  year            1    5[BANK0 ] unsigned char 
  5655 ;; Auto vars:     Size  Location     Type
  5656 ;;  sec             1    6[BANK0 ] unsigned char 
  5657 ;;  year1           1   13[BANK0 ] unsigned char 
  5658 ;;  mth1            1   12[BANK0 ] unsigned char 
  5659 ;;  date1           1   11[BANK0 ] unsigned char 
  5660 ;;  day1            1   10[BANK0 ] unsigned char 
  5661 ;;  hr1             1    9[BANK0 ] unsigned char 
  5662 ;;  min1            1    8[BANK0 ] unsigned char 
  5663 ;;  sec1            1    7[BANK0 ] unsigned char 
  5664 ;; Return value:  Size  Location     Type
  5665 ;;                  1    wreg      void 
  5666 ;; Registers used:
  5667 ;;		wreg, status,2, status,0, pclath, cstack
  5668 ;; Tracked objects:
  5669 ;;		On entry : 0/0
  5670 ;;		On exit  : 0/0
  5671 ;;		Unchanged: 0/0
  5672 ;; Data sizes:     COMMON   BANK0   BANK1   BANK2   BANK3   BANK4   BANK5   BANK6   BANK7   BANK8   BANK9  BANK10  BANK1
      +1  BANK12  BANK13  BANK14  BANK15  BANK16  BANK17  BANK18  BANK19  BANK20  BANK21  BANK22  BANK23  BANK24  BANK25
  5673 ;;      Params:         0       6       0       0       0       0       0       0       0       0       0       0       
      +0       0       0       0       0       0       0       0       0       0       0       0       0       0       0
  5674 ;;      Locals:         0       8       0       0       0       0       0       0       0       0       0       0       
      +0       0       0       0       0       0       0       0       0       0       0       0       0       0       0
  5675 ;;      Temps:          0       0       0       0       0       0       0       0       0       0       0       0       
      +0       0       0       0       0       0       0       0       0       0       0       0       0       0       0
  5676 ;;      Totals:         0      14       0       0       0       0       0       0       0       0       0       0       
      +0       0       0       0       0       0       0       0       0       0       0       0       0       0       0
  5677 ;;Total ram usage:       14 bytes
  5678 ;; Hardware stack levels used: 1
  5679 ;; Hardware stack levels required when called: 2
  5680 ;; This function calls:
  5681 ;;		_DS1302_Reset
  5682 ;;		_DS1302_WriteByte
  5683 ;;		_get_bcd
  5684 ;; This function is called by:
  5685 ;;		_main
  5686 ;; This function uses a non-reentrant model
  5687 ;;
  5688                           
  5689     05AE                     _DS1302_Initialize:	
  5690                           ;psect for function _DS1302_Initialize
  5691                           
  5692                           
  5693                           ;incstack = 0
  5694                           ; Regs used in _DS1302_Initialize: [wreg+status,2+status,0+pclath+cstack]
  5695                           ;DS1302_Initialize@sec stored from wreg
  5696     05AE  0020               	movlb	0	; select bank0
  5697     05AF  00A6               	movwf	DS1302_Initialize@sec
  5698     05B0                     l2352:
  5699                           
  5700                           ;ds1302.c: 105: void DS1302_Initialize(byte sec, byte min, byte hr, byte day, byte date,
      +                          ;ds1302.c: 106:                        byte mth, byte year);ds1302.c: 107: {;ds1302.c: 1
      +                          09:     byte sec1 = get_bcd(sec);
  5701     05B0  0826               	movf	DS1302_Initialize@sec,w
  5702     05B1  3182  22C7  3185   	fcall	_get_bcd
  5703     05B4  0020               	movlb	0	; select bank0
  5704     05B5  00A7               	movwf	DS1302_Initialize@sec1
  5705                           
  5706                           ;ds1302.c: 110:     byte min1 = get_bcd(min);
  5707     05B6  0820               	movf	DS1302_Initialize@min,w
  5708     05B7  3182  22C7  3185   	fcall	_get_bcd
  5709     05BA  0020               	movlb	0	; select bank0
  5710     05BB  00A8               	movwf	DS1302_Initialize@min1
  5711                           
  5712                           ;ds1302.c: 111:     byte hr1 = get_bcd(hr);
  5713     05BC  0821               	movf	DS1302_Initialize@hr,w
  5714     05BD  3182  22C7  3185   	fcall	_get_bcd
  5715     05C0  0020               	movlb	0	; select bank0
  5716     05C1  00A9               	movwf	DS1302_Initialize@hr1
  5717                           
  5718                           ;ds1302.c: 112:     byte day1 = get_bcd(day);
  5719     05C2  0822               	movf	DS1302_Initialize@day,w
  5720     05C3  3182  22C7  3185   	fcall	_get_bcd
  5721     05C6  0020               	movlb	0	; select bank0
  5722     05C7  00AA               	movwf	DS1302_Initialize@day1
  5723                           
  5724                           ;ds1302.c: 113:     byte date1 = get_bcd(date);
  5725     05C8  0823               	movf	DS1302_Initialize@date,w
  5726     05C9  3182  22C7  3185   	fcall	_get_bcd
  5727     05CC  0020               	movlb	0	; select bank0
  5728     05CD  00AB               	movwf	DS1302_Initialize@date1
  5729                           
  5730                           ;ds1302.c: 114:     byte mth1 = get_bcd(mth);
  5731     05CE  0824               	movf	DS1302_Initialize@mth,w
  5732     05CF  3182  22C7  3185   	fcall	_get_bcd
  5733     05D2  0020               	movlb	0	; select bank0
  5734     05D3  00AC               	movwf	DS1302_Initialize@mth1
  5735                           
  5736                           ;ds1302.c: 115:     byte year1 = get_bcd(year);
  5737     05D4  0825               	movf	DS1302_Initialize@year,w
  5738     05D5  3182  22C7  3185   	fcall	_get_bcd
  5739     05D8  0020               	movlb	0	; select bank0
  5740     05D9  00AD               	movwf	DS1302_Initialize@year1
  5741     05DA                     l2354:
  5742                           
  5743                           ;ds1302.c: 118:     DS1302_Reset();
  5744     05DA  3181  21F3  3185   	fcall	_DS1302_Reset
  5745     05DD                     l2356:
  5746                           
  5747                           ;ds1302.c: 119:     DS1302_WriteByte(0x8e);
  5748     05DD  308E               	movlw	142
  5749     05DE  3182  2252  3185   	fcall	_DS1302_WriteByte
  5750     05E1                     l2358:
  5751                           
  5752                           ;ds1302.c: 120:     DS1302_WriteByte(0);
  5753     05E1  3000               	movlw	0
  5754     05E2  3182  2252  3185   	fcall	_DS1302_WriteByte
  5755     05E5                     l2360:
  5756                           
  5757                           ;ds1302.c: 121:     DS1302_Reset();
  5758     05E5  3181  21F3  3185   	fcall	_DS1302_Reset
  5759                           
  5760                           ;ds1302.c: 122:     DS1302_WriteByte(0x90);
  5761     05E8  3090               	movlw	144
  5762     05E9  3182  2252  3185   	fcall	_DS1302_WriteByte
  5763                           
  5764                           ;ds1302.c: 123:     DS1302_WriteByte(0xab);
  5765     05EC  30AB               	movlw	171
  5766     05ED  3182  2252  3185   	fcall	_DS1302_WriteByte
  5767     05F0                     l2362:
  5768                           
  5769                           ;ds1302.c: 124:     DS1302_Reset();
  5770     05F0  3181  21F3  3185   	fcall	_DS1302_Reset
  5771     05F3                     l2364:
  5772                           
  5773                           ;ds1302.c: 125:     DS1302_WriteByte(0xbe);
  5774     05F3  30BE               	movlw	190
  5775     05F4  3182  2252  3185   	fcall	_DS1302_WriteByte
  5776     05F7                     l2366:
  5777                           
  5778                           ;ds1302.c: 126:     DS1302_WriteByte(sec1);
  5779     05F7  0020               	movlb	0	; select bank0
  5780     05F8  0827               	movf	DS1302_Initialize@sec1,w
  5781     05F9  3182  2252  3185   	fcall	_DS1302_WriteByte
  5782     05FC                     l2368:
  5783                           
  5784                           ;ds1302.c: 127:     DS1302_WriteByte(min1);
  5785     05FC  0020               	movlb	0	; select bank0
  5786     05FD  0828               	movf	DS1302_Initialize@min1,w
  5787     05FE  3182  2252  3185   	fcall	_DS1302_WriteByte
  5788     0601                     l2370:
  5789                           
  5790                           ;ds1302.c: 128:     DS1302_WriteByte(hr1);
  5791     0601  0020               	movlb	0	; select bank0
  5792     0602  0829               	movf	DS1302_Initialize@hr1,w
  5793     0603  3182  2252  3185   	fcall	_DS1302_WriteByte
  5794     0606                     l2372:
  5795                           
  5796                           ;ds1302.c: 129:     DS1302_WriteByte(date1);
  5797     0606  0020               	movlb	0	; select bank0
  5798     0607  082B               	movf	DS1302_Initialize@date1,w
  5799     0608  3182  2252  3185   	fcall	_DS1302_WriteByte
  5800     060B                     l2374:
  5801                           
  5802                           ;ds1302.c: 130:     DS1302_WriteByte(mth1);
  5803     060B  0020               	movlb	0	; select bank0
  5804     060C  082C               	movf	DS1302_Initialize@mth1,w
  5805     060D  3182  2252  3185   	fcall	_DS1302_WriteByte
  5806     0610                     l2376:
  5807                           
  5808                           ;ds1302.c: 131:     DS1302_WriteByte(day1);
  5809     0610  0020               	movlb	0	; select bank0
  5810     0611  082A               	movf	DS1302_Initialize@day1,w
  5811     0612  3182  2252  3185   	fcall	_DS1302_WriteByte
  5812     0615                     l2378:
  5813                           
  5814                           ;ds1302.c: 132:     DS1302_WriteByte(year1);
  5815     0615  0020               	movlb	0	; select bank0
  5816     0616  082D               	movf	DS1302_Initialize@year1,w
  5817     0617  3182  2252  3185   	fcall	_DS1302_WriteByte
  5818     061A                     l2380:
  5819                           
  5820                           ;ds1302.c: 133:     DS1302_WriteByte(0);
  5821     061A  3000               	movlw	0
  5822     061B  3182  2252  3185   	fcall	_DS1302_WriteByte
  5823                           
  5824                           ;ds1302.c: 134:     DS1302_Reset();
  5825     061E  3181  21F3  3185   	fcall	_DS1302_Reset
  5826     0621                     l382:
  5827     0621  0008               	return
  5828     0622                     __end_of_DS1302_Initialize:
  5829                           
  5830                           	psect	text22
  5831     02C7                     __ptext22:	
  5832 ;; *************** function _get_bcd *****************
  5833 ;; Defined at:
  5834 ;;		line 147 in file "ds1302.c"
  5835 ;; Parameters:    Size  Location     Type
  5836 ;;  data            1    wreg     unsigned char 
  5837 ;; Auto vars:     Size  Location     Type
  5838 ;;  data            1   12[COMMON] unsigned char 
  5839 ;;  nibh            1   13[COMMON] unsigned char 
  5840 ;;  nibl            1   11[COMMON] unsigned char 
  5841 ;; Return value:  Size  Location     Type
  5842 ;;                  1    wreg      unsigned char 
  5843 ;; Registers used:
  5844 ;;		wreg, status,2, status,0, pclath, cstack
  5845 ;; Tracked objects:
  5846 ;;		On entry : 0/0
  5847 ;;		On exit  : 0/0
  5848 ;;		Unchanged: 0/0
  5849 ;; Data sizes:     COMMON   BANK0   BANK1   BANK2   BANK3   BANK4   BANK5   BANK6   BANK7   BANK8   BANK9  BANK10  BANK1
      +1  BANK12  BANK13  BANK14  BANK15  BANK16  BANK17  BANK18  BANK19  BANK20  BANK21  BANK22  BANK23  BANK24  BANK25
  5850 ;;      Params:         0       0       0       0       0       0       0       0       0       0       0       0       
      +0       0       0       0       0       0       0       0       0       0       0       0       0       0       0
  5851 ;;      Locals:         3       0       0       0       0       0       0       0       0       0       0       0       
      +0       0       0       0       0       0       0       0       0       0       0       0       0       0       0
  5852 ;;      Temps:          2       0       0       0       0       0       0       0       0       0       0       0       
      +0       0       0       0       0       0       0       0       0       0       0       0       0       0       0
  5853 ;;      Totals:         5       0       0       0       0       0       0       0       0       0       0       0       
      +0       0       0       0       0       0       0       0       0       0       0       0       0       0       0
  5854 ;;Total ram usage:        5 bytes
  5855 ;; Hardware stack levels used: 1
  5856 ;; Hardware stack levels required when called: 1
  5857 ;; This function calls:
  5858 ;;		___awdiv
  5859 ;;		___bmul
  5860 ;; This function is called by:
  5861 ;;		_DS1302_Initialize
  5862 ;; This function uses a non-reentrant model
  5863 ;;
  5864                           
  5865     02C7                     _get_bcd:	
  5866                           ;psect for function _get_bcd
  5867                           
  5868                           
  5869                           ;incstack = 0
  5870                           ; Regs used in _get_bcd: [wreg+status,2+status,0+pclath+cstack]
  5871                           ;get_bcd@data stored from wreg
  5872     02C7  00FC               	movwf	get_bcd@data
  5873     02C8                     l2204:
  5874                           
  5875                           ;ds1302.c: 147: unsigned char get_bcd(unsigned char data);ds1302.c: 148: {;ds1302.c: 149
      +                          :    unsigned char nibh;;ds1302.c: 150:    unsigned char nibl;;ds1302.c: 152:    nibh=da
      +                          ta/10;
  5876     02C8  300A               	movlw	10
  5877     02C9  00F0               	movwf	___awdiv@divisor
  5878     02CA  3000               	movlw	0
  5879     02CB  00F1               	movwf	___awdiv@divisor+1
  5880     02CC  087C               	movf	get_bcd@data,w
  5881     02CD  00F9               	movwf	??_get_bcd
  5882     02CE  01FA               	clrf	??_get_bcd+1
  5883     02CF  0879               	movf	??_get_bcd,w
  5884     02D0  00F2               	movwf	___awdiv@dividend
  5885     02D1  087A               	movf	??_get_bcd+1,w
  5886     02D2  00F3               	movwf	___awdiv@dividend+1
  5887     02D3  3185  254F  3182   	fcall	___awdiv
  5888     02D6  0870               	movf	?___awdiv,w
  5889     02D7  00FD               	movwf	get_bcd@nibh
  5890                           
  5891                           ;ds1302.c: 153:    nibl=data-(nibh*10);
  5892     02D8  30F6               	movlw	246
  5893     02D9  00F0               	movwf	___bmul@multiplicand
  5894     02DA  087D               	movf	get_bcd@nibh,w
  5895     02DB  3182  2228  3182   	fcall	___bmul
  5896     02DE  077C               	addwf	get_bcd@data,w
  5897     02DF  00FB               	movwf	get_bcd@nibl
  5898     02E0                     l2206:
  5899                           
  5900                           ;ds1302.c: 155:    return((nibh<<4)|nibl);
  5901     02E0  087D               	movf	get_bcd@nibh,w
  5902     02E1  00F9               	movwf	??_get_bcd
  5903     02E2  3003               	movlw	3
  5904     02E3                     u1595:
  5905     02E3  35F9               	lslf	??_get_bcd,f
  5906     02E4  3EFF               	addlw	-1
  5907     02E5  1D03               	skipz
  5908     02E6  2AE3               	goto	u1595
  5909     02E7  3579               	lslf	??_get_bcd,w
  5910     02E8  047B               	iorwf	get_bcd@nibl,w
  5911     02E9                     l385:
  5912     02E9  0008               	return
  5913     02EA                     __end_of_get_bcd:
  5914                           
  5915                           	psect	text23
  5916     0228                     __ptext23:	
  5917 ;; *************** function ___bmul *****************
  5918 ;; Defined at:
  5919 ;;		line 4 in file "C:\Program Files\Microchip\xc8\v2.46\pic\sources\c99\common\Umul8.c"
  5920 ;; Parameters:    Size  Location     Type
  5921 ;;  multiplier      1    wreg     unsigned char 
  5922 ;;  multiplicand    1    0[COMMON] unsigned char 
  5923 ;; Auto vars:     Size  Location     Type
  5924 ;;  multiplier      1    3[COMMON] unsigned char 
  5925 ;;  product         1    2[COMMON] unsigned char 
  5926 ;; Return value:  Size  Location     Type
  5927 ;;                  1    wreg      unsigned char 
  5928 ;; Registers used:
  5929 ;;		wreg, status,2, status,0
  5930 ;; Tracked objects:
  5931 ;;		On entry : 0/0
  5932 ;;		On exit  : 0/0
  5933 ;;		Unchanged: 0/0
  5934 ;; Data sizes:     COMMON   BANK0   BANK1   BANK2   BANK3   BANK4   BANK5   BANK6   BANK7   BANK8   BANK9  BANK10  BANK1
      +1  BANK12  BANK13  BANK14  BANK15  BANK16  BANK17  BANK18  BANK19  BANK20  BANK21  BANK22  BANK23  BANK24  BANK25
  5935 ;;      Params:         1       0       0       0       0       0       0       0       0       0       0       0       
      +0       0       0       0       0       0       0       0       0       0       0       0       0       0       0
  5936 ;;      Locals:         2       0       0       0       0       0       0       0       0       0       0       0       
      +0       0       0       0       0       0       0       0       0       0       0       0       0       0       0
  5937 ;;      Temps:          1       0       0       0       0       0       0       0       0       0       0       0       
      +0       0       0       0       0       0       0       0       0       0       0       0       0       0       0
  5938 ;;      Totals:         4       0       0       0       0       0       0       0       0       0       0       0       
      +0       0       0       0       0       0       0       0       0       0       0       0       0       0       0
  5939 ;;Total ram usage:        4 bytes
  5940 ;; Hardware stack levels used: 1
  5941 ;; This function calls:
  5942 ;;		Nothing
  5943 ;; This function is called by:
  5944 ;;		_get_bcd
  5945 ;;		_get_dec
  5946 ;; This function uses a non-reentrant model
  5947 ;;
  5948                           
  5949     0228                     ___bmul:	
  5950                           ;psect for function ___bmul
  5951                           
  5952                           
  5953                           ;incstack = 0
  5954                           ; Regs used in ___bmul: [wreg+status,2+status,0]
  5955                           ;___bmul@multiplier stored from wreg
  5956     0228  00F3               	movwf	___bmul@multiplier
  5957     0229                     l2110:
  5958     0229  01F2               	clrf	___bmul@product
  5959     022A                     l2112:
  5960     022A  1C73               	btfss	___bmul@multiplier,0
  5961     022B  2A2D               	goto	u1421
  5962     022C  2A2E               	goto	u1420
  5963     022D                     u1421:
  5964     022D  2A32               	goto	l2116
  5965     022E                     u1420:
  5966     022E                     l2114:
  5967     022E  0870               	movf	___bmul@multiplicand,w
  5968     022F  00F1               	movwf	??___bmul
  5969     0230  0871               	movf	??___bmul,w
  5970     0231  07F2               	addwf	___bmul@product,f
  5971     0232                     l2116:
  5972     0232  1003               	clrc
  5973     0233  0DF0               	rlf	___bmul@multiplicand,f
  5974     0234                     l2118:
  5975     0234  1003               	clrc
  5976     0235  0CF3               	rrf	___bmul@multiplier,f
  5977     0236  0873               	movf	___bmul@multiplier,w
  5978     0237  1D03               	btfss	3,2
  5979     0238  2A3A               	goto	u1431
  5980     0239  2A3B               	goto	u1430
  5981     023A                     u1431:
  5982     023A  2A2A               	goto	l2112
  5983     023B                     u1430:
  5984     023B                     l2120:
  5985     023B  0872               	movf	___bmul@product,w
  5986     023C                     l482:
  5987     023C  0008               	return
  5988     023D                     __end_of___bmul:
  5989                           
  5990                           	psect	text24
  5991     054F                     __ptext24:	
  5992 ;; *************** function ___awdiv *****************
  5993 ;; Defined at:
  5994 ;;		line 5 in file "C:\Program Files\Microchip\xc8\v2.46\pic\sources\c99\common\awdiv.c"
  5995 ;; Parameters:    Size  Location     Type
  5996 ;;  divisor         2    0[COMMON] int 
  5997 ;;  dividend        2    2[COMMON] int 
  5998 ;; Auto vars:     Size  Location     Type
  5999 ;;  quotient        2    7[COMMON] int 
  6000 ;;  sign            1    6[COMMON] unsigned char 
  6001 ;;  counter         1    5[COMMON] unsigned char 
  6002 ;; Return value:  Size  Location     Type
  6003 ;;                  2    0[COMMON] int 
  6004 ;; Registers used:
  6005 ;;		wreg, status,2, status,0
  6006 ;; Tracked objects:
  6007 ;;		On entry : 0/0
  6008 ;;		On exit  : 0/0
  6009 ;;		Unchanged: 0/0
  6010 ;; Data sizes:     COMMON   BANK0   BANK1   BANK2   BANK3   BANK4   BANK5   BANK6   BANK7   BANK8   BANK9  BANK10  BANK1
      +1  BANK12  BANK13  BANK14  BANK15  BANK16  BANK17  BANK18  BANK19  BANK20  BANK21  BANK22  BANK23  BANK24  BANK25
  6011 ;;      Params:         4       0       0       0       0       0       0       0       0       0       0       0       
      +0       0       0       0       0       0       0       0       0       0       0       0       0       0       0
  6012 ;;      Locals:         4       0       0       0       0       0       0       0       0       0       0       0       
      +0       0       0       0       0       0       0       0       0       0       0       0       0       0       0
  6013 ;;      Temps:          1       0       0       0       0       0       0       0       0       0       0       0       
      +0       0       0       0       0       0       0       0       0       0       0       0       0       0       0
  6014 ;;      Totals:         9       0       0       0       0       0       0       0       0       0       0       0       
      +0       0       0       0       0       0       0       0       0       0       0       0       0       0       0
  6015 ;;Total ram usage:        9 bytes
  6016 ;; Hardware stack levels used: 1
  6017 ;; This function calls:
  6018 ;;		Nothing
  6019 ;; This function is called by:
  6020 ;;		_main
  6021 ;;		_get_bcd
  6022 ;;		_OLED_Printf_Line
  6023 ;;		_OLED_DrawBattery
  6024 ;; This function uses a non-reentrant model
  6025 ;;
  6026                           
  6027     054F                     ___awdiv:	
  6028                           ;psect for function ___awdiv
  6029                           
  6030     054F                     l2124:	
  6031                           ;incstack = 0
  6032                           ; Regs used in ___awdiv: [wreg+status,2+status,0]
  6033                           
  6034     054F  01F6               	clrf	___awdiv@sign
  6035     0550                     l2126:
  6036     0550  1FF1               	btfss	___awdiv@divisor+1,7
  6037     0551  2D53               	goto	u1441
  6038     0552  2D54               	goto	u1440
  6039     0553                     u1441:
  6040     0553  2D5B               	goto	l2132
  6041     0554                     u1440:
  6042     0554                     l2128:
  6043     0554  09F0               	comf	___awdiv@divisor,f
  6044     0555  09F1               	comf	___awdiv@divisor+1,f
  6045     0556  0AF0               	incf	___awdiv@divisor,f
  6046     0557  1903               	skipnz
  6047     0558  0AF1               	incf	___awdiv@divisor+1,f
  6048     0559                     l2130:
  6049     0559  01F6               	clrf	___awdiv@sign
  6050     055A  0AF6               	incf	___awdiv@sign,f
  6051     055B                     l2132:
  6052     055B  1FF3               	btfss	___awdiv@dividend+1,7
  6053     055C  2D5E               	goto	u1451
  6054     055D  2D5F               	goto	u1450
  6055     055E                     u1451:
  6056     055E  2D68               	goto	l2138
  6057     055F                     u1450:
  6058     055F                     l2134:
  6059     055F  09F2               	comf	___awdiv@dividend,f
  6060     0560  09F3               	comf	___awdiv@dividend+1,f
  6061     0561  0AF2               	incf	___awdiv@dividend,f
  6062     0562  1903               	skipnz
  6063     0563  0AF3               	incf	___awdiv@dividend+1,f
  6064     0564                     l2136:
  6065     0564  3001               	movlw	1
  6066     0565  00F4               	movwf	??___awdiv
  6067     0566  0874               	movf	??___awdiv,w
  6068     0567  06F6               	xorwf	___awdiv@sign,f
  6069     0568                     l2138:
  6070     0568  01F7               	clrf	___awdiv@quotient
  6071     0569  01F8               	clrf	___awdiv@quotient+1
  6072     056A                     l2140:
  6073     056A  0870               	movf	___awdiv@divisor,w
  6074     056B  0471               	iorwf	___awdiv@divisor+1,w
  6075     056C  1903               	btfsc	3,2
  6076     056D  2D6F               	goto	u1461
  6077     056E  2D70               	goto	u1460
  6078     056F                     u1461:
  6079     056F  2D9F               	goto	l2160
  6080     0570                     u1460:
  6081     0570                     l2142:
  6082     0570  01F5               	clrf	___awdiv@counter
  6083     0571  0AF5               	incf	___awdiv@counter,f
  6084     0572  2D7C               	goto	l2148
  6085     0573                     l2144:
  6086     0573  3001               	movlw	1
  6087     0574                     u1475:
  6088     0574  35F0               	lslf	___awdiv@divisor,f
  6089     0575  0DF1               	rlf	___awdiv@divisor+1,f
  6090     0576  0B89               	decfsz	9,f
  6091     0577  2D74               	goto	u1475
  6092     0578                     l2146:
  6093     0578  3001               	movlw	1
  6094     0579  00F4               	movwf	??___awdiv
  6095     057A  0874               	movf	??___awdiv,w
  6096     057B  07F5               	addwf	___awdiv@counter,f
  6097     057C                     l2148:
  6098     057C  1FF1               	btfss	___awdiv@divisor+1,7
  6099     057D  2D7F               	goto	u1481
  6100     057E  2D80               	goto	u1480
  6101     057F                     u1481:
  6102     057F  2D73               	goto	l2144
  6103     0580                     u1480:
  6104     0580                     l2150:
  6105     0580  3001               	movlw	1
  6106     0581                     u1495:
  6107     0581  35F7               	lslf	___awdiv@quotient,f
  6108     0582  0DF8               	rlf	___awdiv@quotient+1,f
  6109     0583  0B89               	decfsz	9,f
  6110     0584  2D81               	goto	u1495
  6111     0585  0871               	movf	___awdiv@divisor+1,w
  6112     0586  0273               	subwf	___awdiv@dividend+1,w
  6113     0587  1D03               	skipz
  6114     0588  2D8B               	goto	u1505
  6115     0589  0870               	movf	___awdiv@divisor,w
  6116     058A  0272               	subwf	___awdiv@dividend,w
  6117     058B                     u1505:
  6118     058B  1C03               	skipc
  6119     058C  2D8E               	goto	u1501
  6120     058D  2D8F               	goto	u1500
  6121     058E                     u1501:
  6122     058E  2D94               	goto	l2156
  6123     058F                     u1500:
  6124     058F                     l2152:
  6125     058F  0870               	movf	___awdiv@divisor,w
  6126     0590  02F2               	subwf	___awdiv@dividend,f
  6127     0591  0871               	movf	___awdiv@divisor+1,w
  6128     0592  3BF3               	subwfb	___awdiv@dividend+1,f
  6129     0593                     l2154:
  6130     0593  1477               	bsf	___awdiv@quotient,0
  6131     0594                     l2156:
  6132     0594  3001               	movlw	1
  6133     0595                     u1515:
  6134     0595  36F1               	lsrf	___awdiv@divisor+1,f
  6135     0596  0CF0               	rrf	___awdiv@divisor,f
  6136     0597  0B89               	decfsz	9,f
  6137     0598  2D95               	goto	u1515
  6138     0599                     l2158:
  6139     0599  3001               	movlw	1
  6140     059A  02F5               	subwf	___awdiv@counter,f
  6141     059B  1D03               	btfss	3,2
  6142     059C  2D9E               	goto	u1521
  6143     059D  2D9F               	goto	u1520
  6144     059E                     u1521:
  6145     059E  2D80               	goto	l2150
  6146     059F                     u1520:
  6147     059F                     l2160:
  6148     059F  0876               	movf	___awdiv@sign,w
  6149     05A0  1903               	btfsc	3,2
  6150     05A1  2DA3               	goto	u1531
  6151     05A2  2DA4               	goto	u1530
  6152     05A3                     u1531:
  6153     05A3  2DA9               	goto	l2164
  6154     05A4                     u1530:
  6155     05A4                     l2162:
  6156     05A4  09F7               	comf	___awdiv@quotient,f
  6157     05A5  09F8               	comf	___awdiv@quotient+1,f
  6158     05A6  0AF7               	incf	___awdiv@quotient,f
  6159     05A7  1903               	skipnz
  6160     05A8  0AF8               	incf	___awdiv@quotient+1,f
  6161     05A9                     l2164:
  6162     05A9  0878               	movf	___awdiv@quotient+1,w
  6163     05AA  00F1               	movwf	?___awdiv+1
  6164     05AB  0877               	movf	___awdiv@quotient,w
  6165     05AC  00F0               	movwf	?___awdiv
  6166     05AD                     l609:
  6167     05AD  0008               	return
  6168     05AE                     __end_of___awdiv:
  6169                           
  6170                           	psect	text25
  6171     0252                     __ptext25:	
  6172 ;; *************** function _DS1302_WriteByte *****************
  6173 ;; Defined at:
  6174 ;;		line 43 in file "ds1302.c"
  6175 ;; Parameters:    Size  Location     Type
  6176 ;;  W_Byte          1    wreg     unsigned char 
  6177 ;; Auto vars:     Size  Location     Type
  6178 ;;  W_Byte          1    1[COMMON] unsigned char 
  6179 ;;  i               1    2[COMMON] unsigned char 
  6180 ;; Return value:  Size  Location     Type
  6181 ;;                  1    wreg      void 
  6182 ;; Registers used:
  6183 ;;		wreg, status,2, status,0
  6184 ;; Tracked objects:
  6185 ;;		On entry : 0/0
  6186 ;;		On exit  : 0/0
  6187 ;;		Unchanged: 0/0
  6188 ;; Data sizes:     COMMON   BANK0   BANK1   BANK2   BANK3   BANK4   BANK5   BANK6   BANK7   BANK8   BANK9  BANK10  BANK1
      +1  BANK12  BANK13  BANK14  BANK15  BANK16  BANK17  BANK18  BANK19  BANK20  BANK21  BANK22  BANK23  BANK24  BANK25
  6189 ;;      Params:         0       0       0       0       0       0       0       0       0       0       0       0       
      +0       0       0       0       0       0       0       0       0       0       0       0       0       0       0
  6190 ;;      Locals:         2       0       0       0       0       0       0       0       0       0       0       0       
      +0       0       0       0       0       0       0       0       0       0       0       0       0       0       0
  6191 ;;      Temps:          1       0       0       0       0       0       0       0       0       0       0       0       
      +0       0       0       0       0       0       0       0       0       0       0       0       0       0       0
  6192 ;;      Totals:         3       0       0       0       0       0       0       0       0       0       0       0       
      +0       0       0       0       0       0       0       0       0       0       0       0       0       0       0
  6193 ;;Total ram usage:        3 bytes
  6194 ;; Hardware stack levels used: 1
  6195 ;; This function calls:
  6196 ;;		Nothing
  6197 ;; This function is called by:
  6198 ;;		_main
  6199 ;;		_DS1302_Initialize
  6200 ;; This function uses a non-reentrant model
  6201 ;;
  6202                           
  6203     0252                     _DS1302_WriteByte:	
  6204                           ;psect for function _DS1302_WriteByte
  6205                           
  6206                           
  6207                           ;incstack = 0
  6208                           ; Regs used in _DS1302_WriteByte: [wreg+status,2+status,0]
  6209                           ;DS1302_WriteByte@W_Byte stored from wreg
  6210     0252  00F1               	movwf	DS1302_WriteByte@W_Byte
  6211     0253                     l2190:
  6212                           
  6213                           ;ds1302.c: 43: void DS1302_WriteByte(unsigned char W_Byte);ds1302.c: 44: {;ds1302.c: 45:
      +                               unsigned char i;;ds1302.c: 47:     for(i = 0; i < 8; ++i)
  6214     0253  01F2               	clrf	DS1302_WriteByte@i
  6215     0254                     l371:
  6216                           
  6217                           ;ds1302.c: 48:     {;ds1302.c: 49:         PORTBbits.RB2 = 0;
  6218     0254  0020               	movlb	0	; select bank0
  6219     0255  110D               	bcf	13,2	;volatile
  6220                           
  6221                           ;ds1302.c: 51:         if(W_Byte & 0x01)
  6222     0256  1C71               	btfss	DS1302_WriteByte@W_Byte,0
  6223     0257  2A59               	goto	u1571
  6224     0258  2A5A               	goto	u1570
  6225     0259                     u1571:
  6226     0259  2A5B               	goto	l373
  6227     025A                     u1570:
  6228     025A                     l2196:
  6229                           
  6230                           ;ds1302.c: 52:         {;ds1302.c: 53:             PORTBbits.RB2 = 1;
  6231     025A  150D               	bsf	13,2	;volatile
  6232     025B                     l373:	
  6233                           ;ds1302.c: 54:         }
  6234                           
  6235                           
  6236                           ;ds1302.c: 56:         LATBbits.LATB1 = 0;
  6237     025B  0022               	movlb	2	; select bank2
  6238     025C  108D               	bcf	13,1	;volatile
  6239                           
  6240                           ;ds1302.c: 57:         LATBbits.LATB1 = 1;
  6241     025D  148D               	bsf	13,1	;volatile
  6242     025E                     l2198:
  6243                           
  6244                           ;ds1302.c: 58:         W_Byte >>= 1;
  6245     025E  1003               	clrc
  6246     025F  0CF1               	rrf	DS1302_WriteByte@W_Byte,f
  6247     0260                     l2200:
  6248                           
  6249                           ;ds1302.c: 59:     }
  6250     0260  3001               	movlw	1
  6251     0261  00F0               	movwf	??_DS1302_WriteByte
  6252     0262  0870               	movf	??_DS1302_WriteByte,w
  6253     0263  07F2               	addwf	DS1302_WriteByte@i,f
  6254     0264                     l2202:
  6255     0264  3008               	movlw	8
  6256     0265  0272               	subwf	DS1302_WriteByte@i,w
  6257     0266  1C03               	skipc
  6258     0267  2A69               	goto	u1581
  6259     0268  2A6A               	goto	u1580
  6260     0269                     u1581:
  6261     0269  2A54               	goto	l371
  6262     026A                     u1580:
  6263     026A                     l374:
  6264     026A  0008               	return
  6265     026B                     __end_of_DS1302_WriteByte:
  6266                           
  6267                           	psect	text26
  6268     01F3                     __ptext26:	
  6269 ;; *************** function _DS1302_Reset *****************
  6270 ;; Defined at:
  6271 ;;		line 26 in file "ds1302.c"
  6272 ;; Parameters:    Size  Location     Type
  6273 ;;		None
  6274 ;; Auto vars:     Size  Location     Type
  6275 ;;		None
  6276 ;; Return value:  Size  Location     Type
  6277 ;;                  1    wreg      void 
  6278 ;; Registers used:
  6279 ;;		None
  6280 ;; Tracked objects:
  6281 ;;		On entry : 0/0
  6282 ;;		On exit  : 0/0
  6283 ;;		Unchanged: 0/0
  6284 ;; Data sizes:     COMMON   BANK0   BANK1   BANK2   BANK3   BANK4   BANK5   BANK6   BANK7   BANK8   BANK9  BANK10  BANK1
      +1  BANK12  BANK13  BANK14  BANK15  BANK16  BANK17  BANK18  BANK19  BANK20  BANK21  BANK22  BANK23  BANK24  BANK25
  6285 ;;      Params:         0       0       0       0       0       0       0       0       0       0       0       0       
      +0       0       0       0       0       0       0       0       0       0       0       0       0       0       0
  6286 ;;      Locals:         0       0       0       0       0       0       0       0       0       0       0       0       
      +0       0       0       0       0       0       0       0       0       0       0       0       0       0       0
  6287 ;;      Temps:          0       0       0       0       0       0       0       0       0       0       0       0       
      +0       0       0       0       0       0       0       0       0       0       0       0       0       0       0
  6288 ;;      Totals:         0       0       0       0       0       0       0       0       0       0       0       0       
      +0       0       0       0       0       0       0       0       0       0       0       0       0       0       0
  6289 ;;Total ram usage:        0 bytes
  6290 ;; Hardware stack levels used: 1
  6291 ;; This function calls:
  6292 ;;		Nothing
  6293 ;; This function is called by:
  6294 ;;		_main
  6295 ;;		_DS1302_Initialize
  6296 ;; This function uses a non-reentrant model
  6297 ;;
  6298                           
  6299     01F3                     _DS1302_Reset:	
  6300                           ;psect for function _DS1302_Reset
  6301                           
  6302     01F3                     l2188:	
  6303                           ;incstack = 0
  6304                           ; Regs used in _DS1302_Reset: []
  6305                           
  6306                           
  6307                           ;ds1302.c: 28:     LATBbits.LATB1 = 0;
  6308     01F3  0022               	movlb	2	; select bank2
  6309     01F4  108D               	bcf	13,1	;volatile
  6310                           
  6311                           ;ds1302.c: 29:     LATBbits.LATB0 = 0;
  6312     01F5  100D               	bcf	13,0	;volatile
  6313                           
  6314                           ;ds1302.c: 30:     LATBbits.LATB0 = 1;
  6315     01F6  140D               	bsf	13,0	;volatile
  6316     01F7                     l368:
  6317     01F7  0008               	return
  6318     01F8                     __end_of_DS1302_Reset:
  6319     007E                     btemp	set	126	;btemp
  6320     007E                     wtemp0	set	126
  6321     24F0                     
  6322                           	psect	config
  6323                           
  6324                           ;Config register CONFIG1 @ 0x8007
  6325                           ;	Oscillator Selection Bits
  6326                           ;	FOSC = INTOSC, INTOSC oscillator: I/O function on CLKIN pin
  6327                           ;	Watchdog Timer Enable
  6328                           ;	WDTE = OFF, WDT disabled
  6329                           ;	Power-up Timer Enable
  6330                           ;	PWRTE = OFF, PWRT disabled
  6331                           ;	MCLR Pin Function Select
  6332                           ;	MCLRE = OFF, MCLR/VPP pin function is digital input if LVP bit is also 0.
  6333                           ;	Flash Program Memory Code Protection
  6334                           ;	CP = OFF, Program memory code protection is disabled
  6335                           ;	Brown-out Reset Enable
  6336                           ;	BOREN = OFF, Brown-out Reset disabled
  6337                           ;	Clock Out Enable
  6338                           ;	CLKOUTEN = OFF, CLKOUT function is disabled. I/O or oscillator function on the CLKOUT 
      +                          pin
  6339                           ;	Internal/External Switchover Mode
  6340                           ;	IESO = ON, Internal/External Switchover Mode is enabled
  6341                           ;	Fail-Safe Clock Monitor Enable
  6342                           ;	FCMEN = OFF, Fail-Safe Clock Monitor is disabled
  6343     8007                     	org	32775
  6344     8007  19A4               	dw	6564
  6345                           
  6346                           ;Config register CONFIG2 @ 0x8008
  6347                           ;	Flash Memory Self-Write Protection
  6348                           ;	WRT = OFF, Write protection off
  6349                           ;	Peripheral Pin Select one-way control
  6350                           ;	PPS1WAY = ON, The PPSLOCK bit cannot be cleared once it is set by software
  6351                           ;	Zero-cross detect disable
  6352                           ;	ZCDDIS = ON, ZCD disabled. ZCD can be enabled by setting the ZCDSEN bit of ZCDCON
  6353                           ;	Phase Lock Loop enable
  6354                           ;	PLLEN = OFF, 4x PLL is disabled
  6355                           ;	Stack Overflow/Underflow Reset Enable
  6356                           ;	STVREN = ON, Stack Overflow or Underflow will cause a Reset
  6357                           ;	Brown-out Reset Voltage Selection
  6358                           ;	BORV = LO, Brown-out Reset Voltage (Vbor), low trip point selected.
  6359                           ;	Low-Power Brown Out Reset
  6360                           ;	LPBOR = OFF, Low-Power BOR is disabled
  6361                           ;	In-Circuit Debugger Mode
  6362                           ;	DEBUG = 0x1, unprogrammed default
  6363                           ;	Low-Voltage Programming Enable
  6364                           ;	LVP = OFF, High-voltage on MCLR/VPP must be used for programming
  6365     8008                     	org	32776
  6366     8008  1EFF               	dw	7935

Data Sizes:
    Strings     6
    Constant    906
    Data        0
    BSS         0
    Persistent  32
    Stack       0

Auto Spaces:
    Space          Size  Autos    Used
    COMMON           14     14      14
    BANK0            80     35      35
    BANK1            80      0       0
    BANK2            80      0       0
    BANK3            80      0       0
    BANK4            80      0       0
    BANK5            80      0       0
    BANK6            80      0       0
    BANK7            80      0       0
    BANK8            80      0       0
    BANK9            80      0       0
    BANK10           80      0       0
    BANK11           80      0       0
    BANK12           80      0       0
    BANK13           80      0       0
    BANK14           80      0       0
    BANK15           64      0       0
    BANK16            0      0       0
    BANK17            0      0       0
    BANK18            0      0       0
    BANK19            0      0       0
    BANK20            0      0       0
    BANK21            0      0       0
    BANK22            0      0       0
    BANK23            0      0       0
    BANK24            0      0       0
    BANK25            0      0       0

Pointer List with Targets:

    memset@dest	PTR void  size(2) Largest target is 512
		 -> screen_buffer(BIGRAM[512]), 

    memset@p	PTR unsigned char  size(2) Largest target is 512
		 -> screen_buffer(BIGRAM[512]), 

    OLED_WriteData@data	PTR const unsigned char  size(2) Largest target is 768
		 -> OLED_ClearFast@zeros(CODE[128]), OledFont(CODE[768]), screen_buffer(BIGRAM[512]), 

    OLED_WriteString@s	PTR const unsigned char  size(2) Largest target is 9
		 -> main@line1(BANK0[9]), STR_1(CODE[6]), 

    sp__memcpy	PTR void  size(2) Largest target is 512
		 -> screen_buffer(BIGRAM[512]), 

    sp__memset	PTR void  size(2) Largest target is 512
		 -> screen_buffer(BIGRAM[512]), 

    sp__strcpy	PTR unsigned char  size(2) Largest target is 256
		 -> OLED_Printf_Line@last_text(BIGRAM[256]), 


Critical Paths under _main in COMMON

    _main->_OLED_Init
    _main->___awmod
    _get_dec->___bmul
    ___awmod->___awdiv
    _OLED_WriteString->_OLED_WriteData
    _OLED_Init->_OLED_Clear
    _OLED_Clear->_OLED_WriteData
    _OLED_YX->_OLED_Command
    _OLED_Command->_I2C_WriteByte
    _OLED_WriteData->_I2C_WriteByte
    _I2C_WriteByte->_I2C_WaitIF
    _I2C_WriteByte->_I2C_WaitIdle
    _I2C_Stop->_I2C_WaitIF
    _I2C_Stop->_I2C_WaitIdle
    _I2C_Start->_I2C_WaitIF
    _I2C_Start->_I2C_WaitIdle
    _DS1302_Initialize->_get_bcd
    _get_bcd->___awdiv

Critical Paths under _main in BANK0

    _main->_DS1302_Initialize
    _OLED_Init->_OLED_Clear

Critical Paths under _main in BANK1

    None.

Critical Paths under _main in BANK2

    None.

Critical Paths under _main in BANK3

    None.

Critical Paths under _main in BANK4

    None.

Critical Paths under _main in BANK5

    None.

Critical Paths under _main in BANK6

    None.

Critical Paths under _main in BANK7

    None.

Critical Paths under _main in BANK8

    None.

Critical Paths under _main in BANK9

    None.

Critical Paths under _main in BANK10

    None.

Critical Paths under _main in BANK11

    None.

Critical Paths under _main in BANK12

    None.

Critical Paths under _main in BANK13

    None.

Critical Paths under _main in BANK14

    None.

Critical Paths under _main in BANK15

    None.

Critical Paths under _main in BANK16

    None.

Critical Paths under _main in BANK17

    None.

Critical Paths under _main in BANK18

    None.

Critical Paths under _main in BANK19

    None.

Critical Paths under _main in BANK20

    None.

Critical Paths under _main in BANK21

    None.

Critical Paths under _main in BANK22

    None.

Critical Paths under _main in BANK23

    None.

Critical Paths under _main in BANK24

    None.

Critical Paths under _main in BANK25

    None.

Call Graph Tables:

 ---------------------------------------------------------------------------------
 (Depth) Function   	        Calls       Base Space   Used Autos Params    Refs
 ---------------------------------------------------------------------------------
 (0) _main                                                32    32      0   32776
                                             14 BANK0     21    21      0
                  _DS1302_Initialize
                    _DS1302_ReadByte
                       _DS1302_Reset
                   _DS1302_WriteByte
                           _I2C_Init
                         _OLED_Clear
                     _OLED_ClearFast
                          _OLED_Init
                   _OLED_WriteString
                            ___awdiv
                            ___awmod
                            _get_dec
                           _initMain
 ---------------------------------------------------------------------------------
 (1) _initMain                                             0     0      0       0
                        _internal_16
 ---------------------------------------------------------------------------------
 (2) _internal_16                                          0     0      0       0
 ---------------------------------------------------------------------------------
 (1) _get_dec                                              3     3      0     312
                                              4 COMMON     3     3      0
                             ___bmul
 ---------------------------------------------------------------------------------
 (1) ___awmod                                              7     3      4    1360
                                              9 COMMON     5     1      4
                                              0 BANK0      2     2      0
                            ___awdiv (ARG)
 ---------------------------------------------------------------------------------
 (1) _OLED_WriteString                                     9     5      4    7856
                                             12 COMMON     1     1      0
                                              0 BANK0      8     4      4
                     _OLED_WriteData
                            _OLED_YX
 ---------------------------------------------------------------------------------
 (1) _OLED_Init                                            1     1      0   10901
                                             13 COMMON     1     1      0
                         _OLED_Clear
                       _OLED_Command
 ---------------------------------------------------------------------------------
 (2) _OLED_Clear                                           7     7      0    7885
                                             12 COMMON     1     1      0
                                              0 BANK0      6     6      0
                     _OLED_WriteData
                            _OLED_YX
                             _memset
 ---------------------------------------------------------------------------------
 (3) _memset                                               8     2      6     552
                                              0 COMMON     8     2      6
 ---------------------------------------------------------------------------------
 (2) _OLED_YX                                              4     3      1    3333
                                              7 COMMON     4     3      1
                       _OLED_Command
 ---------------------------------------------------------------------------------
 (3) _OLED_Command                                         2     2      0    3016
                                              5 COMMON     2     2      0
                          _I2C_Start
                           _I2C_Stop
                      _I2C_WriteByte
                      _SSD1306_CtrlW
 ---------------------------------------------------------------------------------
 (2) _OLED_WriteData                                       7     3      4    3888
                                              5 COMMON     7     3      4
                          _I2C_Start
                           _I2C_Stop
                      _I2C_WriteByte
                      _SSD1306_CtrlW
 ---------------------------------------------------------------------------------
 (4) _SSD1306_CtrlW                                        0     0      0       0
 ---------------------------------------------------------------------------------
 (4) _I2C_WriteByte                                        2     2      0     992
                                              3 COMMON     2     2      0
                         _I2C_WaitIF
                       _I2C_WaitIdle
 ---------------------------------------------------------------------------------
 (4) _I2C_Stop                                             1     1      0     938
                                              3 COMMON     1     1      0
                         _I2C_WaitIF
                       _I2C_WaitIdle
 ---------------------------------------------------------------------------------
 (4) _I2C_Start                                            1     1      0     970
                                              3 COMMON     1     1      0
                         _I2C_WaitIF
                       _I2C_WaitIdle
 ---------------------------------------------------------------------------------
 (5) _I2C_WaitIdle                                         3     1      2     402
                                              0 COMMON     3     1      2
 ---------------------------------------------------------------------------------
 (5) _I2C_WaitIF                                           3     1      2     478
                                              0 COMMON     3     1      2
 ---------------------------------------------------------------------------------
 (1) _OLED_ClearFast                                       0     0      0       0
 ---------------------------------------------------------------------------------
 (1) _I2C_Init                                             1     1      0       0
                                              0 COMMON     1     1      0
                    _I2C_ClearErrors
 ---------------------------------------------------------------------------------
 (2) _I2C_ClearErrors                                      0     0      0       0
 ---------------------------------------------------------------------------------
 (1) _DS1302_ReadByte                                      4     4      0      95
                                              0 COMMON     4     4      0
 ---------------------------------------------------------------------------------
 (1) _DS1302_Initialize                                   14     8      6    2408
                                              0 BANK0     14     8      6
                       _DS1302_Reset
                   _DS1302_WriteByte
                            _get_bcd
 ---------------------------------------------------------------------------------
 (2) _get_bcd                                              5     5      0    1568
                                              9 COMMON     5     5      0
                            ___awdiv
                             ___bmul
 ---------------------------------------------------------------------------------
 (2) ___bmul                                               4     3      1     244
                                              0 COMMON     4     3      1
 ---------------------------------------------------------------------------------
 (1) ___awdiv                                              9     5      4    1212
                                              0 COMMON     9     5      4
 ---------------------------------------------------------------------------------
 (1) _DS1302_WriteByte                                     3     3      0      69
                                              0 COMMON     3     3      0
 ---------------------------------------------------------------------------------
 (1) _DS1302_Reset                                         0     0      0       0
 ---------------------------------------------------------------------------------
 Estimated maximum stack depth 5
 ---------------------------------------------------------------------------------

 Call Graph Graphs:

 _main (ROOT)
   _DS1302_Initialize
     _DS1302_Reset
     _DS1302_WriteByte
     _get_bcd
       ___awdiv
       ___bmul
   _DS1302_ReadByte
   _DS1302_Reset
   _DS1302_WriteByte
   _I2C_Init
     _I2C_ClearErrors
   _OLED_Clear
     _OLED_WriteData
       _I2C_Start
         _I2C_WaitIF
         _I2C_WaitIdle
       _I2C_Stop
         _I2C_WaitIF
         _I2C_WaitIdle
       _I2C_WriteByte
         _I2C_WaitIF
         _I2C_WaitIdle
       _SSD1306_CtrlW
     _OLED_YX
       _OLED_Command
         _I2C_Start
         _I2C_Stop
         _I2C_WriteByte
         _SSD1306_CtrlW
     _memset
   _OLED_ClearFast
   _OLED_Init
     _OLED_Clear
     _OLED_Command
   _OLED_WriteString
     _OLED_WriteData
     _OLED_YX
   ___awdiv
   ___awmod
     ___awdiv (ARG)
   _get_dec
     ___bmul
   _initMain
     _internal_16

 Address spaces:
Name               Size   Autos  Total    Cost      Usage
BIGRAM             7F0      0       0       0        0.0%
NULL                 0      0       0       0        0.0%
CODE                 0      0       0       0        0.0%
BITCOMMON            E      0       0       1        0.0%
BITSFR0              0      0       0       1        0.0%
SFR0                 0      0       0       1        0.0%
COMMON               E      E       E       2      100.0%
BITSFR1              0      0       0       2        0.0%
SFR1                 0      0       0       2        0.0%
BITSFR2              0      0       0       3        0.0%
SFR2                 0      0       0       3        0.0%
STACK                0      0       0       3        0.0%
BITBANK0            50      0       0       4        0.0%
BITSFR3              0      0       0       4        0.0%
SFR3                 0      0       0       4        0.0%
BANK0               50     23      23       5       43.8%
BITSFR4              0      0       0       5        0.0%
SFR4                 0      0       0       5        0.0%
BITBANK1            50      0       0       6        0.0%
BITSFR5              0      0       0       6        0.0%
SFR5                 0      0       0       6        0.0%
BANK1               50      0       0       7        0.0%
BITSFR6              0      0       0       7        0.0%
SFR6                 0      0       0       7        0.0%
BITBANK2            50      0       0       8        0.0%
BITSFR7              0      0       0       8        0.0%
SFR7                 0      0       0       8        0.0%
BANK2               50      0       0       9        0.0%
BITSFR8              0      0       0       9        0.0%
SFR8                 0      0       0       9        0.0%
BITBANK3            50      0       0      10        0.0%
BITSFR9              0      0       0      10        0.0%
SFR9                 0      0       0      10        0.0%
BANK3               50      0       0      11        0.0%
BITSFR10             0      0       0      11        0.0%
SFR10                0      0       0      11        0.0%
BITBANK4            50      0       0      12        0.0%
BITSFR11             0      0       0      12        0.0%
SFR11                0      0       0      12        0.0%
BANK4               50      0       0      13        0.0%
BITSFR12             0      0       0      13        0.0%
SFR12                0      0       0      13        0.0%
BITSFR13             0      0       0      14        0.0%
SFR13                0      0       0      14        0.0%
ABS                  0      0       0      14        0.0%
BITBANK5            50      0       0      15        0.0%
BITSFR14             0      0       0      15        0.0%
SFR14                0      0       0      15        0.0%
BANK5               50      0       0      16        0.0%
BITSFR15             0      0       0      16        0.0%
SFR15                0      0       0      16        0.0%
BITBANK6            50      0       0      17        0.0%
BITSFR16             0      0       0      17        0.0%
SFR16                0      0       0      17        0.0%
BANK6               50      0       0      18        0.0%
BITSFR17             0      0       0      18        0.0%
SFR17                0      0       0      18        0.0%
BITBANK7            50      0       0      19        0.0%
BITSFR18             0      0       0      19        0.0%
SFR18                0      0       0      19        0.0%
BANK7               50      0       0      20        0.0%
BITSFR19             0      0       0      20        0.0%
SFR19                0      0       0      20        0.0%
BITBANK8            50      0       0      21        0.0%
BITSFR20             0      0       0      21        0.0%
SFR20                0      0       0      21        0.0%
BANK8               50      0       0      22        0.0%
BITSFR21             0      0       0      22        0.0%
SFR21                0      0       0      22        0.0%
BITBANK9            50      0       0      23        0.0%
BITSFR22             0      0       0      23        0.0%
SFR22                0      0       0      23        0.0%
BANK9               50      0       0      24        0.0%
BITSFR23             0      0       0      24        0.0%
SFR23                0      0       0      24        0.0%
BITBANK10           50      0       0      25        0.0%
BITSFR24             0      0       0      25        0.0%
SFR24                0      0       0      25        0.0%
BANK10              50      0       0      26        0.0%
BITSFR25             0      0       0      26        0.0%
SFR25                0      0       0      26        0.0%
BITBANK11           50      0       0      27        0.0%
BITSFR26             0      0       0      27        0.0%
SFR26                0      0       0      27        0.0%
BITSFR27             0      0       0      28        0.0%
SFR27                0      0       0      28        0.0%
DATA                 0      0       0      28        0.0%
BANK11              50      0       0      29        0.0%
BITSFR28             0      0       0      29        0.0%
SFR28                0      0       0      29        0.0%
BITBANK12           50      0       0      30        0.0%
BITSFR29             0      0       0      30        0.0%
SFR29                0      0       0      30        0.0%
BANK12              50      0       0      31        0.0%
BITSFR30             0      0       0      31        0.0%
SFR30                0      0       0      31        0.0%
BITBANK13           50      0       0      32        0.0%
BITSFR31             0      0       0      32        0.0%
SFR31                0      0       0      32        0.0%
BANK13              50      0       0      33        0.0%
BITBANK14           50      0       0      34        0.0%
BANK14              50      0       0      35        0.0%
BITBANK15           50      0       0      36        0.0%
BANK15              40      0       0      37        0.0%
BITBANK16           50      0       0      38        0.0%
BANK16               0      0       0      39        0.0%
BITBANK17           50      0       0      40        0.0%
BANK17               0      0       0      41        0.0%
BITBANK18           50      0       0      42        0.0%
BANK18               0      0       0      43        0.0%
BITBANK19           50      0       0      44        0.0%
BANK19               0      0       0      45        0.0%
BITBANK20           50      0       0      46        0.0%
BANK20               0      0       0      47        0.0%
BITBANK21           50      0       0      48        0.0%
BANK21               0      0       0      49        0.0%
BITBANK22           50      0       0      50        0.0%
BANK22               0      0       0      51        0.0%
BITBANK23           50      0       0      52        0.0%
BANK23               0      0       0      53        0.0%
BITBANK24           50      0       0      54        0.0%
BANK24               0      0       0      55        0.0%
BITBANK25           20      0       0      56        0.0%
BANK25               0      0       0      57        0.0%


Microchip Technology PIC Macro Assembler V2.46 build 20240104201356 
Symbol Table                                                                                   Sun Dec 28 16:26:28 2025

             ___bmul@product 0072                  _SSPSTATbits 0214                           l32 0227  
                         l41 0330                           l26 0288                           l35 01FE  
                         l28 02A4                           l60 03B9                           l45 0365  
                         l61 03DA                           l46 037A                           l62 03CC  
                         l47 0377                           l55 02F8                           l63 03D4  
                         l56 030C                           l57 030A                 ___awdiv@sign 0076  
  OLED_Printf_Line@last_text 26F0                          l101 01F2                          l111 04FA  
                        l105 03A8                          l115 04EF                          l131 02C6  
                        l134 0695                          l161 04AA                          l139 045D  
                        l371 0254                          l283 0207                          l373 025B  
                        l349 0410                          l374 026A                          l382 0621  
                        l622 054E                          l368 01F7                          l609 05AD  
                        l385 02E9                          l377 0337                          l482 023C  
                        l378 0352                          l379 0355                          l388 0251  
                        l924 0286                 _DS1302_Reset 01F3                 ___awmod@sign 0021  
                        wreg 0009           OLED_WriteString@ch 007C     OLED_WriteString@col_char 0023  
   __end_of_OLED_WriteString 04AB                         l2002 03BB                         l2012 03D1  
                       l2004 03BE                         l2100 02BA                         l2110 0229  
                       l2014 03D2                         l2006 03C6                         l2022 01F1  
                       l2102 026B                         l2200 0260                         l2120 023B  
                       l2112 022A                         l2040 0396                         l2032 0386  
                       l2104 0270                         l2202 0264                         l2130 0559  
                       l2114 022E                         l2210 0214                         l2018 03D5  
                       l2042 039B                         l2034 038D                         l2026 037C  
                       l2106 0276                         l2140 056A                         l2132 055B  
                       l2124 054F                         l2116 0232                         l2204 02C8  
                       l2212 0219                         l2052 04AB                         l2036 0392  
                       l2028 0380                         l2108 027A                         l2220 0622  
                       l2300 0485                         l2150 0580                         l2142 0570  
                       l2134 055F                         l2126 0550                         l2118 0234  
                       l2206 02E0                         l2214 021A                         l2070 04CC  
                       l2062 04BC                         l2230 063A                         l2222 062A  
                       l2302 04A0                         l2310 03E1                         l2152 058F  
                       l2144 0573                         l2160 059F                         l2136 0564  
                       l2128 0554                         l2400 0348                         l2216 021C  
                       l2080 04DA                         l2072 04D1                         l2064 04C3  
                       l2056 04B2                         l2048 03A1                         l2240 064E  
                       l2232 063E                         l2224 062E                         l2320 03EA  
                       l2312 03E3                         l2304 03DB                         l2162 05A4  
                       l2154 0593                         l2146 0578                         l2138 0568  
                       l2402 034C                         l2218 021F                         l2082 04E5  
                       l2066 04C8                         l2058 04B6                         l2170 0411  
                       l2250 0662                         l2242 0652                         l2234 0642  
                       l2226 0632                         l2410 024B                         l2330 0400  
                       l2322 03EF                         l2314 03E4                         l2306 03DE  
                       l2164 05A9                         l2156 0594                         l2148 057C  
                       l2404 0354                         l2180 0434                         l2260 0676  
                       l2252 0666                         l2244 0656                         l2236 0646  
                       l2228 0636                         l2420 0501                         l2412 0250  
                       l2340 0407                         l2332 0402                         l2324 03F4  
                       l2316 03E7                         l2308 03E0                         l2190 0253  
                       l2158 0599                         l2078 04D7                         l2094 02A6  
                       l2182 0452                         l2270 068A                         l2262 067A  
                       l2254 066A                         l2246 065A                         l2238 064A  
                       l2430 0517                         l2422 0506                         l2350 040E  
                       l2342 0409                         l2334 0403                         l2326 03F8  
                       l2318 03E9                         l2360 05E5                         l2352 05B0  
                       l2168 01F8                         l2088 04EB                         l2096 02AF  
                       l2184 0457                         l2176 0412                         l2272 068E  
                       l2264 067E                         l2256 066E                         l2248 065E  
                       l2440 0531                         l2432 051A                         l2424 0508  
                       l2416 04FB                         l2408 023E                         l2344 040A  
                       l2336 0405                         l2328 03FD                         l2370 0601  
                       l2362 05F0                         l2354 05DA                         l2098 02B5  
                       l2178 042F                         l2274 0692                         l2266 0682  
                       l2258 0672                         l2290 046D                         l2450 054A  
                       l2442 0535                         l2434 051F                         l2426 050C  
                       l2418 04FD                         l2186 01FF                         l2346 040B  
                       l2338 0406                         l2188 01F3                         l2196 025A  
                       l2380 061A                         l2372 0606                         l2364 05F3  
                       l2356 05DD                         l2268 0686                         l2292 0473  
                       l2284 045E                         l2444 053A                         l2436 0523  
                       l2428 0511                         l2348 040D                         l2198 025E  
                       l2374 060B                         l2366 05F7                         l2358 05E1  
                       l2382 0331                         l2294 0477                         l2438 0527  
                       l2446 0540            DS1302_WriteByte@i 0072                         l2376 0610  
                       l2368 05FC                         l2392 033A                         l2384 0332  
                       l2296 047D                         l2288 0466                         l2448 0545  
                       l2378 0615                         l2394 033F                         l2386 0334  
                       l1930 0287                         l2298 0483                         l2396 0342  
                       l1940 02A3                         l1932 028D                         l2900 07C9  
                       l2820 069C                         l2398 0344                         l1950 0319  
                       l2902 07D4                         l2830 06C9                         l2822 06A9  
                       l1936 028F                         l1944 030D                         l2904 07E0  
                       l2840 06C9                         l2832 06C9                         l2824 06AC  
                       l1938 0297                         l1954 031B                         l1946 030E  
                       l1970 0369                         l1962 0356                         l2906 07E3  
                       l2850 06E1                         l2842 06C9                         l2834 06C9  
                       l2826 06B9                         l2818 0696                         l1948 0315  
                       l1956 0323                         l1972 0371                         l1964 035E  
                       l2860 06FA                         l2852 06E6                         l2844 06C9  
                       l2836 06C9                         l2828 06BC                         l1958 032F  
                       l1966 0363                         l1990 0304                         l1982 02EA  
                       l2870 0711                         l2862 06FF                         l2854 06EB  
                       l2846 06DA                         l2838 06C9                         l1984 02F2  
                       l2880 072E                         l2872 0716                         l2864 0704  
                       l2856 06F0                         l2848 06DD                         l1978 0379  
                       l1994 03AA                         l2890 078E                         l2882 074B  
                       l2874 071B                         l2866 0707                         l2858 06F5  
                       l1988 02FC                         l1996 03B2                         l2892 0790  
                       l2884 075D                         l2876 0722                         l2868 070C  
                       l1998 03B7                         l2894 07AD                         l2886 075F  
                       l2878 0728                         l2896 07BF                         l2888 077C  
                       l2898 07C0                         STR_1 0B80              __end_of_OLED_YX 02C7  
                       u1200 0315                         u1201 0314                         u1210 0319  
                       u1211 0318                         u1220 032F                         u1300 0385  
                       u1221 032E                         u1301 0384                         u1230 0363  
                       u1310 0392                         u1231 0362                         u1311 0391  
                ?_OLED_Clear 0070                         u1240 0376                         u1320 03A0  
                       u1241 0375                         u1321 039F                         u1250 02F7  
                       u1330 04B1                         u1410 0286                         u1251 02F6  
                       u1331 04B0                         u1411 0285                         u1500 058F  
                       u1420 022E                         u1180 028D                         u1260 0309  
                       u1340 04BB                         u1501 058E                         u1421 022D  
                       u1181 028C                         u1261 0308                         u1341 04BA  
                       u1405 02BD                         u1430 023B                         u1190 02A3  
                       u1270 03B7                         u1350 04C8                         u1431 023A  
                       u1191 02A2                         u1271 03B6                         u1351 04C7  
                       u1520 059F                         u1440 0554                         u1280 03CB  
                       u1360 04D6                         u1521 059E                         u1505 058B  
                       u1441 0553                         u1281 03CA                         u1361 04D5  
                       u1530 05A4                         u1450 055F                         u1290 03D1  
                       u1370 04EA                         u1531 05A3                         u1515 0595  
                       u1451 055E                         u1291 03D0                         u1371 04E9  
                       u1460 0570                         u1380 04F9                         u1620 0465  
                       u1700 0517                         u1461 056F                         u1381 04F8  
                       u1621 0464                         u1701 0516                         u1630 047D  
                       u2407 0625                         u1631 047C                         u1480 0580  
                       u1560 045D                         u1640 0483                         u1720 0527  
                       u1481 057F                         u2417 031E                         u1385 04F5  
                       u1561 045C                         u1545 0417                         u1641 0482  
                       u1721 0526                         u1570 025A                         u1650 04AA  
                       u1730 0531                         u1571 0259                         u1475 0574  
                       u2427 0292                         u1395 02A9                         u1555 0439  
                       u1651 04A9                         u1731 0530                         u1715 051B  
                       u1580 026A                         u1660 0352                         u1581 0269  
                       u1661 0351                         u2437 0222                         u2357 06A2  
                       u1750 0540                         u1495 0581                         u1751 053F  
                       u1735 052D                         u2367 06B2                         u1760 0545  
                       u1680 0501                         u1761 0544                         u1745 0536  
                       u1681 0500                         u2377 06C2                         u1690 050C  
                       u1595 02E3                         u1691 050B                         u1675 0243  
                       u2387 07DA                         u2397 07E9                         _SCS0 04C8  
                       _SCS1 04C9                         _main 0696             __end_of_I2C_Init 0228  
                       fsr0h 0005                         fsr1h 0007                         indf0 0000  
                       fsr0l 0004                         indf1 0001                         fsr1l 0006  
                       btemp 007E             __end_of_I2C_Stop 030D                         start 0003  
          ___bmul@multiplier 0073             ??_OLED_WriteData 0079                        ?_main 0070  
            __end_of___awdiv 05AE              __end_of___awmod 054F              ___awdiv@divisor 0070  
                      _IRCF0 04CB                        _IRCF1 04CC                        _IRCF2 04CD  
                      _IRCF3 04CE              ___awdiv@counter 0075              __end_of_get_bcd 02EA  
            __end_of_get_dec 0252            __end_of_I2C_Start 037B                  _BatteryIcon 0B86  
               _I2C_WaitIdle 030D         I2C_WaitIF@timeout_ms 0070                        status 0003  
                      wtemp0 007E                 ?_internal_16 0070         OLED_WriteString@page 0022  
            __initialization 07F2                 __end_of_main 07F2             __end_of_OledFont 0B00  
                     ??_main 002E          DS1302_Initialize@hr 0021                    ??_OLED_YX 0078  
           ___awdiv@dividend 0072                 ??_I2C_WaitIF 0072            __end_of_OLED_Init 0696  
            _DS1302_ReadByte 0331                ?_OLED_Command 0070                       _SPLLEN 04CF  
                     _SSPADD 0212                       _SSPBUF 0211                       ___bmul 0228  
                  ??___awdiv 0074                    ??___awmod 007D             __end_of_initMain 0411  
                     _memset 026B                  OLED_Clear@p 007C             ___awdiv@quotient 0077  
            ___awmod@divisor 0079              ___awmod@counter 0020                  OLED_YX@page 0079  
         __end_of_I2C_WaitIF 02A5                    ??_get_bcd 0079                    ??_get_dec 0074  
                  ?_I2C_Init 0070                    ?_I2C_Stop 0070               ??_OLED_Command 0075  
            I2C_WriteByte@st 0074      __end_of__initialization 07FD          ___bmul@multiplicand 0070  
             __pcstackCOMMON 0070       DS1302_Initialize@date1 002B                _I2C_WriteByte 03A9  
      DS1302_ReadByte@R_Byte 0072       DS1302_Initialize@year1 002D                   ??_I2C_Init 0070  
                 ??_I2C_Stop 0073      __end_of_DS1302_ReadByte 0356            ?_OLED_WriteString 0020  
               ??_OLED_Clear 0020           ??_OLED_WriteString 0024         DS1302_Initialize@hr1 0029  
       DS1302_Initialize@day 0022         DS1302_Initialize@min 0020         DS1302_Initialize@sec 0026  
       DS1302_Initialize@mth 0024                _SSD1306_CtrlW 01F1                   __pmaintext 0696  
             ?_I2C_WriteByte 0070                      ?___bmul 0070                      ?_memset 0070  
                 I2C_Stop@st 0073           __end_of_OLED_Clear 045E       DS1302_WriteByte@W_Byte 0071  
                    _OLED_YX 02A5  __end_ofOLED_ClearFast@zeros 0B80                      _PPSLOCK 0E0F  
                    _SSPCON2 0216       I2C_WaitIdle@timeout_ms 0070                    ?_initMain 0070  
                  _I2C_Start 0356               ?_SSD1306_CtrlW 0070                      ___awdiv 054F  
                    ___awmod 04FB            ??_I2C_ClearErrors 0070         __end_of_OLED_Command 03A9  
                    __ptext1 03DB                      __ptext2 01FF                      __ptext3 023D  
                    __ptext4 04FB                      __ptext5 045E                      __ptext6 0622  
                    __ptext7 0411                      __ptext8 026B                      __ptext9 02A5  
                    _get_bcd 02C7                      _get_dec 023D             ___awmod@dividend 007B  
           _DS1302_WriteByte 0252             ?_DS1302_ReadByte 0070                      main@dy1 003C  
                    main@hr1 003D                      main@hr2 0040                      main@mn1 003A  
                    main@yr1 0039                      clrloop0 0209         end_of_initialization 07FD  
                 ??_initMain 0070                      memset@c 0072                      memset@n 0074  
                    memset@p 0076                    _OLED_Init 0622                   ?_I2C_Start 0070  
          OLED_WriteData@len 0077              ??_I2C_WriteByte 0073                    _PORTBbits 000D  
                 get_dec@var 0076                    _TRISBbits 008D                    _TRISCbits 008E  
            OLED_YX@col_char 0077            OLED_WriteString@s 0020              OLED_Command@cmd 0075  
            ??_SSD1306_CtrlW 0070                   ?_OLED_Init 0070               __end_of___bmul 023D  
             __end_of_memset 0287                ?_DS1302_Reset 0070       DS1302_ReadByte@TmpByte 0071  
        start_initialization 07F2               _OLED_ClearFast 0000                  ??_I2C_Start 0073  
                   ??___bmul 0071                   OLED_YX@col 007A                     ??_memset 0076  
                 memset@dest 0070               ??_DS1302_Reset 0070                  __pbssBIGRAM 24F0  
                  ___latbits 0003                     ?_OLED_YX 0077                __pcstackBANK0 0020  
      DS1302_Initialize@day1 002A        DS1302_Initialize@date 0023        DS1302_Initialize@min1 0028  
      DS1302_Initialize@sec1 0027        DS1302_Initialize@mth1 002C        DS1302_Initialize@year 0025  
              ?_I2C_WaitIdle 0070                 _OLED_Command 037B              _I2C_ClearErrors 01F8  
              ??_internal_16 0070                  ??_OLED_Init 007D                _screen_buffer 24F0  
   __end_of_DS1302_WriteByte 026B                     ?___awdiv 0070                     ?___awmod 0079  
                   ?_get_bcd 0070                     ?_get_dec 0070                  I2C_Start@st 0073  
                   _I2C_Init 0214                     _I2C_Stop 02EA               _OLED_WriteData 04AB  
             ??_I2C_WaitIdle 0072              ?_OLED_ClearFast 0070                     _LATBbits 010D  
                  clear_ram0 0208             OLED_WriteData@st 007B                     _PIR1bits 0011  
                   _PIR2bits 0012            _DS1302_Initialize 05AE          __end_of_internal_16 0208  
         ?_DS1302_Initialize 0020       __end_of_OLED_WriteData 04FB                    main@date1 003B  
        ??_DS1302_Initialize 007E               OLED_Command@st 0076                    main@line1 0030  
    __end_of_I2C_ClearErrors 01FF                   _I2C_WaitIF 0287                     _OledFont 0800  
       __end_of_DS1302_Reset 01F8    __end_of_DS1302_Initialize 0622             _OLED_WriteString 045E  
      __end_of_I2C_WriteByte 03DB                   _ANSELBbits 018D                   _ANSELCbits 018E  
            ?_OLED_WriteData 0075                     __ptext10 037B                     __ptext11 04AB  
                   __ptext20 0331                     __ptext12 01F1                     __ptext21 05AE  
                   __ptext13 03A9                     __ptext22 02C7                     __ptext14 02EA  
                   __ptext23 0228                     __ptext15 0356                     __ptext24 054F  
                   __ptext16 030D                     __ptext25 0252                     __ptext17 0287  
                   __ptext26 01F3                     __ptext18 0214                     __ptext19 01F8  
                   _initMain 03DB                _SSPDATPPSbits 0E21                  _internal_16 01FF  
      __end_of_SSD1306_CtrlW 01F3              OLED_WriteData@i 0079                   _RC4PPSbits 0EA4  
              _SSPCLKPPSbits 0E20                   _RC5PPSbits 0EA5         __end_of_I2C_WaitIdle 0331  
                   main@min1 003E                     main@min2 0041                     main@sec1 003F  
                   main@sec2 0042             DS1302_ReadByte@i 0073             ?_I2C_ClearErrors 0070  
                ?_I2C_WaitIF 0070                   _OLED_Clear 0411           OLED_WriteData@data 0075  
                _PPSLOCKbits 0E0F            ?_DS1302_WriteByte 0070            ??_DS1302_ReadByte 0070  
         ??_DS1302_WriteByte 0070          OLED_ClearFast@zeros 0B00                __pstringtext1 0B86  
              __pstringtext2 0800                __pstringtext3 0B00                __pstringtext4 0000  
           ??_OLED_ClearFast 0070                  _SSPCON1bits 0215                  _SSPCON2bits 0216  
                get_bcd@data 007C                  get_bcd@nibh 007D                  get_bcd@nibl 007B  
          I2C_WriteByte@data 0073                   _SSPCONbits 0215          __end_of_BatteryIcon 0B90  
                get_dec@var2 0075  
